   1                             		.file	"BusCommPltf_cfg.c"
   2                             		.section P,"ax"
   3                             	.Ltext0:
   4                             		.section	.text.Set_CPApplianceDataItem,"ax",@progbits
   5                             		.global	_Set_CPApplianceDataItem
   7                             	_Set_CPApplianceDataItem:
   8                             	.LFB0:
   9                             		.file 1 "C:/Workspace/FW_Platform2_5/trunk/CFG_DishWasher/CFG_Inertia/BusCommPltf_cfg.c"
   1:C:/Workspace/FW_Platform2_5/trunk/CFG_DishWasher/CFG_Inertia\BusCommPltf_cfg.c **** /*
   2:C:/Workspace/FW_Platform2_5/trunk/CFG_DishWasher/CFG_Inertia\BusCommPltf_cfg.c **** Copyright (c) 2004-2005, Indesit Company, I.D.D..
   3:C:/Workspace/FW_Platform2_5/trunk/CFG_DishWasher/CFG_Inertia\BusCommPltf_cfg.c **** Tutti i diritti sono riservati. All rights reserved.
   4:C:/Workspace/FW_Platform2_5/trunk/CFG_DishWasher/CFG_Inertia\BusCommPltf_cfg.c **** */
   5:C:/Workspace/FW_Platform2_5/trunk/CFG_DishWasher/CFG_Inertia\BusCommPltf_cfg.c **** /**
   6:C:/Workspace/FW_Platform2_5/trunk/CFG_DishWasher/CFG_Inertia\BusCommPltf_cfg.c **** \defgroup	CP_CFG Communication Platform Configuration
   7:C:/Workspace/FW_Platform2_5/trunk/CFG_DishWasher/CFG_Inertia\BusCommPltf_cfg.c **** @{
   8:C:/Workspace/FW_Platform2_5/trunk/CFG_DishWasher/CFG_Inertia\BusCommPltf_cfg.c **** \par		Description
   9:C:/Workspace/FW_Platform2_5/trunk/CFG_DishWasher/CFG_Inertia\BusCommPltf_cfg.c **** \n		It contains the EmbOS-based Communication platform configuration.
  10:C:/Workspace/FW_Platform2_5/trunk/CFG_DishWasher/CFG_Inertia\BusCommPltf_cfg.c **** @}
  11:C:/Workspace/FW_Platform2_5/trunk/CFG_DishWasher/CFG_Inertia\BusCommPltf_cfg.c **** \ingroup WizardPrj
  12:C:/Workspace/FW_Platform2_5/trunk/CFG_DishWasher/CFG_Inertia\BusCommPltf_cfg.c **** */
  13:C:/Workspace/FW_Platform2_5/trunk/CFG_DishWasher/CFG_Inertia\BusCommPltf_cfg.c **** 
  14:C:/Workspace/FW_Platform2_5/trunk/CFG_DishWasher/CFG_Inertia\BusCommPltf_cfg.c **** /**
  15:C:/Workspace/FW_Platform2_5/trunk/CFG_DishWasher/CFG_Inertia\BusCommPltf_cfg.c **** \par		Description
  16:C:/Workspace/FW_Platform2_5/trunk/CFG_DishWasher/CFG_Inertia\BusCommPltf_cfg.c **** \n		Application specific variables (Buffers and structures) and methods for Communication Platform
  17:C:/Workspace/FW_Platform2_5/trunk/CFG_DishWasher/CFG_Inertia\BusCommPltf_cfg.c **** \file		BusCommPltf_cfg.c
  18:C:/Workspace/FW_Platform2_5/trunk/CFG_DishWasher/CFG_Inertia\BusCommPltf_cfg.c **** \ingroup	CP_CFG
  19:C:/Workspace/FW_Platform2_5/trunk/CFG_DishWasher/CFG_Inertia\BusCommPltf_cfg.c **** \date		22/01/2011
  20:C:/Workspace/FW_Platform2_5/trunk/CFG_DishWasher/CFG_Inertia\BusCommPltf_cfg.c **** \version	01.00.00 
  21:C:/Workspace/FW_Platform2_5/trunk/CFG_DishWasher/CFG_Inertia\BusCommPltf_cfg.c **** \author		Roberto Fioravanti
  22:C:/Workspace/FW_Platform2_5/trunk/CFG_DishWasher/CFG_Inertia\BusCommPltf_cfg.c **** \n
  23:C:/Workspace/FW_Platform2_5/trunk/CFG_DishWasher/CFG_Inertia\BusCommPltf_cfg.c **** \n
  24:C:/Workspace/FW_Platform2_5/trunk/CFG_DishWasher/CFG_Inertia\BusCommPltf_cfg.c **** \par		History
  25:C:/Workspace/FW_Platform2_5/trunk/CFG_DishWasher/CFG_Inertia\BusCommPltf_cfg.c **** \n
  26:C:/Workspace/FW_Platform2_5/trunk/CFG_DishWasher/CFG_Inertia\BusCommPltf_cfg.c **** \n 		00.00.64
  27:C:/Workspace/FW_Platform2_5/trunk/CFG_DishWasher/CFG_Inertia\BusCommPltf_cfg.c **** \n		22/01/2011
  28:C:/Workspace/FW_Platform2_5/trunk/CFG_DishWasher/CFG_Inertia\BusCommPltf_cfg.c **** \n		developper Roberto Fiorvanti
  29:C:/Workspace/FW_Platform2_5/trunk/CFG_DishWasher/CFG_Inertia\BusCommPltf_cfg.c **** \n		changes 
  30:C:/Workspace/FW_Platform2_5/trunk/CFG_DishWasher/CFG_Inertia\BusCommPltf_cfg.c **** \n 		- creation
  31:C:/Workspace/FW_Platform2_5/trunk/CFG_DishWasher/CFG_Inertia\BusCommPltf_cfg.c **** \n
  32:C:/Workspace/FW_Platform2_5/trunk/CFG_DishWasher/CFG_Inertia\BusCommPltf_cfg.c **** */
  33:C:/Workspace/FW_Platform2_5/trunk/CFG_DishWasher/CFG_Inertia\BusCommPltf_cfg.c **** 
  34:C:/Workspace/FW_Platform2_5/trunk/CFG_DishWasher/CFG_Inertia\BusCommPltf_cfg.c **** /* ******** */
  35:C:/Workspace/FW_Platform2_5/trunk/CFG_DishWasher/CFG_Inertia\BusCommPltf_cfg.c **** /* Includes */
  36:C:/Workspace/FW_Platform2_5/trunk/CFG_DishWasher/CFG_Inertia\BusCommPltf_cfg.c **** /* ******** */
  37:C:/Workspace/FW_Platform2_5/trunk/CFG_DishWasher/CFG_Inertia\BusCommPltf_cfg.c **** 
  38:C:/Workspace/FW_Platform2_5/trunk/CFG_DishWasher/CFG_Inertia\BusCommPltf_cfg.c **** #include "StandardDefines.h"
  39:C:/Workspace/FW_Platform2_5/trunk/CFG_DishWasher/CFG_Inertia\BusCommPltf_cfg.c **** #include "StandardTypes.h"
  40:C:/Workspace/FW_Platform2_5/trunk/CFG_DishWasher/CFG_Inertia\BusCommPltf_cfg.c **** 
  41:C:/Workspace/FW_Platform2_5/trunk/CFG_DishWasher/CFG_Inertia\BusCommPltf_cfg.c **** #include "BusCommPltf_cfg.h"
  42:C:/Workspace/FW_Platform2_5/trunk/CFG_DishWasher/CFG_Inertia\BusCommPltf_cfg.c **** #include "BCP_BusCommMng.h"
  43:C:/Workspace/FW_Platform2_5/trunk/CFG_DishWasher/CFG_Inertia\BusCommPltf_cfg.c **** 
  44:C:/Workspace/FW_Platform2_5/trunk/CFG_DishWasher/CFG_Inertia\BusCommPltf_cfg.c **** #include "LIB_Reset.h"
  45:C:/Workspace/FW_Platform2_5/trunk/CFG_DishWasher/CFG_Inertia\BusCommPltf_cfg.c **** #include "OutputManagerExp.h"
  46:C:/Workspace/FW_Platform2_5/trunk/CFG_DishWasher/CFG_Inertia\BusCommPltf_cfg.c **** 
  47:C:/Workspace/FW_Platform2_5/trunk/CFG_DishWasher/CFG_Inertia\BusCommPltf_cfg.c **** #if defined(CONFIG_LIB_EXTERNAL_BOARD_SUPPORT)
  48:C:/Workspace/FW_Platform2_5/trunk/CFG_DishWasher/CFG_Inertia\BusCommPltf_cfg.c **** #include "ExternalOutputManagerExp.h" 
  49:C:/Workspace/FW_Platform2_5/trunk/CFG_DishWasher/CFG_Inertia\BusCommPltf_cfg.c **** #endif
  50:C:/Workspace/FW_Platform2_5/trunk/CFG_DishWasher/CFG_Inertia\BusCommPltf_cfg.c **** 
  51:C:/Workspace/FW_Platform2_5/trunk/CFG_DishWasher/CFG_Inertia\BusCommPltf_cfg.c **** #include "Main.h"
  52:C:/Workspace/FW_Platform2_5/trunk/CFG_DishWasher/CFG_Inertia\BusCommPltf_cfg.c **** #include "MainInterface.h"
  53:C:/Workspace/FW_Platform2_5/trunk/CFG_DishWasher/CFG_Inertia\BusCommPltf_cfg.c **** #include "callback.h"
  54:C:/Workspace/FW_Platform2_5/trunk/CFG_DishWasher/CFG_Inertia\BusCommPltf_cfg.c **** 
  55:C:/Workspace/FW_Platform2_5/trunk/CFG_DishWasher/CFG_Inertia\BusCommPltf_cfg.c **** 
  56:C:/Workspace/FW_Platform2_5/trunk/CFG_DishWasher/CFG_Inertia\BusCommPltf_cfg.c **** #ifdef BUS_COM_PLT_I2C_SUPPORT
  57:C:/Workspace/FW_Platform2_5/trunk/CFG_DishWasher/CFG_Inertia\BusCommPltf_cfg.c **** #include "OCI2C_drv.h"
  58:C:/Workspace/FW_Platform2_5/trunk/CFG_DishWasher/CFG_Inertia\BusCommPltf_cfg.c **** #endif /* BUS_COM_PLT_I2C_SUPPORT */
  59:C:/Workspace/FW_Platform2_5/trunk/CFG_DishWasher/CFG_Inertia\BusCommPltf_cfg.c **** 
  60:C:/Workspace/FW_Platform2_5/trunk/CFG_DishWasher/CFG_Inertia\BusCommPltf_cfg.c **** #ifdef BUS_COM_PLT_UART_SUPPORT
  61:C:/Workspace/FW_Platform2_5/trunk/CFG_DishWasher/CFG_Inertia\BusCommPltf_cfg.c **** #include "OCUART_drv.h"
  62:C:/Workspace/FW_Platform2_5/trunk/CFG_DishWasher/CFG_Inertia\BusCommPltf_cfg.c **** #endif /* BUS_COM_PLT_UART_SUPPORT */
  63:C:/Workspace/FW_Platform2_5/trunk/CFG_DishWasher/CFG_Inertia\BusCommPltf_cfg.c **** 
  64:C:/Workspace/FW_Platform2_5/trunk/CFG_DishWasher/CFG_Inertia\BusCommPltf_cfg.c **** #if 	defined(I2C_OCDMA_SUPPORT) || defined(UART_OCDMA_SUPPORT)
  65:C:/Workspace/FW_Platform2_5/trunk/CFG_DishWasher/CFG_Inertia\BusCommPltf_cfg.c **** #include "OCDMA_drv.h"
  66:C:/Workspace/FW_Platform2_5/trunk/CFG_DishWasher/CFG_Inertia\BusCommPltf_cfg.c **** #endif
  67:C:/Workspace/FW_Platform2_5/trunk/CFG_DishWasher/CFG_Inertia\BusCommPltf_cfg.c **** #include "OCFLS_drv.h"
  68:C:/Workspace/FW_Platform2_5/trunk/CFG_DishWasher/CFG_Inertia\BusCommPltf_cfg.c **** 
  69:C:/Workspace/FW_Platform2_5/trunk/CFG_DishWasher/CFG_Inertia\BusCommPltf_cfg.c **** #include "Lib_Utilities.h"
  70:C:/Workspace/FW_Platform2_5/trunk/CFG_DishWasher/CFG_Inertia\BusCommPltf_cfg.c **** 
  71:C:/Workspace/FW_Platform2_5/trunk/CFG_DishWasher/CFG_Inertia\BusCommPltf_cfg.c **** #ifdef CONFIG_PM_POWER_PROFILE_SUPPORT
  72:C:/Workspace/FW_Platform2_5/trunk/CFG_DishWasher/CFG_Inertia\BusCommPltf_cfg.c **** #include "PM_PowerProfile.h"
  73:C:/Workspace/FW_Platform2_5/trunk/CFG_DishWasher/CFG_Inertia\BusCommPltf_cfg.c **** #endif /* CONFIG_PM_POWER_PROFILE_SUPPORT */
  74:C:/Workspace/FW_Platform2_5/trunk/CFG_DishWasher/CFG_Inertia\BusCommPltf_cfg.c **** 
  75:C:/Workspace/FW_Platform2_5/trunk/CFG_DishWasher/CFG_Inertia\BusCommPltf_cfg.c **** #if defined(CONFIG_PM_ENERGY_METER_SW)
  76:C:/Workspace/FW_Platform2_5/trunk/CFG_DishWasher/CFG_Inertia\BusCommPltf_cfg.c **** #include "PM_EnergyMeterSw.h"
  77:C:/Workspace/FW_Platform2_5/trunk/CFG_DishWasher/CFG_Inertia\BusCommPltf_cfg.c **** #endif /*defined(CONFIG_PM_ENERGY_METER_SW)*/
  78:C:/Workspace/FW_Platform2_5/trunk/CFG_DishWasher/CFG_Inertia\BusCommPltf_cfg.c **** 
  79:C:/Workspace/FW_Platform2_5/trunk/CFG_DishWasher/CFG_Inertia\BusCommPltf_cfg.c **** #include "Tools.h"
  80:C:/Workspace/FW_Platform2_5/trunk/CFG_DishWasher/CFG_Inertia\BusCommPltf_cfg.c **** 
  81:C:/Workspace/FW_Platform2_5/trunk/CFG_DishWasher/CFG_Inertia\BusCommPltf_cfg.c **** #include "LIB_ClassBVar.h"
  82:C:/Workspace/FW_Platform2_5/trunk/CFG_DishWasher/CFG_Inertia\BusCommPltf_cfg.c **** 
  83:C:/Workspace/FW_Platform2_5/trunk/CFG_DishWasher/CFG_Inertia\BusCommPltf_cfg.c **** /* ****************** */
  84:C:/Workspace/FW_Platform2_5/trunk/CFG_DishWasher/CFG_Inertia\BusCommPltf_cfg.c **** /* Defines and Macros */
  85:C:/Workspace/FW_Platform2_5/trunk/CFG_DishWasher/CFG_Inertia\BusCommPltf_cfg.c **** /* ****************** */
  86:C:/Workspace/FW_Platform2_5/trunk/CFG_DishWasher/CFG_Inertia\BusCommPltf_cfg.c **** 
  87:C:/Workspace/FW_Platform2_5/trunk/CFG_DishWasher/CFG_Inertia\BusCommPltf_cfg.c **** 
  88:C:/Workspace/FW_Platform2_5/trunk/CFG_DishWasher/CFG_Inertia\BusCommPltf_cfg.c **** #if defined(CONFIG_LIB_EXTERNAL_BOARD_SUPPORT)
  89:C:/Workspace/FW_Platform2_5/trunk/CFG_DishWasher/CFG_Inertia\BusCommPltf_cfg.c **** /* External board protocol */
  90:C:/Workspace/FW_Platform2_5/trunk/CFG_DishWasher/CFG_Inertia\BusCommPltf_cfg.c **** #define EXT_PROT_CMD_SID_SIZE				              (1)
  91:C:/Workspace/FW_Platform2_5/trunk/CFG_DishWasher/CFG_Inertia\BusCommPltf_cfg.c **** #define EXT_PROT_TOOL_ID_REQ_SIZE		                  (1)
  92:C:/Workspace/FW_Platform2_5/trunk/CFG_DishWasher/CFG_Inertia\BusCommPltf_cfg.c **** #endif	/* defined(CONFIG_LIB_EXTERNAL_BOARD_SUPPORT) */
  93:C:/Workspace/FW_Platform2_5/trunk/CFG_DishWasher/CFG_Inertia\BusCommPltf_cfg.c **** 
  94:C:/Workspace/FW_Platform2_5/trunk/CFG_DishWasher/CFG_Inertia\BusCommPltf_cfg.c **** /**
  95:C:/Workspace/FW_Platform2_5/trunk/CFG_DishWasher/CFG_Inertia\BusCommPltf_cfg.c **** EmbOS CP task events */
  96:C:/Workspace/FW_Platform2_5/trunk/CFG_DishWasher/CFG_Inertia\BusCommPltf_cfg.c **** enum OS_CP_Events{
  97:C:/Workspace/FW_Platform2_5/trunk/CFG_DishWasher/CFG_Inertia\BusCommPltf_cfg.c **** /**
  98:C:/Workspace/FW_Platform2_5/trunk/CFG_DishWasher/CFG_Inertia\BusCommPltf_cfg.c **** I2C
  99:C:/Workspace/FW_Platform2_5/trunk/CFG_DishWasher/CFG_Inertia\BusCommPltf_cfg.c **** */
 100:C:/Workspace/FW_Platform2_5/trunk/CFG_DishWasher/CFG_Inertia\BusCommPltf_cfg.c **** MAIN_OS_EVENT_I2C_BIT=0,
 101:C:/Workspace/FW_Platform2_5/trunk/CFG_DishWasher/CFG_Inertia\BusCommPltf_cfg.c **** /**
 102:C:/Workspace/FW_Platform2_5/trunk/CFG_DishWasher/CFG_Inertia\BusCommPltf_cfg.c **** Uart
 103:C:/Workspace/FW_Platform2_5/trunk/CFG_DishWasher/CFG_Inertia\BusCommPltf_cfg.c **** */
 104:C:/Workspace/FW_Platform2_5/trunk/CFG_DishWasher/CFG_Inertia\BusCommPltf_cfg.c **** MAIN_OS_EVENT_UART_BIT
 105:C:/Workspace/FW_Platform2_5/trunk/CFG_DishWasher/CFG_Inertia\BusCommPltf_cfg.c **** };
 106:C:/Workspace/FW_Platform2_5/trunk/CFG_DishWasher/CFG_Inertia\BusCommPltf_cfg.c **** 
 107:C:/Workspace/FW_Platform2_5/trunk/CFG_DishWasher/CFG_Inertia\BusCommPltf_cfg.c **** 
 108:C:/Workspace/FW_Platform2_5/trunk/CFG_DishWasher/CFG_Inertia\BusCommPltf_cfg.c **** #define MAIN_OS_EVENT_I2C     ((OS_TASK_EVENT)(1<<MAIN_OS_EVENT_I2C_BIT))
 109:C:/Workspace/FW_Platform2_5/trunk/CFG_DishWasher/CFG_Inertia\BusCommPltf_cfg.c **** #define MAIN_OS_EVENT_UART    ((OS_TASK_EVENT)(1<<MAIN_OS_EVENT_UART_BIT))
 110:C:/Workspace/FW_Platform2_5/trunk/CFG_DishWasher/CFG_Inertia\BusCommPltf_cfg.c **** 
 111:C:/Workspace/FW_Platform2_5/trunk/CFG_DishWasher/CFG_Inertia\BusCommPltf_cfg.c **** 
 112:C:/Workspace/FW_Platform2_5/trunk/CFG_DishWasher/CFG_Inertia\BusCommPltf_cfg.c **** /* *****************************************
 113:C:/Workspace/FW_Platform2_5/trunk/CFG_DishWasher/CFG_Inertia\BusCommPltf_cfg.c **** **	Extended Types Data buffer dimension
 114:C:/Workspace/FW_Platform2_5/trunk/CFG_DishWasher/CFG_Inertia\BusCommPltf_cfg.c **** */
 115:C:/Workspace/FW_Platform2_5/trunk/CFG_DishWasher/CFG_Inertia\BusCommPltf_cfg.c **** 
 116:C:/Workspace/FW_Platform2_5/trunk/CFG_DishWasher/CFG_Inertia\BusCommPltf_cfg.c **** 
 117:C:/Workspace/FW_Platform2_5/trunk/CFG_DishWasher/CFG_Inertia\BusCommPltf_cfg.c **** /* *************************** */
 118:C:/Workspace/FW_Platform2_5/trunk/CFG_DishWasher/CFG_Inertia\BusCommPltf_cfg.c **** /* Typedef, Structs and Unions */
 119:C:/Workspace/FW_Platform2_5/trunk/CFG_DishWasher/CFG_Inertia\BusCommPltf_cfg.c **** /* *************************** */
 120:C:/Workspace/FW_Platform2_5/trunk/CFG_DishWasher/CFG_Inertia\BusCommPltf_cfg.c **** 
 121:C:/Workspace/FW_Platform2_5/trunk/CFG_DishWasher/CFG_Inertia\BusCommPltf_cfg.c **** /* ********* */
 122:C:/Workspace/FW_Platform2_5/trunk/CFG_DishWasher/CFG_Inertia\BusCommPltf_cfg.c **** /* Variables */
 123:C:/Workspace/FW_Platform2_5/trunk/CFG_DishWasher/CFG_Inertia\BusCommPltf_cfg.c **** /* ********* */
 124:C:/Workspace/FW_Platform2_5/trunk/CFG_DishWasher/CFG_Inertia\BusCommPltf_cfg.c **** 
 125:C:/Workspace/FW_Platform2_5/trunk/CFG_DishWasher/CFG_Inertia\BusCommPltf_cfg.c **** 
 126:C:/Workspace/FW_Platform2_5/trunk/CFG_DishWasher/CFG_Inertia\BusCommPltf_cfg.c **** /* Exported */
 127:C:/Workspace/FW_Platform2_5/trunk/CFG_DishWasher/CFG_Inertia\BusCommPltf_cfg.c **** 
 128:C:/Workspace/FW_Platform2_5/trunk/CFG_DishWasher/CFG_Inertia\BusCommPltf_cfg.c **** 
 129:C:/Workspace/FW_Platform2_5/trunk/CFG_DishWasher/CFG_Inertia\BusCommPltf_cfg.c **** /* Static */
 130:C:/Workspace/FW_Platform2_5/trunk/CFG_DishWasher/CFG_Inertia\BusCommPltf_cfg.c **** /**
 131:C:/Workspace/FW_Platform2_5/trunk/CFG_DishWasher/CFG_Inertia\BusCommPltf_cfg.c **** @name Memory remap tables
 132:C:/Workspace/FW_Platform2_5/trunk/CFG_DishWasher/CFG_Inertia\BusCommPltf_cfg.c **** Tables to adapt 16-bit address coming from protocol to 32-bit memory space.
 133:C:/Workspace/FW_Platform2_5/trunk/CFG_DishWasher/CFG_Inertia\BusCommPltf_cfg.c **** \par Property
 134:C:/Workspace/FW_Platform2_5/trunk/CFG_DishWasher/CFG_Inertia\BusCommPltf_cfg.c **** (target depentent)
 135:C:/Workspace/FW_Platform2_5/trunk/CFG_DishWasher/CFG_Inertia\BusCommPltf_cfg.c **** @{
 136:C:/Workspace/FW_Platform2_5/trunk/CFG_DishWasher/CFG_Inertia\BusCommPltf_cfg.c **** */
 137:C:/Workspace/FW_Platform2_5/trunk/CFG_DishWasher/CFG_Inertia\BusCommPltf_cfg.c **** /**
 138:C:/Workspace/FW_Platform2_5/trunk/CFG_DishWasher/CFG_Inertia\BusCommPltf_cfg.c **** remap table for 'read command'
 139:C:/Workspace/FW_Platform2_5/trunk/CFG_DishWasher/CFG_Inertia\BusCommPltf_cfg.c **** \li 16-bit addesses from 0x0000 to 0x3FFF are mapped to ram
 140:C:/Workspace/FW_Platform2_5/trunk/CFG_DishWasher/CFG_Inertia\BusCommPltf_cfg.c **** \li 16-bit addesses from 0x4000 to 0xFFFF are mapped to rom
 141:C:/Workspace/FW_Platform2_5/trunk/CFG_DishWasher/CFG_Inertia\BusCommPltf_cfg.c **** */
 142:C:/Workspace/FW_Platform2_5/trunk/CFG_DishWasher/CFG_Inertia\BusCommPltf_cfg.c **** #if defined(FREESCALE_MCF51_AG128)
 143:C:/Workspace/FW_Platform2_5/trunk/CFG_DishWasher/CFG_Inertia\BusCommPltf_cfg.c **** static PP_RemapTableType const RFRemapTable[3]=
 144:C:/Workspace/FW_Platform2_5/trunk/CFG_DishWasher/CFG_Inertia\BusCommPltf_cfg.c **** {
 145:C:/Workspace/FW_Platform2_5/trunk/CFG_DishWasher/CFG_Inertia\BusCommPltf_cfg.c ****   REMAP_READ_RAM_BLOCK,
 146:C:/Workspace/FW_Platform2_5/trunk/CFG_DishWasher/CFG_Inertia\BusCommPltf_cfg.c ****   REMAP_READ_BOOT_ROM_BLOCK,
 147:C:/Workspace/FW_Platform2_5/trunk/CFG_DishWasher/CFG_Inertia\BusCommPltf_cfg.c ****   REMAP_READ_ROM_BLOCK
 148:C:/Workspace/FW_Platform2_5/trunk/CFG_DishWasher/CFG_Inertia\BusCommPltf_cfg.c **** };
 149:C:/Workspace/FW_Platform2_5/trunk/CFG_DishWasher/CFG_Inertia\BusCommPltf_cfg.c **** #endif
 150:C:/Workspace/FW_Platform2_5/trunk/CFG_DishWasher/CFG_Inertia\BusCommPltf_cfg.c **** #if defined(NXP_LPC12xx_1227)
 151:C:/Workspace/FW_Platform2_5/trunk/CFG_DishWasher/CFG_Inertia\BusCommPltf_cfg.c **** static PP_RemapTableType const RFRemapTable[2]=
 152:C:/Workspace/FW_Platform2_5/trunk/CFG_DishWasher/CFG_Inertia\BusCommPltf_cfg.c **** {
 153:C:/Workspace/FW_Platform2_5/trunk/CFG_DishWasher/CFG_Inertia\BusCommPltf_cfg.c ****   REMAP_READ_RAM_BLOCK,
 154:C:/Workspace/FW_Platform2_5/trunk/CFG_DishWasher/CFG_Inertia\BusCommPltf_cfg.c ****   REMAP_READ_ROM_BLOCK
 155:C:/Workspace/FW_Platform2_5/trunk/CFG_DishWasher/CFG_Inertia\BusCommPltf_cfg.c **** };
 156:C:/Workspace/FW_Platform2_5/trunk/CFG_DishWasher/CFG_Inertia\BusCommPltf_cfg.c **** #endif
 157:C:/Workspace/FW_Platform2_5/trunk/CFG_DishWasher/CFG_Inertia\BusCommPltf_cfg.c **** #if defined (RN_RX200_R5F5210) || defined (RN_RX200_R5F52Z0)
 158:C:/Workspace/FW_Platform2_5/trunk/CFG_DishWasher/CFG_Inertia\BusCommPltf_cfg.c **** static PP_RemapTableType const RFRemapTable[4]=
 159:C:/Workspace/FW_Platform2_5/trunk/CFG_DishWasher/CFG_Inertia\BusCommPltf_cfg.c **** {
 160:C:/Workspace/FW_Platform2_5/trunk/CFG_DishWasher/CFG_Inertia\BusCommPltf_cfg.c **** 	{ REMAP_READ_RAM_BLOCK },
 161:C:/Workspace/FW_Platform2_5/trunk/CFG_DishWasher/CFG_Inertia\BusCommPltf_cfg.c **** 	{ REMAP_READ_BOOT_ROM_BLOCK },
 162:C:/Workspace/FW_Platform2_5/trunk/CFG_DishWasher/CFG_Inertia\BusCommPltf_cfg.c **** 	{ REMAP_READ_ROM_BLOCK },
 163:C:/Workspace/FW_Platform2_5/trunk/CFG_DishWasher/CFG_Inertia\BusCommPltf_cfg.c **** 	{ REMAP_READ_DATA_BLOCK }
 164:C:/Workspace/FW_Platform2_5/trunk/CFG_DishWasher/CFG_Inertia\BusCommPltf_cfg.c **** };
 165:C:/Workspace/FW_Platform2_5/trunk/CFG_DishWasher/CFG_Inertia\BusCommPltf_cfg.c **** 
 166:C:/Workspace/FW_Platform2_5/trunk/CFG_DishWasher/CFG_Inertia\BusCommPltf_cfg.c **** static PP_MemoryRangeType const ProtocolReadingAccessTable[3]=
 167:C:/Workspace/FW_Platform2_5/trunk/CFG_DishWasher/CFG_Inertia\BusCommPltf_cfg.c **** {
 168:C:/Workspace/FW_Platform2_5/trunk/CFG_DishWasher/CFG_Inertia\BusCommPltf_cfg.c **** 	{RAM_AREA_START_ADDRESS, 		RAM_AREA_START_ADDRESS+RAM_SIZE-1}, 				/*RAM*/
 169:C:/Workspace/FW_Platform2_5/trunk/CFG_DishWasher/CFG_Inertia\BusCommPltf_cfg.c **** 	{FLASH_DATA_BASE_ADDRESS, 		FLASH_DATA_BASE_ADDRESS+FLASH_DATA_SIZE-1}, 		/*DATA FLASH*/
 170:C:/Workspace/FW_Platform2_5/trunk/CFG_DishWasher/CFG_Inertia\BusCommPltf_cfg.c **** 	{ROM_AREA_START_ADDRESS, 		ROM_AREA_START_ADDRESS+(ROM_SIZE-1) }, 				/*ROM (includes fw, boot)*/
 171:C:/Workspace/FW_Platform2_5/trunk/CFG_DishWasher/CFG_Inertia\BusCommPltf_cfg.c **** };
 172:C:/Workspace/FW_Platform2_5/trunk/CFG_DishWasher/CFG_Inertia\BusCommPltf_cfg.c **** 
 173:C:/Workspace/FW_Platform2_5/trunk/CFG_DishWasher/CFG_Inertia\BusCommPltf_cfg.c **** 
 174:C:/Workspace/FW_Platform2_5/trunk/CFG_DishWasher/CFG_Inertia\BusCommPltf_cfg.c **** static PP_MemoryRangeType const ProtocolWritingAccessTable[3]=
 175:C:/Workspace/FW_Platform2_5/trunk/CFG_DishWasher/CFG_Inertia\BusCommPltf_cfg.c **** {
 176:C:/Workspace/FW_Platform2_5/trunk/CFG_DishWasher/CFG_Inertia\BusCommPltf_cfg.c **** 	{BACKUPAREA_START_ADDR, 		BACKUPAREA_START_ADDR+BACKUPAREA_SIZE_IN_BYTES-1}, 	/*BACKUP, DATA FLASH
 177:C:/Workspace/FW_Platform2_5/trunk/CFG_DishWasher/CFG_Inertia\BusCommPltf_cfg.c **** 	{APPL_WBOX_ADDRESS,      		APPL_WBOX_END_ADDRESS},								/*WBOX, DATA FLASH*/
 178:C:/Workspace/FW_Platform2_5/trunk/CFG_DishWasher/CFG_Inertia\BusCommPltf_cfg.c **** 	{APPL_SETTING_ADDRESS,   		APPL_SETTING_END_ADDRESS  }, 						/*ROM*/
 179:C:/Workspace/FW_Platform2_5/trunk/CFG_DishWasher/CFG_Inertia\BusCommPltf_cfg.c **** };
 180:C:/Workspace/FW_Platform2_5/trunk/CFG_DishWasher/CFG_Inertia\BusCommPltf_cfg.c **** 
 181:C:/Workspace/FW_Platform2_5/trunk/CFG_DishWasher/CFG_Inertia\BusCommPltf_cfg.c **** static PP_MemoryRangeType const ProtocolErasingAccessTable[2]=
 182:C:/Workspace/FW_Platform2_5/trunk/CFG_DishWasher/CFG_Inertia\BusCommPltf_cfg.c **** {
 183:C:/Workspace/FW_Platform2_5/trunk/CFG_DishWasher/CFG_Inertia\BusCommPltf_cfg.c **** 	{BACKUPAREA_START_ADDR, 		BACKUPAREA_START_ADDR+BACKUPAREA_SIZE_IN_BYTES-1}, 	/*BACKUP, DATA FLASH
 184:C:/Workspace/FW_Platform2_5/trunk/CFG_DishWasher/CFG_Inertia\BusCommPltf_cfg.c **** 	{APPL_SETTING_ADDRESS,   		APPL_SETTING_END_ADDRESS  }, 						/*ROM*/
 185:C:/Workspace/FW_Platform2_5/trunk/CFG_DishWasher/CFG_Inertia\BusCommPltf_cfg.c **** };
 186:C:/Workspace/FW_Platform2_5/trunk/CFG_DishWasher/CFG_Inertia\BusCommPltf_cfg.c **** #endif
 187:C:/Workspace/FW_Platform2_5/trunk/CFG_DishWasher/CFG_Inertia\BusCommPltf_cfg.c **** 
 188:C:/Workspace/FW_Platform2_5/trunk/CFG_DishWasher/CFG_Inertia\BusCommPltf_cfg.c **** /**
 189:C:/Workspace/FW_Platform2_5/trunk/CFG_DishWasher/CFG_Inertia\BusCommPltf_cfg.c **** remap table for 'write ram' command
 190:C:/Workspace/FW_Platform2_5/trunk/CFG_DishWasher/CFG_Inertia\BusCommPltf_cfg.c **** */
 191:C:/Workspace/FW_Platform2_5/trunk/CFG_DishWasher/CFG_Inertia\BusCommPltf_cfg.c **** static PP_RemapTableType const WRRemapTable[1]=
 192:C:/Workspace/FW_Platform2_5/trunk/CFG_DishWasher/CFG_Inertia\BusCommPltf_cfg.c **** {
 193:C:/Workspace/FW_Platform2_5/trunk/CFG_DishWasher/CFG_Inertia\BusCommPltf_cfg.c ****   { REMAP_WRITE_RAM_BLOCK }
 194:C:/Workspace/FW_Platform2_5/trunk/CFG_DishWasher/CFG_Inertia\BusCommPltf_cfg.c **** };
 195:C:/Workspace/FW_Platform2_5/trunk/CFG_DishWasher/CFG_Inertia\BusCommPltf_cfg.c **** 
 196:C:/Workspace/FW_Platform2_5/trunk/CFG_DishWasher/CFG_Inertia\BusCommPltf_cfg.c **** 
 197:C:/Workspace/FW_Platform2_5/trunk/CFG_DishWasher/CFG_Inertia\BusCommPltf_cfg.c **** /*@}*/
 198:C:/Workspace/FW_Platform2_5/trunk/CFG_DishWasher/CFG_Inertia\BusCommPltf_cfg.c **** 
 199:C:/Workspace/FW_Platform2_5/trunk/CFG_DishWasher/CFG_Inertia\BusCommPltf_cfg.c **** 
 200:C:/Workspace/FW_Platform2_5/trunk/CFG_DishWasher/CFG_Inertia\BusCommPltf_cfg.c **** /**
 201:C:/Workspace/FW_Platform2_5/trunk/CFG_DishWasher/CFG_Inertia\BusCommPltf_cfg.c **** 	@name Communication Platform Data
 202:C:/Workspace/FW_Platform2_5/trunk/CFG_DishWasher/CFG_Inertia\BusCommPltf_cfg.c **** 	@{
 203:C:/Workspace/FW_Platform2_5/trunk/CFG_DishWasher/CFG_Inertia\BusCommPltf_cfg.c **** */
 204:C:/Workspace/FW_Platform2_5/trunk/CFG_DishWasher/CFG_Inertia\BusCommPltf_cfg.c **** 
 205:C:/Workspace/FW_Platform2_5/trunk/CFG_DishWasher/CFG_Inertia\BusCommPltf_cfg.c **** /** driver I2C communication buffer */
 206:C:/Workspace/FW_Platform2_5/trunk/CFG_DishWasher/CFG_Inertia\BusCommPltf_cfg.c **** static uint8_t BCP_I2CTxBuffer[BCP_I2C_TX_BUF_SIZE];
 207:C:/Workspace/FW_Platform2_5/trunk/CFG_DishWasher/CFG_Inertia\BusCommPltf_cfg.c **** 
 208:C:/Workspace/FW_Platform2_5/trunk/CFG_DishWasher/CFG_Inertia\BusCommPltf_cfg.c **** #if defined(CONFIG_LIB_EXTERNAL_BOARD_SUPPORT)
 209:C:/Workspace/FW_Platform2_5/trunk/CFG_DishWasher/CFG_Inertia\BusCommPltf_cfg.c **** /** driver UART communication buffer */
 210:C:/Workspace/FW_Platform2_5/trunk/CFG_DishWasher/CFG_Inertia\BusCommPltf_cfg.c **** static uint8_t BCP_UARTRxBuffer[BCP_UART_TX_BUF_SIZE];
 211:C:/Workspace/FW_Platform2_5/trunk/CFG_DishWasher/CFG_Inertia\BusCommPltf_cfg.c **** #define BCP_UARTTxBuffer BCP_UARTRxBuffer
 212:C:/Workspace/FW_Platform2_5/trunk/CFG_DishWasher/CFG_Inertia\BusCommPltf_cfg.c **** #endif /*defined(CONFIG_LIB_EXTERNAL_BOARD_SUPPORT)*/
 213:C:/Workspace/FW_Platform2_5/trunk/CFG_DishWasher/CFG_Inertia\BusCommPltf_cfg.c ****  
 214:C:/Workspace/FW_Platform2_5/trunk/CFG_DishWasher/CFG_Inertia\BusCommPltf_cfg.c **** 
 215:C:/Workspace/FW_Platform2_5/trunk/CFG_DishWasher/CFG_Inertia\BusCommPltf_cfg.c **** 
 216:C:/Workspace/FW_Platform2_5/trunk/CFG_DishWasher/CFG_Inertia\BusCommPltf_cfg.c **** /** Communication Platform tasks's stack */
 217:C:/Workspace/FW_Platform2_5/trunk/CFG_DishWasher/CFG_Inertia\BusCommPltf_cfg.c **** static STACK_SEC OS_STACKPTR int CP_CommunicationTaskStack[128] STACK_SEC_POST;
 218:C:/Workspace/FW_Platform2_5/trunk/CFG_DishWasher/CFG_Inertia\BusCommPltf_cfg.c **** /** Communication Platform Task Contro Block*/
 219:C:/Workspace/FW_Platform2_5/trunk/CFG_DishWasher/CFG_Inertia\BusCommPltf_cfg.c **** static OS_TASK CP_CommunicationTaskTCB;
 220:C:/Workspace/FW_Platform2_5/trunk/CFG_DishWasher/CFG_Inertia\BusCommPltf_cfg.c **** 
 221:C:/Workspace/FW_Platform2_5/trunk/CFG_DishWasher/CFG_Inertia\BusCommPltf_cfg.c **** #if defined(CONFIG_MAIN_PROTOCOL_STACK_MONITOR)
 222:C:/Workspace/FW_Platform2_5/trunk/CFG_DishWasher/CFG_Inertia\BusCommPltf_cfg.c **** static 	TOOLS_STACKUSAGE_MONITOR	Main_ProtocolStackMonitor;
 223:C:/Workspace/FW_Platform2_5/trunk/CFG_DishWasher/CFG_Inertia\BusCommPltf_cfg.c **** #endif
 224:C:/Workspace/FW_Platform2_5/trunk/CFG_DishWasher/CFG_Inertia\BusCommPltf_cfg.c **** 
 225:C:/Workspace/FW_Platform2_5/trunk/CFG_DishWasher/CFG_Inertia\BusCommPltf_cfg.c **** #if defined(CONFIG_LIB_EXTERNAL_BOARD_SUPPORT)
 226:C:/Workspace/FW_Platform2_5/trunk/CFG_DishWasher/CFG_Inertia\BusCommPltf_cfg.c **** /** Communication Platform tasks's stack */
 227:C:/Workspace/FW_Platform2_5/trunk/CFG_DishWasher/CFG_Inertia\BusCommPltf_cfg.c **** static STACK_SEC OS_STACKPTR int CP_UartParserTaskStack[80] STACK_SEC_POST;
 228:C:/Workspace/FW_Platform2_5/trunk/CFG_DishWasher/CFG_Inertia\BusCommPltf_cfg.c **** /** Communication Platform Task Control Block*/
 229:C:/Workspace/FW_Platform2_5/trunk/CFG_DishWasher/CFG_Inertia\BusCommPltf_cfg.c **** static OS_TASK CP_UartParserTaskTCB;
 230:C:/Workspace/FW_Platform2_5/trunk/CFG_DishWasher/CFG_Inertia\BusCommPltf_cfg.c **** 
 231:C:/Workspace/FW_Platform2_5/trunk/CFG_DishWasher/CFG_Inertia\BusCommPltf_cfg.c **** #if defined(CONFIG_MAIN_UARTPARSER_STACK_MONITOR)
 232:C:/Workspace/FW_Platform2_5/trunk/CFG_DishWasher/CFG_Inertia\BusCommPltf_cfg.c **** static 	TOOLS_STACKUSAGE_MONITOR	Main_UartParserStackMonitor;
 233:C:/Workspace/FW_Platform2_5/trunk/CFG_DishWasher/CFG_Inertia\BusCommPltf_cfg.c **** #endif
 234:C:/Workspace/FW_Platform2_5/trunk/CFG_DishWasher/CFG_Inertia\BusCommPltf_cfg.c **** 
 235:C:/Workspace/FW_Platform2_5/trunk/CFG_DishWasher/CFG_Inertia\BusCommPltf_cfg.c **** #endif /* defined(CONFIG_LIB_EXTERNAL_BOARD_SUPPORT)*/
 236:C:/Workspace/FW_Platform2_5/trunk/CFG_DishWasher/CFG_Inertia\BusCommPltf_cfg.c **** 
 237:C:/Workspace/FW_Platform2_5/trunk/CFG_DishWasher/CFG_Inertia\BusCommPltf_cfg.c **** /**Appliance data table */
 238:C:/Workspace/FW_Platform2_5/trunk/CFG_DishWasher/CFG_Inertia\BusCommPltf_cfg.c **** static CPApplianceDataTableType CPApplianceDataTable[CP_APPLDATA_NUM];
 239:C:/Workspace/FW_Platform2_5/trunk/CFG_DishWasher/CFG_Inertia\BusCommPltf_cfg.c **** /*@}*/
 240:C:/Workspace/FW_Platform2_5/trunk/CFG_DishWasher/CFG_Inertia\BusCommPltf_cfg.c **** 
 241:C:/Workspace/FW_Platform2_5/trunk/CFG_DishWasher/CFG_Inertia\BusCommPltf_cfg.c **** /* Communication Channels table */
 242:C:/Workspace/FW_Platform2_5/trunk/CFG_DishWasher/CFG_Inertia\BusCommPltf_cfg.c **** const BCP_ChannelTableType BCP_ChannelTable[BCP_CH_NUM]=
 243:C:/Workspace/FW_Platform2_5/trunk/CFG_DishWasher/CFG_Inertia\BusCommPltf_cfg.c **** { 
 244:C:/Workspace/FW_Platform2_5/trunk/CFG_DishWasher/CFG_Inertia\BusCommPltf_cfg.c **** #ifdef BUS_COM_PLT_I2C_SUPPORT
 245:C:/Workspace/FW_Platform2_5/trunk/CFG_DishWasher/CFG_Inertia\BusCommPltf_cfg.c ****   {(PP_MasterProtocolTableType*)NULL, OCI2C_InitSync, OCI2C_TxSync, OCI2C_RxSync, BCP_I2CTxBuffer, 
 246:C:/Workspace/FW_Platform2_5/trunk/CFG_DishWasher/CFG_Inertia\BusCommPltf_cfg.c **** #endif /* BUS_COM_PLT_I2C_SUPPORT */
 247:C:/Workspace/FW_Platform2_5/trunk/CFG_DishWasher/CFG_Inertia\BusCommPltf_cfg.c **** #if defined(CONFIG_LIB_EXTERNAL_BOARD_SUPPORT)
 248:C:/Workspace/FW_Platform2_5/trunk/CFG_DishWasher/CFG_Inertia\BusCommPltf_cfg.c **** #ifdef BUS_COM_PLT_UART_SUPPORT
 249:C:/Workspace/FW_Platform2_5/trunk/CFG_DishWasher/CFG_Inertia\BusCommPltf_cfg.c ****   {(PP_MasterProtocolTableType*)NULL, OCUART_InitSync, OCUART_TxSync, OCUART_RxSync, BCP_UARTTxBuff
 250:C:/Workspace/FW_Platform2_5/trunk/CFG_DishWasher/CFG_Inertia\BusCommPltf_cfg.c **** #endif /* BUS_COM_PLT_UART_SUPPORT */
 251:C:/Workspace/FW_Platform2_5/trunk/CFG_DishWasher/CFG_Inertia\BusCommPltf_cfg.c **** #endif /* defined(CONFIG_LIB_EXTERNAL_BOARD_SUPPORT) */
 252:C:/Workspace/FW_Platform2_5/trunk/CFG_DishWasher/CFG_Inertia\BusCommPltf_cfg.c **** 
 253:C:/Workspace/FW_Platform2_5/trunk/CFG_DishWasher/CFG_Inertia\BusCommPltf_cfg.c **** };
 254:C:/Workspace/FW_Platform2_5/trunk/CFG_DishWasher/CFG_Inertia\BusCommPltf_cfg.c **** 
 255:C:/Workspace/FW_Platform2_5/trunk/CFG_DishWasher/CFG_Inertia\BusCommPltf_cfg.c **** /**
 256:C:/Workspace/FW_Platform2_5/trunk/CFG_DishWasher/CFG_Inertia\BusCommPltf_cfg.c **** @name Resources
 257:C:/Workspace/FW_Platform2_5/trunk/CFG_DishWasher/CFG_Inertia\BusCommPltf_cfg.c **** @{
 258:C:/Workspace/FW_Platform2_5/trunk/CFG_DishWasher/CFG_Inertia\BusCommPltf_cfg.c **** */
 259:C:/Workspace/FW_Platform2_5/trunk/CFG_DishWasher/CFG_Inertia\BusCommPltf_cfg.c **** 
 260:C:/Workspace/FW_Platform2_5/trunk/CFG_DishWasher/CFG_Inertia\BusCommPltf_cfg.c **** static OS_RSEMA SemaRegs;             /* Resource semaphore for regulations */
 261:C:/Workspace/FW_Platform2_5/trunk/CFG_DishWasher/CFG_Inertia\BusCommPltf_cfg.c **** static OS_RSEMA SemaUiInfo;           /* Resource semaphore for UiInfo */
 262:C:/Workspace/FW_Platform2_5/trunk/CFG_DishWasher/CFG_Inertia\BusCommPltf_cfg.c **** 
 263:C:/Workspace/FW_Platform2_5/trunk/CFG_DishWasher/CFG_Inertia\BusCommPltf_cfg.c **** 
 264:C:/Workspace/FW_Platform2_5/trunk/CFG_DishWasher/CFG_Inertia\BusCommPltf_cfg.c **** /*@}*/
 265:C:/Workspace/FW_Platform2_5/trunk/CFG_DishWasher/CFG_Inertia\BusCommPltf_cfg.c **** 
 266:C:/Workspace/FW_Platform2_5/trunk/CFG_DishWasher/CFG_Inertia\BusCommPltf_cfg.c **** 
 267:C:/Workspace/FW_Platform2_5/trunk/CFG_DishWasher/CFG_Inertia\BusCommPltf_cfg.c **** #ifdef CONFIG_PM_POWER_PROFILE_SUPPORT
 268:C:/Workspace/FW_Platform2_5/trunk/CFG_DishWasher/CFG_Inertia\BusCommPltf_cfg.c **** static const uint8_t PowerProfileError=0;
 269:C:/Workspace/FW_Platform2_5/trunk/CFG_DishWasher/CFG_Inertia\BusCommPltf_cfg.c **** static PM_PowerProfile_PowerProfileNumType num;
 270:C:/Workspace/FW_Platform2_5/trunk/CFG_DishWasher/CFG_Inertia\BusCommPltf_cfg.c **** #endif	/* CONFIG_PM_POWER_PROFILE_SUPPORT*/
 271:C:/Workspace/FW_Platform2_5/trunk/CFG_DishWasher/CFG_Inertia\BusCommPltf_cfg.c **** 
 272:C:/Workspace/FW_Platform2_5/trunk/CFG_DishWasher/CFG_Inertia\BusCommPltf_cfg.c **** #if defined(CONFIG_PM_ENERGY_METER_SW)
 273:C:/Workspace/FW_Platform2_5/trunk/CFG_DishWasher/CFG_Inertia\BusCommPltf_cfg.c **** uint8_t PowerMeterBuffer[6];
 274:C:/Workspace/FW_Platform2_5/trunk/CFG_DishWasher/CFG_Inertia\BusCommPltf_cfg.c **** #endif /*defined(CONFIG_PM_ENERGY_METER_SW)*/
 275:C:/Workspace/FW_Platform2_5/trunk/CFG_DishWasher/CFG_Inertia\BusCommPltf_cfg.c **** 
 276:C:/Workspace/FW_Platform2_5/trunk/CFG_DishWasher/CFG_Inertia\BusCommPltf_cfg.c **** #if defined(CONFIG_LIB_EXTERNAL_BOARD_SUPPORT)
 277:C:/Workspace/FW_Platform2_5/trunk/CFG_DishWasher/CFG_Inertia\BusCommPltf_cfg.c **** static uint8_t ExternalBoardCommStatus;
 278:C:/Workspace/FW_Platform2_5/trunk/CFG_DishWasher/CFG_Inertia\BusCommPltf_cfg.c **** #endif /* defined(CONFIG_LIB_EXTERNAL_BOARD_SUPPORT)*/
 279:C:/Workspace/FW_Platform2_5/trunk/CFG_DishWasher/CFG_Inertia\BusCommPltf_cfg.c **** 
 280:C:/Workspace/FW_Platform2_5/trunk/CFG_DishWasher/CFG_Inertia\BusCommPltf_cfg.c **** /* ******************* */
 281:C:/Workspace/FW_Platform2_5/trunk/CFG_DishWasher/CFG_Inertia\BusCommPltf_cfg.c **** /* Functions Prototype */
 282:C:/Workspace/FW_Platform2_5/trunk/CFG_DishWasher/CFG_Inertia\BusCommPltf_cfg.c **** /* ******************* */
 283:C:/Workspace/FW_Platform2_5/trunk/CFG_DishWasher/CFG_Inertia\BusCommPltf_cfg.c **** 
 284:C:/Workspace/FW_Platform2_5/trunk/CFG_DishWasher/CFG_Inertia\BusCommPltf_cfg.c **** static void CommunicationProtocolTask (void);
 285:C:/Workspace/FW_Platform2_5/trunk/CFG_DishWasher/CFG_Inertia\BusCommPltf_cfg.c **** 
 286:C:/Workspace/FW_Platform2_5/trunk/CFG_DishWasher/CFG_Inertia\BusCommPltf_cfg.c **** /**
 287:C:/Workspace/FW_Platform2_5/trunk/CFG_DishWasher/CFG_Inertia\BusCommPltf_cfg.c **** Communication Platform Slave manager
 288:C:/Workspace/FW_Platform2_5/trunk/CFG_DishWasher/CFG_Inertia\BusCommPltf_cfg.c **** */
 289:C:/Workspace/FW_Platform2_5/trunk/CFG_DishWasher/CFG_Inertia\BusCommPltf_cfg.c **** static DECLARE_CP_SLAVEMANAGER(CP_SlaveManager);
 290:C:/Workspace/FW_Platform2_5/trunk/CFG_DishWasher/CFG_Inertia\BusCommPltf_cfg.c **** 
 291:C:/Workspace/FW_Platform2_5/trunk/CFG_DishWasher/CFG_Inertia\BusCommPltf_cfg.c **** static DEF_CSM_EE_CTRL(Ctrl_IdentRequest);
 292:C:/Workspace/FW_Platform2_5/trunk/CFG_DishWasher/CFG_Inertia\BusCommPltf_cfg.c **** 
 293:C:/Workspace/FW_Platform2_5/trunk/CFG_DishWasher/CFG_Inertia\BusCommPltf_cfg.c **** static DEF_CSM_EE_CUSTOM_FUNC(EE_SettingDataBlock);
 294:C:/Workspace/FW_Platform2_5/trunk/CFG_DishWasher/CFG_Inertia\BusCommPltf_cfg.c **** 
 295:C:/Workspace/FW_Platform2_5/trunk/CFG_DishWasher/CFG_Inertia\BusCommPltf_cfg.c **** static DEF_CSM_EE_CTRL(Ctrl_ReadRegsRequest);
 296:C:/Workspace/FW_Platform2_5/trunk/CFG_DishWasher/CFG_Inertia\BusCommPltf_cfg.c **** static DEF_CSM_EE_CTRL(Ctrl_StatusRequest);
 297:C:/Workspace/FW_Platform2_5/trunk/CFG_DishWasher/CFG_Inertia\BusCommPltf_cfg.c **** static DEF_CSM_EE_CTRL(Ctrl_WriteRegsRequest);
 298:C:/Workspace/FW_Platform2_5/trunk/CFG_DishWasher/CFG_Inertia\BusCommPltf_cfg.c **** static DEF_CSM_EE_CTRL(Ctrl_WriteUIInfoRequest);
 299:C:/Workspace/FW_Platform2_5/trunk/CFG_DishWasher/CFG_Inertia\BusCommPltf_cfg.c **** 
 300:C:/Workspace/FW_Platform2_5/trunk/CFG_DishWasher/CFG_Inertia\BusCommPltf_cfg.c **** 
 301:C:/Workspace/FW_Platform2_5/trunk/CFG_DishWasher/CFG_Inertia\BusCommPltf_cfg.c **** DEF_CSM_EE_CUSTOM_FUNC(BS_SetLoads);
 302:C:/Workspace/FW_Platform2_5/trunk/CFG_DishWasher/CFG_Inertia\BusCommPltf_cfg.c **** DEF_CSM_EE_CUSTOM_FUNC(EE_SystemMode);
 303:C:/Workspace/FW_Platform2_5/trunk/CFG_DishWasher/CFG_Inertia\BusCommPltf_cfg.c **** DEF_CSM_EE_CUSTOM_FUNC(EE_SetLoads);
 304:C:/Workspace/FW_Platform2_5/trunk/CFG_DishWasher/CFG_Inertia\BusCommPltf_cfg.c **** 
 305:C:/Workspace/FW_Platform2_5/trunk/CFG_DishWasher/CFG_Inertia\BusCommPltf_cfg.c **** DEF_CSM_EE_CUSTOM_FUNC(Ctrl_DspReadRamRequest);
 306:C:/Workspace/FW_Platform2_5/trunk/CFG_DishWasher/CFG_Inertia\BusCommPltf_cfg.c **** DEF_CSM_EE_CUSTOM_FUNC(Ctrl_DspWriteRamRequest);
 307:C:/Workspace/FW_Platform2_5/trunk/CFG_DishWasher/CFG_Inertia\BusCommPltf_cfg.c **** DEF_CSM_EE_CUSTOM_FUNC(Ctrl_DspExtraRequest);
 308:C:/Workspace/FW_Platform2_5/trunk/CFG_DishWasher/CFG_Inertia\BusCommPltf_cfg.c **** DEF_CSM_EE_CUSTOM_FUNC(Ctrl_CmdDspRequest);
 309:C:/Workspace/FW_Platform2_5/trunk/CFG_DishWasher/CFG_Inertia\BusCommPltf_cfg.c **** DEF_CSM_EE_CUSTOM_FUNC(Ctrl_InfoDspRequest);
 310:C:/Workspace/FW_Platform2_5/trunk/CFG_DishWasher/CFG_Inertia\BusCommPltf_cfg.c **** 
 311:C:/Workspace/FW_Platform2_5/trunk/CFG_DishWasher/CFG_Inertia\BusCommPltf_cfg.c **** DEF_CSM_EE_CUSTOM_FUNC(Ctrl_ExpGetInfo);
 312:C:/Workspace/FW_Platform2_5/trunk/CFG_DishWasher/CFG_Inertia\BusCommPltf_cfg.c **** DEF_CSM_EE_CUSTOM_FUNC(Ctrl_ExpSetInfo);
 313:C:/Workspace/FW_Platform2_5/trunk/CFG_DishWasher/CFG_Inertia\BusCommPltf_cfg.c **** 
 314:C:/Workspace/FW_Platform2_5/trunk/CFG_DishWasher/CFG_Inertia\BusCommPltf_cfg.c **** void CP_UartParserTask(void);
 315:C:/Workspace/FW_Platform2_5/trunk/CFG_DishWasher/CFG_Inertia\BusCommPltf_cfg.c **** #ifdef CONFIG_PM_POWER_PROFILE_SUPPORT
 316:C:/Workspace/FW_Platform2_5/trunk/CFG_DishWasher/CFG_Inertia\BusCommPltf_cfg.c **** static void EndOfPowerProfileRequest(void);
 317:C:/Workspace/FW_Platform2_5/trunk/CFG_DishWasher/CFG_Inertia\BusCommPltf_cfg.c **** DEF_CSM_EE_CUSTOM_FUNC(EE_PowerProfileReq);
 318:C:/Workspace/FW_Platform2_5/trunk/CFG_DishWasher/CFG_Inertia\BusCommPltf_cfg.c **** #endif /* CONFIG_PM_POWER_PROFILE_SUPPORT */
 319:C:/Workspace/FW_Platform2_5/trunk/CFG_DishWasher/CFG_Inertia\BusCommPltf_cfg.c **** 
 320:C:/Workspace/FW_Platform2_5/trunk/CFG_DishWasher/CFG_Inertia\BusCommPltf_cfg.c **** #if defined(CONFIG_PM_ENERGY_METER_SW)
 321:C:/Workspace/FW_Platform2_5/trunk/CFG_DishWasher/CFG_Inertia\BusCommPltf_cfg.c **** DEF_CSM_EE_CUSTOM_FUNC(EE_ReadPowerMeter);
 322:C:/Workspace/FW_Platform2_5/trunk/CFG_DishWasher/CFG_Inertia\BusCommPltf_cfg.c **** #endif /*defined(CONFIG_PM_ENERGY_METER_SW)*/
 323:C:/Workspace/FW_Platform2_5/trunk/CFG_DishWasher/CFG_Inertia\BusCommPltf_cfg.c **** 
 324:C:/Workspace/FW_Platform2_5/trunk/CFG_DishWasher/CFG_Inertia\BusCommPltf_cfg.c **** /* *************** */
 325:C:/Workspace/FW_Platform2_5/trunk/CFG_DishWasher/CFG_Inertia\BusCommPltf_cfg.c **** /* Function Bodies */
 326:C:/Workspace/FW_Platform2_5/trunk/CFG_DishWasher/CFG_Inertia\BusCommPltf_cfg.c **** /* *************** */
 327:C:/Workspace/FW_Platform2_5/trunk/CFG_DishWasher/CFG_Inertia\BusCommPltf_cfg.c **** 
 328:C:/Workspace/FW_Platform2_5/trunk/CFG_DishWasher/CFG_Inertia\BusCommPltf_cfg.c **** /* Exported function */
 329:C:/Workspace/FW_Platform2_5/trunk/CFG_DishWasher/CFG_Inertia\BusCommPltf_cfg.c **** 
 330:C:/Workspace/FW_Platform2_5/trunk/CFG_DishWasher/CFG_Inertia\BusCommPltf_cfg.c **** /**
 331:C:/Workspace/FW_Platform2_5/trunk/CFG_DishWasher/CFG_Inertia\BusCommPltf_cfg.c **** Allows the CP to access the data of the application during one of the following request:
 332:C:/Workspace/FW_Platform2_5/trunk/CFG_DishWasher/CFG_Inertia\BusCommPltf_cfg.c **** \li PP_EE_TYPE_IDENT
 333:C:/Workspace/FW_Platform2_5/trunk/CFG_DishWasher/CFG_Inertia\BusCommPltf_cfg.c **** \li PP_EE_TYPE_READ_STATUS
 334:C:/Workspace/FW_Platform2_5/trunk/CFG_DishWasher/CFG_Inertia\BusCommPltf_cfg.c **** \li PP_EE_TYPE_READ_REGS
 335:C:/Workspace/FW_Platform2_5/trunk/CFG_DishWasher/CFG_Inertia\BusCommPltf_cfg.c **** \li PP_EE_TYPE_WRITE_REGS
 336:C:/Workspace/FW_Platform2_5/trunk/CFG_DishWasher/CFG_Inertia\BusCommPltf_cfg.c **** \li PP_EE_TYPE_WRITE_UIINFO
 337:C:/Workspace/FW_Platform2_5/trunk/CFG_DishWasher/CFG_Inertia\BusCommPltf_cfg.c **** 
 338:C:/Workspace/FW_Platform2_5/trunk/CFG_DishWasher/CFG_Inertia\BusCommPltf_cfg.c **** PP_EE_TYPE_IDENT is preconfigured by Platform framework.
 339:C:/Workspace/FW_Platform2_5/trunk/CFG_DishWasher/CFG_Inertia\BusCommPltf_cfg.c **** 
 340:C:/Workspace/FW_Platform2_5/trunk/CFG_DishWasher/CFG_Inertia\BusCommPltf_cfg.c **** \param[in]  index item index, see preconfigured CPApplianceDataTableIndexType
 341:C:/Workspace/FW_Platform2_5/trunk/CFG_DishWasher/CFG_Inertia\BusCommPltf_cfg.c **** \param[in]  pData pointer to CPApplianceDataTableType
 342:C:/Workspace/FW_Platform2_5/trunk/CFG_DishWasher/CFG_Inertia\BusCommPltf_cfg.c **** 
 343:C:/Workspace/FW_Platform2_5/trunk/CFG_DishWasher/CFG_Inertia\BusCommPltf_cfg.c **** 
 344:C:/Workspace/FW_Platform2_5/trunk/CFG_DishWasher/CFG_Inertia\BusCommPltf_cfg.c **** \par Example
 345:C:/Workspace/FW_Platform2_5/trunk/CFG_DishWasher/CFG_Inertia\BusCommPltf_cfg.c **** \code
 346:C:/Workspace/FW_Platform2_5/trunk/CFG_DishWasher/CFG_Inertia\BusCommPltf_cfg.c ****     CPApplianceDataTableType ident= {(void*)&IdentTable, sizeof(IdentTable)};
 347:C:/Workspace/FW_Platform2_5/trunk/CFG_DishWasher/CFG_Inertia\BusCommPltf_cfg.c ****     
 348:C:/Workspace/FW_Platform2_5/trunk/CFG_DishWasher/CFG_Inertia\BusCommPltf_cfg.c ****     Set_CPApplianceDataItem(CP_APPLDATA_IDENT, &ident);
 349:C:/Workspace/FW_Platform2_5/trunk/CFG_DishWasher/CFG_Inertia\BusCommPltf_cfg.c **** \endcode
 350:C:/Workspace/FW_Platform2_5/trunk/CFG_DishWasher/CFG_Inertia\BusCommPltf_cfg.c **** */
 351:C:/Workspace/FW_Platform2_5/trunk/CFG_DishWasher/CFG_Inertia\BusCommPltf_cfg.c **** void Set_CPApplianceDataItem(CPApplianceDataTableIndexType eIndex, CPApplianceDataTableType* pData)
 352:C:/Workspace/FW_Platform2_5/trunk/CFG_DishWasher/CFG_Inertia\BusCommPltf_cfg.c **** {
  10                             		.loc 1 352 0
 353:C:/Workspace/FW_Platform2_5/trunk/CFG_DishWasher/CFG_Inertia\BusCommPltf_cfg.c ****     if(eIndex < (CPApplianceDataTableIndexType)(sizeof(CPApplianceDataTable)/sizeof(CPApplianceData
  11                             		.loc 1 353 0
  12 0000 61 51                   		cmp	#5, r1
  13 0002 24 17                   		bgtu	.L4
 352:C:/Workspace/FW_Platform2_5/trunk/CFG_DishWasher/CFG_Inertia\BusCommPltf_cfg.c **** {
  14                             		.loc 1 352 0
  15 0004 7E A7                   		push.l	r7
  16                             	.LCFI0:
 354:C:/Workspace/FW_Platform2_5/trunk/CFG_DishWasher/CFG_Inertia\BusCommPltf_cfg.c ****     {
 355:C:/Workspace/FW_Platform2_5/trunk/CFG_DishWasher/CFG_Inertia\BusCommPltf_cfg.c ****         CPApplianceDataTable[eIndex] = *pData;
  17                             		.loc 1 355 0
  18 0006 EC 27                   		mov.L	[r2], r7
  19 0008 6C 31                   		shll	#3, r1
  20 000a A8 2A                   		mov.L	4[r2], r2
  21 000c 70 11 00 00 00 00       		add	#_CPApplianceDataTable, r1
  22 0012 E3 17                   		mov.L	r7, [r1]
  23 0014 A0 1A                   		mov.L	r2, 4[r1]
 356:C:/Workspace/FW_Platform2_5/trunk/CFG_DishWasher/CFG_Inertia\BusCommPltf_cfg.c ****     }
 357:C:/Workspace/FW_Platform2_5/trunk/CFG_DishWasher/CFG_Inertia\BusCommPltf_cfg.c **** }
  24                             		.loc 1 357 0
  25 0016 3F 77 01                		rtsd	#4, r7-r7
  26                             	.L4:
  27                             	.LCFI1:
  28 0019 02                      		rts
  29                             	.LFE0:
  31                             		.section	.text.UseRegs,"ax",@progbits
  32                             		.global	_UseRegs
  34                             	_UseRegs:
  35                             	.LFB1:
 358:C:/Workspace/FW_Platform2_5/trunk/CFG_DishWasher/CFG_Inertia\BusCommPltf_cfg.c **** 
 359:C:/Workspace/FW_Platform2_5/trunk/CFG_DishWasher/CFG_Inertia\BusCommPltf_cfg.c **** 
 360:C:/Workspace/FW_Platform2_5/trunk/CFG_DishWasher/CFG_Inertia\BusCommPltf_cfg.c **** 
 361:C:/Workspace/FW_Platform2_5/trunk/CFG_DishWasher/CFG_Inertia\BusCommPltf_cfg.c **** /**
 362:C:/Workspace/FW_Platform2_5/trunk/CFG_DishWasher/CFG_Inertia\BusCommPltf_cfg.c **** Avoids conflicts caused by simultaneous access to regulations
 363:C:/Workspace/FW_Platform2_5/trunk/CFG_DishWasher/CFG_Inertia\BusCommPltf_cfg.c **** 
 364:C:/Workspace/FW_Platform2_5/trunk/CFG_DishWasher/CFG_Inertia\BusCommPltf_cfg.c **** \par Example
 365:C:/Workspace/FW_Platform2_5/trunk/CFG_DishWasher/CFG_Inertia\BusCommPltf_cfg.c **** \code
 366:C:/Workspace/FW_Platform2_5/trunk/CFG_DishWasher/CFG_Inertia\BusCommPltf_cfg.c **** 
 367:C:/Workspace/FW_Platform2_5/trunk/CFG_DishWasher/CFG_Inertia\BusCommPltf_cfg.c **** \endcode
 368:C:/Workspace/FW_Platform2_5/trunk/CFG_DishWasher/CFG_Inertia\BusCommPltf_cfg.c **** */
 369:C:/Workspace/FW_Platform2_5/trunk/CFG_DishWasher/CFG_Inertia\BusCommPltf_cfg.c **** void UseRegs(void) 
 370:C:/Workspace/FW_Platform2_5/trunk/CFG_DishWasher/CFG_Inertia\BusCommPltf_cfg.c **** {
  36                             		.loc 1 370 0
 371:C:/Workspace/FW_Platform2_5/trunk/CFG_DishWasher/CFG_Inertia\BusCommPltf_cfg.c ****   OS_Use(&SemaRegs);
  37                             		.loc 1 371 0
  38 0000 FB 12 00 00 00 00       		mov.L	#_SemaRegs, r1
  39 0006 04 00 00 00             		bra	_OS_Use
  40                             	.LVL0:
  41                             	.LFE1:
  43                             		.section	.text.UnuseRegs,"ax",@progbits
  44                             		.global	_UnuseRegs
  46                             	_UnuseRegs:
  47                             	.LFB2:
 372:C:/Workspace/FW_Platform2_5/trunk/CFG_DishWasher/CFG_Inertia\BusCommPltf_cfg.c **** }
 373:C:/Workspace/FW_Platform2_5/trunk/CFG_DishWasher/CFG_Inertia\BusCommPltf_cfg.c **** 
 374:C:/Workspace/FW_Platform2_5/trunk/CFG_DishWasher/CFG_Inertia\BusCommPltf_cfg.c **** /**
 375:C:/Workspace/FW_Platform2_5/trunk/CFG_DishWasher/CFG_Inertia\BusCommPltf_cfg.c **** Avoids conflicts caused by simultaneous access to regulations
 376:C:/Workspace/FW_Platform2_5/trunk/CFG_DishWasher/CFG_Inertia\BusCommPltf_cfg.c **** 
 377:C:/Workspace/FW_Platform2_5/trunk/CFG_DishWasher/CFG_Inertia\BusCommPltf_cfg.c **** \par Example
 378:C:/Workspace/FW_Platform2_5/trunk/CFG_DishWasher/CFG_Inertia\BusCommPltf_cfg.c **** \code
 379:C:/Workspace/FW_Platform2_5/trunk/CFG_DishWasher/CFG_Inertia\BusCommPltf_cfg.c **** 
 380:C:/Workspace/FW_Platform2_5/trunk/CFG_DishWasher/CFG_Inertia\BusCommPltf_cfg.c **** \endcode
 381:C:/Workspace/FW_Platform2_5/trunk/CFG_DishWasher/CFG_Inertia\BusCommPltf_cfg.c **** */
 382:C:/Workspace/FW_Platform2_5/trunk/CFG_DishWasher/CFG_Inertia\BusCommPltf_cfg.c **** void UnuseRegs(void) 
 383:C:/Workspace/FW_Platform2_5/trunk/CFG_DishWasher/CFG_Inertia\BusCommPltf_cfg.c **** {
  48                             		.loc 1 383 0
 384:C:/Workspace/FW_Platform2_5/trunk/CFG_DishWasher/CFG_Inertia\BusCommPltf_cfg.c ****   OS_Unuse(&SemaRegs);
  49                             		.loc 1 384 0
  50 0000 FB 12 00 00 00 00       		mov.L	#_SemaRegs, r1
  51 0006 04 00 00 00             		bra	_OS_Unuse
  52                             	.LVL1:
  53                             	.LFE2:
  55                             		.section	.text.UseUiInfo,"ax",@progbits
  56                             		.global	_UseUiInfo
  58                             	_UseUiInfo:
  59                             	.LFB3:
 385:C:/Workspace/FW_Platform2_5/trunk/CFG_DishWasher/CFG_Inertia\BusCommPltf_cfg.c **** }
 386:C:/Workspace/FW_Platform2_5/trunk/CFG_DishWasher/CFG_Inertia\BusCommPltf_cfg.c **** 
 387:C:/Workspace/FW_Platform2_5/trunk/CFG_DishWasher/CFG_Inertia\BusCommPltf_cfg.c **** /**
 388:C:/Workspace/FW_Platform2_5/trunk/CFG_DishWasher/CFG_Inertia\BusCommPltf_cfg.c **** Avoids conflicts caused by simultaneous access to UiInfo
 389:C:/Workspace/FW_Platform2_5/trunk/CFG_DishWasher/CFG_Inertia\BusCommPltf_cfg.c **** 
 390:C:/Workspace/FW_Platform2_5/trunk/CFG_DishWasher/CFG_Inertia\BusCommPltf_cfg.c **** \par Example
 391:C:/Workspace/FW_Platform2_5/trunk/CFG_DishWasher/CFG_Inertia\BusCommPltf_cfg.c **** \code
 392:C:/Workspace/FW_Platform2_5/trunk/CFG_DishWasher/CFG_Inertia\BusCommPltf_cfg.c **** 
 393:C:/Workspace/FW_Platform2_5/trunk/CFG_DishWasher/CFG_Inertia\BusCommPltf_cfg.c **** \endcode
 394:C:/Workspace/FW_Platform2_5/trunk/CFG_DishWasher/CFG_Inertia\BusCommPltf_cfg.c **** */
 395:C:/Workspace/FW_Platform2_5/trunk/CFG_DishWasher/CFG_Inertia\BusCommPltf_cfg.c **** void UseUiInfo(void) 
 396:C:/Workspace/FW_Platform2_5/trunk/CFG_DishWasher/CFG_Inertia\BusCommPltf_cfg.c **** {
  60                             		.loc 1 396 0
 397:C:/Workspace/FW_Platform2_5/trunk/CFG_DishWasher/CFG_Inertia\BusCommPltf_cfg.c ****   OS_Use(&SemaUiInfo);
  61                             		.loc 1 397 0
  62 0000 FB 12 00 00 00 00       		mov.L	#_SemaUiInfo, r1
  63 0006 04 00 00 00             		bra	_OS_Use
  64                             	.LVL2:
  65                             	.LFE3:
  67                             		.section	.text.UnuseUiInfo,"ax",@progbits
  68                             		.global	_UnuseUiInfo
  70                             	_UnuseUiInfo:
  71                             	.LFB4:
 398:C:/Workspace/FW_Platform2_5/trunk/CFG_DishWasher/CFG_Inertia\BusCommPltf_cfg.c **** }
 399:C:/Workspace/FW_Platform2_5/trunk/CFG_DishWasher/CFG_Inertia\BusCommPltf_cfg.c **** 
 400:C:/Workspace/FW_Platform2_5/trunk/CFG_DishWasher/CFG_Inertia\BusCommPltf_cfg.c **** /**
 401:C:/Workspace/FW_Platform2_5/trunk/CFG_DishWasher/CFG_Inertia\BusCommPltf_cfg.c **** Avoids conflicts caused by simultaneous access to UiInfo
 402:C:/Workspace/FW_Platform2_5/trunk/CFG_DishWasher/CFG_Inertia\BusCommPltf_cfg.c **** 
 403:C:/Workspace/FW_Platform2_5/trunk/CFG_DishWasher/CFG_Inertia\BusCommPltf_cfg.c **** \par Example
 404:C:/Workspace/FW_Platform2_5/trunk/CFG_DishWasher/CFG_Inertia\BusCommPltf_cfg.c **** \code
 405:C:/Workspace/FW_Platform2_5/trunk/CFG_DishWasher/CFG_Inertia\BusCommPltf_cfg.c **** 
 406:C:/Workspace/FW_Platform2_5/trunk/CFG_DishWasher/CFG_Inertia\BusCommPltf_cfg.c **** \endcode
 407:C:/Workspace/FW_Platform2_5/trunk/CFG_DishWasher/CFG_Inertia\BusCommPltf_cfg.c **** */
 408:C:/Workspace/FW_Platform2_5/trunk/CFG_DishWasher/CFG_Inertia\BusCommPltf_cfg.c **** void UnuseUiInfo(void) 
 409:C:/Workspace/FW_Platform2_5/trunk/CFG_DishWasher/CFG_Inertia\BusCommPltf_cfg.c **** {
  72                             		.loc 1 409 0
 410:C:/Workspace/FW_Platform2_5/trunk/CFG_DishWasher/CFG_Inertia\BusCommPltf_cfg.c ****   OS_Unuse(&SemaUiInfo);
  73                             		.loc 1 410 0
  74 0000 FB 12 00 00 00 00       		mov.L	#_SemaUiInfo, r1
  75 0006 04 00 00 00             		bra	_OS_Unuse
  76                             	.LVL3:
  77                             	.LFE4:
  79                             		.section	.text.CP_GetExternalBoardCommStatus,"ax",@progbits
  80                             		.global	_CP_GetExternalBoardCommStatus
  82                             	_CP_GetExternalBoardCommStatus:
  83                             	.LFB5:
 411:C:/Workspace/FW_Platform2_5/trunk/CFG_DishWasher/CFG_Inertia\BusCommPltf_cfg.c **** }
 412:C:/Workspace/FW_Platform2_5/trunk/CFG_DishWasher/CFG_Inertia\BusCommPltf_cfg.c **** 
 413:C:/Workspace/FW_Platform2_5/trunk/CFG_DishWasher/CFG_Inertia\BusCommPltf_cfg.c **** 
 414:C:/Workspace/FW_Platform2_5/trunk/CFG_DishWasher/CFG_Inertia\BusCommPltf_cfg.c **** 
 415:C:/Workspace/FW_Platform2_5/trunk/CFG_DishWasher/CFG_Inertia\BusCommPltf_cfg.c **** 
 416:C:/Workspace/FW_Platform2_5/trunk/CFG_DishWasher/CFG_Inertia\BusCommPltf_cfg.c **** #if defined(CONFIG_LIB_EXTERNAL_BOARD_SUPPORT)
 417:C:/Workspace/FW_Platform2_5/trunk/CFG_DishWasher/CFG_Inertia\BusCommPltf_cfg.c **** /**
 418:C:/Workspace/FW_Platform2_5/trunk/CFG_DishWasher/CFG_Inertia\BusCommPltf_cfg.c **** Returns if communication with External Board is active
 419:C:/Workspace/FW_Platform2_5/trunk/CFG_DishWasher/CFG_Inertia\BusCommPltf_cfg.c **** 
 420:C:/Workspace/FW_Platform2_5/trunk/CFG_DishWasher/CFG_Inertia\BusCommPltf_cfg.c **** \par Example
 421:C:/Workspace/FW_Platform2_5/trunk/CFG_DishWasher/CFG_Inertia\BusCommPltf_cfg.c **** \code
 422:C:/Workspace/FW_Platform2_5/trunk/CFG_DishWasher/CFG_Inertia\BusCommPltf_cfg.c **** 
 423:C:/Workspace/FW_Platform2_5/trunk/CFG_DishWasher/CFG_Inertia\BusCommPltf_cfg.c **** \endcode
 424:C:/Workspace/FW_Platform2_5/trunk/CFG_DishWasher/CFG_Inertia\BusCommPltf_cfg.c **** */
 425:C:/Workspace/FW_Platform2_5/trunk/CFG_DishWasher/CFG_Inertia\BusCommPltf_cfg.c **** uint8_t CP_GetExternalBoardCommStatus(void)
 426:C:/Workspace/FW_Platform2_5/trunk/CFG_DishWasher/CFG_Inertia\BusCommPltf_cfg.c **** {
  84                             		.loc 1 426 0
  85                             	.LVL4:
 427:C:/Workspace/FW_Platform2_5/trunk/CFG_DishWasher/CFG_Inertia\BusCommPltf_cfg.c ****   uint8_t val;
 428:C:/Workspace/FW_Platform2_5/trunk/CFG_DishWasher/CFG_Inertia\BusCommPltf_cfg.c **** 
 429:C:/Workspace/FW_Platform2_5/trunk/CFG_DishWasher/CFG_Inertia\BusCommPltf_cfg.c ****   /*
 430:C:/Workspace/FW_Platform2_5/trunk/CFG_DishWasher/CFG_Inertia\BusCommPltf_cfg.c ****   UseExternalBoard();
 431:C:/Workspace/FW_Platform2_5/trunk/CFG_DishWasher/CFG_Inertia\BusCommPltf_cfg.c ****   needed if not atomic operation */
 432:C:/Workspace/FW_Platform2_5/trunk/CFG_DishWasher/CFG_Inertia\BusCommPltf_cfg.c ****   val = ExternalBoardCommStatus;
 433:C:/Workspace/FW_Platform2_5/trunk/CFG_DishWasher/CFG_Inertia\BusCommPltf_cfg.c ****   /*UnuseExternalBoard();*/
 434:C:/Workspace/FW_Platform2_5/trunk/CFG_DishWasher/CFG_Inertia\BusCommPltf_cfg.c ****   
 435:C:/Workspace/FW_Platform2_5/trunk/CFG_DishWasher/CFG_Inertia\BusCommPltf_cfg.c ****   return val;
 436:C:/Workspace/FW_Platform2_5/trunk/CFG_DishWasher/CFG_Inertia\BusCommPltf_cfg.c **** }
  86                             		.loc 1 436 0
  87 0000 FB E2 00 00 00 00       		mov.L	#_ExternalBoardCommStatus, r14
  88 0006 58 E1                   		movu.B	[r14], r1
  89 0008 02                      		rts
  90                             	.LFE5:
  92                             		.section	.text.CP_ResetExternalBoardCommStatus,"ax",@progbits
  93                             		.global	_CP_ResetExternalBoardCommStatus
  95                             	_CP_ResetExternalBoardCommStatus:
  96                             	.LFB6:
 437:C:/Workspace/FW_Platform2_5/trunk/CFG_DishWasher/CFG_Inertia\BusCommPltf_cfg.c **** 
 438:C:/Workspace/FW_Platform2_5/trunk/CFG_DishWasher/CFG_Inertia\BusCommPltf_cfg.c **** 
 439:C:/Workspace/FW_Platform2_5/trunk/CFG_DishWasher/CFG_Inertia\BusCommPltf_cfg.c **** 
 440:C:/Workspace/FW_Platform2_5/trunk/CFG_DishWasher/CFG_Inertia\BusCommPltf_cfg.c **** /**
 441:C:/Workspace/FW_Platform2_5/trunk/CFG_DishWasher/CFG_Inertia\BusCommPltf_cfg.c **** Signals communication with External Board as not active
 442:C:/Workspace/FW_Platform2_5/trunk/CFG_DishWasher/CFG_Inertia\BusCommPltf_cfg.c **** 
 443:C:/Workspace/FW_Platform2_5/trunk/CFG_DishWasher/CFG_Inertia\BusCommPltf_cfg.c **** \par Example
 444:C:/Workspace/FW_Platform2_5/trunk/CFG_DishWasher/CFG_Inertia\BusCommPltf_cfg.c **** \code
 445:C:/Workspace/FW_Platform2_5/trunk/CFG_DishWasher/CFG_Inertia\BusCommPltf_cfg.c **** 
 446:C:/Workspace/FW_Platform2_5/trunk/CFG_DishWasher/CFG_Inertia\BusCommPltf_cfg.c **** \endcode
 447:C:/Workspace/FW_Platform2_5/trunk/CFG_DishWasher/CFG_Inertia\BusCommPltf_cfg.c **** */
 448:C:/Workspace/FW_Platform2_5/trunk/CFG_DishWasher/CFG_Inertia\BusCommPltf_cfg.c **** void CP_ResetExternalBoardCommStatus(void)
 449:C:/Workspace/FW_Platform2_5/trunk/CFG_DishWasher/CFG_Inertia\BusCommPltf_cfg.c **** {
  97                             		.loc 1 449 0
 450:C:/Workspace/FW_Platform2_5/trunk/CFG_DishWasher/CFG_Inertia\BusCommPltf_cfg.c ****   /*
 451:C:/Workspace/FW_Platform2_5/trunk/CFG_DishWasher/CFG_Inertia\BusCommPltf_cfg.c ****   UseExternalBoard();
 452:C:/Workspace/FW_Platform2_5/trunk/CFG_DishWasher/CFG_Inertia\BusCommPltf_cfg.c ****   needed if not atomic operation
 453:C:/Workspace/FW_Platform2_5/trunk/CFG_DishWasher/CFG_Inertia\BusCommPltf_cfg.c ****   */
 454:C:/Workspace/FW_Platform2_5/trunk/CFG_DishWasher/CFG_Inertia\BusCommPltf_cfg.c ****   ExternalBoardCommStatus = 0;
  98                             		.loc 1 454 0
  99 0000 FB E2 00 00 00 00       		mov.L	#_ExternalBoardCommStatus, r14
 100 0006 F8 E4 00                		mov.B	#0, [r14]
 101 0009 02                      		rts
 102                             	.LFE6:
 104                             		.section	.text.PP_EosnFunction,"ax",@progbits
 105                             		.global	_PP_EosnFunction
 107                             	_PP_EosnFunction:
 108                             	.LFB7:
 455:C:/Workspace/FW_Platform2_5/trunk/CFG_DishWasher/CFG_Inertia\BusCommPltf_cfg.c ****   /*
 456:C:/Workspace/FW_Platform2_5/trunk/CFG_DishWasher/CFG_Inertia\BusCommPltf_cfg.c ****   UnuseExternalBoard();
 457:C:/Workspace/FW_Platform2_5/trunk/CFG_DishWasher/CFG_Inertia\BusCommPltf_cfg.c ****   */
 458:C:/Workspace/FW_Platform2_5/trunk/CFG_DishWasher/CFG_Inertia\BusCommPltf_cfg.c **** }
 459:C:/Workspace/FW_Platform2_5/trunk/CFG_DishWasher/CFG_Inertia\BusCommPltf_cfg.c **** 
 460:C:/Workspace/FW_Platform2_5/trunk/CFG_DishWasher/CFG_Inertia\BusCommPltf_cfg.c **** #endif /* defined(CONFIG_LIB_EXTERNAL_BOARD_SUPPORT) */
 461:C:/Workspace/FW_Platform2_5/trunk/CFG_DishWasher/CFG_Inertia\BusCommPltf_cfg.c **** 
 462:C:/Workspace/FW_Platform2_5/trunk/CFG_DishWasher/CFG_Inertia\BusCommPltf_cfg.c **** 
 463:C:/Workspace/FW_Platform2_5/trunk/CFG_DishWasher/CFG_Inertia\BusCommPltf_cfg.c **** 
 464:C:/Workspace/FW_Platform2_5/trunk/CFG_DishWasher/CFG_Inertia\BusCommPltf_cfg.c **** /* End of slave */		
 465:C:/Workspace/FW_Platform2_5/trunk/CFG_DishWasher/CFG_Inertia\BusCommPltf_cfg.c **** BEGIN_BCP_EOSN()
 109                             		.loc 1 465 0
 110                             	.LVL5:
 466:C:/Workspace/FW_Platform2_5/trunk/CFG_DishWasher/CFG_Inertia\BusCommPltf_cfg.c **** 	BEGIN_BCP_EOSN__EE()
 111                             		.loc 1 466 0
 112 0000 5B 11                   		movu.B	r1, r1
 113 0002 75 11 1C                		mul	#28, r1
 114                             	.LVL6:
 115 0005 70 11 00 00 00 00       		add	#_BCP_ChannelTable, r1
 116 000b ED 1E 04                		mov.L	16[r1], r14
 117 000e 59 E4 02                		movu.B	2[r14], r4
 118 0011 75 54 EE                		cmp	#0xee, r4
 119 0014 21 19                   		bne	.L11
 120                             		.loc 1 466 0 is_stmt 0 discriminator 1
 121 0016 59 EE 04                		movu.B	4[r14], r14
 122 0019 75 5E 60                		cmp	#0x60, r14
 123 001c 20 09                   		beq	.L13
 124 001e 75 5E 62                		cmp	#0x62, r14
 125 0021 21 0C                   		bne	.L11
 126 0023 2E 06                   		bra	.L14
 127                             	.L13:
 467:C:/Workspace/FW_Platform2_5/trunk/CFG_DishWasher/CFG_Inertia\BusCommPltf_cfg.c **** 		BCP_EOSN__EE(PP_EE_TYPE_READ_STATUS,    CBF_OnReadStatusCompleted)
 128                             		.loc 1 467 0 is_stmt 1
 129 0025 04 00 00 00             		bra	_CBF_OnReadStatusCompleted
 130                             	.LVL7:
 131                             	.L14:
 468:C:/Workspace/FW_Platform2_5/trunk/CFG_DishWasher/CFG_Inertia\BusCommPltf_cfg.c **** 		BCP_EOSN__EE(PP_EE_TYPE_READ_REGS,      CBF_OnReadRegulationsCompleted)
 132                             		.loc 1 468 0
 133 0029 04 00 00 00             		bra	_CBF_OnReadRegulationsCompleted
 134                             	.LVL8:
 135                             	.L11:
 136 002d 02                      		rts
 137                             	.LFE7:
 139                             		.section	.text.ActionComm,"ax",@progbits
 140                             		.global	_ActionComm
 142                             	_ActionComm:
 143                             	.LFB8:
 469:C:/Workspace/FW_Platform2_5/trunk/CFG_DishWasher/CFG_Inertia\BusCommPltf_cfg.c **** 	END_BCP_EOSN__EE()
 470:C:/Workspace/FW_Platform2_5/trunk/CFG_DishWasher/CFG_Inertia\BusCommPltf_cfg.c **** END_BCP_EOSN()
 471:C:/Workspace/FW_Platform2_5/trunk/CFG_DishWasher/CFG_Inertia\BusCommPltf_cfg.c **** 
 472:C:/Workspace/FW_Platform2_5/trunk/CFG_DishWasher/CFG_Inertia\BusCommPltf_cfg.c **** 
 473:C:/Workspace/FW_Platform2_5/trunk/CFG_DishWasher/CFG_Inertia\BusCommPltf_cfg.c **** /**
 474:C:/Workspace/FW_Platform2_5/trunk/CFG_DishWasher/CFG_Inertia\BusCommPltf_cfg.c **** Communication Platform callback: called in the driver interrupt by platform protocol
 475:C:/Workspace/FW_Platform2_5/trunk/CFG_DishWasher/CFG_Inertia\BusCommPltf_cfg.c **** \param [in] ch communication channel
 476:C:/Workspace/FW_Platform2_5/trunk/CFG_DishWasher/CFG_Inertia\BusCommPltf_cfg.c **** \param [in] notif, not used
 477:C:/Workspace/FW_Platform2_5/trunk/CFG_DishWasher/CFG_Inertia\BusCommPltf_cfg.c **** */
 478:C:/Workspace/FW_Platform2_5/trunk/CFG_DishWasher/CFG_Inertia\BusCommPltf_cfg.c **** void ActionComm(IO_ChannelType ch, IO_NotificationType notif) 
 479:C:/Workspace/FW_Platform2_5/trunk/CFG_DishWasher/CFG_Inertia\BusCommPltf_cfg.c **** {
 144                             		.loc 1 479 0
 145                             	.LVL9:
 480:C:/Workspace/FW_Platform2_5/trunk/CFG_DishWasher/CFG_Inertia\BusCommPltf_cfg.c ****     (void) notif;
 481:C:/Workspace/FW_Platform2_5/trunk/CFG_DishWasher/CFG_Inertia\BusCommPltf_cfg.c ****     
 482:C:/Workspace/FW_Platform2_5/trunk/CFG_DishWasher/CFG_Inertia\BusCommPltf_cfg.c **** 	if(ch == (IO_ChannelType)(CP_I2C_CH_ID))
 146                             		.loc 1 482 0
 147 0000 5B 11                   		movu.B	r1, r1
 148 0002 61 01                   		cmp	#0, r1
 149 0004 21 06                   		bne	.L16
 483:C:/Workspace/FW_Platform2_5/trunk/CFG_DishWasher/CFG_Inertia\BusCommPltf_cfg.c **** 	{
 484:C:/Workspace/FW_Platform2_5/trunk/CFG_DishWasher/CFG_Inertia\BusCommPltf_cfg.c ****   	    OS_SignalEvent(MAIN_OS_EVENT_I2C, &CP_CommunicationTaskTCB);
 150                             		.loc 1 484 0
 151 0006 66 11                   		mov.L	#1, r1
 152                             	.LVL10:
 153 0008 2E 08                   		bra	.L18
 154                             	.L16:
 485:C:/Workspace/FW_Platform2_5/trunk/CFG_DishWasher/CFG_Inertia\BusCommPltf_cfg.c **** 	}
 486:C:/Workspace/FW_Platform2_5/trunk/CFG_DishWasher/CFG_Inertia\BusCommPltf_cfg.c **** #if defined(CONFIG_LIB_EXTERNAL_BOARD_SUPPORT)
 487:C:/Workspace/FW_Platform2_5/trunk/CFG_DishWasher/CFG_Inertia\BusCommPltf_cfg.c ****         if(ch == (IO_ChannelType)(CP_UART1_CH_ID))
 155                             		.loc 1 487 0
 156 000a 61 11                   		cmp	#1, r1
 157 000c 21 0E                   		bne	.L15
 488:C:/Workspace/FW_Platform2_5/trunk/CFG_DishWasher/CFG_Inertia\BusCommPltf_cfg.c ****         {
 489:C:/Workspace/FW_Platform2_5/trunk/CFG_DishWasher/CFG_Inertia\BusCommPltf_cfg.c ****             OS_SignalEvent(MAIN_OS_EVENT_UART, &CP_CommunicationTaskTCB);
 158                             		.loc 1 489 0
 159 000e 66 21                   		mov.L	#2, r1
 160                             		.balign 2,3,5
 161                             	.L18:
 162 0010 FB 22 00 00 00 00       		mov.L	#_CP_CommunicationTaskTCB, r2
 163                             	.LVL11:
 164 0016 04 00 00 00             		bra	_OS_SignalEvent
 165                             	.LVL12:
 166                             	.L15:
 167 001a 02                      		rts
 168                             	.LFE8:
 170 001b 03                      		.section	.text.CMS_EE_FUNC_Ctrl_DspExtraRequest,"ax",@progbits
 171                             		.global	_CMS_EE_FUNC_Ctrl_DspExtraRequest
 173                             	_CMS_EE_FUNC_Ctrl_DspExtraRequest:
 174                             	.LFB10:
 490:C:/Workspace/FW_Platform2_5/trunk/CFG_DishWasher/CFG_Inertia\BusCommPltf_cfg.c ****         }
 491:C:/Workspace/FW_Platform2_5/trunk/CFG_DishWasher/CFG_Inertia\BusCommPltf_cfg.c **** #endif         
 492:C:/Workspace/FW_Platform2_5/trunk/CFG_DishWasher/CFG_Inertia\BusCommPltf_cfg.c **** }
 493:C:/Workspace/FW_Platform2_5/trunk/CFG_DishWasher/CFG_Inertia\BusCommPltf_cfg.c **** 
 494:C:/Workspace/FW_Platform2_5/trunk/CFG_DishWasher/CFG_Inertia\BusCommPltf_cfg.c **** 
 495:C:/Workspace/FW_Platform2_5/trunk/CFG_DishWasher/CFG_Inertia\BusCommPltf_cfg.c **** 
 496:C:/Workspace/FW_Platform2_5/trunk/CFG_DishWasher/CFG_Inertia\BusCommPltf_cfg.c **** 
 497:C:/Workspace/FW_Platform2_5/trunk/CFG_DishWasher/CFG_Inertia\BusCommPltf_cfg.c **** /* Local Function */
 498:C:/Workspace/FW_Platform2_5/trunk/CFG_DishWasher/CFG_Inertia\BusCommPltf_cfg.c **** 
 499:C:/Workspace/FW_Platform2_5/trunk/CFG_DishWasher/CFG_Inertia\BusCommPltf_cfg.c **** #if defined(CONFIG_LIB_EXTERNAL_BOARD_SUPPORT)
 500:C:/Workspace/FW_Platform2_5/trunk/CFG_DishWasher/CFG_Inertia\BusCommPltf_cfg.c **** static void CP_SetExternalBoardCommStatus(void)
 501:C:/Workspace/FW_Platform2_5/trunk/CFG_DishWasher/CFG_Inertia\BusCommPltf_cfg.c **** {
 502:C:/Workspace/FW_Platform2_5/trunk/CFG_DishWasher/CFG_Inertia\BusCommPltf_cfg.c ****   /*
 503:C:/Workspace/FW_Platform2_5/trunk/CFG_DishWasher/CFG_Inertia\BusCommPltf_cfg.c ****   UseExternalBoard();
 504:C:/Workspace/FW_Platform2_5/trunk/CFG_DishWasher/CFG_Inertia\BusCommPltf_cfg.c ****   needed if not atomic operation
 505:C:/Workspace/FW_Platform2_5/trunk/CFG_DishWasher/CFG_Inertia\BusCommPltf_cfg.c ****   */
 506:C:/Workspace/FW_Platform2_5/trunk/CFG_DishWasher/CFG_Inertia\BusCommPltf_cfg.c ****   ExternalBoardCommStatus = 1;
 507:C:/Workspace/FW_Platform2_5/trunk/CFG_DishWasher/CFG_Inertia\BusCommPltf_cfg.c ****   /*
 508:C:/Workspace/FW_Platform2_5/trunk/CFG_DishWasher/CFG_Inertia\BusCommPltf_cfg.c ****   UnuseExternalBoard();
 509:C:/Workspace/FW_Platform2_5/trunk/CFG_DishWasher/CFG_Inertia\BusCommPltf_cfg.c ****   */
 510:C:/Workspace/FW_Platform2_5/trunk/CFG_DishWasher/CFG_Inertia\BusCommPltf_cfg.c **** }
 511:C:/Workspace/FW_Platform2_5/trunk/CFG_DishWasher/CFG_Inertia\BusCommPltf_cfg.c **** 
 512:C:/Workspace/FW_Platform2_5/trunk/CFG_DishWasher/CFG_Inertia\BusCommPltf_cfg.c **** 
 513:C:/Workspace/FW_Platform2_5/trunk/CFG_DishWasher/CFG_Inertia\BusCommPltf_cfg.c **** DEF_CSM_EE_CUSTOM_FUNC(Ctrl_DspExtraRequest)
 514:C:/Workspace/FW_Platform2_5/trunk/CFG_DishWasher/CFG_Inertia\BusCommPltf_cfg.c **** {
 175                             		.loc 1 514 0
 176                             	.LVL13:
 177 0000 7E A7                   		push.l	r7
 178                             	.LCFI2:
 515:C:/Workspace/FW_Platform2_5/trunk/CFG_DishWasher/CFG_Inertia\BusCommPltf_cfg.c ****     (void) ch;
 516:C:/Workspace/FW_Platform2_5/trunk/CFG_DishWasher/CFG_Inertia\BusCommPltf_cfg.c **** 	pinfo->error=IO_E_INVALID_VALUE;
 517:C:/Workspace/FW_Platform2_5/trunk/CFG_DishWasher/CFG_Inertia\BusCommPltf_cfg.c **** 	
 518:C:/Workspace/FW_Platform2_5/trunk/CFG_DishWasher/CFG_Inertia\BusCommPltf_cfg.c **** 	if(LIB_IOM_NO_ERROR == LIB_IOM_External_SetExtraRequest(pdata, len))
 179                             		.loc 1 518 0
 180 0002 EF 21                   		mov.L	r2, r1
 181                             	.LVL14:
 516:C:/Workspace/FW_Platform2_5/trunk/CFG_DishWasher/CFG_Inertia\BusCommPltf_cfg.c **** 	pinfo->error=IO_E_INVALID_VALUE;
 182                             		.loc 1 516 0
 183 0004 3C 46 13                		mov.B	#19, 6[r4]
 184                             		.loc 1 518 0
 185 0007 CF 32                   		mov.B	r3, r2
 186                             	.LVL15:
 514:C:/Workspace/FW_Platform2_5/trunk/CFG_DishWasher/CFG_Inertia\BusCommPltf_cfg.c **** {
 187                             		.loc 1 514 0
 188 0009 EF 47                   		mov.L	r4, r7
 189                             		.loc 1 518 0
 190 000b 05 00 00 00             		bsr	_LIB_IOM_External_SetExtraRequest
 191                             	.LVL16:
 192 000f 61 01                   		cmp	#0, r1
 193 0011 21 05                   		bne	.L19
 519:C:/Workspace/FW_Platform2_5/trunk/CFG_DishWasher/CFG_Inertia\BusCommPltf_cfg.c **** 	{
 520:C:/Workspace/FW_Platform2_5/trunk/CFG_DishWasher/CFG_Inertia\BusCommPltf_cfg.c **** 		pinfo->error=IO_E_OK;
 194                             		.loc 1 520 0
 195 0013 81 F1                   		mov.B	r1, 6[r7]
 196 0015 03                      		.balign 2,3,2
 197                             	.L19:
 521:C:/Workspace/FW_Platform2_5/trunk/CFG_DishWasher/CFG_Inertia\BusCommPltf_cfg.c **** 	}
 522:C:/Workspace/FW_Platform2_5/trunk/CFG_DishWasher/CFG_Inertia\BusCommPltf_cfg.c **** }
 198                             		.loc 1 522 0
 199 0016 3F 77 01                		rtsd	#4, r7-r7
 200                             	.LFE10:
 202 0019 03                      		.section	.text.CMS_EE_FUNC_Ctrl_DspReadRamRequest,"ax",@progbits
 203                             		.global	_CMS_EE_FUNC_Ctrl_DspReadRamRequest
 205                             	_CMS_EE_FUNC_Ctrl_DspReadRamRequest:
 206                             	.LFB11:
 523:C:/Workspace/FW_Platform2_5/trunk/CFG_DishWasher/CFG_Inertia\BusCommPltf_cfg.c **** 
 524:C:/Workspace/FW_Platform2_5/trunk/CFG_DishWasher/CFG_Inertia\BusCommPltf_cfg.c **** 
 525:C:/Workspace/FW_Platform2_5/trunk/CFG_DishWasher/CFG_Inertia\BusCommPltf_cfg.c **** DEF_CSM_EE_CUSTOM_FUNC(Ctrl_DspReadRamRequest)
 526:C:/Workspace/FW_Platform2_5/trunk/CFG_DishWasher/CFG_Inertia\BusCommPltf_cfg.c **** {
 207                             		.loc 1 526 0
 208                             	.LVL17:
 209 0000 7E A7                   		push.l	r7
 210                             	.LCFI3:
 527:C:/Workspace/FW_Platform2_5/trunk/CFG_DishWasher/CFG_Inertia\BusCommPltf_cfg.c **** 	(void) ch;
 528:C:/Workspace/FW_Platform2_5/trunk/CFG_DishWasher/CFG_Inertia\BusCommPltf_cfg.c **** 	pinfo->error=IO_E_INVALID_VALUE;
 529:C:/Workspace/FW_Platform2_5/trunk/CFG_DishWasher/CFG_Inertia\BusCommPltf_cfg.c **** 	
 530:C:/Workspace/FW_Platform2_5/trunk/CFG_DishWasher/CFG_Inertia\BusCommPltf_cfg.c **** 	if(LIB_IOM_NO_ERROR == LIB_IOM_External_SetReadRamRequest(pdata, len))
 211                             		.loc 1 530 0
 212 0002 EF 21                   		mov.L	r2, r1
 213                             	.LVL18:
 528:C:/Workspace/FW_Platform2_5/trunk/CFG_DishWasher/CFG_Inertia\BusCommPltf_cfg.c **** 	pinfo->error=IO_E_INVALID_VALUE;
 214                             		.loc 1 528 0
 215 0004 3C 46 13                		mov.B	#19, 6[r4]
 216                             		.loc 1 530 0
 217 0007 CF 32                   		mov.B	r3, r2
 218                             	.LVL19:
 526:C:/Workspace/FW_Platform2_5/trunk/CFG_DishWasher/CFG_Inertia\BusCommPltf_cfg.c **** {
 219                             		.loc 1 526 0
 220 0009 EF 47                   		mov.L	r4, r7
 221                             		.loc 1 530 0
 222 000b 05 00 00 00             		bsr	_LIB_IOM_External_SetReadRamRequest
 223                             	.LVL20:
 224 000f 61 01                   		cmp	#0, r1
 225 0011 21 05                   		bne	.L22
 531:C:/Workspace/FW_Platform2_5/trunk/CFG_DishWasher/CFG_Inertia\BusCommPltf_cfg.c **** 	{
 532:C:/Workspace/FW_Platform2_5/trunk/CFG_DishWasher/CFG_Inertia\BusCommPltf_cfg.c **** 		pinfo->error=IO_E_OK;
 226                             		.loc 1 532 0
 227 0013 81 F1                   		mov.B	r1, 6[r7]
 228 0015 03                      		.balign 2,3,2
 229                             	.L22:
 533:C:/Workspace/FW_Platform2_5/trunk/CFG_DishWasher/CFG_Inertia\BusCommPltf_cfg.c **** 	}
 534:C:/Workspace/FW_Platform2_5/trunk/CFG_DishWasher/CFG_Inertia\BusCommPltf_cfg.c **** }
 230                             		.loc 1 534 0
 231 0016 3F 77 01                		rtsd	#4, r7-r7
 232                             	.LFE11:
 234 0019 03                      		.section	.text.CMS_EE_FUNC_Ctrl_DspWriteRamRequest,"ax",@progbits
 235                             		.global	_CMS_EE_FUNC_Ctrl_DspWriteRamRequest
 237                             	_CMS_EE_FUNC_Ctrl_DspWriteRamRequest:
 238                             	.LFB12:
 535:C:/Workspace/FW_Platform2_5/trunk/CFG_DishWasher/CFG_Inertia\BusCommPltf_cfg.c **** 
 536:C:/Workspace/FW_Platform2_5/trunk/CFG_DishWasher/CFG_Inertia\BusCommPltf_cfg.c **** DEF_CSM_EE_CUSTOM_FUNC(Ctrl_DspWriteRamRequest)
 537:C:/Workspace/FW_Platform2_5/trunk/CFG_DishWasher/CFG_Inertia\BusCommPltf_cfg.c **** {
 239                             		.loc 1 537 0
 240                             	.LVL21:
 241 0000 7E A7                   		push.l	r7
 242                             	.LCFI4:
 538:C:/Workspace/FW_Platform2_5/trunk/CFG_DishWasher/CFG_Inertia\BusCommPltf_cfg.c ****     (void) ch;
 539:C:/Workspace/FW_Platform2_5/trunk/CFG_DishWasher/CFG_Inertia\BusCommPltf_cfg.c **** 	pinfo->error=IO_E_INVALID_VALUE;
 540:C:/Workspace/FW_Platform2_5/trunk/CFG_DishWasher/CFG_Inertia\BusCommPltf_cfg.c **** 	
 541:C:/Workspace/FW_Platform2_5/trunk/CFG_DishWasher/CFG_Inertia\BusCommPltf_cfg.c **** 	if(LIB_IOM_NO_ERROR == LIB_IOM_External_SetWriteRamRequest(pdata, len))
 243                             		.loc 1 541 0
 244 0002 EF 21                   		mov.L	r2, r1
 245                             	.LVL22:
 539:C:/Workspace/FW_Platform2_5/trunk/CFG_DishWasher/CFG_Inertia\BusCommPltf_cfg.c **** 	pinfo->error=IO_E_INVALID_VALUE;
 246                             		.loc 1 539 0
 247 0004 3C 46 13                		mov.B	#19, 6[r4]
 248                             		.loc 1 541 0
 249 0007 CF 32                   		mov.B	r3, r2
 250                             	.LVL23:
 537:C:/Workspace/FW_Platform2_5/trunk/CFG_DishWasher/CFG_Inertia\BusCommPltf_cfg.c **** {
 251                             		.loc 1 537 0
 252 0009 EF 47                   		mov.L	r4, r7
 253                             		.loc 1 541 0
 254 000b 05 00 00 00             		bsr	_LIB_IOM_External_SetWriteRamRequest
 255                             	.LVL24:
 256 000f 61 01                   		cmp	#0, r1
 257 0011 21 05                   		bne	.L25
 542:C:/Workspace/FW_Platform2_5/trunk/CFG_DishWasher/CFG_Inertia\BusCommPltf_cfg.c **** 	{
 543:C:/Workspace/FW_Platform2_5/trunk/CFG_DishWasher/CFG_Inertia\BusCommPltf_cfg.c **** 		pinfo->error=IO_E_OK;
 258                             		.loc 1 543 0
 259 0013 81 F1                   		mov.B	r1, 6[r7]
 260 0015 03                      		.balign 2,3,2
 261                             	.L25:
 544:C:/Workspace/FW_Platform2_5/trunk/CFG_DishWasher/CFG_Inertia\BusCommPltf_cfg.c **** 	}
 545:C:/Workspace/FW_Platform2_5/trunk/CFG_DishWasher/CFG_Inertia\BusCommPltf_cfg.c **** }
 262                             		.loc 1 545 0
 263 0016 3F 77 01                		rtsd	#4, r7-r7
 264                             	.LFE12:
 266 0019 03                      		.section	.text.CMS_EE_FUNC_Ctrl_InfoDspRequest,"ax",@progbits
 267                             		.global	_CMS_EE_FUNC_Ctrl_InfoDspRequest
 269                             	_CMS_EE_FUNC_Ctrl_InfoDspRequest:
 270                             	.LFB13:
 546:C:/Workspace/FW_Platform2_5/trunk/CFG_DishWasher/CFG_Inertia\BusCommPltf_cfg.c **** 
 547:C:/Workspace/FW_Platform2_5/trunk/CFG_DishWasher/CFG_Inertia\BusCommPltf_cfg.c **** 
 548:C:/Workspace/FW_Platform2_5/trunk/CFG_DishWasher/CFG_Inertia\BusCommPltf_cfg.c **** DEF_CSM_EE_CUSTOM_FUNC(Ctrl_InfoDspRequest)
 549:C:/Workspace/FW_Platform2_5/trunk/CFG_DishWasher/CFG_Inertia\BusCommPltf_cfg.c **** {
 271                             		.loc 1 549 0
 272                             	.LVL25:
 273 0000 7E A7                   		push.l	r7
 274                             	.LCFI5:
 550:C:/Workspace/FW_Platform2_5/trunk/CFG_DishWasher/CFG_Inertia\BusCommPltf_cfg.c ****     (void) ch;
 551:C:/Workspace/FW_Platform2_5/trunk/CFG_DishWasher/CFG_Inertia\BusCommPltf_cfg.c **** 	LIB_IOM_External_ProcessInfoPacketData(0, pdata, len);
 275                             		.loc 1 551 0
 276 0002 66 01                   		mov	#0, r1
 277                             	.LVL26:
 549:C:/Workspace/FW_Platform2_5/trunk/CFG_DishWasher/CFG_Inertia\BusCommPltf_cfg.c **** {
 278                             		.loc 1 549 0
 279 0004 EF 47                   		mov.L	r4, r7
 280                             		.loc 1 551 0
 281 0006 05 00 00 00             		bsr	_LIB_IOM_External_ProcessInfoPacketData
 282                             	.LVL27:
 552:C:/Workspace/FW_Platform2_5/trunk/CFG_DishWasher/CFG_Inertia\BusCommPltf_cfg.c **** 	pinfo->error=IO_E_OK;									        
 283                             		.loc 1 552 0
 284 000a 3C 76 00                		mov.B	#0, 6[r7]
 285                             	.LBB32:
 286                             	.LBB33:
 506:C:/Workspace/FW_Platform2_5/trunk/CFG_DishWasher/CFG_Inertia\BusCommPltf_cfg.c ****   ExternalBoardCommStatus = 1;
 287                             		.loc 1 506 0
 288 000d FB 72 00 00 00 00       		mov.L	#_ExternalBoardCommStatus, r7
 289                             	.LVL28:
 290 0013 3C 70 01                		mov.B	#1, [r7]
 291                             	.LBE33:
 292                             	.LBE32:
 553:C:/Workspace/FW_Platform2_5/trunk/CFG_DishWasher/CFG_Inertia\BusCommPltf_cfg.c ****     CP_SetExternalBoardCommStatus();
 554:C:/Workspace/FW_Platform2_5/trunk/CFG_DishWasher/CFG_Inertia\BusCommPltf_cfg.c **** }
 293                             		.loc 1 554 0
 294 0016 3F 77 01                		rtsd	#4, r7-r7
 295                             	.LFE13:
 297                             		.section	.text.CMS_EE_FUNC_Ctrl_CmdDspRequest,"ax",@progbits
 298                             		.global	_CMS_EE_FUNC_Ctrl_CmdDspRequest
 300                             	_CMS_EE_FUNC_Ctrl_CmdDspRequest:
 301                             	.LFB14:
 555:C:/Workspace/FW_Platform2_5/trunk/CFG_DishWasher/CFG_Inertia\BusCommPltf_cfg.c **** 
 556:C:/Workspace/FW_Platform2_5/trunk/CFG_DishWasher/CFG_Inertia\BusCommPltf_cfg.c **** DEF_CSM_EE_CUSTOM_FUNC(Ctrl_CmdDspRequest)
 557:C:/Workspace/FW_Platform2_5/trunk/CFG_DishWasher/CFG_Inertia\BusCommPltf_cfg.c **** {
 302                             		.loc 1 557 0
 303                             	.LVL29:
 304 0000 6E 7A                   		pushm	r7-r10
 305                             	.LCFI6:
 306 0002 60 80                   		sub	#8, r0
 307                             	.LCFI7:
 558:C:/Workspace/FW_Platform2_5/trunk/CFG_DishWasher/CFG_Inertia\BusCommPltf_cfg.c ****     
 559:C:/Workspace/FW_Platform2_5/trunk/CFG_DishWasher/CFG_Inertia\BusCommPltf_cfg.c **** 	uint8_t* pCmd=0;
 560:C:/Workspace/FW_Platform2_5/trunk/CFG_DishWasher/CFG_Inertia\BusCommPltf_cfg.c **** 	uint8_t  cmdlen=0;
 561:C:/Workspace/FW_Platform2_5/trunk/CFG_DishWasher/CFG_Inertia\BusCommPltf_cfg.c **** 	(void) ch;
 562:C:/Workspace/FW_Platform2_5/trunk/CFG_DishWasher/CFG_Inertia\BusCommPltf_cfg.c **** 	(void) pdata;
 563:C:/Workspace/FW_Platform2_5/trunk/CFG_DishWasher/CFG_Inertia\BusCommPltf_cfg.c **** 	(void) len;
 564:C:/Workspace/FW_Platform2_5/trunk/CFG_DishWasher/CFG_Inertia\BusCommPltf_cfg.c **** 	pinfo->error=IO_E_INVALID_VALUE;
 565:C:/Workspace/FW_Platform2_5/trunk/CFG_DishWasher/CFG_Inertia\BusCommPltf_cfg.c **** 
 566:C:/Workspace/FW_Platform2_5/trunk/CFG_DishWasher/CFG_Inertia\BusCommPltf_cfg.c **** 	if(LIB_IOM_NO_ERROR == LIB_IOM_External_GetCommandBuffer(0, &pCmd, &cmdlen))
 308                             		.loc 1 566 0
 309 0004 71 03 04                		add	#4, r0, r3
 310                             	.LVL30:
 564:C:/Workspace/FW_Platform2_5/trunk/CFG_DishWasher/CFG_Inertia\BusCommPltf_cfg.c **** 	pinfo->error=IO_E_INVALID_VALUE;
 311                             		.loc 1 564 0
 312 0007 3C 46 13                		mov.B	#19, 6[r4]
 313                             		.loc 1 566 0
 314 000a 66 01                   		mov	#0, r1
 315                             	.LVL31:
 316 000c EF 02                   		mov.L	r0, r2
 317                             	.LVL32:
 557:C:/Workspace/FW_Platform2_5/trunk/CFG_DishWasher/CFG_Inertia\BusCommPltf_cfg.c **** {
 318                             		.loc 1 557 0
 319 000e EF 47                   		mov.L	r4, r7
 559:C:/Workspace/FW_Platform2_5/trunk/CFG_DishWasher/CFG_Inertia\BusCommPltf_cfg.c **** 	uint8_t* pCmd=0;
 320                             		.loc 1 559 0
 321 0010 3E 00 00                		mov.L	#0, [r0]
 322                             	.LVL33:
 560:C:/Workspace/FW_Platform2_5/trunk/CFG_DishWasher/CFG_Inertia\BusCommPltf_cfg.c **** 	uint8_t  cmdlen=0;
 323                             		.loc 1 560 0
 324 0013 3C 04 00                		mov.B	#0, 4[r0]
 325                             	.LVL34:
 326                             		.loc 1 566 0
 327 0016 05 00 00 00             		bsr	_LIB_IOM_External_GetCommandBuffer
 328                             	.LVL35:
 329 001a 61 01                   		cmp	#0, r1
 330 001c 21 1A                   		bne	.L30
 567:C:/Workspace/FW_Platform2_5/trunk/CFG_DishWasher/CFG_Inertia\BusCommPltf_cfg.c **** 	{
 568:C:/Workspace/FW_Platform2_5/trunk/CFG_DishWasher/CFG_Inertia\BusCommPltf_cfg.c **** 		pinfo->len=cmdlen;
 331                             		.loc 1 568 0
 332 001e 59 0E 04                		movu.B	4[r0], r14
 333                             	.LVL36:
 334 0021 D7 7E 02                		mov.W	r14, 4[r7]
 569:C:/Workspace/FW_Platform2_5/trunk/CFG_DishWasher/CFG_Inertia\BusCommPltf_cfg.c **** 		if(pinfo->len)
 335                             		.loc 1 569 0
 336 0024 61 0E                   		cmp	#0, r14
 337 0026 20 10                   		beq	.L30
 570:C:/Workspace/FW_Platform2_5/trunk/CFG_DishWasher/CFG_Inertia\BusCommPltf_cfg.c **** 		{
 571:C:/Workspace/FW_Platform2_5/trunk/CFG_DishWasher/CFG_Inertia\BusCommPltf_cfg.c **** 			pinfo->error=IO_E_OK;
 572:C:/Workspace/FW_Platform2_5/trunk/CFG_DishWasher/CFG_Inertia\BusCommPltf_cfg.c **** 			pinfo->address= (IO_MemPtrType)pCmd;
 573:C:/Workspace/FW_Platform2_5/trunk/CFG_DishWasher/CFG_Inertia\BusCommPltf_cfg.c **** 			pinfo->option |= PP_SL_RESP_ANSW_OPT;
 338                             		.loc 1 573 0
 339 0028 CD 7E 07                		mov.B	7[r7], r14
 340                             	.LVL37:
 572:C:/Workspace/FW_Platform2_5/trunk/CFG_DishWasher/CFG_Inertia\BusCommPltf_cfg.c **** 			pinfo->address= (IO_MemPtrType)pCmd;
 341                             		.loc 1 572 0
 342 002b EC 0A                   		mov.L	[r0], r10
 343                             		.loc 1 573 0
 344 002d 65 1E                   		or	#1, r14
 571:C:/Workspace/FW_Platform2_5/trunk/CFG_DishWasher/CFG_Inertia\BusCommPltf_cfg.c **** 			pinfo->error=IO_E_OK;
 345                             		.loc 1 571 0
 346 002f 81 F1                   		mov.B	r1, 6[r7]
 572:C:/Workspace/FW_Platform2_5/trunk/CFG_DishWasher/CFG_Inertia\BusCommPltf_cfg.c **** 			pinfo->address= (IO_MemPtrType)pCmd;
 347                             		.loc 1 572 0
 348 0031 E3 7A                   		mov.L	r10, [r7]
 349                             		.loc 1 573 0
 350 0033 C7 7E 07                		mov.B	r14, 7[r7]
 351                             	.LVL38:
 352                             		.balign 2,3,2
 353                             	.L30:
 574:C:/Workspace/FW_Platform2_5/trunk/CFG_DishWasher/CFG_Inertia\BusCommPltf_cfg.c **** 		}
 575:C:/Workspace/FW_Platform2_5/trunk/CFG_DishWasher/CFG_Inertia\BusCommPltf_cfg.c **** 	}
 576:C:/Workspace/FW_Platform2_5/trunk/CFG_DishWasher/CFG_Inertia\BusCommPltf_cfg.c **** }
 354                             		.loc 1 576 0
 355 0036 3F 7A 06                		rtsd	#24, r7-r10
 356                             	.LFE14:
 358 0039 03                      		.section	.text.CMS_EE_FUNC_EE_ReadPowerMeter,"ax",@progbits
 359                             		.global	_CMS_EE_FUNC_EE_ReadPowerMeter
 361                             	_CMS_EE_FUNC_EE_ReadPowerMeter:
 362                             	.LFB15:
 577:C:/Workspace/FW_Platform2_5/trunk/CFG_DishWasher/CFG_Inertia\BusCommPltf_cfg.c **** 
 578:C:/Workspace/FW_Platform2_5/trunk/CFG_DishWasher/CFG_Inertia\BusCommPltf_cfg.c **** #endif /* defined(CONFIG_LIB_EXTERNAL_BOARD_SUPPORT) */
 579:C:/Workspace/FW_Platform2_5/trunk/CFG_DishWasher/CFG_Inertia\BusCommPltf_cfg.c **** 
 580:C:/Workspace/FW_Platform2_5/trunk/CFG_DishWasher/CFG_Inertia\BusCommPltf_cfg.c **** 
 581:C:/Workspace/FW_Platform2_5/trunk/CFG_DishWasher/CFG_Inertia\BusCommPltf_cfg.c **** #ifdef CONFIG_PM_POWER_PROFILE_SUPPORT
 582:C:/Workspace/FW_Platform2_5/trunk/CFG_DishWasher/CFG_Inertia\BusCommPltf_cfg.c **** static void EndOfPowerProfileRequest(void)
 583:C:/Workspace/FW_Platform2_5/trunk/CFG_DishWasher/CFG_Inertia\BusCommPltf_cfg.c **** {
 584:C:/Workspace/FW_Platform2_5/trunk/CFG_DishWasher/CFG_Inertia\BusCommPltf_cfg.c **** 	UnusePowerProfile();
 585:C:/Workspace/FW_Platform2_5/trunk/CFG_DishWasher/CFG_Inertia\BusCommPltf_cfg.c **** }
 586:C:/Workspace/FW_Platform2_5/trunk/CFG_DishWasher/CFG_Inertia\BusCommPltf_cfg.c **** DEF_CSM_EE_CUSTOM_FUNC(EE_PowerProfileReq)
 587:C:/Workspace/FW_Platform2_5/trunk/CFG_DishWasher/CFG_Inertia\BusCommPltf_cfg.c **** {
 588:C:/Workspace/FW_Platform2_5/trunk/CFG_DishWasher/CFG_Inertia\BusCommPltf_cfg.c **** 	PM_PowerProfile_EnergyPhaseType* pEnergyPhase= (PM_PowerProfile_EnergyPhaseType*)NULL;
 589:C:/Workspace/FW_Platform2_5/trunk/CFG_DishWasher/CFG_Inertia\BusCommPltf_cfg.c **** 	IO_MemPtrType pN= (IO_MemPtrType)NULL;
 590:C:/Workspace/FW_Platform2_5/trunk/CFG_DishWasher/CFG_Inertia\BusCommPltf_cfg.c **** 
 591:C:/Workspace/FW_Platform2_5/trunk/CFG_DishWasher/CFG_Inertia\BusCommPltf_cfg.c **** 	/* request requires answer */
 592:C:/Workspace/FW_Platform2_5/trunk/CFG_DishWasher/CFG_Inertia\BusCommPltf_cfg.c **** 	pinfo->option |= PP_SL_RESP_ANSW_OPT;
 593:C:/Workspace/FW_Platform2_5/trunk/CFG_DishWasher/CFG_Inertia\BusCommPltf_cfg.c **** 
 594:C:/Workspace/FW_Platform2_5/trunk/CFG_DishWasher/CFG_Inertia\BusCommPltf_cfg.c **** 	/*get number of power profiles */
 595:C:/Workspace/FW_Platform2_5/trunk/CFG_DishWasher/CFG_Inertia\BusCommPltf_cfg.c **** 	num = PM_PowerProfile_GetPowerProfilesNum();
 596:C:/Workspace/FW_Platform2_5/trunk/CFG_DishWasher/CFG_Inertia\BusCommPltf_cfg.c **** 
 597:C:/Workspace/FW_Platform2_5/trunk/CFG_DishWasher/CFG_Inertia\BusCommPltf_cfg.c **** 	if(!pdata[0])
 598:C:/Workspace/FW_Platform2_5/trunk/CFG_DishWasher/CFG_Inertia\BusCommPltf_cfg.c **** 	{
 599:C:/Workspace/FW_Platform2_5/trunk/CFG_DishWasher/CFG_Inertia\BusCommPltf_cfg.c **** 		/* Answer: total number of power profiles */
 600:C:/Workspace/FW_Platform2_5/trunk/CFG_DishWasher/CFG_Inertia\BusCommPltf_cfg.c **** 		pinfo->address= &num;
 601:C:/Workspace/FW_Platform2_5/trunk/CFG_DishWasher/CFG_Inertia\BusCommPltf_cfg.c **** 		pinfo->len=sizeof(PM_PowerProfile_PowerProfileNumType);
 602:C:/Workspace/FW_Platform2_5/trunk/CFG_DishWasher/CFG_Inertia\BusCommPltf_cfg.c **** 	}
 603:C:/Workspace/FW_Platform2_5/trunk/CFG_DishWasher/CFG_Inertia\BusCommPltf_cfg.c **** 	else
 604:C:/Workspace/FW_Platform2_5/trunk/CFG_DishWasher/CFG_Inertia\BusCommPltf_cfg.c **** 	{
 605:C:/Workspace/FW_Platform2_5/trunk/CFG_DishWasher/CFG_Inertia\BusCommPltf_cfg.c **** 		uint16_t anslen=0;
 606:C:/Workspace/FW_Platform2_5/trunk/CFG_DishWasher/CFG_Inertia\BusCommPltf_cfg.c **** 
 607:C:/Workspace/FW_Platform2_5/trunk/CFG_DishWasher/CFG_Inertia\BusCommPltf_cfg.c **** 		if(num < pdata[0])
 608:C:/Workspace/FW_Platform2_5/trunk/CFG_DishWasher/CFG_Inertia\BusCommPltf_cfg.c **** 		{
 609:C:/Workspace/FW_Platform2_5/trunk/CFG_DishWasher/CFG_Inertia\BusCommPltf_cfg.c **** 			/* not existing such a power profile ID*/
 610:C:/Workspace/FW_Platform2_5/trunk/CFG_DishWasher/CFG_Inertia\BusCommPltf_cfg.c **** 			pinfo->len=1;
 611:C:/Workspace/FW_Platform2_5/trunk/CFG_DishWasher/CFG_Inertia\BusCommPltf_cfg.c **** 			pinfo->address = (IO_MemPtrType)&PowerProfileError;
 612:C:/Workspace/FW_Platform2_5/trunk/CFG_DishWasher/CFG_Inertia\BusCommPltf_cfg.c **** 		}
 613:C:/Workspace/FW_Platform2_5/trunk/CFG_DishWasher/CFG_Inertia\BusCommPltf_cfg.c **** 		else
 614:C:/Workspace/FW_Platform2_5/trunk/CFG_DishWasher/CFG_Inertia\BusCommPltf_cfg.c **** 		{
 615:C:/Workspace/FW_Platform2_5/trunk/CFG_DishWasher/CFG_Inertia\BusCommPltf_cfg.c **** 			UsePowerProfile();
 616:C:/Workspace/FW_Platform2_5/trunk/CFG_DishWasher/CFG_Inertia\BusCommPltf_cfg.c **** 			PM_PowerProfile_GetPowerProfileByProfileID((PM_PowerProfile_ProfileIDType)pdata[0],&pEnergyPhase
 617:C:/Workspace/FW_Platform2_5/trunk/CFG_DishWasher/CFG_Inertia\BusCommPltf_cfg.c **** 			pinfo->address = (IO_MemPtrType)pEnergyPhase;
 618:C:/Workspace/FW_Platform2_5/trunk/CFG_DishWasher/CFG_Inertia\BusCommPltf_cfg.c **** 			pinfo->len=anslen;
 619:C:/Workspace/FW_Platform2_5/trunk/CFG_DishWasher/CFG_Inertia\BusCommPltf_cfg.c **** 			pinfo->callback = (CP_Callback)EndOfPowerProfileRequest;
 620:C:/Workspace/FW_Platform2_5/trunk/CFG_DishWasher/CFG_Inertia\BusCommPltf_cfg.c **** 		}
 621:C:/Workspace/FW_Platform2_5/trunk/CFG_DishWasher/CFG_Inertia\BusCommPltf_cfg.c **** 	}
 622:C:/Workspace/FW_Platform2_5/trunk/CFG_DishWasher/CFG_Inertia\BusCommPltf_cfg.c **** 
 623:C:/Workspace/FW_Platform2_5/trunk/CFG_DishWasher/CFG_Inertia\BusCommPltf_cfg.c **** 	pinfo->error=IO_E_OK;
 624:C:/Workspace/FW_Platform2_5/trunk/CFG_DishWasher/CFG_Inertia\BusCommPltf_cfg.c **** }
 625:C:/Workspace/FW_Platform2_5/trunk/CFG_DishWasher/CFG_Inertia\BusCommPltf_cfg.c **** #endif /* CONFIG_PM_POWER_PROFILE_SUPPORT */
 626:C:/Workspace/FW_Platform2_5/trunk/CFG_DishWasher/CFG_Inertia\BusCommPltf_cfg.c **** 
 627:C:/Workspace/FW_Platform2_5/trunk/CFG_DishWasher/CFG_Inertia\BusCommPltf_cfg.c **** 
 628:C:/Workspace/FW_Platform2_5/trunk/CFG_DishWasher/CFG_Inertia\BusCommPltf_cfg.c **** #if defined(CONFIG_PM_ENERGY_METER_SW)
 629:C:/Workspace/FW_Platform2_5/trunk/CFG_DishWasher/CFG_Inertia\BusCommPltf_cfg.c **** DEF_CSM_EE_CUSTOM_FUNC(EE_ReadPowerMeter)
 630:C:/Workspace/FW_Platform2_5/trunk/CFG_DishWasher/CFG_Inertia\BusCommPltf_cfg.c **** {
 363                             		.loc 1 630 0
 364                             	.LVL39:
 365 0000 6E 7C                   		pushm	r7-r12
 366                             	.LCFI8:
 631:C:/Workspace/FW_Platform2_5/trunk/CFG_DishWasher/CFG_Inertia\BusCommPltf_cfg.c **** 	uint16_t instantP;
 632:C:/Workspace/FW_Platform2_5/trunk/CFG_DishWasher/CFG_Inertia\BusCommPltf_cfg.c **** 	uint32_t avgEnergyWh, elapsedTime;
 633:C:/Workspace/FW_Platform2_5/trunk/CFG_DishWasher/CFG_Inertia\BusCommPltf_cfg.c **** 	uint8_t err=0;
 634:C:/Workspace/FW_Platform2_5/trunk/CFG_DishWasher/CFG_Inertia\BusCommPltf_cfg.c **** 
 635:C:/Workspace/FW_Platform2_5/trunk/CFG_DishWasher/CFG_Inertia\BusCommPltf_cfg.c **** 	/* zero fill */
 636:C:/Workspace/FW_Platform2_5/trunk/CFG_DishWasher/CFG_Inertia\BusCommPltf_cfg.c **** 	memset(PowerMeterBuffer, 0, sizeof(PowerMeterBuffer));
 367                             		.loc 1 636 0
 368 0002 FB 72 00 00 00 00       		mov.L	#_PowerMeterBuffer, r7
 630:C:/Workspace/FW_Platform2_5/trunk/CFG_DishWasher/CFG_Inertia\BusCommPltf_cfg.c **** {
 369                             		.loc 1 630 0
 370 0008 60 C0                   		sub	#12, r0
 371                             	.LCFI9:
 630:C:/Workspace/FW_Platform2_5/trunk/CFG_DishWasher/CFG_Inertia\BusCommPltf_cfg.c **** {
 372                             		.loc 1 630 0
 373 000a EF 4A                   		mov.L	r4, r10
 374                             		.loc 1 636 0
 375 000c EF 71                   		mov.L	r7, r1
 376                             	.LVL40:
 377 000e 66 63                   		mov.L	#6, r3
 378                             	.LVL41:
 379 0010 66 02                   		mov	#0, r2
 380                             	.LVL42:
 381 0012 7F 88                   		sstr.b
 637:C:/Workspace/FW_Platform2_5/trunk/CFG_DishWasher/CFG_Inertia\BusCommPltf_cfg.c **** 
 638:C:/Workspace/FW_Platform2_5/trunk/CFG_DishWasher/CFG_Inertia\BusCommPltf_cfg.c **** 	pinfo->error = (IO_ErrorType)IO_E_UNEXPECTED_CONDITION;
 382                             		.loc 1 638 0
 383 0014 3C 46 17                		mov.B	#23, 6[r4]
 639:C:/Workspace/FW_Platform2_5/trunk/CFG_DishWasher/CFG_Inertia\BusCommPltf_cfg.c **** 
 640:C:/Workspace/FW_Platform2_5/trunk/CFG_DishWasher/CFG_Inertia\BusCommPltf_cfg.c **** 	if(EMS_E_OK != PowerMeter_GetInstant_P(&instantP))
 384                             		.loc 1 640 0
 385 0017 71 01 08                		add	#8, r0, r1
 386 001a 05 00 00 00             		bsr	_PowerMeter_GetInstant_P
 387                             	.LVL43:
 388 001e EF 1B                   		mov.L	r1, r11
 389                             	.LVL44:
 641:C:/Workspace/FW_Platform2_5/trunk/CFG_DishWasher/CFG_Inertia\BusCommPltf_cfg.c **** 	{
 642:C:/Workspace/FW_Platform2_5/trunk/CFG_DishWasher/CFG_Inertia\BusCommPltf_cfg.c **** 		err+=1;
 643:C:/Workspace/FW_Platform2_5/trunk/CFG_DishWasher/CFG_Inertia\BusCommPltf_cfg.c **** 	}
 644:C:/Workspace/FW_Platform2_5/trunk/CFG_DishWasher/CFG_Inertia\BusCommPltf_cfg.c **** 
 645:C:/Workspace/FW_Platform2_5/trunk/CFG_DishWasher/CFG_Inertia\BusCommPltf_cfg.c **** 	if(EMS_E_OK != PowerMeter_GetAvgSinceStart_E_Wh(&avgEnergyWh, &elapsedTime))
 390                             		.loc 1 645 0
 391 0020 EF 02                   		mov.L	r0, r2
 392 0022 71 01 04                		add	#4, r0, r1
 393                             	.LVL45:
 394 0025 05 00 00 00             		bsr	_PowerMeter_GetAvgSinceStart_E_Wh
 395                             	.LVL46:
 396 0029 61 01                   		cmp	#0, r1
 397 002b 21 39                   		bne	.L39
 646:C:/Workspace/FW_Platform2_5/trunk/CFG_DishWasher/CFG_Inertia\BusCommPltf_cfg.c **** 	{
 647:C:/Workspace/FW_Platform2_5/trunk/CFG_DishWasher/CFG_Inertia\BusCommPltf_cfg.c **** 		err+=1;
 648:C:/Workspace/FW_Platform2_5/trunk/CFG_DishWasher/CFG_Inertia\BusCommPltf_cfg.c **** 	}
 649:C:/Workspace/FW_Platform2_5/trunk/CFG_DishWasher/CFG_Inertia\BusCommPltf_cfg.c **** 
 650:C:/Workspace/FW_Platform2_5/trunk/CFG_DishWasher/CFG_Inertia\BusCommPltf_cfg.c **** 	if(0 == err)
 398                             		.loc 1 650 0
 399 002d 61 0B                   		cmp	#0, r11
 400 002f 21 35                   		bne	.L39
 401                             	.LVL47:
 651:C:/Workspace/FW_Platform2_5/trunk/CFG_DishWasher/CFG_Inertia\BusCommPltf_cfg.c **** 	{
 652:C:/Workspace/FW_Platform2_5/trunk/CFG_DishWasher/CFG_Inertia\BusCommPltf_cfg.c **** 		/*TODO: prefer Endian macro (instant P is BE) */
 653:C:/Workspace/FW_Platform2_5/trunk/CFG_DishWasher/CFG_Inertia\BusCommPltf_cfg.c **** 		PowerMeterBuffer[0]=(uint8_t)(instantP>>8);
 654:C:/Workspace/FW_Platform2_5/trunk/CFG_DishWasher/CFG_Inertia\BusCommPltf_cfg.c **** 		PowerMeterBuffer[1]=(uint8_t)(instantP&0xFF);
 655:C:/Workspace/FW_Platform2_5/trunk/CFG_DishWasher/CFG_Inertia\BusCommPltf_cfg.c **** 		/*TODO: prefer Endian macro (avg energy P is BE) */
 656:C:/Workspace/FW_Platform2_5/trunk/CFG_DishWasher/CFG_Inertia\BusCommPltf_cfg.c **** 		PowerMeterBuffer[2]=(uint8_t)(avgEnergyWh>>24);
 402                             		.loc 1 656 0
 403 0031 ED 0E 01                		mov.L	4[r0], r14
 404                             	.LVL48:
 653:C:/Workspace/FW_Platform2_5/trunk/CFG_DishWasher/CFG_Inertia\BusCommPltf_cfg.c **** 		PowerMeterBuffer[0]=(uint8_t)(instantP>>8);
 405                             		.loc 1 653 0
 406 0034 CD 0C 08                		mov.B	8[r0], r12
 407                             		.loc 1 656 0
 408 0037 FD 98 E4                		shlr	#24, r14, r4
 409 003a 80 F4                   		mov.B	r4, 2[r7]
 653:C:/Workspace/FW_Platform2_5/trunk/CFG_DishWasher/CFG_Inertia\BusCommPltf_cfg.c **** 		PowerMeterBuffer[0]=(uint8_t)(instantP>>8);
 410                             		.loc 1 653 0
 411 003c C3 7C                   		mov.B	r12, [r7]
 657:C:/Workspace/FW_Platform2_5/trunk/CFG_DishWasher/CFG_Inertia\BusCommPltf_cfg.c **** 		PowerMeterBuffer[3]=(uint8_t)(avgEnergyWh>>16);
 412                             		.loc 1 657 0
 413 003e FD 90 E4                		shlr	#16, r14, r4
 414                             	.LVL49:
 654:C:/Workspace/FW_Platform2_5/trunk/CFG_DishWasher/CFG_Inertia\BusCommPltf_cfg.c **** 		PowerMeterBuffer[1]=(uint8_t)(instantP&0xFF);
 415                             		.loc 1 654 0
 416 0041 CD 0C 09                		mov.B	9[r0], r12
 417                             		.loc 1 657 0
 418 0044 80 FC                   		mov.B	r4, 3[r7]
 658:C:/Workspace/FW_Platform2_5/trunk/CFG_DishWasher/CFG_Inertia\BusCommPltf_cfg.c **** 		PowerMeterBuffer[4]=(uint8_t)(avgEnergyWh>>8);
 419                             		.loc 1 658 0
 420 0046 FD 88 E4                		shlr	#8, r14, r4
 421 0049 81 74                   		mov.B	r4, 4[r7]
 659:C:/Workspace/FW_Platform2_5/trunk/CFG_DishWasher/CFG_Inertia\BusCommPltf_cfg.c **** 		PowerMeterBuffer[5]=(uint8_t)(avgEnergyWh&0xFF);
 422                             		.loc 1 659 0
 423 004b C7 7E 05                		mov.B	r14, 5[r7]
 654:C:/Workspace/FW_Platform2_5/trunk/CFG_DishWasher/CFG_Inertia\BusCommPltf_cfg.c **** 		PowerMeterBuffer[1]=(uint8_t)(instantP&0xFF);
 424                             		.loc 1 654 0
 425 004e C7 7C 01                		mov.B	r12, 1[r7]
 660:C:/Workspace/FW_Platform2_5/trunk/CFG_DishWasher/CFG_Inertia\BusCommPltf_cfg.c **** 
 661:C:/Workspace/FW_Platform2_5/trunk/CFG_DishWasher/CFG_Inertia\BusCommPltf_cfg.c **** 		pinfo->len = sizeof(PowerMeterBuffer);
 662:C:/Workspace/FW_Platform2_5/trunk/CFG_DishWasher/CFG_Inertia\BusCommPltf_cfg.c **** 		pinfo->address= (IO_MemPtrType)PowerMeterBuffer;
 426                             		.loc 1 662 0
 427 0051 E3 A7                   		mov.L	r7, [r10]
 663:C:/Workspace/FW_Platform2_5/trunk/CFG_DishWasher/CFG_Inertia\BusCommPltf_cfg.c **** 		pinfo->error = (IO_ErrorType)IO_E_OK;
 664:C:/Workspace/FW_Platform2_5/trunk/CFG_DishWasher/CFG_Inertia\BusCommPltf_cfg.c **** 		pinfo->option|=PP_SL_RESP_ANSW_OPT;
 428                             		.loc 1 664 0
 429 0053 CD A7 07                		mov.B	7[r10], r7
 661:C:/Workspace/FW_Platform2_5/trunk/CFG_DishWasher/CFG_Inertia\BusCommPltf_cfg.c **** 		pinfo->len = sizeof(PowerMeterBuffer);
 430                             		.loc 1 661 0
 431 0056 F9 A5 02 06             		mov.W	#6, 4[r10]
 432                             		.loc 1 664 0
 433 005a 65 17                   		or	#1, r7
 663:C:/Workspace/FW_Platform2_5/trunk/CFG_DishWasher/CFG_Inertia\BusCommPltf_cfg.c **** 		pinfo->error = (IO_ErrorType)IO_E_OK;
 434                             		.loc 1 663 0
 435 005c C7 AB 06                		mov.B	r11, 6[r10]
 436                             		.loc 1 664 0
 437 005f C7 A7 07                		mov.B	r7, 7[r10]
 438 0062 2E 06                   		bra	.L38
 439                             	.LVL50:
 440                             	.L39:
 665:C:/Workspace/FW_Platform2_5/trunk/CFG_DishWasher/CFG_Inertia\BusCommPltf_cfg.c **** 	}
 666:C:/Workspace/FW_Platform2_5/trunk/CFG_DishWasher/CFG_Inertia\BusCommPltf_cfg.c **** 	else
 667:C:/Workspace/FW_Platform2_5/trunk/CFG_DishWasher/CFG_Inertia\BusCommPltf_cfg.c **** 	{
 668:C:/Workspace/FW_Platform2_5/trunk/CFG_DishWasher/CFG_Inertia\BusCommPltf_cfg.c **** 		pinfo->error = (IO_ErrorType)IO_E_UNEXPECTED_CONDITION;
 441                             		.loc 1 668 0
 442 0064 F9 A4 06 17             		mov.B	#23, 6[r10]
 443                             	.LVL51:
 444                             		.balign 2,3,2
 445                             	.L38:
 669:C:/Workspace/FW_Platform2_5/trunk/CFG_DishWasher/CFG_Inertia\BusCommPltf_cfg.c **** 	}
 670:C:/Workspace/FW_Platform2_5/trunk/CFG_DishWasher/CFG_Inertia\BusCommPltf_cfg.c **** }
 446                             		.loc 1 670 0
 447 0068 3F 7C 09                		rtsd	#36, r7-r12
 448                             	.LFE15:
 450 006b 03                      		.section	.text.CMS_EE_FUNC_EE_SetLoads,"ax",@progbits
 451                             		.global	_CMS_EE_FUNC_EE_SetLoads
 453                             	_CMS_EE_FUNC_EE_SetLoads:
 454                             	.LFB16:
 671:C:/Workspace/FW_Platform2_5/trunk/CFG_DishWasher/CFG_Inertia\BusCommPltf_cfg.c **** #endif /* defined(CONFIG_PM_ENERGY_METER_SW)*/
 672:C:/Workspace/FW_Platform2_5/trunk/CFG_DishWasher/CFG_Inertia\BusCommPltf_cfg.c **** 
 673:C:/Workspace/FW_Platform2_5/trunk/CFG_DishWasher/CFG_Inertia\BusCommPltf_cfg.c **** /*
 674:C:/Workspace/FW_Platform2_5/trunk/CFG_DishWasher/CFG_Inertia\BusCommPltf_cfg.c **** uint8_t GetExpansionSetInfoBuffer_Index( uint8_t *DataBuffer)
 675:C:/Workspace/FW_Platform2_5/trunk/CFG_DishWasher/CFG_Inertia\BusCommPltf_cfg.c **** {
 676:C:/Workspace/FW_Platform2_5/trunk/CFG_DishWasher/CFG_Inertia\BusCommPltf_cfg.c ****   uint8_t index = PP_S_NUM_REQ;
 677:C:/Workspace/FW_Platform2_5/trunk/CFG_DishWasher/CFG_Inertia\BusCommPltf_cfg.c ****   
 678:C:/Workspace/FW_Platform2_5/trunk/CFG_DishWasher/CFG_Inertia\BusCommPltf_cfg.c ****   index = PP_S_EXP_WCMD_REQ;
 679:C:/Workspace/FW_Platform2_5/trunk/CFG_DishWasher/CFG_Inertia\BusCommPltf_cfg.c ****   return index;
 680:C:/Workspace/FW_Platform2_5/trunk/CFG_DishWasher/CFG_Inertia\BusCommPltf_cfg.c **** }
 681:C:/Workspace/FW_Platform2_5/trunk/CFG_DishWasher/CFG_Inertia\BusCommPltf_cfg.c **** */
 682:C:/Workspace/FW_Platform2_5/trunk/CFG_DishWasher/CFG_Inertia\BusCommPltf_cfg.c **** 
 683:C:/Workspace/FW_Platform2_5/trunk/CFG_DishWasher/CFG_Inertia\BusCommPltf_cfg.c **** /**
 684:C:/Workspace/FW_Platform2_5/trunk/CFG_DishWasher/CFG_Inertia\BusCommPltf_cfg.c **** Extended SetLoad Request
 685:C:/Workspace/FW_Platform2_5/trunk/CFG_DishWasher/CFG_Inertia\BusCommPltf_cfg.c **** The request will end successfully, Platform Protocol PP_ACK will be sent, if:
 686:C:/Workspace/FW_Platform2_5/trunk/CFG_DishWasher/CFG_Inertia\BusCommPltf_cfg.c **** \li __GENERICIOMANAGER_H is defined
 687:C:/Workspace/FW_Platform2_5/trunk/CFG_DishWasher/CFG_Inertia\BusCommPltf_cfg.c **** \li current system mode is SYSTEM_NORMAL_MODE
 688:C:/Workspace/FW_Platform2_5/trunk/CFG_DishWasher/CFG_Inertia\BusCommPltf_cfg.c **** \li no error on queue at low level.
 689:C:/Workspace/FW_Platform2_5/trunk/CFG_DishWasher/CFG_Inertia\BusCommPltf_cfg.c **** */
 690:C:/Workspace/FW_Platform2_5/trunk/CFG_DishWasher/CFG_Inertia\BusCommPltf_cfg.c **** DEF_CSM_EE_CUSTOM_FUNC(EE_SetLoads)
 691:C:/Workspace/FW_Platform2_5/trunk/CFG_DishWasher/CFG_Inertia\BusCommPltf_cfg.c **** {
 455                             		.loc 1 691 0
 456                             	.LVL52:
 457 0000 6E 7B                   		pushm	r7-r11
 458                             	.LCFI10:
 459                             		.loc 1 691 0
 460 0002 EF 2A                   		mov.L	r2, r10
 461 0004 CF 3B                   		mov.B	r3, r11
 462 0006 EF 47                   		mov.L	r4, r7
 692:C:/Workspace/FW_Platform2_5/trunk/CFG_DishWasher/CFG_Inertia\BusCommPltf_cfg.c ****     (void) ch;
 693:C:/Workspace/FW_Platform2_5/trunk/CFG_DishWasher/CFG_Inertia\BusCommPltf_cfg.c ****     
 694:C:/Workspace/FW_Platform2_5/trunk/CFG_DishWasher/CFG_Inertia\BusCommPltf_cfg.c **** #ifdef __GENERICIOMANAGER_H     
 695:C:/Workspace/FW_Platform2_5/trunk/CFG_DishWasher/CFG_Inertia\BusCommPltf_cfg.c ****     
 696:C:/Workspace/FW_Platform2_5/trunk/CFG_DishWasher/CFG_Inertia\BusCommPltf_cfg.c **** 	if (LIB_Reset_GetSystemMode() == SYSTEM_NORMAL_MODE)
 463                             		.loc 1 696 0
 464 0008 05 00 00 00             		bsr	_LIB_Reset_GetSystemMode
 465                             	.LVL53:
 466 000c 5B 11                   		movu.B	r1, r1
 467 000e 61 11                   		cmp	#1, r1
 468 0010 21 14                   		bne	.L42
 697:C:/Workspace/FW_Platform2_5/trunk/CFG_DishWasher/CFG_Inertia\BusCommPltf_cfg.c **** 	{
 698:C:/Workspace/FW_Platform2_5/trunk/CFG_DishWasher/CFG_Inertia\BusCommPltf_cfg.c **** 		if (SAFETY_CHECK_ISDISABLED())
 699:C:/Workspace/FW_Platform2_5/trunk/CFG_DishWasher/CFG_Inertia\BusCommPltf_cfg.c **** 		{
 700:C:/Workspace/FW_Platform2_5/trunk/CFG_DishWasher/CFG_Inertia\BusCommPltf_cfg.c **** 			if( Main_RemoteLoadsControl_PutCommand(REMOTE_LOADS_CONTROL_EXTENDED,len, pdata))
 469                             		.loc 1 700 0
 470 0012 66 21                   		mov.L	#2, r1
 471 0014 CF B2                   		mov.B	r11, r2
 472 0016 EF A3                   		mov.L	r10, r3
 473 0018 05 00 00 00             		bsr	_Main_RemoteLoadsControl_PutCommand
 474                             	.LVL54:
 475 001c 61 01                   		cmp	#0, r1
 476 001e 20 06                   		beq	.L42
 701:C:/Workspace/FW_Platform2_5/trunk/CFG_DishWasher/CFG_Inertia\BusCommPltf_cfg.c **** 			{
 702:C:/Workspace/FW_Platform2_5/trunk/CFG_DishWasher/CFG_Inertia\BusCommPltf_cfg.c **** 			    pinfo->error = (IO_ErrorType)IO_E_INVALID_VALUE;
 477                             		.loc 1 702 0
 478 0020 3C 76 13                		mov.B	#19, 6[r7]
 479 0023 03                      		.balign 2,3,2
 480                             	.L42:
 703:C:/Workspace/FW_Platform2_5/trunk/CFG_DishWasher/CFG_Inertia\BusCommPltf_cfg.c **** 			}
 704:C:/Workspace/FW_Platform2_5/trunk/CFG_DishWasher/CFG_Inertia\BusCommPltf_cfg.c **** 		}
 705:C:/Workspace/FW_Platform2_5/trunk/CFG_DishWasher/CFG_Inertia\BusCommPltf_cfg.c **** 		else
 706:C:/Workspace/FW_Platform2_5/trunk/CFG_DishWasher/CFG_Inertia\BusCommPltf_cfg.c **** 		{
 707:C:/Workspace/FW_Platform2_5/trunk/CFG_DishWasher/CFG_Inertia\BusCommPltf_cfg.c **** 		    pinfo->error = (IO_ErrorType)IO_E_INVALID_VALUE;
 708:C:/Workspace/FW_Platform2_5/trunk/CFG_DishWasher/CFG_Inertia\BusCommPltf_cfg.c **** 		}
 709:C:/Workspace/FW_Platform2_5/trunk/CFG_DishWasher/CFG_Inertia\BusCommPltf_cfg.c **** 	}	
 710:C:/Workspace/FW_Platform2_5/trunk/CFG_DishWasher/CFG_Inertia\BusCommPltf_cfg.c **** 
 711:C:/Workspace/FW_Platform2_5/trunk/CFG_DishWasher/CFG_Inertia\BusCommPltf_cfg.c **** #else
 712:C:/Workspace/FW_Platform2_5/trunk/CFG_DishWasher/CFG_Inertia\BusCommPltf_cfg.c **** 
 713:C:/Workspace/FW_Platform2_5/trunk/CFG_DishWasher/CFG_Inertia\BusCommPltf_cfg.c **** 	pinfo->error =(IO_ErrorType)IO_E_INVALID_VALUE;
 714:C:/Workspace/FW_Platform2_5/trunk/CFG_DishWasher/CFG_Inertia\BusCommPltf_cfg.c **** 
 715:C:/Workspace/FW_Platform2_5/trunk/CFG_DishWasher/CFG_Inertia\BusCommPltf_cfg.c **** #endif /*__GENERICIOMANAGER_H*/
 716:C:/Workspace/FW_Platform2_5/trunk/CFG_DishWasher/CFG_Inertia\BusCommPltf_cfg.c **** }
 481                             		.loc 1 716 0
 482 0024 3F 7B 05                		rtsd	#20, r7-r11
 483                             	.LFE16:
 485 0027 03                      		.section	.text.CMS_EE_FUNC_EE_SystemMode,"ax",@progbits
 486                             		.global	_CMS_EE_FUNC_EE_SystemMode
 488                             	_CMS_EE_FUNC_EE_SystemMode:
 489                             	.LFB18:
 717:C:/Workspace/FW_Platform2_5/trunk/CFG_DishWasher/CFG_Inertia\BusCommPltf_cfg.c **** 
 718:C:/Workspace/FW_Platform2_5/trunk/CFG_DishWasher/CFG_Inertia\BusCommPltf_cfg.c **** /**
 719:C:/Workspace/FW_Platform2_5/trunk/CFG_DishWasher/CFG_Inertia\BusCommPltf_cfg.c **** Setting Data block Request
 720:C:/Workspace/FW_Platform2_5/trunk/CFG_DishWasher/CFG_Inertia\BusCommPltf_cfg.c **** The request will end successfully, Platform Protocol packet with the reqested data will be sent, 
 721:C:/Workspace/FW_Platform2_5/trunk/CFG_DishWasher/CFG_Inertia\BusCommPltf_cfg.c **** if data exist (no error is returned  by BasicLoader)
 722:C:/Workspace/FW_Platform2_5/trunk/CFG_DishWasher/CFG_Inertia\BusCommPltf_cfg.c **** */
 723:C:/Workspace/FW_Platform2_5/trunk/CFG_DishWasher/CFG_Inertia\BusCommPltf_cfg.c **** DEF_CSM_EE_CUSTOM_FUNC(EE_SettingDataBlock)
 724:C:/Workspace/FW_Platform2_5/trunk/CFG_DishWasher/CFG_Inertia\BusCommPltf_cfg.c **** {
 725:C:/Workspace/FW_Platform2_5/trunk/CFG_DishWasher/CFG_Inertia\BusCommPltf_cfg.c ****     Loader_Struct Data;
 726:C:/Workspace/FW_Platform2_5/trunk/CFG_DishWasher/CFG_Inertia\BusCommPltf_cfg.c ****     pinfo->error = (IO_ErrorType)IO_E_UNEXPECTED_CONDITION;
 727:C:/Workspace/FW_Platform2_5/trunk/CFG_DishWasher/CFG_Inertia\BusCommPltf_cfg.c ****     
 728:C:/Workspace/FW_Platform2_5/trunk/CFG_DishWasher/CFG_Inertia\BusCommPltf_cfg.c ****     (void) ch;    
 729:C:/Workspace/FW_Platform2_5/trunk/CFG_DishWasher/CFG_Inertia\BusCommPltf_cfg.c ****     (void) len;    
 730:C:/Workspace/FW_Platform2_5/trunk/CFG_DishWasher/CFG_Inertia\BusCommPltf_cfg.c ****     
 731:C:/Workspace/FW_Platform2_5/trunk/CFG_DishWasher/CFG_Inertia\BusCommPltf_cfg.c ****     
 732:C:/Workspace/FW_Platform2_5/trunk/CFG_DishWasher/CFG_Inertia\BusCommPltf_cfg.c ****     if(BSLDR_OK == BasicLoader(pdata[0], pdata[1], &Data))
 733:C:/Workspace/FW_Platform2_5/trunk/CFG_DishWasher/CFG_Inertia\BusCommPltf_cfg.c ****     {
 734:C:/Workspace/FW_Platform2_5/trunk/CFG_DishWasher/CFG_Inertia\BusCommPltf_cfg.c ****         pinfo->len = (uint16_t) (Data.DataLenght*2);
 735:C:/Workspace/FW_Platform2_5/trunk/CFG_DishWasher/CFG_Inertia\BusCommPltf_cfg.c **** 		pinfo->address= (IO_MemPtrType)Data.Data;
 736:C:/Workspace/FW_Platform2_5/trunk/CFG_DishWasher/CFG_Inertia\BusCommPltf_cfg.c ****         pinfo->error = (IO_ErrorType)IO_E_OK;
 737:C:/Workspace/FW_Platform2_5/trunk/CFG_DishWasher/CFG_Inertia\BusCommPltf_cfg.c **** 		pinfo->option|=PP_SL_RESP_ANSW_OPT;
 738:C:/Workspace/FW_Platform2_5/trunk/CFG_DishWasher/CFG_Inertia\BusCommPltf_cfg.c ****     }
 739:C:/Workspace/FW_Platform2_5/trunk/CFG_DishWasher/CFG_Inertia\BusCommPltf_cfg.c **** }
 740:C:/Workspace/FW_Platform2_5/trunk/CFG_DishWasher/CFG_Inertia\BusCommPltf_cfg.c **** 
 741:C:/Workspace/FW_Platform2_5/trunk/CFG_DishWasher/CFG_Inertia\BusCommPltf_cfg.c **** 
 742:C:/Workspace/FW_Platform2_5/trunk/CFG_DishWasher/CFG_Inertia\BusCommPltf_cfg.c **** /**
 743:C:/Workspace/FW_Platform2_5/trunk/CFG_DishWasher/CFG_Inertia\BusCommPltf_cfg.c **** System mode Request
 744:C:/Workspace/FW_Platform2_5/trunk/CFG_DishWasher/CFG_Inertia\BusCommPltf_cfg.c **** The request will end successfully, Platform Protocol PP_ACK will be sent if,
 745:C:/Workspace/FW_Platform2_5/trunk/CFG_DishWasher/CFG_Inertia\BusCommPltf_cfg.c **** system mode is recognized.
 746:C:/Workspace/FW_Platform2_5/trunk/CFG_DishWasher/CFG_Inertia\BusCommPltf_cfg.c **** */
 747:C:/Workspace/FW_Platform2_5/trunk/CFG_DishWasher/CFG_Inertia\BusCommPltf_cfg.c **** DEF_CSM_EE_CUSTOM_FUNC(EE_SystemMode)
 748:C:/Workspace/FW_Platform2_5/trunk/CFG_DishWasher/CFG_Inertia\BusCommPltf_cfg.c **** {
 490                             		.loc 1 748 0
 749:C:/Workspace/FW_Platform2_5/trunk/CFG_DishWasher/CFG_Inertia\BusCommPltf_cfg.c ****     (void) ch;    
 750:C:/Workspace/FW_Platform2_5/trunk/CFG_DishWasher/CFG_Inertia\BusCommPltf_cfg.c ****     
 751:C:/Workspace/FW_Platform2_5/trunk/CFG_DishWasher/CFG_Inertia\BusCommPltf_cfg.c ****     pinfo->error = (IO_ErrorType)IO_E_OK;
 752:C:/Workspace/FW_Platform2_5/trunk/CFG_DishWasher/CFG_Inertia\BusCommPltf_cfg.c ****     switch(len)
 491                             		.loc 1 752 0
 492 0000 5B 33                   		movu.B	r3, r3
 748:C:/Workspace/FW_Platform2_5/trunk/CFG_DishWasher/CFG_Inertia\BusCommPltf_cfg.c **** {
 493                             		.loc 1 748 0
 494 0002 6E 7B                   		pushm	r7-r11
 495                             	.LCFI11:
 751:C:/Workspace/FW_Platform2_5/trunk/CFG_DishWasher/CFG_Inertia\BusCommPltf_cfg.c ****     pinfo->error = (IO_ErrorType)IO_E_OK;
 496                             		.loc 1 751 0
 497 0004 3C 46 00                		mov.B	#0, 6[r4]
 498                             		.loc 1 752 0
 499 0007 61 13                   		cmp	#1, r3
 748:C:/Workspace/FW_Platform2_5/trunk/CFG_DishWasher/CFG_Inertia\BusCommPltf_cfg.c **** {
 500                             		.loc 1 748 0
 501 0009 EF 27                   		mov.L	r2, r7
 502 000b EF 4A                   		mov.L	r4, r10
 503                             		.loc 1 752 0
 504 000d 20 09                   		beq	.L52
 505 000f 61 23                   		cmp	#2, r3
 506 0011 3B D3 00                		bne	.L50
 507 0014 2E 26                   		bra	.L53
 508                             	.L52:
 753:C:/Workspace/FW_Platform2_5/trunk/CFG_DishWasher/CFG_Inertia\BusCommPltf_cfg.c **** 	{
 754:C:/Workspace/FW_Platform2_5/trunk/CFG_DishWasher/CFG_Inertia\BusCommPltf_cfg.c **** 		case 1:
 755:C:/Workspace/FW_Platform2_5/trunk/CFG_DishWasher/CFG_Inertia\BusCommPltf_cfg.c **** 		    switch(pdata[0]) 
 509                             		.loc 1 755 0
 510 0016 58 2A                   		movu.B	[r2], r10
 511 0018 61 8A                   		cmp	#8, r10
 512 001a 3A CA 00                		beq	.L50
 756:C:/Workspace/FW_Platform2_5/trunk/CFG_DishWasher/CFG_Inertia\BusCommPltf_cfg.c **** 		    {
 757:C:/Workspace/FW_Platform2_5/trunk/CFG_DishWasher/CFG_Inertia\BusCommPltf_cfg.c **** 		      case SYSTEM_BOOT_MODE:
 758:C:/Workspace/FW_Platform2_5/trunk/CFG_DishWasher/CFG_Inertia\BusCommPltf_cfg.c **** 		        /* do nothing */
 759:C:/Workspace/FW_Platform2_5/trunk/CFG_DishWasher/CFG_Inertia\BusCommPltf_cfg.c **** 		      break;
 760:C:/Workspace/FW_Platform2_5/trunk/CFG_DishWasher/CFG_Inertia\BusCommPltf_cfg.c **** 		      default:
 761:C:/Workspace/FW_Platform2_5/trunk/CFG_DishWasher/CFG_Inertia\BusCommPltf_cfg.c **** 		      {
 762:C:/Workspace/FW_Platform2_5/trunk/CFG_DishWasher/CFG_Inertia\BusCommPltf_cfg.c ****                   if (LIB_Reset_IsTimeoutSet() && (pdata[0] == SYSTEM_NORMAL_MODE))
 513                             		.loc 1 762 0
 514 001d 05 00 00 00             		bsr	_LIB_Reset_IsTimeoutSet
 515 0021 61 01                   		cmp	#0, r1
 516 0023 20 0F                   		beq	.L55
 517                             		.loc 1 762 0 is_stmt 0 discriminator 1
 518 0025 58 7A                   		movu.B	[r7], r10
 519 0027 61 1A                   		cmp	#1, r10
 520 0029 21 09                   		bne	.L55
 763:C:/Workspace/FW_Platform2_5/trunk/CFG_DishWasher/CFG_Inertia\BusCommPltf_cfg.c ****                   {
 764:C:/Workspace/FW_Platform2_5/trunk/CFG_DishWasher/CFG_Inertia\BusCommPltf_cfg.c ****                   	LIB_Reset_SetResetTimeout(100);
 521                             		.loc 1 764 0 is_stmt 1
 522 002b 75 41 64                		mov.L	#0x64, r1
 523 002e 05 00 00 00             		bsr	_LIB_Reset_SetResetTimeout
 524                             		.balign 2,3,5
 525                             	.L55:
 765:C:/Workspace/FW_Platform2_5/trunk/CFG_DishWasher/CFG_Inertia\BusCommPltf_cfg.c ****                   }
 766:C:/Workspace/FW_Platform2_5/trunk/CFG_DishWasher/CFG_Inertia\BusCommPltf_cfg.c ****                   LIB_Reset_SetNewSystemMode((SysMode_Type)pdata[0]);
 526                             		.loc 1 766 0
 527 0032 CC 71                   		mov.B	[r7], r1
 767:C:/Workspace/FW_Platform2_5/trunk/CFG_DishWasher/CFG_Inertia\BusCommPltf_cfg.c **** 		      }
 768:C:/Workspace/FW_Platform2_5/trunk/CFG_DishWasher/CFG_Inertia\BusCommPltf_cfg.c **** 		    }
 769:C:/Workspace/FW_Platform2_5/trunk/CFG_DishWasher/CFG_Inertia\BusCommPltf_cfg.c **** 			
 770:C:/Workspace/FW_Platform2_5/trunk/CFG_DishWasher/CFG_Inertia\BusCommPltf_cfg.c **** 			break;
 771:C:/Workspace/FW_Platform2_5/trunk/CFG_DishWasher/CFG_Inertia\BusCommPltf_cfg.c **** 		case 2:
 772:C:/Workspace/FW_Platform2_5/trunk/CFG_DishWasher/CFG_Inertia\BusCommPltf_cfg.c **** 			switch(LIB_Reset_GetSystemMode())
 773:C:/Workspace/FW_Platform2_5/trunk/CFG_DishWasher/CFG_Inertia\BusCommPltf_cfg.c ****             {
 774:C:/Workspace/FW_Platform2_5/trunk/CFG_DishWasher/CFG_Inertia\BusCommPltf_cfg.c ****                 case SYSTEM_NORMAL_MODE:
 775:C:/Workspace/FW_Platform2_5/trunk/CFG_DishWasher/CFG_Inertia\BusCommPltf_cfg.c ****                     switch(pdata[0])
 776:C:/Workspace/FW_Platform2_5/trunk/CFG_DishWasher/CFG_Inertia\BusCommPltf_cfg.c ****                     {
 777:C:/Workspace/FW_Platform2_5/trunk/CFG_DishWasher/CFG_Inertia\BusCommPltf_cfg.c ****                         case SYSTEM_NORMAL_MODE:
 778:C:/Workspace/FW_Platform2_5/trunk/CFG_DishWasher/CFG_Inertia\BusCommPltf_cfg.c ****                         {
 779:C:/Workspace/FW_Platform2_5/trunk/CFG_DishWasher/CFG_Inertia\BusCommPltf_cfg.c ****                         	if (pdata[1] == SYSTEM_NORMAL_NOCHK_STEP1)
 780:C:/Workspace/FW_Platform2_5/trunk/CFG_DishWasher/CFG_Inertia\BusCommPltf_cfg.c ****                         	{
 781:C:/Workspace/FW_Platform2_5/trunk/CFG_DishWasher/CFG_Inertia\BusCommPltf_cfg.c **** 								LIB_Reset_SetTimedRequest(( SYSTEM_NORMAL_MODE << 8) | SYSTEM_NORMAL_NOCHK_STEP1, RESET_TIM
 782:C:/Workspace/FW_Platform2_5/trunk/CFG_DishWasher/CFG_Inertia\BusCommPltf_cfg.c ****                         	}
 783:C:/Workspace/FW_Platform2_5/trunk/CFG_DishWasher/CFG_Inertia\BusCommPltf_cfg.c ****                         	else if (pdata[1] == SYSTEM_NORMAL_NOCHK_STEP2)
 784:C:/Workspace/FW_Platform2_5/trunk/CFG_DishWasher/CFG_Inertia\BusCommPltf_cfg.c ****                         	{
 785:C:/Workspace/FW_Platform2_5/trunk/CFG_DishWasher/CFG_Inertia\BusCommPltf_cfg.c ****                         		if (LIB_Reset_ChkTimedRequest(( SYSTEM_NORMAL_MODE << 8) | SYSTEM_NORMAL_
 786:C:/Workspace/FW_Platform2_5/trunk/CFG_DishWasher/CFG_Inertia\BusCommPltf_cfg.c ****                         		{
 787:C:/Workspace/FW_Platform2_5/trunk/CFG_DishWasher/CFG_Inertia\BusCommPltf_cfg.c ****                         			SAFETY_CHECK_DISABLE();
 788:C:/Workspace/FW_Platform2_5/trunk/CFG_DishWasher/CFG_Inertia\BusCommPltf_cfg.c ****                         			LIB_Reset_SetResetTimeout(PROGRAMMING_MODE_TIMEOUT_s * 1000);
 789:C:/Workspace/FW_Platform2_5/trunk/CFG_DishWasher/CFG_Inertia\BusCommPltf_cfg.c ****                         		}
 790:C:/Workspace/FW_Platform2_5/trunk/CFG_DishWasher/CFG_Inertia\BusCommPltf_cfg.c ****                     			else
 791:C:/Workspace/FW_Platform2_5/trunk/CFG_DishWasher/CFG_Inertia\BusCommPltf_cfg.c ****                     			{
 792:C:/Workspace/FW_Platform2_5/trunk/CFG_DishWasher/CFG_Inertia\BusCommPltf_cfg.c ****                         			pinfo->error = (IO_ErrorType)IO_E_INVALID_VALUE;
 793:C:/Workspace/FW_Platform2_5/trunk/CFG_DishWasher/CFG_Inertia\BusCommPltf_cfg.c ****                     			}
 794:C:/Workspace/FW_Platform2_5/trunk/CFG_DishWasher/CFG_Inertia\BusCommPltf_cfg.c ****                         	}
 795:C:/Workspace/FW_Platform2_5/trunk/CFG_DishWasher/CFG_Inertia\BusCommPltf_cfg.c ****                         	else if (pdata[1] == SYSTEM_NORMAL_NOCHK_REFRESH)
 796:C:/Workspace/FW_Platform2_5/trunk/CFG_DishWasher/CFG_Inertia\BusCommPltf_cfg.c ****                         	{
 797:C:/Workspace/FW_Platform2_5/trunk/CFG_DishWasher/CFG_Inertia\BusCommPltf_cfg.c ****                         		if (SAFETY_CHECK_ISDISABLED())
 798:C:/Workspace/FW_Platform2_5/trunk/CFG_DishWasher/CFG_Inertia\BusCommPltf_cfg.c ****                         		{
 799:C:/Workspace/FW_Platform2_5/trunk/CFG_DishWasher/CFG_Inertia\BusCommPltf_cfg.c ****                         			LIB_Reset_SetResetTimeout(PROGRAMMING_MODE_TIMEOUT_s * 1000);
 800:C:/Workspace/FW_Platform2_5/trunk/CFG_DishWasher/CFG_Inertia\BusCommPltf_cfg.c ****                         		}
 801:C:/Workspace/FW_Platform2_5/trunk/CFG_DishWasher/CFG_Inertia\BusCommPltf_cfg.c ****                         		else
 802:C:/Workspace/FW_Platform2_5/trunk/CFG_DishWasher/CFG_Inertia\BusCommPltf_cfg.c **** 								{
 803:C:/Workspace/FW_Platform2_5/trunk/CFG_DishWasher/CFG_Inertia\BusCommPltf_cfg.c **** 									pinfo->error = (IO_ErrorType)IO_E_INVALID_VALUE;
 804:C:/Workspace/FW_Platform2_5/trunk/CFG_DishWasher/CFG_Inertia\BusCommPltf_cfg.c **** 								}
 805:C:/Workspace/FW_Platform2_5/trunk/CFG_DishWasher/CFG_Inertia\BusCommPltf_cfg.c ****                         	}
 806:C:/Workspace/FW_Platform2_5/trunk/CFG_DishWasher/CFG_Inertia\BusCommPltf_cfg.c ****                         	else
 807:C:/Workspace/FW_Platform2_5/trunk/CFG_DishWasher/CFG_Inertia\BusCommPltf_cfg.c ****                         	{
 808:C:/Workspace/FW_Platform2_5/trunk/CFG_DishWasher/CFG_Inertia\BusCommPltf_cfg.c ****                                 (void)CALLBACK_Protocol_SubModeManage(pdata[1]);
 809:C:/Workspace/FW_Platform2_5/trunk/CFG_DishWasher/CFG_Inertia\BusCommPltf_cfg.c ****                         	}
 810:C:/Workspace/FW_Platform2_5/trunk/CFG_DishWasher/CFG_Inertia\BusCommPltf_cfg.c ****                         }
 811:C:/Workspace/FW_Platform2_5/trunk/CFG_DishWasher/CFG_Inertia\BusCommPltf_cfg.c ****                         break;
 812:C:/Workspace/FW_Platform2_5/trunk/CFG_DishWasher/CFG_Inertia\BusCommPltf_cfg.c ****                         case SYSTEM_SET_UI_REMOTE_CONTROL:
 813:C:/Workspace/FW_Platform2_5/trunk/CFG_DishWasher/CFG_Inertia\BusCommPltf_cfg.c ****                             CALLBACK_Protocol_UIRemoteControlManage(pdata[1]);
 814:C:/Workspace/FW_Platform2_5/trunk/CFG_DishWasher/CFG_Inertia\BusCommPltf_cfg.c ****                         break;
 815:C:/Workspace/FW_Platform2_5/trunk/CFG_DishWasher/CFG_Inertia\BusCommPltf_cfg.c ****                         case SYSTEM_SPECIAL_MODE:
 816:C:/Workspace/FW_Platform2_5/trunk/CFG_DishWasher/CFG_Inertia\BusCommPltf_cfg.c ****                             (void)CBF_Task_Protocol_SetSpecialModeManager(pdata[1]);
 817:C:/Workspace/FW_Platform2_5/trunk/CFG_DishWasher/CFG_Inertia\BusCommPltf_cfg.c ****                         break;
 818:C:/Workspace/FW_Platform2_5/trunk/CFG_DishWasher/CFG_Inertia\BusCommPltf_cfg.c ****                      }
 819:C:/Workspace/FW_Platform2_5/trunk/CFG_DishWasher/CFG_Inertia\BusCommPltf_cfg.c ****                 break;
 820:C:/Workspace/FW_Platform2_5/trunk/CFG_DishWasher/CFG_Inertia\BusCommPltf_cfg.c **** 
 821:C:/Workspace/FW_Platform2_5/trunk/CFG_DishWasher/CFG_Inertia\BusCommPltf_cfg.c ****                 default:
 822:C:/Workspace/FW_Platform2_5/trunk/CFG_DishWasher/CFG_Inertia\BusCommPltf_cfg.c ****                     if(pdata[0] == SYSTEM_BOOT_MODE)
 823:C:/Workspace/FW_Platform2_5/trunk/CFG_DishWasher/CFG_Inertia\BusCommPltf_cfg.c ****                     {
 824:C:/Workspace/FW_Platform2_5/trunk/CFG_DishWasher/CFG_Inertia\BusCommPltf_cfg.c ****                     	/* Do nothing */
 825:C:/Workspace/FW_Platform2_5/trunk/CFG_DishWasher/CFG_Inertia\BusCommPltf_cfg.c ****                     }
 826:C:/Workspace/FW_Platform2_5/trunk/CFG_DishWasher/CFG_Inertia\BusCommPltf_cfg.c ****                     else
 827:C:/Workspace/FW_Platform2_5/trunk/CFG_DishWasher/CFG_Inertia\BusCommPltf_cfg.c ****                     {
 828:C:/Workspace/FW_Platform2_5/trunk/CFG_DishWasher/CFG_Inertia\BusCommPltf_cfg.c ****                         pinfo->error = (IO_ErrorType)IO_E_INVALID_VALUE;
 829:C:/Workspace/FW_Platform2_5/trunk/CFG_DishWasher/CFG_Inertia\BusCommPltf_cfg.c ****                     }
 830:C:/Workspace/FW_Platform2_5/trunk/CFG_DishWasher/CFG_Inertia\BusCommPltf_cfg.c ****                     
 831:C:/Workspace/FW_Platform2_5/trunk/CFG_DishWasher/CFG_Inertia\BusCommPltf_cfg.c ****             }
 832:C:/Workspace/FW_Platform2_5/trunk/CFG_DishWasher/CFG_Inertia\BusCommPltf_cfg.c ****             
 833:C:/Workspace/FW_Platform2_5/trunk/CFG_DishWasher/CFG_Inertia\BusCommPltf_cfg.c ****             /* any system mode */
 834:C:/Workspace/FW_Platform2_5/trunk/CFG_DishWasher/CFG_Inertia\BusCommPltf_cfg.c ****             switch(pdata[0]) 
 835:C:/Workspace/FW_Platform2_5/trunk/CFG_DishWasher/CFG_Inertia\BusCommPltf_cfg.c **** 			{
 836:C:/Workspace/FW_Platform2_5/trunk/CFG_DishWasher/CFG_Inertia\BusCommPltf_cfg.c **** 			case SYSTEM_BOOT_MODE:
 837:C:/Workspace/FW_Platform2_5/trunk/CFG_DishWasher/CFG_Inertia\BusCommPltf_cfg.c **** 			{
 838:C:/Workspace/FW_Platform2_5/trunk/CFG_DishWasher/CFG_Inertia\BusCommPltf_cfg.c **** 				if (pdata[1] == SYSTEM_BOOT_ENTER_STEP1)
 839:C:/Workspace/FW_Platform2_5/trunk/CFG_DishWasher/CFG_Inertia\BusCommPltf_cfg.c **** 				{
 840:C:/Workspace/FW_Platform2_5/trunk/CFG_DishWasher/CFG_Inertia\BusCommPltf_cfg.c **** 					LIB_Reset_SetTimedRequest(( SYSTEM_BOOT_MODE << 8) | SYSTEM_BOOT_ENTER_STEP1, RESET_TIMEDREQ_T
 841:C:/Workspace/FW_Platform2_5/trunk/CFG_DishWasher/CFG_Inertia\BusCommPltf_cfg.c **** 				}
 842:C:/Workspace/FW_Platform2_5/trunk/CFG_DishWasher/CFG_Inertia\BusCommPltf_cfg.c **** 				else if (pdata[1] == SYSTEM_BOOT_ENTER_STEP2)
 843:C:/Workspace/FW_Platform2_5/trunk/CFG_DishWasher/CFG_Inertia\BusCommPltf_cfg.c **** 				{
 844:C:/Workspace/FW_Platform2_5/trunk/CFG_DishWasher/CFG_Inertia\BusCommPltf_cfg.c **** 					if (LIB_Reset_ChkTimedRequest(( SYSTEM_BOOT_MODE << 8) | SYSTEM_BOOT_ENTER_STEP1))
 845:C:/Workspace/FW_Platform2_5/trunk/CFG_DishWasher/CFG_Inertia\BusCommPltf_cfg.c **** 					{
 846:C:/Workspace/FW_Platform2_5/trunk/CFG_DishWasher/CFG_Inertia\BusCommPltf_cfg.c **** 						LIB_Reset_SetNewSystemMode(SYSTEM_BOOT_MODE);
 847:C:/Workspace/FW_Platform2_5/trunk/CFG_DishWasher/CFG_Inertia\BusCommPltf_cfg.c **** 						OCRST_WriteBootKeywordArea();
 848:C:/Workspace/FW_Platform2_5/trunk/CFG_DishWasher/CFG_Inertia\BusCommPltf_cfg.c **** 					}
 849:C:/Workspace/FW_Platform2_5/trunk/CFG_DishWasher/CFG_Inertia\BusCommPltf_cfg.c ****                     else
 850:C:/Workspace/FW_Platform2_5/trunk/CFG_DishWasher/CFG_Inertia\BusCommPltf_cfg.c ****                     {
 851:C:/Workspace/FW_Platform2_5/trunk/CFG_DishWasher/CFG_Inertia\BusCommPltf_cfg.c ****                         pinfo->error = (IO_ErrorType)IO_E_INVALID_VALUE;
 852:C:/Workspace/FW_Platform2_5/trunk/CFG_DishWasher/CFG_Inertia\BusCommPltf_cfg.c ****                     }
 853:C:/Workspace/FW_Platform2_5/trunk/CFG_DishWasher/CFG_Inertia\BusCommPltf_cfg.c **** 				}
 854:C:/Workspace/FW_Platform2_5/trunk/CFG_DishWasher/CFG_Inertia\BusCommPltf_cfg.c **** 			}
 855:C:/Workspace/FW_Platform2_5/trunk/CFG_DishWasher/CFG_Inertia\BusCommPltf_cfg.c **** 			break;
 856:C:/Workspace/FW_Platform2_5/trunk/CFG_DishWasher/CFG_Inertia\BusCommPltf_cfg.c **** 			}
 857:C:/Workspace/FW_Platform2_5/trunk/CFG_DishWasher/CFG_Inertia\BusCommPltf_cfg.c **** 	}
 858:C:/Workspace/FW_Platform2_5/trunk/CFG_DishWasher/CFG_Inertia\BusCommPltf_cfg.c **** }
 528                             		.loc 1 858 0
 529 0034 6F 7B                   		popm	r7-r11
 766:C:/Workspace/FW_Platform2_5/trunk/CFG_DishWasher/CFG_Inertia\BusCommPltf_cfg.c ****                   LIB_Reset_SetNewSystemMode((SysMode_Type)pdata[0]);
 530                             		.loc 1 766 0
 531 0036 04 00 00 00             		bra	_LIB_Reset_SetNewSystemMode
 532                             	.L53:
 772:C:/Workspace/FW_Platform2_5/trunk/CFG_DishWasher/CFG_Inertia\BusCommPltf_cfg.c **** 			switch(LIB_Reset_GetSystemMode())
 533                             		.loc 1 772 0
 534 003a 05 00 00 00             		bsr	_LIB_Reset_GetSystemMode
 535 003e 5B 11                   		movu.B	r1, r1
 536 0040 61 11                   		cmp	#1, r1
 537 0042 58 7E                   		movu.B	[r7], r14
 538 0044 21 5C                   		bne	.L81
 775:C:/Workspace/FW_Platform2_5/trunk/CFG_DishWasher/CFG_Inertia\BusCommPltf_cfg.c ****                     switch(pdata[0])
 539                             		.loc 1 775 0
 540 0046 61 5E                   		cmp	#5, r14
 541 0048 20 50                   		beq	.L60
 542 004a 61 6E                   		cmp	#6, r14
 543 004c 20 44                   		beq	.L61
 544 004e 61 1E                   		cmp	#1, r14
 545 0050 21 58                   		bne	.L58
 779:C:/Workspace/FW_Platform2_5/trunk/CFG_DishWasher/CFG_Inertia\BusCommPltf_cfg.c ****                         	if (pdata[1] == SYSTEM_NORMAL_NOCHK_STEP1)
 546                             		.loc 1 779 0
 547 0052 88 79                   		mov.B	1[r7], r1
 548 0054 5B 1E                   		movu.B	r1, r14
 549 0056 75 5E DE                		cmp	#0xde, r14
 550 0059 21 10                   		bne	.L62
 781:C:/Workspace/FW_Platform2_5/trunk/CFG_DishWasher/CFG_Inertia\BusCommPltf_cfg.c **** 								LIB_Reset_SetTimedRequest(( SYSTEM_NORMAL_MODE << 8) | SYSTEM_NORMAL_NOCHK_STEP1, RESET_TIM
 551                             		.loc 1 781 0
 552 005b FB 1A DE 01             		mov	#0x1de, r1
 553 005f FB 2A 88 13             		mov.L	#0x1388, r2
 554 0063 05 00 00 00             		bsr	_LIB_Reset_SetTimedRequest
 555 0067 2E 41                   		bra	.L58
 556                             	.L62:
 783:C:/Workspace/FW_Platform2_5/trunk/CFG_DishWasher/CFG_Inertia\BusCommPltf_cfg.c ****                         	else if (pdata[1] == SYSTEM_NORMAL_NOCHK_STEP2)
 557                             		.loc 1 783 0
 558 0069 75 5E AD                		cmp	#0xad, r14
 559 006c 21 19                   		bne	.L63
 785:C:/Workspace/FW_Platform2_5/trunk/CFG_DishWasher/CFG_Inertia\BusCommPltf_cfg.c ****                         		if (LIB_Reset_ChkTimedRequest(( SYSTEM_NORMAL_MODE << 8) | SYSTEM_NORMAL_
 560                             		.loc 1 785 0
 561 006e FB 1A DE 01             		mov	#0x1de, r1
 562 0072 05 00 00 00             		bsr	_LIB_Reset_ChkTimedRequest
 563 0076 61 01                   		cmp	#0, r1
 564 0078 20 2C                   		beq	.L83
 565                             		.balign 2,3,4
 566                             	.L65:
 788:C:/Workspace/FW_Platform2_5/trunk/CFG_DishWasher/CFG_Inertia\BusCommPltf_cfg.c ****                         			LIB_Reset_SetResetTimeout(PROGRAMMING_MODE_TIMEOUT_s * 1000);
 567                             		.loc 1 788 0
 568 007a FB 1E C0 D4 01          		mov.L	#0x1d4c0, r1
 569 007f 05 00 00 00             		bsr	_LIB_Reset_SetResetTimeout
 570 0083 2E 25                   		bra	.L58
 571                             	.L63:
 795:C:/Workspace/FW_Platform2_5/trunk/CFG_DishWasher/CFG_Inertia\BusCommPltf_cfg.c ****                         	else if (pdata[1] == SYSTEM_NORMAL_NOCHK_REFRESH)
 572                             		.loc 1 795 0
 573 0085 75 5E AA                		cmp	#0xaa, r14
 574 0088 20 F2                   		beq	.L65
 808:C:/Workspace/FW_Platform2_5/trunk/CFG_DishWasher/CFG_Inertia\BusCommPltf_cfg.c ****                                 (void)CALLBACK_Protocol_SubModeManage(pdata[1]);
 575                             		.loc 1 808 0
 576 008a 05 00 00 00             		bsr	_CALLBACK_Protocol_SubModeManage
 577 008e 2E 1A                   		bra	.L58
 578                             	.L61:
 813:C:/Workspace/FW_Platform2_5/trunk/CFG_DishWasher/CFG_Inertia\BusCommPltf_cfg.c ****                             CALLBACK_Protocol_UIRemoteControlManage(pdata[1]);
 579                             		.loc 1 813 0
 580 0090 88 79                   		mov.B	1[r7], r1
 581 0092 05 00 00 00             		bsr	_CALLBACK_Protocol_UIRemoteControlManage
 814:C:/Workspace/FW_Platform2_5/trunk/CFG_DishWasher/CFG_Inertia\BusCommPltf_cfg.c ****                         break;
 582                             		.loc 1 814 0
 583 0096 2E 12                   		bra	.L58
 584                             	.L60:
 816:C:/Workspace/FW_Platform2_5/trunk/CFG_DishWasher/CFG_Inertia\BusCommPltf_cfg.c ****                             (void)CBF_Task_Protocol_SetSpecialModeManager(pdata[1]);
 585                             		.loc 1 816 0
 586 0098 88 79                   		mov.B	1[r7], r1
 587 009a 05 00 00 00             		bsr	_CBF_Task_Protocol_SetSpecialModeManager
 817:C:/Workspace/FW_Platform2_5/trunk/CFG_DishWasher/CFG_Inertia\BusCommPltf_cfg.c ****                         break;
 588                             		.loc 1 817 0
 589 009e 2E 0A                   		bra	.L58
 590                             	.L81:
 822:C:/Workspace/FW_Platform2_5/trunk/CFG_DishWasher/CFG_Inertia\BusCommPltf_cfg.c ****                     if(pdata[0] == SYSTEM_BOOT_MODE)
 591                             		.loc 1 822 0
 592 00a0 61 8E                   		cmp	#8, r14
 593 00a2 20 06                   		beq	.L58
 594                             		.balign 2,3,4
 595                             	.L83:
 828:C:/Workspace/FW_Platform2_5/trunk/CFG_DishWasher/CFG_Inertia\BusCommPltf_cfg.c ****                         pinfo->error = (IO_ErrorType)IO_E_INVALID_VALUE;
 596                             		.loc 1 828 0
 597 00a4 F9 A4 06 13             		mov.B	#19, 6[r10]
 598                             		.balign 2,3,3
 599                             	.L58:
 834:C:/Workspace/FW_Platform2_5/trunk/CFG_DishWasher/CFG_Inertia\BusCommPltf_cfg.c ****             switch(pdata[0]) 
 600                             		.loc 1 834 0
 601 00a8 58 7B                   		movu.B	[r7], r11
 602 00aa 61 8B                   		cmp	#8, r11
 603 00ac 21 38                   		bne	.L50
 838:C:/Workspace/FW_Platform2_5/trunk/CFG_DishWasher/CFG_Inertia\BusCommPltf_cfg.c **** 				if (pdata[1] == SYSTEM_BOOT_ENTER_STEP1)
 604                             		.loc 1 838 0
 605 00ae B0 7F                   		movu.B	1[r7], r7
 606 00b0 75 57 DE                		cmp	#0xde, r7
 607 00b3 21 10                   		bne	.L67
 608                             		.loc 1 858 0
 609 00b5 6F 7B                   		popm	r7-r11
 840:C:/Workspace/FW_Platform2_5/trunk/CFG_DishWasher/CFG_Inertia\BusCommPltf_cfg.c **** 					LIB_Reset_SetTimedRequest(( SYSTEM_BOOT_MODE << 8) | SYSTEM_BOOT_ENTER_STEP1, RESET_TIMEDREQ_T
 610                             		.loc 1 840 0
 611 00b7 FB 1A DE 08             		mov	#0x8de, r1
 612 00bb FB 2A 88 13             		mov.L	#0x1388, r2
 613 00bf 04 00 00 00             		bra	_LIB_Reset_SetTimedRequest
 614                             	.L67:
 842:C:/Workspace/FW_Platform2_5/trunk/CFG_DishWasher/CFG_Inertia\BusCommPltf_cfg.c **** 				else if (pdata[1] == SYSTEM_BOOT_ENTER_STEP2)
 615                             		.loc 1 842 0
 616 00c3 75 57 AD                		cmp	#0xad, r7
 617 00c6 21 1E                   		bne	.L50
 844:C:/Workspace/FW_Platform2_5/trunk/CFG_DishWasher/CFG_Inertia\BusCommPltf_cfg.c **** 					if (LIB_Reset_ChkTimedRequest(( SYSTEM_BOOT_MODE << 8) | SYSTEM_BOOT_ENTER_STEP1))
 618                             		.loc 1 844 0
 619 00c8 FB 1A DE 08             		mov	#0x8de, r1
 620 00cc 05 00 00 00             		bsr	_LIB_Reset_ChkTimedRequest
 621 00d0 61 01                   		cmp	#0, r1
 622 00d2 20 0E                   		beq	.L68
 846:C:/Workspace/FW_Platform2_5/trunk/CFG_DishWasher/CFG_Inertia\BusCommPltf_cfg.c **** 						LIB_Reset_SetNewSystemMode(SYSTEM_BOOT_MODE);
 623                             		.loc 1 846 0
 624 00d4 CF B1                   		mov.B	r11, r1
 625 00d6 05 00 00 00             		bsr	_LIB_Reset_SetNewSystemMode
 626                             		.loc 1 858 0
 627 00da 6F 7B                   		popm	r7-r11
 847:C:/Workspace/FW_Platform2_5/trunk/CFG_DishWasher/CFG_Inertia\BusCommPltf_cfg.c **** 						OCRST_WriteBootKeywordArea();
 628                             		.loc 1 847 0
 629 00dc 04 00 00 00             		bra	_OCRST_WriteBootKeywordArea
 630                             	.L68:
 851:C:/Workspace/FW_Platform2_5/trunk/CFG_DishWasher/CFG_Inertia\BusCommPltf_cfg.c ****                         pinfo->error = (IO_ErrorType)IO_E_INVALID_VALUE;
 631                             		.loc 1 851 0
 632 00e0 F9 A4 06 13             		mov.B	#19, 6[r10]
 633                             		.balign 2,3,2
 634                             	.L50:
 635                             		.loc 1 858 0
 636 00e4 3F 7B 05                		rtsd	#20, r7-r11
 637                             	.LFE18:
 639 00e7 03                      		.section	.text.CMS_EE_FUNC_BS_SetLoads,"ax",@progbits
 640                             		.global	_CMS_EE_FUNC_BS_SetLoads
 642                             	_CMS_EE_FUNC_BS_SetLoads:
 643                             	.LFB19:
 859:C:/Workspace/FW_Platform2_5/trunk/CFG_DishWasher/CFG_Inertia\BusCommPltf_cfg.c **** 
 860:C:/Workspace/FW_Platform2_5/trunk/CFG_DishWasher/CFG_Inertia\BusCommPltf_cfg.c **** 
 861:C:/Workspace/FW_Platform2_5/trunk/CFG_DishWasher/CFG_Inertia\BusCommPltf_cfg.c **** /**
 862:C:/Workspace/FW_Platform2_5/trunk/CFG_DishWasher/CFG_Inertia\BusCommPltf_cfg.c **** Basic Set Load Request
 863:C:/Workspace/FW_Platform2_5/trunk/CFG_DishWasher/CFG_Inertia\BusCommPltf_cfg.c **** The request will end successfully, Platform Protocol PP_ACK will be sent if,
 864:C:/Workspace/FW_Platform2_5/trunk/CFG_DishWasher/CFG_Inertia\BusCommPltf_cfg.c **** \li system mode is SYSTEM_NORMAL_MODE
 865:C:/Workspace/FW_Platform2_5/trunk/CFG_DishWasher/CFG_Inertia\BusCommPltf_cfg.c **** \li no error on queue at low level.
 866:C:/Workspace/FW_Platform2_5/trunk/CFG_DishWasher/CFG_Inertia\BusCommPltf_cfg.c **** */
 867:C:/Workspace/FW_Platform2_5/trunk/CFG_DishWasher/CFG_Inertia\BusCommPltf_cfg.c **** DEF_CSM_EE_CUSTOM_FUNC(BS_SetLoads)
 868:C:/Workspace/FW_Platform2_5/trunk/CFG_DishWasher/CFG_Inertia\BusCommPltf_cfg.c **** {
 644                             		.loc 1 868 0
 645                             	.LVL55:
 646 0000 6E 7B                   		pushm	r7-r11
 647                             	.LCFI12:
 648                             		.loc 1 868 0
 649 0002 EF 2A                   		mov.L	r2, r10
 650 0004 CF 3B                   		mov.B	r3, r11
 651 0006 EF 47                   		mov.L	r4, r7
 869:C:/Workspace/FW_Platform2_5/trunk/CFG_DishWasher/CFG_Inertia\BusCommPltf_cfg.c **** 	/* format:
 870:C:/Workspace/FW_Platform2_5/trunk/CFG_DishWasher/CFG_Inertia\BusCommPltf_cfg.c **** 	TYPE	: 0x5x
 871:C:/Workspace/FW_Platform2_5/trunk/CFG_DishWasher/CFG_Inertia\BusCommPltf_cfg.c **** 	DATA0  : load index in Outputs Map
 872:C:/Workspace/FW_Platform2_5/trunk/CFG_DishWasher/CFG_Inertia\BusCommPltf_cfg.c **** 	DATA1  : XXXXYYYY (YYYY: activation level, XXXX: configuration)
 873:C:/Workspace/FW_Platform2_5/trunk/CFG_DishWasher/CFG_Inertia\BusCommPltf_cfg.c **** 	DATA2  : not used
 874:C:/Workspace/FW_Platform2_5/trunk/CFG_DishWasher/CFG_Inertia\BusCommPltf_cfg.c **** 	*/
 875:C:/Workspace/FW_Platform2_5/trunk/CFG_DishWasher/CFG_Inertia\BusCommPltf_cfg.c **** 
 876:C:/Workspace/FW_Platform2_5/trunk/CFG_DishWasher/CFG_Inertia\BusCommPltf_cfg.c ****     (void) ch;    
 877:C:/Workspace/FW_Platform2_5/trunk/CFG_DishWasher/CFG_Inertia\BusCommPltf_cfg.c ****     
 878:C:/Workspace/FW_Platform2_5/trunk/CFG_DishWasher/CFG_Inertia\BusCommPltf_cfg.c **** 	if(LIB_Reset_GetSystemMode() == SYSTEM_NORMAL_MODE)
 652                             		.loc 1 878 0
 653 0008 05 00 00 00             		bsr	_LIB_Reset_GetSystemMode
 654                             	.LVL56:
 655 000c 5B 11                   		movu.B	r1, r1
 656 000e 61 11                   		cmp	#1, r1
 657 0010 21 0E                   		bne	.L85
 879:C:/Workspace/FW_Platform2_5/trunk/CFG_DishWasher/CFG_Inertia\BusCommPltf_cfg.c **** 	{
 880:C:/Workspace/FW_Platform2_5/trunk/CFG_DishWasher/CFG_Inertia\BusCommPltf_cfg.c **** 		if (SAFETY_CHECK_ISDISABLED())
 881:C:/Workspace/FW_Platform2_5/trunk/CFG_DishWasher/CFG_Inertia\BusCommPltf_cfg.c **** 		{
 882:C:/Workspace/FW_Platform2_5/trunk/CFG_DishWasher/CFG_Inertia\BusCommPltf_cfg.c **** 			/*Add the flag for basic frame */
 883:C:/Workspace/FW_Platform2_5/trunk/CFG_DishWasher/CFG_Inertia\BusCommPltf_cfg.c **** 			if( Main_RemoteLoadsControl_PutCommand(REMOTE_LOADS_CONTROL_BASIC,len, pdata))
 658                             		.loc 1 883 0
 659 0012 CF B2                   		mov.B	r11, r2
 660 0014 EF A3                   		mov.L	r10, r3
 661 0016 05 00 00 00             		bsr	_Main_RemoteLoadsControl_PutCommand
 662                             	.LVL57:
 663 001a 61 01                   		cmp	#0, r1
 664 001c 20 06                   		beq	.L84
 665                             		.balign 2,3,4
 666                             	.L85:
 884:C:/Workspace/FW_Platform2_5/trunk/CFG_DishWasher/CFG_Inertia\BusCommPltf_cfg.c **** 			{
 885:C:/Workspace/FW_Platform2_5/trunk/CFG_DishWasher/CFG_Inertia\BusCommPltf_cfg.c **** 				pinfo->error = (IO_ErrorType)IO_E_INVALID_VALUE;
 886:C:/Workspace/FW_Platform2_5/trunk/CFG_DishWasher/CFG_Inertia\BusCommPltf_cfg.c **** 			}
 887:C:/Workspace/FW_Platform2_5/trunk/CFG_DishWasher/CFG_Inertia\BusCommPltf_cfg.c **** 		}
 888:C:/Workspace/FW_Platform2_5/trunk/CFG_DishWasher/CFG_Inertia\BusCommPltf_cfg.c **** 		else
 889:C:/Workspace/FW_Platform2_5/trunk/CFG_DishWasher/CFG_Inertia\BusCommPltf_cfg.c **** 		{
 890:C:/Workspace/FW_Platform2_5/trunk/CFG_DishWasher/CFG_Inertia\BusCommPltf_cfg.c **** 			pinfo->error = (IO_ErrorType)IO_E_INVALID_VALUE;
 891:C:/Workspace/FW_Platform2_5/trunk/CFG_DishWasher/CFG_Inertia\BusCommPltf_cfg.c **** 		}
 892:C:/Workspace/FW_Platform2_5/trunk/CFG_DishWasher/CFG_Inertia\BusCommPltf_cfg.c **** 
 893:C:/Workspace/FW_Platform2_5/trunk/CFG_DishWasher/CFG_Inertia\BusCommPltf_cfg.c **** 	}
 894:C:/Workspace/FW_Platform2_5/trunk/CFG_DishWasher/CFG_Inertia\BusCommPltf_cfg.c **** 	else
 895:C:/Workspace/FW_Platform2_5/trunk/CFG_DishWasher/CFG_Inertia\BusCommPltf_cfg.c **** 	{
 896:C:/Workspace/FW_Platform2_5/trunk/CFG_DishWasher/CFG_Inertia\BusCommPltf_cfg.c **** 	    pinfo->error = (IO_ErrorType)IO_E_INVALID_VALUE;
 667                             		.loc 1 896 0
 668 001e 3C 76 13                		mov.B	#19, 6[r7]
 669 0021 03                      		.balign 2,3,2
 670                             	.L84:
 897:C:/Workspace/FW_Platform2_5/trunk/CFG_DishWasher/CFG_Inertia\BusCommPltf_cfg.c **** 	}
 898:C:/Workspace/FW_Platform2_5/trunk/CFG_DishWasher/CFG_Inertia\BusCommPltf_cfg.c **** }
 671                             		.loc 1 898 0
 672 0022 3F 7B 05                		rtsd	#20, r7-r11
 673                             	.LFE19:
 675 0025 03                      		.section	.text.CP_SlaveManager.isra.1,"ax",@progbits
 677                             	_CP_SlaveManager.isra.1:
 678                             	.LFB33:
 899:C:/Workspace/FW_Platform2_5/trunk/CFG_DishWasher/CFG_Inertia\BusCommPltf_cfg.c **** 
 900:C:/Workspace/FW_Platform2_5/trunk/CFG_DishWasher/CFG_Inertia\BusCommPltf_cfg.c **** 
 901:C:/Workspace/FW_Platform2_5/trunk/CFG_DishWasher/CFG_Inertia\BusCommPltf_cfg.c **** /**
 902:C:/Workspace/FW_Platform2_5/trunk/CFG_DishWasher/CFG_Inertia\BusCommPltf_cfg.c **** WriteUIInfo Request
 903:C:/Workspace/FW_Platform2_5/trunk/CFG_DishWasher/CFG_Inertia\BusCommPltf_cfg.c **** The request will end successfully, aswering with the content of data of the application, if 
 904:C:/Workspace/FW_Platform2_5/trunk/CFG_DishWasher/CFG_Inertia\BusCommPltf_cfg.c **** WriteUIInfo variable is configured by using Set_CPApplianceDataItem
 905:C:/Workspace/FW_Platform2_5/trunk/CFG_DishWasher/CFG_Inertia\BusCommPltf_cfg.c **** */
 906:C:/Workspace/FW_Platform2_5/trunk/CFG_DishWasher/CFG_Inertia\BusCommPltf_cfg.c **** DEF_CSM_EE_CTRL(Ctrl_WriteUIInfoRequest)
 907:C:/Workspace/FW_Platform2_5/trunk/CFG_DishWasher/CFG_Inertia\BusCommPltf_cfg.c **** {
 908:C:/Workspace/FW_Platform2_5/trunk/CFG_DishWasher/CFG_Inertia\BusCommPltf_cfg.c **** 	return (IO_ErrorType)IO_E_OK;
 909:C:/Workspace/FW_Platform2_5/trunk/CFG_DishWasher/CFG_Inertia\BusCommPltf_cfg.c **** }
 910:C:/Workspace/FW_Platform2_5/trunk/CFG_DishWasher/CFG_Inertia\BusCommPltf_cfg.c **** 
 911:C:/Workspace/FW_Platform2_5/trunk/CFG_DishWasher/CFG_Inertia\BusCommPltf_cfg.c **** 
 912:C:/Workspace/FW_Platform2_5/trunk/CFG_DishWasher/CFG_Inertia\BusCommPltf_cfg.c **** /**
 913:C:/Workspace/FW_Platform2_5/trunk/CFG_DishWasher/CFG_Inertia\BusCommPltf_cfg.c **** Status Request
 914:C:/Workspace/FW_Platform2_5/trunk/CFG_DishWasher/CFG_Inertia\BusCommPltf_cfg.c **** The request will end successfully, answering with the content of data of the application, if
 915:C:/Workspace/FW_Platform2_5/trunk/CFG_DishWasher/CFG_Inertia\BusCommPltf_cfg.c **** Status variable is configured by using Set_CPApplianceDataItem
 916:C:/Workspace/FW_Platform2_5/trunk/CFG_DishWasher/CFG_Inertia\BusCommPltf_cfg.c **** */
 917:C:/Workspace/FW_Platform2_5/trunk/CFG_DishWasher/CFG_Inertia\BusCommPltf_cfg.c **** DEF_CSM_EE_CTRL(Ctrl_StatusRequest)
 918:C:/Workspace/FW_Platform2_5/trunk/CFG_DishWasher/CFG_Inertia\BusCommPltf_cfg.c **** {
 919:C:/Workspace/FW_Platform2_5/trunk/CFG_DishWasher/CFG_Inertia\BusCommPltf_cfg.c **** 	return (IO_ErrorType)IO_E_OK;
 920:C:/Workspace/FW_Platform2_5/trunk/CFG_DishWasher/CFG_Inertia\BusCommPltf_cfg.c **** }
 921:C:/Workspace/FW_Platform2_5/trunk/CFG_DishWasher/CFG_Inertia\BusCommPltf_cfg.c **** 
 922:C:/Workspace/FW_Platform2_5/trunk/CFG_DishWasher/CFG_Inertia\BusCommPltf_cfg.c **** /**
 923:C:/Workspace/FW_Platform2_5/trunk/CFG_DishWasher/CFG_Inertia\BusCommPltf_cfg.c **** Ident Request
 924:C:/Workspace/FW_Platform2_5/trunk/CFG_DishWasher/CFG_Inertia\BusCommPltf_cfg.c **** Preconfigured by platform framework.
 925:C:/Workspace/FW_Platform2_5/trunk/CFG_DishWasher/CFG_Inertia\BusCommPltf_cfg.c **** */
 926:C:/Workspace/FW_Platform2_5/trunk/CFG_DishWasher/CFG_Inertia\BusCommPltf_cfg.c **** DEF_CSM_EE_CTRL(Ctrl_IdentRequest)
 927:C:/Workspace/FW_Platform2_5/trunk/CFG_DishWasher/CFG_Inertia\BusCommPltf_cfg.c **** {
 928:C:/Workspace/FW_Platform2_5/trunk/CFG_DishWasher/CFG_Inertia\BusCommPltf_cfg.c ****     return (IO_ErrorType)IO_E_OK;
 929:C:/Workspace/FW_Platform2_5/trunk/CFG_DishWasher/CFG_Inertia\BusCommPltf_cfg.c **** }
 930:C:/Workspace/FW_Platform2_5/trunk/CFG_DishWasher/CFG_Inertia\BusCommPltf_cfg.c **** 
 931:C:/Workspace/FW_Platform2_5/trunk/CFG_DishWasher/CFG_Inertia\BusCommPltf_cfg.c **** 
 932:C:/Workspace/FW_Platform2_5/trunk/CFG_DishWasher/CFG_Inertia\BusCommPltf_cfg.c **** 
 933:C:/Workspace/FW_Platform2_5/trunk/CFG_DishWasher/CFG_Inertia\BusCommPltf_cfg.c **** 
 934:C:/Workspace/FW_Platform2_5/trunk/CFG_DishWasher/CFG_Inertia\BusCommPltf_cfg.c **** 
 935:C:/Workspace/FW_Platform2_5/trunk/CFG_DishWasher/CFG_Inertia\BusCommPltf_cfg.c **** /**
 936:C:/Workspace/FW_Platform2_5/trunk/CFG_DishWasher/CFG_Inertia\BusCommPltf_cfg.c **** Write Regulations Request
 937:C:/Workspace/FW_Platform2_5/trunk/CFG_DishWasher/CFG_Inertia\BusCommPltf_cfg.c **** The request will end successfully, aswering with the content of data of the application, if 
 938:C:/Workspace/FW_Platform2_5/trunk/CFG_DishWasher/CFG_Inertia\BusCommPltf_cfg.c **** WriteRegs variable is configured by using Set_CPApplianceDataItem and CBF_OnWriteRegulations()
 939:C:/Workspace/FW_Platform2_5/trunk/CFG_DishWasher/CFG_Inertia\BusCommPltf_cfg.c **** returns TRUE.
 940:C:/Workspace/FW_Platform2_5/trunk/CFG_DishWasher/CFG_Inertia\BusCommPltf_cfg.c **** */
 941:C:/Workspace/FW_Platform2_5/trunk/CFG_DishWasher/CFG_Inertia\BusCommPltf_cfg.c **** DEF_CSM_EE_CTRL(Ctrl_WriteRegsRequest)
 942:C:/Workspace/FW_Platform2_5/trunk/CFG_DishWasher/CFG_Inertia\BusCommPltf_cfg.c **** {
 943:C:/Workspace/FW_Platform2_5/trunk/CFG_DishWasher/CFG_Inertia\BusCommPltf_cfg.c **** 	
 944:C:/Workspace/FW_Platform2_5/trunk/CFG_DishWasher/CFG_Inertia\BusCommPltf_cfg.c **** #if ENABLE_SYNC_UI_MAIN == 1				
 945:C:/Workspace/FW_Platform2_5/trunk/CFG_DishWasher/CFG_Inertia\BusCommPltf_cfg.c **** 	if(CBF_OnWriteRegulations() == FALSE)
 946:C:/Workspace/FW_Platform2_5/trunk/CFG_DishWasher/CFG_Inertia\BusCommPltf_cfg.c **** 	{
 947:C:/Workspace/FW_Platform2_5/trunk/CFG_DishWasher/CFG_Inertia\BusCommPltf_cfg.c **** 		return (IO_ErrorType)IO_E_INVALID_VALUE;
 948:C:/Workspace/FW_Platform2_5/trunk/CFG_DishWasher/CFG_Inertia\BusCommPltf_cfg.c **** 	}
 949:C:/Workspace/FW_Platform2_5/trunk/CFG_DishWasher/CFG_Inertia\BusCommPltf_cfg.c **** #endif /* ( ENABLE_SYNC_UI_MAIN == 1 ) */
 950:C:/Workspace/FW_Platform2_5/trunk/CFG_DishWasher/CFG_Inertia\BusCommPltf_cfg.c **** return (IO_ErrorType)IO_E_OK;
 951:C:/Workspace/FW_Platform2_5/trunk/CFG_DishWasher/CFG_Inertia\BusCommPltf_cfg.c **** }
 952:C:/Workspace/FW_Platform2_5/trunk/CFG_DishWasher/CFG_Inertia\BusCommPltf_cfg.c **** 
 953:C:/Workspace/FW_Platform2_5/trunk/CFG_DishWasher/CFG_Inertia\BusCommPltf_cfg.c **** 
 954:C:/Workspace/FW_Platform2_5/trunk/CFG_DishWasher/CFG_Inertia\BusCommPltf_cfg.c **** /**
 955:C:/Workspace/FW_Platform2_5/trunk/CFG_DishWasher/CFG_Inertia\BusCommPltf_cfg.c **** Status Request
 956:C:/Workspace/FW_Platform2_5/trunk/CFG_DishWasher/CFG_Inertia\BusCommPltf_cfg.c **** The request will end successfully, aswering with the content of data of the application, if 
 957:C:/Workspace/FW_Platform2_5/trunk/CFG_DishWasher/CFG_Inertia\BusCommPltf_cfg.c **** ReadRegs variable is configured by using Set_CPApplianceDataItem and CBF_OnReadRegulations()
 958:C:/Workspace/FW_Platform2_5/trunk/CFG_DishWasher/CFG_Inertia\BusCommPltf_cfg.c **** returns TRUE.
 959:C:/Workspace/FW_Platform2_5/trunk/CFG_DishWasher/CFG_Inertia\BusCommPltf_cfg.c **** */
 960:C:/Workspace/FW_Platform2_5/trunk/CFG_DishWasher/CFG_Inertia\BusCommPltf_cfg.c **** DEF_CSM_EE_CTRL(Ctrl_ReadRegsRequest)
 961:C:/Workspace/FW_Platform2_5/trunk/CFG_DishWasher/CFG_Inertia\BusCommPltf_cfg.c **** {
 962:C:/Workspace/FW_Platform2_5/trunk/CFG_DishWasher/CFG_Inertia\BusCommPltf_cfg.c **** /* read regulations returns a NACK if DP_Reg_Var_dim is zero*/
 963:C:/Workspace/FW_Platform2_5/trunk/CFG_DishWasher/CFG_Inertia\BusCommPltf_cfg.c **** #if  ENABLE_SYNC_UI_MAIN == 1			   	
 964:C:/Workspace/FW_Platform2_5/trunk/CFG_DishWasher/CFG_Inertia\BusCommPltf_cfg.c ****         /* sincronizzazione UI-Main mediante la sequenza */
 965:C:/Workspace/FW_Platform2_5/trunk/CFG_DishWasher/CFG_Inertia\BusCommPltf_cfg.c ****   	    /* READ_STATUS - READ_REGS - WRITE_REGS */
 966:C:/Workspace/FW_Platform2_5/trunk/CFG_DishWasher/CFG_Inertia\BusCommPltf_cfg.c ****     if(FALSE == CBF_OnReadRegulations() )
 967:C:/Workspace/FW_Platform2_5/trunk/CFG_DishWasher/CFG_Inertia\BusCommPltf_cfg.c ****     {
 968:C:/Workspace/FW_Platform2_5/trunk/CFG_DishWasher/CFG_Inertia\BusCommPltf_cfg.c ****         return (IO_ErrorType)IO_E_INVALID_VALUE;
 969:C:/Workspace/FW_Platform2_5/trunk/CFG_DishWasher/CFG_Inertia\BusCommPltf_cfg.c ****     }
 970:C:/Workspace/FW_Platform2_5/trunk/CFG_DishWasher/CFG_Inertia\BusCommPltf_cfg.c **** #endif /* ( ENABLE_SYNC_UI_MAIN == 1 ) */			
 971:C:/Workspace/FW_Platform2_5/trunk/CFG_DishWasher/CFG_Inertia\BusCommPltf_cfg.c **** 	    
 972:C:/Workspace/FW_Platform2_5/trunk/CFG_DishWasher/CFG_Inertia\BusCommPltf_cfg.c **** 	return (IO_ErrorType)IO_E_OK;
 973:C:/Workspace/FW_Platform2_5/trunk/CFG_DishWasher/CFG_Inertia\BusCommPltf_cfg.c **** }
 974:C:/Workspace/FW_Platform2_5/trunk/CFG_DishWasher/CFG_Inertia\BusCommPltf_cfg.c **** 
 975:C:/Workspace/FW_Platform2_5/trunk/CFG_DishWasher/CFG_Inertia\BusCommPltf_cfg.c **** 
 976:C:/Workspace/FW_Platform2_5/trunk/CFG_DishWasher/CFG_Inertia\BusCommPltf_cfg.c **** 
 977:C:/Workspace/FW_Platform2_5/trunk/CFG_DishWasher/CFG_Inertia\BusCommPltf_cfg.c **** 
 978:C:/Workspace/FW_Platform2_5/trunk/CFG_DishWasher/CFG_Inertia\BusCommPltf_cfg.c **** 
 979:C:/Workspace/FW_Platform2_5/trunk/CFG_DishWasher/CFG_Inertia\BusCommPltf_cfg.c **** 
 980:C:/Workspace/FW_Platform2_5/trunk/CFG_DishWasher/CFG_Inertia\BusCommPltf_cfg.c **** 
 981:C:/Workspace/FW_Platform2_5/trunk/CFG_DishWasher/CFG_Inertia\BusCommPltf_cfg.c **** BEGIN_CP_SLAVEMANAGER(CP_SlaveManager)
 679                             		.loc 1 981 0
 680                             	.LVL58:
 681 0000 6E 7C                   		pushm	r7-r12
 682                             	.LCFI13:
 683 0002 71 00 E4                		add	#-28, r0
 684                             	.LCFI14:
 685                             		.loc 1 981 0
 686 0005 CF 1A                   		mov.B	r1, r10
 687 0007 66 41                   		mov.L	#4, r1
 688                             	.LVL59:
 689 0009 EF 27                   		mov.L	r2, r7
 690 000b 4B 01                   		add	r0, r1
 691 000d 66 C3                   		mov.L	#12, r3
 692 000f 66 02                   		mov	#0, r2
 693                             	.LVL60:
 694 0011 7F 88                   		sstr.b
 695 0013 CF A1                   		mov.B	r10, r1
 696 0015 05 00 00 00             		bsr	_PP_IsSlaveStateRxOK
 697                             	.LVL61:
 698 0019 61 01                   		cmp	#0, r1
 699 001b 3A A7 05                		beq	.L92
 982:C:/Workspace/FW_Platform2_5/trunk/CFG_DishWasher/CFG_Inertia\BusCommPltf_cfg.c **** 		
 983:C:/Workspace/FW_Platform2_5/trunk/CFG_DishWasher/CFG_Inertia\BusCommPltf_cfg.c ****         if(CP_SLAVEMANAGER_REQ_IS_EXTENDED() && CP_SLAVEMANAGER_REQ_IS_TYP8())
 700                             		.loc 1 983 0
 701 001e CD 7B 01                		mov.B	1[r7], r11
 981:C:/Workspace/FW_Platform2_5/trunk/CFG_DishWasher/CFG_Inertia\BusCommPltf_cfg.c **** BEGIN_CP_SLAVEMANAGER(CP_SlaveManager)
 702                             		.loc 1 981 0
 703 0021 3C 0A 00                		mov.B	#0, 10[r0]
 704                             		.loc 1 983 0
 705 0024 5B BC                   		movu.B	r11, r12
 706 0026 75 5C EE                		cmp	#0xee, r12
 707 0029 3B EF 04                		bne	.L93
 708 002c CD 7C 02                		mov.B	2[r7], r12
 709 002f 64 2C                   		and	#2, r12
 710 0031 3B E7 04                		bne	.L93
 984:C:/Workspace/FW_Platform2_5/trunk/CFG_DishWasher/CFG_Inertia\BusCommPltf_cfg.c ****         {            
 985:C:/Workspace/FW_Platform2_5/trunk/CFG_DishWasher/CFG_Inertia\BusCommPltf_cfg.c ****             BEGIN_CP_SLAVEMANAGER__REQ_FILTER_EETYP8_TYPE()
 711                             		.loc 1 985 0
 712 0034 59 7E 03                		movu.B	3[r7], r14
 713 0037 75 5E 50                		cmp	#0x50, r14
 714 003a 3A 8C 03                		beq	.L105
 715 003d 24 4F                   		bgtu	.L117
 716 003f 75 5E 44                		cmp	#0x44, r14
 717 0042 3A E1 02                		beq	.L99
 718 0045 24 22                   		bgtu	.L118
 719 0047 75 5E 3F                		cmp	#63, r14
 720 004a 3A FF 00                		beq	.L96
 721 004d 24 0B                   		bgtu	.L119
 722 004f 75 5E 20                		cmp	#32, r14
 723 0052 3B 6B 05                		bne	.L200
 724 0055 38 AD 00                		bra	.L95
 725                             	.L119:
 726 0058 75 5E 41                		cmp	#0x41, r14
 727 005b 3A F6 01                		beq	.L97
 728 005e 75 5E 43                		cmp	#0x43, r14
 729 0061 3B 5C 05                		bne	.L200
 730 0064 38 47 02                		bra	.L98
 731                             	.L118:
 732 0067 75 5E 4A                		cmp	#0x4a, r14
 733 006a 20 76                   		beq	.L102
 734 006c 24 11                   		bgtu	.L120
 735 006e 75 5E 46                		cmp	#0x46, r14
 736 0071 3A 30 03                		beq	.L100
 737 0074 75 5E 49                		cmp	#0x49, r14
 738 0077 3B 46 05                		bne	.L200
 739 007a 38 5E 03                		bra	.L101
 740                             	.L120:
 741 007d 75 5E 4E                		cmp	#0x4e, r14
 742 0080 3A 1E 01                		beq	.L103
 743 0083 75 5E 4F                		cmp	#0x4f, r14
 744 0086 3B 37 05                		bne	.L200
 745 0089 38 62 01                		bra	.L104
 746                             	.L117:
 747 008c 75 5E 69                		cmp	#0x69, r14
 748 008f 3A 41 04                		beq	.L111
 749 0092 24 28                   		bgtu	.L121
 750 0094 75 5E 61                		cmp	#0x61, r14
 751 0097 3A 91 03                		beq	.L108
 752 009a 24 11                   		bgtu	.L122
 753 009c 75 5E 5F                		cmp	#0x5f, r14
 754 009f 3A 15 03                		beq	.L106
 755 00a2 75 5E 60                		cmp	#0x60, r14
 756 00a5 3B 18 05                		bne	.L200
 757 00a8 38 42 03                		bra	.L107
 758                             	.L122:
 759 00ab 75 5E 62                		cmp	#0x62, r14
 760 00ae 3A 4F 03                		beq	.L109
 761 00b1 75 5E 63                		cmp	#0x63, r14
 762 00b4 3B 09 05                		bne	.L200
 763 00b7 38 B6 03                		bra	.L110
 764                             	.L121:
 765 00ba 75 5E 6C                		cmp	#0x6c, r14
 766 00bd 3A EF 03                		beq	.L114
 767 00c0 24 11                   		bgtu	.L123
 768 00c2 75 5E 6A                		cmp	#0x6a, r14
 769 00c5 3A 2F 04                		beq	.L112
 770 00c8 75 5E 6B                		cmp	#0x6b, r14
 771 00cb 3B F2 04                		bne	.L200
 772 00ce 38 14 04                		bra	.L113
 773                             	.L123:
 774 00d1 75 5E 6D                		cmp	#0x6d, r14
 775 00d4 3A EA 03                		beq	.L115
 776 00d7 75 5E F8                		cmp	#0xf8, r14
 777 00da 3B E3 04                		bne	.L200
 778 00dd 38 29 04                		bra	.L116
 779                             	.L102:
 780                             	.LVL62:
 781                             	.LBB50:
 782                             	.LBB51:
 732:C:/Workspace/FW_Platform2_5/trunk/CFG_DishWasher/CFG_Inertia\BusCommPltf_cfg.c ****     if(BSLDR_OK == BasicLoader(pdata[0], pdata[1], &Data))
 783                             		.loc 1 732 0
 784 00e0 B1 79                   		movu.B	5[r7], r1
 785 00e2 89 F2                   		mov.B	6[r7], r2
 786 00e4 71 03 10                		add	#16, r0, r3
 726:C:/Workspace/FW_Platform2_5/trunk/CFG_DishWasher/CFG_Inertia\BusCommPltf_cfg.c ****     pinfo->error = (IO_ErrorType)IO_E_UNEXPECTED_CONDITION;
 787                             		.loc 1 726 0
 788 00e7 3C 0A 17                		mov.B	#23, 10[r0]
 732:C:/Workspace/FW_Platform2_5/trunk/CFG_DishWasher/CFG_Inertia\BusCommPltf_cfg.c ****     if(BSLDR_OK == BasicLoader(pdata[0], pdata[1], &Data))
 789                             		.loc 1 732 0
 790 00ea 05 00 00 00             		bsr	_BasicLoader
 791                             	.LVL63:
 792 00ee 61 01                   		cmp	#0, r1
 793 00f0 3B D6 04                		bne	.L125
 734:C:/Workspace/FW_Platform2_5/trunk/CFG_DishWasher/CFG_Inertia\BusCommPltf_cfg.c ****         pinfo->len = (uint16_t) (Data.DataLenght*2);
 794                             		.loc 1 734 0
 795 00f3 B5 07                   		movu.B	20[r0], r7
 796                             	.LVL64:
 736:C:/Workspace/FW_Platform2_5/trunk/CFG_DishWasher/CFG_Inertia\BusCommPltf_cfg.c ****         pinfo->error = (IO_ErrorType)IO_E_OK;
 797                             		.loc 1 736 0
 798 00f5 82 81                   		mov.B	r1, 10[r0]
 734:C:/Workspace/FW_Platform2_5/trunk/CFG_DishWasher/CFG_Inertia\BusCommPltf_cfg.c ****         pinfo->len = (uint16_t) (Data.DataLenght*2);
 799                             		.loc 1 734 0
 800 00f7 4B 77                   		add	r7, r7
 801 00f9 91 07                   		mov.W	r7, 8[r0]
 735:C:/Workspace/FW_Platform2_5/trunk/CFG_DishWasher/CFG_Inertia\BusCommPltf_cfg.c **** 		pinfo->address= (IO_MemPtrType)Data.Data;
 802                             		.loc 1 735 0
 803 00fb A9 07                   		mov.L	16[r0], r7
 804 00fd A0 0F                   		mov.L	r7, 4[r0]
 805 00ff 38 A3 01                		bra	.L207
 806                             	.LVL65:
 807                             	.L95:
 808                             	.LBE51:
 809                             	.LBE50:
 810                             	.LBB52:
 986:C:/Workspace/FW_Platform2_5/trunk/CFG_DishWasher/CFG_Inertia\BusCommPltf_cfg.c ****                 /* General types */
 987:C:/Workspace/FW_Platform2_5/trunk/CFG_DishWasher/CFG_Inertia\BusCommPltf_cfg.c ****     			BEGIN_CP_MATCH_VAL(PP_EE_TYPE_SETTING_DATA_BLOCK)
 988:C:/Workspace/FW_Platform2_5/trunk/CFG_DishWasher/CFG_Inertia\BusCommPltf_cfg.c ****     				CP_CSM_EETYP8_CUSTUMFUNC(USE_CSM_EE_CUSTOM_FUNC(EE_SettingDataBlock))
 989:C:/Workspace/FW_Platform2_5/trunk/CFG_DishWasher/CFG_Inertia\BusCommPltf_cfg.c ****     			END_CP_MATCH_VAL()
 990:C:/Workspace/FW_Platform2_5/trunk/CFG_DishWasher/CFG_Inertia\BusCommPltf_cfg.c ****     			BEGIN_CP_MATCH_VAL(PP_EE_TYPE_WRITE_RAM)
 991:C:/Workspace/FW_Platform2_5/trunk/CFG_DishWasher/CFG_Inertia\BusCommPltf_cfg.c ****     				CP_CSM_EETYP8_WRITERAM(WRRemapTable)
 811                             		.loc 1 991 0
 812 0102 59 7B 06                		movu.B	6[r7], r11
 813 0105 59 7C 04                		movu.B	4[r7], r12
 814                             	.LVL66:
 815 0108 6C 8B                   		shll	#8, r11
 816 010a 55 7B 05                		or	5[r7].UB, r11
 817                             	.LVL67:
 818 010d 71 C2 FD                		add	#-3, r12, r2
 819 0110 4B B2                   		add	r11, r2
 820                             	.LVL68:
 821 0112 5F 22                   		movu.W	r2, r2
 822 0114 47 B2                   		cmp	r11, r2
 823 0116 22 05 38 AE 04          		bltu	.L125
 824 011b 71 0E 18                		add	#24, r0, r14
 825 011e E3 0E                   		mov.L	r14, [r0]
 826 0120 EF B1                   		mov.L	r11, r1
 827 0122 FB 32 00 00 00 00       		mov.L	#_WRRemapTable, r3
 828 0128 66 14                   		mov	#1, r4
 829 012a 05 00 00 00             		bsr	_PP_MappingGetOffset
 830                             	.LVL69:
 831 012e FD 78 C1 80 00          		tst	#0x80, r1
 832 0133 3B 8A 04                		bne	.L200
 833 0136 71 C3 FE                		add	#-2, r12, r3
 834 0139 EF B1                   		mov.L	r11, r1
 835                             	.LVL70:
 836 013b 06 89 01 06             		add	24[r0].L, r1
 837 013f 71 72 07                		add	#7, r7, r2
 838 0142 5F 33                   		movu.W	r3, r3
 839 0144 7F 8F                   		smovf
 840 0146 38 80 04                		bra	.L125
 841                             	.LVL71:
 842                             	.L96:
 843                             	.LBE52:
 844                             	.LBB53:
 992:C:/Workspace/FW_Platform2_5/trunk/CFG_DishWasher/CFG_Inertia\BusCommPltf_cfg.c ****     			END_CP_MATCH_VAL()
 993:C:/Workspace/FW_Platform2_5/trunk/CFG_DishWasher/CFG_Inertia\BusCommPltf_cfg.c ****     			BEGIN_CP_MATCH_VAL(PP_EE_TYPE_READ_FLASH)
 994:C:/Workspace/FW_Platform2_5/trunk/CFG_DishWasher/CFG_Inertia\BusCommPltf_cfg.c ****     			    CP_CSM_EETYP8_READFLASH(RFRemapTable)
 845                             		.loc 1 994 0
 846 0149 59 7B 06                		movu.B	6[r7], r11
 847 014c 59 7E 08                		movu.B	8[r7], r14
 848 014f E7 0C 06                		mov.L	r12, 24[r0]
 849                             	.LVL72:
 850 0152 59 7C 07                		movu.B	7[r7], r12
 851 0155 6C 8B                   		shll	#8, r11
 852 0157 6C 8E                   		shll	#8, r14
 853 0159 55 7B 05                		or	5[r7].UB, r11
 854                             	.LVL73:
 855 015c FF 57 CE                		or	r12, r14, r7
 856                             	.LVL74:
 857 015f 47 7B                   		cmp	r7, r11
 858 0161 DF 72                   		mov.W	r7, r2
 859 0163 DF B1                   		mov.W	r11, r1
 860 0165 25 05 38 5F 04          		bgtu	.L125
 861                             	.LBB54:
 862 016a FF 0B B7                		sub	r11, r7, r11
 863                             	.LVL75:
 864 016d 5F B7                   		movu.W	r11, r7
 865                             	.LVL76:
 866 016f 75 57 FF                		cmp	#0xff, r7
 867 0172 25 05 38 49 04          		bgtu	.L200
 868 0177 71 07 18                		add	#24, r0, r7
 869 017a 62 1B                   		add	#1, r11
 870                             	.LVL77:
 871 017c 5F 11                   		movu.W	r1, r1
 872 017e E3 07                   		mov.L	r7, [r0]
 873 0180 5F 22                   		movu.W	r2, r2
 874 0182 FB 32 00 00 00 00       		mov.L	#_RFRemapTable, r3
 875 0188 66 44                   		mov	#4, r4
 876 018a D7 0B 04                		mov.W	r11, 8[r0]
 877 018d A0 09                   		mov.L	r1, 4[r0]
 878 018f 05 00 00 00             		bsr	_PP_MappingGetOffset
 879                             	.LVL78:
 880 0193 FD 78 C1 80 00          		tst	#0x80, r1
 881 0198 3B 25 04                		bne	.L200
 882 019b 38 17 04                		bra	.L208
 883                             	.LVL79:
 884                             	.L103:
 885                             	.LBE54:
 886                             	.LBE53:
 887                             	.LBB55:
 995:C:/Workspace/FW_Platform2_5/trunk/CFG_DishWasher/CFG_Inertia\BusCommPltf_cfg.c ****     		    END_CP_MATCH_VAL()
 996:C:/Workspace/FW_Platform2_5/trunk/CFG_DishWasher/CFG_Inertia\BusCommPltf_cfg.c ****     		    BEGIN_CP_MATCH_VAL(PP_EE_TYPE_ERASE_FLASH_PAGE)
 997:C:/Workspace/FW_Platform2_5/trunk/CFG_DishWasher/CFG_Inertia\BusCommPltf_cfg.c ****     				CP_CSM_EETYP8_ERASEFLASH(RFRemapTable)
 888                             		.loc 1 997 0
 889 019e 59 7B 06                		movu.B	6[r7], r11
 890 01a1 71 0C 18                		add	#24, r0, r12
 891 01a4 6C 8B                   		shll	#8, r11
 892 01a6 49 7B 05                		add	5[r7].UB, r11
 893 01a9 5F B7                   		movu.W	r11, r7
 894                             	.LVL80:
 895 01ab E3 0C                   		mov.L	r12, [r0]
 896 01ad EF 71                   		mov.L	r7, r1
 897 01af EF 72                   		mov.L	r7, r2
 898 01b1 FB 32 00 00 00 00       		mov.L	#_RFRemapTable, r3
 899 01b7 66 44                   		mov	#4, r4
 900 01b9 3E 06 00                		mov.L	#0, 24[r0]
 901                             	.LVL81:
 902 01bc 05 00 00 00             		bsr	_PP_MappingGetOffset
 903                             	.LVL82:
 904 01c0 FD 78 C1 80 00          		tst	#0x80, r1
 905 01c5 3B F8 03                		bne	.L200
 906 01c8 EF 72                   		mov.L	r7, r2
 907 01ca C7 0B 11                		mov.B	r11, 17[r0]
 908 01cd 06 89 02 06             		add	24[r0].L, r2
 909 01d1 FD 88 7B                		shlr	#8, r7, r11
 910 01d4 66 11                   		mov.L	#1, r1
 911 01d6 C7 0B 12                		mov.B	r11, 18[r0]
 912                             	.LVL83:
 913 01d9 05 00 00 00             		bsr	_OCFLS_REraseSync
 914                             	.LVL84:
 915 01dd 5B 11                   		movu.B	r1, r1
 916 01df 61 01                   		cmp	#0, r1
 917 01e1 FC DB 11                		scne.L	r1
 918 01e4 84 01                   		mov.B	r1, 16[r0]
 919 01e6 3C 0A 00                		mov.B	#0, 10[r0]
 920 01e9 2E 57                   		bra	.L205
 921                             	.LVL85:
 922                             	.L104:
 923                             	.LBE55:
 924                             	.LBB56:
 998:C:/Workspace/FW_Platform2_5/trunk/CFG_DishWasher/CFG_Inertia\BusCommPltf_cfg.c ****     			END_CP_MATCH_VAL()
 999:C:/Workspace/FW_Platform2_5/trunk/CFG_DishWasher/CFG_Inertia\BusCommPltf_cfg.c ****     			BEGIN_CP_MATCH_VAL(PP_EE_TYPE_WRITE_FLASH)
1000:C:/Workspace/FW_Platform2_5/trunk/CFG_DishWasher/CFG_Inertia\BusCommPltf_cfg.c ****     				CP_CSM_EETYP8_WRITEFLASH(RFRemapTable)
 925                             		.loc 1 1000 0
 926 01eb 59 7E 06                		movu.B	6[r7], r14
 927 01ee B1 72                   		movu.B	4[r7], r2
 928 01f0 6C 8E                   		shll	#8, r14
 929 01f2 49 7E 05                		add	5[r7].UB, r14
 930 01f5 60 32                   		sub	#3, r2
 931 01f7 4B E2                   		add	r14, r2
 932 01f9 5F EB                   		movu.W	r14, r11
 933                             	.LVL86:
 934 01fb 5F 22                   		movu.W	r2, r2
 935 01fd 3E 06 00                		mov.L	#0, 24[r0]
 936                             	.LVL87:
 937 0200 47 B2                   		cmp	r11, r2
 938 0202 DF EC                   		mov.W	r14, r12
 939 0204 22 05 38 C0 03          		bltu	.L125
 940 0209 71 0E 18                		add	#24, r0, r14
 941 020c E3 0E                   		mov.L	r14, [r0]
 942 020e EF B1                   		mov.L	r11, r1
 943 0210 FB 32 00 00 00 00       		mov.L	#_RFRemapTable, r3
 944 0216 66 44                   		mov	#4, r4
 945 0218 05 00 00 00             		bsr	_PP_MappingGetOffset
 946                             	.LVL88:
 947 021c FD 78 C1 80 00          		tst	#0x80, r1
 948 0221 3B 9C 03                		bne	.L200
 949 0224 B1 72                   		movu.B	4[r7], r2
 950 0226 EF B3                   		mov.L	r11, r3
 951 0228 C7 0C 11                		mov.B	r12, 17[r0]
 952 022b 71 71 07                		add	#7, r7, r1
 953 022e FD 88 BC                		shlr	#8, r11, r12
 954 0231 60 22                   		sub	#2, r2
 955 0233 06 89 03 06             		add	24[r0].L, r3
 956 0237 C7 0C 12                		mov.B	r12, 18[r0]
 957                             	.LVL89:
 958 023a 05 00 00 00             		bsr	_OCFLS_RWriteSync
 959                             	.LVL90:
 960 023e 84 01                   		mov.B	r1, 16[r0]
 961                             	.LVL91:
 962                             		.balign 2,3,5
 963                             	.L205:
 964 0240 8A 8F                   		mov.B	11[r0], r7
 965 0242 3D 04 03                		mov.W	#3, 8[r0]
 966 0245 65 17                   		or	#1, r7
 967 0247 82 8F                   		mov.B	r7, 11[r0]
 968 0249 71 07 10                		add	#16, r0, r7
 969 024c A0 0F                   		mov.L	r7, 4[r0]
 970 024e 38 78 03                		bra	.L125
 971                             	.LVL92:
 972                             	.L97:
 973                             	.LBE56:
1001:C:/Workspace/FW_Platform2_5/trunk/CFG_DishWasher/CFG_Inertia\BusCommPltf_cfg.c ****     			END_CP_MATCH_VAL()
1002:C:/Workspace/FW_Platform2_5/trunk/CFG_DishWasher/CFG_Inertia\BusCommPltf_cfg.c **** #if defined(CONFIG_CP_EXTENDED_REQUESTS_ENABLED)
1003:C:/Workspace/FW_Platform2_5/trunk/CFG_DishWasher/CFG_Inertia\BusCommPltf_cfg.c ****     			BEGIN_CP_MATCH_VAL(PP_EE_TYPE_READMEMORY_EXTENDED)
1004:C:/Workspace/FW_Platform2_5/trunk/CFG_DishWasher/CFG_Inertia\BusCommPltf_cfg.c ****     				CP_CSM_EETYP8_EXTENDEDMEMORYREADING(ProtocolReadingAccessTable)
 974                             		.loc 1 1004 0
 975 0251 59 7B 04                		movu.B	4[r7], r11
 976 0254 61 5B                   		cmp	#5, r11
 977 0256 3B 67 03                		bne	.L200
 978                             	.LVL93:
 979                             	.LBB57:
 980 0259 59 7E 06                		movu.B	6[r7], r14
 981 025c 62 57                   		add	#5, r7
 982                             	.LVL94:
 983 025e 59 7B 02                		movu.B	2[r7], r11
 984 0261 EC 7C                   		mov.L	[r7], r12
 985 0263 6C 8E                   		shll	#8, r14
 986 0265 6D 0B                   		shll	#16, r11
 987 0267 57 EB                   		or	r14, r11
 988 0269 FD 98 CE                		shlr	#24, r12, r14
 989 026c 57 EB                   		or	r14, r11
 990 026e 6D 8C                   		shll	#24, r12
 991 0270 57 CB                   		or	r12, r11
 992                             	.LVL95:
 993 0272 59 7C 04                		movu.B	4[r7], r12
 994                             	.LVL96:
 995 0275 61 0C                   		cmp	#0, r12
 996 0277 DF C7                   		mov.W	r12, r7
 997                             	.LVL97:
 998 0279 21 07                   		bne	.L136
 999 027b FB 7A 00 01             		mov	#0x100, r7
 1000 027f 03                      		.balign 2,3,5
 1001                             	.L136:
 1002                             	.LVL98:
 1003 0280 FB 12 00 00 00 00       		mov.L	#_ProtocolReadingAccessTable, r1
 1004 0286 66 32                   		mov	#3, r2
 1005 0288 EF B3                   		mov.L	r11, r3
 1006 028a DF 74                   		mov.W	r7, r4
 1007 028c 05 00 00 00             		bsr	_PP_IsAccessAllowed
 1008                             	.LVL99:
 1009 0290 FD 78 C1 80 00          		tst	#0x80, r1
 1010 0295 3B 28 03                		bne	.L200
 1011 0298 91 07                   		mov.W	r7, 8[r0]
 1012 029a E7 0B 01                		mov.L	r11, 4[r0]
 1013                             	.LVL100:
 1014 029d 03                      		.balign 2,3,4
 1015                             	.L206:
 1016 029e 3C 0A 00                		mov.B	#0, 10[r0]
 1017 02a1 03                      		.balign 2,3,5
 1018                             	.L207:
 1019 02a2 8A 8F                   		mov.B	11[r0], r7
 1020 02a4 65 17                   		or	#1, r7
 1021 02a6 82 8F                   		mov.B	r7, 11[r0]
 1022 02a8 38 1E 03                		bra	.L125
 1023                             	.LVL101:
 1024                             	.L98:
 1025                             	.LBE57:
1005:C:/Workspace/FW_Platform2_5/trunk/CFG_DishWasher/CFG_Inertia\BusCommPltf_cfg.c **** 				END_CP_MATCH_VAL()
1006:C:/Workspace/FW_Platform2_5/trunk/CFG_DishWasher/CFG_Inertia\BusCommPltf_cfg.c **** 				BEGIN_CP_MATCH_VAL(PP_EE_TYPE_ERASEFLSMEMORY_EXTENDED)
1007:C:/Workspace/FW_Platform2_5/trunk/CFG_DishWasher/CFG_Inertia\BusCommPltf_cfg.c **** 					CP_CSM_EETYP8_EXTENDEDFLSMEMORYERASING(ProtocolErasingAccessTable)
 1026                             		.loc 1 1007 0
 1027 02ab 59 7B 04                		movu.B	4[r7], r11
 1028 02ae 61 4B                   		cmp	#4, r11
 1029 02b0 3B 0D 03                		bne	.L200
 1030                             	.LVL102:
 1031                             	.LBB58:
 1032 02b3 59 7E 06                		movu.B	6[r7], r14
 1033 02b6 59 7C 07                		movu.B	7[r7], r12
 1034 02b9 71 7B 05                		add	#5, r7, r11
 1035 02bc 6D 0C                   		shll	#16, r12
 1036 02be 6C 8E                   		shll	#8, r14
 1037 02c0 57 CE                   		or	r12, r14
 1038 02c2 59 BB 03                		movu.B	3[r11], r11
 1039 02c5 59 7C 05                		movu.B	5[r7], r12
 1040 02c8 6D 8B                   		shll	#24, r11
 1041 02ca FF 57 CE                		or	r12, r14, r7
 1042                             	.LVL103:
 1043 02cd 57 B7                   		or	r11, r7
 1044                             	.LVL104:
 1045 02cf FB 12 00 00 00 00       		mov.L	#_ProtocolErasingAccessTable, r1
 1046 02d5 66 22                   		mov	#2, r2
 1047 02d7 EF 73                   		mov.L	r7, r3
 1048 02d9 66 14                   		mov	#1, r4
 1049 02db 05 00 00 00             		bsr	_PP_IsAccessAllowed
 1050                             	.LVL105:
 1051 02df FD 78 C1 80 00          		tst	#0x80, r1
 1052 02e4 3B D9 02                		bne	.L200
 1053 02e7 CD 0B 0B                		mov.B	11[r0], r11
 1054 02ea EF 72                   		mov.L	r7, r2
 1055 02ec 65 1B                   		or	#1, r11
 1056 02ee 66 11                   		mov.L	#1, r1
 1057 02f0 A0 0F                   		mov.L	r7, 4[r0]
 1058 02f2 C7 0B 0B                		mov.B	r11, 11[r0]
 1059 02f5 3C 0A 00                		mov.B	#0, 10[r0]
 1060 02f8 05 00 00 00             		bsr	_OCFLS_REraseSync
 1061                             	.LVL106:
 1062 02fc 71 0B 10                		add	#16, r0, r11
 1063 02ff 5B 11                   		movu.B	r1, r1
 1064 0301 61 01                   		cmp	#0, r1
 1065 0303 FC DB 11                		scne.L	r1
 1066                             	.LVL107:
 1067 0306 E7 0B 01                		mov.L	r11, 4[r0]
 1068 0309 FD 88 7B                		shlr	#8, r7, r11
 1069 030c 84 0F                   		mov.B	r7, 17[r0]
 1070 030e C7 0B 12                		mov.B	r11, 18[r0]
 1071 0311 FD 90 7B                		shlr	#16, r7, r11
 1072 0314 69 87                   		shlr	#24, r7
 1073                             	.LVL108:
 1074 0316 3D 04 05                		mov.W	#5, 8[r0]
 1075 0319 84 01                   		mov.B	r1, 16[r0]
 1076 031b C7 0B 13                		mov.B	r11, 19[r0]
 1077 031e 85 07                   		mov.B	r7, 20[r0]
 1078 0320 38 A6 02                		bra	.L125
 1079                             	.LVL109:
 1080                             	.L99:
 1081                             	.LBE58:
1008:C:/Workspace/FW_Platform2_5/trunk/CFG_DishWasher/CFG_Inertia\BusCommPltf_cfg.c **** 				END_CP_MATCH_VAL()
1009:C:/Workspace/FW_Platform2_5/trunk/CFG_DishWasher/CFG_Inertia\BusCommPltf_cfg.c **** 				BEGIN_CP_MATCH_VAL(PP_EE_TYPE_WRITEFLSMEMORY_EXTENDED)
1010:C:/Workspace/FW_Platform2_5/trunk/CFG_DishWasher/CFG_Inertia\BusCommPltf_cfg.c **** 					CP_CSM_EETYP8_EXTENDEDFLSMEMORYWRITING(ProtocolWritingAccessTable)
 1082                             		.loc 1 1010 0
 1083 0323 89 74                   		mov.B	4[r7], r4
 1084 0325 71 4B FF                		add	#-1, r4, r11
 1085 0328 5B BB                   		movu.B	r11, r11
 1086 032a 61 3B                   		cmp	#3, r11
 1087 032c 24 05 38 8F 02          		bleu	.L200
 1088                             	.LVL110:
 1089                             	.LBB59:
 1090 0331 B1 F3                   		movu.B	6[r7], r3
 1091 0333 59 7B 07                		movu.B	7[r7], r11
 1092 0336 6C 83                   		shll	#8, r3
 1093 0338 6D 0B                   		shll	#16, r11
 1094 033a 59 7E 08                		movu.B	8[r7], r14
 1095 033d 57 3B                   		or	r3, r11
 1096 033f 55 7B 05                		or	5[r7].UB, r11
 1097 0342 6D 8E                   		shll	#24, r14
 1098 0344 57 EB                   		or	r14, r11
 1099                             	.LVL111:
 1100 0346 5B 44                   		movu.B	r4, r4
 1101 0348 60 44                   		sub	#4, r4
 1102 034a FB 12 00 00 00 00       		mov.L	#_ProtocolWritingAccessTable, r1
 1103 0350 66 32                   		mov	#3, r2
 1104 0352 EF B3                   		mov.L	r11, r3
 1105 0354 05 00 00 00             		bsr	_PP_IsAccessAllowed
 1106                             	.LVL112:
 1107 0358 FD 78 C1 80 00          		tst	#0x80, r1
 1108 035d 3B 60 02                		bne	.L200
 1109 0360 B1 72                   		movu.B	4[r7], r2
 1110 0362 C7 0C 0A                		mov.B	r12, 10[r0]
 1111 0365 CD 0C 0B                		mov.B	11[r0], r12
 1112 0368 71 71 09                		add	#9, r7, r1
 1113 036b 65 1C                   		or	#1, r12
 1114 036d 60 42                   		sub	#4, r2
 1115 036f EF B3                   		mov.L	r11, r3
 1116 0371 E7 0B 01                		mov.L	r11, 4[r0]
 1117 0374 C7 0C 0B                		mov.B	r12, 11[r0]
 1118 0377 05 00 00 00             		bsr	_OCFLS_RWriteSync
 1119                             	.LVL113:
 1120 037b 71 07 10                		add	#16, r0, r7
 1121                             	.LVL114:
 1122 037e 5B 11                   		movu.B	r1, r1
 1123 0380 61 01                   		cmp	#0, r1
 1124 0382 FC DB 11                		scne.L	r1
 1125                             	.LVL115:
 1126 0385 A0 0F                   		mov.L	r7, 4[r0]
 1127 0387 FD 88 B7                		shlr	#8, r11, r7
 1128 038a C7 0B 11                		mov.B	r11, 17[r0]
 1129 038d 84 87                   		mov.B	r7, 18[r0]
 1130 038f FD 90 B7                		shlr	#16, r11, r7
 1131 0392 69 8B                   		shlr	#24, r11
 1132                             	.LVL116:
 1133 0394 3D 04 05                		mov.W	#5, 8[r0]
 1134 0397 84 01                   		mov.B	r1, 16[r0]
 1135 0399 84 8F                   		mov.B	r7, 19[r0]
 1136 039b C7 0B 14                		mov.B	r11, 20[r0]
 1137 039e 38 28 02                		bra	.L125
 1138                             	.LVL117:
 1139                             	.L100:
 1140                             	.LBE59:
1011:C:/Workspace/FW_Platform2_5/trunk/CFG_DishWasher/CFG_Inertia\BusCommPltf_cfg.c **** 				END_CP_MATCH_VAL()
1012:C:/Workspace/FW_Platform2_5/trunk/CFG_DishWasher/CFG_Inertia\BusCommPltf_cfg.c **** 				BEGIN_CP_MATCH_VAL(PP_EE_TYPE_EXTENDED_IDENT_REQ)
1013:C:/Workspace/FW_Platform2_5/trunk/CFG_DishWasher/CFG_Inertia\BusCommPltf_cfg.c **** 					CP_CSM_EETYP8_READ_APPLDATA(USE_CSM_EE_CTRL(Ctrl_IdentRequest), CPApplianceDataTable[CP_APPLDA
 1141                             		.loc 1 1013 0
 1142 03a1 FB B2 00 00 00 00       		mov.L	#_CPApplianceDataTable, r11
 1143 03a7 ED B3 02                		mov.L	8[r11], r3
 1144 03aa 61 03                   		cmp	#0, r3
 1145 03ac 3A 11 02                		beq	.L200
 1146 03af DD BB 06                		mov.W	12[r11], r11
 1147 03b2 2E 5C                   		bra	.L214
 1148                             	.L106:
1014:C:/Workspace/FW_Platform2_5/trunk/CFG_DishWasher/CFG_Inertia\BusCommPltf_cfg.c **** 				END_CP_MATCH_VAL()
1015:C:/Workspace/FW_Platform2_5/trunk/CFG_DishWasher/CFG_Inertia\BusCommPltf_cfg.c **** #endif
1016:C:/Workspace/FW_Platform2_5/trunk/CFG_DishWasher/CFG_Inertia\BusCommPltf_cfg.c **** 
1017:C:/Workspace/FW_Platform2_5/trunk/CFG_DishWasher/CFG_Inertia\BusCommPltf_cfg.c **** 
1018:C:/Workspace/FW_Platform2_5/trunk/CFG_DishWasher/CFG_Inertia\BusCommPltf_cfg.c **** 
1019:C:/Workspace/FW_Platform2_5/trunk/CFG_DishWasher/CFG_Inertia\BusCommPltf_cfg.c ****     		    
1020:C:/Workspace/FW_Platform2_5/trunk/CFG_DishWasher/CFG_Inertia\BusCommPltf_cfg.c ****     		    BEGIN_CP_MATCH_VAL(PP_EE_TYPE_SYSTEMMODE)
1021:C:/Workspace/FW_Platform2_5/trunk/CFG_DishWasher/CFG_Inertia\BusCommPltf_cfg.c ****     				CP_CSM_EETYP8_CUSTUMFUNC(USE_CSM_EE_CUSTOM_FUNC(EE_SystemMode))
 1149                             		.loc 1 1021 0
 1150 03b4 89 73                   		mov.B	4[r7], r3
 1151 03b6 66 44                   		mov.L	#4, r4
 1152 03b8 CF A1                   		mov.B	r10, r1
 1153 03ba 71 72 05                		add	#5, r7, r2
 1154 03bd 4B 04                   		add	r0, r4
 1155 03bf 05 00 00 00             		bsr	_CMS_EE_FUNC_EE_SystemMode
 1156                             	.LVL118:
 1157 03c3 38 03 02                		bra	.L125
 1158                             	.L105:
1022:C:/Workspace/FW_Platform2_5/trunk/CFG_DishWasher/CFG_Inertia\BusCommPltf_cfg.c ****     			END_CP_MATCH_VAL()
1023:C:/Workspace/FW_Platform2_5/trunk/CFG_DishWasher/CFG_Inertia\BusCommPltf_cfg.c ****     			
1024:C:/Workspace/FW_Platform2_5/trunk/CFG_DishWasher/CFG_Inertia\BusCommPltf_cfg.c ****     			BEGIN_CP_MATCH_VAL(PP_EE_TYPE_LOADS)
1025:C:/Workspace/FW_Platform2_5/trunk/CFG_DishWasher/CFG_Inertia\BusCommPltf_cfg.c ****     				CP_CSM_EETYP8_CUSTUMFUNC(USE_CSM_EE_CUSTOM_FUNC(EE_SetLoads))
 1159                             		.loc 1 1025 0
 1160 03c6 89 73                   		mov.B	4[r7], r3
 1161 03c8 66 44                   		mov.L	#4, r4
 1162 03ca CF A1                   		mov.B	r10, r1
 1163 03cc 71 72 05                		add	#5, r7, r2
 1164 03cf 4B 04                   		add	r0, r4
 1165 03d1 05 00 00 00             		bsr	_CMS_EE_FUNC_EE_SetLoads
 1166                             	.LVL119:
 1167 03d5 38 F1 01                		bra	.L125
 1168                             	.L101:
1026:C:/Workspace/FW_Platform2_5/trunk/CFG_DishWasher/CFG_Inertia\BusCommPltf_cfg.c ****     			END_CP_MATCH_VAL()
1027:C:/Workspace/FW_Platform2_5/trunk/CFG_DishWasher/CFG_Inertia\BusCommPltf_cfg.c ****     		    
1028:C:/Workspace/FW_Platform2_5/trunk/CFG_DishWasher/CFG_Inertia\BusCommPltf_cfg.c ****     		    /* Application */
1029:C:/Workspace/FW_Platform2_5/trunk/CFG_DishWasher/CFG_Inertia\BusCommPltf_cfg.c ****     		    BEGIN_CP_MATCH_VAL(PP_EE_TYPE_IDENT)
1030:C:/Workspace/FW_Platform2_5/trunk/CFG_DishWasher/CFG_Inertia\BusCommPltf_cfg.c ****     			    CP_CSM_EETYP8_READ_APPLDATA(USE_CSM_EE_CTRL(Ctrl_IdentRequest), CPApplianceDataTable[CP_
 1169                             		.loc 1 1030 0
 1170 03d8 FB B2 00 00 00 00       		mov.L	#_CPApplianceDataTable, r11
 1171 03de EC B3                   		mov.L	[r11], r3
 1172 03e0 61 03                   		cmp	#0, r3
 1173 03e2 3A DB 01                		beq	.L200
 1174 03e5 DD BB 02                		mov.W	4[r11], r11
 1175 03e8 2E 26                   		bra	.L214
 1176                             	.L107:
1031:C:/Workspace/FW_Platform2_5/trunk/CFG_DishWasher/CFG_Inertia\BusCommPltf_cfg.c ****     			END_CP_MATCH_VAL()
1032:C:/Workspace/FW_Platform2_5/trunk/CFG_DishWasher/CFG_Inertia\BusCommPltf_cfg.c ****     			
1033:C:/Workspace/FW_Platform2_5/trunk/CFG_DishWasher/CFG_Inertia\BusCommPltf_cfg.c ****     			BEGIN_CP_MATCH_VAL(PP_EE_TYPE_READ_STATUS)
1034:C:/Workspace/FW_Platform2_5/trunk/CFG_DishWasher/CFG_Inertia\BusCommPltf_cfg.c ****     			    CP_CSM_EETYP8_READ_APPLDATA(USE_CSM_EE_CTRL(Ctrl_StatusRequest), CPApplianceDataTable[CP
 1177                             		.loc 1 1034 0
 1178 03ea FB B2 00 00 00 00       		mov.L	#_CPApplianceDataTable, r11
 1179 03f0 ED B3 04                		mov.L	16[r11], r3
 1180 03f3 61 03                   		cmp	#0, r3
 1181 03f5 3A C8 01                		beq	.L200
 1182 03f8 DD BB 0A                		mov.W	20[r11], r11
 1183 03fb 2E 13                   		bra	.L214
 1184                             	.L109:
 1185                             	.LBB60:
 1186                             	.LBB61:
 966:C:/Workspace/FW_Platform2_5/trunk/CFG_DishWasher/CFG_Inertia\BusCommPltf_cfg.c ****     if(FALSE == CBF_OnReadRegulations() )
 1187                             		.loc 1 966 0
 1188 03fd 05 00 00 00             		bsr	_CBF_OnReadRegulations
 1189                             	.LVL120:
 1190 0401 5B 11                   		movu.B	r1, r1
 1191 0403 61 01                   		cmp	#0, r1
 1192 0405 3A B8 01                		beq	.L200
 1193 0408 38 DE 01                		bra	.L198
 1194                             	.L202:
 1195                             	.LBE61:
 1196                             	.LBE60:
1035:C:/Workspace/FW_Platform2_5/trunk/CFG_DishWasher/CFG_Inertia\BusCommPltf_cfg.c ****     			END_CP_MATCH_VAL()
1036:C:/Workspace/FW_Platform2_5/trunk/CFG_DishWasher/CFG_Inertia\BusCommPltf_cfg.c ****     			
1037:C:/Workspace/FW_Platform2_5/trunk/CFG_DishWasher/CFG_Inertia\BusCommPltf_cfg.c ****     			BEGIN_CP_MATCH_VAL(PP_EE_TYPE_READ_REGS)
1038:C:/Workspace/FW_Platform2_5/trunk/CFG_DishWasher/CFG_Inertia\BusCommPltf_cfg.c ****     			    CP_CSM_EETYP8_READ_APPLDATA(USE_CSM_EE_CTRL(Ctrl_ReadRegsRequest), CPApplianceDataTable[
 1197                             		.loc 1 1038 0
 1198 040b DD BB 0E                		mov.W	28[r11], r11
 1199                             		.balign 2,3,1
 1200                             	.L214:
 1201 040e 5F BC                   		movu.W	r11, r12
 1202 0410 61 0C                   		cmp	#0, r12
 1203 0412 21 05                   		bne	.L150
 1204 0414 38 A9 01                		bra	.L200
 1205                             	.L150:
 1206 0417 66 44                   		mov.L	#4, r4
 1207 0419 D3 0B                   		mov.W	r11, [r0]
 1208 041b 66 51                   		mov	#5, r1
 1209 041d EF 72                   		mov.L	r7, r2
 1210 041f 4B 04                   		add	r0, r4
 1211 0421 05 00 00 00             		bsr	_CP_SlaveManager__Read_ApplData
 1212                             	.LVL121:
 1213 0425 38 A1 01                		bra	.L125
 1214                             	.L108:
 1215                             	.LBB62:
 1216                             	.LBB63:
 945:C:/Workspace/FW_Platform2_5/trunk/CFG_DishWasher/CFG_Inertia\BusCommPltf_cfg.c **** 	if(CBF_OnWriteRegulations() == FALSE)
 1217                             		.loc 1 945 0
 1218 0428 05 00 00 00             		bsr	_CBF_OnWriteRegulations
 1219                             	.LVL122:
 1220 042c 5B 11                   		movu.B	r1, r1
 1221 042e 61 01                   		cmp	#0, r1
 1222 0430 3A 8D 01                		beq	.L200
 1223 0433 38 C3 01                		bra	.L199
 1224                             	.L203:
 1225                             	.LBE63:
 1226                             	.LBE62:
1039:C:/Workspace/FW_Platform2_5/trunk/CFG_DishWasher/CFG_Inertia\BusCommPltf_cfg.c ****     			END_CP_MATCH_VAL()
1040:C:/Workspace/FW_Platform2_5/trunk/CFG_DishWasher/CFG_Inertia\BusCommPltf_cfg.c ****     			
1041:C:/Workspace/FW_Platform2_5/trunk/CFG_DishWasher/CFG_Inertia\BusCommPltf_cfg.c ****     			BEGIN_CP_MATCH_VAL(PP_EE_TYPE_WRITE_REGS)
1042:C:/Workspace/FW_Platform2_5/trunk/CFG_DishWasher/CFG_Inertia\BusCommPltf_cfg.c ****     			    CP_CSM_EETYP8_WRITE_APPLDATA(USE_CSM_EE_CTRL(Ctrl_WriteRegsRequest), CPApplianceDataTabl
 1227                             		.loc 1 1042 0
 1228 0436 5D BB 12                		movu.W	36[r11], r11
 1229 0439 FB C2 00 00 00 00       		mov.L	#_CPApplianceDataTable, r12
 1230 043f 61 0B                   		cmp	#0, r11
 1231 0441 3A 7C 01                		beq	.L200
 1232 0444 59 7E 04                		movu.B	4[r7], r14
 1233 0447 47 BE                   		cmp	r11, r14
 1234 0449 25 05                   		bleu	.L153
 1235 044b 38 72 01                		bra	.L200
 1236                             	.L153:
 1237 044e 05 00 00 00             		bsr	_UseRegs
 1238                             	.LVL123:
 1239 0452 ED C3 08                		mov.L	32[r12], r3
 1240 0455 DD CC 12                		mov.W	36[r12], r12
 1241 0458 66 44                   		mov.L	#4, r4
 1242 045a 66 41                   		mov	#4, r1
 1243 045c EF 72                   		mov.L	r7, r2
 1244 045e 4B 04                   		add	r0, r4
 1245 0460 D3 0C                   		mov.W	r12, [r0]
 1246 0462 05 00 00 00             		bsr	_CP_SlaveManager__Write_ApplData
 1247                             	.LVL124:
 1248 0466 05 00 00 00             		bsr	_UnuseRegs
 1249                             	.LVL125:
 1250 046a 38 5C 01                		bra	.L125
 1251                             	.L110:
1043:C:/Workspace/FW_Platform2_5/trunk/CFG_DishWasher/CFG_Inertia\BusCommPltf_cfg.c ****     			END_CP_MATCH_VAL()
1044:C:/Workspace/FW_Platform2_5/trunk/CFG_DishWasher/CFG_Inertia\BusCommPltf_cfg.c ****     			
1045:C:/Workspace/FW_Platform2_5/trunk/CFG_DishWasher/CFG_Inertia\BusCommPltf_cfg.c ****     			BEGIN_CP_MATCH_VAL(PP_EE_TYPE_WRITE_UIINFO)
1046:C:/Workspace/FW_Platform2_5/trunk/CFG_DishWasher/CFG_Inertia\BusCommPltf_cfg.c ****     			    CP_CSM_EETYP8_WRITE_APPLDATA(USE_CSM_EE_CTRL(Ctrl_WriteUIInfoRequest), CPApplianceDataTa
 1252                             		.loc 1 1046 0
 1253 046d FB B2 00 00 00 00       		mov.L	#_CPApplianceDataTable, r11
 1254 0473 ED BC 0A                		mov.L	40[r11], r12
 1255 0476 61 0C                   		cmp	#0, r12
 1256 0478 3A 45 01                		beq	.L200
 1257 047b 5D BC 16                		movu.W	44[r11], r12
 1258 047e 61 0C                   		cmp	#0, r12
 1259 0480 3A 3D 01                		beq	.L200
 1260 0483 59 7E 04                		movu.B	4[r7], r14
 1261 0486 47 CE                   		cmp	r12, r14
 1262 0488 25 05                   		bleu	.L155
 1263 048a 38 33 01                		bra	.L200
 1264                             	.L155:
 1265 048d 05 00 00 00             		bsr	_UseUiInfo
 1266                             	.LVL126:
 1267 0491 ED B3 0A                		mov.L	40[r11], r3
 1268 0494 DD BB 16                		mov.W	44[r11], r11
 1269 0497 66 44                   		mov.L	#4, r4
 1270 0499 66 41                   		mov	#4, r1
 1271 049b EF 72                   		mov.L	r7, r2
 1272 049d 4B 04                   		add	r0, r4
 1273 049f D3 0B                   		mov.W	r11, [r0]
 1274 04a1 05 00 00 00             		bsr	_CP_SlaveManager__Write_ApplData
 1275                             	.LVL127:
 1276 04a5 05 00 00 00             		bsr	_UnuseUiInfo
 1277                             	.LVL128:
 1278 04a9 38 1D 01                		bra	.L125
 1279                             	.L114:
1047:C:/Workspace/FW_Platform2_5/trunk/CFG_DishWasher/CFG_Inertia\BusCommPltf_cfg.c ****     			END_CP_MATCH_VAL()
1048:C:/Workspace/FW_Platform2_5/trunk/CFG_DishWasher/CFG_Inertia\BusCommPltf_cfg.c ****                           
1049:C:/Workspace/FW_Platform2_5/trunk/CFG_DishWasher/CFG_Inertia\BusCommPltf_cfg.c **** #if defined(CONFIG_LIB_EXTERNAL_BOARD_SUPPORT)
1050:C:/Workspace/FW_Platform2_5/trunk/CFG_DishWasher/CFG_Inertia\BusCommPltf_cfg.c **** 				BEGIN_CP_MATCH_VAL(PP_EE_TYPE_DSP_READ_EXT_RAM)
1051:C:/Workspace/FW_Platform2_5/trunk/CFG_DishWasher/CFG_Inertia\BusCommPltf_cfg.c **** 					CP_CSM_EETYP8_CUSTUMFUNC(USE_CSM_EE_CUSTOM_FUNC(Ctrl_DspReadRamRequest))
 1280                             		.loc 1 1051 0
 1281 04ac 89 73                   		mov.B	4[r7], r3
 1282 04ae 66 44                   		mov.L	#4, r4
 1283 04b0 CF A1                   		mov.B	r10, r1
 1284 04b2 71 72 05                		add	#5, r7, r2
 1285 04b5 4B 04                   		add	r0, r4
 1286 04b7 05 00 00 00             		bsr	_CMS_EE_FUNC_Ctrl_DspReadRamRequest
 1287                             	.LVL129:
 1288 04bb 38 0B 01                		bra	.L125
 1289                             	.L115:
1052:C:/Workspace/FW_Platform2_5/trunk/CFG_DishWasher/CFG_Inertia\BusCommPltf_cfg.c ****     			END_CP_MATCH_VAL()
1053:C:/Workspace/FW_Platform2_5/trunk/CFG_DishWasher/CFG_Inertia\BusCommPltf_cfg.c ****                           
1054:C:/Workspace/FW_Platform2_5/trunk/CFG_DishWasher/CFG_Inertia\BusCommPltf_cfg.c ****                 BEGIN_CP_MATCH_VAL(PP_EE_TYPE_DSP_WRITE_EXT_RAM)
1055:C:/Workspace/FW_Platform2_5/trunk/CFG_DishWasher/CFG_Inertia\BusCommPltf_cfg.c ****                 	CP_CSM_EETYP8_CUSTUMFUNC(USE_CSM_EE_CUSTOM_FUNC(Ctrl_DspWriteRamRequest))
 1290                             		.loc 1 1055 0
 1291 04be 89 73                   		mov.B	4[r7], r3
 1292 04c0 66 44                   		mov.L	#4, r4
 1293 04c2 CF A1                   		mov.B	r10, r1
 1294 04c4 71 72 05                		add	#5, r7, r2
 1295 04c7 4B 04                   		add	r0, r4
 1296 04c9 05 00 00 00             		bsr	_CMS_EE_FUNC_Ctrl_DspWriteRamRequest
 1297                             	.LVL130:
 1298 04cd 38 F9 00                		bra	.L125
 1299                             	.L111:
1056:C:/Workspace/FW_Platform2_5/trunk/CFG_DishWasher/CFG_Inertia\BusCommPltf_cfg.c ****     			END_CP_MATCH_VAL()
1057:C:/Workspace/FW_Platform2_5/trunk/CFG_DishWasher/CFG_Inertia\BusCommPltf_cfg.c ****                         
1058:C:/Workspace/FW_Platform2_5/trunk/CFG_DishWasher/CFG_Inertia\BusCommPltf_cfg.c ****                 BEGIN_CP_MATCH_VAL(PP_EE_TYPE_DSP_EXTRA_REQ_RAM)
1059:C:/Workspace/FW_Platform2_5/trunk/CFG_DishWasher/CFG_Inertia\BusCommPltf_cfg.c ****                 	CP_CSM_EETYP8_CUSTUMFUNC(USE_CSM_EE_CUSTOM_FUNC(Ctrl_DspExtraRequest))
 1300                             		.loc 1 1059 0
 1301 04d0 89 73                   		mov.B	4[r7], r3
 1302 04d2 66 44                   		mov.L	#4, r4
 1303 04d4 CF A1                   		mov.B	r10, r1
 1304 04d6 71 72 05                		add	#5, r7, r2
 1305 04d9 4B 04                   		add	r0, r4
 1306 04db 05 00 00 00             		bsr	_CMS_EE_FUNC_Ctrl_DspExtraRequest
 1307                             	.LVL131:
 1308 04df 38 E7 00                		bra	.L125
 1309                             	.L113:
1060:C:/Workspace/FW_Platform2_5/trunk/CFG_DishWasher/CFG_Inertia\BusCommPltf_cfg.c ****     			END_CP_MATCH_VAL()
1061:C:/Workspace/FW_Platform2_5/trunk/CFG_DishWasher/CFG_Inertia\BusCommPltf_cfg.c **** 
1062:C:/Workspace/FW_Platform2_5/trunk/CFG_DishWasher/CFG_Inertia\BusCommPltf_cfg.c ****                 BEGIN_CP_MATCH_VAL(PP_EE_TYPE_DSP_INFO_WRITE)
1063:C:/Workspace/FW_Platform2_5/trunk/CFG_DishWasher/CFG_Inertia\BusCommPltf_cfg.c ****                 	CP_CSM_EETYP8_CUSTUMFUNC(USE_CSM_EE_CUSTOM_FUNC(Ctrl_InfoDspRequest))
 1310                             		.loc 1 1063 0
 1311 04e2 89 73                   		mov.B	4[r7], r3
 1312 04e4 66 44                   		mov.L	#4, r4
 1313 04e6 CF A1                   		mov.B	r10, r1
 1314 04e8 71 72 05                		add	#5, r7, r2
 1315 04eb 4B 04                   		add	r0, r4
 1316 04ed 05 00 00 00             		bsr	_CMS_EE_FUNC_Ctrl_InfoDspRequest
 1317                             	.LVL132:
 1318 04f1 38 D5 00                		bra	.L125
 1319                             	.L112:
1064:C:/Workspace/FW_Platform2_5/trunk/CFG_DishWasher/CFG_Inertia\BusCommPltf_cfg.c ****     			END_CP_MATCH_VAL()
1065:C:/Workspace/FW_Platform2_5/trunk/CFG_DishWasher/CFG_Inertia\BusCommPltf_cfg.c ****                         
1066:C:/Workspace/FW_Platform2_5/trunk/CFG_DishWasher/CFG_Inertia\BusCommPltf_cfg.c ****                 BEGIN_CP_MATCH_VAL(PP_EE_TYPE_DSP_CMD_READ)
1067:C:/Workspace/FW_Platform2_5/trunk/CFG_DishWasher/CFG_Inertia\BusCommPltf_cfg.c ****                 	CP_CSM_EETYP8_CUSTUMFUNC(USE_CSM_EE_CUSTOM_FUNC(Ctrl_CmdDspRequest))
 1320                             		.loc 1 1067 0
 1321 04f4 89 73                   		mov.B	4[r7], r3
 1322 04f6 66 44                   		mov.L	#4, r4
 1323 04f8 CF A1                   		mov.B	r10, r1
 1324 04fa 71 72 05                		add	#5, r7, r2
 1325 04fd 4B 04                   		add	r0, r4
 1326 04ff 05 00 00 00             		bsr	_CMS_EE_FUNC_Ctrl_CmdDspRequest
 1327                             	.LVL133:
 1328 0503 38 C3 00                		bra	.L125
 1329                             	.L116:
1068:C:/Workspace/FW_Platform2_5/trunk/CFG_DishWasher/CFG_Inertia\BusCommPltf_cfg.c ****     			END_CP_MATCH_VAL()
1069:C:/Workspace/FW_Platform2_5/trunk/CFG_DishWasher/CFG_Inertia\BusCommPltf_cfg.c **** 
1070:C:/Workspace/FW_Platform2_5/trunk/CFG_DishWasher/CFG_Inertia\BusCommPltf_cfg.c **** #endif /* defined(CONFIG_LIB_EXTERNAL_BOARD_SUPPORT) */
1071:C:/Workspace/FW_Platform2_5/trunk/CFG_DishWasher/CFG_Inertia\BusCommPltf_cfg.c **** 
1072:C:/Workspace/FW_Platform2_5/trunk/CFG_DishWasher/CFG_Inertia\BusCommPltf_cfg.c **** #if defined(CONFIG_PM_POWER_PROFILE_SUPPORT)
1073:C:/Workspace/FW_Platform2_5/trunk/CFG_DishWasher/CFG_Inertia\BusCommPltf_cfg.c ****     			BEGIN_CP_MATCH_VAL(PP_EE_TYPE_REQ_APPL_POWER_PROFILE)
1074:C:/Workspace/FW_Platform2_5/trunk/CFG_DishWasher/CFG_Inertia\BusCommPltf_cfg.c ****     				CP_CSM_EETYP8_CUSTUMFUNC(USE_CSM_EE_CUSTOM_FUNC(EE_PowerProfileReq))
1075:C:/Workspace/FW_Platform2_5/trunk/CFG_DishWasher/CFG_Inertia\BusCommPltf_cfg.c ****     			END_CP_MATCH_VAL()
1076:C:/Workspace/FW_Platform2_5/trunk/CFG_DishWasher/CFG_Inertia\BusCommPltf_cfg.c **** #endif /* CONFIG_PM_POWER_PROFILE_SUPPORT */
1077:C:/Workspace/FW_Platform2_5/trunk/CFG_DishWasher/CFG_Inertia\BusCommPltf_cfg.c **** #if defined(CONFIG_PM_ENERGY_METER_SW)
1078:C:/Workspace/FW_Platform2_5/trunk/CFG_DishWasher/CFG_Inertia\BusCommPltf_cfg.c ****     			BEGIN_CP_MATCH_VAL(PP_EE_TYPE_REQ_APPL_READPOWERMETER)
1079:C:/Workspace/FW_Platform2_5/trunk/CFG_DishWasher/CFG_Inertia\BusCommPltf_cfg.c **** 					CP_CSM_EETYP8_CUSTUMFUNC(USE_CSM_EE_CUSTOM_FUNC(EE_ReadPowerMeter))
 1330                             		.loc 1 1079 0
 1331 0506 89 73                   		mov.B	4[r7], r3
 1332 0508 66 44                   		mov.L	#4, r4
 1333 050a CF A1                   		mov.B	r10, r1
 1334 050c 71 72 05                		add	#5, r7, r2
 1335 050f 4B 04                   		add	r0, r4
 1336 0511 05 00 00 00             		bsr	_CMS_EE_FUNC_EE_ReadPowerMeter
 1337                             	.LVL134:
 1338 0515 38 B1 00                		bra	.L125
 1339                             	.L93:
1080:C:/Workspace/FW_Platform2_5/trunk/CFG_DishWasher/CFG_Inertia\BusCommPltf_cfg.c **** 				END_CP_MATCH_VAL()
1081:C:/Workspace/FW_Platform2_5/trunk/CFG_DishWasher/CFG_Inertia\BusCommPltf_cfg.c **** #endif /*defined(CONFIG_PM_ENERGY_METER_SW)*/
1082:C:/Workspace/FW_Platform2_5/trunk/CFG_DishWasher/CFG_Inertia\BusCommPltf_cfg.c **** 
1083:C:/Workspace/FW_Platform2_5/trunk/CFG_DishWasher/CFG_Inertia\BusCommPltf_cfg.c **** 			END_CP_SLAVEMANAGER__REQ_FILTER()
1084:C:/Workspace/FW_Platform2_5/trunk/CFG_DishWasher/CFG_Inertia\BusCommPltf_cfg.c ****         }
1085:C:/Workspace/FW_Platform2_5/trunk/CFG_DishWasher/CFG_Inertia\BusCommPltf_cfg.c ****         else
1086:C:/Workspace/FW_Platform2_5/trunk/CFG_DishWasher/CFG_Inertia\BusCommPltf_cfg.c ****         {
1087:C:/Workspace/FW_Platform2_5/trunk/CFG_DishWasher/CFG_Inertia\BusCommPltf_cfg.c ****             BEGIN_CP_SLAVEMANAGER__REQ_FILTER_BSTYP8_TYPE() 
 1340                             		.loc 1 1087 0
 1341 0518 EF BE                   		mov.L	r11, r14
 1342 051a 76 2E F0 00             		and	#0xf0, r14
 1343 051e 75 5E 20                		cmp	#32, r14
 1344 0521 20 21                   		beq	.L158
 1345 0523 75 5E 50                		cmp	#0x50, r14
 1346 0526 20 0A                   		beq	.L159
 1347 0528 75 5E 10                		cmp	#16, r14
 1348 052b 3B 92 00                		bne	.L200
 1349 052e 2E 4A                   		bra	.L157
 1350                             	.L159:
1088:C:/Workspace/FW_Platform2_5/trunk/CFG_DishWasher/CFG_Inertia\BusCommPltf_cfg.c ****                 BEGIN_CP_MATCH_VAL(PP_BS_TYPE_LOADS)
1089:C:/Workspace/FW_Platform2_5/trunk/CFG_DishWasher/CFG_Inertia\BusCommPltf_cfg.c ****     				CP_CSM_BSTYP8_CUSTUMFUNC(USE_CSM_EE_CUSTOM_FUNC(BS_SetLoads))
 1351                             		.loc 1 1089 0
 1352 0530 66 44                   		mov.L	#4, r4
 1353 0532 CF A1                   		mov.B	r10, r1
 1354 0534 71 72 02                		add	#2, r7, r2
 1355 0537 66 33                   		mov	#3, r3
 1356 0539 4B 04                   		add	r0, r4
 1357 053b 05 00 00 00             		bsr	_CMS_EE_FUNC_BS_SetLoads
 1358                             	.LVL135:
 1359 053f 38 87 00                		bra	.L125
 1360                             	.L158:
 1361                             	.LVL136:
 1362                             	.LBB64:
1090:C:/Workspace/FW_Platform2_5/trunk/CFG_DishWasher/CFG_Inertia\BusCommPltf_cfg.c ****     			END_CP_MATCH_VAL()
1091:C:/Workspace/FW_Platform2_5/trunk/CFG_DishWasher/CFG_Inertia\BusCommPltf_cfg.c ****     			BEGIN_CP_MATCH_VAL(PP_BS_TYPE_WRITE_RAM)
1092:C:/Workspace/FW_Platform2_5/trunk/CFG_DishWasher/CFG_Inertia\BusCommPltf_cfg.c ****     				CP_CSM_BS_WRITERAM(WRRemapTable)
 1363                             		.loc 1 1092 0
 1364 0542 59 7C 04                		movu.B	4[r7], r12
 1365 0545 64 FB                   		and	#15, r11
 1366                             	.LVL137:
 1367 0547 6C CC                   		shll	#12, r12
 1368 0549 55 7C 02                		or	2[r7].UB, r12
 1369 054c 6C 8B                   		shll	#8, r11
 1370 054e 57 CB                   		or	r12, r11
 1371 0550 5F BB                   		movu.W	r11, r11
 1372 0552 71 0C 18                		add	#24, r0, r12
 1373 0555 E3 0C                   		mov.L	r12, [r0]
 1374 0557 EF B1                   		mov.L	r11, r1
 1375 0559 EF B2                   		mov.L	r11, r2
 1376 055b FB 32 00 00 00 00       		mov.L	#_WRRemapTable, r3
 1377 0561 66 14                   		mov	#1, r4
 1378 0563 05 00 00 00             		bsr	_PP_MappingGetOffset
 1379                             	.LVL138:
 1380 0567 FD 78 C1 80 00          		tst	#0x80, r1
 1381 056c 21 5A                   		bne	.L125
 1382 056e 88 FF                   		mov.B	3[r7], r7
 1383                             	.LVL139:
 1384 0570 06 89 0B 06             		add	24[r0].L, r11
 1385 0574 C3 B7                   		mov.B	r7, [r11]
 1386 0576 2E 50                   		bra	.L125
 1387                             	.LVL140:
 1388                             	.L157:
 1389                             	.LBE64:
 1390                             	.LBB65:
1093:C:/Workspace/FW_Platform2_5/trunk/CFG_DishWasher/CFG_Inertia\BusCommPltf_cfg.c ****     			END_CP_MATCH_VAL()
1094:C:/Workspace/FW_Platform2_5/trunk/CFG_DishWasher/CFG_Inertia\BusCommPltf_cfg.c ****     			BEGIN_CP_MATCH_VAL(PP_BS_TYPE_READ_RAM)
1095:C:/Workspace/FW_Platform2_5/trunk/CFG_DishWasher/CFG_Inertia\BusCommPltf_cfg.c ****     				CP_CSM_BS_READRAM(RFRemapTable)
 1391                             		.loc 1 1095 0
 1392 0578 CD 7C 02                		mov.B	2[r7], r12
 1393                             	.LVL141:
 1394 057b B1 71                   		movu.B	4[r7], r1
 1395 057d 88 FA                   		mov.B	3[r7], r2
 1396 057f 5B CE                   		movu.B	r12, r14
 1397 0581 6C C1                   		shll	#12, r1
 1398 0583 64 FB                   		and	#15, r11
 1399                             	.LVL142:
 1400 0585 57 E1                   		or	r14, r1
 1401 0587 6C 8B                   		shll	#8, r11
 1402 0589 57 B1                   		or	r11, r1
 1403                             	.LVL143:
 1404 058b 43 C2                   		sub	r12, r2
 1405 058d 5F 11                   		movu.W	r1, r1
 1406 058f 5B 22                   		movu.B	r2, r2
 1407 0591 71 07 18                		add	#24, r0, r7
 1408                             	.LVL144:
 1409 0594 91 02                   		mov.W	r2, 8[r0]
 1410 0596 E3 07                   		mov.L	r7, [r0]
 1411 0598 4B 12                   		add	r1, r2
 1412 059a FB 32 00 00 00 00       		mov.L	#_RFRemapTable, r3
 1413 05a0 66 44                   		mov	#4, r4
 1414 05a2 3E 06 00                		mov.L	#0, 24[r0]
 1415                             	.LVL145:
 1416 05a5 A0 09                   		mov.L	r1, 4[r0]
 1417 05a7 05 00 00 00             		bsr	_PP_MappingGetOffset
 1418                             	.LVL146:
 1419 05ab 99 07                   		mov.W	8[r0], r7
 1420 05ad 62 17                   		add	#1, r7
 1421 05af 91 07                   		mov.W	r7, 8[r0]
 1422                             	.LVL147:
 1423 05b1 03                      		.balign 2,3,1
 1424                             	.L208:
 1425 05b2 A8 0F                   		mov.L	4[r0], r7
 1426 05b4 06 89 07 06             		add	24[r0].L, r7
 1427 05b8 A0 0F                   		mov.L	r7, 4[r0]
 1428 05ba 38 E4 FC                		bra	.L206
 1429                             	.LVL148:
 1430                             	.L200:
 1431                             	.LBE65:
1096:C:/Workspace/FW_Platform2_5/trunk/CFG_DishWasher/CFG_Inertia\BusCommPltf_cfg.c ****     			END_CP_MATCH_VAL()
1097:C:/Workspace/FW_Platform2_5/trunk/CFG_DishWasher/CFG_Inertia\BusCommPltf_cfg.c ****             END_CP_SLAVEMANAGER__REQ_FILTER()
 1432                             		.loc 1 1097 0
 1433 05bd 3C 0A 13                		mov.B	#19, 10[r0]
 1434 05c0 2E 06                   		bra	.L125
 1435                             	.LVL149:
 1436                             	.L92:
1098:C:/Workspace/FW_Platform2_5/trunk/CFG_DishWasher/CFG_Inertia\BusCommPltf_cfg.c ****         }
1099:C:/Workspace/FW_Platform2_5/trunk/CFG_DishWasher/CFG_Inertia\BusCommPltf_cfg.c ****         
1100:C:/Workspace/FW_Platform2_5/trunk/CFG_DishWasher/CFG_Inertia\BusCommPltf_cfg.c **** END_CP_SLAVEMANAGER()
 1437                             		.loc 1 1100 0
 1438 05c2 3C 0A 1C                		mov.B	#28, 10[r0]
 1439                             	.LVL150:
 1440 05c5 03                      		.balign 2,3,5
 1441                             	.L125:
 1442 05c6 8A 81                   		mov.B	10[r0], r1
 1443 05c8 5B 17                   		movu.B	r1, r7
 1444 05ca 61 27                   		cmp	#2, r7
 1445 05cc 20 16                   		beq	.L161
 1446 05ce A8 0A                   		mov.L	4[r0], r2
 1447 05d0 A8 83                   		mov.L	8[r0], r3
 1448 05d2 A8 8C                   		mov.L	12[r0], r4
 1449 05d4 CF A1                   		mov.B	r10, r1
 1450 05d6 05 00 00 00             		bsr	_PP_SlaveResponseBuilder
 1451                             	.LVL151:
 1452 05da CF A1                   		mov.B	r10, r1
 1453 05dc 05 00 00 00             		bsr	_PP_SlaveStartResponse
 1454                             	.LVL152:
 1455 05e0 8A 81                   		mov.B	10[r0], r1
 1456                             		.balign 2,3,1
 1457                             	.L161:
 1458 05e2 5B 11                   		movu.B	r1, r1
 1459 05e4 2E 22                   		bra	.L201
 1460                             	.LVL153:
 1461                             	.L198:
1038:C:/Workspace/FW_Platform2_5/trunk/CFG_DishWasher/CFG_Inertia\BusCommPltf_cfg.c ****     			    CP_CSM_EETYP8_READ_APPLDATA(USE_CSM_EE_CTRL(Ctrl_ReadRegsRequest), CPApplianceDataTable[
 1462                             		.loc 1 1038 0
 1463 05e6 FB B2 00 00 00 00       		mov.L	#_CPApplianceDataTable, r11
 1464 05ec ED B3 06                		mov.L	24[r11], r3
 1465 05ef 61 03                   		cmp	#0, r3
 1466 05f1 3B 1A FE                		bne	.L202
 1467 05f4 2E C9                   		bra	.L200
 1468                             	.L199:
1042:C:/Workspace/FW_Platform2_5/trunk/CFG_DishWasher/CFG_Inertia\BusCommPltf_cfg.c ****     			    CP_CSM_EETYP8_WRITE_APPLDATA(USE_CSM_EE_CTRL(Ctrl_WriteRegsRequest), CPApplianceDataTabl
 1469                             		.loc 1 1042 0
 1470 05f6 FB B2 00 00 00 00       		mov.L	#_CPApplianceDataTable, r11
 1471 05fc ED BC 08                		mov.L	32[r11], r12
 1472 05ff 61 0C                   		cmp	#0, r12
 1473 0601 3B 35 FE                		bne	.L203
 1474 0604 2E B9                   		bra	.L200
 1475                             	.LVL154:
 1476                             	.L201:
 1477                             		.loc 1 1100 0
 1478 0606 3F 7C 0D                		rtsd	#52, r7-r12
 1479                             	.LFE33:
 1481 0609 03                      		.section	.text.CommunicationProtocolTask,"ax",@progbits
 1483                             	_CommunicationProtocolTask:
 1484                             	.LFB27:
1101:C:/Workspace/FW_Platform2_5/trunk/CFG_DishWasher/CFG_Inertia\BusCommPltf_cfg.c ****                                                       
1102:C:/Workspace/FW_Platform2_5/trunk/CFG_DishWasher/CFG_Inertia\BusCommPltf_cfg.c **** 
1103:C:/Workspace/FW_Platform2_5/trunk/CFG_DishWasher/CFG_Inertia\BusCommPltf_cfg.c **** 
1104:C:/Workspace/FW_Platform2_5/trunk/CFG_DishWasher/CFG_Inertia\BusCommPltf_cfg.c **** 
1105:C:/Workspace/FW_Platform2_5/trunk/CFG_DishWasher/CFG_Inertia\BusCommPltf_cfg.c **** 
1106:C:/Workspace/FW_Platform2_5/trunk/CFG_DishWasher/CFG_Inertia\BusCommPltf_cfg.c **** /**
1107:C:/Workspace/FW_Platform2_5/trunk/CFG_DishWasher/CFG_Inertia\BusCommPltf_cfg.c **** Communication Platform initialization
1108:C:/Workspace/FW_Platform2_5/trunk/CFG_DishWasher/CFG_Inertia\BusCommPltf_cfg.c **** */
1109:C:/Workspace/FW_Platform2_5/trunk/CFG_DishWasher/CFG_Inertia\BusCommPltf_cfg.c **** void CP_I2CCommunicationPlatformInit(void) 
1110:C:/Workspace/FW_Platform2_5/trunk/CFG_DishWasher/CFG_Inertia\BusCommPltf_cfg.c **** {
1111:C:/Workspace/FW_Platform2_5/trunk/CFG_DishWasher/CFG_Inertia\BusCommPltf_cfg.c ****     IO_PhyInitSyncType drvParam={0};
1112:C:/Workspace/FW_Platform2_5/trunk/CFG_DishWasher/CFG_Inertia\BusCommPltf_cfg.c **** 
1113:C:/Workspace/FW_Platform2_5/trunk/CFG_DishWasher/CFG_Inertia\BusCommPltf_cfg.c **** 	OS_CREATERSEMA(&SemaRegs);
1114:C:/Workspace/FW_Platform2_5/trunk/CFG_DishWasher/CFG_Inertia\BusCommPltf_cfg.c **** 	OS_CREATERSEMA(&SemaUiInfo);
1115:C:/Workspace/FW_Platform2_5/trunk/CFG_DishWasher/CFG_Inertia\BusCommPltf_cfg.c **** 
1116:C:/Workspace/FW_Platform2_5/trunk/CFG_DishWasher/CFG_Inertia\BusCommPltf_cfg.c **** 	OS_CREATETASK(&CP_CommunicationTaskTCB, 
1117:C:/Workspace/FW_Platform2_5/trunk/CFG_DishWasher/CFG_Inertia\BusCommPltf_cfg.c ****               "CommunicationProtocolTask", 
1118:C:/Workspace/FW_Platform2_5/trunk/CFG_DishWasher/CFG_Inertia\BusCommPltf_cfg.c ****               CommunicationProtocolTask, 
1119:C:/Workspace/FW_Platform2_5/trunk/CFG_DishWasher/CFG_Inertia\BusCommPltf_cfg.c ****               CP_COMM_I2C_PRIORITY,
1120:C:/Workspace/FW_Platform2_5/trunk/CFG_DishWasher/CFG_Inertia\BusCommPltf_cfg.c ****               CP_CommunicationTaskStack);
1121:C:/Workspace/FW_Platform2_5/trunk/CFG_DishWasher/CFG_Inertia\BusCommPltf_cfg.c **** #if defined(CONFIG_MAIN_PROTOCOL_STACK_MONITOR)
1122:C:/Workspace/FW_Platform2_5/trunk/CFG_DishWasher/CFG_Inertia\BusCommPltf_cfg.c **** 	Tools_CreateTaskStackMonitor(&CP_CommunicationTaskTCB, &Main_ProtocolStackMonitor);
1123:C:/Workspace/FW_Platform2_5/trunk/CFG_DishWasher/CFG_Inertia\BusCommPltf_cfg.c **** #endif
1124:C:/Workspace/FW_Platform2_5/trunk/CFG_DishWasher/CFG_Inertia\BusCommPltf_cfg.c **** 	
1125:C:/Workspace/FW_Platform2_5/trunk/CFG_DishWasher/CFG_Inertia\BusCommPltf_cfg.c **** 	drvParam.eventCB=PP_SlaveNotification;   
1126:C:/Workspace/FW_Platform2_5/trunk/CFG_DishWasher/CFG_Inertia\BusCommPltf_cfg.c **** 	drvParam.id=(IO_ChannelType)(CP_I2C_CH_ID);
1127:C:/Workspace/FW_Platform2_5/trunk/CFG_DishWasher/CFG_Inertia\BusCommPltf_cfg.c **** 
1128:C:/Workspace/FW_Platform2_5/trunk/CFG_DishWasher/CFG_Inertia\BusCommPltf_cfg.c ****     (void)OCI2C_InitSync(&drvParam);
1129:C:/Workspace/FW_Platform2_5/trunk/CFG_DishWasher/CFG_Inertia\BusCommPltf_cfg.c ****     
1130:C:/Workspace/FW_Platform2_5/trunk/CFG_DishWasher/CFG_Inertia\BusCommPltf_cfg.c **** 
1131:C:/Workspace/FW_Platform2_5/trunk/CFG_DishWasher/CFG_Inertia\BusCommPltf_cfg.c ****     InitSema();
1132:C:/Workspace/FW_Platform2_5/trunk/CFG_DishWasher/CFG_Inertia\BusCommPltf_cfg.c ****     
1133:C:/Workspace/FW_Platform2_5/trunk/CFG_DishWasher/CFG_Inertia\BusCommPltf_cfg.c **** #if defined(CONFIG_LIB_EXTERNAL_BOARD_SUPPORT)
1134:C:/Workspace/FW_Platform2_5/trunk/CFG_DishWasher/CFG_Inertia\BusCommPltf_cfg.c ****     OS_CREATETASK(&CP_UartParserTaskTCB, 
1135:C:/Workspace/FW_Platform2_5/trunk/CFG_DishWasher/CFG_Inertia\BusCommPltf_cfg.c ****           "CP_UartParserTask", 
1136:C:/Workspace/FW_Platform2_5/trunk/CFG_DishWasher/CFG_Inertia\BusCommPltf_cfg.c ****           CP_UartParserTask, 
1137:C:/Workspace/FW_Platform2_5/trunk/CFG_DishWasher/CFG_Inertia\BusCommPltf_cfg.c ****           CP_COMM_UART_PRIORITY,
1138:C:/Workspace/FW_Platform2_5/trunk/CFG_DishWasher/CFG_Inertia\BusCommPltf_cfg.c ****           CP_UartParserTaskStack);
1139:C:/Workspace/FW_Platform2_5/trunk/CFG_DishWasher/CFG_Inertia\BusCommPltf_cfg.c **** #if defined(CONFIG_MAIN_PROTOCOL_STACK_MONITOR)
1140:C:/Workspace/FW_Platform2_5/trunk/CFG_DishWasher/CFG_Inertia\BusCommPltf_cfg.c **** 	Tools_CreateTaskStackMonitor(&CP_UartParserTaskTCB, &Main_UartParserStackMonitor);
1141:C:/Workspace/FW_Platform2_5/trunk/CFG_DishWasher/CFG_Inertia\BusCommPltf_cfg.c **** #endif
1142:C:/Workspace/FW_Platform2_5/trunk/CFG_DishWasher/CFG_Inertia\BusCommPltf_cfg.c ****           
1143:C:/Workspace/FW_Platform2_5/trunk/CFG_DishWasher/CFG_Inertia\BusCommPltf_cfg.c ****     drvParam.id=(IO_ChannelType)CP_UART1_CH_ID;
1144:C:/Workspace/FW_Platform2_5/trunk/CFG_DishWasher/CFG_Inertia\BusCommPltf_cfg.c ****     (void)OCUART_InitSync(&drvParam);
1145:C:/Workspace/FW_Platform2_5/trunk/CFG_DishWasher/CFG_Inertia\BusCommPltf_cfg.c **** #endif /* defined(CONFIG_LIB_EXTERNAL_BOARD_SUPPORT) */
1146:C:/Workspace/FW_Platform2_5/trunk/CFG_DishWasher/CFG_Inertia\BusCommPltf_cfg.c **** }
1147:C:/Workspace/FW_Platform2_5/trunk/CFG_DishWasher/CFG_Inertia\BusCommPltf_cfg.c **** 
1148:C:/Workspace/FW_Platform2_5/trunk/CFG_DishWasher/CFG_Inertia\BusCommPltf_cfg.c **** 
1149:C:/Workspace/FW_Platform2_5/trunk/CFG_DishWasher/CFG_Inertia\BusCommPltf_cfg.c **** /**
1150:C:/Workspace/FW_Platform2_5/trunk/CFG_DishWasher/CFG_Inertia\BusCommPltf_cfg.c **** CommunicationProtocolTask: normal, preemptable, task.
1151:C:/Workspace/FW_Platform2_5/trunk/CFG_DishWasher/CFG_Inertia\BusCommPltf_cfg.c ****  
1152:C:/Workspace/FW_Platform2_5/trunk/CFG_DishWasher/CFG_Inertia\BusCommPltf_cfg.c **** \author 	Roberto Fioravanti
1153:C:/Workspace/FW_Platform2_5/trunk/CFG_DishWasher/CFG_Inertia\BusCommPltf_cfg.c **** \date		13/01/2011
1154:C:/Workspace/FW_Platform2_5/trunk/CFG_DishWasher/CFG_Inertia\BusCommPltf_cfg.c **** \version	1.0.0
1155:C:/Workspace/FW_Platform2_5/trunk/CFG_DishWasher/CFG_Inertia\BusCommPltf_cfg.c ****    
1156:C:/Workspace/FW_Platform2_5/trunk/CFG_DishWasher/CFG_Inertia\BusCommPltf_cfg.c **** \note		\par \b Note 1:
1157:C:/Workspace/FW_Platform2_5/trunk/CFG_DishWasher/CFG_Inertia\BusCommPltf_cfg.c **** 			documentation by Roberto Fioravanti
1158:C:/Workspace/FW_Platform2_5/trunk/CFG_DishWasher/CFG_Inertia\BusCommPltf_cfg.c **** */
1159:C:/Workspace/FW_Platform2_5/trunk/CFG_DishWasher/CFG_Inertia\BusCommPltf_cfg.c **** void CommunicationProtocolTask (void)
1160:C:/Workspace/FW_Platform2_5/trunk/CFG_DishWasher/CFG_Inertia\BusCommPltf_cfg.c **** {
 1485                             		.loc 1 1160 0
 1486 0000 6E 7A                   		pushm	r7-r10
 1487                             	.LCFI15:
1161:C:/Workspace/FW_Platform2_5/trunk/CFG_DishWasher/CFG_Inertia\BusCommPltf_cfg.c **** 
1162:C:/Workspace/FW_Platform2_5/trunk/CFG_DishWasher/CFG_Inertia\BusCommPltf_cfg.c ****     OS_U8 MyEvent;
1163:C:/Workspace/FW_Platform2_5/trunk/CFG_DishWasher/CFG_Inertia\BusCommPltf_cfg.c ****     while(1) 
1164:C:/Workspace/FW_Platform2_5/trunk/CFG_DishWasher/CFG_Inertia\BusCommPltf_cfg.c ****     {
1165:C:/Workspace/FW_Platform2_5/trunk/CFG_DishWasher/CFG_Inertia\BusCommPltf_cfg.c ****         MyEvent = OS_WaitSingleEvent(MAIN_OS_EVENT_I2C|MAIN_OS_EVENT_UART);
1166:C:/Workspace/FW_Platform2_5/trunk/CFG_DishWasher/CFG_Inertia\BusCommPltf_cfg.c ****         if(MyEvent & MAIN_OS_EVENT_I2C) 
1167:C:/Workspace/FW_Platform2_5/trunk/CFG_DishWasher/CFG_Inertia\BusCommPltf_cfg.c ****         {
1168:C:/Workspace/FW_Platform2_5/trunk/CFG_DishWasher/CFG_Inertia\BusCommPltf_cfg.c ****             (void)CALL_CP_SLAVEMANAGER(CP_SlaveManager, (IO_ChannelType)CP_I2C_CH_ID, BCP_ChannelTa
1169:C:/Workspace/FW_Platform2_5/trunk/CFG_DishWasher/CFG_Inertia\BusCommPltf_cfg.c ****         }    
1170:C:/Workspace/FW_Platform2_5/trunk/CFG_DishWasher/CFG_Inertia\BusCommPltf_cfg.c **** #if defined(CONFIG_LIB_EXTERNAL_BOARD_SUPPORT)
1171:C:/Workspace/FW_Platform2_5/trunk/CFG_DishWasher/CFG_Inertia\BusCommPltf_cfg.c ****         if(MyEvent & MAIN_OS_EVENT_UART) 
1172:C:/Workspace/FW_Platform2_5/trunk/CFG_DishWasher/CFG_Inertia\BusCommPltf_cfg.c ****         {
1173:C:/Workspace/FW_Platform2_5/trunk/CFG_DishWasher/CFG_Inertia\BusCommPltf_cfg.c ****             (void)CALL_CP_SLAVEMANAGER(CP_SlaveManager, (IO_ChannelType)CP_UART1_CH_ID, BCP_Channel
1174:C:/Workspace/FW_Platform2_5/trunk/CFG_DishWasher/CFG_Inertia\BusCommPltf_cfg.c ****         }
1175:C:/Workspace/FW_Platform2_5/trunk/CFG_DishWasher/CFG_Inertia\BusCommPltf_cfg.c **** #endif /* defined(CONFIG_LIB_EXTERNAL_BOARD_SUPPORT) */
1176:C:/Workspace/FW_Platform2_5/trunk/CFG_DishWasher/CFG_Inertia\BusCommPltf_cfg.c ****         
1177:C:/Workspace/FW_Platform2_5/trunk/CFG_DishWasher/CFG_Inertia\BusCommPltf_cfg.c ****         
1178:C:/Workspace/FW_Platform2_5/trunk/CFG_DishWasher/CFG_Inertia\BusCommPltf_cfg.c ****         /*check if System mode is changed */
1179:C:/Workspace/FW_Platform2_5/trunk/CFG_DishWasher/CFG_Inertia\BusCommPltf_cfg.c ****         if((LIB_Reset_GetSystemMode() != LIB_Reset_GetNewSystemMode()) && 
1180:C:/Workspace/FW_Platform2_5/trunk/CFG_DishWasher/CFG_Inertia\BusCommPltf_cfg.c ****          (BCP_ChannelTable[CP_I2C_CH_ID].rxBuffer[PP_DTYP_INDEX]==PP_EE_TYPE_SYSTEM_MODE))
1181:C:/Workspace/FW_Platform2_5/trunk/CFG_DishWasher/CFG_Inertia\BusCommPltf_cfg.c ****         {
1182:C:/Workspace/FW_Platform2_5/trunk/CFG_DishWasher/CFG_Inertia\BusCommPltf_cfg.c ****         	/*lint -e530*/
1183:C:/Workspace/FW_Platform2_5/trunk/CFG_DishWasher/CFG_Inertia\BusCommPltf_cfg.c ****         	/*Warning non consistente*/
1184:C:/Workspace/FW_Platform2_5/trunk/CFG_DishWasher/CFG_Inertia\BusCommPltf_cfg.c ****             while(I2C_IsBusBusy())
 1488                             		.loc 1 1184 0
 1489 0002 FB AE 00 83 08          		mov.L	#0x88300, r10
 1490 0007 03                      		.balign 2,3,1
 1491                             	.L232:
1165:C:/Workspace/FW_Platform2_5/trunk/CFG_DishWasher/CFG_Inertia\BusCommPltf_cfg.c ****         MyEvent = OS_WaitSingleEvent(MAIN_OS_EVENT_I2C|MAIN_OS_EVENT_UART);
 1492                             		.loc 1 1165 0
 1493 0008 66 31                   		mov.L	#3, r1
 1494 000a 05 00 00 00             		bsr	_OS_WaitSingleEvent
 1495                             	.LVL155:
1166:C:/Workspace/FW_Platform2_5/trunk/CFG_DishWasher/CFG_Inertia\BusCommPltf_cfg.c ****         if(MyEvent & MAIN_OS_EVENT_I2C) 
 1496                             		.loc 1 1166 0
 1497 000e FD 74 C1 01             		tst	#1, r1
1165:C:/Workspace/FW_Platform2_5/trunk/CFG_DishWasher/CFG_Inertia\BusCommPltf_cfg.c ****         MyEvent = OS_WaitSingleEvent(MAIN_OS_EVENT_I2C|MAIN_OS_EVENT_UART);
 1498                             		.loc 1 1165 0
 1499 0012 EF 17                   		mov.L	r1, r7
 1500                             	.LVL156:
1166:C:/Workspace/FW_Platform2_5/trunk/CFG_DishWasher/CFG_Inertia\BusCommPltf_cfg.c ****         if(MyEvent & MAIN_OS_EVENT_I2C) 
 1501                             		.loc 1 1166 0
 1502 0014 20 0E                   		beq	.L217
1168:C:/Workspace/FW_Platform2_5/trunk/CFG_DishWasher/CFG_Inertia\BusCommPltf_cfg.c ****             (void)CALL_CP_SLAVEMANAGER(CP_SlaveManager, (IO_ChannelType)CP_I2C_CH_ID, BCP_ChannelTa
 1503                             		.loc 1 1168 0
 1504 0016 66 01                   		mov	#0, r1
 1505                             	.LVL157:
 1506 0018 FB 22 00 00 00 00       		mov.L	#_BCP_I2CTxBuffer, r2
 1507 001e 05 00 00 00             		bsr	_CP_SlaveManager.isra.1
 1508                             	.LVL158:
 1509                             		.balign 2,3,6
 1510                             	.L217:
1171:C:/Workspace/FW_Platform2_5/trunk/CFG_DishWasher/CFG_Inertia\BusCommPltf_cfg.c ****         if(MyEvent & MAIN_OS_EVENT_UART) 
 1511                             		.loc 1 1171 0
 1512 0022 FD 74 C7 02             		tst	#2, r7
 1513 0026 20 0E                   		beq	.L218
1173:C:/Workspace/FW_Platform2_5/trunk/CFG_DishWasher/CFG_Inertia\BusCommPltf_cfg.c ****             (void)CALL_CP_SLAVEMANAGER(CP_SlaveManager, (IO_ChannelType)CP_UART1_CH_ID, BCP_Channel
 1514                             		.loc 1 1173 0
 1515 0028 66 11                   		mov	#1, r1
 1516 002a FB 22 00 00 00 00       		mov.L	#_BCP_UARTRxBuffer, r2
 1517 0030 05 00 00 00             		bsr	_CP_SlaveManager.isra.1
 1518                             	.LVL159:
 1519                             		.balign 2,3,3
 1520                             	.L218:
1179:C:/Workspace/FW_Platform2_5/trunk/CFG_DishWasher/CFG_Inertia\BusCommPltf_cfg.c ****         if((LIB_Reset_GetSystemMode() != LIB_Reset_GetNewSystemMode()) && 
 1521                             		.loc 1 1179 0
 1522 0034 05 00 00 00             		bsr	_LIB_Reset_GetSystemMode
 1523                             	.LVL160:
 1524 0038 CF 17                   		mov.B	r1, r7
 1525                             	.LVL161:
 1526 003a 05 00 00 00             		bsr	_LIB_Reset_GetNewSystemMode
 1527                             	.LVL162:
 1528 003e 5B 77                   		movu.B	r7, r7
 1529 0040 5B 11                   		movu.B	r1, r1
 1530 0042 47 17                   		cmp	r1, r7
 1531 0044 20 C4                   		beq	.L232
1180:C:/Workspace/FW_Platform2_5/trunk/CFG_DishWasher/CFG_Inertia\BusCommPltf_cfg.c ****          (BCP_ChannelTable[CP_I2C_CH_ID].rxBuffer[PP_DTYP_INDEX]==PP_EE_TYPE_SYSTEM_MODE))
 1532                             		.loc 1 1180 0 discriminator 1
 1533 0046 FB 72 00 00 00 00       		mov.L	#_BCP_I2CTxBuffer, r7
1179:C:/Workspace/FW_Platform2_5/trunk/CFG_DishWasher/CFG_Inertia\BusCommPltf_cfg.c ****         if((LIB_Reset_GetSystemMode() != LIB_Reset_GetNewSystemMode()) && 
 1534                             		.loc 1 1179 0 discriminator 1
 1535 004c B0 FF                   		movu.B	3[r7], r7
 1536 004e 75 57 5F                		cmp	#0x5f, r7
 1537 0051 21 B7                   		bne	.L232
 1538 0053 03                      		.balign 2,3,5
 1539                             	.L227:
 1540                             		.loc 1 1184 0
 1541 0054 CD A7 01                		mov.B	1[r10], r7
 1542 0057 61 07                   		cmp	#0, r7
 1543 0059 29 FB                   		blt	.L227
1185:C:/Workspace/FW_Platform2_5/trunk/CFG_DishWasher/CFG_Inertia\BusCommPltf_cfg.c ****             /*lint +e530*/
1186:C:/Workspace/FW_Platform2_5/trunk/CFG_DishWasher/CFG_Inertia\BusCommPltf_cfg.c ****             {}
1187:C:/Workspace/FW_Platform2_5/trunk/CFG_DishWasher/CFG_Inertia\BusCommPltf_cfg.c ****             
1188:C:/Workspace/FW_Platform2_5/trunk/CFG_DishWasher/CFG_Inertia\BusCommPltf_cfg.c ****             if(LIB_Reset_GetNewSystemMode() == SYSTEM_NORMAL_MODE)
 1544                             		.loc 1 1188 0
 1545 005b 05 00 00 00             		bsr	_LIB_Reset_GetNewSystemMode
 1546                             	.LVL163:
 1547 005f 5B 11                   		movu.B	r1, r1
 1548 0061 61 11                   		cmp	#1, r1
 1549 0063 21 07                   		bne	.L221
1189:C:/Workspace/FW_Platform2_5/trunk/CFG_DishWasher/CFG_Inertia\BusCommPltf_cfg.c ****             {
1190:C:/Workspace/FW_Platform2_5/trunk/CFG_DishWasher/CFG_Inertia\BusCommPltf_cfg.c ****             	LIB_KeywordsRamCorruption();
 1550                             		.loc 1 1190 0
 1551 0065 05 00 00 00             		bsr	_LIB_KeywordsRamCorruption
 1552                             	.LVL164:
 1553 0069 03                      		.balign 2,3,3
 1554                             	.L221:
1191:C:/Workspace/FW_Platform2_5/trunk/CFG_DishWasher/CFG_Inertia\BusCommPltf_cfg.c ****             }
1192:C:/Workspace/FW_Platform2_5/trunk/CFG_DishWasher/CFG_Inertia\BusCommPltf_cfg.c ****             
1193:C:/Workspace/FW_Platform2_5/trunk/CFG_DishWasher/CFG_Inertia\BusCommPltf_cfg.c ****             OCRST_GenerateUserResetSync();
 1555                             		.loc 1 1193 0
 1556 006a 05 00 00 00             		bsr	_OCRST_GenerateUserResetSync
 1557                             	.LVL165:
 1558 006e 2E 9A                   		bra	.L232
 1559                             	.LFE27:
 1561                             		.section	.rodata.str1.1,"aMS",@progbits,1
 1562                             	.LC0:
 1563 0000 43 6F 6D 6D 75 6E 69 63 		.string	"CommunicationProtocolTask"
 1563      61 74 69 6F 6E 50 72 6F 
 1563      74 6F 63 6F 6C 54 61 73 
 1563      6B 00 
 1564                             	.LC1:
 1565 001a 43 50 5F 55 61 72 74 50 		.string	"CP_UartParserTask"
 1565      61 72 73 65 72 54 61 73 
 1565      6B 00 
 1566                             		.section	.text.CP_I2CCommunicationPlatformInit,"ax",@progbits
 1567                             		.global	_CP_I2CCommunicationPlatformInit
 1569                             	_CP_I2CCommunicationPlatformInit:
 1570                             	.LFB26:
1110:C:/Workspace/FW_Platform2_5/trunk/CFG_DishWasher/CFG_Inertia\BusCommPltf_cfg.c **** {
 1571                             		.loc 1 1110 0
 1572 0000 71 00 E8                		add	#-24, r0
 1573                             	.LCFI16:
1111:C:/Workspace/FW_Platform2_5/trunk/CFG_DishWasher/CFG_Inertia\BusCommPltf_cfg.c ****     IO_PhyInitSyncType drvParam={0};
 1574                             		.loc 1 1111 0
 1575 0003 66 81                   		mov.L	#8, r1
 1576 0005 4B 01                   		add	r0, r1
 1577 0007 75 43 10                		mov.L	#16, r3
 1578 000a 66 02                   		mov	#0, r2
 1579 000c 7F 88                   		sstr.b
1113:C:/Workspace/FW_Platform2_5/trunk/CFG_DishWasher/CFG_Inertia\BusCommPltf_cfg.c **** 	OS_CREATERSEMA(&SemaRegs);
 1580                             		.loc 1 1113 0
 1581 000e FB 12 00 00 00 00       		mov.L	#_SemaRegs, r1
 1582 0014 05 00 00 00             		bsr	_OS_CreateRSema
 1583                             	.LVL166:
1114:C:/Workspace/FW_Platform2_5/trunk/CFG_DishWasher/CFG_Inertia\BusCommPltf_cfg.c **** 	OS_CREATERSEMA(&SemaUiInfo);
 1584                             		.loc 1 1114 0
 1585 0018 FB 12 00 00 00 00       		mov.L	#_SemaUiInfo, r1
 1586 001e 05 00 00 00             		bsr	_OS_CreateRSema
 1587                             	.LVL167:
1116:C:/Workspace/FW_Platform2_5/trunk/CFG_DishWasher/CFG_Inertia\BusCommPltf_cfg.c **** 	OS_CREATETASK(&CP_CommunicationTaskTCB, 
 1588                             		.loc 1 1116 0
 1589 0022 FB 22 00 00 00 00       		mov.L	#.LC0, r2
 1590 0028 75 43 50                		mov	#0x50, r3
 1591 002b FB 42 00 00 00 00       		mov.L	#_CommunicationProtocolTask, r4
 1592 0031 F8 02 00 00 00 00       		mov.L	#_CP_CommunicationTaskStack, [r0]
 1593 0037 F9 0A 01 00 02          		mov.L	#0x200, 4[r0]
 1594 003c FB 12 00 00 00 00       		mov.L	#_CP_CommunicationTaskTCB, r1
 1595 0042 05 00 00 00             		bsr	_OS_CreateTask_S
 1596                             	.LVL168:
1128:C:/Workspace/FW_Platform2_5/trunk/CFG_DishWasher/CFG_Inertia\BusCommPltf_cfg.c ****     (void)OCI2C_InitSync(&drvParam);
 1597                             		.loc 1 1128 0
 1598 0046 66 81                   		mov.L	#8, r1
 1599 0048 4B 01                   		add	r0, r1
1125:C:/Workspace/FW_Platform2_5/trunk/CFG_DishWasher/CFG_Inertia\BusCommPltf_cfg.c **** 	drvParam.eventCB=PP_SlaveNotification;   
 1600                             		.loc 1 1125 0
 1601 004a F9 02 02 00 00 00 00    		mov.L	#_PP_SlaveNotification, 8[r0]
1126:C:/Workspace/FW_Platform2_5/trunk/CFG_DishWasher/CFG_Inertia\BusCommPltf_cfg.c **** 	drvParam.id=(IO_ChannelType)(CP_I2C_CH_ID);
 1602                             		.loc 1 1126 0
 1603 0051 3C 84 00                		mov.B	#0, 20[r0]
1128:C:/Workspace/FW_Platform2_5/trunk/CFG_DishWasher/CFG_Inertia\BusCommPltf_cfg.c ****     (void)OCI2C_InitSync(&drvParam);
 1604                             		.loc 1 1128 0
 1605 0054 05 00 00 00             		bsr	_OCI2C_InitSync
 1606                             	.LVL169:
1131:C:/Workspace/FW_Platform2_5/trunk/CFG_DishWasher/CFG_Inertia\BusCommPltf_cfg.c ****     InitSema();
 1607                             		.loc 1 1131 0
 1608 0058 05 00 00 00             		bsr	_InitSema
 1609                             	.LVL170:
1134:C:/Workspace/FW_Platform2_5/trunk/CFG_DishWasher/CFG_Inertia\BusCommPltf_cfg.c ****     OS_CREATETASK(&CP_UartParserTaskTCB, 
 1610                             		.loc 1 1134 0
 1611 005c FB 12 00 00 00 00       		mov.L	#_CP_UartParserTaskTCB, r1
 1612 0062 F8 02 00 00 00 00       		mov.L	#_CP_UartParserTaskStack, [r0]
 1613 0068 F9 0A 01 40 01          		mov.L	#0x140, 4[r0]
 1614 006d FB 22 00 00 00 00       		mov.L	#.LC1, r2
 1615 0073 75 43 44                		mov	#0x44, r3
 1616 0076 FB 42 00 00 00 00       		mov.L	#_CP_UartParserTask, r4
 1617 007c 05 00 00 00             		bsr	_OS_CreateTask_S
 1618                             	.LVL171:
1144:C:/Workspace/FW_Platform2_5/trunk/CFG_DishWasher/CFG_Inertia\BusCommPltf_cfg.c ****     (void)OCUART_InitSync(&drvParam);
 1619                             		.loc 1 1144 0
 1620 0080 66 81                   		mov.L	#8, r1
 1621 0082 4B 01                   		add	r0, r1
1143:C:/Workspace/FW_Platform2_5/trunk/CFG_DishWasher/CFG_Inertia\BusCommPltf_cfg.c ****     drvParam.id=(IO_ChannelType)CP_UART1_CH_ID;
 1622                             		.loc 1 1143 0
 1623 0084 3C 84 01                		mov.B	#1, 20[r0]
1144:C:/Workspace/FW_Platform2_5/trunk/CFG_DishWasher/CFG_Inertia\BusCommPltf_cfg.c ****     (void)OCUART_InitSync(&drvParam);
 1624                             		.loc 1 1144 0
 1625 0087 05 00 00 00             		bsr	_OCUART_InitSync
 1626                             	.LVL172:
1146:C:/Workspace/FW_Platform2_5/trunk/CFG_DishWasher/CFG_Inertia\BusCommPltf_cfg.c **** }
 1627                             		.loc 1 1146 0
 1628 008b 67 06                   		rtsd	#24
 1629                             	.LFE26:
 1631                             		.section	.text.CP_UART_EnableComm,"ax",@progbits
 1632                             		.global	_CP_UART_EnableComm
 1634                             	_CP_UART_EnableComm:
 1635                             	.LFB29:
1194:C:/Workspace/FW_Platform2_5/trunk/CFG_DishWasher/CFG_Inertia\BusCommPltf_cfg.c ****         }        
1195:C:/Workspace/FW_Platform2_5/trunk/CFG_DishWasher/CFG_Inertia\BusCommPltf_cfg.c ****     }
1196:C:/Workspace/FW_Platform2_5/trunk/CFG_DishWasher/CFG_Inertia\BusCommPltf_cfg.c **** }
1197:C:/Workspace/FW_Platform2_5/trunk/CFG_DishWasher/CFG_Inertia\BusCommPltf_cfg.c **** 
1198:C:/Workspace/FW_Platform2_5/trunk/CFG_DishWasher/CFG_Inertia\BusCommPltf_cfg.c **** #if defined(CONFIG_LIB_EXTERNAL_BOARD_SUPPORT)
1199:C:/Workspace/FW_Platform2_5/trunk/CFG_DishWasher/CFG_Inertia\BusCommPltf_cfg.c **** void CP_UartParserTask(void)
1200:C:/Workspace/FW_Platform2_5/trunk/CFG_DishWasher/CFG_Inertia\BusCommPltf_cfg.c **** {
1201:C:/Workspace/FW_Platform2_5/trunk/CFG_DishWasher/CFG_Inertia\BusCommPltf_cfg.c ****   int t0 = OS_GetTime();
1202:C:/Workspace/FW_Platform2_5/trunk/CFG_DishWasher/CFG_Inertia\BusCommPltf_cfg.c ****   uint8_t tout=0;
1203:C:/Workspace/FW_Platform2_5/trunk/CFG_DishWasher/CFG_Inertia\BusCommPltf_cfg.c ****   while(1)
1204:C:/Workspace/FW_Platform2_5/trunk/CFG_DishWasher/CFG_Inertia\BusCommPltf_cfg.c ****   {
1205:C:/Workspace/FW_Platform2_5/trunk/CFG_DishWasher/CFG_Inertia\BusCommPltf_cfg.c ****     OCUART_ErrMngr();
1206:C:/Workspace/FW_Platform2_5/trunk/CFG_DishWasher/CFG_Inertia\BusCommPltf_cfg.c ****     
1207:C:/Workspace/FW_Platform2_5/trunk/CFG_DishWasher/CFG_Inertia\BusCommPltf_cfg.c ****     if(!OCUART_RxStreamMngr(CP_UART1_CH_ID))
1208:C:/Workspace/FW_Platform2_5/trunk/CFG_DishWasher/CFG_Inertia\BusCommPltf_cfg.c ****     {
1209:C:/Workspace/FW_Platform2_5/trunk/CFG_DishWasher/CFG_Inertia\BusCommPltf_cfg.c ****             tout++;		
1210:C:/Workspace/FW_Platform2_5/trunk/CFG_DishWasher/CFG_Inertia\BusCommPltf_cfg.c ****             tout %= 8;
1211:C:/Workspace/FW_Platform2_5/trunk/CFG_DishWasher/CFG_Inertia\BusCommPltf_cfg.c ****             if(!tout)
1212:C:/Workspace/FW_Platform2_5/trunk/CFG_DishWasher/CFG_Inertia\BusCommPltf_cfg.c ****             {
1213:C:/Workspace/FW_Platform2_5/trunk/CFG_DishWasher/CFG_Inertia\BusCommPltf_cfg.c ****             	CP_UART_EnableComm();
1214:C:/Workspace/FW_Platform2_5/trunk/CFG_DishWasher/CFG_Inertia\BusCommPltf_cfg.c ****             }
1215:C:/Workspace/FW_Platform2_5/trunk/CFG_DishWasher/CFG_Inertia\BusCommPltf_cfg.c ****     }
1216:C:/Workspace/FW_Platform2_5/trunk/CFG_DishWasher/CFG_Inertia\BusCommPltf_cfg.c ****     else
1217:C:/Workspace/FW_Platform2_5/trunk/CFG_DishWasher/CFG_Inertia\BusCommPltf_cfg.c ****     {
1218:C:/Workspace/FW_Platform2_5/trunk/CFG_DishWasher/CFG_Inertia\BusCommPltf_cfg.c ****             tout=0;
1219:C:/Workspace/FW_Platform2_5/trunk/CFG_DishWasher/CFG_Inertia\BusCommPltf_cfg.c ****     }
1220:C:/Workspace/FW_Platform2_5/trunk/CFG_DishWasher/CFG_Inertia\BusCommPltf_cfg.c **** 
1221:C:/Workspace/FW_Platform2_5/trunk/CFG_DishWasher/CFG_Inertia\BusCommPltf_cfg.c ****     t0 += 5;
1222:C:/Workspace/FW_Platform2_5/trunk/CFG_DishWasher/CFG_Inertia\BusCommPltf_cfg.c ****     OS_DelayUntil ( t0 );
1223:C:/Workspace/FW_Platform2_5/trunk/CFG_DishWasher/CFG_Inertia\BusCommPltf_cfg.c ****   }
1224:C:/Workspace/FW_Platform2_5/trunk/CFG_DishWasher/CFG_Inertia\BusCommPltf_cfg.c **** }
1225:C:/Workspace/FW_Platform2_5/trunk/CFG_DishWasher/CFG_Inertia\BusCommPltf_cfg.c **** 
1226:C:/Workspace/FW_Platform2_5/trunk/CFG_DishWasher/CFG_Inertia\BusCommPltf_cfg.c **** void CP_UART_EnableComm(void)
1227:C:/Workspace/FW_Platform2_5/trunk/CFG_DishWasher/CFG_Inertia\BusCommPltf_cfg.c **** {
 1636                             		.loc 1 1227 0
1228:C:/Workspace/FW_Platform2_5/trunk/CFG_DishWasher/CFG_Inertia\BusCommPltf_cfg.c ****     OCUART_EnableSync();
 1637                             		.loc 1 1228 0
 1638 0000 05 00 00 00             		bsr	_OCUART_EnableSync
 1639                             	.LVL173:
1229:C:/Workspace/FW_Platform2_5/trunk/CFG_DishWasher/CFG_Inertia\BusCommPltf_cfg.c ****     OCUART_TxByteSync(0x55);
 1640                             		.loc 1 1229 0
 1641 0004 75 41 55                		mov	#0x55, r1
 1642 0007 04 00 00 00             		bra	_OCUART_TxByteSync
 1643                             	.LVL174:
 1644                             	.LFE29:
 1646                             		.section	.text.CP_UartParserTask,"ax",@progbits
 1647                             		.global	_CP_UartParserTask
 1649                             	_CP_UartParserTask:
 1650                             	.LFB28:
1200:C:/Workspace/FW_Platform2_5/trunk/CFG_DishWasher/CFG_Inertia\BusCommPltf_cfg.c **** {
 1651                             		.loc 1 1200 0
 1652 0000 6E 7A                   		pushm	r7-r10
 1653                             	.LCFI17:
1201:C:/Workspace/FW_Platform2_5/trunk/CFG_DishWasher/CFG_Inertia\BusCommPltf_cfg.c ****   int t0 = OS_GetTime();
 1654                             		.loc 1 1201 0
 1655 0002 FB 72 00 00 00 00       		mov.L	#_OS_Global, r7
 1656 0008 ED 7A 0A                		mov.L	40[r7], r10
 1657                             	.LVL175:
1202:C:/Workspace/FW_Platform2_5/trunk/CFG_DishWasher/CFG_Inertia\BusCommPltf_cfg.c ****   uint8_t tout=0;
 1658                             		.loc 1 1202 0
 1659 000b 66 07                   		mov	#0, r7
 1660                             	.LVL176:
 1661 000d 03                      		.balign 2,3,3
 1662                             	.L239:
1205:C:/Workspace/FW_Platform2_5/trunk/CFG_DishWasher/CFG_Inertia\BusCommPltf_cfg.c ****     OCUART_ErrMngr();
 1663                             		.loc 1 1205 0
 1664 000e 05 00 00 00             		bsr	_OCUART_ErrMngr
 1665                             	.LVL177:
1207:C:/Workspace/FW_Platform2_5/trunk/CFG_DishWasher/CFG_Inertia\BusCommPltf_cfg.c ****     if(!OCUART_RxStreamMngr(CP_UART1_CH_ID))
 1666                             		.loc 1 1207 0
 1667 0012 66 11                   		mov	#1, r1
 1668 0014 05 00 00 00             		bsr	_OCUART_RxStreamMngr
 1669                             	.LVL178:
 1670 0018 5B 11                   		movu.B	r1, r1
 1671 001a 61 01                   		cmp	#0, r1
 1672 001c 21 12                   		bne	.L240
1209:C:/Workspace/FW_Platform2_5/trunk/CFG_DishWasher/CFG_Inertia\BusCommPltf_cfg.c ****             tout++;		
 1673                             		.loc 1 1209 0
 1674 001e 62 17                   		add	#1, r7
 1675                             	.LVL179:
1210:C:/Workspace/FW_Platform2_5/trunk/CFG_DishWasher/CFG_Inertia\BusCommPltf_cfg.c ****             tout %= 8;
 1676                             		.loc 1 1210 0
 1677 0020 64 77                   		and	#7, r7
 1678                             	.LVL180:
1211:C:/Workspace/FW_Platform2_5/trunk/CFG_DishWasher/CFG_Inertia\BusCommPltf_cfg.c ****             if(!tout)
 1679                             		.loc 1 1211 0
 1680 0022 5B 7E                   		movu.B	r7, r14
 1681 0024 61 0E                   		cmp	#0, r14
 1682 0026 21 0A                   		bne	.L238
1213:C:/Workspace/FW_Platform2_5/trunk/CFG_DishWasher/CFG_Inertia\BusCommPltf_cfg.c ****             	CP_UART_EnableComm();
 1683                             		.loc 1 1213 0
 1684 0028 05 00 00 00             		bsr	_CP_UART_EnableComm
 1685                             	.LVL181:
 1686 002c 2E 04                   		bra	.L238
 1687                             	.L240:
1218:C:/Workspace/FW_Platform2_5/trunk/CFG_DishWasher/CFG_Inertia\BusCommPltf_cfg.c ****             tout=0;
 1688                             		.loc 1 1218 0
 1689 002e 66 07                   		mov	#0, r7
 1690                             	.LVL182:
 1691                             		.balign 2,3,1
 1692                             	.L238:
1221:C:/Workspace/FW_Platform2_5/trunk/CFG_DishWasher/CFG_Inertia\BusCommPltf_cfg.c ****     t0 += 5;
 1693                             		.loc 1 1221 0
 1694 0030 62 5A                   		add	#5, r10
 1695                             	.LVL183:
1222:C:/Workspace/FW_Platform2_5/trunk/CFG_DishWasher/CFG_Inertia\BusCommPltf_cfg.c ****     OS_DelayUntil ( t0 );
 1696                             		.loc 1 1222 0
 1697 0032 EF A1                   		mov.L	r10, r1
 1698 0034 05 00 00 00             		bsr	_OS_DelayUntil
 1699                             	.LVL184:
1223:C:/Workspace/FW_Platform2_5/trunk/CFG_DishWasher/CFG_Inertia\BusCommPltf_cfg.c ****   }
 1700                             		.loc 1 1223 0
 1701 0038 2E D6                   		bra	.L239
 1702                             	.LFE28:
 1704                             		.section	.text.CP_UART_DisableComm,"ax",@progbits
 1705                             		.global	_CP_UART_DisableComm
 1707                             	_CP_UART_DisableComm:
 1708                             	.LFB30:
1230:C:/Workspace/FW_Platform2_5/trunk/CFG_DishWasher/CFG_Inertia\BusCommPltf_cfg.c **** }
1231:C:/Workspace/FW_Platform2_5/trunk/CFG_DishWasher/CFG_Inertia\BusCommPltf_cfg.c **** 
1232:C:/Workspace/FW_Platform2_5/trunk/CFG_DishWasher/CFG_Inertia\BusCommPltf_cfg.c **** void CP_UART_DisableComm(void)
1233:C:/Workspace/FW_Platform2_5/trunk/CFG_DishWasher/CFG_Inertia\BusCommPltf_cfg.c **** {
 1709                             		.loc 1 1233 0
1234:C:/Workspace/FW_Platform2_5/trunk/CFG_DishWasher/CFG_Inertia\BusCommPltf_cfg.c ****     OCUART_DisableSync();
 1710                             		.loc 1 1234 0
 1711 0000 04 00 00 00             		bra	_OCUART_DisableSync
 1712                             	.LVL185:
 1713                             	.LFE30:
 1715                             		.section	.text.CP_GetPPAddr,"ax",@progbits
 1716                             		.global	_CP_GetPPAddr
 1718                             	_CP_GetPPAddr:
 1719                             	.LFB31:
1235:C:/Workspace/FW_Platform2_5/trunk/CFG_DishWasher/CFG_Inertia\BusCommPltf_cfg.c **** }
1236:C:/Workspace/FW_Platform2_5/trunk/CFG_DishWasher/CFG_Inertia\BusCommPltf_cfg.c **** #endif
1237:C:/Workspace/FW_Platform2_5/trunk/CFG_DishWasher/CFG_Inertia\BusCommPltf_cfg.c **** 
1238:C:/Workspace/FW_Platform2_5/trunk/CFG_DishWasher/CFG_Inertia\BusCommPltf_cfg.c **** uint16_t CP_GetPPAddr(const void *realAddr)
1239:C:/Workspace/FW_Platform2_5/trunk/CFG_DishWasher/CFG_Inertia\BusCommPltf_cfg.c **** {
 1720                             		.loc 1 1239 0
 1721                             	.LVL186:
1240:C:/Workspace/FW_Platform2_5/trunk/CFG_DishWasher/CFG_Inertia\BusCommPltf_cfg.c **** 	return PP_MappingGetPPAddr((const IO_MemPtrType) realAddr, RFRemapTable, sizeof(RFRemapTable)/size
 1722                             		.loc 1 1240 0
 1723 0000 FB 22 00 00 00 00       		mov.L	#_RFRemapTable, r2
 1724 0006 66 43                   		mov	#4, r3
 1725 0008 04 00 00 00             		bra	_PP_MappingGetPPAddr
 1726                             	.LVL187:
 1727                             	.LFE31:
 1729                             		.comm	_PowerMeterBuffer,6,1
 1730                             		.global	_BCP_ChannelTable
 1731                             		.section	.rodata.BCP_ChannelTable,"a",@progbits
 1732                             		.balign 4
 1735                             	_BCP_ChannelTable:
 1736 0000 00 00 00 00             		.long	0
 1737 0004 00 00 00 00             		.long	_OCI2C_InitSync
 1738 0008 00 00 00 00             		.long	_OCI2C_TxSync
 1739 000c 00 00 00 00             		.long	_OCI2C_RxSync
 1740 0010 00 00 00 00             		.long	_BCP_I2CTxBuffer
 1741 0014 00 00 00 00             		.long	_BCP_I2CTxBuffer
 1742 0018 01 08                   		.short	0x108
 1743 001a 01 08                   		.short	0x108
 1744 001c 00 00 00 00             		.long	0
 1745 0020 00 00 00 00             		.long	_OCUART_InitSync
 1746 0024 00 00 00 00             		.long	_OCUART_TxSync
 1747 0028 00 00 00 00             		.long	_OCUART_RxSync
 1748 002c 00 00 00 00             		.long	_BCP_UARTRxBuffer
 1749 0030 00 00 00 00             		.long	_BCP_UARTRxBuffer
 1750 0034 00 46                   		.short	0x46
 1751 0036 00 46                   		.short	0x46
 1752                             		.section	.bss.CPApplianceDataTable,"aw",@nobits
 1753                             		.balign 4
 1756                             	_CPApplianceDataTable:
 1757 0000 00 00 00 00 00 00 00 00 		.zero	48
 1757      00 00 00 00 00 00 00 00 
 1757      00 00 00 00 00 00 00 00 
 1757      00 00 00 00 00 00 00 00 
 1757      00 00 00 00 00 00 00 00 
 1758                             		.section	.bss.SemaRegs,"aw",@nobits
 1759                             		.balign 4
 1762                             	_SemaRegs:
 1763 0000 00 00 00 00 00 00 00 00 		.zero	16
 1763      00 00 00 00 00 00 00 00 
 1764                             		.section	.bss.BCP_I2CTxBuffer,"aw",@nobits
 1767                             	_BCP_I2CTxBuffer:
 1768 0000 00 00 00 00 00 00 00 00 		.zero	264
 1768      00 00 00 00 00 00 00 00 
 1768      00 00 00 00 00 00 00 00 
 1768      00 00 00 00 00 00 00 00 
 1768      00 00 00 00 00 00 00 00 
 1769                             		.section	.bss.BCP_UARTRxBuffer,"aw",@nobits
 1772                             	_BCP_UARTRxBuffer:
 1773 0000 00 00 00 00 00 00 00 00 		.zero	70
 1773      00 00 00 00 00 00 00 00 
 1773      00 00 00 00 00 00 00 00 
 1773      00 00 00 00 00 00 00 00 
 1773      00 00 00 00 00 00 00 00 
 1774                             		.section	.bss.SemaUiInfo,"aw",@nobits
 1775                             		.balign 4
 1778                             	_SemaUiInfo:
 1779 0000 00 00 00 00 00 00 00 00 		.zero	16
 1779      00 00 00 00 00 00 00 00 
 1780                             		.section	.bss.ExternalBoardCommStatus,"aw",@nobits
 1783                             	_ExternalBoardCommStatus:
 1784 0000 00                      		.zero	1
 1785                             		.section	.bss.CP_CommunicationTaskTCB,"aw",@nobits
 1786                             		.balign 4
 1789                             	_CP_CommunicationTaskTCB:
 1790 0000 00 00 00 00 00 00 00 00 		.zero	44
 1790      00 00 00 00 00 00 00 00 
 1790      00 00 00 00 00 00 00 00 
 1790      00 00 00 00 00 00 00 00 
 1790      00 00 00 00 00 00 00 00 
 1791                             		.section	.osstack,"aw",@progbits
 1792                             		.balign 4
 1795                             	_CP_CommunicationTaskStack:
 1796 0000 00 00 00 00 00 00 00 00 		.zero	512
 1796      00 00 00 00 00 00 00 00 
 1796      00 00 00 00 00 00 00 00 
 1796      00 00 00 00 00 00 00 00 
 1796      00 00 00 00 00 00 00 00 
 1797                             		.section	.bss.CP_UartParserTaskTCB,"aw",@nobits
 1798                             		.balign 4
 1801                             	_CP_UartParserTaskTCB:
 1802 0000 00 00 00 00 00 00 00 00 		.zero	44
 1802      00 00 00 00 00 00 00 00 
 1802      00 00 00 00 00 00 00 00 
 1802      00 00 00 00 00 00 00 00 
 1802      00 00 00 00 00 00 00 00 
 1803                             		.section	.osstack
 1804                             		.balign 4
 1807                             	_CP_UartParserTaskStack:
 1808 0200 00 00 00 00 00 00 00 00 		.zero	320
 1808      00 00 00 00 00 00 00 00 
 1808      00 00 00 00 00 00 00 00 
 1808      00 00 00 00 00 00 00 00 
 1808      00 00 00 00 00 00 00 00 
 1809                             		.section	.rodata.WRRemapTable,"a",@progbits
 1810                             		.balign 4
 1813                             	_WRRemapTable:
 1814 0000 00 00 00 00             		.long	0
 1815 0004 00 00                   		.short	0
 1816 0006 3F FF                   		.short	0x3fff
 1817                             		.section	.rodata.RFRemapTable,"a",@progbits
 1818                             		.balign 4
 1821                             	_RFRemapTable:
 1822 0000 00 00 00 00             		.long	0
 1823 0004 00 00                   		.short	0
 1824 0006 3F FF                   		.short	0x3fff
 1825 0008 FF FF 00 00             		.long	0xffff0000
 1826 000c F0 00                   		.short	0xfffff000
 1827 000e FF FF                   		.short	-1
 1828 0010 FF FD A0 00             		.long	0xfffda000
 1829 0014 60 00                   		.short	0x6000
 1830 0016 EF FF                   		.short	0xffffefff
 1831 0018 00 0F C0 00             		.long	0xfc000
 1832 001c 40 00                   		.short	0x4000
 1833 001e 5F FF                   		.short	0x5fff
 1834                             		.section	.rodata.ProtocolReadingAccessTable,"a",@progbits
 1835                             		.balign 4
 1838                             	_ProtocolReadingAccessTable:
 1839 0000 00 00 00 00             		.long	0
 1840 0004 00 00 3F FF             		.long	0x3fff
 1841 0008 00 10 00 00             		.long	0x100000
 1842 000c 00 10 1F FF             		.long	0x101fff
 1843 0010 FF FE 00 00             		.long	0xfffe0000
 1844 0014 FF FF FF FF             		.long	-1
 1845                             		.section	.rodata.ProtocolErasingAccessTable,"a",@progbits
 1846                             		.balign 4
 1849                             	_ProtocolErasingAccessTable:
 1850 0000 00 10 00 00             		.long	0x100000
 1851 0004 00 10 03 FF             		.long	0x1003ff
 1852 0008 FF FE 00 00             		.long	0xfffe0000
 1853 000c FF FE 3F FF             		.long	0xfffe3fff
 1854                             		.section	.rodata.ProtocolWritingAccessTable,"a",@progbits
 1855                             		.balign 4
 1858                             	_ProtocolWritingAccessTable:
 1859 0000 00 10 00 00             		.long	0x100000
 1860 0004 00 10 03 FF             		.long	0x1003ff
 1861 0008 00 10 04 00             		.long	0x100400
 1862 000c 00 10 04 FF             		.long	0x1004ff
 1863 0010 FF FE 00 00             		.long	0xfffe0000
 1864 0014 FF FE 3F FF             		.long	0xfffe3fff
 2244                             	.Letext0:
 2245                             		.file 2 "C:\\Workspace\\FW_Platform2_5\\trunk\\HAL\\HAL_General/StandardTypes.h"
 2246                             		.file 3 "C:\\Workspace\\FW_Platform2_5\\trunk\\OS\\EmbOS\\RX200_GNU\\V388\\Inc/RTOS.h"
 2247                             		.file 4 "C:\\Workspace\\FW_Platform2_5\\trunk\\ProductModules\\PM_EnergyMeterSw/PM_EnergyMeterSwEx
 2248                             		.file 5 "C:\\Workspace\\FW_Platform2_5\\trunk\\HAL\\RN_RX200/RN_RX200_reg.h"
 2249                             		.file 6 "C:\\Workspace\\FW_Platform2_5\\trunk\\HAL\\RN_RX200/RN_RX200_cfg.h"
 2250                             		.file 7 "C:\\Workspace\\FW_Platform2_5\\trunk\\Drivers/IO_driver.h"
 2251                             		.file 8 "C:\\Workspace\\FW_Platform2_5\\trunk\\ProductModules\\PM_BusCOMM/BCP_General.h"
 2252                             		.file 9 "C:\\Workspace\\FW_Platform2_5\\trunk\\ProductModules\\PM_BusCOMM/BCP_PlatformProtocol.h"
 2253                             		.file 10 "C:\\Workspace\\FW_Platform2_5\\trunk\\ProductModules\\PM_BusCOMM/CSM_PlatformProtocol_EE
 2254                             		.file 11 "C:/Workspace/FW_Platform2_5/trunk/CFG_DishWasher/CFG_Inertia/BusCommPltf_cfg.h"
 2255                             		.file 12 "C:\\Workspace\\FW_Platform2_5\\trunk\\PlatformLibrary\\LIB_IOManager/OutputManagerExp.h"
 2256                             		.file 13 "C:\\Workspace\\FW_Platform2_5\\trunk\\Main\\EmbOS/MainInterface.h"
 2257                             		.file 14 "C:\\Workspace\\FW_Platform2_5\\trunk\\ProductModules\\PM_Library/Lib_Utilities.h"
 2258                             		.file 15 "C:\\Workspace\\FW_Platform2_5\\trunk\\PlatformLibrary/callback.h"
 2259                             		.file 16 "C:\\Workspace\\FW_Platform2_5\\trunk\\PlatformLibrary\\LIB_IOManager/ExternalOutputManag
 2260                             		.file 17 "C:\\Workspace\\FW_Platform2_5\\trunk\\ProductModules\\PM_EnergyMeterSw/PM_EnergyMeterSw.
 2261                             		.file 18 "C:\\Workspace\\FW_Platform2_5\\trunk\\ProductModules\\PM_BusCOMM/BCP_BusCommMng.h"
 2262                             		.file 19 "C:\\Workspace\\FW_Platform2_5\\trunk\\Drivers\\OCFLS/OCFLS_drv.h"
 2263                             		.file 20 "C:\\Workspace\\FW_Platform2_5\\trunk\\PlatformLibrary\\LIB_Reset/LIB_ResetExp.h"
 2264                             		.file 21 "C:\\Workspace\\FW_Platform2_5\\trunk\\PlatformLibrary\\LIB_Reset/LIB_Reset.h"
 2265                             		.file 22 "C:\\Workspace\\FW_Platform2_5\\trunk\\Drivers\\OCRST/OCRST_drv.h"
 2266                             		.file 23 "C:\\Workspace\\FW_Platform2_5\\trunk\\Drivers\\OCI2C/OCI2C_drv.h"
 2267                             		.file 24 "C:\\Workspace\\FW_Platform2_5\\trunk\\CFG_DishWasher\\CFG_Inertia/Config.h"
 2268                             		.file 25 "C:\\Workspace\\FW_Platform2_5\\trunk\\Drivers\\OCUART/OCUART_drv.h"
