   1                             		.file	"cpu_test.c"
   2                             		.section P,"ax"
   3                             	.Ltext0:
   4                             		.section	.text.CPU_Test_GeneralA,"ax",@progbits
   5                             		.global	_CPU_Test_GeneralA
   7                             	_CPU_Test_GeneralA:
   8                             	.LFB1:
   9                             		.file 1 "C:/Workspace/FW_Platform2_5/trunk/HAL/RN_RX200/IEC60335_B_libs/src/CPU/cpu_test.c"
   1:C:/Workspace/FW_Platform2_5/trunk/HAL/RN_RX200/IEC60335_B_libs/src/CPU\cpu_test.c **** /*******************************************************************************
   2:C:/Workspace/FW_Platform2_5/trunk/HAL/RN_RX200/IEC60335_B_libs/src/CPU\cpu_test.c **** * DISCLAIMER
   3:C:/Workspace/FW_Platform2_5/trunk/HAL/RN_RX200/IEC60335_B_libs/src/CPU\cpu_test.c **** * This software is supplied by Renesas Electronics Corporation and is only
   4:C:/Workspace/FW_Platform2_5/trunk/HAL/RN_RX200/IEC60335_B_libs/src/CPU\cpu_test.c **** * intended for use with Renesas products. No other uses are authorized. This
   5:C:/Workspace/FW_Platform2_5/trunk/HAL/RN_RX200/IEC60335_B_libs/src/CPU\cpu_test.c **** * software is owned by Renesas Electronics Corporation and is protected under
   6:C:/Workspace/FW_Platform2_5/trunk/HAL/RN_RX200/IEC60335_B_libs/src/CPU\cpu_test.c **** * all applicable laws, including copyright laws.
   7:C:/Workspace/FW_Platform2_5/trunk/HAL/RN_RX200/IEC60335_B_libs/src/CPU\cpu_test.c **** * THIS SOFTWARE IS PROVIDED "AS IS" AND RENESAS MAKES NO WARRANTIES REGARDING
   8:C:/Workspace/FW_Platform2_5/trunk/HAL/RN_RX200/IEC60335_B_libs/src/CPU\cpu_test.c **** * THIS SOFTWARE, WHETHER EXPRESS, IMPLIED OR STATUTORY, INCLUDING BUT NOT
   9:C:/Workspace/FW_Platform2_5/trunk/HAL/RN_RX200/IEC60335_B_libs/src/CPU\cpu_test.c **** * LIMITED TO WARRANTIES OF MERCHANTABILITY, FITNESS FOR A PARTICULAR PURPOSE
  10:C:/Workspace/FW_Platform2_5/trunk/HAL/RN_RX200/IEC60335_B_libs/src/CPU\cpu_test.c **** * AND NON-INFRINGEMENT. ALL SUCH WARRANTIES ARE EXPRESSLY DISCLAIMED.
  11:C:/Workspace/FW_Platform2_5/trunk/HAL/RN_RX200/IEC60335_B_libs/src/CPU\cpu_test.c **** * TO THE MAXIMUM EXTENT PERMITTED NOT PROHIBITED BY LAW, NEITHER RENESAS
  12:C:/Workspace/FW_Platform2_5/trunk/HAL/RN_RX200/IEC60335_B_libs/src/CPU\cpu_test.c **** * ELECTRONICS CORPORATION NOR ANY OF ITS AFFILIATED COMPANIES SHALL BE LIABLE
  13:C:/Workspace/FW_Platform2_5/trunk/HAL/RN_RX200/IEC60335_B_libs/src/CPU\cpu_test.c **** * FOR ANY DIRECT, INDIRECT, SPECIAL, INCIDENTAL OR CONSEQUENTIAL DAMAGES FOR
  14:C:/Workspace/FW_Platform2_5/trunk/HAL/RN_RX200/IEC60335_B_libs/src/CPU\cpu_test.c **** * ANY REASON RELATED TO THIS SOFTWARE, EVEN IF RENESAS OR ITS AFFILIATES HAVE
  15:C:/Workspace/FW_Platform2_5/trunk/HAL/RN_RX200/IEC60335_B_libs/src/CPU\cpu_test.c **** * BEEN ADVISED OF THE POSSIBILITY OF SUCH DAMAGES.
  16:C:/Workspace/FW_Platform2_5/trunk/HAL/RN_RX200/IEC60335_B_libs/src/CPU\cpu_test.c **** * Renesas reserves the right, without notice, to make changes to this software
  17:C:/Workspace/FW_Platform2_5/trunk/HAL/RN_RX200/IEC60335_B_libs/src/CPU\cpu_test.c **** * and to discontinue the availability of this software. By using this software,
  18:C:/Workspace/FW_Platform2_5/trunk/HAL/RN_RX200/IEC60335_B_libs/src/CPU\cpu_test.c **** * you agree to the additional terms and conditions found by accessing the
  19:C:/Workspace/FW_Platform2_5/trunk/HAL/RN_RX200/IEC60335_B_libs/src/CPU\cpu_test.c **** * following link:
  20:C:/Workspace/FW_Platform2_5/trunk/HAL/RN_RX200/IEC60335_B_libs/src/CPU\cpu_test.c **** * http://www.renesas.com/disclaimer
  21:C:/Workspace/FW_Platform2_5/trunk/HAL/RN_RX200/IEC60335_B_libs/src/CPU\cpu_test.c **** *******************************************************************************/
  22:C:/Workspace/FW_Platform2_5/trunk/HAL/RN_RX200/IEC60335_B_libs/src/CPU\cpu_test.c **** /* Copyright (C) 2010 Renesas Electronics Corporation. All rights reserved. */
  23:C:/Workspace/FW_Platform2_5/trunk/HAL/RN_RX200/IEC60335_B_libs/src/CPU\cpu_test.c **** /**********************************************************************
  24:C:/Workspace/FW_Platform2_5/trunk/HAL/RN_RX200/IEC60335_B_libs/src/CPU\cpu_test.c **** * File Name : cpu_test.c
  25:C:/Workspace/FW_Platform2_5/trunk/HAL/RN_RX200/IEC60335_B_libs/src/CPU\cpu_test.c **** * Version : 1.00
  26:C:/Workspace/FW_Platform2_5/trunk/HAL/RN_RX200/IEC60335_B_libs/src/CPU\cpu_test.c **** * Device : RX210
  27:C:/Workspace/FW_Platform2_5/trunk/HAL/RN_RX200/IEC60335_B_libs/src/CPU\cpu_test.c **** * Tool Chain : GNU Rx
  28:C:/Workspace/FW_Platform2_5/trunk/HAL/RN_RX200/IEC60335_B_libs/src/CPU\cpu_test.c **** * H/W Platform : 
  29:C:/Workspace/FW_Platform2_5/trunk/HAL/RN_RX200/IEC60335_B_libs/src/CPU\cpu_test.c **** * Description : Self Test code.
  30:C:/Workspace/FW_Platform2_5/trunk/HAL/RN_RX200/IEC60335_B_libs/src/CPU\cpu_test.c **** *               CPU Tests.
  31:C:/Workspace/FW_Platform2_5/trunk/HAL/RN_RX200/IEC60335_B_libs/src/CPU\cpu_test.c **** *				This file doesn't include the implementation of the
  32:C:/Workspace/FW_Platform2_5/trunk/HAL/RN_RX200/IEC60335_B_libs/src/CPU\cpu_test.c **** *				CPU General registers coupling tests
  33:C:/Workspace/FW_Platform2_5/trunk/HAL/RN_RX200/IEC60335_B_libs/src/CPU\cpu_test.c **** *				 - see cpu_test_coupling.c
  34:C:/Workspace/FW_Platform2_5/trunk/HAL/RN_RX200/IEC60335_B_libs/src/CPU\cpu_test.c **** *				 
  35:C:/Workspace/FW_Platform2_5/trunk/HAL/RN_RX200/IEC60335_B_libs/src/CPU\cpu_test.c **** *				 This file should be built with optimisation off.
  36:C:/Workspace/FW_Platform2_5/trunk/HAL/RN_RX200/IEC60335_B_libs/src/CPU\cpu_test.c **** **********************************************************************/
  37:C:/Workspace/FW_Platform2_5/trunk/HAL/RN_RX200/IEC60335_B_libs/src/CPU\cpu_test.c **** 
  38:C:/Workspace/FW_Platform2_5/trunk/HAL/RN_RX200/IEC60335_B_libs/src/CPU\cpu_test.c **** 
  39:C:/Workspace/FW_Platform2_5/trunk/HAL/RN_RX200/IEC60335_B_libs/src/CPU\cpu_test.c **** /**********************************************************************************
  40:C:/Workspace/FW_Platform2_5/trunk/HAL/RN_RX200/IEC60335_B_libs/src/CPU\cpu_test.c **** Revision History
  41:C:/Workspace/FW_Platform2_5/trunk/HAL/RN_RX200/IEC60335_B_libs/src/CPU\cpu_test.c **** DD-MMM-YYYY OSO-UID Description
  42:C:/Workspace/FW_Platform2_5/trunk/HAL/RN_RX200/IEC60335_B_libs/src/CPU\cpu_test.c **** 20-Jan-2011 RTE-PJI First Release
  43:C:/Workspace/FW_Platform2_5/trunk/HAL/RN_RX200/IEC60335_B_libs/src/CPU\cpu_test.c **** 03-Feb-2011 VDE (Version 1.0) (RX62T)
  44:C:/Workspace/FW_Platform2_5/trunk/HAL/RN_RX200/IEC60335_B_libs/src/CPU\cpu_test.c **** 02-SEP-2011 RTE-PJI Adapted for RX210. RX210 doesn't have a FPSW register.
  45:C:/Workspace/FW_Platform2_5/trunk/HAL/RN_RX200/IEC60335_B_libs/src/CPU\cpu_test.c **** 15-Nov-2011 VDE (Version 1.1)
  46:C:/Workspace/FW_Platform2_5/trunk/HAL/RN_RX200/IEC60335_B_libs/src/CPU\cpu_test.c **** 09-May-2012 RTE-PJI Ported to GCC (Version 1.2)
  47:C:/Workspace/FW_Platform2_5/trunk/HAL/RN_RX200/IEC60335_B_libs/src/CPU\cpu_test.c **** ***********************************************************************************/
  48:C:/Workspace/FW_Platform2_5/trunk/HAL/RN_RX200/IEC60335_B_libs/src/CPU\cpu_test.c **** 
  49:C:/Workspace/FW_Platform2_5/trunk/HAL/RN_RX200/IEC60335_B_libs/src/CPU\cpu_test.c **** /***********************************************************************************
  50:C:/Workspace/FW_Platform2_5/trunk/HAL/RN_RX200/IEC60335_B_libs/src/CPU\cpu_test.c **** Includes
  51:C:/Workspace/FW_Platform2_5/trunk/HAL/RN_RX200/IEC60335_B_libs/src/CPU\cpu_test.c **** ***********************************************************************************/
  52:C:/Workspace/FW_Platform2_5/trunk/HAL/RN_RX200/IEC60335_B_libs/src/CPU\cpu_test.c **** #include "misratypes.h"
  53:C:/Workspace/FW_Platform2_5/trunk/HAL/RN_RX200/IEC60335_B_libs/src/CPU\cpu_test.c **** #include "cpu_test.h"
  54:C:/Workspace/FW_Platform2_5/trunk/HAL/RN_RX200/IEC60335_B_libs/src/CPU\cpu_test.c **** 
  55:C:/Workspace/FW_Platform2_5/trunk/HAL/RN_RX200/IEC60335_B_libs/src/CPU\cpu_test.c **** /**********************************************************************************
  56:C:/Workspace/FW_Platform2_5/trunk/HAL/RN_RX200/IEC60335_B_libs/src/CPU\cpu_test.c **** #defines
  57:C:/Workspace/FW_Platform2_5/trunk/HAL/RN_RX200/IEC60335_B_libs/src/CPU\cpu_test.c **** ***********************************************************************************/
  58:C:/Workspace/FW_Platform2_5/trunk/HAL/RN_RX200/IEC60335_B_libs/src/CPU\cpu_test.c **** /*Comment this out if you want to use the Non-Coupling General Purpose
  59:C:/Workspace/FW_Platform2_5/trunk/HAL/RN_RX200/IEC60335_B_libs/src/CPU\cpu_test.c **** registers tests in the CPU_Test_ALL function.*/
  60:C:/Workspace/FW_Platform2_5/trunk/HAL/RN_RX200/IEC60335_B_libs/src/CPU\cpu_test.c **** #define USE_TestGPRsCoupling
  61:C:/Workspace/FW_Platform2_5/trunk/HAL/RN_RX200/IEC60335_B_libs/src/CPU\cpu_test.c **** 
  62:C:/Workspace/FW_Platform2_5/trunk/HAL/RN_RX200/IEC60335_B_libs/src/CPU\cpu_test.c **** /*The RX Group share the same CPU core but with a few differences that
  63:C:/Workspace/FW_Platform2_5/trunk/HAL/RN_RX200/IEC60335_B_libs/src/CPU\cpu_test.c **** are catered for by these #defines:*/
  64:C:/Workspace/FW_Platform2_5/trunk/HAL/RN_RX200/IEC60335_B_libs/src/CPU\cpu_test.c **** /*Define RX610 if using with an RX610*/
  65:C:/Workspace/FW_Platform2_5/trunk/HAL/RN_RX200/IEC60335_B_libs/src/CPU\cpu_test.c **** /*#define RX610*/
  66:C:/Workspace/FW_Platform2_5/trunk/HAL/RN_RX200/IEC60335_B_libs/src/CPU\cpu_test.c **** /*Define RX210 if using with an RX210*/
  67:C:/Workspace/FW_Platform2_5/trunk/HAL/RN_RX200/IEC60335_B_libs/src/CPU\cpu_test.c **** #define RX210
  68:C:/Workspace/FW_Platform2_5/trunk/HAL/RN_RX200/IEC60335_B_libs/src/CPU\cpu_test.c **** 
  69:C:/Workspace/FW_Platform2_5/trunk/HAL/RN_RX200/IEC60335_B_libs/src/CPU\cpu_test.c **** /***********************************************************************************
  70:C:/Workspace/FW_Platform2_5/trunk/HAL/RN_RX200/IEC60335_B_libs/src/CPU\cpu_test.c **** Function Prototypes
  71:C:/Workspace/FW_Platform2_5/trunk/HAL/RN_RX200/IEC60335_B_libs/src/CPU\cpu_test.c **** ***********************************************************************************/					
  72:C:/Workspace/FW_Platform2_5/trunk/HAL/RN_RX200/IEC60335_B_libs/src/CPU\cpu_test.c **** 
  73:C:/Workspace/FW_Platform2_5/trunk/HAL/RN_RX200/IEC60335_B_libs/src/CPU\cpu_test.c **** /*C Function called from CPU_Test_PC*/
  74:C:/Workspace/FW_Platform2_5/trunk/HAL/RN_RX200/IEC60335_B_libs/src/CPU\cpu_test.c **** static uint32_t TestPC_TestFunction(uint32_t ui32Value) __attribute__ ((section (".PCTEST_TESTFUNCT
  75:C:/Workspace/FW_Platform2_5/trunk/HAL/RN_RX200/IEC60335_B_libs/src/CPU\cpu_test.c **** void ForImport_CPU_Test(void);
  76:C:/Workspace/FW_Platform2_5/trunk/HAL/RN_RX200/IEC60335_B_libs/src/CPU\cpu_test.c **** 
  77:C:/Workspace/FW_Platform2_5/trunk/HAL/RN_RX200/IEC60335_B_libs/src/CPU\cpu_test.c **** /***********************************************************************************
  78:C:/Workspace/FW_Platform2_5/trunk/HAL/RN_RX200/IEC60335_B_libs/src/CPU\cpu_test.c **** User Program Code
  79:C:/Workspace/FW_Platform2_5/trunk/HAL/RN_RX200/IEC60335_B_libs/src/CPU\cpu_test.c **** ***********************************************************************************/
  80:C:/Workspace/FW_Platform2_5/trunk/HAL/RN_RX200/IEC60335_B_libs/src/CPU\cpu_test.c **** 
  81:C:/Workspace/FW_Platform2_5/trunk/HAL/RN_RX200/IEC60335_B_libs/src/CPU\cpu_test.c **** /***********************************************************************************
  82:C:/Workspace/FW_Platform2_5/trunk/HAL/RN_RX200/IEC60335_B_libs/src/CPU\cpu_test.c **** Function Name : CPU_Test_All
  83:C:/Workspace/FW_Platform2_5/trunk/HAL/RN_RX200/IEC60335_B_libs/src/CPU\cpu_test.c **** Description   :	Performs all of the CPU tests.
  84:C:/Workspace/FW_Platform2_5/trunk/HAL/RN_RX200/IEC60335_B_libs/src/CPU\cpu_test.c **** 
  85:C:/Workspace/FW_Platform2_5/trunk/HAL/RN_RX200/IEC60335_B_libs/src/CPU\cpu_test.c **** 				Use #define USE_TestGPRsCoupling to select which General Purpose
  86:C:/Workspace/FW_Platform2_5/trunk/HAL/RN_RX200/IEC60335_B_libs/src/CPU\cpu_test.c **** 				Register test to perform.
  87:C:/Workspace/FW_Platform2_5/trunk/HAL/RN_RX200/IEC60335_B_libs/src/CPU\cpu_test.c **** 				
  88:C:/Workspace/FW_Platform2_5/trunk/HAL/RN_RX200/IEC60335_B_libs/src/CPU\cpu_test.c **** 				NOTE: The processor mode must be supevisor mode.
  89:C:/Workspace/FW_Platform2_5/trunk/HAL/RN_RX200/IEC60335_B_libs/src/CPU\cpu_test.c **** 				In user mode this test will fail as some of the control registers
  90:C:/Workspace/FW_Platform2_5/trunk/HAL/RN_RX200/IEC60335_B_libs/src/CPU\cpu_test.c **** 				can not be written to in user mode.
  91:C:/Workspace/FW_Platform2_5/trunk/HAL/RN_RX200/IEC60335_B_libs/src/CPU\cpu_test.c **** 				If calling this test from within an interrupt handler then the
  92:C:/Workspace/FW_Platform2_5/trunk/HAL/RN_RX200/IEC60335_B_libs/src/CPU\cpu_test.c **** 				processor mode will automatically be supervisor mode.
  93:C:/Workspace/FW_Platform2_5/trunk/HAL/RN_RX200/IEC60335_B_libs/src/CPU\cpu_test.c **** 
  94:C:/Workspace/FW_Platform2_5/trunk/HAL/RN_RX200/IEC60335_B_libs/src/CPU\cpu_test.c **** 				AN INTERRUPT MUST NOT OCCUR DURING THIS FUNCTION.
  95:C:/Workspace/FW_Platform2_5/trunk/HAL/RN_RX200/IEC60335_B_libs/src/CPU\cpu_test.c **** 				IT IS THE CALLING FUNCTIONS RESPONSIBILITY TO ENSURE THIS.
  96:C:/Workspace/FW_Platform2_5/trunk/HAL/RN_RX200/IEC60335_B_libs/src/CPU\cpu_test.c **** 
  97:C:/Workspace/FW_Platform2_5/trunk/HAL/RN_RX200/IEC60335_B_libs/src/CPU\cpu_test.c **** 				If an error is detected then external function
  98:C:/Workspace/FW_Platform2_5/trunk/HAL/RN_RX200/IEC60335_B_libs/src/CPU\cpu_test.c **** 				CPU_Test_ErrorHandler will be called.
  99:C:/Workspace/FW_Platform2_5/trunk/HAL/RN_RX200/IEC60335_B_libs/src/CPU\cpu_test.c **** 				See individual tests functions for full description.
 100:C:/Workspace/FW_Platform2_5/trunk/HAL/RN_RX200/IEC60335_B_libs/src/CPU\cpu_test.c **** 				
 101:C:/Workspace/FW_Platform2_5/trunk/HAL/RN_RX200/IEC60335_B_libs/src/CPU\cpu_test.c **** 				
 102:C:/Workspace/FW_Platform2_5/trunk/HAL/RN_RX200/IEC60335_B_libs/src/CPU\cpu_test.c **** 				
 103:C:/Workspace/FW_Platform2_5/trunk/HAL/RN_RX200/IEC60335_B_libs/src/CPU\cpu_test.c **** Parameters    : none				
 104:C:/Workspace/FW_Platform2_5/trunk/HAL/RN_RX200/IEC60335_B_libs/src/CPU\cpu_test.c **** Return Value  : void
 105:C:/Workspace/FW_Platform2_5/trunk/HAL/RN_RX200/IEC60335_B_libs/src/CPU\cpu_test.c **** ***********************************************************************************/
 106:C:/Workspace/FW_Platform2_5/trunk/HAL/RN_RX200/IEC60335_B_libs/src/CPU\cpu_test.c **** void CPU_Test_All(void)
 107:C:/Workspace/FW_Platform2_5/trunk/HAL/RN_RX200/IEC60335_B_libs/src/CPU\cpu_test.c **** {
 108:C:/Workspace/FW_Platform2_5/trunk/HAL/RN_RX200/IEC60335_B_libs/src/CPU\cpu_test.c **** 	#ifdef USE_TestGPRsCoupling
 109:C:/Workspace/FW_Platform2_5/trunk/HAL/RN_RX200/IEC60335_B_libs/src/CPU\cpu_test.c **** 		/*General Purpose Registers Coupling tests. (R0 to R15) */
 110:C:/Workspace/FW_Platform2_5/trunk/HAL/RN_RX200/IEC60335_B_libs/src/CPU\cpu_test.c **** 		/*NOTE THese functions are implemented in file CPU_Test_Coupling.c*/
 111:C:/Workspace/FW_Platform2_5/trunk/HAL/RN_RX200/IEC60335_B_libs/src/CPU\cpu_test.c **** 		CPU_Test_GPRsCouplingPartA();
 112:C:/Workspace/FW_Platform2_5/trunk/HAL/RN_RX200/IEC60335_B_libs/src/CPU\cpu_test.c **** 		CPU_Test_GPRsCouplingPartB();
 113:C:/Workspace/FW_Platform2_5/trunk/HAL/RN_RX200/IEC60335_B_libs/src/CPU\cpu_test.c **** 	#else
 114:C:/Workspace/FW_Platform2_5/trunk/HAL/RN_RX200/IEC60335_B_libs/src/CPU\cpu_test.c **** 		/*Test General Purpose Registers that don't need preserving first*/
 115:C:/Workspace/FW_Platform2_5/trunk/HAL/RN_RX200/IEC60335_B_libs/src/CPU\cpu_test.c **** 		CPU_Test_GeneralA();
 116:C:/Workspace/FW_Platform2_5/trunk/HAL/RN_RX200/IEC60335_B_libs/src/CPU\cpu_test.c **** 		/*Test General Purpose Registers that require preserving */
 117:C:/Workspace/FW_Platform2_5/trunk/HAL/RN_RX200/IEC60335_B_libs/src/CPU\cpu_test.c **** 		CPU_Test_GeneralB();
 118:C:/Workspace/FW_Platform2_5/trunk/HAL/RN_RX200/IEC60335_B_libs/src/CPU\cpu_test.c **** 	#endif
 119:C:/Workspace/FW_Platform2_5/trunk/HAL/RN_RX200/IEC60335_B_libs/src/CPU\cpu_test.c **** 	
 120:C:/Workspace/FW_Platform2_5/trunk/HAL/RN_RX200/IEC60335_B_libs/src/CPU\cpu_test.c **** 	/*Control Registers*/
 121:C:/Workspace/FW_Platform2_5/trunk/HAL/RN_RX200/IEC60335_B_libs/src/CPU\cpu_test.c **** 	CPU_Test_Control();
 122:C:/Workspace/FW_Platform2_5/trunk/HAL/RN_RX200/IEC60335_B_libs/src/CPU\cpu_test.c **** 	
 123:C:/Workspace/FW_Platform2_5/trunk/HAL/RN_RX200/IEC60335_B_libs/src/CPU\cpu_test.c **** 	/*Accumulator Register*/
 124:C:/Workspace/FW_Platform2_5/trunk/HAL/RN_RX200/IEC60335_B_libs/src/CPU\cpu_test.c **** 	CPU_Test_Accumulator();
 125:C:/Workspace/FW_Platform2_5/trunk/HAL/RN_RX200/IEC60335_B_libs/src/CPU\cpu_test.c **** 	
 126:C:/Workspace/FW_Platform2_5/trunk/HAL/RN_RX200/IEC60335_B_libs/src/CPU\cpu_test.c **** 	/*Program Counter*/
 127:C:/Workspace/FW_Platform2_5/trunk/HAL/RN_RX200/IEC60335_B_libs/src/CPU\cpu_test.c **** 	CPU_Test_PC();
 128:C:/Workspace/FW_Platform2_5/trunk/HAL/RN_RX200/IEC60335_B_libs/src/CPU\cpu_test.c **** }
 129:C:/Workspace/FW_Platform2_5/trunk/HAL/RN_RX200/IEC60335_B_libs/src/CPU\cpu_test.c **** 
 130:C:/Workspace/FW_Platform2_5/trunk/HAL/RN_RX200/IEC60335_B_libs/src/CPU\cpu_test.c **** /***********************************************************************************
 131:C:/Workspace/FW_Platform2_5/trunk/HAL/RN_RX200/IEC60335_B_libs/src/CPU\cpu_test.c **** Function Name : CPU_Test_GeneralA
 132:C:/Workspace/FW_Platform2_5/trunk/HAL/RN_RX200/IEC60335_B_libs/src/CPU\cpu_test.c **** Description   :	Test general purpose registers R1,R2,R3,R4,R5,R14 and R15.
 133:C:/Workspace/FW_Platform2_5/trunk/HAL/RN_RX200/IEC60335_B_libs/src/CPU\cpu_test.c **** 				These are the general registers that don't need to be Preserved - see below.
 134:C:/Workspace/FW_Platform2_5/trunk/HAL/RN_RX200/IEC60335_B_libs/src/CPU\cpu_test.c **** 				
 135:C:/Workspace/FW_Platform2_5/trunk/HAL/RN_RX200/IEC60335_B_libs/src/CPU\cpu_test.c **** 				Registers are tested in pairs.
 136:C:/Workspace/FW_Platform2_5/trunk/HAL/RN_RX200/IEC60335_B_libs/src/CPU\cpu_test.c **** 				For each pair of registers:-
 137:C:/Workspace/FW_Platform2_5/trunk/HAL/RN_RX200/IEC60335_B_libs/src/CPU\cpu_test.c **** 				1. Write h'55555555 to both.
 138:C:/Workspace/FW_Platform2_5/trunk/HAL/RN_RX200/IEC60335_B_libs/src/CPU\cpu_test.c **** 				2. Read both and check they are equal.
 139:C:/Workspace/FW_Platform2_5/trunk/HAL/RN_RX200/IEC60335_B_libs/src/CPU\cpu_test.c **** 				3. Write h'AAAAAAAA to both.
 140:C:/Workspace/FW_Platform2_5/trunk/HAL/RN_RX200/IEC60335_B_libs/src/CPU\cpu_test.c **** 				4. Read both and check they are equal.
 141:C:/Workspace/FW_Platform2_5/trunk/HAL/RN_RX200/IEC60335_B_libs/src/CPU\cpu_test.c **** 				
 142:C:/Workspace/FW_Platform2_5/trunk/HAL/RN_RX200/IEC60335_B_libs/src/CPU\cpu_test.c **** 				Note:
 143:C:/Workspace/FW_Platform2_5/trunk/HAL/RN_RX200/IEC60335_B_libs/src/CPU\cpu_test.c **** 				The rules for register preservation state that
 144:C:/Workspace/FW_Platform2_5/trunk/HAL/RN_RX200/IEC60335_B_libs/src/CPU\cpu_test.c **** 				registers R1,R2,R3,R4,R5,R14 and R15 are free for a function to use
 145:C:/Workspace/FW_Platform2_5/trunk/HAL/RN_RX200/IEC60335_B_libs/src/CPU\cpu_test.c **** 				without preserving their values.
 146:C:/Workspace/FW_Platform2_5/trunk/HAL/RN_RX200/IEC60335_B_libs/src/CPU\cpu_test.c **** 				Hence this function does not Preserve the values of
 147:C:/Workspace/FW_Platform2_5/trunk/HAL/RN_RX200/IEC60335_B_libs/src/CPU\cpu_test.c **** 				these registers.
 148:C:/Workspace/FW_Platform2_5/trunk/HAL/RN_RX200/IEC60335_B_libs/src/CPU\cpu_test.c **** 				
 149:C:/Workspace/FW_Platform2_5/trunk/HAL/RN_RX200/IEC60335_B_libs/src/CPU\cpu_test.c **** 				AN INTERRUPT MUST NOT OCCUR DURING THIS FUNCTION.
 150:C:/Workspace/FW_Platform2_5/trunk/HAL/RN_RX200/IEC60335_B_libs/src/CPU\cpu_test.c **** 				IT IS THE CALLING FUNCTIONS RESPONSIBILITY TO ENSURE THIS.
 151:C:/Workspace/FW_Platform2_5/trunk/HAL/RN_RX200/IEC60335_B_libs/src/CPU\cpu_test.c **** 				
 152:C:/Workspace/FW_Platform2_5/trunk/HAL/RN_RX200/IEC60335_B_libs/src/CPU\cpu_test.c **** 				If an error is detected then external function
 153:C:/Workspace/FW_Platform2_5/trunk/HAL/RN_RX200/IEC60335_B_libs/src/CPU\cpu_test.c **** 				CPU_Test_ErrorHandler will be called.
 154:C:/Workspace/FW_Platform2_5/trunk/HAL/RN_RX200/IEC60335_B_libs/src/CPU\cpu_test.c **** 				
 155:C:/Workspace/FW_Platform2_5/trunk/HAL/RN_RX200/IEC60335_B_libs/src/CPU\cpu_test.c **** Parameters    : none				
 156:C:/Workspace/FW_Platform2_5/trunk/HAL/RN_RX200/IEC60335_B_libs/src/CPU\cpu_test.c **** Return Value  : void
 157:C:/Workspace/FW_Platform2_5/trunk/HAL/RN_RX200/IEC60335_B_libs/src/CPU\cpu_test.c **** ***********************************************************************************/
 158:C:/Workspace/FW_Platform2_5/trunk/HAL/RN_RX200/IEC60335_B_libs/src/CPU\cpu_test.c **** void CPU_Test_GeneralA(void)
 159:C:/Workspace/FW_Platform2_5/trunk/HAL/RN_RX200/IEC60335_B_libs/src/CPU\cpu_test.c **** {
  10                             		.loc 1 159 0
  11 0000 7E A6                   		push.l	r6
  12                             	.LCFI0:
  13 0002 EF 06                   		mov.L	r0, r6
  14                             	.LCFI1:
 160:C:/Workspace/FW_Platform2_5/trunk/HAL/RN_RX200/IEC60335_B_libs/src/CPU\cpu_test.c **** 	/*** Test R1 and R2 ****/
 161:C:/Workspace/FW_Platform2_5/trunk/HAL/RN_RX200/IEC60335_B_libs/src/CPU\cpu_test.c **** 	__asm__ ("MOV.L #055555555h, R1");
  15                             		.loc 1 161 0
  16                             	 ; 161 "C:/Workspace/FW_Platform2_5/trunk/HAL/RN_RX200/IEC60335_B_libs/src/CPU/cpu_test.c" 1
  17 0004 FB 12 55 55 55 55       		MOV.L #055555555h, R1
  18                             	 ; 0 "" 2
 162:C:/Workspace/FW_Platform2_5/trunk/HAL/RN_RX200/IEC60335_B_libs/src/CPU\cpu_test.c **** 	__asm__ ("MOV.L #055555555h, R2");
  19                             		.loc 1 162 0
  20                             	 ; 162 "C:/Workspace/FW_Platform2_5/trunk/HAL/RN_RX200/IEC60335_B_libs/src/CPU/cpu_test.c" 1
  21 000a FB 22 55 55 55 55       		MOV.L #055555555h, R2
  22                             	 ; 0 "" 2
 163:C:/Workspace/FW_Platform2_5/trunk/HAL/RN_RX200/IEC60335_B_libs/src/CPU\cpu_test.c **** 	__asm__ ("CMP R1,R2");
  23                             		.loc 1 163 0
  24                             	 ; 163 "C:/Workspace/FW_Platform2_5/trunk/HAL/RN_RX200/IEC60335_B_libs/src/CPU/cpu_test.c" 1
  25 0010 47 12                   		CMP R1,R2
  26                             	 ; 0 "" 2
 164:C:/Workspace/FW_Platform2_5/trunk/HAL/RN_RX200/IEC60335_B_libs/src/CPU\cpu_test.c **** 	__asm__ ("BNE LABEL_FAILED_Test_GeneralA");
  27                             		.loc 1 164 0
  28                             	 ; 164 "C:/Workspace/FW_Platform2_5/trunk/HAL/RN_RX200/IEC60335_B_libs/src/CPU/cpu_test.c" 1
  29 0012 21 74                   		BNE LABEL_FAILED_Test_GeneralA
  30                             	 ; 0 "" 2
 165:C:/Workspace/FW_Platform2_5/trunk/HAL/RN_RX200/IEC60335_B_libs/src/CPU\cpu_test.c **** 
 166:C:/Workspace/FW_Platform2_5/trunk/HAL/RN_RX200/IEC60335_B_libs/src/CPU\cpu_test.c **** 	__asm__ ("MOV.L #0AAAAAAAAh, R1");
  31                             		.loc 1 166 0
  32                             	 ; 166 "C:/Workspace/FW_Platform2_5/trunk/HAL/RN_RX200/IEC60335_B_libs/src/CPU/cpu_test.c" 1
  33 0014 FB 12 AA AA AA AA       		MOV.L #0AAAAAAAAh, R1
  34                             	 ; 0 "" 2
 167:C:/Workspace/FW_Platform2_5/trunk/HAL/RN_RX200/IEC60335_B_libs/src/CPU\cpu_test.c **** 	__asm__ ("MOV.L #0AAAAAAAAh, R2");
  35                             		.loc 1 167 0
  36                             	 ; 167 "C:/Workspace/FW_Platform2_5/trunk/HAL/RN_RX200/IEC60335_B_libs/src/CPU/cpu_test.c" 1
  37 001a FB 22 AA AA AA AA       		MOV.L #0AAAAAAAAh, R2
  38                             	 ; 0 "" 2
 168:C:/Workspace/FW_Platform2_5/trunk/HAL/RN_RX200/IEC60335_B_libs/src/CPU\cpu_test.c **** 	__asm__ ("CMP R1,R2");
  39                             		.loc 1 168 0
  40                             	 ; 168 "C:/Workspace/FW_Platform2_5/trunk/HAL/RN_RX200/IEC60335_B_libs/src/CPU/cpu_test.c" 1
  41 0020 47 12                   		CMP R1,R2
  42                             	 ; 0 "" 2
 169:C:/Workspace/FW_Platform2_5/trunk/HAL/RN_RX200/IEC60335_B_libs/src/CPU\cpu_test.c **** 	__asm__ ("BNE  LABEL_FAILED_Test_GeneralA");
  43                             		.loc 1 169 0
  44                             	 ; 169 "C:/Workspace/FW_Platform2_5/trunk/HAL/RN_RX200/IEC60335_B_libs/src/CPU/cpu_test.c" 1
  45 0022 21 64                   		BNE  LABEL_FAILED_Test_GeneralA
  46                             	 ; 0 "" 2
 170:C:/Workspace/FW_Platform2_5/trunk/HAL/RN_RX200/IEC60335_B_libs/src/CPU\cpu_test.c **** 	
 171:C:/Workspace/FW_Platform2_5/trunk/HAL/RN_RX200/IEC60335_B_libs/src/CPU\cpu_test.c **** 	/*** Test R3 and R4 ****/
 172:C:/Workspace/FW_Platform2_5/trunk/HAL/RN_RX200/IEC60335_B_libs/src/CPU\cpu_test.c **** 	__asm__ ("MOV.L #055555555h, R3");
  47                             		.loc 1 172 0
  48                             	 ; 172 "C:/Workspace/FW_Platform2_5/trunk/HAL/RN_RX200/IEC60335_B_libs/src/CPU/cpu_test.c" 1
  49 0024 FB 32 55 55 55 55       		MOV.L #055555555h, R3
  50                             	 ; 0 "" 2
 173:C:/Workspace/FW_Platform2_5/trunk/HAL/RN_RX200/IEC60335_B_libs/src/CPU\cpu_test.c **** 	__asm__ ("MOV.L #055555555h, R4");
  51                             		.loc 1 173 0
  52                             	 ; 173 "C:/Workspace/FW_Platform2_5/trunk/HAL/RN_RX200/IEC60335_B_libs/src/CPU/cpu_test.c" 1
  53 002a FB 42 55 55 55 55       		MOV.L #055555555h, R4
  54                             	 ; 0 "" 2
 174:C:/Workspace/FW_Platform2_5/trunk/HAL/RN_RX200/IEC60335_B_libs/src/CPU\cpu_test.c **** 	__asm__ ("CMP R3,R4");
  55                             		.loc 1 174 0
  56                             	 ; 174 "C:/Workspace/FW_Platform2_5/trunk/HAL/RN_RX200/IEC60335_B_libs/src/CPU/cpu_test.c" 1
  57 0030 47 34                   		CMP R3,R4
  58                             	 ; 0 "" 2
 175:C:/Workspace/FW_Platform2_5/trunk/HAL/RN_RX200/IEC60335_B_libs/src/CPU\cpu_test.c **** 	__asm__ ("BNE LABEL_FAILED_Test_GeneralA");
  59                             		.loc 1 175 0
  60                             	 ; 175 "C:/Workspace/FW_Platform2_5/trunk/HAL/RN_RX200/IEC60335_B_libs/src/CPU/cpu_test.c" 1
  61 0032 21 54                   		BNE LABEL_FAILED_Test_GeneralA
  62                             	 ; 0 "" 2
 176:C:/Workspace/FW_Platform2_5/trunk/HAL/RN_RX200/IEC60335_B_libs/src/CPU\cpu_test.c **** 
 177:C:/Workspace/FW_Platform2_5/trunk/HAL/RN_RX200/IEC60335_B_libs/src/CPU\cpu_test.c **** 	__asm__ ("MOV.L #0AAAAAAAAh, R3");
  63                             		.loc 1 177 0
  64                             	 ; 177 "C:/Workspace/FW_Platform2_5/trunk/HAL/RN_RX200/IEC60335_B_libs/src/CPU/cpu_test.c" 1
  65 0034 FB 32 AA AA AA AA       		MOV.L #0AAAAAAAAh, R3
  66                             	 ; 0 "" 2
 178:C:/Workspace/FW_Platform2_5/trunk/HAL/RN_RX200/IEC60335_B_libs/src/CPU\cpu_test.c **** 	__asm__ ("MOV.L #0AAAAAAAAh, R4");
  67                             		.loc 1 178 0
  68                             	 ; 178 "C:/Workspace/FW_Platform2_5/trunk/HAL/RN_RX200/IEC60335_B_libs/src/CPU/cpu_test.c" 1
  69 003a FB 42 AA AA AA AA       		MOV.L #0AAAAAAAAh, R4
  70                             	 ; 0 "" 2
 179:C:/Workspace/FW_Platform2_5/trunk/HAL/RN_RX200/IEC60335_B_libs/src/CPU\cpu_test.c **** 	__asm__ ("CMP R3,R4");
  71                             		.loc 1 179 0
  72                             	 ; 179 "C:/Workspace/FW_Platform2_5/trunk/HAL/RN_RX200/IEC60335_B_libs/src/CPU/cpu_test.c" 1
  73 0040 47 34                   		CMP R3,R4
  74                             	 ; 0 "" 2
 180:C:/Workspace/FW_Platform2_5/trunk/HAL/RN_RX200/IEC60335_B_libs/src/CPU\cpu_test.c **** 	__asm__ ("BNE  LABEL_FAILED_Test_GeneralA");
  75                             		.loc 1 180 0
  76                             	 ; 180 "C:/Workspace/FW_Platform2_5/trunk/HAL/RN_RX200/IEC60335_B_libs/src/CPU/cpu_test.c" 1
  77 0042 21 44                   		BNE  LABEL_FAILED_Test_GeneralA
  78                             	 ; 0 "" 2
 181:C:/Workspace/FW_Platform2_5/trunk/HAL/RN_RX200/IEC60335_B_libs/src/CPU\cpu_test.c **** 	
 182:C:/Workspace/FW_Platform2_5/trunk/HAL/RN_RX200/IEC60335_B_libs/src/CPU\cpu_test.c **** 	/*** Test R5 and R14 ****/
 183:C:/Workspace/FW_Platform2_5/trunk/HAL/RN_RX200/IEC60335_B_libs/src/CPU\cpu_test.c **** 	__asm__ ("MOV.L #055555555h, R5");
  79                             		.loc 1 183 0
  80                             	 ; 183 "C:/Workspace/FW_Platform2_5/trunk/HAL/RN_RX200/IEC60335_B_libs/src/CPU/cpu_test.c" 1
  81 0044 FB 52 55 55 55 55       		MOV.L #055555555h, R5
  82                             	 ; 0 "" 2
 184:C:/Workspace/FW_Platform2_5/trunk/HAL/RN_RX200/IEC60335_B_libs/src/CPU\cpu_test.c **** 	__asm__ ("MOV.L #055555555h, R14");
  83                             		.loc 1 184 0
  84                             	 ; 184 "C:/Workspace/FW_Platform2_5/trunk/HAL/RN_RX200/IEC60335_B_libs/src/CPU/cpu_test.c" 1
  85 004a FB E2 55 55 55 55       		MOV.L #055555555h, R14
  86                             	 ; 0 "" 2
 185:C:/Workspace/FW_Platform2_5/trunk/HAL/RN_RX200/IEC60335_B_libs/src/CPU\cpu_test.c **** 	__asm__ ("CMP R5,R14");
  87                             		.loc 1 185 0
  88                             	 ; 185 "C:/Workspace/FW_Platform2_5/trunk/HAL/RN_RX200/IEC60335_B_libs/src/CPU/cpu_test.c" 1
  89 0050 47 5E                   		CMP R5,R14
  90                             	 ; 0 "" 2
 186:C:/Workspace/FW_Platform2_5/trunk/HAL/RN_RX200/IEC60335_B_libs/src/CPU\cpu_test.c **** 	__asm__ ("BNE LABEL_FAILED_Test_GeneralA");
  91                             		.loc 1 186 0
  92                             	 ; 186 "C:/Workspace/FW_Platform2_5/trunk/HAL/RN_RX200/IEC60335_B_libs/src/CPU/cpu_test.c" 1
  93 0052 21 34                   		BNE LABEL_FAILED_Test_GeneralA
  94                             	 ; 0 "" 2
 187:C:/Workspace/FW_Platform2_5/trunk/HAL/RN_RX200/IEC60335_B_libs/src/CPU\cpu_test.c **** 
 188:C:/Workspace/FW_Platform2_5/trunk/HAL/RN_RX200/IEC60335_B_libs/src/CPU\cpu_test.c **** 	__asm__ ("MOV.L #0AAAAAAAAh, R5");
  95                             		.loc 1 188 0
  96                             	 ; 188 "C:/Workspace/FW_Platform2_5/trunk/HAL/RN_RX200/IEC60335_B_libs/src/CPU/cpu_test.c" 1
  97 0054 FB 52 AA AA AA AA       		MOV.L #0AAAAAAAAh, R5
  98                             	 ; 0 "" 2
 189:C:/Workspace/FW_Platform2_5/trunk/HAL/RN_RX200/IEC60335_B_libs/src/CPU\cpu_test.c **** 	__asm__ ("MOV.L #0AAAAAAAAh, R14");
  99                             		.loc 1 189 0
 100                             	 ; 189 "C:/Workspace/FW_Platform2_5/trunk/HAL/RN_RX200/IEC60335_B_libs/src/CPU/cpu_test.c" 1
 101 005a FB E2 AA AA AA AA       		MOV.L #0AAAAAAAAh, R14
 102                             	 ; 0 "" 2
 190:C:/Workspace/FW_Platform2_5/trunk/HAL/RN_RX200/IEC60335_B_libs/src/CPU\cpu_test.c **** 	__asm__ ("CMP R5,R14");
 103                             		.loc 1 190 0
 104                             	 ; 190 "C:/Workspace/FW_Platform2_5/trunk/HAL/RN_RX200/IEC60335_B_libs/src/CPU/cpu_test.c" 1
 105 0060 47 5E                   		CMP R5,R14
 106                             	 ; 0 "" 2
 191:C:/Workspace/FW_Platform2_5/trunk/HAL/RN_RX200/IEC60335_B_libs/src/CPU\cpu_test.c **** 	__asm__ ("BNE  LABEL_FAILED_Test_GeneralA");
 107                             		.loc 1 191 0
 108                             	 ; 191 "C:/Workspace/FW_Platform2_5/trunk/HAL/RN_RX200/IEC60335_B_libs/src/CPU/cpu_test.c" 1
 109 0062 21 24                   		BNE  LABEL_FAILED_Test_GeneralA
 110                             	 ; 0 "" 2
 192:C:/Workspace/FW_Platform2_5/trunk/HAL/RN_RX200/IEC60335_B_libs/src/CPU\cpu_test.c **** 	
 193:C:/Workspace/FW_Platform2_5/trunk/HAL/RN_RX200/IEC60335_B_libs/src/CPU\cpu_test.c **** 	/*** Test R15, use already tested R1 ****/
 194:C:/Workspace/FW_Platform2_5/trunk/HAL/RN_RX200/IEC60335_B_libs/src/CPU\cpu_test.c **** 	__asm__ ("MOV.L #055555555h, R15");
 111                             		.loc 1 194 0
 112                             	 ; 194 "C:/Workspace/FW_Platform2_5/trunk/HAL/RN_RX200/IEC60335_B_libs/src/CPU/cpu_test.c" 1
 113 0064 FB F2 55 55 55 55       		MOV.L #055555555h, R15
 114                             	 ; 0 "" 2
 195:C:/Workspace/FW_Platform2_5/trunk/HAL/RN_RX200/IEC60335_B_libs/src/CPU\cpu_test.c **** 	__asm__ ("MOV.L #055555555h, R1");
 115                             		.loc 1 195 0
 116                             	 ; 195 "C:/Workspace/FW_Platform2_5/trunk/HAL/RN_RX200/IEC60335_B_libs/src/CPU/cpu_test.c" 1
 117 006a FB 12 55 55 55 55       		MOV.L #055555555h, R1
 118                             	 ; 0 "" 2
 196:C:/Workspace/FW_Platform2_5/trunk/HAL/RN_RX200/IEC60335_B_libs/src/CPU\cpu_test.c **** 	__asm__ ("CMP R15,R1");
 119                             		.loc 1 196 0
 120                             	 ; 196 "C:/Workspace/FW_Platform2_5/trunk/HAL/RN_RX200/IEC60335_B_libs/src/CPU/cpu_test.c" 1
 121 0070 47 F1                   		CMP R15,R1
 122                             	 ; 0 "" 2
 197:C:/Workspace/FW_Platform2_5/trunk/HAL/RN_RX200/IEC60335_B_libs/src/CPU\cpu_test.c **** 	__asm__ ("BNE LABEL_FAILED_Test_GeneralA");
 123                             		.loc 1 197 0
 124                             	 ; 197 "C:/Workspace/FW_Platform2_5/trunk/HAL/RN_RX200/IEC60335_B_libs/src/CPU/cpu_test.c" 1
 125 0072 21 14                   		BNE LABEL_FAILED_Test_GeneralA
 126                             	 ; 0 "" 2
 198:C:/Workspace/FW_Platform2_5/trunk/HAL/RN_RX200/IEC60335_B_libs/src/CPU\cpu_test.c **** 
 199:C:/Workspace/FW_Platform2_5/trunk/HAL/RN_RX200/IEC60335_B_libs/src/CPU\cpu_test.c **** 	__asm__ ("MOV.L #0AAAAAAAAh, R15");
 127                             		.loc 1 199 0
 128                             	 ; 199 "C:/Workspace/FW_Platform2_5/trunk/HAL/RN_RX200/IEC60335_B_libs/src/CPU/cpu_test.c" 1
 129 0074 FB F2 AA AA AA AA       		MOV.L #0AAAAAAAAh, R15
 130                             	 ; 0 "" 2
 200:C:/Workspace/FW_Platform2_5/trunk/HAL/RN_RX200/IEC60335_B_libs/src/CPU\cpu_test.c **** 	__asm__ ("MOV.L #0AAAAAAAAh, R1");
 131                             		.loc 1 200 0
 132                             	 ; 200 "C:/Workspace/FW_Platform2_5/trunk/HAL/RN_RX200/IEC60335_B_libs/src/CPU/cpu_test.c" 1
 133 007a FB 12 AA AA AA AA       		MOV.L #0AAAAAAAAh, R1
 134                             	 ; 0 "" 2
 201:C:/Workspace/FW_Platform2_5/trunk/HAL/RN_RX200/IEC60335_B_libs/src/CPU\cpu_test.c **** 	__asm__ ("CMP R15,R1");
 135                             		.loc 1 201 0
 136                             	 ; 201 "C:/Workspace/FW_Platform2_5/trunk/HAL/RN_RX200/IEC60335_B_libs/src/CPU/cpu_test.c" 1
 137 0080 47 F1                   		CMP R15,R1
 138                             	 ; 0 "" 2
 202:C:/Workspace/FW_Platform2_5/trunk/HAL/RN_RX200/IEC60335_B_libs/src/CPU\cpu_test.c **** 	__asm__ ("BNE  LABEL_FAILED_Test_GeneralA");
 139                             		.loc 1 202 0
 140                             	 ; 202 "C:/Workspace/FW_Platform2_5/trunk/HAL/RN_RX200/IEC60335_B_libs/src/CPU/cpu_test.c" 1
 141 0082 21 04                   		BNE  LABEL_FAILED_Test_GeneralA
 142                             	 ; 0 "" 2
 203:C:/Workspace/FW_Platform2_5/trunk/HAL/RN_RX200/IEC60335_B_libs/src/CPU\cpu_test.c **** 	
 204:C:/Workspace/FW_Platform2_5/trunk/HAL/RN_RX200/IEC60335_B_libs/src/CPU\cpu_test.c **** 	/*All Tests Passed - so skip the call to the error handler.*/
 205:C:/Workspace/FW_Platform2_5/trunk/HAL/RN_RX200/IEC60335_B_libs/src/CPU\cpu_test.c **** 	__asm__ ("BRA LABEL_PASSED_Test_GeneralA");
 143                             		.loc 1 205 0
 144                             	 ; 205 "C:/Workspace/FW_Platform2_5/trunk/HAL/RN_RX200/IEC60335_B_libs/src/CPU/cpu_test.c" 1
 145 0084 2E 06                   		BRA LABEL_PASSED_Test_GeneralA
 146                             	 ; 0 "" 2
 206:C:/Workspace/FW_Platform2_5/trunk/HAL/RN_RX200/IEC60335_B_libs/src/CPU\cpu_test.c **** 	
 207:C:/Workspace/FW_Platform2_5/trunk/HAL/RN_RX200/IEC60335_B_libs/src/CPU\cpu_test.c **** 	__asm__ ("LABEL_FAILED_Test_GeneralA:");
 147                             		.loc 1 207 0
 148                             	 ; 207 "C:/Workspace/FW_Platform2_5/trunk/HAL/RN_RX200/IEC60335_B_libs/src/CPU/cpu_test.c" 1
 149                             		LABEL_FAILED_Test_GeneralA:
 150                             	 ; 0 "" 2
 208:C:/Workspace/FW_Platform2_5/trunk/HAL/RN_RX200/IEC60335_B_libs/src/CPU\cpu_test.c **** 	/*Test failed - branch to the Error handler subroutine*/
 209:C:/Workspace/FW_Platform2_5/trunk/HAL/RN_RX200/IEC60335_B_libs/src/CPU\cpu_test.c **** 	__asm__ ("BSR _CPU_Test_ErrorHandler");
 151                             		.loc 1 209 0
 152                             	 ; 209 "C:/Workspace/FW_Platform2_5/trunk/HAL/RN_RX200/IEC60335_B_libs/src/CPU/cpu_test.c" 1
 153 0086 05 00 00 00             		BSR _CPU_Test_ErrorHandler
 154                             	 ; 0 "" 2
 210:C:/Workspace/FW_Platform2_5/trunk/HAL/RN_RX200/IEC60335_B_libs/src/CPU\cpu_test.c **** 
 211:C:/Workspace/FW_Platform2_5/trunk/HAL/RN_RX200/IEC60335_B_libs/src/CPU\cpu_test.c **** 	__asm__ ("LABEL_PASSED_Test_GeneralA:");
 155                             		.loc 1 211 0
 156                             	 ; 211 "C:/Workspace/FW_Platform2_5/trunk/HAL/RN_RX200/IEC60335_B_libs/src/CPU/cpu_test.c" 1
 157                             		LABEL_PASSED_Test_GeneralA:
 158                             	 ; 0 "" 2
 212:C:/Workspace/FW_Platform2_5/trunk/HAL/RN_RX200/IEC60335_B_libs/src/CPU\cpu_test.c **** 	/*Passed - return from this function.*/
 213:C:/Workspace/FW_Platform2_5/trunk/HAL/RN_RX200/IEC60335_B_libs/src/CPU\cpu_test.c **** }
 159                             		.loc 1 213 0
 160 008a 3F 66 01                		rtsd	#4, r6-r6
 161                             	.LFE1:
 163                             		.section	.text.CPU_Test_GeneralB,"ax",@progbits
 164                             		.global	_CPU_Test_GeneralB
 166                             	_CPU_Test_GeneralB:
 167                             	.LFB2:
 214:C:/Workspace/FW_Platform2_5/trunk/HAL/RN_RX200/IEC60335_B_libs/src/CPU\cpu_test.c **** 
 215:C:/Workspace/FW_Platform2_5/trunk/HAL/RN_RX200/IEC60335_B_libs/src/CPU\cpu_test.c **** /***********************************************************************************
 216:C:/Workspace/FW_Platform2_5/trunk/HAL/RN_RX200/IEC60335_B_libs/src/CPU\cpu_test.c **** Function Name : CPU_Test_GeneralB
 217:C:/Workspace/FW_Platform2_5/trunk/HAL/RN_RX200/IEC60335_B_libs/src/CPU\cpu_test.c **** Description   :	Test general purpose registers R0,R6,R7,R8,R9,R10,R11,R12 and R13.
 218:C:/Workspace/FW_Platform2_5/trunk/HAL/RN_RX200/IEC60335_B_libs/src/CPU\cpu_test.c **** 				These are the general registers that need to be Preserved - see below.
 219:C:/Workspace/FW_Platform2_5/trunk/HAL/RN_RX200/IEC60335_B_libs/src/CPU\cpu_test.c **** 				
 220:C:/Workspace/FW_Platform2_5/trunk/HAL/RN_RX200/IEC60335_B_libs/src/CPU\cpu_test.c **** 				Registers are tested in pairs.
 221:C:/Workspace/FW_Platform2_5/trunk/HAL/RN_RX200/IEC60335_B_libs/src/CPU\cpu_test.c **** 				For each pair of registers:-
 222:C:/Workspace/FW_Platform2_5/trunk/HAL/RN_RX200/IEC60335_B_libs/src/CPU\cpu_test.c **** 				1. Write h'55555555 to both.
 223:C:/Workspace/FW_Platform2_5/trunk/HAL/RN_RX200/IEC60335_B_libs/src/CPU\cpu_test.c **** 				2. Read both and check they are equal.
 224:C:/Workspace/FW_Platform2_5/trunk/HAL/RN_RX200/IEC60335_B_libs/src/CPU\cpu_test.c **** 				3. Write h'AAAAAAAA to both.
 225:C:/Workspace/FW_Platform2_5/trunk/HAL/RN_RX200/IEC60335_B_libs/src/CPU\cpu_test.c **** 				4. Read both and check they are equal.
 226:C:/Workspace/FW_Platform2_5/trunk/HAL/RN_RX200/IEC60335_B_libs/src/CPU\cpu_test.c **** 				
 227:C:/Workspace/FW_Platform2_5/trunk/HAL/RN_RX200/IEC60335_B_libs/src/CPU\cpu_test.c **** 				Note:
 228:C:/Workspace/FW_Platform2_5/trunk/HAL/RN_RX200/IEC60335_B_libs/src/CPU\cpu_test.c **** 				The rules for register preservation state that
 229:C:/Workspace/FW_Platform2_5/trunk/HAL/RN_RX200/IEC60335_B_libs/src/CPU\cpu_test.c **** 				registers R0,R6,R7,R8,R9,R10,R11,R12 and R13 must be Preserved by a function.
 230:C:/Workspace/FW_Platform2_5/trunk/HAL/RN_RX200/IEC60335_B_libs/src/CPU\cpu_test.c **** 				Hence this function does Preserve the values of these registers.
 231:C:/Workspace/FW_Platform2_5/trunk/HAL/RN_RX200/IEC60335_B_libs/src/CPU\cpu_test.c **** 				
 232:C:/Workspace/FW_Platform2_5/trunk/HAL/RN_RX200/IEC60335_B_libs/src/CPU\cpu_test.c **** 				This test assumes registers R1 to R5, R14and R15 are working.
 233:C:/Workspace/FW_Platform2_5/trunk/HAL/RN_RX200/IEC60335_B_libs/src/CPU\cpu_test.c **** 				
 234:C:/Workspace/FW_Platform2_5/trunk/HAL/RN_RX200/IEC60335_B_libs/src/CPU\cpu_test.c **** 				AN INTERRUPT MUST NOT OCCUR DURING THIS FUNCTION.
 235:C:/Workspace/FW_Platform2_5/trunk/HAL/RN_RX200/IEC60335_B_libs/src/CPU\cpu_test.c **** 				IT IS THE CALLING FUNCTIONS RESPONSIBILITY TO ENSURE THIS.
 236:C:/Workspace/FW_Platform2_5/trunk/HAL/RN_RX200/IEC60335_B_libs/src/CPU\cpu_test.c **** 				
 237:C:/Workspace/FW_Platform2_5/trunk/HAL/RN_RX200/IEC60335_B_libs/src/CPU\cpu_test.c **** 				If an error is detected then external function
 238:C:/Workspace/FW_Platform2_5/trunk/HAL/RN_RX200/IEC60335_B_libs/src/CPU\cpu_test.c **** 				CPU_Test_ErrorHandler will be called.
 239:C:/Workspace/FW_Platform2_5/trunk/HAL/RN_RX200/IEC60335_B_libs/src/CPU\cpu_test.c **** 				
 240:C:/Workspace/FW_Platform2_5/trunk/HAL/RN_RX200/IEC60335_B_libs/src/CPU\cpu_test.c **** Parameters    : none				
 241:C:/Workspace/FW_Platform2_5/trunk/HAL/RN_RX200/IEC60335_B_libs/src/CPU\cpu_test.c **** Return Value  : void
 242:C:/Workspace/FW_Platform2_5/trunk/HAL/RN_RX200/IEC60335_B_libs/src/CPU\cpu_test.c **** ***********************************************************************************/
 243:C:/Workspace/FW_Platform2_5/trunk/HAL/RN_RX200/IEC60335_B_libs/src/CPU\cpu_test.c **** void CPU_Test_GeneralB(void)
 244:C:/Workspace/FW_Platform2_5/trunk/HAL/RN_RX200/IEC60335_B_libs/src/CPU\cpu_test.c **** {
 168                             		.loc 1 244 0
 169 0000 7E A6                   		push.l	r6
 170                             	.LCFI2:
 171 0002 EF 06                   		mov.L	r0, r6
 172                             	.LCFI3:
 245:C:/Workspace/FW_Platform2_5/trunk/HAL/RN_RX200/IEC60335_B_libs/src/CPU\cpu_test.c **** 	/*Preseve registers to be tested by saving to other registers*/
 246:C:/Workspace/FW_Platform2_5/trunk/HAL/RN_RX200/IEC60335_B_libs/src/CPU\cpu_test.c **** 	__asm__ ("MOV.L R0,R1");
 173                             		.loc 1 246 0
 174                             	 ; 246 "C:/Workspace/FW_Platform2_5/trunk/HAL/RN_RX200/IEC60335_B_libs/src/CPU/cpu_test.c" 1
 175 0004 EF 01                   		MOV.L R0,R1
 176                             	 ; 0 "" 2
 247:C:/Workspace/FW_Platform2_5/trunk/HAL/RN_RX200/IEC60335_B_libs/src/CPU\cpu_test.c **** 	__asm__ ("MOV.L R6,R2");
 177                             		.loc 1 247 0
 178                             	 ; 247 "C:/Workspace/FW_Platform2_5/trunk/HAL/RN_RX200/IEC60335_B_libs/src/CPU/cpu_test.c" 1
 179 0006 EF 62                   		MOV.L R6,R2
 180                             	 ; 0 "" 2
 248:C:/Workspace/FW_Platform2_5/trunk/HAL/RN_RX200/IEC60335_B_libs/src/CPU\cpu_test.c **** 	__asm__ ("MOV.L R7,R3");
 181                             		.loc 1 248 0
 182                             	 ; 248 "C:/Workspace/FW_Platform2_5/trunk/HAL/RN_RX200/IEC60335_B_libs/src/CPU/cpu_test.c" 1
 183 0008 EF 73                   		MOV.L R7,R3
 184                             	 ; 0 "" 2
 249:C:/Workspace/FW_Platform2_5/trunk/HAL/RN_RX200/IEC60335_B_libs/src/CPU\cpu_test.c **** 	__asm__ ("MOV.L R8,R4");
 185                             		.loc 1 249 0
 186                             	 ; 249 "C:/Workspace/FW_Platform2_5/trunk/HAL/RN_RX200/IEC60335_B_libs/src/CPU/cpu_test.c" 1
 187 000a EF 84                   		MOV.L R8,R4
 188                             	 ; 0 "" 2
 250:C:/Workspace/FW_Platform2_5/trunk/HAL/RN_RX200/IEC60335_B_libs/src/CPU\cpu_test.c **** 	__asm__ ("MOV.L R9,R5");
 189                             		.loc 1 250 0
 190                             	 ; 250 "C:/Workspace/FW_Platform2_5/trunk/HAL/RN_RX200/IEC60335_B_libs/src/CPU/cpu_test.c" 1
 191 000c EF 95                   		MOV.L R9,R5
 192                             	 ; 0 "" 2
 251:C:/Workspace/FW_Platform2_5/trunk/HAL/RN_RX200/IEC60335_B_libs/src/CPU\cpu_test.c **** 	__asm__ ("MOV.L R10,R14");
 193                             		.loc 1 251 0
 194                             	 ; 251 "C:/Workspace/FW_Platform2_5/trunk/HAL/RN_RX200/IEC60335_B_libs/src/CPU/cpu_test.c" 1
 195 000e EF AE                   		MOV.L R10,R14
 196                             	 ; 0 "" 2
 252:C:/Workspace/FW_Platform2_5/trunk/HAL/RN_RX200/IEC60335_B_libs/src/CPU\cpu_test.c **** 	__asm__ ("MOV.L R11,R15");
 197                             		.loc 1 252 0
 198                             	 ; 252 "C:/Workspace/FW_Platform2_5/trunk/HAL/RN_RX200/IEC60335_B_libs/src/CPU/cpu_test.c" 1
 199 0010 EF BF                   		MOV.L R11,R15
 200                             	 ; 0 "" 2
 253:C:/Workspace/FW_Platform2_5/trunk/HAL/RN_RX200/IEC60335_B_libs/src/CPU\cpu_test.c **** 	/*No more spare registers to Preserve R12 and R13 at this point - done later*/
 254:C:/Workspace/FW_Platform2_5/trunk/HAL/RN_RX200/IEC60335_B_libs/src/CPU\cpu_test.c **** 	
 255:C:/Workspace/FW_Platform2_5/trunk/HAL/RN_RX200/IEC60335_B_libs/src/CPU\cpu_test.c **** 	/*** Test R0 and R6 ****/
 256:C:/Workspace/FW_Platform2_5/trunk/HAL/RN_RX200/IEC60335_B_libs/src/CPU\cpu_test.c **** 	__asm__ ("MOV.L #055555555h, R0");
 201                             		.loc 1 256 0
 202                             	 ; 256 "C:/Workspace/FW_Platform2_5/trunk/HAL/RN_RX200/IEC60335_B_libs/src/CPU/cpu_test.c" 1
 203 0012 FB 02 55 55 55 55       		MOV.L #055555555h, R0
 204                             	 ; 0 "" 2
 257:C:/Workspace/FW_Platform2_5/trunk/HAL/RN_RX200/IEC60335_B_libs/src/CPU\cpu_test.c **** 	__asm__ ("MOV.L #055555555h, R6");
 205                             		.loc 1 257 0
 206                             	 ; 257 "C:/Workspace/FW_Platform2_5/trunk/HAL/RN_RX200/IEC60335_B_libs/src/CPU/cpu_test.c" 1
 207 0018 FB 62 55 55 55 55       		MOV.L #055555555h, R6
 208                             	 ; 0 "" 2
 258:C:/Workspace/FW_Platform2_5/trunk/HAL/RN_RX200/IEC60335_B_libs/src/CPU\cpu_test.c **** 	__asm__ ("CMP R0,R6");
 209                             		.loc 1 258 0
 210                             	 ; 258 "C:/Workspace/FW_Platform2_5/trunk/HAL/RN_RX200/IEC60335_B_libs/src/CPU/cpu_test.c" 1
 211 001e 47 06                   		CMP R0,R6
 212                             	 ; 0 "" 2
 259:C:/Workspace/FW_Platform2_5/trunk/HAL/RN_RX200/IEC60335_B_libs/src/CPU\cpu_test.c **** 	__asm__ ("BNE LABEL_FAILED_Test_GeneralB");
 213                             		.loc 1 259 0
 214                             	 ; 259 "C:/Workspace/FW_Platform2_5/trunk/HAL/RN_RX200/IEC60335_B_libs/src/CPU/cpu_test.c" 1
 215 0020 3B AD 00                		BNE LABEL_FAILED_Test_GeneralB
 216                             	 ; 0 "" 2
 260:C:/Workspace/FW_Platform2_5/trunk/HAL/RN_RX200/IEC60335_B_libs/src/CPU\cpu_test.c **** 
 261:C:/Workspace/FW_Platform2_5/trunk/HAL/RN_RX200/IEC60335_B_libs/src/CPU\cpu_test.c **** 	__asm__ ("MOV.L #0AAAAAAAAh, R0");
 217                             		.loc 1 261 0
 218                             	 ; 261 "C:/Workspace/FW_Platform2_5/trunk/HAL/RN_RX200/IEC60335_B_libs/src/CPU/cpu_test.c" 1
 219 0023 FB 02 AA AA AA AA       		MOV.L #0AAAAAAAAh, R0
 220                             	 ; 0 "" 2
 262:C:/Workspace/FW_Platform2_5/trunk/HAL/RN_RX200/IEC60335_B_libs/src/CPU\cpu_test.c **** 	__asm__ ("MOV.L #0AAAAAAAAh, R6");
 221                             		.loc 1 262 0
 222                             	 ; 262 "C:/Workspace/FW_Platform2_5/trunk/HAL/RN_RX200/IEC60335_B_libs/src/CPU/cpu_test.c" 1
 223 0029 FB 62 AA AA AA AA       		MOV.L #0AAAAAAAAh, R6
 224                             	 ; 0 "" 2
 263:C:/Workspace/FW_Platform2_5/trunk/HAL/RN_RX200/IEC60335_B_libs/src/CPU\cpu_test.c **** 	__asm__ ("CMP R0,R6");
 225                             		.loc 1 263 0
 226                             	 ; 263 "C:/Workspace/FW_Platform2_5/trunk/HAL/RN_RX200/IEC60335_B_libs/src/CPU/cpu_test.c" 1
 227 002f 47 06                   		CMP R0,R6
 228                             	 ; 0 "" 2
 264:C:/Workspace/FW_Platform2_5/trunk/HAL/RN_RX200/IEC60335_B_libs/src/CPU\cpu_test.c **** 	__asm__ ("BNE  LABEL_FAILED_Test_GeneralB");
 229                             		.loc 1 264 0
 230                             	 ; 264 "C:/Workspace/FW_Platform2_5/trunk/HAL/RN_RX200/IEC60335_B_libs/src/CPU/cpu_test.c" 1
 231 0031 3B 9C 00                		BNE  LABEL_FAILED_Test_GeneralB
 232                             	 ; 0 "" 2
 265:C:/Workspace/FW_Platform2_5/trunk/HAL/RN_RX200/IEC60335_B_libs/src/CPU\cpu_test.c **** 	
 266:C:/Workspace/FW_Platform2_5/trunk/HAL/RN_RX200/IEC60335_B_libs/src/CPU\cpu_test.c **** 	/*Restore R0 and R6 now so that R12 and R13 can be saved*/
 267:C:/Workspace/FW_Platform2_5/trunk/HAL/RN_RX200/IEC60335_B_libs/src/CPU\cpu_test.c **** 	__asm__ ("MOV.L R1,R0");
 233                             		.loc 1 267 0
 234                             	 ; 267 "C:/Workspace/FW_Platform2_5/trunk/HAL/RN_RX200/IEC60335_B_libs/src/CPU/cpu_test.c" 1
 235 0034 EF 10                   		MOV.L R1,R0
 236                             	 ; 0 "" 2
 268:C:/Workspace/FW_Platform2_5/trunk/HAL/RN_RX200/IEC60335_B_libs/src/CPU\cpu_test.c **** 	__asm__ ("MOV.L R2,R6");
 237                             		.loc 1 268 0
 238                             	 ; 268 "C:/Workspace/FW_Platform2_5/trunk/HAL/RN_RX200/IEC60335_B_libs/src/CPU/cpu_test.c" 1
 239 0036 EF 26                   		MOV.L R2,R6
 240                             	 ; 0 "" 2
 269:C:/Workspace/FW_Platform2_5/trunk/HAL/RN_RX200/IEC60335_B_libs/src/CPU\cpu_test.c **** 	/*Save R12 and R13 so they can be restored later*/
 270:C:/Workspace/FW_Platform2_5/trunk/HAL/RN_RX200/IEC60335_B_libs/src/CPU\cpu_test.c **** 	__asm__ ("MOV.L R12,R1");
 241                             		.loc 1 270 0
 242                             	 ; 270 "C:/Workspace/FW_Platform2_5/trunk/HAL/RN_RX200/IEC60335_B_libs/src/CPU/cpu_test.c" 1
 243 0038 EF C1                   		MOV.L R12,R1
 244                             	 ; 0 "" 2
 271:C:/Workspace/FW_Platform2_5/trunk/HAL/RN_RX200/IEC60335_B_libs/src/CPU\cpu_test.c **** 	__asm__ ("MOV.L R13,R2");
 245                             		.loc 1 271 0
 246                             	 ; 271 "C:/Workspace/FW_Platform2_5/trunk/HAL/RN_RX200/IEC60335_B_libs/src/CPU/cpu_test.c" 1
 247 003a EF D2                   		MOV.L R13,R2
 248                             	 ; 0 "" 2
 272:C:/Workspace/FW_Platform2_5/trunk/HAL/RN_RX200/IEC60335_B_libs/src/CPU\cpu_test.c **** 	
 273:C:/Workspace/FW_Platform2_5/trunk/HAL/RN_RX200/IEC60335_B_libs/src/CPU\cpu_test.c **** 	/*** Test R7 and R8 ****/
 274:C:/Workspace/FW_Platform2_5/trunk/HAL/RN_RX200/IEC60335_B_libs/src/CPU\cpu_test.c **** 	__asm__ ("MOV.L #055555555h, R7");
 249                             		.loc 1 274 0
 250                             	 ; 274 "C:/Workspace/FW_Platform2_5/trunk/HAL/RN_RX200/IEC60335_B_libs/src/CPU/cpu_test.c" 1
 251 003c FB 72 55 55 55 55       		MOV.L #055555555h, R7
 252                             	 ; 0 "" 2
 275:C:/Workspace/FW_Platform2_5/trunk/HAL/RN_RX200/IEC60335_B_libs/src/CPU\cpu_test.c **** 	__asm__ ("MOV.L #055555555h, R8");
 253                             		.loc 1 275 0
 254                             	 ; 275 "C:/Workspace/FW_Platform2_5/trunk/HAL/RN_RX200/IEC60335_B_libs/src/CPU/cpu_test.c" 1
 255 0042 FB 82 55 55 55 55       		MOV.L #055555555h, R8
 256                             	 ; 0 "" 2
 276:C:/Workspace/FW_Platform2_5/trunk/HAL/RN_RX200/IEC60335_B_libs/src/CPU\cpu_test.c **** 	__asm__ ("CMP R7,R8");
 257                             		.loc 1 276 0
 258                             	 ; 276 "C:/Workspace/FW_Platform2_5/trunk/HAL/RN_RX200/IEC60335_B_libs/src/CPU/cpu_test.c" 1
 259 0048 47 78                   		CMP R7,R8
 260                             	 ; 0 "" 2
 277:C:/Workspace/FW_Platform2_5/trunk/HAL/RN_RX200/IEC60335_B_libs/src/CPU\cpu_test.c **** 	__asm__ ("BNE LABEL_FAILED_Test_GeneralB");
 261                             		.loc 1 277 0
 262                             	 ; 277 "C:/Workspace/FW_Platform2_5/trunk/HAL/RN_RX200/IEC60335_B_libs/src/CPU/cpu_test.c" 1
 263 004a 3B 83 00                		BNE LABEL_FAILED_Test_GeneralB
 264                             	 ; 0 "" 2
 278:C:/Workspace/FW_Platform2_5/trunk/HAL/RN_RX200/IEC60335_B_libs/src/CPU\cpu_test.c **** 
 279:C:/Workspace/FW_Platform2_5/trunk/HAL/RN_RX200/IEC60335_B_libs/src/CPU\cpu_test.c **** 	__asm__ ("MOV.L #0AAAAAAAAh, R7");
 265                             		.loc 1 279 0
 266                             	 ; 279 "C:/Workspace/FW_Platform2_5/trunk/HAL/RN_RX200/IEC60335_B_libs/src/CPU/cpu_test.c" 1
 267 004d FB 72 AA AA AA AA       		MOV.L #0AAAAAAAAh, R7
 268                             	 ; 0 "" 2
 280:C:/Workspace/FW_Platform2_5/trunk/HAL/RN_RX200/IEC60335_B_libs/src/CPU\cpu_test.c **** 	__asm__ ("MOV.L #0AAAAAAAAh, R8");
 269                             		.loc 1 280 0
 270                             	 ; 280 "C:/Workspace/FW_Platform2_5/trunk/HAL/RN_RX200/IEC60335_B_libs/src/CPU/cpu_test.c" 1
 271 0053 FB 82 AA AA AA AA       		MOV.L #0AAAAAAAAh, R8
 272                             	 ; 0 "" 2
 281:C:/Workspace/FW_Platform2_5/trunk/HAL/RN_RX200/IEC60335_B_libs/src/CPU\cpu_test.c **** 	__asm__ ("CMP R7,R8");
 273                             		.loc 1 281 0
 274                             	 ; 281 "C:/Workspace/FW_Platform2_5/trunk/HAL/RN_RX200/IEC60335_B_libs/src/CPU/cpu_test.c" 1
 275 0059 47 78                   		CMP R7,R8
 276                             	 ; 0 "" 2
 282:C:/Workspace/FW_Platform2_5/trunk/HAL/RN_RX200/IEC60335_B_libs/src/CPU\cpu_test.c **** 	__asm__ ("BNE  LABEL_FAILED_Test_GeneralB");
 277                             		.loc 1 282 0
 278                             	 ; 282 "C:/Workspace/FW_Platform2_5/trunk/HAL/RN_RX200/IEC60335_B_libs/src/CPU/cpu_test.c" 1
 279 005b 21 72                   		BNE  LABEL_FAILED_Test_GeneralB
 280                             	 ; 0 "" 2
 283:C:/Workspace/FW_Platform2_5/trunk/HAL/RN_RX200/IEC60335_B_libs/src/CPU\cpu_test.c **** 	
 284:C:/Workspace/FW_Platform2_5/trunk/HAL/RN_RX200/IEC60335_B_libs/src/CPU\cpu_test.c **** 	/*** Test R9 and R10 ****/
 285:C:/Workspace/FW_Platform2_5/trunk/HAL/RN_RX200/IEC60335_B_libs/src/CPU\cpu_test.c **** 	__asm__ ("MOV.L #055555555h, R9");
 281                             		.loc 1 285 0
 282                             	 ; 285 "C:/Workspace/FW_Platform2_5/trunk/HAL/RN_RX200/IEC60335_B_libs/src/CPU/cpu_test.c" 1
 283 005d FB 92 55 55 55 55       		MOV.L #055555555h, R9
 284                             	 ; 0 "" 2
 286:C:/Workspace/FW_Platform2_5/trunk/HAL/RN_RX200/IEC60335_B_libs/src/CPU\cpu_test.c **** 	__asm__ ("MOV.L #055555555h, R10");
 285                             		.loc 1 286 0
 286                             	 ; 286 "C:/Workspace/FW_Platform2_5/trunk/HAL/RN_RX200/IEC60335_B_libs/src/CPU/cpu_test.c" 1
 287 0063 FB A2 55 55 55 55       		MOV.L #055555555h, R10
 288                             	 ; 0 "" 2
 287:C:/Workspace/FW_Platform2_5/trunk/HAL/RN_RX200/IEC60335_B_libs/src/CPU\cpu_test.c **** 	__asm__ ("CMP R9,R10");
 289                             		.loc 1 287 0
 290                             	 ; 287 "C:/Workspace/FW_Platform2_5/trunk/HAL/RN_RX200/IEC60335_B_libs/src/CPU/cpu_test.c" 1
 291 0069 47 9A                   		CMP R9,R10
 292                             	 ; 0 "" 2
 288:C:/Workspace/FW_Platform2_5/trunk/HAL/RN_RX200/IEC60335_B_libs/src/CPU\cpu_test.c **** 	__asm__ ("BNE LABEL_FAILED_Test_GeneralB");
 293                             		.loc 1 288 0
 294                             	 ; 288 "C:/Workspace/FW_Platform2_5/trunk/HAL/RN_RX200/IEC60335_B_libs/src/CPU/cpu_test.c" 1
 295 006b 21 62                   		BNE LABEL_FAILED_Test_GeneralB
 296                             	 ; 0 "" 2
 289:C:/Workspace/FW_Platform2_5/trunk/HAL/RN_RX200/IEC60335_B_libs/src/CPU\cpu_test.c **** 
 290:C:/Workspace/FW_Platform2_5/trunk/HAL/RN_RX200/IEC60335_B_libs/src/CPU\cpu_test.c **** 	__asm__ ("MOV.L #0AAAAAAAAh, R9");
 297                             		.loc 1 290 0
 298                             	 ; 290 "C:/Workspace/FW_Platform2_5/trunk/HAL/RN_RX200/IEC60335_B_libs/src/CPU/cpu_test.c" 1
 299 006d FB 92 AA AA AA AA       		MOV.L #0AAAAAAAAh, R9
 300                             	 ; 0 "" 2
 291:C:/Workspace/FW_Platform2_5/trunk/HAL/RN_RX200/IEC60335_B_libs/src/CPU\cpu_test.c **** 	__asm__ ("MOV.L #0AAAAAAAAh, R10");
 301                             		.loc 1 291 0
 302                             	 ; 291 "C:/Workspace/FW_Platform2_5/trunk/HAL/RN_RX200/IEC60335_B_libs/src/CPU/cpu_test.c" 1
 303 0073 FB A2 AA AA AA AA       		MOV.L #0AAAAAAAAh, R10
 304                             	 ; 0 "" 2
 292:C:/Workspace/FW_Platform2_5/trunk/HAL/RN_RX200/IEC60335_B_libs/src/CPU\cpu_test.c **** 	__asm__ ("CMP R9,R10");
 305                             		.loc 1 292 0
 306                             	 ; 292 "C:/Workspace/FW_Platform2_5/trunk/HAL/RN_RX200/IEC60335_B_libs/src/CPU/cpu_test.c" 1
 307 0079 47 9A                   		CMP R9,R10
 308                             	 ; 0 "" 2
 293:C:/Workspace/FW_Platform2_5/trunk/HAL/RN_RX200/IEC60335_B_libs/src/CPU\cpu_test.c **** 	__asm__ ("BNE  LABEL_FAILED_Test_GeneralB");
 309                             		.loc 1 293 0
 310                             	 ; 293 "C:/Workspace/FW_Platform2_5/trunk/HAL/RN_RX200/IEC60335_B_libs/src/CPU/cpu_test.c" 1
 311 007b 21 52                   		BNE  LABEL_FAILED_Test_GeneralB
 312                             	 ; 0 "" 2
 294:C:/Workspace/FW_Platform2_5/trunk/HAL/RN_RX200/IEC60335_B_libs/src/CPU\cpu_test.c **** 	
 295:C:/Workspace/FW_Platform2_5/trunk/HAL/RN_RX200/IEC60335_B_libs/src/CPU\cpu_test.c **** 	/*** Test R11 and R12 ****/
 296:C:/Workspace/FW_Platform2_5/trunk/HAL/RN_RX200/IEC60335_B_libs/src/CPU\cpu_test.c **** 	__asm__ ("MOV.L #055555555h, R11");
 313                             		.loc 1 296 0
 314                             	 ; 296 "C:/Workspace/FW_Platform2_5/trunk/HAL/RN_RX200/IEC60335_B_libs/src/CPU/cpu_test.c" 1
 315 007d FB B2 55 55 55 55       		MOV.L #055555555h, R11
 316                             	 ; 0 "" 2
 297:C:/Workspace/FW_Platform2_5/trunk/HAL/RN_RX200/IEC60335_B_libs/src/CPU\cpu_test.c **** 	__asm__ ("MOV.L #055555555h, R12");
 317                             		.loc 1 297 0
 318                             	 ; 297 "C:/Workspace/FW_Platform2_5/trunk/HAL/RN_RX200/IEC60335_B_libs/src/CPU/cpu_test.c" 1
 319 0083 FB C2 55 55 55 55       		MOV.L #055555555h, R12
 320                             	 ; 0 "" 2
 298:C:/Workspace/FW_Platform2_5/trunk/HAL/RN_RX200/IEC60335_B_libs/src/CPU\cpu_test.c **** 	__asm__ ("CMP R11,R12");
 321                             		.loc 1 298 0
 322                             	 ; 298 "C:/Workspace/FW_Platform2_5/trunk/HAL/RN_RX200/IEC60335_B_libs/src/CPU/cpu_test.c" 1
 323 0089 47 BC                   		CMP R11,R12
 324                             	 ; 0 "" 2
 299:C:/Workspace/FW_Platform2_5/trunk/HAL/RN_RX200/IEC60335_B_libs/src/CPU\cpu_test.c **** 	__asm__ ("BNE LABEL_FAILED_Test_GeneralB");
 325                             		.loc 1 299 0
 326                             	 ; 299 "C:/Workspace/FW_Platform2_5/trunk/HAL/RN_RX200/IEC60335_B_libs/src/CPU/cpu_test.c" 1
 327 008b 21 42                   		BNE LABEL_FAILED_Test_GeneralB
 328                             	 ; 0 "" 2
 300:C:/Workspace/FW_Platform2_5/trunk/HAL/RN_RX200/IEC60335_B_libs/src/CPU\cpu_test.c **** 
 301:C:/Workspace/FW_Platform2_5/trunk/HAL/RN_RX200/IEC60335_B_libs/src/CPU\cpu_test.c **** 	__asm__ ("MOV.L #0AAAAAAAAh, R11");
 329                             		.loc 1 301 0
 330                             	 ; 301 "C:/Workspace/FW_Platform2_5/trunk/HAL/RN_RX200/IEC60335_B_libs/src/CPU/cpu_test.c" 1
 331 008d FB B2 AA AA AA AA       		MOV.L #0AAAAAAAAh, R11
 332                             	 ; 0 "" 2
 302:C:/Workspace/FW_Platform2_5/trunk/HAL/RN_RX200/IEC60335_B_libs/src/CPU\cpu_test.c **** 	__asm__ ("MOV.L #0AAAAAAAAh, R12");
 333                             		.loc 1 302 0
 334                             	 ; 302 "C:/Workspace/FW_Platform2_5/trunk/HAL/RN_RX200/IEC60335_B_libs/src/CPU/cpu_test.c" 1
 335 0093 FB C2 AA AA AA AA       		MOV.L #0AAAAAAAAh, R12
 336                             	 ; 0 "" 2
 303:C:/Workspace/FW_Platform2_5/trunk/HAL/RN_RX200/IEC60335_B_libs/src/CPU\cpu_test.c **** 	__asm__ ("CMP R11,R12");
 337                             		.loc 1 303 0
 338                             	 ; 303 "C:/Workspace/FW_Platform2_5/trunk/HAL/RN_RX200/IEC60335_B_libs/src/CPU/cpu_test.c" 1
 339 0099 47 BC                   		CMP R11,R12
 340                             	 ; 0 "" 2
 304:C:/Workspace/FW_Platform2_5/trunk/HAL/RN_RX200/IEC60335_B_libs/src/CPU\cpu_test.c **** 	__asm__ ("BNE  LABEL_FAILED_Test_GeneralB");
 341                             		.loc 1 304 0
 342                             	 ; 304 "C:/Workspace/FW_Platform2_5/trunk/HAL/RN_RX200/IEC60335_B_libs/src/CPU/cpu_test.c" 1
 343 009b 21 32                   		BNE  LABEL_FAILED_Test_GeneralB
 344                             	 ; 0 "" 2
 305:C:/Workspace/FW_Platform2_5/trunk/HAL/RN_RX200/IEC60335_B_libs/src/CPU\cpu_test.c **** 	
 306:C:/Workspace/FW_Platform2_5/trunk/HAL/RN_RX200/IEC60335_B_libs/src/CPU\cpu_test.c **** 	/*** Test R13, use R12 ****/
 307:C:/Workspace/FW_Platform2_5/trunk/HAL/RN_RX200/IEC60335_B_libs/src/CPU\cpu_test.c **** 	__asm__ ("MOV.L #055555555h, R13");
 345                             		.loc 1 307 0
 346                             	 ; 307 "C:/Workspace/FW_Platform2_5/trunk/HAL/RN_RX200/IEC60335_B_libs/src/CPU/cpu_test.c" 1
 347 009d FB D2 55 55 55 55       		MOV.L #055555555h, R13
 348                             	 ; 0 "" 2
 308:C:/Workspace/FW_Platform2_5/trunk/HAL/RN_RX200/IEC60335_B_libs/src/CPU\cpu_test.c **** 	__asm__ ("MOV.L #055555555h, R12");
 349                             		.loc 1 308 0
 350                             	 ; 308 "C:/Workspace/FW_Platform2_5/trunk/HAL/RN_RX200/IEC60335_B_libs/src/CPU/cpu_test.c" 1
 351 00a3 FB C2 55 55 55 55       		MOV.L #055555555h, R12
 352                             	 ; 0 "" 2
 309:C:/Workspace/FW_Platform2_5/trunk/HAL/RN_RX200/IEC60335_B_libs/src/CPU\cpu_test.c **** 	__asm__ ("CMP R13,R12");
 353                             		.loc 1 309 0
 354                             	 ; 309 "C:/Workspace/FW_Platform2_5/trunk/HAL/RN_RX200/IEC60335_B_libs/src/CPU/cpu_test.c" 1
 355 00a9 47 DC                   		CMP R13,R12
 356                             	 ; 0 "" 2
 310:C:/Workspace/FW_Platform2_5/trunk/HAL/RN_RX200/IEC60335_B_libs/src/CPU\cpu_test.c **** 	__asm__ ("BNE LABEL_FAILED_Test_GeneralB");
 357                             		.loc 1 310 0
 358                             	 ; 310 "C:/Workspace/FW_Platform2_5/trunk/HAL/RN_RX200/IEC60335_B_libs/src/CPU/cpu_test.c" 1
 359 00ab 21 22                   		BNE LABEL_FAILED_Test_GeneralB
 360                             	 ; 0 "" 2
 311:C:/Workspace/FW_Platform2_5/trunk/HAL/RN_RX200/IEC60335_B_libs/src/CPU\cpu_test.c **** 
 312:C:/Workspace/FW_Platform2_5/trunk/HAL/RN_RX200/IEC60335_B_libs/src/CPU\cpu_test.c **** 	__asm__ ("MOV.L #0AAAAAAAAh, R13");
 361                             		.loc 1 312 0
 362                             	 ; 312 "C:/Workspace/FW_Platform2_5/trunk/HAL/RN_RX200/IEC60335_B_libs/src/CPU/cpu_test.c" 1
 363 00ad FB D2 AA AA AA AA       		MOV.L #0AAAAAAAAh, R13
 364                             	 ; 0 "" 2
 313:C:/Workspace/FW_Platform2_5/trunk/HAL/RN_RX200/IEC60335_B_libs/src/CPU\cpu_test.c **** 	__asm__ ("MOV.L #0AAAAAAAAh, R12");
 365                             		.loc 1 313 0
 366                             	 ; 313 "C:/Workspace/FW_Platform2_5/trunk/HAL/RN_RX200/IEC60335_B_libs/src/CPU/cpu_test.c" 1
 367 00b3 FB C2 AA AA AA AA       		MOV.L #0AAAAAAAAh, R12
 368                             	 ; 0 "" 2
 314:C:/Workspace/FW_Platform2_5/trunk/HAL/RN_RX200/IEC60335_B_libs/src/CPU\cpu_test.c **** 	__asm__ ("CMP R13,R12");
 369                             		.loc 1 314 0
 370                             	 ; 314 "C:/Workspace/FW_Platform2_5/trunk/HAL/RN_RX200/IEC60335_B_libs/src/CPU/cpu_test.c" 1
 371 00b9 47 DC                   		CMP R13,R12
 372                             	 ; 0 "" 2
 315:C:/Workspace/FW_Platform2_5/trunk/HAL/RN_RX200/IEC60335_B_libs/src/CPU\cpu_test.c **** 	__asm__ ("BNE  LABEL_FAILED_Test_GeneralB");
 373                             		.loc 1 315 0
 374                             	 ; 315 "C:/Workspace/FW_Platform2_5/trunk/HAL/RN_RX200/IEC60335_B_libs/src/CPU/cpu_test.c" 1
 375 00bb 21 12                   		BNE  LABEL_FAILED_Test_GeneralB
 376                             	 ; 0 "" 2
 316:C:/Workspace/FW_Platform2_5/trunk/HAL/RN_RX200/IEC60335_B_libs/src/CPU\cpu_test.c **** 	
 317:C:/Workspace/FW_Platform2_5/trunk/HAL/RN_RX200/IEC60335_B_libs/src/CPU\cpu_test.c **** 	/*Restore original register values.
 318:C:/Workspace/FW_Platform2_5/trunk/HAL/RN_RX200/IEC60335_B_libs/src/CPU\cpu_test.c **** 	(NOTE: R0 and R6 have already been restored)*/
 319:C:/Workspace/FW_Platform2_5/trunk/HAL/RN_RX200/IEC60335_B_libs/src/CPU\cpu_test.c **** 	__asm__ ("MOV.L R3,R7");
 377                             		.loc 1 319 0
 378                             	 ; 319 "C:/Workspace/FW_Platform2_5/trunk/HAL/RN_RX200/IEC60335_B_libs/src/CPU/cpu_test.c" 1
 379 00bd EF 37                   		MOV.L R3,R7
 380                             	 ; 0 "" 2
 320:C:/Workspace/FW_Platform2_5/trunk/HAL/RN_RX200/IEC60335_B_libs/src/CPU\cpu_test.c **** 	__asm__ ("MOV.L R4,R8");
 381                             		.loc 1 320 0
 382                             	 ; 320 "C:/Workspace/FW_Platform2_5/trunk/HAL/RN_RX200/IEC60335_B_libs/src/CPU/cpu_test.c" 1
 383 00bf EF 48                   		MOV.L R4,R8
 384                             	 ; 0 "" 2
 321:C:/Workspace/FW_Platform2_5/trunk/HAL/RN_RX200/IEC60335_B_libs/src/CPU\cpu_test.c **** 	__asm__ ("MOV.L R5,R9");
 385                             		.loc 1 321 0
 386                             	 ; 321 "C:/Workspace/FW_Platform2_5/trunk/HAL/RN_RX200/IEC60335_B_libs/src/CPU/cpu_test.c" 1
 387 00c1 EF 59                   		MOV.L R5,R9
 388                             	 ; 0 "" 2
 322:C:/Workspace/FW_Platform2_5/trunk/HAL/RN_RX200/IEC60335_B_libs/src/CPU\cpu_test.c **** 	__asm__ ("MOV.L R14,R10");
 389                             		.loc 1 322 0
 390                             	 ; 322 "C:/Workspace/FW_Platform2_5/trunk/HAL/RN_RX200/IEC60335_B_libs/src/CPU/cpu_test.c" 1
 391 00c3 EF EA                   		MOV.L R14,R10
 392                             	 ; 0 "" 2
 323:C:/Workspace/FW_Platform2_5/trunk/HAL/RN_RX200/IEC60335_B_libs/src/CPU\cpu_test.c **** 	__asm__ ("MOV.L R15,R11");
 393                             		.loc 1 323 0
 394                             	 ; 323 "C:/Workspace/FW_Platform2_5/trunk/HAL/RN_RX200/IEC60335_B_libs/src/CPU/cpu_test.c" 1
 395 00c5 EF FB                   		MOV.L R15,R11
 396                             	 ; 0 "" 2
 324:C:/Workspace/FW_Platform2_5/trunk/HAL/RN_RX200/IEC60335_B_libs/src/CPU\cpu_test.c **** 	__asm__ ("MOV.L R1,R12");
 397                             		.loc 1 324 0
 398                             	 ; 324 "C:/Workspace/FW_Platform2_5/trunk/HAL/RN_RX200/IEC60335_B_libs/src/CPU/cpu_test.c" 1
 399 00c7 EF 1C                   		MOV.L R1,R12
 400                             	 ; 0 "" 2
 325:C:/Workspace/FW_Platform2_5/trunk/HAL/RN_RX200/IEC60335_B_libs/src/CPU\cpu_test.c **** 	__asm__ ("MOV.L R2,R13");
 401                             		.loc 1 325 0
 402                             	 ; 325 "C:/Workspace/FW_Platform2_5/trunk/HAL/RN_RX200/IEC60335_B_libs/src/CPU/cpu_test.c" 1
 403 00c9 EF 2D                   		MOV.L R2,R13
 404                             	 ; 0 "" 2
 326:C:/Workspace/FW_Platform2_5/trunk/HAL/RN_RX200/IEC60335_B_libs/src/CPU\cpu_test.c **** 	
 327:C:/Workspace/FW_Platform2_5/trunk/HAL/RN_RX200/IEC60335_B_libs/src/CPU\cpu_test.c **** 	/*All Tests Passed - so skip the call to the error handler.*/
 328:C:/Workspace/FW_Platform2_5/trunk/HAL/RN_RX200/IEC60335_B_libs/src/CPU\cpu_test.c **** 	__asm__ ("BRA LABEL_PASSED_Test_GeneralB");
 405                             		.loc 1 328 0
 406                             	 ; 328 "C:/Workspace/FW_Platform2_5/trunk/HAL/RN_RX200/IEC60335_B_libs/src/CPU/cpu_test.c" 1
 407 00cb 2E 06                   		BRA LABEL_PASSED_Test_GeneralB
 408                             	 ; 0 "" 2
 329:C:/Workspace/FW_Platform2_5/trunk/HAL/RN_RX200/IEC60335_B_libs/src/CPU\cpu_test.c **** 	
 330:C:/Workspace/FW_Platform2_5/trunk/HAL/RN_RX200/IEC60335_B_libs/src/CPU\cpu_test.c **** 	__asm__ ("LABEL_FAILED_Test_GeneralB:");
 409                             		.loc 1 330 0
 410                             	 ; 330 "C:/Workspace/FW_Platform2_5/trunk/HAL/RN_RX200/IEC60335_B_libs/src/CPU/cpu_test.c" 1
 411                             		LABEL_FAILED_Test_GeneralB:
 412                             	 ; 0 "" 2
 331:C:/Workspace/FW_Platform2_5/trunk/HAL/RN_RX200/IEC60335_B_libs/src/CPU\cpu_test.c **** 	/*Test failed - branch to the Error handler subroutine*/
 332:C:/Workspace/FW_Platform2_5/trunk/HAL/RN_RX200/IEC60335_B_libs/src/CPU\cpu_test.c **** 	__asm__ ("BSR _CPU_Test_ErrorHandler");
 413                             		.loc 1 332 0
 414                             	 ; 332 "C:/Workspace/FW_Platform2_5/trunk/HAL/RN_RX200/IEC60335_B_libs/src/CPU/cpu_test.c" 1
 415 00cd 05 00 00 00             		BSR _CPU_Test_ErrorHandler
 416                             	 ; 0 "" 2
 333:C:/Workspace/FW_Platform2_5/trunk/HAL/RN_RX200/IEC60335_B_libs/src/CPU\cpu_test.c **** 
 334:C:/Workspace/FW_Platform2_5/trunk/HAL/RN_RX200/IEC60335_B_libs/src/CPU\cpu_test.c **** 	__asm__ ("LABEL_PASSED_Test_GeneralB:");
 417                             		.loc 1 334 0
 418                             	 ; 334 "C:/Workspace/FW_Platform2_5/trunk/HAL/RN_RX200/IEC60335_B_libs/src/CPU/cpu_test.c" 1
 419                             		LABEL_PASSED_Test_GeneralB:
 420                             	 ; 0 "" 2
 335:C:/Workspace/FW_Platform2_5/trunk/HAL/RN_RX200/IEC60335_B_libs/src/CPU\cpu_test.c **** 	/*Passed - return from this function.*/		
 336:C:/Workspace/FW_Platform2_5/trunk/HAL/RN_RX200/IEC60335_B_libs/src/CPU\cpu_test.c **** }
 421                             		.loc 1 336 0
 422 00d1 3F 66 01                		rtsd	#4, r6-r6
 423                             	.LFE2:
 425                             		.section	.text.CPU_Test_Control,"ax",@progbits
 426                             		.global	_CPU_Test_Control
 428                             	_CPU_Test_Control:
 429                             	.LFB3:
 337:C:/Workspace/FW_Platform2_5/trunk/HAL/RN_RX200/IEC60335_B_libs/src/CPU\cpu_test.c **** 
 338:C:/Workspace/FW_Platform2_5/trunk/HAL/RN_RX200/IEC60335_B_libs/src/CPU\cpu_test.c **** /***********************************************************************************
 339:C:/Workspace/FW_Platform2_5/trunk/HAL/RN_RX200/IEC60335_B_libs/src/CPU\cpu_test.c **** Function Name : CPU_Test_Control
 340:C:/Workspace/FW_Platform2_5/trunk/HAL/RN_RX200/IEC60335_B_libs/src/CPU\cpu_test.c **** Description   :	Test control registers:
 341:C:/Workspace/FW_Platform2_5/trunk/HAL/RN_RX200/IEC60335_B_libs/src/CPU\cpu_test.c **** 				
 342:C:/Workspace/FW_Platform2_5/trunk/HAL/RN_RX200/IEC60335_B_libs/src/CPU\cpu_test.c **** 				ISP,USP,INTB,PSW,BPC,BPSW,FINTV and FPSW.
 343:C:/Workspace/FW_Platform2_5/trunk/HAL/RN_RX200/IEC60335_B_libs/src/CPU\cpu_test.c **** 				
 344:C:/Workspace/FW_Platform2_5/trunk/HAL/RN_RX200/IEC60335_B_libs/src/CPU\cpu_test.c **** 				NOTE: RX210 does not have a FPSW register.
 345:C:/Workspace/FW_Platform2_5/trunk/HAL/RN_RX200/IEC60335_B_libs/src/CPU\cpu_test.c **** 				FPSW is not tested if RX210 is #defined.
 346:C:/Workspace/FW_Platform2_5/trunk/HAL/RN_RX200/IEC60335_B_libs/src/CPU\cpu_test.c **** 				
 347:C:/Workspace/FW_Platform2_5/trunk/HAL/RN_RX200/IEC60335_B_libs/src/CPU\cpu_test.c **** 				The PC is not tested in this function.
 348:C:/Workspace/FW_Platform2_5/trunk/HAL/RN_RX200/IEC60335_B_libs/src/CPU\cpu_test.c **** 				Use function CPU_Test_PC.
 349:C:/Workspace/FW_Platform2_5/trunk/HAL/RN_RX200/IEC60335_B_libs/src/CPU\cpu_test.c **** 				
 350:C:/Workspace/FW_Platform2_5/trunk/HAL/RN_RX200/IEC60335_B_libs/src/CPU\cpu_test.c **** 				NOTE: The processor mode must be supevisor mode.
 351:C:/Workspace/FW_Platform2_5/trunk/HAL/RN_RX200/IEC60335_B_libs/src/CPU\cpu_test.c **** 				In user mode this test will fail as some of the registers
 352:C:/Workspace/FW_Platform2_5/trunk/HAL/RN_RX200/IEC60335_B_libs/src/CPU\cpu_test.c **** 				can not be written to in user mode.
 353:C:/Workspace/FW_Platform2_5/trunk/HAL/RN_RX200/IEC60335_B_libs/src/CPU\cpu_test.c **** 
 354:C:/Workspace/FW_Platform2_5/trunk/HAL/RN_RX200/IEC60335_B_libs/src/CPU\cpu_test.c **** 				Generally the test procedure for each register is as follows:
 355:C:/Workspace/FW_Platform2_5/trunk/HAL/RN_RX200/IEC60335_B_libs/src/CPU\cpu_test.c **** 				For each register:-
 356:C:/Workspace/FW_Platform2_5/trunk/HAL/RN_RX200/IEC60335_B_libs/src/CPU\cpu_test.c **** 				1. Write h'55555555 to.
 357:C:/Workspace/FW_Platform2_5/trunk/HAL/RN_RX200/IEC60335_B_libs/src/CPU\cpu_test.c **** 				2. Read back and check value equals h'55555555.
 358:C:/Workspace/FW_Platform2_5/trunk/HAL/RN_RX200/IEC60335_B_libs/src/CPU\cpu_test.c **** 				3. Write h'AAAAAAAA to.
 359:C:/Workspace/FW_Platform2_5/trunk/HAL/RN_RX200/IEC60335_B_libs/src/CPU\cpu_test.c **** 				4. Read back and check value equals h'AAAAAAAA.
 360:C:/Workspace/FW_Platform2_5/trunk/HAL/RN_RX200/IEC60335_B_libs/src/CPU\cpu_test.c **** 				
 361:C:/Workspace/FW_Platform2_5/trunk/HAL/RN_RX200/IEC60335_B_libs/src/CPU\cpu_test.c **** 				Note however that there are some cases where restrictions on
 362:C:/Workspace/FW_Platform2_5/trunk/HAL/RN_RX200/IEC60335_B_libs/src/CPU\cpu_test.c **** 				certain bits within a register mean this can not be can followed exactly.
 363:C:/Workspace/FW_Platform2_5/trunk/HAL/RN_RX200/IEC60335_B_libs/src/CPU\cpu_test.c **** 				Details will be given where this occurs.
 364:C:/Workspace/FW_Platform2_5/trunk/HAL/RN_RX200/IEC60335_B_libs/src/CPU\cpu_test.c **** 				
 365:C:/Workspace/FW_Platform2_5/trunk/HAL/RN_RX200/IEC60335_B_libs/src/CPU\cpu_test.c **** 				This test assumes registers R1 to R5 are working.
 366:C:/Workspace/FW_Platform2_5/trunk/HAL/RN_RX200/IEC60335_B_libs/src/CPU\cpu_test.c **** 				
 367:C:/Workspace/FW_Platform2_5/trunk/HAL/RN_RX200/IEC60335_B_libs/src/CPU\cpu_test.c **** 				This function follows the rules for register preservation.
 368:C:/Workspace/FW_Platform2_5/trunk/HAL/RN_RX200/IEC60335_B_libs/src/CPU\cpu_test.c **** 				
 369:C:/Workspace/FW_Platform2_5/trunk/HAL/RN_RX200/IEC60335_B_libs/src/CPU\cpu_test.c **** 				AN INTERRUPT MUST NOT OCCUR DURING THIS FUNCTION.
 370:C:/Workspace/FW_Platform2_5/trunk/HAL/RN_RX200/IEC60335_B_libs/src/CPU\cpu_test.c **** 				IT IS THE CALLING FUNCTIONS RESPONSIBILITY TO ENSURE THIS.
 371:C:/Workspace/FW_Platform2_5/trunk/HAL/RN_RX200/IEC60335_B_libs/src/CPU\cpu_test.c **** 				
 372:C:/Workspace/FW_Platform2_5/trunk/HAL/RN_RX200/IEC60335_B_libs/src/CPU\cpu_test.c **** 				If an error is detected then external function
 373:C:/Workspace/FW_Platform2_5/trunk/HAL/RN_RX200/IEC60335_B_libs/src/CPU\cpu_test.c **** 				CPU_Test_ErrorHandler will be called.
 374:C:/Workspace/FW_Platform2_5/trunk/HAL/RN_RX200/IEC60335_B_libs/src/CPU\cpu_test.c **** 				
 375:C:/Workspace/FW_Platform2_5/trunk/HAL/RN_RX200/IEC60335_B_libs/src/CPU\cpu_test.c **** Parameters    : none				
 376:C:/Workspace/FW_Platform2_5/trunk/HAL/RN_RX200/IEC60335_B_libs/src/CPU\cpu_test.c **** Return Value  : void
 377:C:/Workspace/FW_Platform2_5/trunk/HAL/RN_RX200/IEC60335_B_libs/src/CPU\cpu_test.c **** ***********************************************************************************/
 378:C:/Workspace/FW_Platform2_5/trunk/HAL/RN_RX200/IEC60335_B_libs/src/CPU\cpu_test.c **** void CPU_Test_Control(void)
 379:C:/Workspace/FW_Platform2_5/trunk/HAL/RN_RX200/IEC60335_B_libs/src/CPU\cpu_test.c **** {
 430                             		.loc 1 379 0
 431 0000 7E A6                   		push.l	r6
 432                             	.LCFI4:
 433 0002 EF 06                   		mov.L	r0, r6
 434                             	.LCFI5:
 380:C:/Workspace/FW_Platform2_5/trunk/HAL/RN_RX200/IEC60335_B_libs/src/CPU\cpu_test.c **** 	/*Values to write to test registers*/
 381:C:/Workspace/FW_Platform2_5/trunk/HAL/RN_RX200/IEC60335_B_libs/src/CPU\cpu_test.c **** 	__asm__ ("MOV.L #055555555h,R1"); /*Test Value 1*/
 435                             		.loc 1 381 0
 436                             	 ; 381 "C:/Workspace/FW_Platform2_5/trunk/HAL/RN_RX200/IEC60335_B_libs/src/CPU/cpu_test.c" 1
 437 0004 FB 12 55 55 55 55       		MOV.L #055555555h,R1
 438                             	 ; 0 "" 2
 382:C:/Workspace/FW_Platform2_5/trunk/HAL/RN_RX200/IEC60335_B_libs/src/CPU\cpu_test.c **** 	__asm__ ("MOV.L #0AAAAAAAAh,R2"); /*Test Value 2*/
 439                             		.loc 1 382 0
 440                             	 ; 382 "C:/Workspace/FW_Platform2_5/trunk/HAL/RN_RX200/IEC60335_B_libs/src/CPU/cpu_test.c" 1
 441 000a FB 22 AA AA AA AA       		MOV.L #0AAAAAAAAh,R2
 442                             	 ; 0 "" 2
 383:C:/Workspace/FW_Platform2_5/trunk/HAL/RN_RX200/IEC60335_B_libs/src/CPU\cpu_test.c **** 	
 384:C:/Workspace/FW_Platform2_5/trunk/HAL/RN_RX200/IEC60335_B_libs/src/CPU\cpu_test.c **** 	/*** Start Test ISP ***/
 385:C:/Workspace/FW_Platform2_5/trunk/HAL/RN_RX200/IEC60335_B_libs/src/CPU\cpu_test.c **** 		/*Preseve register to be tested by saving to another register*/
 386:C:/Workspace/FW_Platform2_5/trunk/HAL/RN_RX200/IEC60335_B_libs/src/CPU\cpu_test.c **** 		__asm__ ("MVFC ISP, R5");
 443                             		.loc 1 386 0
 444                             	 ; 386 "C:/Workspace/FW_Platform2_5/trunk/HAL/RN_RX200/IEC60335_B_libs/src/CPU/cpu_test.c" 1
 445 0010 FD 6A A5                		MVFC ISP, R5
 446                             	 ; 0 "" 2
 387:C:/Workspace/FW_Platform2_5/trunk/HAL/RN_RX200/IEC60335_B_libs/src/CPU\cpu_test.c **** 		
 388:C:/Workspace/FW_Platform2_5/trunk/HAL/RN_RX200/IEC60335_B_libs/src/CPU\cpu_test.c **** 		__asm__ ("MVTC R1, ISP"); 	/*Write test value 1*/
 447                             		.loc 1 388 0
 448                             	 ; 388 "C:/Workspace/FW_Platform2_5/trunk/HAL/RN_RX200/IEC60335_B_libs/src/CPU/cpu_test.c" 1
 449 0013 FD 68 1A                		MVTC R1, ISP
 450                             	 ; 0 "" 2
 389:C:/Workspace/FW_Platform2_5/trunk/HAL/RN_RX200/IEC60335_B_libs/src/CPU\cpu_test.c **** 		__asm__ ("MVFC ISP, R3");	/*Read value back*/
 451                             		.loc 1 389 0
 452                             	 ; 389 "C:/Workspace/FW_Platform2_5/trunk/HAL/RN_RX200/IEC60335_B_libs/src/CPU/cpu_test.c" 1
 453 0016 FD 6A A3                		MVFC ISP, R3
 454                             	 ; 0 "" 2
 390:C:/Workspace/FW_Platform2_5/trunk/HAL/RN_RX200/IEC60335_B_libs/src/CPU\cpu_test.c **** 		__asm__ ("CMP R1,R3");		/*Compare with value written*/
 455                             		.loc 1 390 0
 456                             	 ; 390 "C:/Workspace/FW_Platform2_5/trunk/HAL/RN_RX200/IEC60335_B_libs/src/CPU/cpu_test.c" 1
 457 0019 47 13                   		CMP R1,R3
 458                             	 ; 0 "" 2
 391:C:/Workspace/FW_Platform2_5/trunk/HAL/RN_RX200/IEC60335_B_libs/src/CPU\cpu_test.c **** 		__asm__ ("BNE LABEL_FAILED_Test_Control"); /*If not equall then branch to Failed label.*/
 459                             		.loc 1 391 0
 460                             	 ; 391 "C:/Workspace/FW_Platform2_5/trunk/HAL/RN_RX200/IEC60335_B_libs/src/CPU/cpu_test.c" 1
 461 001b 3B CB 00                		BNE LABEL_FAILED_Test_Control
 462                             	 ; 0 "" 2
 392:C:/Workspace/FW_Platform2_5/trunk/HAL/RN_RX200/IEC60335_B_libs/src/CPU\cpu_test.c **** 	
 393:C:/Workspace/FW_Platform2_5/trunk/HAL/RN_RX200/IEC60335_B_libs/src/CPU\cpu_test.c **** 		__asm__ ("MVTC R2, ISP"); 	/*Write test value 2*/
 463                             		.loc 1 393 0
 464                             	 ; 393 "C:/Workspace/FW_Platform2_5/trunk/HAL/RN_RX200/IEC60335_B_libs/src/CPU/cpu_test.c" 1
 465 001e FD 68 2A                		MVTC R2, ISP
 466                             	 ; 0 "" 2
 394:C:/Workspace/FW_Platform2_5/trunk/HAL/RN_RX200/IEC60335_B_libs/src/CPU\cpu_test.c **** 		__asm__ ("MVFC ISP, R3");	/*Read value back*/
 467                             		.loc 1 394 0
 468                             	 ; 394 "C:/Workspace/FW_Platform2_5/trunk/HAL/RN_RX200/IEC60335_B_libs/src/CPU/cpu_test.c" 1
 469 0021 FD 6A A3                		MVFC ISP, R3
 470                             	 ; 0 "" 2
 395:C:/Workspace/FW_Platform2_5/trunk/HAL/RN_RX200/IEC60335_B_libs/src/CPU\cpu_test.c **** 		__asm__ ("CMP R2,R3");		/*Compare with value written*/
 471                             		.loc 1 395 0
 472                             	 ; 395 "C:/Workspace/FW_Platform2_5/trunk/HAL/RN_RX200/IEC60335_B_libs/src/CPU/cpu_test.c" 1
 473 0024 47 23                   		CMP R2,R3
 474                             	 ; 0 "" 2
 396:C:/Workspace/FW_Platform2_5/trunk/HAL/RN_RX200/IEC60335_B_libs/src/CPU\cpu_test.c **** 		__asm__ ("BNE LABEL_FAILED_Test_Control"); /*If not equall then branch to Failed label.*/
 475                             		.loc 1 396 0
 476                             	 ; 396 "C:/Workspace/FW_Platform2_5/trunk/HAL/RN_RX200/IEC60335_B_libs/src/CPU/cpu_test.c" 1
 477 0026 3B C0 00                		BNE LABEL_FAILED_Test_Control
 478                             	 ; 0 "" 2
 397:C:/Workspace/FW_Platform2_5/trunk/HAL/RN_RX200/IEC60335_B_libs/src/CPU\cpu_test.c **** 		
 398:C:/Workspace/FW_Platform2_5/trunk/HAL/RN_RX200/IEC60335_B_libs/src/CPU\cpu_test.c **** 		/*Restore original value*/
 399:C:/Workspace/FW_Platform2_5/trunk/HAL/RN_RX200/IEC60335_B_libs/src/CPU\cpu_test.c **** 		__asm__ ("MVTC R5, ISP;");
 479                             		.loc 1 399 0
 480                             	 ; 399 "C:/Workspace/FW_Platform2_5/trunk/HAL/RN_RX200/IEC60335_B_libs/src/CPU/cpu_test.c" 1
 481 0029 FD 68 5A                		MVTC R5, ISP;
 482                             	 ; 0 "" 2
 400:C:/Workspace/FW_Platform2_5/trunk/HAL/RN_RX200/IEC60335_B_libs/src/CPU\cpu_test.c **** 	/*** End Test ISP ***/
 401:C:/Workspace/FW_Platform2_5/trunk/HAL/RN_RX200/IEC60335_B_libs/src/CPU\cpu_test.c **** 	
 402:C:/Workspace/FW_Platform2_5/trunk/HAL/RN_RX200/IEC60335_B_libs/src/CPU\cpu_test.c **** 	/*** Start Test USP ***/
 403:C:/Workspace/FW_Platform2_5/trunk/HAL/RN_RX200/IEC60335_B_libs/src/CPU\cpu_test.c **** 		/*Preseve register to be tested by saving to another register*/
 404:C:/Workspace/FW_Platform2_5/trunk/HAL/RN_RX200/IEC60335_B_libs/src/CPU\cpu_test.c **** 		__asm__ ("MVFC USP, R5");
 483                             		.loc 1 404 0
 484                             	 ; 404 "C:/Workspace/FW_Platform2_5/trunk/HAL/RN_RX200/IEC60335_B_libs/src/CPU/cpu_test.c" 1
 485 002c FD 6A 25                		MVFC USP, R5
 486                             	 ; 0 "" 2
 405:C:/Workspace/FW_Platform2_5/trunk/HAL/RN_RX200/IEC60335_B_libs/src/CPU\cpu_test.c **** 		
 406:C:/Workspace/FW_Platform2_5/trunk/HAL/RN_RX200/IEC60335_B_libs/src/CPU\cpu_test.c **** 		__asm__ ("MVTC R1, USP"); 	/*Write test value 1*/
 487                             		.loc 1 406 0
 488                             	 ; 406 "C:/Workspace/FW_Platform2_5/trunk/HAL/RN_RX200/IEC60335_B_libs/src/CPU/cpu_test.c" 1
 489 002f FD 68 12                		MVTC R1, USP
 490                             	 ; 0 "" 2
 407:C:/Workspace/FW_Platform2_5/trunk/HAL/RN_RX200/IEC60335_B_libs/src/CPU\cpu_test.c **** 		__asm__ ("MVFC USP, R3");	/*Read value back*/
 491                             		.loc 1 407 0
 492                             	 ; 407 "C:/Workspace/FW_Platform2_5/trunk/HAL/RN_RX200/IEC60335_B_libs/src/CPU/cpu_test.c" 1
 493 0032 FD 6A 23                		MVFC USP, R3
 494                             	 ; 0 "" 2
 408:C:/Workspace/FW_Platform2_5/trunk/HAL/RN_RX200/IEC60335_B_libs/src/CPU\cpu_test.c **** 		__asm__ ("CMP R1,R3");		/*Compare with value written*/
 495                             		.loc 1 408 0
 496                             	 ; 408 "C:/Workspace/FW_Platform2_5/trunk/HAL/RN_RX200/IEC60335_B_libs/src/CPU/cpu_test.c" 1
 497 0035 47 13                   		CMP R1,R3
 498                             	 ; 0 "" 2
 409:C:/Workspace/FW_Platform2_5/trunk/HAL/RN_RX200/IEC60335_B_libs/src/CPU\cpu_test.c **** 		__asm__ ("BNE LABEL_FAILED_Test_Control"); /*If not equall then branch to Failed label.*/
 499                             		.loc 1 409 0
 500                             	 ; 409 "C:/Workspace/FW_Platform2_5/trunk/HAL/RN_RX200/IEC60335_B_libs/src/CPU/cpu_test.c" 1
 501 0037 3B AF 00                		BNE LABEL_FAILED_Test_Control
 502                             	 ; 0 "" 2
 410:C:/Workspace/FW_Platform2_5/trunk/HAL/RN_RX200/IEC60335_B_libs/src/CPU\cpu_test.c **** 	
 411:C:/Workspace/FW_Platform2_5/trunk/HAL/RN_RX200/IEC60335_B_libs/src/CPU\cpu_test.c **** 		__asm__ ("MVTC R2, USP"); 	/*Write test value 2*/
 503                             		.loc 1 411 0
 504                             	 ; 411 "C:/Workspace/FW_Platform2_5/trunk/HAL/RN_RX200/IEC60335_B_libs/src/CPU/cpu_test.c" 1
 505 003a FD 68 22                		MVTC R2, USP
 506                             	 ; 0 "" 2
 412:C:/Workspace/FW_Platform2_5/trunk/HAL/RN_RX200/IEC60335_B_libs/src/CPU\cpu_test.c **** 		__asm__ ("MVFC USP, R3");	/*Read value back*/
 507                             		.loc 1 412 0
 508                             	 ; 412 "C:/Workspace/FW_Platform2_5/trunk/HAL/RN_RX200/IEC60335_B_libs/src/CPU/cpu_test.c" 1
 509 003d FD 6A 23                		MVFC USP, R3
 510                             	 ; 0 "" 2
 413:C:/Workspace/FW_Platform2_5/trunk/HAL/RN_RX200/IEC60335_B_libs/src/CPU\cpu_test.c **** 		__asm__ ("CMP R2,R3");		/*Compare with value written*/
 511                             		.loc 1 413 0
 512                             	 ; 413 "C:/Workspace/FW_Platform2_5/trunk/HAL/RN_RX200/IEC60335_B_libs/src/CPU/cpu_test.c" 1
 513 0040 47 23                   		CMP R2,R3
 514                             	 ; 0 "" 2
 414:C:/Workspace/FW_Platform2_5/trunk/HAL/RN_RX200/IEC60335_B_libs/src/CPU\cpu_test.c **** 		__asm__ ("BNE LABEL_FAILED_Test_Control"); /*If not equall then branch to Failed label.*/
 515                             		.loc 1 414 0
 516                             	 ; 414 "C:/Workspace/FW_Platform2_5/trunk/HAL/RN_RX200/IEC60335_B_libs/src/CPU/cpu_test.c" 1
 517 0042 3B A4 00                		BNE LABEL_FAILED_Test_Control
 518                             	 ; 0 "" 2
 415:C:/Workspace/FW_Platform2_5/trunk/HAL/RN_RX200/IEC60335_B_libs/src/CPU\cpu_test.c **** 		
 416:C:/Workspace/FW_Platform2_5/trunk/HAL/RN_RX200/IEC60335_B_libs/src/CPU\cpu_test.c **** 		/*Restore original value*/
 417:C:/Workspace/FW_Platform2_5/trunk/HAL/RN_RX200/IEC60335_B_libs/src/CPU\cpu_test.c **** 		__asm__ ("MVTC R5, USP");
 519                             		.loc 1 417 0
 520                             	 ; 417 "C:/Workspace/FW_Platform2_5/trunk/HAL/RN_RX200/IEC60335_B_libs/src/CPU/cpu_test.c" 1
 521 0045 FD 68 52                		MVTC R5, USP
 522                             	 ; 0 "" 2
 418:C:/Workspace/FW_Platform2_5/trunk/HAL/RN_RX200/IEC60335_B_libs/src/CPU\cpu_test.c **** 	/*** End Test USP ***/
 419:C:/Workspace/FW_Platform2_5/trunk/HAL/RN_RX200/IEC60335_B_libs/src/CPU\cpu_test.c **** 	
 420:C:/Workspace/FW_Platform2_5/trunk/HAL/RN_RX200/IEC60335_B_libs/src/CPU\cpu_test.c **** 	/*** Start Test INTB ***/
 421:C:/Workspace/FW_Platform2_5/trunk/HAL/RN_RX200/IEC60335_B_libs/src/CPU\cpu_test.c **** 		/*Preseve register to be tested by saving to another register*/
 422:C:/Workspace/FW_Platform2_5/trunk/HAL/RN_RX200/IEC60335_B_libs/src/CPU\cpu_test.c **** 		__asm__ ("MVFC INTB, R5");
 523                             		.loc 1 422 0
 524                             	 ; 422 "C:/Workspace/FW_Platform2_5/trunk/HAL/RN_RX200/IEC60335_B_libs/src/CPU/cpu_test.c" 1
 525 0048 FD 6A C5                		MVFC INTB, R5
 526                             	 ; 0 "" 2
 423:C:/Workspace/FW_Platform2_5/trunk/HAL/RN_RX200/IEC60335_B_libs/src/CPU\cpu_test.c **** 		
 424:C:/Workspace/FW_Platform2_5/trunk/HAL/RN_RX200/IEC60335_B_libs/src/CPU\cpu_test.c **** 		__asm__ ("MVTC R1, INTB"); 	/*Write test value 1*/
 527                             		.loc 1 424 0
 528                             	 ; 424 "C:/Workspace/FW_Platform2_5/trunk/HAL/RN_RX200/IEC60335_B_libs/src/CPU/cpu_test.c" 1
 529 004b FD 68 1C                		MVTC R1, INTB
 530                             	 ; 0 "" 2
 425:C:/Workspace/FW_Platform2_5/trunk/HAL/RN_RX200/IEC60335_B_libs/src/CPU\cpu_test.c **** 		__asm__ ("MVFC INTB, R3");	/*Read value back*/
 531                             		.loc 1 425 0
 532                             	 ; 425 "C:/Workspace/FW_Platform2_5/trunk/HAL/RN_RX200/IEC60335_B_libs/src/CPU/cpu_test.c" 1
 533 004e FD 6A C3                		MVFC INTB, R3
 534                             	 ; 0 "" 2
 426:C:/Workspace/FW_Platform2_5/trunk/HAL/RN_RX200/IEC60335_B_libs/src/CPU\cpu_test.c **** 		__asm__ ("CMP R1,R3");		/*Compare with value written*/
 535                             		.loc 1 426 0
 536                             	 ; 426 "C:/Workspace/FW_Platform2_5/trunk/HAL/RN_RX200/IEC60335_B_libs/src/CPU/cpu_test.c" 1
 537 0051 47 13                   		CMP R1,R3
 538                             	 ; 0 "" 2
 427:C:/Workspace/FW_Platform2_5/trunk/HAL/RN_RX200/IEC60335_B_libs/src/CPU\cpu_test.c **** 		__asm__ ("BNE LABEL_FAILED_Test_Control"); /*If not equall then branch to Failed label.*/
 539                             		.loc 1 427 0
 540                             	 ; 427 "C:/Workspace/FW_Platform2_5/trunk/HAL/RN_RX200/IEC60335_B_libs/src/CPU/cpu_test.c" 1
 541 0053 3B 93 00                		BNE LABEL_FAILED_Test_Control
 542                             	 ; 0 "" 2
 428:C:/Workspace/FW_Platform2_5/trunk/HAL/RN_RX200/IEC60335_B_libs/src/CPU\cpu_test.c **** 	
 429:C:/Workspace/FW_Platform2_5/trunk/HAL/RN_RX200/IEC60335_B_libs/src/CPU\cpu_test.c **** 		__asm__ ("MVTC R2, INTB"); 	/*Write test value 2*/
 543                             		.loc 1 429 0
 544                             	 ; 429 "C:/Workspace/FW_Platform2_5/trunk/HAL/RN_RX200/IEC60335_B_libs/src/CPU/cpu_test.c" 1
 545 0056 FD 68 2C                		MVTC R2, INTB
 546                             	 ; 0 "" 2
 430:C:/Workspace/FW_Platform2_5/trunk/HAL/RN_RX200/IEC60335_B_libs/src/CPU\cpu_test.c **** 		__asm__ ("MVFC INTB, R3");	/*Read value back*/
 547                             		.loc 1 430 0
 548                             	 ; 430 "C:/Workspace/FW_Platform2_5/trunk/HAL/RN_RX200/IEC60335_B_libs/src/CPU/cpu_test.c" 1
 549 0059 FD 6A C3                		MVFC INTB, R3
 550                             	 ; 0 "" 2
 431:C:/Workspace/FW_Platform2_5/trunk/HAL/RN_RX200/IEC60335_B_libs/src/CPU\cpu_test.c **** 		__asm__ ("CMP R2,R3");		/*Compare with value written*/
 551                             		.loc 1 431 0
 552                             	 ; 431 "C:/Workspace/FW_Platform2_5/trunk/HAL/RN_RX200/IEC60335_B_libs/src/CPU/cpu_test.c" 1
 553 005c 47 23                   		CMP R2,R3
 554                             	 ; 0 "" 2
 432:C:/Workspace/FW_Platform2_5/trunk/HAL/RN_RX200/IEC60335_B_libs/src/CPU\cpu_test.c **** 		__asm__ ("BNE LABEL_FAILED_Test_Control"); /*If not equall then branch to Failed label.*/
 555                             		.loc 1 432 0
 556                             	 ; 432 "C:/Workspace/FW_Platform2_5/trunk/HAL/RN_RX200/IEC60335_B_libs/src/CPU/cpu_test.c" 1
 557 005e 3B 88 00                		BNE LABEL_FAILED_Test_Control
 558                             	 ; 0 "" 2
 433:C:/Workspace/FW_Platform2_5/trunk/HAL/RN_RX200/IEC60335_B_libs/src/CPU\cpu_test.c **** 		
 434:C:/Workspace/FW_Platform2_5/trunk/HAL/RN_RX200/IEC60335_B_libs/src/CPU\cpu_test.c **** 		/*Restore original value*/
 435:C:/Workspace/FW_Platform2_5/trunk/HAL/RN_RX200/IEC60335_B_libs/src/CPU\cpu_test.c **** 		__asm__ ("MVTC R5, INTB");
 559                             		.loc 1 435 0
 560                             	 ; 435 "C:/Workspace/FW_Platform2_5/trunk/HAL/RN_RX200/IEC60335_B_libs/src/CPU/cpu_test.c" 1
 561 0061 FD 68 5C                		MVTC R5, INTB
 562                             	 ; 0 "" 2
 436:C:/Workspace/FW_Platform2_5/trunk/HAL/RN_RX200/IEC60335_B_libs/src/CPU\cpu_test.c **** 	/*** End Test INTB ***/
 437:C:/Workspace/FW_Platform2_5/trunk/HAL/RN_RX200/IEC60335_B_libs/src/CPU\cpu_test.c **** 	
 438:C:/Workspace/FW_Platform2_5/trunk/HAL/RN_RX200/IEC60335_B_libs/src/CPU\cpu_test.c **** 	/*** Start Test BPC ***/
 439:C:/Workspace/FW_Platform2_5/trunk/HAL/RN_RX200/IEC60335_B_libs/src/CPU\cpu_test.c **** 		/*Preseve register to be tested by saving to another register*/
 440:C:/Workspace/FW_Platform2_5/trunk/HAL/RN_RX200/IEC60335_B_libs/src/CPU\cpu_test.c **** 		__asm__ ("MVFC BPC, R5");
 563                             		.loc 1 440 0
 564                             	 ; 440 "C:/Workspace/FW_Platform2_5/trunk/HAL/RN_RX200/IEC60335_B_libs/src/CPU/cpu_test.c" 1
 565 0064 FD 6A 95                		MVFC BPC, R5
 566                             	 ; 0 "" 2
 441:C:/Workspace/FW_Platform2_5/trunk/HAL/RN_RX200/IEC60335_B_libs/src/CPU\cpu_test.c **** 		
 442:C:/Workspace/FW_Platform2_5/trunk/HAL/RN_RX200/IEC60335_B_libs/src/CPU\cpu_test.c **** 		__asm__ ("MVTC R1, BPC"); 	/*Write test value 1*/
 567                             		.loc 1 442 0
 568                             	 ; 442 "C:/Workspace/FW_Platform2_5/trunk/HAL/RN_RX200/IEC60335_B_libs/src/CPU/cpu_test.c" 1
 569 0067 FD 68 19                		MVTC R1, BPC
 570                             	 ; 0 "" 2
 443:C:/Workspace/FW_Platform2_5/trunk/HAL/RN_RX200/IEC60335_B_libs/src/CPU\cpu_test.c **** 		__asm__ ("MVFC BPC, R3");	/*Read value back*/
 571                             		.loc 1 443 0
 572                             	 ; 443 "C:/Workspace/FW_Platform2_5/trunk/HAL/RN_RX200/IEC60335_B_libs/src/CPU/cpu_test.c" 1
 573 006a FD 6A 93                		MVFC BPC, R3
 574                             	 ; 0 "" 2
 444:C:/Workspace/FW_Platform2_5/trunk/HAL/RN_RX200/IEC60335_B_libs/src/CPU\cpu_test.c **** 		__asm__ ("CMP R1,R3");		/*Compare with value written*/
 575                             		.loc 1 444 0
 576                             	 ; 444 "C:/Workspace/FW_Platform2_5/trunk/HAL/RN_RX200/IEC60335_B_libs/src/CPU/cpu_test.c" 1
 577 006d 47 13                   		CMP R1,R3
 578                             	 ; 0 "" 2
 445:C:/Workspace/FW_Platform2_5/trunk/HAL/RN_RX200/IEC60335_B_libs/src/CPU\cpu_test.c **** 		__asm__ ("BNE LABEL_FAILED_Test_Control"); /*If not equall then branch to Failed label.*/
 579                             		.loc 1 445 0
 580                             	 ; 445 "C:/Workspace/FW_Platform2_5/trunk/HAL/RN_RX200/IEC60335_B_libs/src/CPU/cpu_test.c" 1
 581 006f 21 77                   		BNE LABEL_FAILED_Test_Control
 582                             	 ; 0 "" 2
 446:C:/Workspace/FW_Platform2_5/trunk/HAL/RN_RX200/IEC60335_B_libs/src/CPU\cpu_test.c **** 	
 447:C:/Workspace/FW_Platform2_5/trunk/HAL/RN_RX200/IEC60335_B_libs/src/CPU\cpu_test.c **** 		__asm__ ("MVTC R2, BPC"); 	/*Write test value 2*/
 583                             		.loc 1 447 0
 584                             	 ; 447 "C:/Workspace/FW_Platform2_5/trunk/HAL/RN_RX200/IEC60335_B_libs/src/CPU/cpu_test.c" 1
 585 0071 FD 68 29                		MVTC R2, BPC
 586                             	 ; 0 "" 2
 448:C:/Workspace/FW_Platform2_5/trunk/HAL/RN_RX200/IEC60335_B_libs/src/CPU\cpu_test.c **** 		__asm__ ("MVFC BPC, R3");	/*Read value back*/
 587                             		.loc 1 448 0
 588                             	 ; 448 "C:/Workspace/FW_Platform2_5/trunk/HAL/RN_RX200/IEC60335_B_libs/src/CPU/cpu_test.c" 1
 589 0074 FD 6A 93                		MVFC BPC, R3
 590                             	 ; 0 "" 2
 449:C:/Workspace/FW_Platform2_5/trunk/HAL/RN_RX200/IEC60335_B_libs/src/CPU\cpu_test.c **** 		__asm__ ("CMP R2,R3");		/*Compare with value written*/
 591                             		.loc 1 449 0
 592                             	 ; 449 "C:/Workspace/FW_Platform2_5/trunk/HAL/RN_RX200/IEC60335_B_libs/src/CPU/cpu_test.c" 1
 593 0077 47 23                   		CMP R2,R3
 594                             	 ; 0 "" 2
 450:C:/Workspace/FW_Platform2_5/trunk/HAL/RN_RX200/IEC60335_B_libs/src/CPU\cpu_test.c **** 		__asm__ ("BNE LABEL_FAILED_Test_Control"); /*If not equall then branch to Failed label.*/
 595                             		.loc 1 450 0
 596                             	 ; 450 "C:/Workspace/FW_Platform2_5/trunk/HAL/RN_RX200/IEC60335_B_libs/src/CPU/cpu_test.c" 1
 597 0079 21 6D                   		BNE LABEL_FAILED_Test_Control
 598                             	 ; 0 "" 2
 451:C:/Workspace/FW_Platform2_5/trunk/HAL/RN_RX200/IEC60335_B_libs/src/CPU\cpu_test.c **** 		
 452:C:/Workspace/FW_Platform2_5/trunk/HAL/RN_RX200/IEC60335_B_libs/src/CPU\cpu_test.c **** 		/*Restore original value*/
 453:C:/Workspace/FW_Platform2_5/trunk/HAL/RN_RX200/IEC60335_B_libs/src/CPU\cpu_test.c **** 		__asm__ ("MVTC R5, BPC");
 599                             		.loc 1 453 0
 600                             	 ; 453 "C:/Workspace/FW_Platform2_5/trunk/HAL/RN_RX200/IEC60335_B_libs/src/CPU/cpu_test.c" 1
 601 007b FD 68 59                		MVTC R5, BPC
 602                             	 ; 0 "" 2
 454:C:/Workspace/FW_Platform2_5/trunk/HAL/RN_RX200/IEC60335_B_libs/src/CPU\cpu_test.c **** 	/*** End Test BPC ***/
 455:C:/Workspace/FW_Platform2_5/trunk/HAL/RN_RX200/IEC60335_B_libs/src/CPU\cpu_test.c **** 	
 456:C:/Workspace/FW_Platform2_5/trunk/HAL/RN_RX200/IEC60335_B_libs/src/CPU\cpu_test.c **** 	/*** Start Test FINTV ***/
 457:C:/Workspace/FW_Platform2_5/trunk/HAL/RN_RX200/IEC60335_B_libs/src/CPU\cpu_test.c **** 		/*Preseve register to be tested by saving to another register*/
 458:C:/Workspace/FW_Platform2_5/trunk/HAL/RN_RX200/IEC60335_B_libs/src/CPU\cpu_test.c **** 		__asm__ ("MVFC FINTV, R5");
 603                             		.loc 1 458 0
 604                             	 ; 458 "C:/Workspace/FW_Platform2_5/trunk/HAL/RN_RX200/IEC60335_B_libs/src/CPU/cpu_test.c" 1
 605 007e FD 6A B5                		MVFC FINTV, R5
 606                             	 ; 0 "" 2
 459:C:/Workspace/FW_Platform2_5/trunk/HAL/RN_RX200/IEC60335_B_libs/src/CPU\cpu_test.c **** 		
 460:C:/Workspace/FW_Platform2_5/trunk/HAL/RN_RX200/IEC60335_B_libs/src/CPU\cpu_test.c **** 		__asm__ ("MVTC R1, FINTV"); /*Write test value 1*/
 607                             		.loc 1 460 0
 608                             	 ; 460 "C:/Workspace/FW_Platform2_5/trunk/HAL/RN_RX200/IEC60335_B_libs/src/CPU/cpu_test.c" 1
 609 0081 FD 68 1B                		MVTC R1, FINTV
 610                             	 ; 0 "" 2
 461:C:/Workspace/FW_Platform2_5/trunk/HAL/RN_RX200/IEC60335_B_libs/src/CPU\cpu_test.c **** 		__asm__ ("MVFC FINTV, R3");	/*Read value back*/
 611                             		.loc 1 461 0
 612                             	 ; 461 "C:/Workspace/FW_Platform2_5/trunk/HAL/RN_RX200/IEC60335_B_libs/src/CPU/cpu_test.c" 1
 613 0084 FD 6A B3                		MVFC FINTV, R3
 614                             	 ; 0 "" 2
 462:C:/Workspace/FW_Platform2_5/trunk/HAL/RN_RX200/IEC60335_B_libs/src/CPU\cpu_test.c **** 		__asm__ ("CMP R1,R3");		/*Compare with value written*/
 615                             		.loc 1 462 0
 616                             	 ; 462 "C:/Workspace/FW_Platform2_5/trunk/HAL/RN_RX200/IEC60335_B_libs/src/CPU/cpu_test.c" 1
 617 0087 47 13                   		CMP R1,R3
 618                             	 ; 0 "" 2
 463:C:/Workspace/FW_Platform2_5/trunk/HAL/RN_RX200/IEC60335_B_libs/src/CPU\cpu_test.c **** 		__asm__ ("BNE LABEL_FAILED_Test_Control"); /*If not equall then branch to Failed label.*/
 619                             		.loc 1 463 0
 620                             	 ; 463 "C:/Workspace/FW_Platform2_5/trunk/HAL/RN_RX200/IEC60335_B_libs/src/CPU/cpu_test.c" 1
 621 0089 21 5D                   		BNE LABEL_FAILED_Test_Control
 622                             	 ; 0 "" 2
 464:C:/Workspace/FW_Platform2_5/trunk/HAL/RN_RX200/IEC60335_B_libs/src/CPU\cpu_test.c **** 	
 465:C:/Workspace/FW_Platform2_5/trunk/HAL/RN_RX200/IEC60335_B_libs/src/CPU\cpu_test.c **** 		__asm__ ("MVTC R2, FINTV"); /*Write test value 2*/
 623                             		.loc 1 465 0
 624                             	 ; 465 "C:/Workspace/FW_Platform2_5/trunk/HAL/RN_RX200/IEC60335_B_libs/src/CPU/cpu_test.c" 1
 625 008b FD 68 2B                		MVTC R2, FINTV
 626                             	 ; 0 "" 2
 466:C:/Workspace/FW_Platform2_5/trunk/HAL/RN_RX200/IEC60335_B_libs/src/CPU\cpu_test.c **** 		__asm__ ("MVFC FINTV, R3");	/*Read value back*/
 627                             		.loc 1 466 0
 628                             	 ; 466 "C:/Workspace/FW_Platform2_5/trunk/HAL/RN_RX200/IEC60335_B_libs/src/CPU/cpu_test.c" 1
 629 008e FD 6A B3                		MVFC FINTV, R3
 630                             	 ; 0 "" 2
 467:C:/Workspace/FW_Platform2_5/trunk/HAL/RN_RX200/IEC60335_B_libs/src/CPU\cpu_test.c **** 		__asm__ ("CMP R2,R3");		/*Compare with value written*/
 631                             		.loc 1 467 0
 632                             	 ; 467 "C:/Workspace/FW_Platform2_5/trunk/HAL/RN_RX200/IEC60335_B_libs/src/CPU/cpu_test.c" 1
 633 0091 47 23                   		CMP R2,R3
 634                             	 ; 0 "" 2
 468:C:/Workspace/FW_Platform2_5/trunk/HAL/RN_RX200/IEC60335_B_libs/src/CPU\cpu_test.c **** 		__asm__ ("BNE LABEL_FAILED_Test_Control"); /*If not equall then branch to Failed label.*/
 635                             		.loc 1 468 0
 636                             	 ; 468 "C:/Workspace/FW_Platform2_5/trunk/HAL/RN_RX200/IEC60335_B_libs/src/CPU/cpu_test.c" 1
 637 0093 21 53                   		BNE LABEL_FAILED_Test_Control
 638                             	 ; 0 "" 2
 469:C:/Workspace/FW_Platform2_5/trunk/HAL/RN_RX200/IEC60335_B_libs/src/CPU\cpu_test.c **** 		
 470:C:/Workspace/FW_Platform2_5/trunk/HAL/RN_RX200/IEC60335_B_libs/src/CPU\cpu_test.c **** 		/*Restore original value*/
 471:C:/Workspace/FW_Platform2_5/trunk/HAL/RN_RX200/IEC60335_B_libs/src/CPU\cpu_test.c **** 		__asm__ ("MVTC R5, FINTV");
 639                             		.loc 1 471 0
 640                             	 ; 471 "C:/Workspace/FW_Platform2_5/trunk/HAL/RN_RX200/IEC60335_B_libs/src/CPU/cpu_test.c" 1
 641 0095 FD 68 5B                		MVTC R5, FINTV
 642                             	 ; 0 "" 2
 472:C:/Workspace/FW_Platform2_5/trunk/HAL/RN_RX200/IEC60335_B_libs/src/CPU\cpu_test.c **** 	/*** End Test FINTV ***/
 473:C:/Workspace/FW_Platform2_5/trunk/HAL/RN_RX200/IEC60335_B_libs/src/CPU\cpu_test.c **** 
 474:C:/Workspace/FW_Platform2_5/trunk/HAL/RN_RX200/IEC60335_B_libs/src/CPU\cpu_test.c **** 	
 475:C:/Workspace/FW_Platform2_5/trunk/HAL/RN_RX200/IEC60335_B_libs/src/CPU\cpu_test.c **** 	/*** Start Test PSW ***/
 476:C:/Workspace/FW_Platform2_5/trunk/HAL/RN_RX200/IEC60335_B_libs/src/CPU\cpu_test.c **** 		/*Values to write to test registers.*/
 477:C:/Workspace/FW_Platform2_5/trunk/HAL/RN_RX200/IEC60335_B_libs/src/CPU\cpu_test.c **** 		/*Can't be h'55555555 and h'AAAAAAAA as not all bits are r/w.*/
 478:C:/Workspace/FW_Platform2_5/trunk/HAL/RN_RX200/IEC60335_B_libs/src/CPU\cpu_test.c **** 		/*The I bit is not tested to avoid potentially enabling interrupts*/
 479:C:/Workspace/FW_Platform2_5/trunk/HAL/RN_RX200/IEC60335_B_libs/src/CPU\cpu_test.c **** 		
 480:C:/Workspace/FW_Platform2_5/trunk/HAL/RN_RX200/IEC60335_B_libs/src/CPU\cpu_test.c **** 		/*The Rx610 requires different test data patterns as it has only 3 IPL bits,*/
 481:C:/Workspace/FW_Platform2_5/trunk/HAL/RN_RX200/IEC60335_B_libs/src/CPU\cpu_test.c **** 		/*rather than the 4 bits that other Rx devices have.*/
 482:C:/Workspace/FW_Platform2_5/trunk/HAL/RN_RX200/IEC60335_B_libs/src/CPU\cpu_test.c **** 		#ifdef RX610
 483:C:/Workspace/FW_Platform2_5/trunk/HAL/RN_RX200/IEC60335_B_libs/src/CPU\cpu_test.c **** 			__asm__ ("MOV.L #005000005h,R1"); /*Test Value 1, as close to h'55555555 as possible.*/
 484:C:/Workspace/FW_Platform2_5/trunk/HAL/RN_RX200/IEC60335_B_libs/src/CPU\cpu_test.c **** 			__asm__ ("MOV.L #00202000Ah,R2"); /*Test Value 2, as close to h'AAAAAAAA as possible.*/
 485:C:/Workspace/FW_Platform2_5/trunk/HAL/RN_RX200/IEC60335_B_libs/src/CPU\cpu_test.c **** 		#else
 486:C:/Workspace/FW_Platform2_5/trunk/HAL/RN_RX200/IEC60335_B_libs/src/CPU\cpu_test.c **** 			__asm__ ("MOV.L #005000005h,R1"); /*Test Value 1, as close to h'55555555 as possible.*/
 643                             		.loc 1 486 0
 644                             	 ; 486 "C:/Workspace/FW_Platform2_5/trunk/HAL/RN_RX200/IEC60335_B_libs/src/CPU/cpu_test.c" 1
 645 0098 FB 12 05 00 00 05       		MOV.L #005000005h,R1
 646                             	 ; 0 "" 2
 487:C:/Workspace/FW_Platform2_5/trunk/HAL/RN_RX200/IEC60335_B_libs/src/CPU\cpu_test.c **** 			__asm__ ("MOV.L #00A02000Ah,R2"); /*Test Value 2, as close to h'AAAAAAAA as possible.*/
 647                             		.loc 1 487 0
 648                             	 ; 487 "C:/Workspace/FW_Platform2_5/trunk/HAL/RN_RX200/IEC60335_B_libs/src/CPU/cpu_test.c" 1
 649 009e FB 22 0A 00 02 0A       		MOV.L #00A02000Ah,R2
 650                             	 ; 0 "" 2
 488:C:/Workspace/FW_Platform2_5/trunk/HAL/RN_RX200/IEC60335_B_libs/src/CPU\cpu_test.c **** 		#endif
 489:C:/Workspace/FW_Platform2_5/trunk/HAL/RN_RX200/IEC60335_B_libs/src/CPU\cpu_test.c **** 		
 490:C:/Workspace/FW_Platform2_5/trunk/HAL/RN_RX200/IEC60335_B_libs/src/CPU\cpu_test.c **** 		/*Preseve register to be tested by saving to another register*/
 491:C:/Workspace/FW_Platform2_5/trunk/HAL/RN_RX200/IEC60335_B_libs/src/CPU\cpu_test.c **** 		__asm__ ("MVFC PSW, R5");
 651                             		.loc 1 491 0
 652                             	 ; 491 "C:/Workspace/FW_Platform2_5/trunk/HAL/RN_RX200/IEC60335_B_libs/src/CPU/cpu_test.c" 1
 653 00a4 FD 6A 05                		MVFC PSW, R5
 654                             	 ; 0 "" 2
 492:C:/Workspace/FW_Platform2_5/trunk/HAL/RN_RX200/IEC60335_B_libs/src/CPU\cpu_test.c **** 		
 493:C:/Workspace/FW_Platform2_5/trunk/HAL/RN_RX200/IEC60335_B_libs/src/CPU\cpu_test.c **** 		__asm__ ("MVTC R1, PSW"); 	/*Write test value 1*/
 655                             		.loc 1 493 0
 656                             	 ; 493 "C:/Workspace/FW_Platform2_5/trunk/HAL/RN_RX200/IEC60335_B_libs/src/CPU/cpu_test.c" 1
 657 00a7 FD 68 10                		MVTC R1, PSW
 658                             	 ; 0 "" 2
 494:C:/Workspace/FW_Platform2_5/trunk/HAL/RN_RX200/IEC60335_B_libs/src/CPU\cpu_test.c **** 		__asm__ ("MVFC PSW, R3");	/*Read value back*/
 659                             		.loc 1 494 0
 660                             	 ; 494 "C:/Workspace/FW_Platform2_5/trunk/HAL/RN_RX200/IEC60335_B_libs/src/CPU/cpu_test.c" 1
 661 00aa FD 6A 03                		MVFC PSW, R3
 662                             	 ; 0 "" 2
 495:C:/Workspace/FW_Platform2_5/trunk/HAL/RN_RX200/IEC60335_B_libs/src/CPU\cpu_test.c **** 		__asm__ ("CMP R1,R3");		/*Compare with value written*/
 663                             		.loc 1 495 0
 664                             	 ; 495 "C:/Workspace/FW_Platform2_5/trunk/HAL/RN_RX200/IEC60335_B_libs/src/CPU/cpu_test.c" 1
 665 00ad 47 13                   		CMP R1,R3
 666                             	 ; 0 "" 2
 496:C:/Workspace/FW_Platform2_5/trunk/HAL/RN_RX200/IEC60335_B_libs/src/CPU\cpu_test.c **** 		__asm__ ("BNE LABEL_FAILED_Test_Control"); /*If not equall then branch to Failed label.*/
 667                             		.loc 1 496 0
 668                             	 ; 496 "C:/Workspace/FW_Platform2_5/trunk/HAL/RN_RX200/IEC60335_B_libs/src/CPU/cpu_test.c" 1
 669 00af 21 37                   		BNE LABEL_FAILED_Test_Control
 670                             	 ; 0 "" 2
 497:C:/Workspace/FW_Platform2_5/trunk/HAL/RN_RX200/IEC60335_B_libs/src/CPU\cpu_test.c **** 	
 498:C:/Workspace/FW_Platform2_5/trunk/HAL/RN_RX200/IEC60335_B_libs/src/CPU\cpu_test.c **** 		__asm__ ("MVTC R2, PSW"); 	/*Write test value 2*/
 671                             		.loc 1 498 0
 672                             	 ; 498 "C:/Workspace/FW_Platform2_5/trunk/HAL/RN_RX200/IEC60335_B_libs/src/CPU/cpu_test.c" 1
 673 00b1 FD 68 20                		MVTC R2, PSW
 674                             	 ; 0 "" 2
 499:C:/Workspace/FW_Platform2_5/trunk/HAL/RN_RX200/IEC60335_B_libs/src/CPU\cpu_test.c **** 		__asm__ ("MVFC PSW, R3");	/*Read value back*/
 675                             		.loc 1 499 0
 676                             	 ; 499 "C:/Workspace/FW_Platform2_5/trunk/HAL/RN_RX200/IEC60335_B_libs/src/CPU/cpu_test.c" 1
 677 00b4 FD 6A 03                		MVFC PSW, R3
 678                             	 ; 0 "" 2
 500:C:/Workspace/FW_Platform2_5/trunk/HAL/RN_RX200/IEC60335_B_libs/src/CPU\cpu_test.c **** 		__asm__ ("CMP R2,R3");		/*Compare with value written*/
 679                             		.loc 1 500 0
 680                             	 ; 500 "C:/Workspace/FW_Platform2_5/trunk/HAL/RN_RX200/IEC60335_B_libs/src/CPU/cpu_test.c" 1
 681 00b7 47 23                   		CMP R2,R3
 682                             	 ; 0 "" 2
 501:C:/Workspace/FW_Platform2_5/trunk/HAL/RN_RX200/IEC60335_B_libs/src/CPU\cpu_test.c **** 		__asm__ ("BNE LABEL_FAILED_Test_Control"); /*If not equall then branch to Failed label.*/
 683                             		.loc 1 501 0
 684                             	 ; 501 "C:/Workspace/FW_Platform2_5/trunk/HAL/RN_RX200/IEC60335_B_libs/src/CPU/cpu_test.c" 1
 685 00b9 21 2D                   		BNE LABEL_FAILED_Test_Control
 686                             	 ; 0 "" 2
 502:C:/Workspace/FW_Platform2_5/trunk/HAL/RN_RX200/IEC60335_B_libs/src/CPU\cpu_test.c **** 		
 503:C:/Workspace/FW_Platform2_5/trunk/HAL/RN_RX200/IEC60335_B_libs/src/CPU\cpu_test.c **** 		/*Restore original value*/
 504:C:/Workspace/FW_Platform2_5/trunk/HAL/RN_RX200/IEC60335_B_libs/src/CPU\cpu_test.c **** 		__asm__ ("MVTC R5, PSW");
 687                             		.loc 1 504 0
 688                             	 ; 504 "C:/Workspace/FW_Platform2_5/trunk/HAL/RN_RX200/IEC60335_B_libs/src/CPU/cpu_test.c" 1
 689 00bb FD 68 50                		MVTC R5, PSW
 690                             	 ; 0 "" 2
 505:C:/Workspace/FW_Platform2_5/trunk/HAL/RN_RX200/IEC60335_B_libs/src/CPU\cpu_test.c **** 	/*** End Test PSW ***/
 506:C:/Workspace/FW_Platform2_5/trunk/HAL/RN_RX200/IEC60335_B_libs/src/CPU\cpu_test.c **** 	
 507:C:/Workspace/FW_Platform2_5/trunk/HAL/RN_RX200/IEC60335_B_libs/src/CPU\cpu_test.c **** 	/*** Start Test BPSW ***/
 508:C:/Workspace/FW_Platform2_5/trunk/HAL/RN_RX200/IEC60335_B_libs/src/CPU\cpu_test.c **** 		/*Values to write to test registers.*/
 509:C:/Workspace/FW_Platform2_5/trunk/HAL/RN_RX200/IEC60335_B_libs/src/CPU\cpu_test.c **** 		/*Can't be h'55555555 and h'AAAAAAAA as not all bits are r/w.*/
 510:C:/Workspace/FW_Platform2_5/trunk/HAL/RN_RX200/IEC60335_B_libs/src/CPU\cpu_test.c **** 		__asm__ ("MOV.L #005010005h,R1"); /*Test Value 1, as close to h'55555555 as possible.*/
 691                             		.loc 1 510 0
 692                             	 ; 510 "C:/Workspace/FW_Platform2_5/trunk/HAL/RN_RX200/IEC60335_B_libs/src/CPU/cpu_test.c" 1
 693 00be FB 12 05 00 01 05       		MOV.L #005010005h,R1
 694                             	 ; 0 "" 2
 511:C:/Workspace/FW_Platform2_5/trunk/HAL/RN_RX200/IEC60335_B_libs/src/CPU\cpu_test.c **** 		__asm__ ("MOV.L #00202000Ah,R2"); /*Test Value 2, as close to h'AAAAAAAA as possible.*/
 695                             		.loc 1 511 0
 696                             	 ; 511 "C:/Workspace/FW_Platform2_5/trunk/HAL/RN_RX200/IEC60335_B_libs/src/CPU/cpu_test.c" 1
 697 00c4 FB 22 0A 00 02 02       		MOV.L #00202000Ah,R2
 698                             	 ; 0 "" 2
 512:C:/Workspace/FW_Platform2_5/trunk/HAL/RN_RX200/IEC60335_B_libs/src/CPU\cpu_test.c **** 		
 513:C:/Workspace/FW_Platform2_5/trunk/HAL/RN_RX200/IEC60335_B_libs/src/CPU\cpu_test.c **** 		/*Preseve register to be tested by saving to another register*/
 514:C:/Workspace/FW_Platform2_5/trunk/HAL/RN_RX200/IEC60335_B_libs/src/CPU\cpu_test.c **** 		__asm__ ("MVFC BPSW, R5");
 699                             		.loc 1 514 0
 700                             	 ; 514 "C:/Workspace/FW_Platform2_5/trunk/HAL/RN_RX200/IEC60335_B_libs/src/CPU/cpu_test.c" 1
 701 00ca FD 6A 85                		MVFC BPSW, R5
 702                             	 ; 0 "" 2
 515:C:/Workspace/FW_Platform2_5/trunk/HAL/RN_RX200/IEC60335_B_libs/src/CPU\cpu_test.c **** 		
 516:C:/Workspace/FW_Platform2_5/trunk/HAL/RN_RX200/IEC60335_B_libs/src/CPU\cpu_test.c **** 		__asm__ ("MVTC R1, BPSW"); 	/*Write test value 1*/
 703                             		.loc 1 516 0
 704                             	 ; 516 "C:/Workspace/FW_Platform2_5/trunk/HAL/RN_RX200/IEC60335_B_libs/src/CPU/cpu_test.c" 1
 705 00cd FD 68 18                		MVTC R1, BPSW
 706                             	 ; 0 "" 2
 517:C:/Workspace/FW_Platform2_5/trunk/HAL/RN_RX200/IEC60335_B_libs/src/CPU\cpu_test.c **** 		__asm__ ("MVFC BPSW, R3");	/*Read value back*/
 707                             		.loc 1 517 0
 708                             	 ; 517 "C:/Workspace/FW_Platform2_5/trunk/HAL/RN_RX200/IEC60335_B_libs/src/CPU/cpu_test.c" 1
 709 00d0 FD 6A 83                		MVFC BPSW, R3
 710                             	 ; 0 "" 2
 518:C:/Workspace/FW_Platform2_5/trunk/HAL/RN_RX200/IEC60335_B_libs/src/CPU\cpu_test.c **** 		__asm__ ("CMP R1,R3");		/*Compare with value written*/
 711                             		.loc 1 518 0
 712                             	 ; 518 "C:/Workspace/FW_Platform2_5/trunk/HAL/RN_RX200/IEC60335_B_libs/src/CPU/cpu_test.c" 1
 713 00d3 47 13                   		CMP R1,R3
 714                             	 ; 0 "" 2
 519:C:/Workspace/FW_Platform2_5/trunk/HAL/RN_RX200/IEC60335_B_libs/src/CPU\cpu_test.c **** 		__asm__ ("BNE LABEL_FAILED_Test_Control"); /*If not equall then branch to Failed label.*/
 715                             		.loc 1 519 0
 716                             	 ; 519 "C:/Workspace/FW_Platform2_5/trunk/HAL/RN_RX200/IEC60335_B_libs/src/CPU/cpu_test.c" 1
 717 00d5 21 11                   		BNE LABEL_FAILED_Test_Control
 718                             	 ; 0 "" 2
 520:C:/Workspace/FW_Platform2_5/trunk/HAL/RN_RX200/IEC60335_B_libs/src/CPU\cpu_test.c **** 	
 521:C:/Workspace/FW_Platform2_5/trunk/HAL/RN_RX200/IEC60335_B_libs/src/CPU\cpu_test.c **** 		__asm__ ("MVTC R2, BPSW"); 	/*Write test value 2*/
 719                             		.loc 1 521 0
 720                             	 ; 521 "C:/Workspace/FW_Platform2_5/trunk/HAL/RN_RX200/IEC60335_B_libs/src/CPU/cpu_test.c" 1
 721 00d7 FD 68 28                		MVTC R2, BPSW
 722                             	 ; 0 "" 2
 522:C:/Workspace/FW_Platform2_5/trunk/HAL/RN_RX200/IEC60335_B_libs/src/CPU\cpu_test.c **** 		__asm__ ("MVFC BPSW, R3");	/*Read value back*/
 723                             		.loc 1 522 0
 724                             	 ; 522 "C:/Workspace/FW_Platform2_5/trunk/HAL/RN_RX200/IEC60335_B_libs/src/CPU/cpu_test.c" 1
 725 00da FD 6A 83                		MVFC BPSW, R3
 726                             	 ; 0 "" 2
 523:C:/Workspace/FW_Platform2_5/trunk/HAL/RN_RX200/IEC60335_B_libs/src/CPU\cpu_test.c **** 		__asm__ ("CMP R2,R3");		/*Compare with value written*/
 727                             		.loc 1 523 0
 728                             	 ; 523 "C:/Workspace/FW_Platform2_5/trunk/HAL/RN_RX200/IEC60335_B_libs/src/CPU/cpu_test.c" 1
 729 00dd 47 23                   		CMP R2,R3
 730                             	 ; 0 "" 2
 524:C:/Workspace/FW_Platform2_5/trunk/HAL/RN_RX200/IEC60335_B_libs/src/CPU\cpu_test.c **** 		__asm__ ("BNE LABEL_FAILED_Test_Control"); /*If not equall then branch to Failed label.*/
 731                             		.loc 1 524 0
 732                             	 ; 524 "C:/Workspace/FW_Platform2_5/trunk/HAL/RN_RX200/IEC60335_B_libs/src/CPU/cpu_test.c" 1
 733 00df 21 07                   		BNE LABEL_FAILED_Test_Control
 734                             	 ; 0 "" 2
 525:C:/Workspace/FW_Platform2_5/trunk/HAL/RN_RX200/IEC60335_B_libs/src/CPU\cpu_test.c **** 		
 526:C:/Workspace/FW_Platform2_5/trunk/HAL/RN_RX200/IEC60335_B_libs/src/CPU\cpu_test.c **** 		/*Restore original value*/
 527:C:/Workspace/FW_Platform2_5/trunk/HAL/RN_RX200/IEC60335_B_libs/src/CPU\cpu_test.c **** 		__asm__ ("MVTC R5, BPSW");
 735                             		.loc 1 527 0
 736                             	 ; 527 "C:/Workspace/FW_Platform2_5/trunk/HAL/RN_RX200/IEC60335_B_libs/src/CPU/cpu_test.c" 1
 737 00e1 FD 68 58                		MVTC R5, BPSW
 738                             	 ; 0 "" 2
 528:C:/Workspace/FW_Platform2_5/trunk/HAL/RN_RX200/IEC60335_B_libs/src/CPU\cpu_test.c **** 	/*** End Test BPSW ***/
 529:C:/Workspace/FW_Platform2_5/trunk/HAL/RN_RX200/IEC60335_B_libs/src/CPU\cpu_test.c **** 
 530:C:/Workspace/FW_Platform2_5/trunk/HAL/RN_RX200/IEC60335_B_libs/src/CPU\cpu_test.c **** /*The RX210 doesn't have a FPSW register*/	
 531:C:/Workspace/FW_Platform2_5/trunk/HAL/RN_RX200/IEC60335_B_libs/src/CPU\cpu_test.c **** #ifndef RX210
 532:C:/Workspace/FW_Platform2_5/trunk/HAL/RN_RX200/IEC60335_B_libs/src/CPU\cpu_test.c **** 	/*** Start Test FPSW ***/
 533:C:/Workspace/FW_Platform2_5/trunk/HAL/RN_RX200/IEC60335_B_libs/src/CPU\cpu_test.c **** 		/*Values to write to test registers.*/
 534:C:/Workspace/FW_Platform2_5/trunk/HAL/RN_RX200/IEC60335_B_libs/src/CPU\cpu_test.c **** 		/*Can't be h'55555555 and h'AAAAAAAA as not all bits are r/w.*/
 535:C:/Workspace/FW_Platform2_5/trunk/HAL/RN_RX200/IEC60335_B_libs/src/CPU\cpu_test.c **** 		__asm__ ("MOV.L #0540055FDh,R1"); /*Test Value 1, as close to h'55555555 as possible.*/
 536:C:/Workspace/FW_Platform2_5/trunk/HAL/RN_RX200/IEC60335_B_libs/src/CPU\cpu_test.c **** 		__asm__ ("MOV.L #0A80028FEh,R2"); /*Test Value 2, as close to h'AAAAAAAA as possible.*/
 537:C:/Workspace/FW_Platform2_5/trunk/HAL/RN_RX200/IEC60335_B_libs/src/CPU\cpu_test.c **** 		/*Also when reading this register must mask some bits before comparing with
 538:C:/Workspace/FW_Platform2_5/trunk/HAL/RN_RX200/IEC60335_B_libs/src/CPU\cpu_test.c **** 		the value written as we don't know the value the bits will read as.*/
 539:C:/Workspace/FW_Platform2_5/trunk/HAL/RN_RX200/IEC60335_B_libs/src/CPU\cpu_test.c **** 		__asm__ ("MOV.L #07FFFFF03h,R4"); /*Mask value (0 bits will not be ignored)*/
 540:C:/Workspace/FW_Platform2_5/trunk/HAL/RN_RX200/IEC60335_B_libs/src/CPU\cpu_test.c **** 		/*Set R14 with the value we expect to read after writing R1*/
 541:C:/Workspace/FW_Platform2_5/trunk/HAL/RN_RX200/IEC60335_B_libs/src/CPU\cpu_test.c **** 		__asm__ ("AND R1,R4,R14");
 542:C:/Workspace/FW_Platform2_5/trunk/HAL/RN_RX200/IEC60335_B_libs/src/CPU\cpu_test.c **** 		/*Set R15 with the value we expect to read after writing R2*/
 543:C:/Workspace/FW_Platform2_5/trunk/HAL/RN_RX200/IEC60335_B_libs/src/CPU\cpu_test.c **** 		__asm__ ("AND R2,R4,R15");
 544:C:/Workspace/FW_Platform2_5/trunk/HAL/RN_RX200/IEC60335_B_libs/src/CPU\cpu_test.c **** 		
 545:C:/Workspace/FW_Platform2_5/trunk/HAL/RN_RX200/IEC60335_B_libs/src/CPU\cpu_test.c **** 		/*Preseve register to be tested by saving to another register*/
 546:C:/Workspace/FW_Platform2_5/trunk/HAL/RN_RX200/IEC60335_B_libs/src/CPU\cpu_test.c **** 		__asm__ ("MVFC FPSW, R5");
 547:C:/Workspace/FW_Platform2_5/trunk/HAL/RN_RX200/IEC60335_B_libs/src/CPU\cpu_test.c **** 		
 548:C:/Workspace/FW_Platform2_5/trunk/HAL/RN_RX200/IEC60335_B_libs/src/CPU\cpu_test.c **** 		__asm__ ("MVTC R1, FPSW"); 	/*Write test value 1*/
 549:C:/Workspace/FW_Platform2_5/trunk/HAL/RN_RX200/IEC60335_B_libs/src/CPU\cpu_test.c **** 		__asm__ ("MVFC FPSW, R3	"); /*Read value back*/
 550:C:/Workspace/FW_Platform2_5/trunk/HAL/RN_RX200/IEC60335_B_libs/src/CPU\cpu_test.c **** 		__asm__ ("AND R4, R3");		/*Mask value read*/
 551:C:/Workspace/FW_Platform2_5/trunk/HAL/RN_RX200/IEC60335_B_libs/src/CPU\cpu_test.c **** 		__asm__ ("CMP R14,R3");		/*Compare with value expected*/
 552:C:/Workspace/FW_Platform2_5/trunk/HAL/RN_RX200/IEC60335_B_libs/src/CPU\cpu_test.c **** 		__asm__ ("BNE LABEL_FAILED_Test_Control"); /*If not equall then branch to Failed label.*/
 553:C:/Workspace/FW_Platform2_5/trunk/HAL/RN_RX200/IEC60335_B_libs/src/CPU\cpu_test.c **** 	
 554:C:/Workspace/FW_Platform2_5/trunk/HAL/RN_RX200/IEC60335_B_libs/src/CPU\cpu_test.c **** 		__asm__ ("MVTC R2, FPSW"); 	/*Write test value 2*/
 555:C:/Workspace/FW_Platform2_5/trunk/HAL/RN_RX200/IEC60335_B_libs/src/CPU\cpu_test.c **** 		__asm__ ("MVFC FPSW, R3");	/*Read value back*/
 556:C:/Workspace/FW_Platform2_5/trunk/HAL/RN_RX200/IEC60335_B_libs/src/CPU\cpu_test.c **** 		__asm__ ("AND R4, R3");		/*Mask value read*/
 557:C:/Workspace/FW_Platform2_5/trunk/HAL/RN_RX200/IEC60335_B_libs/src/CPU\cpu_test.c **** 		__asm__ ("CMP R15,R3");		/*Compare with value expected*/
 558:C:/Workspace/FW_Platform2_5/trunk/HAL/RN_RX200/IEC60335_B_libs/src/CPU\cpu_test.c **** 		__asm__ ("BNE LABEL_FAILED_Test_Control"); /*If not equall then branch to Failed label.*/
 559:C:/Workspace/FW_Platform2_5/trunk/HAL/RN_RX200/IEC60335_B_libs/src/CPU\cpu_test.c **** 		
 560:C:/Workspace/FW_Platform2_5/trunk/HAL/RN_RX200/IEC60335_B_libs/src/CPU\cpu_test.c **** 		/*Restore original value*/
 561:C:/Workspace/FW_Platform2_5/trunk/HAL/RN_RX200/IEC60335_B_libs/src/CPU\cpu_test.c **** 		__asm__ ("MVTC R5, FPSW");
 562:C:/Workspace/FW_Platform2_5/trunk/HAL/RN_RX200/IEC60335_B_libs/src/CPU\cpu_test.c **** 	/*** End Test FPSW ***/
 563:C:/Workspace/FW_Platform2_5/trunk/HAL/RN_RX200/IEC60335_B_libs/src/CPU\cpu_test.c **** #endif /*NOT RX210*/
 564:C:/Workspace/FW_Platform2_5/trunk/HAL/RN_RX200/IEC60335_B_libs/src/CPU\cpu_test.c **** 	
 565:C:/Workspace/FW_Platform2_5/trunk/HAL/RN_RX200/IEC60335_B_libs/src/CPU\cpu_test.c **** 	/*All Tests Passed - so skip the call to the error handler.*/
 566:C:/Workspace/FW_Platform2_5/trunk/HAL/RN_RX200/IEC60335_B_libs/src/CPU\cpu_test.c **** 	__asm__ ("BRA LABEL_PASSED_Test_Control");
 739                             		.loc 1 566 0
 740                             	 ; 566 "C:/Workspace/FW_Platform2_5/trunk/HAL/RN_RX200/IEC60335_B_libs/src/CPU/cpu_test.c" 1
 741 00e4 2E 06                   		BRA LABEL_PASSED_Test_Control
 742                             	 ; 0 "" 2
 567:C:/Workspace/FW_Platform2_5/trunk/HAL/RN_RX200/IEC60335_B_libs/src/CPU\cpu_test.c **** 	
 568:C:/Workspace/FW_Platform2_5/trunk/HAL/RN_RX200/IEC60335_B_libs/src/CPU\cpu_test.c **** 	__asm__ ("LABEL_FAILED_Test_Control:");
 743                             		.loc 1 568 0
 744                             	 ; 568 "C:/Workspace/FW_Platform2_5/trunk/HAL/RN_RX200/IEC60335_B_libs/src/CPU/cpu_test.c" 1
 745                             		LABEL_FAILED_Test_Control:
 746                             	 ; 0 "" 2
 569:C:/Workspace/FW_Platform2_5/trunk/HAL/RN_RX200/IEC60335_B_libs/src/CPU\cpu_test.c **** 	/*Test failed - branch to the Error handler subroutine*/
 570:C:/Workspace/FW_Platform2_5/trunk/HAL/RN_RX200/IEC60335_B_libs/src/CPU\cpu_test.c **** 	__asm__ ("BSR _CPU_Test_ErrorHandler");
 747                             		.loc 1 570 0
 748                             	 ; 570 "C:/Workspace/FW_Platform2_5/trunk/HAL/RN_RX200/IEC60335_B_libs/src/CPU/cpu_test.c" 1
 749 00e6 05 00 00 00             		BSR _CPU_Test_ErrorHandler
 750                             	 ; 0 "" 2
 571:C:/Workspace/FW_Platform2_5/trunk/HAL/RN_RX200/IEC60335_B_libs/src/CPU\cpu_test.c **** 
 572:C:/Workspace/FW_Platform2_5/trunk/HAL/RN_RX200/IEC60335_B_libs/src/CPU\cpu_test.c **** 	__asm__ ("LABEL_PASSED_Test_Control:");
 751                             		.loc 1 572 0
 752                             	 ; 572 "C:/Workspace/FW_Platform2_5/trunk/HAL/RN_RX200/IEC60335_B_libs/src/CPU/cpu_test.c" 1
 753                             		LABEL_PASSED_Test_Control:
 754                             	 ; 0 "" 2
 573:C:/Workspace/FW_Platform2_5/trunk/HAL/RN_RX200/IEC60335_B_libs/src/CPU\cpu_test.c **** 	/*Passed - return from this function.*/
 574:C:/Workspace/FW_Platform2_5/trunk/HAL/RN_RX200/IEC60335_B_libs/src/CPU\cpu_test.c **** 	
 575:C:/Workspace/FW_Platform2_5/trunk/HAL/RN_RX200/IEC60335_B_libs/src/CPU\cpu_test.c **** }
 755                             		.loc 1 575 0
 756 00ea 3F 66 01                		rtsd	#4, r6-r6
 757                             	.LFE3:
 759                             		.section	.text.CPU_Test_Accumulator,"ax",@progbits
 760                             		.global	_CPU_Test_Accumulator
 762                             	_CPU_Test_Accumulator:
 763                             	.LFB4:
 576:C:/Workspace/FW_Platform2_5/trunk/HAL/RN_RX200/IEC60335_B_libs/src/CPU\cpu_test.c **** 
 577:C:/Workspace/FW_Platform2_5/trunk/HAL/RN_RX200/IEC60335_B_libs/src/CPU\cpu_test.c **** /***********************************************************************************
 578:C:/Workspace/FW_Platform2_5/trunk/HAL/RN_RX200/IEC60335_B_libs/src/CPU\cpu_test.c **** Function Name : CPU_Test_Accumulator
 579:C:/Workspace/FW_Platform2_5/trunk/HAL/RN_RX200/IEC60335_B_libs/src/CPU\cpu_test.c **** Description   :	Test ACC register:
 580:C:/Workspace/FW_Platform2_5/trunk/HAL/RN_RX200/IEC60335_B_libs/src/CPU\cpu_test.c **** 
 581:C:/Workspace/FW_Platform2_5/trunk/HAL/RN_RX200/IEC60335_B_libs/src/CPU\cpu_test.c **** 				NOTE1: Bits 0-15 can not be read and are therefore not tested.
 582:C:/Workspace/FW_Platform2_5/trunk/HAL/RN_RX200/IEC60335_B_libs/src/CPU\cpu_test.c **** 							
 583:C:/Workspace/FW_Platform2_5/trunk/HAL/RN_RX200/IEC60335_B_libs/src/CPU\cpu_test.c **** 				The test procedure is as follows:
 584:C:/Workspace/FW_Platform2_5/trunk/HAL/RN_RX200/IEC60335_B_libs/src/CPU\cpu_test.c **** 				1. Write h'55555555 to high order 32 bits.
 585:C:/Workspace/FW_Platform2_5/trunk/HAL/RN_RX200/IEC60335_B_libs/src/CPU\cpu_test.c **** 				2. Write h'55555555 to low order 32 bits.
 586:C:/Workspace/FW_Platform2_5/trunk/HAL/RN_RX200/IEC60335_B_libs/src/CPU\cpu_test.c **** 				3. Read back high order and check value equals h'55555555.
 587:C:/Workspace/FW_Platform2_5/trunk/HAL/RN_RX200/IEC60335_B_libs/src/CPU\cpu_test.c **** 				4. Read back middle order(bits 47 to 16) and check value
 588:C:/Workspace/FW_Platform2_5/trunk/HAL/RN_RX200/IEC60335_B_libs/src/CPU\cpu_test.c **** 						equals h'55555555.	
 589:C:/Workspace/FW_Platform2_5/trunk/HAL/RN_RX200/IEC60335_B_libs/src/CPU\cpu_test.c **** 				5. Write h'AAAAAAAA to high order 32 bits.
 590:C:/Workspace/FW_Platform2_5/trunk/HAL/RN_RX200/IEC60335_B_libs/src/CPU\cpu_test.c **** 				6. Write h'AAAAAAAA to low order 32 bits.
 591:C:/Workspace/FW_Platform2_5/trunk/HAL/RN_RX200/IEC60335_B_libs/src/CPU\cpu_test.c **** 				7. Read back high order and check value equals h'AAAAAAAA.
 592:C:/Workspace/FW_Platform2_5/trunk/HAL/RN_RX200/IEC60335_B_libs/src/CPU\cpu_test.c **** 				8. Read back middle order(bits 47 to 16) and check value
 593:C:/Workspace/FW_Platform2_5/trunk/HAL/RN_RX200/IEC60335_B_libs/src/CPU\cpu_test.c **** 						 equals h'AAAAAAAA.
 594:C:/Workspace/FW_Platform2_5/trunk/HAL/RN_RX200/IEC60335_B_libs/src/CPU\cpu_test.c **** 				
 595:C:/Workspace/FW_Platform2_5/trunk/HAL/RN_RX200/IEC60335_B_libs/src/CPU\cpu_test.c **** 				This test assumes registers R1 to R5 are working.
 596:C:/Workspace/FW_Platform2_5/trunk/HAL/RN_RX200/IEC60335_B_libs/src/CPU\cpu_test.c **** 				
 597:C:/Workspace/FW_Platform2_5/trunk/HAL/RN_RX200/IEC60335_B_libs/src/CPU\cpu_test.c **** 				If an error is detected then external function
 598:C:/Workspace/FW_Platform2_5/trunk/HAL/RN_RX200/IEC60335_B_libs/src/CPU\cpu_test.c **** 				CPU_Test_ErrorHandler will be called.
 599:C:/Workspace/FW_Platform2_5/trunk/HAL/RN_RX200/IEC60335_B_libs/src/CPU\cpu_test.c **** 				
 600:C:/Workspace/FW_Platform2_5/trunk/HAL/RN_RX200/IEC60335_B_libs/src/CPU\cpu_test.c **** Parameters    : none				
 601:C:/Workspace/FW_Platform2_5/trunk/HAL/RN_RX200/IEC60335_B_libs/src/CPU\cpu_test.c **** Return Value  : void
 602:C:/Workspace/FW_Platform2_5/trunk/HAL/RN_RX200/IEC60335_B_libs/src/CPU\cpu_test.c **** ***********************************************************************************/
 603:C:/Workspace/FW_Platform2_5/trunk/HAL/RN_RX200/IEC60335_B_libs/src/CPU\cpu_test.c **** void CPU_Test_Accumulator(void)
 604:C:/Workspace/FW_Platform2_5/trunk/HAL/RN_RX200/IEC60335_B_libs/src/CPU\cpu_test.c **** {
 764                             		.loc 1 604 0
 765 0000 7E A6                   		push.l	r6
 766                             	.LCFI6:
 767 0002 EF 06                   		mov.L	r0, r6
 768                             	.LCFI7:
 605:C:/Workspace/FW_Platform2_5/trunk/HAL/RN_RX200/IEC60335_B_libs/src/CPU\cpu_test.c **** 	/*Note ACC is a 64 bit register.
 606:C:/Workspace/FW_Platform2_5/trunk/HAL/RN_RX200/IEC60335_B_libs/src/CPU\cpu_test.c **** 	It is read and written to using two 32bit accesses.*/
 607:C:/Workspace/FW_Platform2_5/trunk/HAL/RN_RX200/IEC60335_B_libs/src/CPU\cpu_test.c **** 	
 608:C:/Workspace/FW_Platform2_5/trunk/HAL/RN_RX200/IEC60335_B_libs/src/CPU\cpu_test.c **** 	/*Preseve register to be tested by saving to other registers*/
 609:C:/Workspace/FW_Platform2_5/trunk/HAL/RN_RX200/IEC60335_B_libs/src/CPU\cpu_test.c **** 	__asm__ ("MVFACHI R14"); /*High order*/
 769                             		.loc 1 609 0
 770                             	 ; 609 "C:/Workspace/FW_Platform2_5/trunk/HAL/RN_RX200/IEC60335_B_libs/src/CPU/cpu_test.c" 1
 771 0004 FD 1F 0E                		MVFACHI R14
 772                             	 ; 0 "" 2
 610:C:/Workspace/FW_Platform2_5/trunk/HAL/RN_RX200/IEC60335_B_libs/src/CPU\cpu_test.c **** 	__asm__ ("MVFACMI R15"); /*Middle order*/
 773                             		.loc 1 610 0
 774                             	 ; 610 "C:/Workspace/FW_Platform2_5/trunk/HAL/RN_RX200/IEC60335_B_libs/src/CPU/cpu_test.c" 1
 775 0007 FD 1F 2F                		MVFACMI R15
 776                             	 ; 0 "" 2
 611:C:/Workspace/FW_Platform2_5/trunk/HAL/RN_RX200/IEC60335_B_libs/src/CPU\cpu_test.c **** 	
 612:C:/Workspace/FW_Platform2_5/trunk/HAL/RN_RX200/IEC60335_B_libs/src/CPU\cpu_test.c **** 	/*Values to write to test registers*/
 613:C:/Workspace/FW_Platform2_5/trunk/HAL/RN_RX200/IEC60335_B_libs/src/CPU\cpu_test.c **** 	__asm__ ("MOV.L #055555555h,R1"); /*Test Value 1*/
 777                             		.loc 1 613 0
 778                             	 ; 613 "C:/Workspace/FW_Platform2_5/trunk/HAL/RN_RX200/IEC60335_B_libs/src/CPU/cpu_test.c" 1
 779 000a FB 12 55 55 55 55       		MOV.L #055555555h,R1
 780                             	 ; 0 "" 2
 614:C:/Workspace/FW_Platform2_5/trunk/HAL/RN_RX200/IEC60335_B_libs/src/CPU\cpu_test.c **** 	__asm__ ("MOV.L #0AAAAAAAAh,R2"); /*Test Value 2*/
 781                             		.loc 1 614 0
 782                             	 ; 614 "C:/Workspace/FW_Platform2_5/trunk/HAL/RN_RX200/IEC60335_B_libs/src/CPU/cpu_test.c" 1
 783 0010 FB 22 AA AA AA AA       		MOV.L #0AAAAAAAAh,R2
 784                             	 ; 0 "" 2
 615:C:/Workspace/FW_Platform2_5/trunk/HAL/RN_RX200/IEC60335_B_libs/src/CPU\cpu_test.c **** 	
 616:C:/Workspace/FW_Platform2_5/trunk/HAL/RN_RX200/IEC60335_B_libs/src/CPU\cpu_test.c **** 	/*Write test value 1*/
 617:C:/Workspace/FW_Platform2_5/trunk/HAL/RN_RX200/IEC60335_B_libs/src/CPU\cpu_test.c **** 	__asm__ ("MVTACHI R1"); /*High order*/
 785                             		.loc 1 617 0
 786                             	 ; 617 "C:/Workspace/FW_Platform2_5/trunk/HAL/RN_RX200/IEC60335_B_libs/src/CPU/cpu_test.c" 1
 787 0016 FD 17 01                		MVTACHI R1
 788                             	 ; 0 "" 2
 618:C:/Workspace/FW_Platform2_5/trunk/HAL/RN_RX200/IEC60335_B_libs/src/CPU\cpu_test.c **** 	__asm__ ("MVTACLO R1"); /*Low order*/
 789                             		.loc 1 618 0
 790                             	 ; 618 "C:/Workspace/FW_Platform2_5/trunk/HAL/RN_RX200/IEC60335_B_libs/src/CPU/cpu_test.c" 1
 791 0019 FD 17 11                		MVTACLO R1
 792                             	 ; 0 "" 2
 619:C:/Workspace/FW_Platform2_5/trunk/HAL/RN_RX200/IEC60335_B_libs/src/CPU\cpu_test.c **** 	
 620:C:/Workspace/FW_Platform2_5/trunk/HAL/RN_RX200/IEC60335_B_libs/src/CPU\cpu_test.c **** 	/*Read value back*/
 621:C:/Workspace/FW_Platform2_5/trunk/HAL/RN_RX200/IEC60335_B_libs/src/CPU\cpu_test.c **** 	__asm__ ("MVFACHI R3"); /*High order*/
 793                             		.loc 1 621 0
 794                             	 ; 621 "C:/Workspace/FW_Platform2_5/trunk/HAL/RN_RX200/IEC60335_B_libs/src/CPU/cpu_test.c" 1
 795 001c FD 1F 03                		MVFACHI R3
 796                             	 ; 0 "" 2
 622:C:/Workspace/FW_Platform2_5/trunk/HAL/RN_RX200/IEC60335_B_libs/src/CPU\cpu_test.c **** 	__asm__ ("MVFACMI R4"); /*Middle order*/
 797                             		.loc 1 622 0
 798                             	 ; 622 "C:/Workspace/FW_Platform2_5/trunk/HAL/RN_RX200/IEC60335_B_libs/src/CPU/cpu_test.c" 1
 799 001f FD 1F 24                		MVFACMI R4
 800                             	 ; 0 "" 2
 623:C:/Workspace/FW_Platform2_5/trunk/HAL/RN_RX200/IEC60335_B_libs/src/CPU\cpu_test.c **** 		
 624:C:/Workspace/FW_Platform2_5/trunk/HAL/RN_RX200/IEC60335_B_libs/src/CPU\cpu_test.c **** 	/*Compare with value expected*/	
 625:C:/Workspace/FW_Platform2_5/trunk/HAL/RN_RX200/IEC60335_B_libs/src/CPU\cpu_test.c **** 	__asm__ ("CMP R1,R3");
 801                             		.loc 1 625 0
 802                             	 ; 625 "C:/Workspace/FW_Platform2_5/trunk/HAL/RN_RX200/IEC60335_B_libs/src/CPU/cpu_test.c" 1
 803 0022 47 13                   		CMP R1,R3
 804                             	 ; 0 "" 2
 626:C:/Workspace/FW_Platform2_5/trunk/HAL/RN_RX200/IEC60335_B_libs/src/CPU\cpu_test.c **** 	/*If not equall then branch to Failed label.*/		
 627:C:/Workspace/FW_Platform2_5/trunk/HAL/RN_RX200/IEC60335_B_libs/src/CPU\cpu_test.c **** 	__asm__ ("BNE LABEL_FAILED_Test_Accumulator");
 805                             		.loc 1 627 0
 806                             	 ; 627 "C:/Workspace/FW_Platform2_5/trunk/HAL/RN_RX200/IEC60335_B_libs/src/CPU/cpu_test.c" 1
 807 0024 21 24                   		BNE LABEL_FAILED_Test_Accumulator
 808                             	 ; 0 "" 2
 628:C:/Workspace/FW_Platform2_5/trunk/HAL/RN_RX200/IEC60335_B_libs/src/CPU\cpu_test.c **** 	/*Compare with value expected*/	
 629:C:/Workspace/FW_Platform2_5/trunk/HAL/RN_RX200/IEC60335_B_libs/src/CPU\cpu_test.c **** 	__asm__ ("CMP R1,R4");
 809                             		.loc 1 629 0
 810                             	 ; 629 "C:/Workspace/FW_Platform2_5/trunk/HAL/RN_RX200/IEC60335_B_libs/src/CPU/cpu_test.c" 1
 811 0026 47 14                   		CMP R1,R4
 812                             	 ; 0 "" 2
 630:C:/Workspace/FW_Platform2_5/trunk/HAL/RN_RX200/IEC60335_B_libs/src/CPU\cpu_test.c **** 	/*If not equall then branch to Failed label.*/		
 631:C:/Workspace/FW_Platform2_5/trunk/HAL/RN_RX200/IEC60335_B_libs/src/CPU\cpu_test.c **** 	__asm__ ("BNE LABEL_FAILED_Test_Accumulator");
 813                             		.loc 1 631 0
 814                             	 ; 631 "C:/Workspace/FW_Platform2_5/trunk/HAL/RN_RX200/IEC60335_B_libs/src/CPU/cpu_test.c" 1
 815 0028 21 20                   		BNE LABEL_FAILED_Test_Accumulator
 816                             	 ; 0 "" 2
 632:C:/Workspace/FW_Platform2_5/trunk/HAL/RN_RX200/IEC60335_B_libs/src/CPU\cpu_test.c **** 	
 633:C:/Workspace/FW_Platform2_5/trunk/HAL/RN_RX200/IEC60335_B_libs/src/CPU\cpu_test.c **** 	
 634:C:/Workspace/FW_Platform2_5/trunk/HAL/RN_RX200/IEC60335_B_libs/src/CPU\cpu_test.c **** 	/*Write test value 2*/
 635:C:/Workspace/FW_Platform2_5/trunk/HAL/RN_RX200/IEC60335_B_libs/src/CPU\cpu_test.c **** 	__asm__ ("MVTACHI R2"); /*High order*/
 817                             		.loc 1 635 0
 818                             	 ; 635 "C:/Workspace/FW_Platform2_5/trunk/HAL/RN_RX200/IEC60335_B_libs/src/CPU/cpu_test.c" 1
 819 002a FD 17 02                		MVTACHI R2
 820                             	 ; 0 "" 2
 636:C:/Workspace/FW_Platform2_5/trunk/HAL/RN_RX200/IEC60335_B_libs/src/CPU\cpu_test.c **** 	__asm__ ("MVTACLO R2"); /*Low order*/
 821                             		.loc 1 636 0
 822                             	 ; 636 "C:/Workspace/FW_Platform2_5/trunk/HAL/RN_RX200/IEC60335_B_libs/src/CPU/cpu_test.c" 1
 823 002d FD 17 12                		MVTACLO R2
 824                             	 ; 0 "" 2
 637:C:/Workspace/FW_Platform2_5/trunk/HAL/RN_RX200/IEC60335_B_libs/src/CPU\cpu_test.c **** 	
 638:C:/Workspace/FW_Platform2_5/trunk/HAL/RN_RX200/IEC60335_B_libs/src/CPU\cpu_test.c **** 	/*Read value back*/
 639:C:/Workspace/FW_Platform2_5/trunk/HAL/RN_RX200/IEC60335_B_libs/src/CPU\cpu_test.c **** 	__asm__ ("MVFACHI R3"); /*High order*/
 825                             		.loc 1 639 0
 826                             	 ; 639 "C:/Workspace/FW_Platform2_5/trunk/HAL/RN_RX200/IEC60335_B_libs/src/CPU/cpu_test.c" 1
 827 0030 FD 1F 03                		MVFACHI R3
 828                             	 ; 0 "" 2
 640:C:/Workspace/FW_Platform2_5/trunk/HAL/RN_RX200/IEC60335_B_libs/src/CPU\cpu_test.c **** 	__asm__ ("MVFACMI R4"); /*Middle order*/
 829                             		.loc 1 640 0
 830                             	 ; 640 "C:/Workspace/FW_Platform2_5/trunk/HAL/RN_RX200/IEC60335_B_libs/src/CPU/cpu_test.c" 1
 831 0033 FD 1F 24                		MVFACMI R4
 832                             	 ; 0 "" 2
 641:C:/Workspace/FW_Platform2_5/trunk/HAL/RN_RX200/IEC60335_B_libs/src/CPU\cpu_test.c **** 	
 642:C:/Workspace/FW_Platform2_5/trunk/HAL/RN_RX200/IEC60335_B_libs/src/CPU\cpu_test.c **** 	/*Compare with value expected*/	
 643:C:/Workspace/FW_Platform2_5/trunk/HAL/RN_RX200/IEC60335_B_libs/src/CPU\cpu_test.c **** 	__asm__ ("CMP R2,R3");
 833                             		.loc 1 643 0
 834                             	 ; 643 "C:/Workspace/FW_Platform2_5/trunk/HAL/RN_RX200/IEC60335_B_libs/src/CPU/cpu_test.c" 1
 835 0036 47 23                   		CMP R2,R3
 836                             	 ; 0 "" 2
 644:C:/Workspace/FW_Platform2_5/trunk/HAL/RN_RX200/IEC60335_B_libs/src/CPU\cpu_test.c **** 	/*If not equall then branch to Failed label.*/		
 645:C:/Workspace/FW_Platform2_5/trunk/HAL/RN_RX200/IEC60335_B_libs/src/CPU\cpu_test.c **** 	__asm__ ("BNE LABEL_FAILED_Test_Accumulator");
 837                             		.loc 1 645 0
 838                             	 ; 645 "C:/Workspace/FW_Platform2_5/trunk/HAL/RN_RX200/IEC60335_B_libs/src/CPU/cpu_test.c" 1
 839 0038 21 10                   		BNE LABEL_FAILED_Test_Accumulator
 840                             	 ; 0 "" 2
 646:C:/Workspace/FW_Platform2_5/trunk/HAL/RN_RX200/IEC60335_B_libs/src/CPU\cpu_test.c **** 	/*Compare with value expected*/	
 647:C:/Workspace/FW_Platform2_5/trunk/HAL/RN_RX200/IEC60335_B_libs/src/CPU\cpu_test.c **** 	__asm__ ("CMP R2,R4");
 841                             		.loc 1 647 0
 842                             	 ; 647 "C:/Workspace/FW_Platform2_5/trunk/HAL/RN_RX200/IEC60335_B_libs/src/CPU/cpu_test.c" 1
 843 003a 47 24                   		CMP R2,R4
 844                             	 ; 0 "" 2
 648:C:/Workspace/FW_Platform2_5/trunk/HAL/RN_RX200/IEC60335_B_libs/src/CPU\cpu_test.c **** 	/*If not equall then branch to Failed label.*/		
 649:C:/Workspace/FW_Platform2_5/trunk/HAL/RN_RX200/IEC60335_B_libs/src/CPU\cpu_test.c **** 	__asm__ ("BNE LABEL_FAILED_Test_Accumulator");
 845                             		.loc 1 649 0
 846                             	 ; 649 "C:/Workspace/FW_Platform2_5/trunk/HAL/RN_RX200/IEC60335_B_libs/src/CPU/cpu_test.c" 1
 847 003c 21 0C                   		BNE LABEL_FAILED_Test_Accumulator
 848                             	 ; 0 "" 2
 650:C:/Workspace/FW_Platform2_5/trunk/HAL/RN_RX200/IEC60335_B_libs/src/CPU\cpu_test.c **** 	
 651:C:/Workspace/FW_Platform2_5/trunk/HAL/RN_RX200/IEC60335_B_libs/src/CPU\cpu_test.c **** 	/*Restore register*/
 652:C:/Workspace/FW_Platform2_5/trunk/HAL/RN_RX200/IEC60335_B_libs/src/CPU\cpu_test.c **** 	__asm__ ("MVTACHI R14"); /*High order*/
 849                             		.loc 1 652 0
 850                             	 ; 652 "C:/Workspace/FW_Platform2_5/trunk/HAL/RN_RX200/IEC60335_B_libs/src/CPU/cpu_test.c" 1
 851 003e FD 17 0E                		MVTACHI R14
 852                             	 ; 0 "" 2
 653:C:/Workspace/FW_Platform2_5/trunk/HAL/RN_RX200/IEC60335_B_libs/src/CPU\cpu_test.c **** 	/*R15 contains middle order - so shift left 16 bits as have to write to low order.*/
 654:C:/Workspace/FW_Platform2_5/trunk/HAL/RN_RX200/IEC60335_B_libs/src/CPU\cpu_test.c **** 	/*NOTE: It us safe to always set b0-b15 to zero.*/
 655:C:/Workspace/FW_Platform2_5/trunk/HAL/RN_RX200/IEC60335_B_libs/src/CPU\cpu_test.c **** 	__asm__ ("SHLL #16, R15");
 853                             		.loc 1 655 0
 854                             	 ; 655 "C:/Workspace/FW_Platform2_5/trunk/HAL/RN_RX200/IEC60335_B_libs/src/CPU/cpu_test.c" 1
 855 0041 6D 0F                   		SHLL #16, R15
 856                             	 ; 0 "" 2
 656:C:/Workspace/FW_Platform2_5/trunk/HAL/RN_RX200/IEC60335_B_libs/src/CPU\cpu_test.c **** 	__asm__ ("MVTACLO R15"); /*Low order*/
 857                             		.loc 1 656 0
 858                             	 ; 656 "C:/Workspace/FW_Platform2_5/trunk/HAL/RN_RX200/IEC60335_B_libs/src/CPU/cpu_test.c" 1
 859 0043 FD 17 1F                		MVTACLO R15
 860                             	 ; 0 "" 2
 657:C:/Workspace/FW_Platform2_5/trunk/HAL/RN_RX200/IEC60335_B_libs/src/CPU\cpu_test.c **** 	
 658:C:/Workspace/FW_Platform2_5/trunk/HAL/RN_RX200/IEC60335_B_libs/src/CPU\cpu_test.c **** 	/*All Tests Passed - so skip the call to the error handler.*/
 659:C:/Workspace/FW_Platform2_5/trunk/HAL/RN_RX200/IEC60335_B_libs/src/CPU\cpu_test.c **** 	__asm__ ("BRA LABEL_PASSED_Test_Accumulator");
 861                             		.loc 1 659 0
 862                             	 ; 659 "C:/Workspace/FW_Platform2_5/trunk/HAL/RN_RX200/IEC60335_B_libs/src/CPU/cpu_test.c" 1
 863 0046 2E 06                   		BRA LABEL_PASSED_Test_Accumulator
 864                             	 ; 0 "" 2
 660:C:/Workspace/FW_Platform2_5/trunk/HAL/RN_RX200/IEC60335_B_libs/src/CPU\cpu_test.c **** 	
 661:C:/Workspace/FW_Platform2_5/trunk/HAL/RN_RX200/IEC60335_B_libs/src/CPU\cpu_test.c **** 	__asm__ ("LABEL_FAILED_Test_Accumulator:");
 865                             		.loc 1 661 0
 866                             	 ; 661 "C:/Workspace/FW_Platform2_5/trunk/HAL/RN_RX200/IEC60335_B_libs/src/CPU/cpu_test.c" 1
 867                             		LABEL_FAILED_Test_Accumulator:
 868                             	 ; 0 "" 2
 662:C:/Workspace/FW_Platform2_5/trunk/HAL/RN_RX200/IEC60335_B_libs/src/CPU\cpu_test.c **** 	/*Test failed - branch to the Error handler subroutine*/
 663:C:/Workspace/FW_Platform2_5/trunk/HAL/RN_RX200/IEC60335_B_libs/src/CPU\cpu_test.c **** 	__asm__ ("BSR _CPU_Test_ErrorHandler");
 869                             		.loc 1 663 0
 870                             	 ; 663 "C:/Workspace/FW_Platform2_5/trunk/HAL/RN_RX200/IEC60335_B_libs/src/CPU/cpu_test.c" 1
 871 0048 05 00 00 00             		BSR _CPU_Test_ErrorHandler
 872                             	 ; 0 "" 2
 664:C:/Workspace/FW_Platform2_5/trunk/HAL/RN_RX200/IEC60335_B_libs/src/CPU\cpu_test.c **** 
 665:C:/Workspace/FW_Platform2_5/trunk/HAL/RN_RX200/IEC60335_B_libs/src/CPU\cpu_test.c **** 	__asm__ ("LABEL_PASSED_Test_Accumulator:");
 873                             		.loc 1 665 0
 874                             	 ; 665 "C:/Workspace/FW_Platform2_5/trunk/HAL/RN_RX200/IEC60335_B_libs/src/CPU/cpu_test.c" 1
 875                             		LABEL_PASSED_Test_Accumulator:
 876                             	 ; 0 "" 2
 666:C:/Workspace/FW_Platform2_5/trunk/HAL/RN_RX200/IEC60335_B_libs/src/CPU\cpu_test.c **** 	/*Passed - return from this function.*/
 667:C:/Workspace/FW_Platform2_5/trunk/HAL/RN_RX200/IEC60335_B_libs/src/CPU\cpu_test.c **** }
 877                             		.loc 1 667 0
 878 004c 3F 66 01                		rtsd	#4, r6-r6
 879                             	.LFE4:
 881                             		.section	.PCTEST_TESTFUNCTION,"ax",@progbits
 883                             	_TestPC_TestFunction:
 884                             	.LFB6:
 668:C:/Workspace/FW_Platform2_5/trunk/HAL/RN_RX200/IEC60335_B_libs/src/CPU\cpu_test.c **** 
 669:C:/Workspace/FW_Platform2_5/trunk/HAL/RN_RX200/IEC60335_B_libs/src/CPU\cpu_test.c **** /***********************************************************************************
 670:C:/Workspace/FW_Platform2_5/trunk/HAL/RN_RX200/IEC60335_B_libs/src/CPU\cpu_test.c **** Function Name : CPU_Test_PC
 671:C:/Workspace/FW_Platform2_5/trunk/HAL/RN_RX200/IEC60335_B_libs/src/CPU\cpu_test.c **** Description   :	Program Counter (PC) register test.
 672:C:/Workspace/FW_Platform2_5/trunk/HAL/RN_RX200/IEC60335_B_libs/src/CPU\cpu_test.c **** 				This provides a confidence check that the PC is working.
 673:C:/Workspace/FW_Platform2_5/trunk/HAL/RN_RX200/IEC60335_B_libs/src/CPU\cpu_test.c **** 				This tests that the PC is working by calling a function.
 674:C:/Workspace/FW_Platform2_5/trunk/HAL/RN_RX200/IEC60335_B_libs/src/CPU\cpu_test.c **** 				The function is located in its own section so that it can
 675:C:/Workspace/FW_Platform2_5/trunk/HAL/RN_RX200/IEC60335_B_libs/src/CPU\cpu_test.c **** 				be located away from this function - so that when it is called
 676:C:/Workspace/FW_Platform2_5/trunk/HAL/RN_RX200/IEC60335_B_libs/src/CPU\cpu_test.c **** 				more of the PC Register bits are required for it to work.
 677:C:/Workspace/FW_Platform2_5/trunk/HAL/RN_RX200/IEC60335_B_libs/src/CPU\cpu_test.c **** 				So that this function can be sure that the function
 678:C:/Workspace/FW_Platform2_5/trunk/HAL/RN_RX200/IEC60335_B_libs/src/CPU\cpu_test.c **** 				has actually been executed it returns the inverse of
 679:C:/Workspace/FW_Platform2_5/trunk/HAL/RN_RX200/IEC60335_B_libs/src/CPU\cpu_test.c **** 				the supplied parameter.
 680:C:/Workspace/FW_Platform2_5/trunk/HAL/RN_RX200/IEC60335_B_libs/src/CPU\cpu_test.c **** 				
 681:C:/Workspace/FW_Platform2_5/trunk/HAL/RN_RX200/IEC60335_B_libs/src/CPU\cpu_test.c **** Parameters    : none
 682:C:/Workspace/FW_Platform2_5/trunk/HAL/RN_RX200/IEC60335_B_libs/src/CPU\cpu_test.c **** Return value  : void
 683:C:/Workspace/FW_Platform2_5/trunk/HAL/RN_RX200/IEC60335_B_libs/src/CPU\cpu_test.c **** ***********************************************************************************/
 684:C:/Workspace/FW_Platform2_5/trunk/HAL/RN_RX200/IEC60335_B_libs/src/CPU\cpu_test.c **** void CPU_Test_PC(void)
 685:C:/Workspace/FW_Platform2_5/trunk/HAL/RN_RX200/IEC60335_B_libs/src/CPU\cpu_test.c **** {	
 686:C:/Workspace/FW_Platform2_5/trunk/HAL/RN_RX200/IEC60335_B_libs/src/CPU\cpu_test.c **** 	uint32_t ui32value = 0xAAAAAAAAUL;
 687:C:/Workspace/FW_Platform2_5/trunk/HAL/RN_RX200/IEC60335_B_libs/src/CPU\cpu_test.c **** 	if(~ui32value != TestPC_TestFunction(ui32value))
 688:C:/Workspace/FW_Platform2_5/trunk/HAL/RN_RX200/IEC60335_B_libs/src/CPU\cpu_test.c **** 	{
 689:C:/Workspace/FW_Platform2_5/trunk/HAL/RN_RX200/IEC60335_B_libs/src/CPU\cpu_test.c **** 		CPU_Test_ErrorHandler();
 690:C:/Workspace/FW_Platform2_5/trunk/HAL/RN_RX200/IEC60335_B_libs/src/CPU\cpu_test.c **** 	}
 691:C:/Workspace/FW_Platform2_5/trunk/HAL/RN_RX200/IEC60335_B_libs/src/CPU\cpu_test.c **** }
 692:C:/Workspace/FW_Platform2_5/trunk/HAL/RN_RX200/IEC60335_B_libs/src/CPU\cpu_test.c **** 
 693:C:/Workspace/FW_Platform2_5/trunk/HAL/RN_RX200/IEC60335_B_libs/src/CPU\cpu_test.c **** /***********************************************************************************
 694:C:/Workspace/FW_Platform2_5/trunk/HAL/RN_RX200/IEC60335_B_libs/src/CPU\cpu_test.c **** Function Name : TestPC_TestFunction
 695:C:/Workspace/FW_Platform2_5/trunk/HAL/RN_RX200/IEC60335_B_libs/src/CPU\cpu_test.c **** Description   :	This function is called as part of the PC Test routine.
 696:C:/Workspace/FW_Platform2_5/trunk/HAL/RN_RX200/IEC60335_B_libs/src/CPU\cpu_test.c **** 				It is located in its own section so that it can be located
 697:C:/Workspace/FW_Platform2_5/trunk/HAL/RN_RX200/IEC60335_B_libs/src/CPU\cpu_test.c **** 				away from the PC Test routine - so that when it is called
 698:C:/Workspace/FW_Platform2_5/trunk/HAL/RN_RX200/IEC60335_B_libs/src/CPU\cpu_test.c **** 				more of the PC Register bits are required for it to work.
 699:C:/Workspace/FW_Platform2_5/trunk/HAL/RN_RX200/IEC60335_B_libs/src/CPU\cpu_test.c **** 				So that the PC Test routine is confident that this function
 700:C:/Workspace/FW_Platform2_5/trunk/HAL/RN_RX200/IEC60335_B_libs/src/CPU\cpu_test.c **** 				has actually been executed it returns the inverse of
 701:C:/Workspace/FW_Platform2_5/trunk/HAL/RN_RX200/IEC60335_B_libs/src/CPU\cpu_test.c **** 				the supplied parameter.
 702:C:/Workspace/FW_Platform2_5/trunk/HAL/RN_RX200/IEC60335_B_libs/src/CPU\cpu_test.c **** Parameters    : uint32_t ui32Value - value to be inversed.
 703:C:/Workspace/FW_Platform2_5/trunk/HAL/RN_RX200/IEC60335_B_libs/src/CPU\cpu_test.c **** Return value  : Inverse of ui32Value.
 704:C:/Workspace/FW_Platform2_5/trunk/HAL/RN_RX200/IEC60335_B_libs/src/CPU\cpu_test.c **** ***********************************************************************************/
 705:C:/Workspace/FW_Platform2_5/trunk/HAL/RN_RX200/IEC60335_B_libs/src/CPU\cpu_test.c **** static uint32_t TestPC_TestFunction(uint32_t ui32Value)
 706:C:/Workspace/FW_Platform2_5/trunk/HAL/RN_RX200/IEC60335_B_libs/src/CPU\cpu_test.c **** {
 885                             		.loc 1 706 0
 886                             	.LVL0:
 887 0000 7E AA                   		push.l	r10
 888                             	.LCFI8:
 889 0002 7E A6                   		push.l	r6
 890                             	.LCFI9:
 891 0004 71 06 FC                		add	#-4, r0, r6
 892                             	.LCFI10:
 893 0007 EF 60                   		mov.L	r6, r0
 894                             	.LCFI11:
 895 0009 E3 61                   		mov.L	r1, [r6]
 707:C:/Workspace/FW_Platform2_5/trunk/HAL/RN_RX200/IEC60335_B_libs/src/CPU\cpu_test.c **** 	ui32Value = (~ui32Value);
 896                             		.loc 1 707 0
 897 000b EC 6A                   		mov.L	[r6], r10
 898 000d 7E 0A                   		not	r10
 899 000f E3 6A                   		mov.L	r10, [r6]
 900                             	.LVL1:
 708:C:/Workspace/FW_Platform2_5/trunk/HAL/RN_RX200/IEC60335_B_libs/src/CPU\cpu_test.c **** 	return ui32Value;
 901                             		.loc 1 708 0
 902 0011 EC 6A                   		mov.L	[r6], r10
 709:C:/Workspace/FW_Platform2_5/trunk/HAL/RN_RX200/IEC60335_B_libs/src/CPU\cpu_test.c **** }
 903                             		.loc 1 709 0
 904 0013 EF A1                   		mov.L	r10, r1
 905 0015 62 40                   		add	#4, r0
 906 0017 7E B6                   		pop	r6
 907 0019 7E BA                   		pop	r10
 908                             	.LVL2:
 909 001b 02                      		rts
 910                             	.LFE6:
 912                             		.section	.text.CPU_Test_PC,"ax",@progbits
 913                             		.global	_CPU_Test_PC
 915                             	_CPU_Test_PC:
 916                             	.LFB5:
 685:C:/Workspace/FW_Platform2_5/trunk/HAL/RN_RX200/IEC60335_B_libs/src/CPU\cpu_test.c **** {	
 917                             		.loc 1 685 0
 918 0000 6E 6B                   		pushm	r6-r11
 919                             	.LCFI12:
 920 0002 71 06 FC                		add	#-4, r0, r6
 921                             	.LCFI13:
 922 0005 EF 60                   		mov.L	r6, r0
 923                             	.LCFI14:
 686:C:/Workspace/FW_Platform2_5/trunk/HAL/RN_RX200/IEC60335_B_libs/src/CPU\cpu_test.c **** 	uint32_t ui32value = 0xAAAAAAAAUL;
 924                             		.loc 1 686 0
 925 0007 F8 62 AA AA AA AA       		mov.L	#0xaaaaaaaa, [r6]
 926                             	.LVL3:
 687:C:/Workspace/FW_Platform2_5/trunk/HAL/RN_RX200/IEC60335_B_libs/src/CPU\cpu_test.c **** 	if(~ui32value != TestPC_TestFunction(ui32value))
 927                             		.loc 1 687 0
 928 000d EC 6A                   		mov.L	[r6], r10
 929 000f FC 3B AB                		not	r10, r11
 930 0012 EC 61                   		mov.L	[r6], r1
 931 0014 05 00 00 00             		bsr	_TestPC_TestFunction
 932                             	.LVL4:
 933 0018 EF 1A                   		mov.L	r1, r10
 934 001a 47 AB                   		cmp	r10, r11
 935 001c 20 06                   		beq	.L7
 689:C:/Workspace/FW_Platform2_5/trunk/HAL/RN_RX200/IEC60335_B_libs/src/CPU\cpu_test.c **** 		CPU_Test_ErrorHandler();
 936                             		.loc 1 689 0
 937 001e 05 00 00 00             		bsr	_CPU_Test_ErrorHandler
 938                             	.LVL5:
 939                             		.balign 2,3,2
 940                             	.L7:
 691:C:/Workspace/FW_Platform2_5/trunk/HAL/RN_RX200/IEC60335_B_libs/src/CPU\cpu_test.c **** }
 941                             		.loc 1 691 0
 942 0022 3F 6B 07                		rtsd	#28, r6-r11
 943                             	.LFE5:
 945 0025 03                      		.section	.text.CPU_Test_All,"ax",@progbits
 946                             		.global	_CPU_Test_All
 948                             	_CPU_Test_All:
 949                             	.LFB0:
 107:C:/Workspace/FW_Platform2_5/trunk/HAL/RN_RX200/IEC60335_B_libs/src/CPU\cpu_test.c **** {
 950                             		.loc 1 107 0
 951 0000 7E A6                   		push.l	r6
 952                             	.LCFI15:
 953 0002 EF 06                   		mov.L	r0, r6
 954                             	.LCFI16:
 111:C:/Workspace/FW_Platform2_5/trunk/HAL/RN_RX200/IEC60335_B_libs/src/CPU\cpu_test.c **** 		CPU_Test_GPRsCouplingPartA();
 955                             		.loc 1 111 0
 956 0004 05 00 00 00             		bsr	_CPU_Test_GPRsCouplingPartA
 957                             	.LVL6:
 112:C:/Workspace/FW_Platform2_5/trunk/HAL/RN_RX200/IEC60335_B_libs/src/CPU\cpu_test.c **** 		CPU_Test_GPRsCouplingPartB();
 958                             		.loc 1 112 0
 959 0008 05 00 00 00             		bsr	_CPU_Test_GPRsCouplingPartB
 960                             	.LVL7:
 121:C:/Workspace/FW_Platform2_5/trunk/HAL/RN_RX200/IEC60335_B_libs/src/CPU\cpu_test.c **** 	CPU_Test_Control();
 961                             		.loc 1 121 0
 962 000c 05 00 00 00             		bsr	_CPU_Test_Control
 963                             	.LVL8:
 124:C:/Workspace/FW_Platform2_5/trunk/HAL/RN_RX200/IEC60335_B_libs/src/CPU\cpu_test.c **** 	CPU_Test_Accumulator();
 964                             		.loc 1 124 0
 965 0010 05 00 00 00             		bsr	_CPU_Test_Accumulator
 966                             	.LVL9:
 127:C:/Workspace/FW_Platform2_5/trunk/HAL/RN_RX200/IEC60335_B_libs/src/CPU\cpu_test.c **** 	CPU_Test_PC();
 967                             		.loc 1 127 0
 968 0014 05 00 00 00             		bsr	_CPU_Test_PC
 969                             	.LVL10:
 128:C:/Workspace/FW_Platform2_5/trunk/HAL/RN_RX200/IEC60335_B_libs/src/CPU\cpu_test.c **** }
 970                             		.loc 1 128 0
 971 0018 3F 66 01                		rtsd	#4, r6-r6
 972                             	.LFE0:
 974                             		.section	.text.ForImport_CPU_Test,"ax",@progbits
 975                             		.global	_ForImport_CPU_Test
 977                             	_ForImport_CPU_Test:
 978                             	.LFB7:
 710:C:/Workspace/FW_Platform2_5/trunk/HAL/RN_RX200/IEC60335_B_libs/src/CPU\cpu_test.c **** 
 711:C:/Workspace/FW_Platform2_5/trunk/HAL/RN_RX200/IEC60335_B_libs/src/CPU\cpu_test.c **** /***********************************************************************************
 712:C:/Workspace/FW_Platform2_5/trunk/HAL/RN_RX200/IEC60335_B_libs/src/CPU\cpu_test.c **** Function Name : ForImport_CPU_Test
 713:C:/Workspace/FW_Platform2_5/trunk/HAL/RN_RX200/IEC60335_B_libs/src/CPU\cpu_test.c **** Description   :	This function purely just provides the assembler with
 714:C:/Workspace/FW_Platform2_5/trunk/HAL/RN_RX200/IEC60335_B_libs/src/CPU\cpu_test.c **** 				the import of the error handler so that other inline
 715:C:/Workspace/FW_Platform2_5/trunk/HAL/RN_RX200/IEC60335_B_libs/src/CPU\cpu_test.c **** 				assembley functions in this file can call it.
 716:C:/Workspace/FW_Platform2_5/trunk/HAL/RN_RX200/IEC60335_B_libs/src/CPU\cpu_test.c **** 				
 717:C:/Workspace/FW_Platform2_5/trunk/HAL/RN_RX200/IEC60335_B_libs/src/CPU\cpu_test.c **** Parameters    : none				
 718:C:/Workspace/FW_Platform2_5/trunk/HAL/RN_RX200/IEC60335_B_libs/src/CPU\cpu_test.c **** Return Value  : void
 719:C:/Workspace/FW_Platform2_5/trunk/HAL/RN_RX200/IEC60335_B_libs/src/CPU\cpu_test.c **** ***********************************************************************************/
 720:C:/Workspace/FW_Platform2_5/trunk/HAL/RN_RX200/IEC60335_B_libs/src/CPU\cpu_test.c **** void ForImport_CPU_Test(void)
 721:C:/Workspace/FW_Platform2_5/trunk/HAL/RN_RX200/IEC60335_B_libs/src/CPU\cpu_test.c **** {
 979                             		.loc 1 721 0
 980 0000 7E A6                   		push.l	r6
 981                             	.LCFI17:
 982 0002 EF 06                   		mov.L	r0, r6
 983                             	.LCFI18:
 722:C:/Workspace/FW_Platform2_5/trunk/HAL/RN_RX200/IEC60335_B_libs/src/CPU\cpu_test.c **** 	CPU_Test_ErrorHandler();
 984                             		.loc 1 722 0
 985 0004 05 00 00 00             		bsr	_CPU_Test_ErrorHandler
 986                             	.LVL11:
 723:C:/Workspace/FW_Platform2_5/trunk/HAL/RN_RX200/IEC60335_B_libs/src/CPU\cpu_test.c **** }
 987                             		.loc 1 723 0
 988 0008 3F 66 01                		rtsd	#4, r6-r6
 989                             	.LFE7:
 1179                             	.Letext0:
 1180                             		.file 2 "C:/Workspace/FW_Platform2_5/trunk/HAL/RN_RX200/IEC60335_B_libs/src/CPU/cpu_test.h"
 1181                             		.file 3 "C:\\Workspace\\FW_Platform2_5\\trunk\\HAL\\RN_RX200\\IEC60335_B_libs\\src\\Common/misraty
