   1                             		.file	"DigitalInputs.c"
   2                             		.section P,"ax"
   3                             	.Ltext0:
   4                             		.section	.text.LIB_DIO_InitDigInputs,"ax",@progbits
   5                             		.global	_LIB_DIO_InitDigInputs
   7                             	_LIB_DIO_InitDigInputs:
   8                             	.LFB0:
   9                             		.file 1 "C:/Workspace/FW_Platform2_5/trunk/PlatformLibrary/LIB_DigitalIO/DigitalInputs.c"
   1:C:/Workspace/FW_Platform2_5/trunk/PlatformLibrary/LIB_DigitalIO\DigitalInputs.c **** /*
   2:C:/Workspace/FW_Platform2_5/trunk/PlatformLibrary/LIB_DigitalIO\DigitalInputs.c **** Copyright (c) 2004-2005, Indesit Company, I.D.D..
   3:C:/Workspace/FW_Platform2_5/trunk/PlatformLibrary/LIB_DigitalIO\DigitalInputs.c **** Tutti i diritti sono riservati. All rights reserved.
   4:C:/Workspace/FW_Platform2_5/trunk/PlatformLibrary/LIB_DigitalIO\DigitalInputs.c **** */
   5:C:/Workspace/FW_Platform2_5/trunk/PlatformLibrary/LIB_DigitalIO\DigitalInputs.c **** 
   6:C:/Workspace/FW_Platform2_5/trunk/PlatformLibrary/LIB_DigitalIO\DigitalInputs.c **** /**
   7:C:/Workspace/FW_Platform2_5/trunk/PlatformLibrary/LIB_DigitalIO\DigitalInputs.c **** \n
   8:C:/Workspace/FW_Platform2_5/trunk/PlatformLibrary/LIB_DigitalIO\DigitalInputs.c **** \Par		DigitalInputs.c
   9:C:/Workspace/FW_Platform2_5/trunk/PlatformLibrary/LIB_DigitalIO\DigitalInputs.c **** \n			Implementation of all functions necessary to achieve the aim.
  10:C:/Workspace/FW_Platform2_5/trunk/PlatformLibrary/LIB_DigitalIO\DigitalInputs.c **** \n
  11:C:/Workspace/FW_Platform2_5/trunk/PlatformLibrary/LIB_DigitalIO\DigitalInputs.c **** \file		DigitalInputs.c
  12:C:/Workspace/FW_Platform2_5/trunk/PlatformLibrary/LIB_DigitalIO\DigitalInputs.c **** \ingroup	DigitalInputs
  13:C:/Workspace/FW_Platform2_5/trunk/PlatformLibrary/LIB_DigitalIO\DigitalInputs.c **** \date		Jun 11, 2010
  14:C:/Workspace/FW_Platform2_5/trunk/PlatformLibrary/LIB_DigitalIO\DigitalInputs.c **** \version	01.00.00
  15:C:/Workspace/FW_Platform2_5/trunk/PlatformLibrary/LIB_DigitalIO\DigitalInputs.c **** \author		stefano.ughi
  16:C:/Workspace/FW_Platform2_5/trunk/PlatformLibrary/LIB_DigitalIO\DigitalInputs.c **** \n
  17:C:/Workspace/FW_Platform2_5/trunk/PlatformLibrary/LIB_DigitalIO\DigitalInputs.c **** \n
  18:C:/Workspace/FW_Platform2_5/trunk/PlatformLibrary/LIB_DigitalIO\DigitalInputs.c **** \Par\b	History:
  19:C:/Workspace/FW_Platform2_5/trunk/PlatformLibrary/LIB_DigitalIO\DigitalInputs.c **** \n
  20:C:/Workspace/FW_Platform2_5/trunk/PlatformLibrary/LIB_DigitalIO\DigitalInputs.c **** \n 		Jun 11, 2010
  21:C:/Workspace/FW_Platform2_5/trunk/PlatformLibrary/LIB_DigitalIO\DigitalInputs.c **** \n		01.00.00
  22:C:/Workspace/FW_Platform2_5/trunk/PlatformLibrary/LIB_DigitalIO\DigitalInputs.c **** \n		stefano.ughi
  23:C:/Workspace/FW_Platform2_5/trunk/PlatformLibrary/LIB_DigitalIO\DigitalInputs.c **** \n		changes
  24:C:/Workspace/FW_Platform2_5/trunk/PlatformLibrary/LIB_DigitalIO\DigitalInputs.c **** \n 		- creation
  25:C:/Workspace/FW_Platform2_5/trunk/PlatformLibrary/LIB_DigitalIO\DigitalInputs.c **** \n
  26:C:/Workspace/FW_Platform2_5/trunk/PlatformLibrary/LIB_DigitalIO\DigitalInputs.c **** \n etc.
  27:C:/Workspace/FW_Platform2_5/trunk/PlatformLibrary/LIB_DigitalIO\DigitalInputs.c **** */
  28:C:/Workspace/FW_Platform2_5/trunk/PlatformLibrary/LIB_DigitalIO\DigitalInputs.c **** #define MODULE_BODY_LIB_DIGITAL_IO
  29:C:/Workspace/FW_Platform2_5/trunk/PlatformLibrary/LIB_DigitalIO\DigitalInputs.c **** /* ******** */
  30:C:/Workspace/FW_Platform2_5/trunk/PlatformLibrary/LIB_DigitalIO\DigitalInputs.c **** /* Includes */
  31:C:/Workspace/FW_Platform2_5/trunk/PlatformLibrary/LIB_DigitalIO\DigitalInputs.c **** /* ******** */
  32:C:/Workspace/FW_Platform2_5/trunk/PlatformLibrary/LIB_DigitalIO\DigitalInputs.c **** #include "Config.h"
  33:C:/Workspace/FW_Platform2_5/trunk/PlatformLibrary/LIB_DigitalIO\DigitalInputs.c **** #include <string.h>
  34:C:/Workspace/FW_Platform2_5/trunk/PlatformLibrary/LIB_DigitalIO\DigitalInputs.c **** #include "IOSharing.h"
  35:C:/Workspace/FW_Platform2_5/trunk/PlatformLibrary/LIB_DigitalIO\DigitalInputs.c **** #include "DigitalInputs.h"
  36:C:/Workspace/FW_Platform2_5/trunk/PlatformLibrary/LIB_DigitalIO\DigitalInputs.c **** #include "LIB_Error.h"
  37:C:/Workspace/FW_Platform2_5/trunk/PlatformLibrary/LIB_DigitalIO\DigitalInputs.c **** #include "OCDIO_drv.h"
  38:C:/Workspace/FW_Platform2_5/trunk/PlatformLibrary/LIB_DigitalIO\DigitalInputs.c **** 
  39:C:/Workspace/FW_Platform2_5/trunk/PlatformLibrary/LIB_DigitalIO\DigitalInputs.c **** #include "LIB_ClassBVar.h"
  40:C:/Workspace/FW_Platform2_5/trunk/PlatformLibrary/LIB_DigitalIO\DigitalInputs.c **** /* ****************** */
  41:C:/Workspace/FW_Platform2_5/trunk/PlatformLibrary/LIB_DigitalIO\DigitalInputs.c **** /* Defines and Macros */
  42:C:/Workspace/FW_Platform2_5/trunk/PlatformLibrary/LIB_DigitalIO\DigitalInputs.c **** /* ****************** */
  43:C:/Workspace/FW_Platform2_5/trunk/PlatformLibrary/LIB_DigitalIO\DigitalInputs.c **** 
  44:C:/Workspace/FW_Platform2_5/trunk/PlatformLibrary/LIB_DigitalIO\DigitalInputs.c **** 
  45:C:/Workspace/FW_Platform2_5/trunk/PlatformLibrary/LIB_DigitalIO\DigitalInputs.c **** /* *************************** */
  46:C:/Workspace/FW_Platform2_5/trunk/PlatformLibrary/LIB_DigitalIO\DigitalInputs.c **** /* Typedef, Structs and Unions */
  47:C:/Workspace/FW_Platform2_5/trunk/PlatformLibrary/LIB_DigitalIO\DigitalInputs.c **** /* *************************** */
  48:C:/Workspace/FW_Platform2_5/trunk/PlatformLibrary/LIB_DigitalIO\DigitalInputs.c **** 
  49:C:/Workspace/FW_Platform2_5/trunk/PlatformLibrary/LIB_DigitalIO\DigitalInputs.c **** 
  50:C:/Workspace/FW_Platform2_5/trunk/PlatformLibrary/LIB_DigitalIO\DigitalInputs.c **** /* ********* */
  51:C:/Workspace/FW_Platform2_5/trunk/PlatformLibrary/LIB_DigitalIO\DigitalInputs.c **** /* Variables */
  52:C:/Workspace/FW_Platform2_5/trunk/PlatformLibrary/LIB_DigitalIO\DigitalInputs.c **** /* ********* */
  53:C:/Workspace/FW_Platform2_5/trunk/PlatformLibrary/LIB_DigitalIO\DigitalInputs.c **** 
  54:C:/Workspace/FW_Platform2_5/trunk/PlatformLibrary/LIB_DigitalIO\DigitalInputs.c **** /* Global */
  55:C:/Workspace/FW_Platform2_5/trunk/PlatformLibrary/LIB_DigitalIO\DigitalInputs.c **** /** bit map, bit i -> result of the input in pos. i */
  56:C:/Workspace/FW_Platform2_5/trunk/PlatformLibrary/LIB_DigitalIO\DigitalInputs.c **** dig_input_t DigInputs;
  57:C:/Workspace/FW_Platform2_5/trunk/PlatformLibrary/LIB_DigitalIO\DigitalInputs.c **** /** bit map, bit i=1 -> result of the input in pos. i is ready */
  58:C:/Workspace/FW_Platform2_5/trunk/PlatformLibrary/LIB_DigitalIO\DigitalInputs.c **** dig_input_t DigInputsReady;
  59:C:/Workspace/FW_Platform2_5/trunk/PlatformLibrary/LIB_DigitalIO\DigitalInputs.c **** /** bit map, bit i=1 -> read on input in pos.i is disabled */
  60:C:/Workspace/FW_Platform2_5/trunk/PlatformLibrary/LIB_DigitalIO\DigitalInputs.c **** dig_input_t DigInputsDisable;
  61:C:/Workspace/FW_Platform2_5/trunk/PlatformLibrary/LIB_DigitalIO\DigitalInputs.c **** /* Static */
  62:C:/Workspace/FW_Platform2_5/trunk/PlatformLibrary/LIB_DigitalIO\DigitalInputs.c **** /* Input Acq. Configuration */
  63:C:/Workspace/FW_Platform2_5/trunk/PlatformLibrary/LIB_DigitalIO\DigitalInputs.c **** static digitalInput_t DigInputPin[DIGINPUT_NUM];
  64:C:/Workspace/FW_Platform2_5/trunk/PlatformLibrary/LIB_DigitalIO\DigitalInputs.c **** /** Number of '1' collected */
  65:C:/Workspace/FW_Platform2_5/trunk/PlatformLibrary/LIB_DigitalIO\DigitalInputs.c **** static uint8_t DigInput_val[DIGINPUT_NUM];
  66:C:/Workspace/FW_Platform2_5/trunk/PlatformLibrary/LIB_DigitalIO\DigitalInputs.c **** /** Counter */
  67:C:/Workspace/FW_Platform2_5/trunk/PlatformLibrary/LIB_DigitalIO\DigitalInputs.c **** static uint8_t DigInput_c[DIGINPUT_NUM];
  68:C:/Workspace/FW_Platform2_5/trunk/PlatformLibrary/LIB_DigitalIO\DigitalInputs.c **** 
  69:C:/Workspace/FW_Platform2_5/trunk/PlatformLibrary/LIB_DigitalIO\DigitalInputs.c **** /* ******************* */
  70:C:/Workspace/FW_Platform2_5/trunk/PlatformLibrary/LIB_DigitalIO\DigitalInputs.c **** /* Functions Prototype */
  71:C:/Workspace/FW_Platform2_5/trunk/PlatformLibrary/LIB_DigitalIO\DigitalInputs.c **** /* ******************* */
  72:C:/Workspace/FW_Platform2_5/trunk/PlatformLibrary/LIB_DigitalIO\DigitalInputs.c **** 
  73:C:/Workspace/FW_Platform2_5/trunk/PlatformLibrary/LIB_DigitalIO\DigitalInputs.c **** /* Exported function */
  74:C:/Workspace/FW_Platform2_5/trunk/PlatformLibrary/LIB_DigitalIO\DigitalInputs.c **** 
  75:C:/Workspace/FW_Platform2_5/trunk/PlatformLibrary/LIB_DigitalIO\DigitalInputs.c **** /* Local Function */
  76:C:/Workspace/FW_Platform2_5/trunk/PlatformLibrary/LIB_DigitalIO\DigitalInputs.c **** 
  77:C:/Workspace/FW_Platform2_5/trunk/PlatformLibrary/LIB_DigitalIO\DigitalInputs.c **** /* *************** */
  78:C:/Workspace/FW_Platform2_5/trunk/PlatformLibrary/LIB_DigitalIO\DigitalInputs.c **** /* Function Bodies */
  79:C:/Workspace/FW_Platform2_5/trunk/PlatformLibrary/LIB_DigitalIO\DigitalInputs.c **** /* *************** */
  80:C:/Workspace/FW_Platform2_5/trunk/PlatformLibrary/LIB_DigitalIO\DigitalInputs.c **** 
  81:C:/Workspace/FW_Platform2_5/trunk/PlatformLibrary/LIB_DigitalIO\DigitalInputs.c **** /* Exported function */
  82:C:/Workspace/FW_Platform2_5/trunk/PlatformLibrary/LIB_DigitalIO\DigitalInputs.c **** /**
  83:C:/Workspace/FW_Platform2_5/trunk/PlatformLibrary/LIB_DigitalIO\DigitalInputs.c **** \n Initialization of data structures relating to digital inputs.
  84:C:/Workspace/FW_Platform2_5/trunk/PlatformLibrary/LIB_DigitalIO\DigitalInputs.c **** \n This function is called inside OnColdReset() if SystemMode == SYSTEM_NORMAL_MODE
  85:C:/Workspace/FW_Platform2_5/trunk/PlatformLibrary/LIB_DigitalIO\DigitalInputs.c **** 
  86:C:/Workspace/FW_Platform2_5/trunk/PlatformLibrary/LIB_DigitalIO\DigitalInputs.c **** \attention \b DigInputs (Global) W
  87:C:/Workspace/FW_Platform2_5/trunk/PlatformLibrary/LIB_DigitalIO\DigitalInputs.c **** \attention \b DigInputsReady (Global) W
  88:C:/Workspace/FW_Platform2_5/trunk/PlatformLibrary/LIB_DigitalIO\DigitalInputs.c **** \attention \b DigInputsDisable (Global) W
  89:C:/Workspace/FW_Platform2_5/trunk/PlatformLibrary/LIB_DigitalIO\DigitalInputs.c **** 
  90:C:/Workspace/FW_Platform2_5/trunk/PlatformLibrary/LIB_DigitalIO\DigitalInputs.c **** \attention \b DigInputPin (Global) W
  91:C:/Workspace/FW_Platform2_5/trunk/PlatformLibrary/LIB_DigitalIO\DigitalInputs.c **** \attention \b DigInput_val (Global) W
  92:C:/Workspace/FW_Platform2_5/trunk/PlatformLibrary/LIB_DigitalIO\DigitalInputs.c **** \attention \b DigInput_c (Global) W
  93:C:/Workspace/FW_Platform2_5/trunk/PlatformLibrary/LIB_DigitalIO\DigitalInputs.c **** 
  94:C:/Workspace/FW_Platform2_5/trunk/PlatformLibrary/LIB_DigitalIO\DigitalInputs.c **** \author 	stefano.ughi
  95:C:/Workspace/FW_Platform2_5/trunk/PlatformLibrary/LIB_DigitalIO\DigitalInputs.c **** \date		Jun 16, 2010
  96:C:/Workspace/FW_Platform2_5/trunk/PlatformLibrary/LIB_DigitalIO\DigitalInputs.c **** \version	1.0.0
  97:C:/Workspace/FW_Platform2_5/trunk/PlatformLibrary/LIB_DigitalIO\DigitalInputs.c **** 
  98:C:/Workspace/FW_Platform2_5/trunk/PlatformLibrary/LIB_DigitalIO\DigitalInputs.c **** \note		\par \b Note 1:
  99:C:/Workspace/FW_Platform2_5/trunk/PlatformLibrary/LIB_DigitalIO\DigitalInputs.c **** 			documentation by stefano.ughi
 100:C:/Workspace/FW_Platform2_5/trunk/PlatformLibrary/LIB_DigitalIO\DigitalInputs.c **** 
 101:C:/Workspace/FW_Platform2_5/trunk/PlatformLibrary/LIB_DigitalIO\DigitalInputs.c **** */
 102:C:/Workspace/FW_Platform2_5/trunk/PlatformLibrary/LIB_DigitalIO\DigitalInputs.c **** void LIB_DIO_InitDigInputs(void)
 103:C:/Workspace/FW_Platform2_5/trunk/PlatformLibrary/LIB_DigitalIO\DigitalInputs.c **** {
  10                             		.loc 1 103 0
 104:C:/Workspace/FW_Platform2_5/trunk/PlatformLibrary/LIB_DigitalIO\DigitalInputs.c **** 	SAFETY_REGION_START();
 105:C:/Workspace/FW_Platform2_5/trunk/PlatformLibrary/LIB_DigitalIO\DigitalInputs.c **** 	DigInputs           = 0;
  11                             		.loc 1 105 0
  12 0000 FB E2 00 00 00 00       		mov.L	#_DigInputs, r14
  13 0006 F8 E4 00                		mov.B	#0, [r14]
 106:C:/Workspace/FW_Platform2_5/trunk/PlatformLibrary/LIB_DigitalIO\DigitalInputs.c **** 	DigInputsDisable    = 0;
  14                             		.loc 1 106 0
  15 0009 FB E2 00 00 00 00       		mov.L	#_DigInputsDisable, r14
  16 000f F8 E4 00                		mov.B	#0, [r14]
 107:C:/Workspace/FW_Platform2_5/trunk/PlatformLibrary/LIB_DigitalIO\DigitalInputs.c **** 	SAFETY_DATA_UPDATE( DigInputs );
 108:C:/Workspace/FW_Platform2_5/trunk/PlatformLibrary/LIB_DigitalIO\DigitalInputs.c **** 	SAFETY_DATA_UPDATE( DigInputsDisable );
 109:C:/Workspace/FW_Platform2_5/trunk/PlatformLibrary/LIB_DigitalIO\DigitalInputs.c **** 	SAFETY_REGION_END();
 110:C:/Workspace/FW_Platform2_5/trunk/PlatformLibrary/LIB_DigitalIO\DigitalInputs.c **** 
 111:C:/Workspace/FW_Platform2_5/trunk/PlatformLibrary/LIB_DigitalIO\DigitalInputs.c **** 	DigInputsReady      = 0;
  17                             		.loc 1 111 0
  18 0012 FB E2 00 00 00 00       		mov.L	#_DigInputsReady, r14
  19 0018 F8 E4 00                		mov.B	#0, [r14]
 112:C:/Workspace/FW_Platform2_5/trunk/PlatformLibrary/LIB_DigitalIO\DigitalInputs.c **** 
 113:C:/Workspace/FW_Platform2_5/trunk/PlatformLibrary/LIB_DigitalIO\DigitalInputs.c **** 	(void)memset(&DigInputPin[0], 0, sizeof(DigInputPin));
  20                             		.loc 1 113 0
  21 001b FB 12 00 00 00 00       		mov.L	#_DigInputPin, r1
  22 0021 75 43 10                		mov.L	#16, r3
  23 0024 66 02                   		mov	#0, r2
  24 0026 7F 88                   		sstr.b
 114:C:/Workspace/FW_Platform2_5/trunk/PlatformLibrary/LIB_DigitalIO\DigitalInputs.c **** 	(void)memset(&DigInput_val[0], 0, sizeof(DigInput_val));
  25                             		.loc 1 114 0
  26 0028 FB 12 00 00 00 00       		mov.L	#_DigInput_val, r1
  27 002e 66 83                   		mov.L	#8, r3
  28 0030 7F 88                   		sstr.b
 115:C:/Workspace/FW_Platform2_5/trunk/PlatformLibrary/LIB_DigitalIO\DigitalInputs.c **** 	(void)memset(&DigInput_c[0], 0, sizeof(DigInput_c));
  29                             		.loc 1 115 0
  30 0032 FB 12 00 00 00 00       		mov.L	#_DigInput_c, r1
  31 0038 66 83                   		mov.L	#8, r3
  32 003a 7F 88                   		sstr.b
  33 003c 02                      		rts
  34                             	.LFE0:
  36                             		.section	.text.LIB_DIO_InsertDigInput,"ax",@progbits
  37                             		.global	_LIB_DIO_InsertDigInput
  39                             	_LIB_DIO_InsertDigInput:
  40                             	.LFB1:
 116:C:/Workspace/FW_Platform2_5/trunk/PlatformLibrary/LIB_DigitalIO\DigitalInputs.c **** 
 117:C:/Workspace/FW_Platform2_5/trunk/PlatformLibrary/LIB_DigitalIO\DigitalInputs.c **** }
 118:C:/Workspace/FW_Platform2_5/trunk/PlatformLibrary/LIB_DigitalIO\DigitalInputs.c **** /**
 119:C:/Workspace/FW_Platform2_5/trunk/PlatformLibrary/LIB_DigitalIO\DigitalInputs.c **** \n Digital Input setup.
 120:C:/Workspace/FW_Platform2_5/trunk/PlatformLibrary/LIB_DigitalIO\DigitalInputs.c **** 
 121:C:/Workspace/FW_Platform2_5/trunk/PlatformLibrary/LIB_DigitalIO\DigitalInputs.c **** 
 122:C:/Workspace/FW_Platform2_5/trunk/PlatformLibrary/LIB_DigitalIO\DigitalInputs.c **** \param  [in] pos Ram Position Conversion's Result.
 123:C:/Workspace/FW_Platform2_5/trunk/PlatformLibrary/LIB_DigitalIO\DigitalInputs.c **** \param  [in] pin pin linkage module M.C.U. - 1..
 124:C:/Workspace/FW_Platform2_5/trunk/PlatformLibrary/LIB_DigitalIO\DigitalInputs.c **** \param  [in] readtype '1' -> multiplexed input '0' -> not multiplexed input.
 125:C:/Workspace/FW_Platform2_5/trunk/PlatformLibrary/LIB_DigitalIO\DigitalInputs.c **** \param  [in] pConfigData pointer to config. params.
 126:C:/Workspace/FW_Platform2_5/trunk/PlatformLibrary/LIB_DigitalIO\DigitalInputs.c **** 
 127:C:/Workspace/FW_Platform2_5/trunk/PlatformLibrary/LIB_DigitalIO\DigitalInputs.c **** \attention \b DigInputPin[] (global) used as R/W
 128:C:/Workspace/FW_Platform2_5/trunk/PlatformLibrary/LIB_DigitalIO\DigitalInputs.c **** 
 129:C:/Workspace/FW_Platform2_5/trunk/PlatformLibrary/LIB_DigitalIO\DigitalInputs.c **** 
 130:C:/Workspace/FW_Platform2_5/trunk/PlatformLibrary/LIB_DigitalIO\DigitalInputs.c **** \author 	Stefano Ughi
 131:C:/Workspace/FW_Platform2_5/trunk/PlatformLibrary/LIB_DigitalIO\DigitalInputs.c **** \date		11/06/2010
 132:C:/Workspace/FW_Platform2_5/trunk/PlatformLibrary/LIB_DigitalIO\DigitalInputs.c **** \version	1.0.0
 133:C:/Workspace/FW_Platform2_5/trunk/PlatformLibrary/LIB_DigitalIO\DigitalInputs.c **** 
 134:C:/Workspace/FW_Platform2_5/trunk/PlatformLibrary/LIB_DigitalIO\DigitalInputs.c **** 
 135:C:/Workspace/FW_Platform2_5/trunk/PlatformLibrary/LIB_DigitalIO\DigitalInputs.c **** \note		\par \b Nota 1:
 136:C:/Workspace/FW_Platform2_5/trunk/PlatformLibrary/LIB_DigitalIO\DigitalInputs.c **** 			Call in LIB_IOM_InputInitialization() only if reset is cold.
 137:C:/Workspace/FW_Platform2_5/trunk/PlatformLibrary/LIB_DigitalIO\DigitalInputs.c **** */
 138:C:/Workspace/FW_Platform2_5/trunk/PlatformLibrary/LIB_DigitalIO\DigitalInputs.c **** void LIB_DIO_InsertDigInput ( uint8_t pos, uint8_t pin, uint8_t readtype, const uint8_t *pConfigDat
 139:C:/Workspace/FW_Platform2_5/trunk/PlatformLibrary/LIB_DigitalIO\DigitalInputs.c **** {
  41                             		.loc 1 139 0
  42                             	.LVL0:
 140:C:/Workspace/FW_Platform2_5/trunk/PlatformLibrary/LIB_DigitalIO\DigitalInputs.c **** 	digitalInput_t *pDigInputPin;
 141:C:/Workspace/FW_Platform2_5/trunk/PlatformLibrary/LIB_DigitalIO\DigitalInputs.c **** 
 142:C:/Workspace/FW_Platform2_5/trunk/PlatformLibrary/LIB_DigitalIO\DigitalInputs.c **** 	if (!((pos < DIGINPUT_NUM) && (pin < IO_MODULE_MAP_SIZE)))
  43                             		.loc 1 142 0
  44 0000 5B 11                   		movu.B	r1, r1
  45 0002 61 71                   		cmp	#7, r1
  46 0004 24 0A                   		bgtu	.L3
  47                             		.loc 1 142 0 is_stmt 0 discriminator 1
  48 0006 5B 22                   		movu.B	r2, r2
  49 0008 75 52 2B                		cmp	#43, r2
  50 000b 25 09                   		bleu	.L4
  51                             	.LVL1:
  52 000d 03                      		.balign 2,3,1
  53                             	.L3:
 143:C:/Workspace/FW_Platform2_5/trunk/PlatformLibrary/LIB_DigitalIO\DigitalInputs.c **** 	{
 144:C:/Workspace/FW_Platform2_5/trunk/PlatformLibrary/LIB_DigitalIO\DigitalInputs.c **** 		PLT_ERROR_FATAL(PLT_ERROR_DIG_IN_1);
  54                             		.loc 1 144 0 is_stmt 1
  55 000e 66 51                   		mov.L	#5, r1
  56                             	.LVL2:
  57 0010 04 00 00 00             		bra	_LIB_Error_Fatal_Handler
  58                             	.LVL3:
  59                             	.L4:
 145:C:/Workspace/FW_Platform2_5/trunk/PlatformLibrary/LIB_DigitalIO\DigitalInputs.c **** 		return; /* Serious Error */
 146:C:/Workspace/FW_Platform2_5/trunk/PlatformLibrary/LIB_DigitalIO\DigitalInputs.c **** 	}
 147:C:/Workspace/FW_Platform2_5/trunk/PlatformLibrary/LIB_DigitalIO\DigitalInputs.c **** 
 148:C:/Workspace/FW_Platform2_5/trunk/PlatformLibrary/LIB_DigitalIO\DigitalInputs.c **** 	pDigInputPin = &DigInputPin[pos];
  60                             		.loc 1 148 0
  61 0014 4B 11                   		add	r1, r1
  62 0016 70 1E 00 00 00 00       		add	#_DigInputPin, r1, r14
  63                             	.LVL4:
 149:C:/Workspace/FW_Platform2_5/trunk/PlatformLibrary/LIB_DigitalIO\DigitalInputs.c **** 
 150:C:/Workspace/FW_Platform2_5/trunk/PlatformLibrary/LIB_DigitalIO\DigitalInputs.c **** 	pDigInputPin->s.readtype = ((MPX_INPUT == readtype)?1:0);
  64                             		.loc 1 150 0
  65 001c DC E1                   		mov.W	[r14], r1
  66 001e 5B 33                   		movu.B	r3, r3
  67 0020 61 13                   		cmp	#1, r3
  68 0022 FD EE 01                		bmeq	#14, r1
 151:C:/Workspace/FW_Platform2_5/trunk/PlatformLibrary/LIB_DigitalIO\DigitalInputs.c **** 	pDigInputPin->s.pin = pin;
  69                             		.loc 1 151 0
  70 0025 75 22 3F                		and	#63, r2
  71 0028 6C 22                   		shll	#2, r2
  72 002a 76 21 03 FF             		and	#0xffffff03, r1
  73 002e 57 12                   		or	r1, r2
  74 0030 D3 E2                   		mov.W	r2, [r14]
 152:C:/Workspace/FW_Platform2_5/trunk/PlatformLibrary/LIB_DigitalIO\DigitalInputs.c **** 	/* filtering */
 153:C:/Workspace/FW_Platform2_5/trunk/PlatformLibrary/LIB_DigitalIO\DigitalInputs.c **** 	/*lint -e826 Suspicious pointer-to-pointer conversion (verified area)*/
 154:C:/Workspace/FW_Platform2_5/trunk/PlatformLibrary/LIB_DigitalIO\DigitalInputs.c **** 	pDigInputPin->s.filterPot2 = (((digitalLLIparams_t*)((void*)pConfigData))->bit.nRead);
  75                             		.loc 1 154 0
  76 0032 58 43                   		movu.B	[r4], r3
  77                             	.LVL5:
  78 0034 76 22 FF C7             		and	#0xffffc7ff, r2
  79 0038 64 73                   		and	#7, r3
  80 003a 6C B3                   		shll	#11, r3
  81 003c 57 23                   		or	r2, r3
  82 003e D3 E3                   		mov.W	r3, [r14]
 155:C:/Workspace/FW_Platform2_5/trunk/PlatformLibrary/LIB_DigitalIO\DigitalInputs.c **** 	/*lint +e826 */
 156:C:/Workspace/FW_Platform2_5/trunk/PlatformLibrary/LIB_DigitalIO\DigitalInputs.c **** 
 157:C:/Workspace/FW_Platform2_5/trunk/PlatformLibrary/LIB_DigitalIO\DigitalInputs.c **** 	/* is read enabled ? */
 158:C:/Workspace/FW_Platform2_5/trunk/PlatformLibrary/LIB_DigitalIO\DigitalInputs.c **** 	/*lint -e826 Suspicious pointer-to-pointer conversion (verified area)*/
 159:C:/Workspace/FW_Platform2_5/trunk/PlatformLibrary/LIB_DigitalIO\DigitalInputs.c **** 	pDigInputPin->s.active = (((digitalLLIparams_t*)((void*)pConfigData))->bit.automatic?1:0);
  83                             		.loc 1 159 0
  84 0040 DC 44                   		mov.W	[r4], r4
  85                             	.LVL6:
  86 0042 61 04                   		cmp	#0, r4
  87 0044 FD EF 93                		bmlt	#15, r3
  88 0047 D3 E3                   		mov.W	r3, [r14]
  89 0049 02                      		rts
  90                             	.LFE1:
  92                             		.section	.text.LIB_DIO_GET_INPUT,"ax",@progbits
  93                             		.global	_LIB_DIO_GET_INPUT
  95                             	_LIB_DIO_GET_INPUT:
  96                             	.LFB3:
 160:C:/Workspace/FW_Platform2_5/trunk/PlatformLibrary/LIB_DigitalIO\DigitalInputs.c **** 	/*lint +e826 */
 161:C:/Workspace/FW_Platform2_5/trunk/PlatformLibrary/LIB_DigitalIO\DigitalInputs.c **** 
 162:C:/Workspace/FW_Platform2_5/trunk/PlatformLibrary/LIB_DigitalIO\DigitalInputs.c **** 	/*
 163:C:/Workspace/FW_Platform2_5/trunk/PlatformLibrary/LIB_DigitalIO\DigitalInputs.c **** 	N.B.: don't care pull-up info because pull-up is already set in LIB_IOM_InputInitialization()
 164:C:/Workspace/FW_Platform2_5/trunk/PlatformLibrary/LIB_DigitalIO\DigitalInputs.c **** 	*/
 165:C:/Workspace/FW_Platform2_5/trunk/PlatformLibrary/LIB_DigitalIO\DigitalInputs.c **** 
 166:C:/Workspace/FW_Platform2_5/trunk/PlatformLibrary/LIB_DigitalIO\DigitalInputs.c **** #if defined __MULTI_H
 167:C:/Workspace/FW_Platform2_5/trunk/PlatformLibrary/LIB_DigitalIO\DigitalInputs.c **** 	/* mpx config. setup */
 168:C:/Workspace/FW_Platform2_5/trunk/PlatformLibrary/LIB_DigitalIO\DigitalInputs.c **** 	pDigInputPin->s.chsel = (((digitalMpxLLIparams_t*)pConfigData)->bit.mpxCfg);
 169:C:/Workspace/FW_Platform2_5/trunk/PlatformLibrary/LIB_DigitalIO\DigitalInputs.c **** 	pDigInputPin->s.inversion = (((digitalMpxLLIparams_t*)pConfigData)->bit.inverted?1:0);
 170:C:/Workspace/FW_Platform2_5/trunk/PlatformLibrary/LIB_DigitalIO\DigitalInputs.c **** 	pDigInputPin->s.pullupEn = (((digitalMpxLLIparams_t*)pConfigData)->bit.pullUp?1:0);
 171:C:/Workspace/FW_Platform2_5/trunk/PlatformLibrary/LIB_DigitalIO\DigitalInputs.c **** #endif /* __MULTI_H  */
 172:C:/Workspace/FW_Platform2_5/trunk/PlatformLibrary/LIB_DigitalIO\DigitalInputs.c **** 
 173:C:/Workspace/FW_Platform2_5/trunk/PlatformLibrary/LIB_DigitalIO\DigitalInputs.c **** }
 174:C:/Workspace/FW_Platform2_5/trunk/PlatformLibrary/LIB_DigitalIO\DigitalInputs.c **** /**
 175:C:/Workspace/FW_Platform2_5/trunk/PlatformLibrary/LIB_DigitalIO\DigitalInputs.c **** \n LIB_DIO_DigInputManager.
 176:C:/Workspace/FW_Platform2_5/trunk/PlatformLibrary/LIB_DigitalIO\DigitalInputs.c **** \n Manage all digital inputs.
 177:C:/Workspace/FW_Platform2_5/trunk/PlatformLibrary/LIB_DigitalIO\DigitalInputs.c **** 
 178:C:/Workspace/FW_Platform2_5/trunk/PlatformLibrary/LIB_DigitalIO\DigitalInputs.c **** \attention \b  DigInputPin[]  (global) Input Description.
 179:C:/Workspace/FW_Platform2_5/trunk/PlatformLibrary/LIB_DigitalIO\DigitalInputs.c **** \attention \b  DigInput_c[]   (global) Number of samples collected for the i-th input
 180:C:/Workspace/FW_Platform2_5/trunk/PlatformLibrary/LIB_DigitalIO\DigitalInputs.c **** \attention \b  DigInput_val[] (global) Number of times i-th input was high (logical value,not real 
 181:C:/Workspace/FW_Platform2_5/trunk/PlatformLibrary/LIB_DigitalIO\DigitalInputs.c **** 
 182:C:/Workspace/FW_Platform2_5/trunk/PlatformLibrary/LIB_DigitalIO\DigitalInputs.c **** \attention \b DigInputs (global) bit map, bit i -> result of the input in pos. i
 183:C:/Workspace/FW_Platform2_5/trunk/PlatformLibrary/LIB_DigitalIO\DigitalInputs.c **** \attention \b DigInputsDisable (global) bit map, bit i -> read on input in pos.i is disabled
 184:C:/Workspace/FW_Platform2_5/trunk/PlatformLibrary/LIB_DigitalIO\DigitalInputs.c **** \attention \b DigInputsReady (global) bit map, bit i -> result of the input in pos. i is ready
 185:C:/Workspace/FW_Platform2_5/trunk/PlatformLibrary/LIB_DigitalIO\DigitalInputs.c **** 
 186:C:/Workspace/FW_Platform2_5/trunk/PlatformLibrary/LIB_DigitalIO\DigitalInputs.c **** 
 187:C:/Workspace/FW_Platform2_5/trunk/PlatformLibrary/LIB_DigitalIO\DigitalInputs.c **** \author 	Stefano Ughi
 188:C:/Workspace/FW_Platform2_5/trunk/PlatformLibrary/LIB_DigitalIO\DigitalInputs.c **** \date		08/10/2010
 189:C:/Workspace/FW_Platform2_5/trunk/PlatformLibrary/LIB_DigitalIO\DigitalInputs.c **** \version	1.0.2
 190:C:/Workspace/FW_Platform2_5/trunk/PlatformLibrary/LIB_DigitalIO\DigitalInputs.c **** 
 191:C:/Workspace/FW_Platform2_5/trunk/PlatformLibrary/LIB_DigitalIO\DigitalInputs.c **** \todo       check __MULTI_H
 192:C:/Workspace/FW_Platform2_5/trunk/PlatformLibrary/LIB_DigitalIO\DigitalInputs.c **** 
 193:C:/Workspace/FW_Platform2_5/trunk/PlatformLibrary/LIB_DigitalIO\DigitalInputs.c **** \note		\par \b Nota 1:
 194:C:/Workspace/FW_Platform2_5/trunk/PlatformLibrary/LIB_DigitalIO\DigitalInputs.c **** 			This function is called inside Task_10_ms if SystemMode = SYSTEM_NORMAL_MODE,\n
 195:C:/Workspace/FW_Platform2_5/trunk/PlatformLibrary/LIB_DigitalIO\DigitalInputs.c **** 			The call period depends from  DIGITAL_INPUT_SAMPLE_TIME property \n
 196:C:/Workspace/FW_Platform2_5/trunk/PlatformLibrary/LIB_DigitalIO\DigitalInputs.c **** 			Documentation by Stefano Ughi
 197:C:/Workspace/FW_Platform2_5/trunk/PlatformLibrary/LIB_DigitalIO\DigitalInputs.c **** 
 198:C:/Workspace/FW_Platform2_5/trunk/PlatformLibrary/LIB_DigitalIO\DigitalInputs.c **** */
 199:C:/Workspace/FW_Platform2_5/trunk/PlatformLibrary/LIB_DigitalIO\DigitalInputs.c **** void LIB_DIO_DigInputManager(void)
 200:C:/Workspace/FW_Platform2_5/trunk/PlatformLibrary/LIB_DigitalIO\DigitalInputs.c **** {
 201:C:/Workspace/FW_Platform2_5/trunk/PlatformLibrary/LIB_DigitalIO\DigitalInputs.c **** 	uint8_t i;
 202:C:/Workspace/FW_Platform2_5/trunk/PlatformLibrary/LIB_DigitalIO\DigitalInputs.c **** 	uint8_t nSamplesOnPin;
 203:C:/Workspace/FW_Platform2_5/trunk/PlatformLibrary/LIB_DigitalIO\DigitalInputs.c **** 	dig_input_t mask = 1;
 204:C:/Workspace/FW_Platform2_5/trunk/PlatformLibrary/LIB_DigitalIO\DigitalInputs.c **** 
 205:C:/Workspace/FW_Platform2_5/trunk/PlatformLibrary/LIB_DigitalIO\DigitalInputs.c **** 	SAFETY_REGION_START();
 206:C:/Workspace/FW_Platform2_5/trunk/PlatformLibrary/LIB_DigitalIO\DigitalInputs.c **** 	SAFETY_DATA_CHECK(DigInputs);
 207:C:/Workspace/FW_Platform2_5/trunk/PlatformLibrary/LIB_DigitalIO\DigitalInputs.c **** 	SAFETY_DATA_CHECK(DigInputsDisable);
 208:C:/Workspace/FW_Platform2_5/trunk/PlatformLibrary/LIB_DigitalIO\DigitalInputs.c **** 
 209:C:/Workspace/FW_Platform2_5/trunk/PlatformLibrary/LIB_DigitalIO\DigitalInputs.c **** 	for ( i = 0; i < DIGINPUT_NUM; i++ )
 210:C:/Workspace/FW_Platform2_5/trunk/PlatformLibrary/LIB_DigitalIO\DigitalInputs.c **** 	{
 211:C:/Workspace/FW_Platform2_5/trunk/PlatformLibrary/LIB_DigitalIO\DigitalInputs.c **** 		if ( DigInputPin[i].s.active == TRUE )
 212:C:/Workspace/FW_Platform2_5/trunk/PlatformLibrary/LIB_DigitalIO\DigitalInputs.c **** 		{
 213:C:/Workspace/FW_Platform2_5/trunk/PlatformLibrary/LIB_DigitalIO\DigitalInputs.c **** 			/* the input is enabled */
 214:C:/Workspace/FW_Platform2_5/trunk/PlatformLibrary/LIB_DigitalIO\DigitalInputs.c **** #ifdef __MULTI_H
 215:C:/Workspace/FW_Platform2_5/trunk/PlatformLibrary/LIB_DigitalIO\DigitalInputs.c **** 			if ( DigInputPin[i].s.readtype )
 216:C:/Workspace/FW_Platform2_5/trunk/PlatformLibrary/LIB_DigitalIO\DigitalInputs.c **** 			{
 217:C:/Workspace/FW_Platform2_5/trunk/PlatformLibrary/LIB_DigitalIO\DigitalInputs.c **** 				/* the input is multiplexed */
 218:C:/Workspace/FW_Platform2_5/trunk/PlatformLibrary/LIB_DigitalIO\DigitalInputs.c **** 
 219:C:/Workspace/FW_Platform2_5/trunk/PlatformLibrary/LIB_DigitalIO\DigitalInputs.c **** 				LIB_IOM_Set_IODir_ActiveSense(DigInputPin[i].s.inversion,DigInputPin[i].s.pin);
 220:C:/Workspace/FW_Platform2_5/trunk/PlatformLibrary/LIB_DigitalIO\DigitalInputs.c **** 				if ( DigInputPin[i].s.pullupEn )
 221:C:/Workspace/FW_Platform2_5/trunk/PlatformLibrary/LIB_DigitalIO\DigitalInputs.c **** 				{
 222:C:/Workspace/FW_Platform2_5/trunk/PlatformLibrary/LIB_DigitalIO\DigitalInputs.c **** 					(void)OCDIO_SetPinPullUpSync(DigInputPin[i].s.pin);
 223:C:/Workspace/FW_Platform2_5/trunk/PlatformLibrary/LIB_DigitalIO\DigitalInputs.c **** 				}
 224:C:/Workspace/FW_Platform2_5/trunk/PlatformLibrary/LIB_DigitalIO\DigitalInputs.c **** 				else
 225:C:/Workspace/FW_Platform2_5/trunk/PlatformLibrary/LIB_DigitalIO\DigitalInputs.c **** 				{
 226:C:/Workspace/FW_Platform2_5/trunk/PlatformLibrary/LIB_DigitalIO\DigitalInputs.c **** 					(void)OCDIO_ResetPinPullUpSync(DigInputPin[i].s.pin);
 227:C:/Workspace/FW_Platform2_5/trunk/PlatformLibrary/LIB_DigitalIO\DigitalInputs.c **** 				}
 228:C:/Workspace/FW_Platform2_5/trunk/PlatformLibrary/LIB_DigitalIO\DigitalInputs.c **** 				/* Mpx Selection */
 229:C:/Workspace/FW_Platform2_5/trunk/PlatformLibrary/LIB_DigitalIO\DigitalInputs.c **** 				PM_setInMux(DigInputPin[i].s.chsel);
 230:C:/Workspace/FW_Platform2_5/trunk/PlatformLibrary/LIB_DigitalIO\DigitalInputs.c **** 			}
 231:C:/Workspace/FW_Platform2_5/trunk/PlatformLibrary/LIB_DigitalIO\DigitalInputs.c **** #endif /* #ifdef __MULTI_H */
 232:C:/Workspace/FW_Platform2_5/trunk/PlatformLibrary/LIB_DigitalIO\DigitalInputs.c **** 
 233:C:/Workspace/FW_Platform2_5/trunk/PlatformLibrary/LIB_DigitalIO\DigitalInputs.c **** #ifdef DIGITAL_LOCAL_FILTER_ENABLED
 234:C:/Workspace/FW_Platform2_5/trunk/PlatformLibrary/LIB_DigitalIO\DigitalInputs.c **** 			if (LIB_DIO_GET_INPUT_F (DigInputPin[i].s.pin, DIGITAL_LOCAL_FILTER_NUM))
 235:C:/Workspace/FW_Platform2_5/trunk/PlatformLibrary/LIB_DigitalIO\DigitalInputs.c **** 			{
 236:C:/Workspace/FW_Platform2_5/trunk/PlatformLibrary/LIB_DigitalIO\DigitalInputs.c **** 				DigInput_val[i]++;
 237:C:/Workspace/FW_Platform2_5/trunk/PlatformLibrary/LIB_DigitalIO\DigitalInputs.c **** 			}
 238:C:/Workspace/FW_Platform2_5/trunk/PlatformLibrary/LIB_DigitalIO\DigitalInputs.c **** #else
 239:C:/Workspace/FW_Platform2_5/trunk/PlatformLibrary/LIB_DigitalIO\DigitalInputs.c **** 			if (LIB_DIO_GET_INPUT (DigInputPin[i].s.pin))
 240:C:/Workspace/FW_Platform2_5/trunk/PlatformLibrary/LIB_DigitalIO\DigitalInputs.c **** 			{
 241:C:/Workspace/FW_Platform2_5/trunk/PlatformLibrary/LIB_DigitalIO\DigitalInputs.c **** 				DigInput_val[i]++;
 242:C:/Workspace/FW_Platform2_5/trunk/PlatformLibrary/LIB_DigitalIO\DigitalInputs.c **** 			}
 243:C:/Workspace/FW_Platform2_5/trunk/PlatformLibrary/LIB_DigitalIO\DigitalInputs.c **** #endif
 244:C:/Workspace/FW_Platform2_5/trunk/PlatformLibrary/LIB_DigitalIO\DigitalInputs.c **** 
 245:C:/Workspace/FW_Platform2_5/trunk/PlatformLibrary/LIB_DigitalIO\DigitalInputs.c **** 			DigInput_c[i]++;
 246:C:/Workspace/FW_Platform2_5/trunk/PlatformLibrary/LIB_DigitalIO\DigitalInputs.c **** 			/* Number of readings to do before making the decision */
 247:C:/Workspace/FW_Platform2_5/trunk/PlatformLibrary/LIB_DigitalIO\DigitalInputs.c **** 			nSamplesOnPin = (uint8_t)(1u<<DigInputPin[i].s.filterPot2);
 248:C:/Workspace/FW_Platform2_5/trunk/PlatformLibrary/LIB_DigitalIO\DigitalInputs.c **** 
 249:C:/Workspace/FW_Platform2_5/trunk/PlatformLibrary/LIB_DigitalIO\DigitalInputs.c **** 			if (DigInput_c[i] >= nSamplesOnPin)
 250:C:/Workspace/FW_Platform2_5/trunk/PlatformLibrary/LIB_DigitalIO\DigitalInputs.c **** 			{
 251:C:/Workspace/FW_Platform2_5/trunk/PlatformLibrary/LIB_DigitalIO\DigitalInputs.c **** 				DigInput_c[i]=0;
 252:C:/Workspace/FW_Platform2_5/trunk/PlatformLibrary/LIB_DigitalIO\DigitalInputs.c **** 
 253:C:/Workspace/FW_Platform2_5/trunk/PlatformLibrary/LIB_DigitalIO\DigitalInputs.c **** 				if ( DigInput_val[i] >= (uint8_t)( nSamplesOnPin-(nSamplesOnPin/4) ) )
 254:C:/Workspace/FW_Platform2_5/trunk/PlatformLibrary/LIB_DigitalIO\DigitalInputs.c **** 				{
 255:C:/Workspace/FW_Platform2_5/trunk/PlatformLibrary/LIB_DigitalIO\DigitalInputs.c **** 					if ((DigInputsDisable & mask) == 0)
 256:C:/Workspace/FW_Platform2_5/trunk/PlatformLibrary/LIB_DigitalIO\DigitalInputs.c **** 					{
 257:C:/Workspace/FW_Platform2_5/trunk/PlatformLibrary/LIB_DigitalIO\DigitalInputs.c **** 						/* The input is enabled so update the final value */
 258:C:/Workspace/FW_Platform2_5/trunk/PlatformLibrary/LIB_DigitalIO\DigitalInputs.c **** 						DigInputs |= (mask);
 259:C:/Workspace/FW_Platform2_5/trunk/PlatformLibrary/LIB_DigitalIO\DigitalInputs.c **** 					}
 260:C:/Workspace/FW_Platform2_5/trunk/PlatformLibrary/LIB_DigitalIO\DigitalInputs.c **** 				}
 261:C:/Workspace/FW_Platform2_5/trunk/PlatformLibrary/LIB_DigitalIO\DigitalInputs.c **** 				else if ( DigInput_val[i] <= (nSamplesOnPin/4) )
 262:C:/Workspace/FW_Platform2_5/trunk/PlatformLibrary/LIB_DigitalIO\DigitalInputs.c **** 				{
 263:C:/Workspace/FW_Platform2_5/trunk/PlatformLibrary/LIB_DigitalIO\DigitalInputs.c **** 					if ((DigInputsDisable & mask) == 0)
 264:C:/Workspace/FW_Platform2_5/trunk/PlatformLibrary/LIB_DigitalIO\DigitalInputs.c **** 					{
 265:C:/Workspace/FW_Platform2_5/trunk/PlatformLibrary/LIB_DigitalIO\DigitalInputs.c **** 						/* The input is enabled so update the final value */
 266:C:/Workspace/FW_Platform2_5/trunk/PlatformLibrary/LIB_DigitalIO\DigitalInputs.c **** 						DigInputs &= (dig_input_t)(~(uint32_t)mask);
 267:C:/Workspace/FW_Platform2_5/trunk/PlatformLibrary/LIB_DigitalIO\DigitalInputs.c **** 					}
 268:C:/Workspace/FW_Platform2_5/trunk/PlatformLibrary/LIB_DigitalIO\DigitalInputs.c **** 				}
 269:C:/Workspace/FW_Platform2_5/trunk/PlatformLibrary/LIB_DigitalIO\DigitalInputs.c **** 				else
 270:C:/Workspace/FW_Platform2_5/trunk/PlatformLibrary/LIB_DigitalIO\DigitalInputs.c **** 				{
 271:C:/Workspace/FW_Platform2_5/trunk/PlatformLibrary/LIB_DigitalIO\DigitalInputs.c **** 					/* stay with the old value */
 272:C:/Workspace/FW_Platform2_5/trunk/PlatformLibrary/LIB_DigitalIO\DigitalInputs.c **** 				}
 273:C:/Workspace/FW_Platform2_5/trunk/PlatformLibrary/LIB_DigitalIO\DigitalInputs.c **** 
 274:C:/Workspace/FW_Platform2_5/trunk/PlatformLibrary/LIB_DigitalIO\DigitalInputs.c **** 				DigInputsReady |= (mask);
 275:C:/Workspace/FW_Platform2_5/trunk/PlatformLibrary/LIB_DigitalIO\DigitalInputs.c **** 
 276:C:/Workspace/FW_Platform2_5/trunk/PlatformLibrary/LIB_DigitalIO\DigitalInputs.c **** 				DigInput_val[i]=0;
 277:C:/Workspace/FW_Platform2_5/trunk/PlatformLibrary/LIB_DigitalIO\DigitalInputs.c **** 			}
 278:C:/Workspace/FW_Platform2_5/trunk/PlatformLibrary/LIB_DigitalIO\DigitalInputs.c **** 		}
 279:C:/Workspace/FW_Platform2_5/trunk/PlatformLibrary/LIB_DigitalIO\DigitalInputs.c **** 		mask = (dig_input_t)( mask << 1 );
 280:C:/Workspace/FW_Platform2_5/trunk/PlatformLibrary/LIB_DigitalIO\DigitalInputs.c **** 
 281:C:/Workspace/FW_Platform2_5/trunk/PlatformLibrary/LIB_DigitalIO\DigitalInputs.c **** 	}
 282:C:/Workspace/FW_Platform2_5/trunk/PlatformLibrary/LIB_DigitalIO\DigitalInputs.c **** 	SAFETY_DATA_UPDATE( DigInputs );
 283:C:/Workspace/FW_Platform2_5/trunk/PlatformLibrary/LIB_DigitalIO\DigitalInputs.c **** 	SAFETY_REGION_END();
 284:C:/Workspace/FW_Platform2_5/trunk/PlatformLibrary/LIB_DigitalIO\DigitalInputs.c **** }
 285:C:/Workspace/FW_Platform2_5/trunk/PlatformLibrary/LIB_DigitalIO\DigitalInputs.c **** 
 286:C:/Workspace/FW_Platform2_5/trunk/PlatformLibrary/LIB_DigitalIO\DigitalInputs.c **** /**
 287:C:/Workspace/FW_Platform2_5/trunk/PlatformLibrary/LIB_DigitalIO\DigitalInputs.c **** \n Fixed the pin index inside the Module IO Map return it's value.
 288:C:/Workspace/FW_Platform2_5/trunk/PlatformLibrary/LIB_DigitalIO\DigitalInputs.c **** \n real value if there isn't inversion, otherwise inverted value.
 289:C:/Workspace/FW_Platform2_5/trunk/PlatformLibrary/LIB_DigitalIO\DigitalInputs.c **** 
 290:C:/Workspace/FW_Platform2_5/trunk/PlatformLibrary/LIB_DigitalIO\DigitalInputs.c **** \param  [in] pin pin index of ModuleIOmap.
 291:C:/Workspace/FW_Platform2_5/trunk/PlatformLibrary/LIB_DigitalIO\DigitalInputs.c **** 
 292:C:/Workspace/FW_Platform2_5/trunk/PlatformLibrary/LIB_DigitalIO\DigitalInputs.c **** \return 	bool_t
 293:C:/Workspace/FW_Platform2_5/trunk/PlatformLibrary/LIB_DigitalIO\DigitalInputs.c **** 
 294:C:/Workspace/FW_Platform2_5/trunk/PlatformLibrary/LIB_DigitalIO\DigitalInputs.c **** \retval		input pin value.
 295:C:/Workspace/FW_Platform2_5/trunk/PlatformLibrary/LIB_DigitalIO\DigitalInputs.c **** 
 296:C:/Workspace/FW_Platform2_5/trunk/PlatformLibrary/LIB_DigitalIO\DigitalInputs.c **** \author 	Stefano Ughi
 297:C:/Workspace/FW_Platform2_5/trunk/PlatformLibrary/LIB_DigitalIO\DigitalInputs.c **** \date		17/10/2010
 298:C:/Workspace/FW_Platform2_5/trunk/PlatformLibrary/LIB_DigitalIO\DigitalInputs.c **** \version	1.0.0
 299:C:/Workspace/FW_Platform2_5/trunk/PlatformLibrary/LIB_DigitalIO\DigitalInputs.c **** 
 300:C:/Workspace/FW_Platform2_5/trunk/PlatformLibrary/LIB_DigitalIO\DigitalInputs.c **** */
 301:C:/Workspace/FW_Platform2_5/trunk/PlatformLibrary/LIB_DigitalIO\DigitalInputs.c **** bool_t LIB_DIO_GET_INPUT( uint8_t pin )
 302:C:/Workspace/FW_Platform2_5/trunk/PlatformLibrary/LIB_DigitalIO\DigitalInputs.c **** {
  97                             		.loc 1 302 0
  98                             	.LVL7:
  99 0000 6E 7A                   		pushm	r7-r10
 100                             	.LCFI0:
 101                             		.loc 1 302 0
 102 0002 CF 1A                   		mov.B	r1, r10
 303:C:/Workspace/FW_Platform2_5/trunk/PlatformLibrary/LIB_DigitalIO\DigitalInputs.c **** 	bool_t pinValue;
 304:C:/Workspace/FW_Platform2_5/trunk/PlatformLibrary/LIB_DigitalIO\DigitalInputs.c **** 	bool_t pinSensing;
 305:C:/Workspace/FW_Platform2_5/trunk/PlatformLibrary/LIB_DigitalIO\DigitalInputs.c **** 
 306:C:/Workspace/FW_Platform2_5/trunk/PlatformLibrary/LIB_DigitalIO\DigitalInputs.c **** 	pinValue = OCDIO_GetPinValueSync(pin);
 103                             		.loc 1 306 0
 104 0004 05 00 00 00             		bsr	_OCDIO_GetPinValueSync
 105                             	.LVL8:
 106 0008 EF 17                   		mov.L	r1, r7
 107                             	.LVL9:
 307:C:/Workspace/FW_Platform2_5/trunk/PlatformLibrary/LIB_DigitalIO\DigitalInputs.c **** 
 308:C:/Workspace/FW_Platform2_5/trunk/PlatformLibrary/LIB_DigitalIO\DigitalInputs.c **** 	pinSensing = LIB_IOM_Get_IODir_ActiveSense(pin);
 108                             		.loc 1 308 0
 109 000a CF A1                   		mov.B	r10, r1
 110                             	.LVL10:
 111 000c 05 00 00 00             		bsr	_LIB_IOM_Get_IODir_ActiveSense
 112                             	.LVL11:
 309:C:/Workspace/FW_Platform2_5/trunk/PlatformLibrary/LIB_DigitalIO\DigitalInputs.c **** 
 310:C:/Workspace/FW_Platform2_5/trunk/PlatformLibrary/LIB_DigitalIO\DigitalInputs.c **** 	return ( (bool_t)(pinValue ^ pinSensing) );
 311:C:/Workspace/FW_Platform2_5/trunk/PlatformLibrary/LIB_DigitalIO\DigitalInputs.c **** }
 113                             		.loc 1 311 0
 114 0010 FC 37 71                		xor	r7, r1
 115                             	.LVL12:
 116 0013 3F 7A 04                		rtsd	#16, r7-r10
 117                             	.LFE3:
 119                             		.section	.text.LIB_DIO_GET_INPUT_F,"ax",@progbits
 120                             		.global	_LIB_DIO_GET_INPUT_F
 122                             	_LIB_DIO_GET_INPUT_F:
 123                             	.LFB4:
 312:C:/Workspace/FW_Platform2_5/trunk/PlatformLibrary/LIB_DigitalIO\DigitalInputs.c **** /**
 313:C:/Workspace/FW_Platform2_5/trunk/PlatformLibrary/LIB_DigitalIO\DigitalInputs.c **** \n Fixed the pin index inside the Module IO Map return it's value.
 314:C:/Workspace/FW_Platform2_5/trunk/PlatformLibrary/LIB_DigitalIO\DigitalInputs.c **** \n real value if there isn't inversion, otherwise inverted value
 315:C:/Workspace/FW_Platform2_5/trunk/PlatformLibrary/LIB_DigitalIO\DigitalInputs.c **** \n Reading is filtered with filter value equal to filterValue [range 0-127]
 316:C:/Workspace/FW_Platform2_5/trunk/PlatformLibrary/LIB_DigitalIO\DigitalInputs.c **** \n The decision on the fact that the value of the pin is high or low is made by a majority.
 317:C:/Workspace/FW_Platform2_5/trunk/PlatformLibrary/LIB_DigitalIO\DigitalInputs.c **** 
 318:C:/Workspace/FW_Platform2_5/trunk/PlatformLibrary/LIB_DigitalIO\DigitalInputs.c **** \param  [in] pin pin index of ModuleIOmap.
 319:C:/Workspace/FW_Platform2_5/trunk/PlatformLibrary/LIB_DigitalIO\DigitalInputs.c **** \param  [in] filterValue number of samples to collect.
 320:C:/Workspace/FW_Platform2_5/trunk/PlatformLibrary/LIB_DigitalIO\DigitalInputs.c **** 
 321:C:/Workspace/FW_Platform2_5/trunk/PlatformLibrary/LIB_DigitalIO\DigitalInputs.c **** \return 	bool_t
 322:C:/Workspace/FW_Platform2_5/trunk/PlatformLibrary/LIB_DigitalIO\DigitalInputs.c **** 
 323:C:/Workspace/FW_Platform2_5/trunk/PlatformLibrary/LIB_DigitalIO\DigitalInputs.c **** \retval		input pin value.
 324:C:/Workspace/FW_Platform2_5/trunk/PlatformLibrary/LIB_DigitalIO\DigitalInputs.c **** 
 325:C:/Workspace/FW_Platform2_5/trunk/PlatformLibrary/LIB_DigitalIO\DigitalInputs.c **** 
 326:C:/Workspace/FW_Platform2_5/trunk/PlatformLibrary/LIB_DigitalIO\DigitalInputs.c **** \author 	Stefano Ughi
 327:C:/Workspace/FW_Platform2_5/trunk/PlatformLibrary/LIB_DigitalIO\DigitalInputs.c **** \date		18/10/2010
 328:C:/Workspace/FW_Platform2_5/trunk/PlatformLibrary/LIB_DigitalIO\DigitalInputs.c **** \version	1.0.0
 329:C:/Workspace/FW_Platform2_5/trunk/PlatformLibrary/LIB_DigitalIO\DigitalInputs.c **** 
 330:C:/Workspace/FW_Platform2_5/trunk/PlatformLibrary/LIB_DigitalIO\DigitalInputs.c **** */
 331:C:/Workspace/FW_Platform2_5/trunk/PlatformLibrary/LIB_DigitalIO\DigitalInputs.c **** bool_t LIB_DIO_GET_INPUT_F( uint8_t pin, int8_t filterValue )
 332:C:/Workspace/FW_Platform2_5/trunk/PlatformLibrary/LIB_DigitalIO\DigitalInputs.c **** {
 124                             		.loc 1 332 0
 125                             	.LVL13:
 126 0000 6E 7B                   		pushm	r7-r11
 127                             	.LCFI1:
 128                             		.loc 1 332 0
 129 0002 CF 1B                   		mov.B	r1, r11
 130 0004 CF 2A                   		mov.B	r2, r10
 333:C:/Workspace/FW_Platform2_5/trunk/PlatformLibrary/LIB_DigitalIO\DigitalInputs.c **** 	int8_t value=0;
 131                             		.loc 1 333 0
 132 0006 66 07                   		mov	#0, r7
 334:C:/Workspace/FW_Platform2_5/trunk/PlatformLibrary/LIB_DigitalIO\DigitalInputs.c **** 
 335:C:/Workspace/FW_Platform2_5/trunk/PlatformLibrary/LIB_DigitalIO\DigitalInputs.c **** 	while ( filterValue >= 0 )
 133                             		.loc 1 335 0
 134 0008 2E 14                   		bra	.L8
 135                             	.LVL14:
 136                             	.L11:
 336:C:/Workspace/FW_Platform2_5/trunk/PlatformLibrary/LIB_DigitalIO\DigitalInputs.c **** 	{
 337:C:/Workspace/FW_Platform2_5/trunk/PlatformLibrary/LIB_DigitalIO\DigitalInputs.c **** 		if ( LIB_DIO_GET_INPUT( pin ) )
 137                             		.loc 1 337 0
 138 000a CF B1                   		mov.B	r11, r1
 139 000c 05 00 00 00             		bsr	_LIB_DIO_GET_INPUT
 140                             	.LVL15:
 141 0010 61 01                   		cmp	#0, r1
 142 0012 20 06                   		beq	.L9
 338:C:/Workspace/FW_Platform2_5/trunk/PlatformLibrary/LIB_DigitalIO\DigitalInputs.c **** 		{
 339:C:/Workspace/FW_Platform2_5/trunk/PlatformLibrary/LIB_DigitalIO\DigitalInputs.c **** 			value ++;
 143                             		.loc 1 339 0
 144 0014 62 17                   		add	#1, r7
 145                             	.LVL16:
 146 0016 2E 04                   		bra	.L10
 147                             	.L9:
 340:C:/Workspace/FW_Platform2_5/trunk/PlatformLibrary/LIB_DigitalIO\DigitalInputs.c **** 		}
 341:C:/Workspace/FW_Platform2_5/trunk/PlatformLibrary/LIB_DigitalIO\DigitalInputs.c **** 		else
 342:C:/Workspace/FW_Platform2_5/trunk/PlatformLibrary/LIB_DigitalIO\DigitalInputs.c **** 		{
 343:C:/Workspace/FW_Platform2_5/trunk/PlatformLibrary/LIB_DigitalIO\DigitalInputs.c **** 			value --;
 148                             		.loc 1 343 0
 149 0018 60 17                   		sub	#1, r7
 150                             	.LVL17:
 151                             		.balign 2,3,1
 152                             	.L10:
 344:C:/Workspace/FW_Platform2_5/trunk/PlatformLibrary/LIB_DigitalIO\DigitalInputs.c **** 		}
 345:C:/Workspace/FW_Platform2_5/trunk/PlatformLibrary/LIB_DigitalIO\DigitalInputs.c **** 		filterValue --;
 153                             		.loc 1 345 0
 154 001a 60 1A                   		sub	#1, r10
 155                             	.LVL18:
 156                             		.balign 2,3,1
 157                             	.L8:
 335:C:/Workspace/FW_Platform2_5/trunk/PlatformLibrary/LIB_DigitalIO\DigitalInputs.c **** 	while ( filterValue >= 0 )
 158                             		.loc 1 335 0 discriminator 1
 159 001c CF AE                   		mov.B	r10, r14
 160 001e 61 0E                   		cmp	#0, r14
 161 0020 28 EA                   		bge	.L11
 346:C:/Workspace/FW_Platform2_5/trunk/PlatformLibrary/LIB_DigitalIO\DigitalInputs.c **** 	}
 347:C:/Workspace/FW_Platform2_5/trunk/PlatformLibrary/LIB_DigitalIO\DigitalInputs.c **** 
 348:C:/Workspace/FW_Platform2_5/trunk/PlatformLibrary/LIB_DigitalIO\DigitalInputs.c **** 	if ( value > 0 )
 162                             		.loc 1 348 0
 163 0022 CF 71                   		mov.B	r7, r1
 349:C:/Workspace/FW_Platform2_5/trunk/PlatformLibrary/LIB_DigitalIO\DigitalInputs.c **** 	{
 350:C:/Workspace/FW_Platform2_5/trunk/PlatformLibrary/LIB_DigitalIO\DigitalInputs.c **** 		return 1;
 351:C:/Workspace/FW_Platform2_5/trunk/PlatformLibrary/LIB_DigitalIO\DigitalInputs.c **** 	}
 352:C:/Workspace/FW_Platform2_5/trunk/PlatformLibrary/LIB_DigitalIO\DigitalInputs.c **** 	else
 353:C:/Workspace/FW_Platform2_5/trunk/PlatformLibrary/LIB_DigitalIO\DigitalInputs.c **** 	{
 354:C:/Workspace/FW_Platform2_5/trunk/PlatformLibrary/LIB_DigitalIO\DigitalInputs.c **** 		return 0;
 355:C:/Workspace/FW_Platform2_5/trunk/PlatformLibrary/LIB_DigitalIO\DigitalInputs.c **** 	}
 356:C:/Workspace/FW_Platform2_5/trunk/PlatformLibrary/LIB_DigitalIO\DigitalInputs.c **** }
 164                             		.loc 1 356 0
 165 0024 61 01                   		cmp	#0, r1
 166 0026 FC DB 1A                		scgt.L	r1
 167 0029 3F 7B 05                		rtsd	#20, r7-r11
 168                             	.LFE4:
 170                             		.section	.text.LIB_DIO_DigInputManager,"ax",@progbits
 171                             		.global	_LIB_DIO_DigInputManager
 173                             	_LIB_DIO_DigInputManager:
 174                             	.LFB2:
 200:C:/Workspace/FW_Platform2_5/trunk/PlatformLibrary/LIB_DigitalIO\DigitalInputs.c **** {
 175                             		.loc 1 200 0
 176                             	.LVL19:
 177 0000 6E 7D                   		pushm	r7-r13
 178                             	.LCFI2:
 179 0002 FB B2 00 00 00 00       		mov.L	#_DigInput_val, r11
 180 0008 FB C2 00 00 00 00       		mov.L	#_DigInput_c, r12
 200:C:/Workspace/FW_Platform2_5/trunk/PlatformLibrary/LIB_DigitalIO\DigitalInputs.c **** {
 181                             		.loc 1 200 0
 182 000e 66 0A                   		mov.L	#0, r10
 203:C:/Workspace/FW_Platform2_5/trunk/PlatformLibrary/LIB_DigitalIO\DigitalInputs.c **** 	dig_input_t mask = 1;
 183                             		.loc 1 203 0
 184 0010 66 17                   		mov	#1, r7
 247:C:/Workspace/FW_Platform2_5/trunk/PlatformLibrary/LIB_DigitalIO\DigitalInputs.c **** 			nSamplesOnPin = (uint8_t)(1u<<DigInputPin[i].s.filterPot2);
 185                             		.loc 1 247 0
 186 0012 66 18                   		mov.L	#1, r8
 274:C:/Workspace/FW_Platform2_5/trunk/PlatformLibrary/LIB_DigitalIO\DigitalInputs.c **** 				DigInputsReady |= (mask);
 187                             		.loc 1 274 0
 188 0014 FB D2 00 00 00 00       		mov.L	#_DigInputsReady, r13
 263:C:/Workspace/FW_Platform2_5/trunk/PlatformLibrary/LIB_DigitalIO\DigitalInputs.c **** 					if ((DigInputsDisable & mask) == 0)
 189                             		.loc 1 263 0
 190 001a FB 92 00 00 00 00       		mov.L	#_DigInputsDisable, r9
 191                             	.LVL20:
 192                             		.balign 2,3,2
 193                             	.L20:
 211:C:/Workspace/FW_Platform2_5/trunk/PlatformLibrary/LIB_DigitalIO\DigitalInputs.c **** 		if ( DigInputPin[i].s.active == TRUE )
 194                             		.loc 1 211 0
 195 0020 FF 2E AA                		add	r10, r10, r14
 196 0023 70 EE 00 00 00 00       		add	#_DigInputPin, r14
 197 0029 5C E1                   		movu.W	[r14], r1
 198 002b FD 8F 1E                		shlr	#15, r1, r14
 199 002e 61 1E                   		cmp	#1, r14
 200 0030 3B 8E 00                		bne	.L15
 234:C:/Workspace/FW_Platform2_5/trunk/PlatformLibrary/LIB_DigitalIO\DigitalInputs.c **** 			if (LIB_DIO_GET_INPUT_F (DigInputPin[i].s.pin, DIGITAL_LOCAL_FILTER_NUM))
 201                             		.loc 1 234 0
 202 0033 68 21                   		shlr	#2, r1
 203 0035 75 21 3F                		and	#63, r1
 204 0038 66 82                   		mov	#8, r2
 205 003a 05 00 00 00             		bsr	_LIB_DIO_GET_INPUT_F
 206                             	.LVL21:
 207 003e 61 01                   		cmp	#0, r1
 208 0040 20 08                   		beq	.L16
 236:C:/Workspace/FW_Platform2_5/trunk/PlatformLibrary/LIB_DigitalIO\DigitalInputs.c **** 				DigInput_val[i]++;
 209                             		.loc 1 236 0
 210 0042 CC BE                   		mov.B	[r11], r14
 211 0044 62 1E                   		add	#1, r14
 212 0046 C3 BE                   		mov.B	r14, [r11]
 213                             		.balign 2,3,5
 214                             	.L16:
 245:C:/Workspace/FW_Platform2_5/trunk/PlatformLibrary/LIB_DigitalIO\DigitalInputs.c **** 			DigInput_c[i]++;
 215                             		.loc 1 245 0
 216 0048 CC C4                   		mov.B	[r12], r4
 247:C:/Workspace/FW_Platform2_5/trunk/PlatformLibrary/LIB_DigitalIO\DigitalInputs.c **** 			nSamplesOnPin = (uint8_t)(1u<<DigInputPin[i].s.filterPot2);
 217                             		.loc 1 247 0
 218 004a FF 2E AA                		add	r10, r10, r14
 245:C:/Workspace/FW_Platform2_5/trunk/PlatformLibrary/LIB_DigitalIO\DigitalInputs.c **** 			DigInput_c[i]++;
 219                             		.loc 1 245 0
 220 004d 62 14                   		add	#1, r4
 221 004f C3 C4                   		mov.B	r4, [r12]
 247:C:/Workspace/FW_Platform2_5/trunk/PlatformLibrary/LIB_DigitalIO\DigitalInputs.c **** 			nSamplesOnPin = (uint8_t)(1u<<DigInputPin[i].s.filterPot2);
 222                             		.loc 1 247 0
 223 0051 70 EE 00 00 00 00       		add	#_DigInputPin, r14
 224 0057 5C EE                   		movu.W	[r14], r14
 225 0059 EF 83                   		mov.L	r8, r3
 226 005b 68 BE                   		shlr	#11, r14
 227 005d 64 7E                   		and	#7, r14
 228 005f FD 62 E3                		shll	r14, r3
 229 0062 EF 3E                   		mov.L	r3, r14
 230                             	.LVL22:
 249:C:/Workspace/FW_Platform2_5/trunk/PlatformLibrary/LIB_DigitalIO\DigitalInputs.c **** 			if (DigInput_c[i] >= nSamplesOnPin)
 231                             		.loc 1 249 0
 232 0064 5B 43                   		movu.B	r4, r3
 233                             	.LVL23:
 234 0066 5B E4                   		movu.B	r14, r4
 235 0068 47 43                   		cmp	r4, r3
 236 006a 23 54                   		bltu	.L15
 253:C:/Workspace/FW_Platform2_5/trunk/PlatformLibrary/LIB_DigitalIO\DigitalInputs.c **** 				if ( DigInput_val[i] >= (uint8_t)( nSamplesOnPin-(nSamplesOnPin/4) ) )
 237                             		.loc 1 253 0
 238 006c 68 24                   		shlr	#2, r4
 239 006e 43 4E                   		sub	r4, r14
 240                             	.LVL24:
 241 0070 CF 43                   		mov.B	r4, r3
 242 0072 58 B4                   		movu.B	[r11], r4
 243 0074 5B EE                   		movu.B	r14, r14
 251:C:/Workspace/FW_Platform2_5/trunk/PlatformLibrary/LIB_DigitalIO\DigitalInputs.c **** 				DigInput_c[i]=0;
 244                             		.loc 1 251 0
 245 0076 F8 C4 00                		mov.B	#0, [r12]
 253:C:/Workspace/FW_Platform2_5/trunk/PlatformLibrary/LIB_DigitalIO\DigitalInputs.c **** 				if ( DigInput_val[i] >= (uint8_t)( nSamplesOnPin-(nSamplesOnPin/4) ) )
 246                             		.loc 1 253 0
 247 0079 47 E4                   		cmp	r14, r4
 248 007b 23 18                   		bltu	.L18
 255:C:/Workspace/FW_Platform2_5/trunk/PlatformLibrary/LIB_DigitalIO\DigitalInputs.c **** 					if ((DigInputsDisable & mask) == 0)
 249                             		.loc 1 255 0
 250 007d CC 9E                   		mov.B	[r9], r14
 251 007f 53 7E                   		and	r7, r14
 252 0081 5B EE                   		movu.B	r14, r14
 253 0083 61 0E                   		cmp	#0, r14
 254 0085 21 2F                   		bne	.L19
 258:C:/Workspace/FW_Platform2_5/trunk/PlatformLibrary/LIB_DigitalIO\DigitalInputs.c **** 						DigInputs |= (mask);
 255                             		.loc 1 258 0
 256 0087 FB E2 00 00 00 00       		mov.L	#_DigInputs, r14
 257 008d CC E4                   		mov.B	[r14], r4
 258 008f 57 74                   		or	r7, r4
 259 0091 2E 21                   		bra	.L26
 260                             	.L18:
 261:C:/Workspace/FW_Platform2_5/trunk/PlatformLibrary/LIB_DigitalIO\DigitalInputs.c **** 				else if ( DigInput_val[i] <= (nSamplesOnPin/4) )
 261                             		.loc 1 261 0
 262 0093 5B 3E                   		movu.B	r3, r14
 263 0095 47 E4                   		cmp	r14, r4
 264 0097 24 1D                   		bgtu	.L19
 263:C:/Workspace/FW_Platform2_5/trunk/PlatformLibrary/LIB_DigitalIO\DigitalInputs.c **** 					if ((DigInputsDisable & mask) == 0)
 265                             		.loc 1 263 0
 266 0099 CC 9E                   		mov.B	[r9], r14
 267 009b 53 7E                   		and	r7, r14
 268 009d 5B EE                   		movu.B	r14, r14
 269 009f 61 0E                   		cmp	#0, r14
 270 00a1 21 13                   		bne	.L19
 266:C:/Workspace/FW_Platform2_5/trunk/PlatformLibrary/LIB_DigitalIO\DigitalInputs.c **** 						DigInputs &= (dig_input_t)(~(uint32_t)mask);
 271                             		.loc 1 266 0
 272 00a3 FB E2 00 00 00 00       		mov.L	#_DigInputs, r14
 273 00a9 EF 73                   		mov.L	r7, r3
 274 00ab CC E4                   		mov.B	[r14], r4
 275 00ad 7E 03                   		not	r3
 276 00af 53 34                   		and	r3, r4
 277 00b1 03                      		.balign 2,3,1
 278                             	.L26:
 279 00b2 C3 E4                   		mov.B	r4, [r14]
 280                             		.balign 2,3,5
 281                             	.L19:
 274:C:/Workspace/FW_Platform2_5/trunk/PlatformLibrary/LIB_DigitalIO\DigitalInputs.c **** 				DigInputsReady |= (mask);
 282                             		.loc 1 274 0
 283 00b4 CC DE                   		mov.B	[r13], r14
 276:C:/Workspace/FW_Platform2_5/trunk/PlatformLibrary/LIB_DigitalIO\DigitalInputs.c **** 				DigInput_val[i]=0;
 284                             		.loc 1 276 0
 285 00b6 F8 B4 00                		mov.B	#0, [r11]
 274:C:/Workspace/FW_Platform2_5/trunk/PlatformLibrary/LIB_DigitalIO\DigitalInputs.c **** 				DigInputsReady |= (mask);
 286                             		.loc 1 274 0
 287 00b9 57 7E                   		or	r7, r14
 288 00bb C3 DE                   		mov.B	r14, [r13]
 289                             	.LVL25:
 290 00bd 03                      		.balign 2,3,1
 291                             	.L15:
 279:C:/Workspace/FW_Platform2_5/trunk/PlatformLibrary/LIB_DigitalIO\DigitalInputs.c **** 		mask = (dig_input_t)( mask << 1 );
 292                             		.loc 1 279 0
 293 00be EF 74                   		mov.L	r7, r4
 294 00c0 4B 74                   		add	r7, r4
 295 00c2 62 1A                   		add	#1, r10
 296 00c4 62 1B                   		add	#1, r11
 297 00c6 62 1C                   		add	#1, r12
 209:C:/Workspace/FW_Platform2_5/trunk/PlatformLibrary/LIB_DigitalIO\DigitalInputs.c **** 	for ( i = 0; i < DIGINPUT_NUM; i++ )
 298                             		.loc 1 209 0
 299 00c8 61 8A                   		cmp	#8, r10
 279:C:/Workspace/FW_Platform2_5/trunk/PlatformLibrary/LIB_DigitalIO\DigitalInputs.c **** 		mask = (dig_input_t)( mask << 1 );
 300                             		.loc 1 279 0
 301 00ca EF 47                   		mov.L	r4, r7
 302                             	.LVL26:
 209:C:/Workspace/FW_Platform2_5/trunk/PlatformLibrary/LIB_DigitalIO\DigitalInputs.c **** 	for ( i = 0; i < DIGINPUT_NUM; i++ )
 303                             		.loc 1 209 0
 304 00cc 3B 54 FF                		bne	.L20
 284:C:/Workspace/FW_Platform2_5/trunk/PlatformLibrary/LIB_DigitalIO\DigitalInputs.c **** }
 305                             		.loc 1 284 0
 306 00cf 3F 7D 07                		rtsd	#28, r7-r13
 307                             	.LFE2:
 309                             		.section	.text.LIB_DIO_AreDigInputsReady,"ax",@progbits
 310                             		.global	_LIB_DIO_AreDigInputsReady
 312                             	_LIB_DIO_AreDigInputsReady:
 313                             	.LFB5:
 357:C:/Workspace/FW_Platform2_5/trunk/PlatformLibrary/LIB_DigitalIO\DigitalInputs.c **** 
 358:C:/Workspace/FW_Platform2_5/trunk/PlatformLibrary/LIB_DigitalIO\DigitalInputs.c **** /**
 359:C:/Workspace/FW_Platform2_5/trunk/PlatformLibrary/LIB_DigitalIO\DigitalInputs.c **** \n The function returns TRUE if all active digital inputs are ready otherwise FALSE.
 360:C:/Workspace/FW_Platform2_5/trunk/PlatformLibrary/LIB_DigitalIO\DigitalInputs.c **** 
 361:C:/Workspace/FW_Platform2_5/trunk/PlatformLibrary/LIB_DigitalIO\DigitalInputs.c **** \attention \b DigInputPin[] (global) Input Description.
 362:C:/Workspace/FW_Platform2_5/trunk/PlatformLibrary/LIB_DigitalIO\DigitalInputs.c **** \attention \b DigInputsReady (global) bit map, bit i -> result of the input in pos. i is ready.
 363:C:/Workspace/FW_Platform2_5/trunk/PlatformLibrary/LIB_DigitalIO\DigitalInputs.c **** 
 364:C:/Workspace/FW_Platform2_5/trunk/PlatformLibrary/LIB_DigitalIO\DigitalInputs.c **** \return 	bool_t
 365:C:/Workspace/FW_Platform2_5/trunk/PlatformLibrary/LIB_DigitalIO\DigitalInputs.c **** 
 366:C:/Workspace/FW_Platform2_5/trunk/PlatformLibrary/LIB_DigitalIO\DigitalInputs.c **** \retval		TRUE
 367:C:/Workspace/FW_Platform2_5/trunk/PlatformLibrary/LIB_DigitalIO\DigitalInputs.c **** \retval     FALSE
 368:C:/Workspace/FW_Platform2_5/trunk/PlatformLibrary/LIB_DigitalIO\DigitalInputs.c **** 
 369:C:/Workspace/FW_Platform2_5/trunk/PlatformLibrary/LIB_DigitalIO\DigitalInputs.c **** \author 	Stefano Ughi
 370:C:/Workspace/FW_Platform2_5/trunk/PlatformLibrary/LIB_DigitalIO\DigitalInputs.c **** \date		09/07/2010
 371:C:/Workspace/FW_Platform2_5/trunk/PlatformLibrary/LIB_DigitalIO\DigitalInputs.c **** \version	1.0.0
 372:C:/Workspace/FW_Platform2_5/trunk/PlatformLibrary/LIB_DigitalIO\DigitalInputs.c **** 
 373:C:/Workspace/FW_Platform2_5/trunk/PlatformLibrary/LIB_DigitalIO\DigitalInputs.c **** 
 374:C:/Workspace/FW_Platform2_5/trunk/PlatformLibrary/LIB_DigitalIO\DigitalInputs.c **** */
 375:C:/Workspace/FW_Platform2_5/trunk/PlatformLibrary/LIB_DigitalIO\DigitalInputs.c **** 
 376:C:/Workspace/FW_Platform2_5/trunk/PlatformLibrary/LIB_DigitalIO\DigitalInputs.c **** bool_t LIB_DIO_AreDigInputsReady(void)
 377:C:/Workspace/FW_Platform2_5/trunk/PlatformLibrary/LIB_DigitalIO\DigitalInputs.c **** {
 314                             		.loc 1 377 0
 315                             	.LVL27:
 378:C:/Workspace/FW_Platform2_5/trunk/PlatformLibrary/LIB_DigitalIO\DigitalInputs.c **** 	uint8_t i;
 379:C:/Workspace/FW_Platform2_5/trunk/PlatformLibrary/LIB_DigitalIO\DigitalInputs.c **** 
 380:C:/Workspace/FW_Platform2_5/trunk/PlatformLibrary/LIB_DigitalIO\DigitalInputs.c **** 	for ( i = 0; i < DIGINPUT_NUM; i++ )
 381:C:/Workspace/FW_Platform2_5/trunk/PlatformLibrary/LIB_DigitalIO\DigitalInputs.c **** 	{
 382:C:/Workspace/FW_Platform2_5/trunk/PlatformLibrary/LIB_DigitalIO\DigitalInputs.c **** 		if ( DigInputPin[i].s.active )
 383:C:/Workspace/FW_Platform2_5/trunk/PlatformLibrary/LIB_DigitalIO\DigitalInputs.c **** 		{
 384:C:/Workspace/FW_Platform2_5/trunk/PlatformLibrary/LIB_DigitalIO\DigitalInputs.c **** 			if ( 0 == ( DigInputsReady & ( ( (dig_input_t)1u ) << i ) ) )
 316                             		.loc 1 384 0
 317 0000 FB E2 00 00 00 00       		mov.L	#_DigInputsReady, r14
 318 0006 58 E4                   		movu.B	[r14], r4
 319 0008 66 0E                   		mov.L	#0, r14
 320                             	.LVL28:
 321                             		.balign 2,3,2
 322                             	.L30:
 382:C:/Workspace/FW_Platform2_5/trunk/PlatformLibrary/LIB_DigitalIO\DigitalInputs.c **** 		if ( DigInputPin[i].s.active )
 323                             		.loc 1 382 0
 324 000a FF 23 EE                		add	r14, r14, r3
 325 000d 70 33 00 00 00 00       		add	#_DigInputPin, r3
 326 0013 DC 33                   		mov.W	[r3], r3
 327 0015 61 03                   		cmp	#0, r3
 328 0017 28 0B                   		bge	.L28
 329                             		.loc 1 384 0
 330 0019 EF 41                   		mov.L	r4, r1
 331 001b FD 61 E1                		shar	r14, r1
 332 001e 64 11                   		and	#1, r1
 333 0020 20 0A                   		beq	.L29
 334                             		.balign 2,3,1
 335                             	.L28:
 336 0022 62 1E                   		add	#1, r14
 380:C:/Workspace/FW_Platform2_5/trunk/PlatformLibrary/LIB_DigitalIO\DigitalInputs.c **** 	for ( i = 0; i < DIGINPUT_NUM; i++ )
 337                             		.loc 1 380 0
 338 0024 61 8E                   		cmp	#8, r14
 339 0026 21 E4                   		bne	.L30
 385:C:/Workspace/FW_Platform2_5/trunk/PlatformLibrary/LIB_DigitalIO\DigitalInputs.c **** 			{
 386:C:/Workspace/FW_Platform2_5/trunk/PlatformLibrary/LIB_DigitalIO\DigitalInputs.c **** 				return (FALSE);
 387:C:/Workspace/FW_Platform2_5/trunk/PlatformLibrary/LIB_DigitalIO\DigitalInputs.c **** 			}
 388:C:/Workspace/FW_Platform2_5/trunk/PlatformLibrary/LIB_DigitalIO\DigitalInputs.c **** 		}
 389:C:/Workspace/FW_Platform2_5/trunk/PlatformLibrary/LIB_DigitalIO\DigitalInputs.c **** 	}
 390:C:/Workspace/FW_Platform2_5/trunk/PlatformLibrary/LIB_DigitalIO\DigitalInputs.c **** 
 391:C:/Workspace/FW_Platform2_5/trunk/PlatformLibrary/LIB_DigitalIO\DigitalInputs.c **** 	return (TRUE);
 340                             		.loc 1 391 0
 341 0028 66 11                   		mov.L	#1, r1
 342                             	.L29:
 392:C:/Workspace/FW_Platform2_5/trunk/PlatformLibrary/LIB_DigitalIO\DigitalInputs.c **** }
 343                             		.loc 1 392 0
 344 002a 02                      		rts
 345                             	.LFE5:
 347 002b 03                      		.section	.text.LIB_DIO_GetDigInputVal,"ax",@progbits
 348                             		.global	_LIB_DIO_GetDigInputVal
 350                             	_LIB_DIO_GetDigInputVal:
 351                             	.LFB6:
 393:C:/Workspace/FW_Platform2_5/trunk/PlatformLibrary/LIB_DigitalIO\DigitalInputs.c **** /**
 394:C:/Workspace/FW_Platform2_5/trunk/PlatformLibrary/LIB_DigitalIO\DigitalInputs.c **** Fixed pos return the input's value.
 395:C:/Workspace/FW_Platform2_5/trunk/PlatformLibrary/LIB_DigitalIO\DigitalInputs.c **** 
 396:C:/Workspace/FW_Platform2_5/trunk/PlatformLibrary/LIB_DigitalIO\DigitalInputs.c **** \param  [in] pos Input position described inside Setting File
 397:C:/Workspace/FW_Platform2_5/trunk/PlatformLibrary/LIB_DigitalIO\DigitalInputs.c **** \attention \b DigInputs (global) bitfield
 398:C:/Workspace/FW_Platform2_5/trunk/PlatformLibrary/LIB_DigitalIO\DigitalInputs.c **** 
 399:C:/Workspace/FW_Platform2_5/trunk/PlatformLibrary/LIB_DigitalIO\DigitalInputs.c **** \return 	uint8_t
 400:C:/Workspace/FW_Platform2_5/trunk/PlatformLibrary/LIB_DigitalIO\DigitalInputs.c **** 
 401:C:/Workspace/FW_Platform2_5/trunk/PlatformLibrary/LIB_DigitalIO\DigitalInputs.c **** \retval		TRUE the input in position pos is high
 402:C:/Workspace/FW_Platform2_5/trunk/PlatformLibrary/LIB_DigitalIO\DigitalInputs.c **** \retval	    FALSE the input in position pos is low
 403:C:/Workspace/FW_Platform2_5/trunk/PlatformLibrary/LIB_DigitalIO\DigitalInputs.c **** 
 404:C:/Workspace/FW_Platform2_5/trunk/PlatformLibrary/LIB_DigitalIO\DigitalInputs.c **** 
 405:C:/Workspace/FW_Platform2_5/trunk/PlatformLibrary/LIB_DigitalIO\DigitalInputs.c **** \author 	Stefano Ughi
 406:C:/Workspace/FW_Platform2_5/trunk/PlatformLibrary/LIB_DigitalIO\DigitalInputs.c **** \date		09/07/2010
 407:C:/Workspace/FW_Platform2_5/trunk/PlatformLibrary/LIB_DigitalIO\DigitalInputs.c **** \version	1.0.0
 408:C:/Workspace/FW_Platform2_5/trunk/PlatformLibrary/LIB_DigitalIO\DigitalInputs.c **** 
 409:C:/Workspace/FW_Platform2_5/trunk/PlatformLibrary/LIB_DigitalIO\DigitalInputs.c **** */
 410:C:/Workspace/FW_Platform2_5/trunk/PlatformLibrary/LIB_DigitalIO\DigitalInputs.c **** 
 411:C:/Workspace/FW_Platform2_5/trunk/PlatformLibrary/LIB_DigitalIO\DigitalInputs.c **** bool_t LIB_DIO_GetDigInputVal(uint8_t pos)
 412:C:/Workspace/FW_Platform2_5/trunk/PlatformLibrary/LIB_DigitalIO\DigitalInputs.c **** {
 352                             		.loc 1 412 0
 353                             	.LVL29:
 413:C:/Workspace/FW_Platform2_5/trunk/PlatformLibrary/LIB_DigitalIO\DigitalInputs.c **** 	if ( DigInputs & ( (dig_input_t)(1u<<pos) ) )
 354                             		.loc 1 413 0
 355 0000 5B 11                   		movu.B	r1, r1
 356 0002 66 1E                   		mov.L	#1, r14
 357 0004 FD 62 1E                		shll	r1, r14
 358 0007 FB 42 00 00 00 00       		mov.L	#_DigInputs, r4
 359 000d 06 10 4E                		and	[r4].B, r14
 360 0010 5B E1                   		movu.B	r14, r1
 361                             	.LVL30:
 414:C:/Workspace/FW_Platform2_5/trunk/PlatformLibrary/LIB_DigitalIO\DigitalInputs.c **** 	{
 415:C:/Workspace/FW_Platform2_5/trunk/PlatformLibrary/LIB_DigitalIO\DigitalInputs.c **** 		return 1;
 416:C:/Workspace/FW_Platform2_5/trunk/PlatformLibrary/LIB_DigitalIO\DigitalInputs.c **** 	}
 417:C:/Workspace/FW_Platform2_5/trunk/PlatformLibrary/LIB_DigitalIO\DigitalInputs.c **** 	else
 418:C:/Workspace/FW_Platform2_5/trunk/PlatformLibrary/LIB_DigitalIO\DigitalInputs.c **** 	{
 419:C:/Workspace/FW_Platform2_5/trunk/PlatformLibrary/LIB_DigitalIO\DigitalInputs.c **** 		return 0;
 420:C:/Workspace/FW_Platform2_5/trunk/PlatformLibrary/LIB_DigitalIO\DigitalInputs.c **** 	}
 421:C:/Workspace/FW_Platform2_5/trunk/PlatformLibrary/LIB_DigitalIO\DigitalInputs.c **** }
 362                             		.loc 1 421 0
 363 0012 61 01                   		cmp	#0, r1
 364 0014 FC DB 11                		scne.L	r1
 365 0017 02                      		rts
 366                             	.LFE6:
 368                             		.section	.text.LIB_DIO_SetDigInputVal,"ax",@progbits
 369                             		.global	_LIB_DIO_SetDigInputVal
 371                             	_LIB_DIO_SetDigInputVal:
 372                             	.LFB7:
 422:C:/Workspace/FW_Platform2_5/trunk/PlatformLibrary/LIB_DigitalIO\DigitalInputs.c **** 
 423:C:/Workspace/FW_Platform2_5/trunk/PlatformLibrary/LIB_DigitalIO\DigitalInputs.c **** /**
 424:C:/Workspace/FW_Platform2_5/trunk/PlatformLibrary/LIB_DigitalIO\DigitalInputs.c **** Set the input value identified by its position (position is a setting file parameter).
 425:C:/Workspace/FW_Platform2_5/trunk/PlatformLibrary/LIB_DigitalIO\DigitalInputs.c **** 
 426:C:/Workspace/FW_Platform2_5/trunk/PlatformLibrary/LIB_DigitalIO\DigitalInputs.c **** \param  [in] pos Input position described inside Setting File
 427:C:/Workspace/FW_Platform2_5/trunk/PlatformLibrary/LIB_DigitalIO\DigitalInputs.c **** \param  [in] value to set
 428:C:/Workspace/FW_Platform2_5/trunk/PlatformLibrary/LIB_DigitalIO\DigitalInputs.c **** \attention \b DigInputs (global) bitfield
 429:C:/Workspace/FW_Platform2_5/trunk/PlatformLibrary/LIB_DigitalIO\DigitalInputs.c **** 
 430:C:/Workspace/FW_Platform2_5/trunk/PlatformLibrary/LIB_DigitalIO\DigitalInputs.c **** 
 431:C:/Workspace/FW_Platform2_5/trunk/PlatformLibrary/LIB_DigitalIO\DigitalInputs.c **** \author 	Platform Group
 432:C:/Workspace/FW_Platform2_5/trunk/PlatformLibrary/LIB_DigitalIO\DigitalInputs.c **** \date		gg/mm/aaaa
 433:C:/Workspace/FW_Platform2_5/trunk/PlatformLibrary/LIB_DigitalIO\DigitalInputs.c **** \version	1.0.0
 434:C:/Workspace/FW_Platform2_5/trunk/PlatformLibrary/LIB_DigitalIO\DigitalInputs.c **** 
 435:C:/Workspace/FW_Platform2_5/trunk/PlatformLibrary/LIB_DigitalIO\DigitalInputs.c **** \note		\par \b Nota 1:
 436:C:/Workspace/FW_Platform2_5/trunk/PlatformLibrary/LIB_DigitalIO\DigitalInputs.c **** 			Disable automatic read before use this function.
 437:C:/Workspace/FW_Platform2_5/trunk/PlatformLibrary/LIB_DigitalIO\DigitalInputs.c **** 
 438:C:/Workspace/FW_Platform2_5/trunk/PlatformLibrary/LIB_DigitalIO\DigitalInputs.c **** */
 439:C:/Workspace/FW_Platform2_5/trunk/PlatformLibrary/LIB_DigitalIO\DigitalInputs.c **** 
 440:C:/Workspace/FW_Platform2_5/trunk/PlatformLibrary/LIB_DigitalIO\DigitalInputs.c **** void LIB_DIO_SetDigInputVal(uint8_t pos, uint8_t value)
 441:C:/Workspace/FW_Platform2_5/trunk/PlatformLibrary/LIB_DigitalIO\DigitalInputs.c **** {
 373                             		.loc 1 441 0
 374                             	.LVL31:
 375 0000 5B 11                   		movu.B	r1, r1
 376 0002 66 14                   		mov.L	#1, r4
 442:C:/Workspace/FW_Platform2_5/trunk/PlatformLibrary/LIB_DigitalIO\DigitalInputs.c **** 	SAFETY_REGION_START();
 443:C:/Workspace/FW_Platform2_5/trunk/PlatformLibrary/LIB_DigitalIO\DigitalInputs.c **** 	if(value)
 377                             		.loc 1 443 0
 378 0004 5B 22                   		movu.B	r2, r2
 444:C:/Workspace/FW_Platform2_5/trunk/PlatformLibrary/LIB_DigitalIO\DigitalInputs.c **** 	{
 445:C:/Workspace/FW_Platform2_5/trunk/PlatformLibrary/LIB_DigitalIO\DigitalInputs.c **** 		DigInputs |= (dig_input_t)(1u << pos);
 379                             		.loc 1 445 0
 380 0006 FD 62 14                		shll	r1, r4
 443:C:/Workspace/FW_Platform2_5/trunk/PlatformLibrary/LIB_DigitalIO\DigitalInputs.c **** 	if(value)
 381                             		.loc 1 443 0
 382 0009 61 02                   		cmp	#0, r2
 383 000b FB E2 00 00 00 00       		mov.L	#_DigInputs, r14
 384 0011 20 07                   		beq	.L38
 385                             		.loc 1 445 0
 386 0013 06 14 E4                		or	[r14].B, r4
 387 0016 2E 08                   		bra	.L40
 388                             	.L38:
 446:C:/Workspace/FW_Platform2_5/trunk/PlatformLibrary/LIB_DigitalIO\DigitalInputs.c **** 	}
 447:C:/Workspace/FW_Platform2_5/trunk/PlatformLibrary/LIB_DigitalIO\DigitalInputs.c **** 	else
 448:C:/Workspace/FW_Platform2_5/trunk/PlatformLibrary/LIB_DigitalIO\DigitalInputs.c **** 	{
 449:C:/Workspace/FW_Platform2_5/trunk/PlatformLibrary/LIB_DigitalIO\DigitalInputs.c **** 		DigInputs &= (dig_input_t)(~(1u << pos));
 389                             		.loc 1 449 0
 390 0018 7E 04                   		not	r4
 391 001a 06 10 E4                		and	[r14].B, r4
 392 001d 03                      		.balign 2,3,1
 393                             	.L40:
 394 001e C3 E4                   		mov.B	r4, [r14]
 395 0020 02                      		rts
 396                             	.LFE7:
 398 0021 03                      		.section	.text.LIB_DIO_IsDigitalReady,"ax",@progbits
 399                             		.global	_LIB_DIO_IsDigitalReady
 401                             	_LIB_DIO_IsDigitalReady:
 402                             	.LFB8:
 450:C:/Workspace/FW_Platform2_5/trunk/PlatformLibrary/LIB_DigitalIO\DigitalInputs.c **** 	}
 451:C:/Workspace/FW_Platform2_5/trunk/PlatformLibrary/LIB_DigitalIO\DigitalInputs.c **** 	SAFETY_DATA_UPDATE( DigInputs);
 452:C:/Workspace/FW_Platform2_5/trunk/PlatformLibrary/LIB_DigitalIO\DigitalInputs.c **** 	SAFETY_REGION_END();
 453:C:/Workspace/FW_Platform2_5/trunk/PlatformLibrary/LIB_DigitalIO\DigitalInputs.c **** }
 454:C:/Workspace/FW_Platform2_5/trunk/PlatformLibrary/LIB_DigitalIO\DigitalInputs.c **** 
 455:C:/Workspace/FW_Platform2_5/trunk/PlatformLibrary/LIB_DigitalIO\DigitalInputs.c **** /**
 456:C:/Workspace/FW_Platform2_5/trunk/PlatformLibrary/LIB_DigitalIO\DigitalInputs.c **** \n The function returns TRUE if the digital input identified by its position is ready otherwise FAL
 457:C:/Workspace/FW_Platform2_5/trunk/PlatformLibrary/LIB_DigitalIO\DigitalInputs.c **** 
 458:C:/Workspace/FW_Platform2_5/trunk/PlatformLibrary/LIB_DigitalIO\DigitalInputs.c **** \param  [in] pos Input position described inside Setting File
 459:C:/Workspace/FW_Platform2_5/trunk/PlatformLibrary/LIB_DigitalIO\DigitalInputs.c **** \attention \b DigInputsReady (global) bitfield
 460:C:/Workspace/FW_Platform2_5/trunk/PlatformLibrary/LIB_DigitalIO\DigitalInputs.c **** 
 461:C:/Workspace/FW_Platform2_5/trunk/PlatformLibrary/LIB_DigitalIO\DigitalInputs.c **** \return 	bool_t
 462:C:/Workspace/FW_Platform2_5/trunk/PlatformLibrary/LIB_DigitalIO\DigitalInputs.c **** 
 463:C:/Workspace/FW_Platform2_5/trunk/PlatformLibrary/LIB_DigitalIO\DigitalInputs.c **** \retval		TRUE
 464:C:/Workspace/FW_Platform2_5/trunk/PlatformLibrary/LIB_DigitalIO\DigitalInputs.c **** \retval		FALSE
 465:C:/Workspace/FW_Platform2_5/trunk/PlatformLibrary/LIB_DigitalIO\DigitalInputs.c **** 
 466:C:/Workspace/FW_Platform2_5/trunk/PlatformLibrary/LIB_DigitalIO\DigitalInputs.c **** \author 	Platform Group
 467:C:/Workspace/FW_Platform2_5/trunk/PlatformLibrary/LIB_DigitalIO\DigitalInputs.c **** \date		gg/mm/aaaa
 468:C:/Workspace/FW_Platform2_5/trunk/PlatformLibrary/LIB_DigitalIO\DigitalInputs.c **** \version	1.0.0
 469:C:/Workspace/FW_Platform2_5/trunk/PlatformLibrary/LIB_DigitalIO\DigitalInputs.c **** 
 470:C:/Workspace/FW_Platform2_5/trunk/PlatformLibrary/LIB_DigitalIO\DigitalInputs.c **** */
 471:C:/Workspace/FW_Platform2_5/trunk/PlatformLibrary/LIB_DigitalIO\DigitalInputs.c **** 
 472:C:/Workspace/FW_Platform2_5/trunk/PlatformLibrary/LIB_DigitalIO\DigitalInputs.c **** bool_t LIB_DIO_IsDigitalReady(uint8_t pos)
 473:C:/Workspace/FW_Platform2_5/trunk/PlatformLibrary/LIB_DigitalIO\DigitalInputs.c **** {
 403                             		.loc 1 473 0
 404                             	.LVL32:
 474:C:/Workspace/FW_Platform2_5/trunk/PlatformLibrary/LIB_DigitalIO\DigitalInputs.c **** 	return (bool_t) ((DigInputsReady & (dig_input_t)(1u << pos)) ? TRUE : FALSE);
 405                             		.loc 1 474 0
 406 0000 5B 11                   		movu.B	r1, r1
 407 0002 66 1E                   		mov.L	#1, r14
 408 0004 FD 62 1E                		shll	r1, r14
 409 0007 FB 42 00 00 00 00       		mov.L	#_DigInputsReady, r4
 410 000d 06 10 4E                		and	[r4].B, r14
 411 0010 5B E1                   		movu.B	r14, r1
 412                             	.LVL33:
 475:C:/Workspace/FW_Platform2_5/trunk/PlatformLibrary/LIB_DigitalIO\DigitalInputs.c **** }
 413                             		.loc 1 475 0
 414 0012 61 01                   		cmp	#0, r1
 415 0014 FC DB 11                		scne.L	r1
 416 0017 02                      		rts
 417                             	.LFE8:
 419                             		.comm	_DigInputsDisable,1,1
 420                             		.comm	_DigInputsReady,1,1
 421                             		.comm	_DigInputs,1,1
 422                             		.section	.bss.DigInputPin,"aw",@nobits
 423                             		.balign 2
 426                             	_DigInputPin:
 427 0000 00 00 00 00 00 00 00 00 		.zero	16
 427      00 00 00 00 00 00 00 00 
 428                             		.section	.bss.DigInput_val,"aw",@nobits
 431                             	_DigInput_val:
 432 0000 00 00 00 00 00 00 00 00 		.zero	8
 433                             		.section	.bss.DigInput_c,"aw",@nobits
 436                             	_DigInput_c:
 437 0000 00 00 00 00 00 00 00 00 		.zero	8
 572                             	.Letext0:
 573                             		.file 2 "C:\\Workspace\\FW_Platform2_5\\trunk\\HAL\\HAL_General/StandardTypes.h"
 574                             		.file 3 "C:\\Workspace\\FW_Platform2_5\\trunk\\CFG_DishWasher\\CFG_Inertia/DIO_cfg.h"
 575                             		.file 4 "C:/Workspace/FW_Platform2_5/trunk/PlatformLibrary/LIB_DigitalIO/DigitalInputs.h"
 576                             		.file 5 "C:\\Workspace\\FW_Platform2_5\\trunk\\PlatformLibrary\\LIB_Error/LIB_Error.h"
 577                             		.file 6 "C:\\Workspace\\FW_Platform2_5\\trunk\\PlatformLibrary\\LIB_IOManager/IOSharing.h"
 578                             		.file 7 "C:\\Workspace\\FW_Platform2_5\\trunk\\Drivers\\OCDIO/OCDIO_drv.h"
