   1                             		.file	"ExternalOutputManager.c"
   2                             		.section P,"ax"
   3                             	.Ltext0:
   4                             		.section	.text.LIB_IOM_External_Init,"ax",@progbits
   5                             		.global	_LIB_IOM_External_Init
   7                             	_LIB_IOM_External_Init:
   8                             	.LFB0:
   9                             		.file 1 "C:/Workspace/FW_Platform2_5/trunk/PlatformLibrary/LIB_IOManager/ExternalOutputManager.c"
   1:C:/Workspace/FW_Platform2_5/trunk/PlatformLibrary/LIB_IOManager\ExternalOutputManager.c **** /*
   2:C:/Workspace/FW_Platform2_5/trunk/PlatformLibrary/LIB_IOManager\ExternalOutputManager.c **** Copyright (c) 2004-2005, Indesit Company, I.D.D..
   3:C:/Workspace/FW_Platform2_5/trunk/PlatformLibrary/LIB_IOManager\ExternalOutputManager.c **** Tutti i diritti sono riservati. All rights reserved.
   4:C:/Workspace/FW_Platform2_5/trunk/PlatformLibrary/LIB_IOManager\ExternalOutputManager.c **** */
   5:C:/Workspace/FW_Platform2_5/trunk/PlatformLibrary/LIB_IOManager\ExternalOutputManager.c **** 
   6:C:/Workspace/FW_Platform2_5/trunk/PlatformLibrary/LIB_IOManager\ExternalOutputManager.c **** /**
   7:C:/Workspace/FW_Platform2_5/trunk/PlatformLibrary/LIB_IOManager\ExternalOutputManager.c **** \n
   8:C:/Workspace/FW_Platform2_5/trunk/PlatformLibrary/LIB_IOManager\ExternalOutputManager.c **** \n			Implementation of all functions necessary to achieve the aim.
   9:C:/Workspace/FW_Platform2_5/trunk/PlatformLibrary/LIB_IOManager\ExternalOutputManager.c **** \n
  10:C:/Workspace/FW_Platform2_5/trunk/PlatformLibrary/LIB_IOManager\ExternalOutputManager.c **** \file			ExternalOutputManager.c 
  11:C:/Workspace/FW_Platform2_5/trunk/PlatformLibrary/LIB_IOManager\ExternalOutputManager.c **** \ingroup	ExtOutputsManager
  12:C:/Workspace/FW_Platform2_5/trunk/PlatformLibrary/LIB_IOManager\ExternalOutputManager.c **** \date			Sep 13, 2010 
  13:C:/Workspace/FW_Platform2_5/trunk/PlatformLibrary/LIB_IOManager\ExternalOutputManager.c **** \version	01.00.00 
  14:C:/Workspace/FW_Platform2_5/trunk/PlatformLibrary/LIB_IOManager\ExternalOutputManager.c **** \author		Roberto Fioravanti 
  15:C:/Workspace/FW_Platform2_5/trunk/PlatformLibrary/LIB_IOManager\ExternalOutputManager.c **** \n
  16:C:/Workspace/FW_Platform2_5/trunk/PlatformLibrary/LIB_IOManager\ExternalOutputManager.c **** \n
  17:C:/Workspace/FW_Platform2_5/trunk/PlatformLibrary/LIB_IOManager\ExternalOutputManager.c **** \par\b	History:
  18:C:/Workspace/FW_Platform2_5/trunk/PlatformLibrary/LIB_IOManager\ExternalOutputManager.c **** \n 
  19:C:/Workspace/FW_Platform2_5/trunk/PlatformLibrary/LIB_IOManager\ExternalOutputManager.c **** \n 		00.00.64
  20:C:/Workspace/FW_Platform2_5/trunk/PlatformLibrary/LIB_IOManager\ExternalOutputManager.c **** \n		14/09/2010 
  21:C:/Workspace/FW_Platform2_5/trunk/PlatformLibrary/LIB_IOManager\ExternalOutputManager.c **** \n		Roberto Fioravanti 
  22:C:/Workspace/FW_Platform2_5/trunk/PlatformLibrary/LIB_IOManager\ExternalOutputManager.c **** \n		changes 
  23:C:/Workspace/FW_Platform2_5/trunk/PlatformLibrary/LIB_IOManager\ExternalOutputManager.c **** \n 		- creation
  24:C:/Workspace/FW_Platform2_5/trunk/PlatformLibrary/LIB_IOManager\ExternalOutputManager.c **** \n
  25:C:/Workspace/FW_Platform2_5/trunk/PlatformLibrary/LIB_IOManager\ExternalOutputManager.c **** \n etc.
  26:C:/Workspace/FW_Platform2_5/trunk/PlatformLibrary/LIB_IOManager\ExternalOutputManager.c **** */
  27:C:/Workspace/FW_Platform2_5/trunk/PlatformLibrary/LIB_IOManager\ExternalOutputManager.c **** #define MODULE_BODY_LIB_IOMANAGER
  28:C:/Workspace/FW_Platform2_5/trunk/PlatformLibrary/LIB_IOManager\ExternalOutputManager.c **** /* ******** */
  29:C:/Workspace/FW_Platform2_5/trunk/PlatformLibrary/LIB_IOManager\ExternalOutputManager.c **** /* Includes */
  30:C:/Workspace/FW_Platform2_5/trunk/PlatformLibrary/LIB_IOManager\ExternalOutputManager.c **** /* ******** */
  31:C:/Workspace/FW_Platform2_5/trunk/PlatformLibrary/LIB_IOManager\ExternalOutputManager.c **** #include "Config.h"
  32:C:/Workspace/FW_Platform2_5/trunk/PlatformLibrary/LIB_IOManager\ExternalOutputManager.c **** #include "LIB_Error.h"
  33:C:/Workspace/FW_Platform2_5/trunk/PlatformLibrary/LIB_IOManager\ExternalOutputManager.c **** #if defined(CONFIG_LIB_EXTERNAL_BOARD_SUPPORT)
  34:C:/Workspace/FW_Platform2_5/trunk/PlatformLibrary/LIB_IOManager\ExternalOutputManager.c **** 
  35:C:/Workspace/FW_Platform2_5/trunk/PlatformLibrary/LIB_IOManager\ExternalOutputManager.c **** #include "LIB_Utilities.h"
  36:C:/Workspace/FW_Platform2_5/trunk/PlatformLibrary/LIB_IOManager\ExternalOutputManager.c **** #if defined(CONFIG_LIB_LOADSREQUEST_SUPPORT)
  37:C:/Workspace/FW_Platform2_5/trunk/PlatformLibrary/LIB_IOManager\ExternalOutputManager.c **** #include "LoadsRequest.h"
  38:C:/Workspace/FW_Platform2_5/trunk/PlatformLibrary/LIB_IOManager\ExternalOutputManager.c **** #endif  /* defined(CONFIG_LIB_LOADSREQUEST_SUPPORT) */
  39:C:/Workspace/FW_Platform2_5/trunk/PlatformLibrary/LIB_IOManager\ExternalOutputManager.c **** #include "OutputManager.h"
  40:C:/Workspace/FW_Platform2_5/trunk/PlatformLibrary/LIB_IOManager\ExternalOutputManager.c **** /*lint -e537*/
  41:C:/Workspace/FW_Platform2_5/trunk/PlatformLibrary/LIB_IOManager\ExternalOutputManager.c **** #include "ExternalOutputManager.h"
  42:C:/Workspace/FW_Platform2_5/trunk/PlatformLibrary/LIB_IOManager\ExternalOutputManager.c **** /*lint +e537*/
  43:C:/Workspace/FW_Platform2_5/trunk/PlatformLibrary/LIB_IOManager\ExternalOutputManager.c **** #include "ExternalOutputManagerExp.h"
  44:C:/Workspace/FW_Platform2_5/trunk/PlatformLibrary/LIB_IOManager\ExternalOutputManager.c **** #include "OutputManagerExp.h"
  45:C:/Workspace/FW_Platform2_5/trunk/PlatformLibrary/LIB_IOManager\ExternalOutputManager.c **** 
  46:C:/Workspace/FW_Platform2_5/trunk/PlatformLibrary/LIB_IOManager\ExternalOutputManager.c **** /* ****************** */
  47:C:/Workspace/FW_Platform2_5/trunk/PlatformLibrary/LIB_IOManager\ExternalOutputManager.c **** /* Defines and Macros */
  48:C:/Workspace/FW_Platform2_5/trunk/PlatformLibrary/LIB_IOManager\ExternalOutputManager.c **** /* ****************** */
  49:C:/Workspace/FW_Platform2_5/trunk/PlatformLibrary/LIB_IOManager\ExternalOutputManager.c **** 
  50:C:/Workspace/FW_Platform2_5/trunk/PlatformLibrary/LIB_IOManager\ExternalOutputManager.c **** /*External params*/
  51:C:/Workspace/FW_Platform2_5/trunk/PlatformLibrary/LIB_IOManager\ExternalOutputManager.c **** #define EXTERNAL_PARAMS_UART(pByte)     			(((*((uint8_t*)(pByte))) & 0xC0)>>6)            /*  */
  52:C:/Workspace/FW_Platform2_5/trunk/PlatformLibrary/LIB_IOManager\ExternalOutputManager.c **** #define EXTERNAL_PARAMS_DISPL(pByte)     			(*((uint8_t*)(pByte) +1 ))            /*  */
  53:C:/Workspace/FW_Platform2_5/trunk/PlatformLibrary/LIB_IOManager\ExternalOutputManager.c **** 
  54:C:/Workspace/FW_Platform2_5/trunk/PlatformLibrary/LIB_IOManager\ExternalOutputManager.c **** /*Debug*/
  55:C:/Workspace/FW_Platform2_5/trunk/PlatformLibrary/LIB_IOManager\ExternalOutputManager.c **** 
  56:C:/Workspace/FW_Platform2_5/trunk/PlatformLibrary/LIB_IOManager\ExternalOutputManager.c **** /* *************************** */
  57:C:/Workspace/FW_Platform2_5/trunk/PlatformLibrary/LIB_IOManager\ExternalOutputManager.c **** /* Typedef, Structs and Unions */
  58:C:/Workspace/FW_Platform2_5/trunk/PlatformLibrary/LIB_IOManager\ExternalOutputManager.c **** /* *************************** */
  59:C:/Workspace/FW_Platform2_5/trunk/PlatformLibrary/LIB_IOManager\ExternalOutputManager.c **** 
  60:C:/Workspace/FW_Platform2_5/trunk/PlatformLibrary/LIB_IOManager\ExternalOutputManager.c **** /* structure for seq id management */
  61:C:/Workspace/FW_Platform2_5/trunk/PlatformLibrary/LIB_IOManager\ExternalOutputManager.c **** typedef struct {
  62:C:/Workspace/FW_Platform2_5/trunk/PlatformLibrary/LIB_IOManager\ExternalOutputManager.c **** 	uint8_t Seq;
  63:C:/Workspace/FW_Platform2_5/trunk/PlatformLibrary/LIB_IOManager\ExternalOutputManager.c **** 	uint8_t OldReq;
  64:C:/Workspace/FW_Platform2_5/trunk/PlatformLibrary/LIB_IOManager\ExternalOutputManager.c **** 	uint8_t NewReq;
  65:C:/Workspace/FW_Platform2_5/trunk/PlatformLibrary/LIB_IOManager\ExternalOutputManager.c **** } ExtSeqIdType;
  66:C:/Workspace/FW_Platform2_5/trunk/PlatformLibrary/LIB_IOManager\ExternalOutputManager.c **** 
  67:C:/Workspace/FW_Platform2_5/trunk/PlatformLibrary/LIB_IOManager\ExternalOutputManager.c **** /* infopacketdata sub-block header format: each infopacket's sub-block 
  68:C:/Workspace/FW_Platform2_5/trunk/PlatformLibrary/LIB_IOManager\ExternalOutputManager.c **** has this header  */
  69:C:/Workspace/FW_Platform2_5/trunk/PlatformLibrary/LIB_IOManager\ExternalOutputManager.c **** typedef struct {
  70:C:/Workspace/FW_Platform2_5/trunk/PlatformLibrary/LIB_IOManager\ExternalOutputManager.c **** 	uint8_t	szData;
  71:C:/Workspace/FW_Platform2_5/trunk/PlatformLibrary/LIB_IOManager\ExternalOutputManager.c **** 	uint8_t	pilotType;
  72:C:/Workspace/FW_Platform2_5/trunk/PlatformLibrary/LIB_IOManager\ExternalOutputManager.c **** } InfoPacketDataHdrType;
  73:C:/Workspace/FW_Platform2_5/trunk/PlatformLibrary/LIB_IOManager\ExternalOutputManager.c **** 
  74:C:/Workspace/FW_Platform2_5/trunk/PlatformLibrary/LIB_IOManager\ExternalOutputManager.c **** /* bldc command value */
  75:C:/Workspace/FW_Platform2_5/trunk/PlatformLibrary/LIB_IOManager\ExternalOutputManager.c **** typedef struct {
  76:C:/Workspace/FW_Platform2_5/trunk/PlatformLibrary/LIB_IOManager\ExternalOutputManager.c **** 	int16_t 	rpm;
  77:C:/Workspace/FW_Platform2_5/trunk/PlatformLibrary/LIB_IOManager\ExternalOutputManager.c **** 	uint16_t 	time;
  78:C:/Workspace/FW_Platform2_5/trunk/PlatformLibrary/LIB_IOManager\ExternalOutputManager.c **** } ExternalBldcWashCmdType;
  79:C:/Workspace/FW_Platform2_5/trunk/PlatformLibrary/LIB_IOManager\ExternalOutputManager.c **** 
  80:C:/Workspace/FW_Platform2_5/trunk/PlatformLibrary/LIB_IOManager\ExternalOutputManager.c **** 
  81:C:/Workspace/FW_Platform2_5/trunk/PlatformLibrary/LIB_IOManager\ExternalOutputManager.c **** /* bldc command value */
  82:C:/Workspace/FW_Platform2_5/trunk/PlatformLibrary/LIB_IOManager\ExternalOutputManager.c **** typedef ExternalBldcWashCmdType ExternalBldcDrainCmdType;
  83:C:/Workspace/FW_Platform2_5/trunk/PlatformLibrary/LIB_IOManager\ExternalOutputManager.c **** 
  84:C:/Workspace/FW_Platform2_5/trunk/PlatformLibrary/LIB_IOManager\ExternalOutputManager.c **** 
  85:C:/Workspace/FW_Platform2_5/trunk/PlatformLibrary/LIB_IOManager\ExternalOutputManager.c **** 
  86:C:/Workspace/FW_Platform2_5/trunk/PlatformLibrary/LIB_IOManager\ExternalOutputManager.c **** /* external Command buffer params */
  87:C:/Workspace/FW_Platform2_5/trunk/PlatformLibrary/LIB_IOManager\ExternalOutputManager.c **** typedef struct{
  88:C:/Workspace/FW_Platform2_5/trunk/PlatformLibrary/LIB_IOManager\ExternalOutputManager.c **** 	uint8_t* 	pCmdBuffer;
  89:C:/Workspace/FW_Platform2_5/trunk/PlatformLibrary/LIB_IOManager\ExternalOutputManager.c **** 	uint8_t*	pCmdBufferTx;
  90:C:/Workspace/FW_Platform2_5/trunk/PlatformLibrary/LIB_IOManager\ExternalOutputManager.c **** 	uint8_t		szCmdBuffer;
  91:C:/Workspace/FW_Platform2_5/trunk/PlatformLibrary/LIB_IOManager\ExternalOutputManager.c **** }IOM_External_CommandBufferTableType;
  92:C:/Workspace/FW_Platform2_5/trunk/PlatformLibrary/LIB_IOManager\ExternalOutputManager.c **** 
  93:C:/Workspace/FW_Platform2_5/trunk/PlatformLibrary/LIB_IOManager\ExternalOutputManager.c **** /* loads param */
  94:C:/Workspace/FW_Platform2_5/trunk/PlatformLibrary/LIB_IOManager\ExternalOutputManager.c **** typedef struct
  95:C:/Workspace/FW_Platform2_5/trunk/PlatformLibrary/LIB_IOManager\ExternalOutputManager.c **** {
  96:C:/Workspace/FW_Platform2_5/trunk/PlatformLibrary/LIB_IOManager\ExternalOutputManager.c **** 	uint8_t* 	pPilotTypeInfo;
  97:C:/Workspace/FW_Platform2_5/trunk/PlatformLibrary/LIB_IOManager\ExternalOutputManager.c **** 	uint8_t		szPilotTypeInfo;
  98:C:/Workspace/FW_Platform2_5/trunk/PlatformLibrary/LIB_IOManager\ExternalOutputManager.c **** 	uint8_t		PilotType;
  99:C:/Workspace/FW_Platform2_5/trunk/PlatformLibrary/LIB_IOManager\ExternalOutputManager.c **** 	uint8_t		CmdOffset;
 100:C:/Workspace/FW_Platform2_5/trunk/PlatformLibrary/LIB_IOManager\ExternalOutputManager.c **** 	uint8_t		szCmd;
 101:C:/Workspace/FW_Platform2_5/trunk/PlatformLibrary/LIB_IOManager\ExternalOutputManager.c **** 	uint8_t		Displacement;
 102:C:/Workspace/FW_Platform2_5/trunk/PlatformLibrary/LIB_IOManager\ExternalOutputManager.c **** 	uint8_t		CommCh;
 103:C:/Workspace/FW_Platform2_5/trunk/PlatformLibrary/LIB_IOManager\ExternalOutputManager.c **** } IOM_External_LoadsTableType;
 104:C:/Workspace/FW_Platform2_5/trunk/PlatformLibrary/LIB_IOManager\ExternalOutputManager.c **** 
 105:C:/Workspace/FW_Platform2_5/trunk/PlatformLibrary/LIB_IOManager\ExternalOutputManager.c **** typedef struct 
 106:C:/Workspace/FW_Platform2_5/trunk/PlatformLibrary/LIB_IOManager\ExternalOutputManager.c **** {
 107:C:/Workspace/FW_Platform2_5/trunk/PlatformLibrary/LIB_IOManager\ExternalOutputManager.c **** 	uint8_t* 	pRamBuffer;
 108:C:/Workspace/FW_Platform2_5/trunk/PlatformLibrary/LIB_IOManager\ExternalOutputManager.c **** 	uint8_t		szRamBuffer;
 109:C:/Workspace/FW_Platform2_5/trunk/PlatformLibrary/LIB_IOManager\ExternalOutputManager.c **** #if defined(CONFIG_EXTERNAL_GLOBAL_DATA_BLOCK_SUPPORT)
 110:C:/Workspace/FW_Platform2_5/trunk/PlatformLibrary/LIB_IOManager\ExternalOutputManager.c **** 	uint8_t 	*pGlobalData;
 111:C:/Workspace/FW_Platform2_5/trunk/PlatformLibrary/LIB_IOManager\ExternalOutputManager.c **** 	uint8_t 	szGlobal;
 112:C:/Workspace/FW_Platform2_5/trunk/PlatformLibrary/LIB_IOManager\ExternalOutputManager.c **** #endif
 113:C:/Workspace/FW_Platform2_5/trunk/PlatformLibrary/LIB_IOManager\ExternalOutputManager.c **** }ExternalDataType;
 114:C:/Workspace/FW_Platform2_5/trunk/PlatformLibrary/LIB_IOManager\ExternalOutputManager.c **** 
 115:C:/Workspace/FW_Platform2_5/trunk/PlatformLibrary/LIB_IOManager\ExternalOutputManager.c **** enum
 116:C:/Workspace/FW_Platform2_5/trunk/PlatformLibrary/LIB_IOManager\ExternalOutputManager.c **** {
 117:C:/Workspace/FW_Platform2_5/trunk/PlatformLibrary/LIB_IOManager\ExternalOutputManager.c **** #if defined(CONFIG_LIB_EXTERNAL_BOARD_SUPPORT) && defined(IOM_EXTERNAL_0_ENABLED)
 118:C:/Workspace/FW_Platform2_5/trunk/PlatformLibrary/LIB_IOManager\ExternalOutputManager.c **** EXTERNAL_0,
 119:C:/Workspace/FW_Platform2_5/trunk/PlatformLibrary/LIB_IOManager\ExternalOutputManager.c **** #endif /* defined(CONFIG_LIB_EXTERNAL_BOARD_SUPPORT) && defined(IOM_EXTERNAL_0_ENABLED)*/
 120:C:/Workspace/FW_Platform2_5/trunk/PlatformLibrary/LIB_IOManager\ExternalOutputManager.c **** #if defined(CONFIG_LIB_EXTERNAL_BOARD_SUPPORT)	&& defined(IOM_EXTERNAL_1_ENABLED)
 121:C:/Workspace/FW_Platform2_5/trunk/PlatformLibrary/LIB_IOManager\ExternalOutputManager.c **** EXTERNAL_1,
 122:C:/Workspace/FW_Platform2_5/trunk/PlatformLibrary/LIB_IOManager\ExternalOutputManager.c **** #endif /* defined(CONFIG_LIB_EXTERNAL_BOARD_SUPPORT) && defined(IOM_EXTERNAL_1_ENABLED)*/
 123:C:/Workspace/FW_Platform2_5/trunk/PlatformLibrary/LIB_IOManager\ExternalOutputManager.c **** EXTERNAL_NUM
 124:C:/Workspace/FW_Platform2_5/trunk/PlatformLibrary/LIB_IOManager\ExternalOutputManager.c **** };
 125:C:/Workspace/FW_Platform2_5/trunk/PlatformLibrary/LIB_IOManager\ExternalOutputManager.c **** 
 126:C:/Workspace/FW_Platform2_5/trunk/PlatformLibrary/LIB_IOManager\ExternalOutputManager.c **** #if defined(IOM_EXTERNAL_0_ENABLED)
 127:C:/Workspace/FW_Platform2_5/trunk/PlatformLibrary/LIB_IOManager\ExternalOutputManager.c **** #define EXTERNAL_BOARD_MIN    0
 128:C:/Workspace/FW_Platform2_5/trunk/PlatformLibrary/LIB_IOManager\ExternalOutputManager.c **** #else
 129:C:/Workspace/FW_Platform2_5/trunk/PlatformLibrary/LIB_IOManager\ExternalOutputManager.c **** #define EXTERNAL_BOARD_MIN    1
 130:C:/Workspace/FW_Platform2_5/trunk/PlatformLibrary/LIB_IOManager\ExternalOutputManager.c **** #endif
 131:C:/Workspace/FW_Platform2_5/trunk/PlatformLibrary/LIB_IOManager\ExternalOutputManager.c **** 
 132:C:/Workspace/FW_Platform2_5/trunk/PlatformLibrary/LIB_IOManager\ExternalOutputManager.c **** 
 133:C:/Workspace/FW_Platform2_5/trunk/PlatformLibrary/LIB_IOManager\ExternalOutputManager.c **** /* ********* */
 134:C:/Workspace/FW_Platform2_5/trunk/PlatformLibrary/LIB_IOManager\ExternalOutputManager.c **** /* Variables */
 135:C:/Workspace/FW_Platform2_5/trunk/PlatformLibrary/LIB_IOManager\ExternalOutputManager.c **** /* ********* */
 136:C:/Workspace/FW_Platform2_5/trunk/PlatformLibrary/LIB_IOManager\ExternalOutputManager.c **** 
 137:C:/Workspace/FW_Platform2_5/trunk/PlatformLibrary/LIB_IOManager\ExternalOutputManager.c **** /* Global */
 138:C:/Workspace/FW_Platform2_5/trunk/PlatformLibrary/LIB_IOManager\ExternalOutputManager.c **** #if defined(CONFIG_LIB_EXTERNAL_BOARD_SUPPORT) && defined(IOM_EXTERNAL_1_ENABLED)
 139:C:/Workspace/FW_Platform2_5/trunk/PlatformLibrary/LIB_IOManager\ExternalOutputManager.c **** uint8_t IOM_CommandBufferExternal_1[IOM_EXTERNAL_1_COMMANDBUFFER_SIZE];
 140:C:/Workspace/FW_Platform2_5/trunk/PlatformLibrary/LIB_IOManager\ExternalOutputManager.c **** uint8_t IOM_CommandBufferExternal_1_Tx[IOM_EXTERNAL_1_COMMANDBUFFER_SIZE];	/*total size is seq ID s
 141:C:/Workspace/FW_Platform2_5/trunk/PlatformLibrary/LIB_IOManager\ExternalOutputManager.c **** uint8_t	IOM_ReadRamExternal_1[IOM_EXTERNAL_1_GLOBALRAMBUFFER_SIZE];
 142:C:/Workspace/FW_Platform2_5/trunk/PlatformLibrary/LIB_IOManager\ExternalOutputManager.c **** 
 143:C:/Workspace/FW_Platform2_5/trunk/PlatformLibrary/LIB_IOManager\ExternalOutputManager.c **** #if defined(CONFIG_EXTERNAL_GLOBAL_DATA_BLOCK_SUPPORT)
 144:C:/Workspace/FW_Platform2_5/trunk/PlatformLibrary/LIB_IOManager\ExternalOutputManager.c **** uint8_t ExternalGlobalData_1[IOM_EXTERNAL_1_GLOBALDATABUFFER_SIZE];
 145:C:/Workspace/FW_Platform2_5/trunk/PlatformLibrary/LIB_IOManager\ExternalOutputManager.c **** #endif /* defined(CONFIG_EXTERNAL_GLOBAL_DATA_BLOCK_SUPPORT) */
 146:C:/Workspace/FW_Platform2_5/trunk/PlatformLibrary/LIB_IOManager\ExternalOutputManager.c **** 
 147:C:/Workspace/FW_Platform2_5/trunk/PlatformLibrary/LIB_IOManager\ExternalOutputManager.c **** #endif /* defined(CONFIG_LIB_EXTERNAL_BOARD_SUPPORT)	&& defined(IOM_EXTERNAL_1_ENABLED)*/
 148:C:/Workspace/FW_Platform2_5/trunk/PlatformLibrary/LIB_IOManager\ExternalOutputManager.c **** 
 149:C:/Workspace/FW_Platform2_5/trunk/PlatformLibrary/LIB_IOManager\ExternalOutputManager.c **** #if defined(CONFIG_LIB_EXTERNAL_BOARD_SUPPORT)	&& defined(IOM_EXTERNAL_0_ENABLED)
 150:C:/Workspace/FW_Platform2_5/trunk/PlatformLibrary/LIB_IOManager\ExternalOutputManager.c **** 
 151:C:/Workspace/FW_Platform2_5/trunk/PlatformLibrary/LIB_IOManager\ExternalOutputManager.c **** uint8_t IOM_CommandBufferExternal_0[IOM_EXTERNAL_0_COMMANDBUFFER_SIZE];		/*total size is seq ID siz
 152:C:/Workspace/FW_Platform2_5/trunk/PlatformLibrary/LIB_IOManager\ExternalOutputManager.c **** uint8_t IOM_CommandBufferExternal_0_Tx[IOM_EXTERNAL_0_COMMANDBUFFER_SIZE];	/*total size is seq ID s
 153:C:/Workspace/FW_Platform2_5/trunk/PlatformLibrary/LIB_IOManager\ExternalOutputManager.c **** uint8_t	IOM_ReadRamExternal_0[IOM_EXTERNAL_0_GLOBALRAMBUFFER_SIZE];					/*total size is cnt + seq i
 154:C:/Workspace/FW_Platform2_5/trunk/PlatformLibrary/LIB_IOManager\ExternalOutputManager.c **** 
 155:C:/Workspace/FW_Platform2_5/trunk/PlatformLibrary/LIB_IOManager\ExternalOutputManager.c **** #if defined(CONFIG_EXTERNAL_GLOBAL_DATA_BLOCK_SUPPORT)
 156:C:/Workspace/FW_Platform2_5/trunk/PlatformLibrary/LIB_IOManager\ExternalOutputManager.c **** uint8_t ExternalGlobalData_0[IOM_EXTERNAL_0_GLOBALDATABUFFER_SIZE];
 157:C:/Workspace/FW_Platform2_5/trunk/PlatformLibrary/LIB_IOManager\ExternalOutputManager.c **** #endif /* defined(CONFIG_EXTERNAL_GLOBAL_DATA_BLOCK_SUPPORT) */
 158:C:/Workspace/FW_Platform2_5/trunk/PlatformLibrary/LIB_IOManager\ExternalOutputManager.c **** 
 159:C:/Workspace/FW_Platform2_5/trunk/PlatformLibrary/LIB_IOManager\ExternalOutputManager.c **** #endif /* defined(CONFIG_LIB_EXTERNAL_BOARD_SUPPORT)	&& defined(IOM_EXTERNAL_0_ENABLED)*/
 160:C:/Workspace/FW_Platform2_5/trunk/PlatformLibrary/LIB_IOManager\ExternalOutputManager.c **** 
 161:C:/Workspace/FW_Platform2_5/trunk/PlatformLibrary/LIB_IOManager\ExternalOutputManager.c **** 
 162:C:/Workspace/FW_Platform2_5/trunk/PlatformLibrary/LIB_IOManager\ExternalOutputManager.c **** IOM_External_LoadsTableType	IOM_External_LoadsTable[IOM_NUM_OF_EXTERNAL_LOADS];
 163:C:/Workspace/FW_Platform2_5/trunk/PlatformLibrary/LIB_IOManager\ExternalOutputManager.c **** 
 164:C:/Workspace/FW_Platform2_5/trunk/PlatformLibrary/LIB_IOManager\ExternalOutputManager.c **** const IOM_External_CommandBufferTableType IOM_External_CommandBufferTable[EXTERNAL_NUM]=
 165:C:/Workspace/FW_Platform2_5/trunk/PlatformLibrary/LIB_IOManager\ExternalOutputManager.c **** {
 166:C:/Workspace/FW_Platform2_5/trunk/PlatformLibrary/LIB_IOManager\ExternalOutputManager.c **** #if defined(CONFIG_LIB_EXTERNAL_BOARD_SUPPORT)	&& defined(IOM_EXTERNAL_0_ENABLED)
 167:C:/Workspace/FW_Platform2_5/trunk/PlatformLibrary/LIB_IOManager\ExternalOutputManager.c **** {IOM_CommandBufferExternal_0, IOM_CommandBufferExternal_0_Tx, sizeof(IOM_CommandBufferExternal_0)},
 168:C:/Workspace/FW_Platform2_5/trunk/PlatformLibrary/LIB_IOManager\ExternalOutputManager.c **** #endif /* defined(CONFIG_LIB_EXTERNAL_BOARD_SUPPORT)	&& defined(IOM_EXTERNAL_0_ENABLED)*/
 169:C:/Workspace/FW_Platform2_5/trunk/PlatformLibrary/LIB_IOManager\ExternalOutputManager.c **** #if defined(CONFIG_LIB_EXTERNAL_BOARD_SUPPORT)	&& defined(IOM_EXTERNAL_1_ENABLED)
 170:C:/Workspace/FW_Platform2_5/trunk/PlatformLibrary/LIB_IOManager\ExternalOutputManager.c **** {IOM_CommandBufferExternal_1, IOM_CommandBufferExternal_1_Tx, sizeof(IOM_CommandBufferExternal_1)},
 171:C:/Workspace/FW_Platform2_5/trunk/PlatformLibrary/LIB_IOManager\ExternalOutputManager.c **** #endif /* defined(CONFIG_LIB_EXTERNAL_BOARD_SUPPORT)	&& defined(IOM_EXTERNAL_0_ENABLED)*/
 172:C:/Workspace/FW_Platform2_5/trunk/PlatformLibrary/LIB_IOManager\ExternalOutputManager.c **** };
 173:C:/Workspace/FW_Platform2_5/trunk/PlatformLibrary/LIB_IOManager\ExternalOutputManager.c **** 
 174:C:/Workspace/FW_Platform2_5/trunk/PlatformLibrary/LIB_IOManager\ExternalOutputManager.c **** ExtSeqIdType ExternalSeqId[EXTERNAL_NUM];
 175:C:/Workspace/FW_Platform2_5/trunk/PlatformLibrary/LIB_IOManager\ExternalOutputManager.c **** 
 176:C:/Workspace/FW_Platform2_5/trunk/PlatformLibrary/LIB_IOManager\ExternalOutputManager.c **** const ExternalDataType ExternalData[EXTERNAL_NUM]=
 177:C:/Workspace/FW_Platform2_5/trunk/PlatformLibrary/LIB_IOManager\ExternalOutputManager.c **** {
 178:C:/Workspace/FW_Platform2_5/trunk/PlatformLibrary/LIB_IOManager\ExternalOutputManager.c **** #if defined(CONFIG_LIB_EXTERNAL_BOARD_SUPPORT) && defined(IOM_EXTERNAL_0_ENABLED)
 179:C:/Workspace/FW_Platform2_5/trunk/PlatformLibrary/LIB_IOManager\ExternalOutputManager.c **** 	{IOM_ReadRamExternal_0, sizeof(IOM_ReadRamExternal_0)
 180:C:/Workspace/FW_Platform2_5/trunk/PlatformLibrary/LIB_IOManager\ExternalOutputManager.c **** #if defined(CONFIG_EXTERNAL_GLOBAL_DATA_BLOCK_SUPPORT)
 181:C:/Workspace/FW_Platform2_5/trunk/PlatformLibrary/LIB_IOManager\ExternalOutputManager.c **** 	,
 182:C:/Workspace/FW_Platform2_5/trunk/PlatformLibrary/LIB_IOManager\ExternalOutputManager.c **** 	ExternalGlobalData_0,
 183:C:/Workspace/FW_Platform2_5/trunk/PlatformLibrary/LIB_IOManager\ExternalOutputManager.c **** 	sizeof(ExternalGlobalData_0)
 184:C:/Workspace/FW_Platform2_5/trunk/PlatformLibrary/LIB_IOManager\ExternalOutputManager.c **** #endif
 185:C:/Workspace/FW_Platform2_5/trunk/PlatformLibrary/LIB_IOManager\ExternalOutputManager.c **** 	},
 186:C:/Workspace/FW_Platform2_5/trunk/PlatformLibrary/LIB_IOManager\ExternalOutputManager.c **** #endif	
 187:C:/Workspace/FW_Platform2_5/trunk/PlatformLibrary/LIB_IOManager\ExternalOutputManager.c **** #if defined(CONFIG_LIB_EXTERNAL_BOARD_SUPPORT) && defined(IOM_EXTERNAL_1_ENABLED)
 188:C:/Workspace/FW_Platform2_5/trunk/PlatformLibrary/LIB_IOManager\ExternalOutputManager.c **** 	{IOM_ReadRamExternal_1, sizeof(IOM_ReadRamExternal_1)
 189:C:/Workspace/FW_Platform2_5/trunk/PlatformLibrary/LIB_IOManager\ExternalOutputManager.c **** #if defined(CONFIG_EXTERNAL_GLOBAL_DATA_BLOCK_SUPPORT)
 190:C:/Workspace/FW_Platform2_5/trunk/PlatformLibrary/LIB_IOManager\ExternalOutputManager.c **** 	,
 191:C:/Workspace/FW_Platform2_5/trunk/PlatformLibrary/LIB_IOManager\ExternalOutputManager.c **** 	ExternalGlobalData_1,
 192:C:/Workspace/FW_Platform2_5/trunk/PlatformLibrary/LIB_IOManager\ExternalOutputManager.c **** 	sizeof(ExternalGlobalData_1)
 193:C:/Workspace/FW_Platform2_5/trunk/PlatformLibrary/LIB_IOManager\ExternalOutputManager.c **** #endif
 194:C:/Workspace/FW_Platform2_5/trunk/PlatformLibrary/LIB_IOManager\ExternalOutputManager.c **** 	},
 195:C:/Workspace/FW_Platform2_5/trunk/PlatformLibrary/LIB_IOManager\ExternalOutputManager.c **** #endif /* defined(CONFIG_LIB_EXTERNAL_BOARD_SUPPORT)	&& defined(IOM_EXTERNAL_0_ENABLED)*/
 196:C:/Workspace/FW_Platform2_5/trunk/PlatformLibrary/LIB_IOManager\ExternalOutputManager.c **** };
 197:C:/Workspace/FW_Platform2_5/trunk/PlatformLibrary/LIB_IOManager\ExternalOutputManager.c **** 
 198:C:/Workspace/FW_Platform2_5/trunk/PlatformLibrary/LIB_IOManager\ExternalOutputManager.c **** 
 199:C:/Workspace/FW_Platform2_5/trunk/PlatformLibrary/LIB_IOManager\ExternalOutputManager.c **** uint8_t IOM_External_CommandBufferCntTable[EXTERNAL_NUM];
 200:C:/Workspace/FW_Platform2_5/trunk/PlatformLibrary/LIB_IOManager\ExternalOutputManager.c **** 
 201:C:/Workspace/FW_Platform2_5/trunk/PlatformLibrary/LIB_IOManager\ExternalOutputManager.c **** 
 202:C:/Workspace/FW_Platform2_5/trunk/PlatformLibrary/LIB_IOManager\ExternalOutputManager.c **** /* Static */
 203:C:/Workspace/FW_Platform2_5/trunk/PlatformLibrary/LIB_IOManager\ExternalOutputManager.c **** static uint8_t ExternalBoardCounter=0;
 204:C:/Workspace/FW_Platform2_5/trunk/PlatformLibrary/LIB_IOManager\ExternalOutputManager.c **** 
 205:C:/Workspace/FW_Platform2_5/trunk/PlatformLibrary/LIB_IOManager\ExternalOutputManager.c **** /* ******************* */
 206:C:/Workspace/FW_Platform2_5/trunk/PlatformLibrary/LIB_IOManager\ExternalOutputManager.c **** /* Functions Prototype */
 207:C:/Workspace/FW_Platform2_5/trunk/PlatformLibrary/LIB_IOManager\ExternalOutputManager.c **** /* ******************* */
 208:C:/Workspace/FW_Platform2_5/trunk/PlatformLibrary/LIB_IOManager\ExternalOutputManager.c **** 
 209:C:/Workspace/FW_Platform2_5/trunk/PlatformLibrary/LIB_IOManager\ExternalOutputManager.c **** 
 210:C:/Workspace/FW_Platform2_5/trunk/PlatformLibrary/LIB_IOManager\ExternalOutputManager.c **** /* Exported function */
 211:C:/Workspace/FW_Platform2_5/trunk/PlatformLibrary/LIB_IOManager\ExternalOutputManager.c **** 
 212:C:/Workspace/FW_Platform2_5/trunk/PlatformLibrary/LIB_IOManager\ExternalOutputManager.c **** /* Local Function */
 213:C:/Workspace/FW_Platform2_5/trunk/PlatformLibrary/LIB_IOManager\ExternalOutputManager.c **** static uint8_t LIB_IOM_External_PilotType2CmdBufferSize(uint8_t pilotType);
 214:C:/Workspace/FW_Platform2_5/trunk/PlatformLibrary/LIB_IOManager\ExternalOutputManager.c **** 
 215:C:/Workspace/FW_Platform2_5/trunk/PlatformLibrary/LIB_IOManager\ExternalOutputManager.c **** 
 216:C:/Workspace/FW_Platform2_5/trunk/PlatformLibrary/LIB_IOManager\ExternalOutputManager.c **** 
 217:C:/Workspace/FW_Platform2_5/trunk/PlatformLibrary/LIB_IOManager\ExternalOutputManager.c **** /* *************** */
 218:C:/Workspace/FW_Platform2_5/trunk/PlatformLibrary/LIB_IOManager\ExternalOutputManager.c **** /* Function Bodies */
 219:C:/Workspace/FW_Platform2_5/trunk/PlatformLibrary/LIB_IOManager\ExternalOutputManager.c **** /* *************** */
 220:C:/Workspace/FW_Platform2_5/trunk/PlatformLibrary/LIB_IOManager\ExternalOutputManager.c **** 
 221:C:/Workspace/FW_Platform2_5/trunk/PlatformLibrary/LIB_IOManager\ExternalOutputManager.c **** /* Exported function */
 222:C:/Workspace/FW_Platform2_5/trunk/PlatformLibrary/LIB_IOManager\ExternalOutputManager.c **** 
 223:C:/Workspace/FW_Platform2_5/trunk/PlatformLibrary/LIB_IOManager\ExternalOutputManager.c **** 
 224:C:/Workspace/FW_Platform2_5/trunk/PlatformLibrary/LIB_IOManager\ExternalOutputManager.c **** /**
 225:C:/Workspace/FW_Platform2_5/trunk/PlatformLibrary/LIB_IOManager\ExternalOutputManager.c **** External outputs initialization.
 226:C:/Workspace/FW_Platform2_5/trunk/PlatformLibrary/LIB_IOManager\ExternalOutputManager.c **** */
 227:C:/Workspace/FW_Platform2_5/trunk/PlatformLibrary/LIB_IOManager\ExternalOutputManager.c **** void LIB_IOM_External_Init(void)
 228:C:/Workspace/FW_Platform2_5/trunk/PlatformLibrary/LIB_IOManager\ExternalOutputManager.c **** {
  10                             		.loc 1 228 0
 229:C:/Workspace/FW_Platform2_5/trunk/PlatformLibrary/LIB_IOManager\ExternalOutputManager.c **** 	memset(IOM_External_CommandBufferCntTable, 0, sizeof(IOM_External_CommandBufferCntTable));
  11                             		.loc 1 229 0
  12 0000 FB E2 00 00 00 00       		mov.L	#_IOM_External_CommandBufferCntTable, r14
  13 0006 F8 E4 00                		mov.B	#0, [r14]
  14 0009 02                      		rts
  15                             	.LFE0:
  17                             		.section	.text.LIB_IOM_External_New,"ax",@progbits
  18                             		.global	_LIB_IOM_External_New
  20                             	_LIB_IOM_External_New:
  21                             	.LFB1:
 230:C:/Workspace/FW_Platform2_5/trunk/PlatformLibrary/LIB_IOManager\ExternalOutputManager.c **** }
 231:C:/Workspace/FW_Platform2_5/trunk/PlatformLibrary/LIB_IOManager\ExternalOutputManager.c **** 
 232:C:/Workspace/FW_Platform2_5/trunk/PlatformLibrary/LIB_IOManager\ExternalOutputManager.c **** /**
 233:C:/Workspace/FW_Platform2_5/trunk/PlatformLibrary/LIB_IOManager\ExternalOutputManager.c **** \n Adds new external load to outputmanager
 234:C:/Workspace/FW_Platform2_5/trunk/PlatformLibrary/LIB_IOManager\ExternalOutputManager.c **** 
 235:C:/Workspace/FW_Platform2_5/trunk/PlatformLibrary/LIB_IOManager\ExternalOutputManager.c **** \param  [in] pInfoBuffer pointer to InfoBuffer allocated by Application layer.
 236:C:/Workspace/FW_Platform2_5/trunk/PlatformLibrary/LIB_IOManager\ExternalOutputManager.c **** \param  [in] szInfoBuffer size in bytes of the InfoBuffer.
 237:C:/Workspace/FW_Platform2_5/trunk/PlatformLibrary/LIB_IOManager\ExternalOutputManager.c **** \param  [in] loadPos Load's position inside Output Map
 238:C:/Workspace/FW_Platform2_5/trunk/PlatformLibrary/LIB_IOManager\ExternalOutputManager.c **** 
 239:C:/Workspace/FW_Platform2_5/trunk/PlatformLibrary/LIB_IOManager\ExternalOutputManager.c **** 
 240:C:/Workspace/FW_Platform2_5/trunk/PlatformLibrary/LIB_IOManager\ExternalOutputManager.c **** \return 	LIB_IOM_ErrorType
 241:C:/Workspace/FW_Platform2_5/trunk/PlatformLibrary/LIB_IOManager\ExternalOutputManager.c **** 
 242:C:/Workspace/FW_Platform2_5/trunk/PlatformLibrary/LIB_IOManager\ExternalOutputManager.c **** \retval		LIB_IOM_NO_ERROR   	 no error
 243:C:/Workspace/FW_Platform2_5/trunk/PlatformLibrary/LIB_IOManager\ExternalOutputManager.c **** \retval		LIB_IOM_EXTERNAL_SETINFOBUFFER_ERR (error, for detail use LIB_IOM_External_GetExternalOutM
 244:C:/Workspace/FW_Platform2_5/trunk/PlatformLibrary/LIB_IOManager\ExternalOutputManager.c **** 
 245:C:/Workspace/FW_Platform2_5/trunk/PlatformLibrary/LIB_IOManager\ExternalOutputManager.c **** \par Example
 246:C:/Workspace/FW_Platform2_5/trunk/PlatformLibrary/LIB_IOManager\ExternalOutputManager.c **** Once defined info buffer and its size in bytes
 247:C:/Workspace/FW_Platform2_5/trunk/PlatformLibrary/LIB_IOManager\ExternalOutputManager.c **** \code
 248:C:/Workspace/FW_Platform2_5/trunk/PlatformLibrary/LIB_IOManager\ExternalOutputManager.c **** #define IOM_EXTERNAL_WP_INFOBUFFER_SIZE (32)
 249:C:/Workspace/FW_Platform2_5/trunk/PlatformLibrary/LIB_IOManager\ExternalOutputManager.c **** 
 250:C:/Workspace/FW_Platform2_5/trunk/PlatformLibrary/LIB_IOManager\ExternalOutputManager.c **** _DW_GLOBAL_ uint8_t Wash_Pump_InfoBuffer[IOM_EXTERNAL_WP_INFOBUFFER_SIZE];
 251:C:/Workspace/FW_Platform2_5/trunk/PlatformLibrary/LIB_IOManager\ExternalOutputManager.c **** \endcode
 252:C:/Workspace/FW_Platform2_5/trunk/PlatformLibrary/LIB_IOManager\ExternalOutputManager.c **** 
 253:C:/Workspace/FW_Platform2_5/trunk/PlatformLibrary/LIB_IOManager\ExternalOutputManager.c **** application level adds the load by specyfing load ID in the putput table map
 254:C:/Workspace/FW_Platform2_5/trunk/PlatformLibrary/LIB_IOManager\ExternalOutputManager.c **** \code
 255:C:/Workspace/FW_Platform2_5/trunk/PlatformLibrary/LIB_IOManager\ExternalOutputManager.c **** LIB_IOM_External_New ( &Wash_Pump_InfoBuffer[0], (uint8_t)IOM_EXTERNAL_WP_INFOBUFFER_SIZE,  Pump_Po
 256:C:/Workspace/FW_Platform2_5/trunk/PlatformLibrary/LIB_IOManager\ExternalOutputManager.c **** \endcode
 257:C:/Workspace/FW_Platform2_5/trunk/PlatformLibrary/LIB_IOManager\ExternalOutputManager.c **** 
 258:C:/Workspace/FW_Platform2_5/trunk/PlatformLibrary/LIB_IOManager\ExternalOutputManager.c **** \author		Roberto Fioravanti
 259:C:/Workspace/FW_Platform2_5/trunk/PlatformLibrary/LIB_IOManager\ExternalOutputManager.c **** 
 260:C:/Workspace/FW_Platform2_5/trunk/PlatformLibrary/LIB_IOManager\ExternalOutputManager.c **** \date			13/09/2010
 261:C:/Workspace/FW_Platform2_5/trunk/PlatformLibrary/LIB_IOManager\ExternalOutputManager.c **** 
 262:C:/Workspace/FW_Platform2_5/trunk/PlatformLibrary/LIB_IOManager\ExternalOutputManager.c **** \version    1.0.0
 263:C:/Workspace/FW_Platform2_5/trunk/PlatformLibrary/LIB_IOManager\ExternalOutputManager.c **** 
 264:C:/Workspace/FW_Platform2_5/trunk/PlatformLibrary/LIB_IOManager\ExternalOutputManager.c **** \note       \par \b Nota1:
 265:C:/Workspace/FW_Platform2_5/trunk/PlatformLibrary/LIB_IOManager\ExternalOutputManager.c ****             documentation by Roberto Fioravanti
 266:C:/Workspace/FW_Platform2_5/trunk/PlatformLibrary/LIB_IOManager\ExternalOutputManager.c **** 
 267:C:/Workspace/FW_Platform2_5/trunk/PlatformLibrary/LIB_IOManager\ExternalOutputManager.c **** \attention you can add maximum IOM_NUM_OF_EXTERNAL_LOADS of external loads.
 268:C:/Workspace/FW_Platform2_5/trunk/PlatformLibrary/LIB_IOManager\ExternalOutputManager.c **** */
 269:C:/Workspace/FW_Platform2_5/trunk/PlatformLibrary/LIB_IOManager\ExternalOutputManager.c **** LIB_IOM_ErrorType LIB_IOM_External_New( uint8_t* pInfoBuffer, uint8_t szInfoBuffer,  uint8_t loadPo
 270:C:/Workspace/FW_Platform2_5/trunk/PlatformLibrary/LIB_IOManager\ExternalOutputManager.c **** {
  22                             		.loc 1 270 0
  23                             	.LVL0:
  24 0000 6E 7B                   		pushm	r7-r11
  25                             	.LCFI0:
 271:C:/Workspace/FW_Platform2_5/trunk/PlatformLibrary/LIB_IOManager\ExternalOutputManager.c **** #if !defined(CONFIG_EXT_OUTMNG_EMULATE_SETTING)
 272:C:/Workspace/FW_Platform2_5/trunk/PlatformLibrary/LIB_IOManager\ExternalOutputManager.c **** 	struct Loader pilotTypeParametersPtr={0,0};
 273:C:/Workspace/FW_Platform2_5/trunk/PlatformLibrary/LIB_IOManager\ExternalOutputManager.c **** #endif
 274:C:/Workspace/FW_Platform2_5/trunk/PlatformLibrary/LIB_IOManager\ExternalOutputManager.c **** 	uint8_t	*pByte;
 275:C:/Workspace/FW_Platform2_5/trunk/PlatformLibrary/LIB_IOManager\ExternalOutputManager.c **** 	uint8_t		loadIndex;
 276:C:/Workspace/FW_Platform2_5/trunk/PlatformLibrary/LIB_IOManager\ExternalOutputManager.c **** 	uint8_t		szCmd;
 277:C:/Workspace/FW_Platform2_5/trunk/PlatformLibrary/LIB_IOManager\ExternalOutputManager.c **** 	uint8_t		pilotType;
 278:C:/Workspace/FW_Platform2_5/trunk/PlatformLibrary/LIB_IOManager\ExternalOutputManager.c **** 	uint8_t		uart=0;
 279:C:/Workspace/FW_Platform2_5/trunk/PlatformLibrary/LIB_IOManager\ExternalOutputManager.c **** 	uint8_t		szCmdBuffer;
 280:C:/Workspace/FW_Platform2_5/trunk/PlatformLibrary/LIB_IOManager\ExternalOutputManager.c **** 	
 281:C:/Workspace/FW_Platform2_5/trunk/PlatformLibrary/LIB_IOManager\ExternalOutputManager.c **** 	if(ExternalBoardCounter >= IOM_NUM_OF_EXTERNAL_LOADS)
  26                             		.loc 1 281 0
  27 0002 FB B2 00 00 00 00       		mov.L	#_ExternalBoardCounter, r11
  28 0008 58 BB                   		movu.B	[r11], r11
 270:C:/Workspace/FW_Platform2_5/trunk/PlatformLibrary/LIB_IOManager\ExternalOutputManager.c **** {
  29                             		.loc 1 270 0
  30 000a 60 40                   		sub	#4, r0
  31                             	.LCFI1:
  32                             		.loc 1 281 0
  33 000c 61 1B                   		cmp	#1, r11
  34 000e 25 06                   		bleu	.L3
 282:C:/Workspace/FW_Platform2_5/trunk/PlatformLibrary/LIB_IOManager\ExternalOutputManager.c **** 	{
 283:C:/Workspace/FW_Platform2_5/trunk/PlatformLibrary/LIB_IOManager\ExternalOutputManager.c **** 		PLT_ERROR_WARNING(PLT_ERROR_IOM_EXT_OUTMNG_MAX_NUM_EXTERNAL_LOADS_REACHED_ERR);
  35                             		.loc 1 283 0
  36 0010 66 A1                   		mov.L	#10, r1
  37                             	.LVL1:
  38 0012 2E 54                   		bra	.L13
  39                             	.LVL2:
  40                             	.L3:
  41 0014 EF 1A                   		mov.L	r1, r10
  42 0016 CF 27                   		mov.B	r2, r7
 284:C:/Workspace/FW_Platform2_5/trunk/PlatformLibrary/LIB_IOManager\ExternalOutputManager.c **** 		return LIB_IOM_EXTERNAL_SETINFOBUFFER_ERR; /* Serious Error */
 285:C:/Workspace/FW_Platform2_5/trunk/PlatformLibrary/LIB_IOManager\ExternalOutputManager.c **** 	}
 286:C:/Workspace/FW_Platform2_5/trunk/PlatformLibrary/LIB_IOManager\ExternalOutputManager.c **** 
 287:C:/Workspace/FW_Platform2_5/trunk/PlatformLibrary/LIB_IOManager\ExternalOutputManager.c **** #if defined(CONFIG_EXT_OUTMNG_EMULATE_SETTING_PILOT_TYPE)
 288:C:/Workspace/FW_Platform2_5/trunk/PlatformLibrary/LIB_IOManager\ExternalOutputManager.c **** 	pilotType = CONFIG_EXT_OUTMNG_EMULATE_SETTING_PILOT_TYPE_ID;
 289:C:/Workspace/FW_Platform2_5/trunk/PlatformLibrary/LIB_IOManager\ExternalOutputManager.c **** #else
 290:C:/Workspace/FW_Platform2_5/trunk/PlatformLibrary/LIB_IOManager\ExternalOutputManager.c **** 
 291:C:/Workspace/FW_Platform2_5/trunk/PlatformLibrary/LIB_IOManager\ExternalOutputManager.c **** 	loadIndex = LIB_IOM_FindLoad(loadPos, &pByte);
  43                             		.loc 1 291 0
  44 0018 CF 31                   		mov.B	r3, r1
  45                             	.LVL3:
  46 001a EF 02                   		mov.L	r0, r2
  47                             	.LVL4:
  48 001c 05 00 00 00             		bsr	_LIB_IOM_FindLoad
  49                             	.LVL5:
 292:C:/Workspace/FW_Platform2_5/trunk/PlatformLibrary/LIB_IOManager\ExternalOutputManager.c **** 	
 293:C:/Workspace/FW_Platform2_5/trunk/PlatformLibrary/LIB_IOManager\ExternalOutputManager.c **** 	/* warning: pByte is modified by FinLoad and now point to the start addr. of load's descr.*/
 294:C:/Workspace/FW_Platform2_5/trunk/PlatformLibrary/LIB_IOManager\ExternalOutputManager.c **** 	if ( loadIndex == LOAD_NOT_FOUND )
  50                             		.loc 1 294 0
  51 0020 5B 11                   		movu.B	r1, r1
  52 0022 75 51 FF                		cmp	#0xff, r1
  53 0025 3A 82 00                		beq	.L9
  54                             	.LVL6:
 295:C:/Workspace/FW_Platform2_5/trunk/PlatformLibrary/LIB_IOManager\ExternalOutputManager.c **** 	{
 296:C:/Workspace/FW_Platform2_5/trunk/PlatformLibrary/LIB_IOManager\ExternalOutputManager.c **** 	    return LIB_IOM_EXTERNAL_SETINFOBUFFER_ERR;
 297:C:/Workspace/FW_Platform2_5/trunk/PlatformLibrary/LIB_IOManager\ExternalOutputManager.c **** 	}
 298:C:/Workspace/FW_Platform2_5/trunk/PlatformLibrary/LIB_IOManager\ExternalOutputManager.c **** 	
 299:C:/Workspace/FW_Platform2_5/trunk/PlatformLibrary/LIB_IOManager\ExternalOutputManager.c **** 	pilotType = LIB_IOM_GetPilotType(PILOT_TYPE_FIELD(pByte));
  55                             		.loc 1 299 0
  56 0028 EC 0B                   		mov.L	[r0], r11
  57 002a CD B1 02                		mov.B	2[r11], r1
  58                             	.LVL7:
  59 002d 05 00 00 00             		bsr	_LIB_IOM_GetPilotType
  60                             	.LVL8:
  61                             	.LBB4:
  62                             	.LBB5:
 300:C:/Workspace/FW_Platform2_5/trunk/PlatformLibrary/LIB_IOManager\ExternalOutputManager.c **** #endif
 301:C:/Workspace/FW_Platform2_5/trunk/PlatformLibrary/LIB_IOManager\ExternalOutputManager.c **** 
 302:C:/Workspace/FW_Platform2_5/trunk/PlatformLibrary/LIB_IOManager\ExternalOutputManager.c **** #if !defined(CONFIG_EXT_OUTMNG_EMULATE_SETTING)
 303:C:/Workspace/FW_Platform2_5/trunk/PlatformLibrary/LIB_IOManager\ExternalOutputManager.c **** 	/* get pointer to pylot type parameters */
 304:C:/Workspace/FW_Platform2_5/trunk/PlatformLibrary/LIB_IOManager\ExternalOutputManager.c **** 	if (0xFF != PILOT_TYPE_PARAMS_OFFSET(pByte))
 305:C:/Workspace/FW_Platform2_5/trunk/PlatformLibrary/LIB_IOManager\ExternalOutputManager.c ****     {
 306:C:/Workspace/FW_Platform2_5/trunk/PlatformLibrary/LIB_IOManager\ExternalOutputManager.c ****         /* Pilot Parameters Available */
 307:C:/Workspace/FW_Platform2_5/trunk/PlatformLibrary/LIB_IOManager\ExternalOutputManager.c ****         if ( 0 != BasicLoader( SF_PTR_IO_DEVICE,PILOT_TYPE_PARAMS_OFFSET(pByte), &pilotTypeParamete
 308:C:/Workspace/FW_Platform2_5/trunk/PlatformLibrary/LIB_IOManager\ExternalOutputManager.c ****         {
 309:C:/Workspace/FW_Platform2_5/trunk/PlatformLibrary/LIB_IOManager\ExternalOutputManager.c ****             PLT_ERROR_WARNING(PLT_ERROR_IOM_EXT_OUTMNG_OUTPUT_PARAM_NOT_FOUND_ERR);
 310:C:/Workspace/FW_Platform2_5/trunk/PlatformLibrary/LIB_IOManager\ExternalOutputManager.c ****             return LIB_IOM_EXTERNAL_SETINFOBUFFER_ERR;  /* Serious Error */            
 311:C:/Workspace/FW_Platform2_5/trunk/PlatformLibrary/LIB_IOManager\ExternalOutputManager.c ****         }
 312:C:/Workspace/FW_Platform2_5/trunk/PlatformLibrary/LIB_IOManager\ExternalOutputManager.c ****     }
 313:C:/Workspace/FW_Platform2_5/trunk/PlatformLibrary/LIB_IOManager\ExternalOutputManager.c **** 	else
 314:C:/Workspace/FW_Platform2_5/trunk/PlatformLibrary/LIB_IOManager\ExternalOutputManager.c **** 	{
 315:C:/Workspace/FW_Platform2_5/trunk/PlatformLibrary/LIB_IOManager\ExternalOutputManager.c **** 		PLT_ERROR_WARNING(PLT_ERROR_IOM_EXT_OUTMNG_INVALID_PILOTTYPE_OFFSET_ERR);
 316:C:/Workspace/FW_Platform2_5/trunk/PlatformLibrary/LIB_IOManager\ExternalOutputManager.c ****         return LIB_IOM_EXTERNAL_SETINFOBUFFER_ERR;  /* Serious Error */
 317:C:/Workspace/FW_Platform2_5/trunk/PlatformLibrary/LIB_IOManager\ExternalOutputManager.c **** 	}
 318:C:/Workspace/FW_Platform2_5/trunk/PlatformLibrary/LIB_IOManager\ExternalOutputManager.c **** 	
 319:C:/Workspace/FW_Platform2_5/trunk/PlatformLibrary/LIB_IOManager\ExternalOutputManager.c **** 	if(!pilotTypeParametersPtr.DataLenght || (pilotTypeParametersPtr.Data==NULL))
 320:C:/Workspace/FW_Platform2_5/trunk/PlatformLibrary/LIB_IOManager\ExternalOutputManager.c **** 	{
 321:C:/Workspace/FW_Platform2_5/trunk/PlatformLibrary/LIB_IOManager\ExternalOutputManager.c **** 		PLT_ERROR_WARNING(PLT_ERROR_IOM_EXT_OUTMNG_INVALID_PILOTTYPE_PARAMS_ERR);
 322:C:/Workspace/FW_Platform2_5/trunk/PlatformLibrary/LIB_IOManager\ExternalOutputManager.c ****         return LIB_IOM_EXTERNAL_SETINFOBUFFER_ERR;  /* Serious Error */
 323:C:/Workspace/FW_Platform2_5/trunk/PlatformLibrary/LIB_IOManager\ExternalOutputManager.c **** 	}
 324:C:/Workspace/FW_Platform2_5/trunk/PlatformLibrary/LIB_IOManager\ExternalOutputManager.c **** 	
 325:C:/Workspace/FW_Platform2_5/trunk/PlatformLibrary/LIB_IOManager\ExternalOutputManager.c **** 	uart = (uint8_t)(EXTERNAL_PARAMS_UART(pilotTypeParametersPtr.Data)) - (uint8_t)EXTERNAL_BOARD_MIN;
 326:C:/Workspace/FW_Platform2_5/trunk/PlatformLibrary/LIB_IOManager\ExternalOutputManager.c **** #endif
 327:C:/Workspace/FW_Platform2_5/trunk/PlatformLibrary/LIB_IOManager\ExternalOutputManager.c **** 	
 328:C:/Workspace/FW_Platform2_5/trunk/PlatformLibrary/LIB_IOManager\ExternalOutputManager.c **** 	if(uart >= EXTERNAL_NUM)
 329:C:/Workspace/FW_Platform2_5/trunk/PlatformLibrary/LIB_IOManager\ExternalOutputManager.c **** 	{
 330:C:/Workspace/FW_Platform2_5/trunk/PlatformLibrary/LIB_IOManager\ExternalOutputManager.c **** 		PLT_ERROR_WARNING(PLT_ERROR_IOM_EXT_OUTMNG_MAX_CHANNEL_NUM_REACHED_ERR);
 331:C:/Workspace/FW_Platform2_5/trunk/PlatformLibrary/LIB_IOManager\ExternalOutputManager.c ****         return LIB_IOM_EXTERNAL_SETINFOBUFFER_ERR;  /* Serious Error */
 332:C:/Workspace/FW_Platform2_5/trunk/PlatformLibrary/LIB_IOManager\ExternalOutputManager.c **** 	}
 333:C:/Workspace/FW_Platform2_5/trunk/PlatformLibrary/LIB_IOManager\ExternalOutputManager.c **** 	
 334:C:/Workspace/FW_Platform2_5/trunk/PlatformLibrary/LIB_IOManager\ExternalOutputManager.c **** 	szCmd=LIB_IOM_External_PilotType2CmdBufferSize(pilotType);
 335:C:/Workspace/FW_Platform2_5/trunk/PlatformLibrary/LIB_IOManager\ExternalOutputManager.c **** 	
 336:C:/Workspace/FW_Platform2_5/trunk/PlatformLibrary/LIB_IOManager\ExternalOutputManager.c **** 	szCmdBuffer=IOM_External_CommandBufferCntTable[uart];
 337:C:/Workspace/FW_Platform2_5/trunk/PlatformLibrary/LIB_IOManager\ExternalOutputManager.c **** 	if(!szCmdBuffer)
 338:C:/Workspace/FW_Platform2_5/trunk/PlatformLibrary/LIB_IOManager\ExternalOutputManager.c **** 	{
 339:C:/Workspace/FW_Platform2_5/trunk/PlatformLibrary/LIB_IOManager\ExternalOutputManager.c **** 		szCmdBuffer++; /*byte reserved for Seq ID */
 340:C:/Workspace/FW_Platform2_5/trunk/PlatformLibrary/LIB_IOManager\ExternalOutputManager.c **** 	}
 341:C:/Workspace/FW_Platform2_5/trunk/PlatformLibrary/LIB_IOManager\ExternalOutputManager.c **** 	
 342:C:/Workspace/FW_Platform2_5/trunk/PlatformLibrary/LIB_IOManager\ExternalOutputManager.c **** 	if((szCmdBuffer + szCmd + EXTERNAL_COMMAND_BUFFER_HDR_SZ) > IOM_External_CommandBufferTable[uart].
 343:C:/Workspace/FW_Platform2_5/trunk/PlatformLibrary/LIB_IOManager\ExternalOutputManager.c **** 	{
 344:C:/Workspace/FW_Platform2_5/trunk/PlatformLibrary/LIB_IOManager\ExternalOutputManager.c **** 		PLT_ERROR_WARNING(PLT_ERROR_IOM_EXT_OUTMNG_TOOMANY_BYTES_CMDBUFFER_ERR);
 345:C:/Workspace/FW_Platform2_5/trunk/PlatformLibrary/LIB_IOManager\ExternalOutputManager.c ****         return LIB_IOM_EXTERNAL_SETINFOBUFFER_ERR;  /* Serious Error */
 346:C:/Workspace/FW_Platform2_5/trunk/PlatformLibrary/LIB_IOManager\ExternalOutputManager.c **** 	}
 347:C:/Workspace/FW_Platform2_5/trunk/PlatformLibrary/LIB_IOManager\ExternalOutputManager.c **** 	
 348:C:/Workspace/FW_Platform2_5/trunk/PlatformLibrary/LIB_IOManager\ExternalOutputManager.c **** 	
 349:C:/Workspace/FW_Platform2_5/trunk/PlatformLibrary/LIB_IOManager\ExternalOutputManager.c **** 	IOM_External_LoadsTable[ExternalBoardCounter].pPilotTypeInfo	= pInfoBuffer;
 350:C:/Workspace/FW_Platform2_5/trunk/PlatformLibrary/LIB_IOManager\ExternalOutputManager.c **** 	IOM_External_LoadsTable[ExternalBoardCounter].szPilotTypeInfo = szInfoBuffer;
 351:C:/Workspace/FW_Platform2_5/trunk/PlatformLibrary/LIB_IOManager\ExternalOutputManager.c **** 	IOM_External_LoadsTable[ExternalBoardCounter].PilotType = pilotType;
 352:C:/Workspace/FW_Platform2_5/trunk/PlatformLibrary/LIB_IOManager\ExternalOutputManager.c **** 	IOM_External_LoadsTable[ExternalBoardCounter].CmdOffset = szCmdBuffer;
 353:C:/Workspace/FW_Platform2_5/trunk/PlatformLibrary/LIB_IOManager\ExternalOutputManager.c **** 	IOM_External_LoadsTable[ExternalBoardCounter].szCmd = szCmd;
 354:C:/Workspace/FW_Platform2_5/trunk/PlatformLibrary/LIB_IOManager\ExternalOutputManager.c **** #if !defined(CONFIG_EXT_OUTMNG_EMULATE_SETTING)
 355:C:/Workspace/FW_Platform2_5/trunk/PlatformLibrary/LIB_IOManager\ExternalOutputManager.c **** 	IOM_External_LoadsTable[ExternalBoardCounter].Displacement = EXTERNAL_PARAMS_DISPL(pilotTypeParame
 356:C:/Workspace/FW_Platform2_5/trunk/PlatformLibrary/LIB_IOManager\ExternalOutputManager.c **** #else
 357:C:/Workspace/FW_Platform2_5/trunk/PlatformLibrary/LIB_IOManager\ExternalOutputManager.c **** 	IOM_External_LoadsTable[ExternalBoardCounter].Displacement = ExternalBoardCounter;
 358:C:/Workspace/FW_Platform2_5/trunk/PlatformLibrary/LIB_IOManager\ExternalOutputManager.c **** #endif
 359:C:/Workspace/FW_Platform2_5/trunk/PlatformLibrary/LIB_IOManager\ExternalOutputManager.c **** 	IOM_External_LoadsTable[ExternalBoardCounter].CommCh = uart;
 360:C:/Workspace/FW_Platform2_5/trunk/PlatformLibrary/LIB_IOManager\ExternalOutputManager.c **** 
 361:C:/Workspace/FW_Platform2_5/trunk/PlatformLibrary/LIB_IOManager\ExternalOutputManager.c **** 	szCmdBuffer += (szCmd+EXTERNAL_COMMAND_BUFFER_HDR_SZ);
 362:C:/Workspace/FW_Platform2_5/trunk/PlatformLibrary/LIB_IOManager\ExternalOutputManager.c **** 	IOM_External_CommandBufferCntTable[uart] = szCmdBuffer;
 363:C:/Workspace/FW_Platform2_5/trunk/PlatformLibrary/LIB_IOManager\ExternalOutputManager.c **** 	
 364:C:/Workspace/FW_Platform2_5/trunk/PlatformLibrary/LIB_IOManager\ExternalOutputManager.c **** #if !defined(CONFIG_LIB_LOADSREQUEST_SUPPORT)
 365:C:/Workspace/FW_Platform2_5/trunk/PlatformLibrary/LIB_IOManager\ExternalOutputManager.c **** 	ExternalBoardCounter++;
 366:C:/Workspace/FW_Platform2_5/trunk/PlatformLibrary/LIB_IOManager\ExternalOutputManager.c **** #endif
 367:C:/Workspace/FW_Platform2_5/trunk/PlatformLibrary/LIB_IOManager\ExternalOutputManager.c **** 
 368:C:/Workspace/FW_Platform2_5/trunk/PlatformLibrary/LIB_IOManager\ExternalOutputManager.c **** 	return LIB_IOM_NO_ERROR;
 369:C:/Workspace/FW_Platform2_5/trunk/PlatformLibrary/LIB_IOManager\ExternalOutputManager.c **** }
 370:C:/Workspace/FW_Platform2_5/trunk/PlatformLibrary/LIB_IOManager\ExternalOutputManager.c **** 
 371:C:/Workspace/FW_Platform2_5/trunk/PlatformLibrary/LIB_IOManager\ExternalOutputManager.c **** 
 372:C:/Workspace/FW_Platform2_5/trunk/PlatformLibrary/LIB_IOManager\ExternalOutputManager.c **** 
 373:C:/Workspace/FW_Platform2_5/trunk/PlatformLibrary/LIB_IOManager\ExternalOutputManager.c **** 
 374:C:/Workspace/FW_Platform2_5/trunk/PlatformLibrary/LIB_IOManager\ExternalOutputManager.c **** 
 375:C:/Workspace/FW_Platform2_5/trunk/PlatformLibrary/LIB_IOManager\ExternalOutputManager.c **** 
 376:C:/Workspace/FW_Platform2_5/trunk/PlatformLibrary/LIB_IOManager\ExternalOutputManager.c **** 
 377:C:/Workspace/FW_Platform2_5/trunk/PlatformLibrary/LIB_IOManager\ExternalOutputManager.c **** /**
 378:C:/Workspace/FW_Platform2_5/trunk/PlatformLibrary/LIB_IOManager\ExternalOutputManager.c **** \n Writes the CommandBuffer with the command value relating to the specified PilotType.
 379:C:/Workspace/FW_Platform2_5/trunk/PlatformLibrary/LIB_IOManager\ExternalOutputManager.c **** 
 380:C:/Workspace/FW_Platform2_5/trunk/PlatformLibrary/LIB_IOManager\ExternalOutputManager.c **** \param  [in] pilotType PilotType of the load
 381:C:/Workspace/FW_Platform2_5/trunk/PlatformLibrary/LIB_IOManager\ExternalOutputManager.c **** \param  [in] pLoad pointer to GIOM_LoadStruct atructure containing the command
 382:C:/Workspace/FW_Platform2_5/trunk/PlatformLibrary/LIB_IOManager\ExternalOutputManager.c **** 
 383:C:/Workspace/FW_Platform2_5/trunk/PlatformLibrary/LIB_IOManager\ExternalOutputManager.c **** 
 384:C:/Workspace/FW_Platform2_5/trunk/PlatformLibrary/LIB_IOManager\ExternalOutputManager.c **** \return 	LIB_IOM_ErrorType
 385:C:/Workspace/FW_Platform2_5/trunk/PlatformLibrary/LIB_IOManager\ExternalOutputManager.c **** 
 386:C:/Workspace/FW_Platform2_5/trunk/PlatformLibrary/LIB_IOManager\ExternalOutputManager.c **** \retval		LIB_IOM_NO_ERROR   	 no error
 387:C:/Workspace/FW_Platform2_5/trunk/PlatformLibrary/LIB_IOManager\ExternalOutputManager.c **** \retval		LIB_IOM_EXTERNAL_SETINFOBUFFER_ERR (error, for detail use LIB_IOM_External_GetExternalOutM
 388:C:/Workspace/FW_Platform2_5/trunk/PlatformLibrary/LIB_IOManager\ExternalOutputManager.c **** 
 389:C:/Workspace/FW_Platform2_5/trunk/PlatformLibrary/LIB_IOManager\ExternalOutputManager.c **** \author		Roberto Fioravanti
 390:C:/Workspace/FW_Platform2_5/trunk/PlatformLibrary/LIB_IOManager\ExternalOutputManager.c **** 
 391:C:/Workspace/FW_Platform2_5/trunk/PlatformLibrary/LIB_IOManager\ExternalOutputManager.c **** \date			13/09/2010
 392:C:/Workspace/FW_Platform2_5/trunk/PlatformLibrary/LIB_IOManager\ExternalOutputManager.c **** 
 393:C:/Workspace/FW_Platform2_5/trunk/PlatformLibrary/LIB_IOManager\ExternalOutputManager.c **** \version    1.0.0
 394:C:/Workspace/FW_Platform2_5/trunk/PlatformLibrary/LIB_IOManager\ExternalOutputManager.c **** 
 395:C:/Workspace/FW_Platform2_5/trunk/PlatformLibrary/LIB_IOManager\ExternalOutputManager.c **** \note       \par \b Nota1:
 396:C:/Workspace/FW_Platform2_5/trunk/PlatformLibrary/LIB_IOManager\ExternalOutputManager.c ****             documentation by Roberto Fioravanti 
 397:C:/Workspace/FW_Platform2_5/trunk/PlatformLibrary/LIB_IOManager\ExternalOutputManager.c **** */
 398:C:/Workspace/FW_Platform2_5/trunk/PlatformLibrary/LIB_IOManager\ExternalOutputManager.c **** LIB_IOM_ErrorType LIB_IOM_External_SetCommand(uint8_t pilotType, const GIOM_LoadStruct *const pLoad
 399:C:/Workspace/FW_Platform2_5/trunk/PlatformLibrary/LIB_IOManager\ExternalOutputManager.c **** {
 400:C:/Workspace/FW_Platform2_5/trunk/PlatformLibrary/LIB_IOManager\ExternalOutputManager.c **** 	uint8_t i=0;
 401:C:/Workspace/FW_Platform2_5/trunk/PlatformLibrary/LIB_IOManager\ExternalOutputManager.c **** 	uint8_t uart;
 402:C:/Workspace/FW_Platform2_5/trunk/PlatformLibrary/LIB_IOManager\ExternalOutputManager.c **** 	uint8_t	offset;
 403:C:/Workspace/FW_Platform2_5/trunk/PlatformLibrary/LIB_IOManager\ExternalOutputManager.c **** 	uint8_t* pCmd;
 404:C:/Workspace/FW_Platform2_5/trunk/PlatformLibrary/LIB_IOManager\ExternalOutputManager.c **** 	
 405:C:/Workspace/FW_Platform2_5/trunk/PlatformLibrary/LIB_IOManager\ExternalOutputManager.c **** 	while((i<IOM_NUM_OF_EXTERNAL_LOADS))
 406:C:/Workspace/FW_Platform2_5/trunk/PlatformLibrary/LIB_IOManager\ExternalOutputManager.c **** 	{
 407:C:/Workspace/FW_Platform2_5/trunk/PlatformLibrary/LIB_IOManager\ExternalOutputManager.c **** 		if(pilotType ==  IOM_External_LoadsTable[i].PilotType)
 408:C:/Workspace/FW_Platform2_5/trunk/PlatformLibrary/LIB_IOManager\ExternalOutputManager.c **** 		{
 409:C:/Workspace/FW_Platform2_5/trunk/PlatformLibrary/LIB_IOManager\ExternalOutputManager.c **** 			break;
 410:C:/Workspace/FW_Platform2_5/trunk/PlatformLibrary/LIB_IOManager\ExternalOutputManager.c **** 		}
 411:C:/Workspace/FW_Platform2_5/trunk/PlatformLibrary/LIB_IOManager\ExternalOutputManager.c **** 		i++;
 412:C:/Workspace/FW_Platform2_5/trunk/PlatformLibrary/LIB_IOManager\ExternalOutputManager.c **** 	}
 413:C:/Workspace/FW_Platform2_5/trunk/PlatformLibrary/LIB_IOManager\ExternalOutputManager.c **** 	
 414:C:/Workspace/FW_Platform2_5/trunk/PlatformLibrary/LIB_IOManager\ExternalOutputManager.c **** 	if(i>=IOM_NUM_OF_EXTERNAL_LOADS)
 415:C:/Workspace/FW_Platform2_5/trunk/PlatformLibrary/LIB_IOManager\ExternalOutputManager.c **** 	{
 416:C:/Workspace/FW_Platform2_5/trunk/PlatformLibrary/LIB_IOManager\ExternalOutputManager.c **** 		PLT_ERROR_WARNING(PLT_ERROR_IOM_EXT_OUTMNG_MAX_NUM_EXTERNAL_LOADS_REACHED_ERR);
 417:C:/Workspace/FW_Platform2_5/trunk/PlatformLibrary/LIB_IOManager\ExternalOutputManager.c ****     	return LIB_IOM_EXTERNAL_SETCOMMAND_ERR;  /* Serious Error */
 418:C:/Workspace/FW_Platform2_5/trunk/PlatformLibrary/LIB_IOManager\ExternalOutputManager.c **** 	}
 419:C:/Workspace/FW_Platform2_5/trunk/PlatformLibrary/LIB_IOManager\ExternalOutputManager.c **** 	
 420:C:/Workspace/FW_Platform2_5/trunk/PlatformLibrary/LIB_IOManager\ExternalOutputManager.c **** 	uart = IOM_External_LoadsTable[i].CommCh;
 421:C:/Workspace/FW_Platform2_5/trunk/PlatformLibrary/LIB_IOManager\ExternalOutputManager.c **** 	offset = IOM_External_LoadsTable[i].CmdOffset;
 422:C:/Workspace/FW_Platform2_5/trunk/PlatformLibrary/LIB_IOManager\ExternalOutputManager.c **** 	pCmd = IOM_External_CommandBufferTable[uart].pCmdBuffer + offset;
 423:C:/Workspace/FW_Platform2_5/trunk/PlatformLibrary/LIB_IOManager\ExternalOutputManager.c **** 	UseExternalBoard();
 424:C:/Workspace/FW_Platform2_5/trunk/PlatformLibrary/LIB_IOManager\ExternalOutputManager.c **** 	*pCmd = pilotType;
 425:C:/Workspace/FW_Platform2_5/trunk/PlatformLibrary/LIB_IOManager\ExternalOutputManager.c **** 	*(pCmd+1) = IOM_External_LoadsTable[i].Displacement;	
 426:C:/Workspace/FW_Platform2_5/trunk/PlatformLibrary/LIB_IOManager\ExternalOutputManager.c **** 	memcpy((pCmd+2), &pLoad->data[0], IOM_External_LoadsTable[i].szCmd);
 427:C:/Workspace/FW_Platform2_5/trunk/PlatformLibrary/LIB_IOManager\ExternalOutputManager.c **** 	UnuseExternalBoard();
 428:C:/Workspace/FW_Platform2_5/trunk/PlatformLibrary/LIB_IOManager\ExternalOutputManager.c **** 	
 429:C:/Workspace/FW_Platform2_5/trunk/PlatformLibrary/LIB_IOManager\ExternalOutputManager.c **** 	return LIB_IOM_NO_ERROR;
 430:C:/Workspace/FW_Platform2_5/trunk/PlatformLibrary/LIB_IOManager\ExternalOutputManager.c **** }
 431:C:/Workspace/FW_Platform2_5/trunk/PlatformLibrary/LIB_IOManager\ExternalOutputManager.c **** 
 432:C:/Workspace/FW_Platform2_5/trunk/PlatformLibrary/LIB_IOManager\ExternalOutputManager.c **** 
 433:C:/Workspace/FW_Platform2_5/trunk/PlatformLibrary/LIB_IOManager\ExternalOutputManager.c **** /**
 434:C:/Workspace/FW_Platform2_5/trunk/PlatformLibrary/LIB_IOManager\ExternalOutputManager.c **** \n Sets a ram read request to command buffer
 435:C:/Workspace/FW_Platform2_5/trunk/PlatformLibrary/LIB_IOManager\ExternalOutputManager.c **** 
 436:C:/Workspace/FW_Platform2_5/trunk/PlatformLibrary/LIB_IOManager\ExternalOutputManager.c **** \param  [in] pDataRamReq pointer to read ram request parameters.
 437:C:/Workspace/FW_Platform2_5/trunk/PlatformLibrary/LIB_IOManager\ExternalOutputManager.c **** \param  [in] len size in bytes of the parameters
 438:C:/Workspace/FW_Platform2_5/trunk/PlatformLibrary/LIB_IOManager\ExternalOutputManager.c **** 
 439:C:/Workspace/FW_Platform2_5/trunk/PlatformLibrary/LIB_IOManager\ExternalOutputManager.c **** \return 	LIB_IOM_ErrorType
 440:C:/Workspace/FW_Platform2_5/trunk/PlatformLibrary/LIB_IOManager\ExternalOutputManager.c **** 
 441:C:/Workspace/FW_Platform2_5/trunk/PlatformLibrary/LIB_IOManager\ExternalOutputManager.c **** \retval		LIB_IOM_NO_ERROR   	 no error
 442:C:/Workspace/FW_Platform2_5/trunk/PlatformLibrary/LIB_IOManager\ExternalOutputManager.c **** \retval		LIB_IOM_EXTERNAL_SETREADRAMREQ_ERR (error, for detail use LIB_IOM_External_GetExternalOutM
 443:C:/Workspace/FW_Platform2_5/trunk/PlatformLibrary/LIB_IOManager\ExternalOutputManager.c **** 
 444:C:/Workspace/FW_Platform2_5/trunk/PlatformLibrary/LIB_IOManager\ExternalOutputManager.c **** \author		Roberto Fioravanti
 445:C:/Workspace/FW_Platform2_5/trunk/PlatformLibrary/LIB_IOManager\ExternalOutputManager.c **** 
 446:C:/Workspace/FW_Platform2_5/trunk/PlatformLibrary/LIB_IOManager\ExternalOutputManager.c **** \date			13/09/2010
 447:C:/Workspace/FW_Platform2_5/trunk/PlatformLibrary/LIB_IOManager\ExternalOutputManager.c **** 
 448:C:/Workspace/FW_Platform2_5/trunk/PlatformLibrary/LIB_IOManager\ExternalOutputManager.c **** \version    1.0.0
 449:C:/Workspace/FW_Platform2_5/trunk/PlatformLibrary/LIB_IOManager\ExternalOutputManager.c **** 
 450:C:/Workspace/FW_Platform2_5/trunk/PlatformLibrary/LIB_IOManager\ExternalOutputManager.c **** \note       \par \b Nota1:
 451:C:/Workspace/FW_Platform2_5/trunk/PlatformLibrary/LIB_IOManager\ExternalOutputManager.c ****             documentation by Roberto Fioravanti
 452:C:/Workspace/FW_Platform2_5/trunk/PlatformLibrary/LIB_IOManager\ExternalOutputManager.c **** */
 453:C:/Workspace/FW_Platform2_5/trunk/PlatformLibrary/LIB_IOManager\ExternalOutputManager.c **** LIB_IOM_ErrorType LIB_IOM_External_SetReadRamRequest(uint8_t * pDataRamReq, uint8_t len)
 454:C:/Workspace/FW_Platform2_5/trunk/PlatformLibrary/LIB_IOManager\ExternalOutputManager.c **** {
 455:C:/Workspace/FW_Platform2_5/trunk/PlatformLibrary/LIB_IOManager\ExternalOutputManager.c **** 	uint8_t uart = 0;
 456:C:/Workspace/FW_Platform2_5/trunk/PlatformLibrary/LIB_IOManager\ExternalOutputManager.c **** 	uint8_t* pCmd;
 457:C:/Workspace/FW_Platform2_5/trunk/PlatformLibrary/LIB_IOManager\ExternalOutputManager.c **** 	
 458:C:/Workspace/FW_Platform2_5/trunk/PlatformLibrary/LIB_IOManager\ExternalOutputManager.c **** 	if(len < 5)
 459:C:/Workspace/FW_Platform2_5/trunk/PlatformLibrary/LIB_IOManager\ExternalOutputManager.c **** 	{
 460:C:/Workspace/FW_Platform2_5/trunk/PlatformLibrary/LIB_IOManager\ExternalOutputManager.c **** 		PLT_ERROR_WARNING(PLT_ERROR_IOM_EXT_OUTMNG_MISSINGDATA_SETREADRAM_ERR);
 461:C:/Workspace/FW_Platform2_5/trunk/PlatformLibrary/LIB_IOManager\ExternalOutputManager.c ****         return LIB_IOM_EXTERNAL_SETREADRAMREQ_ERR;  /* Serious Error */
 462:C:/Workspace/FW_Platform2_5/trunk/PlatformLibrary/LIB_IOManager\ExternalOutputManager.c **** 	}
 463:C:/Workspace/FW_Platform2_5/trunk/PlatformLibrary/LIB_IOManager\ExternalOutputManager.c **** 	
 464:C:/Workspace/FW_Platform2_5/trunk/PlatformLibrary/LIB_IOManager\ExternalOutputManager.c **** 	uart = (uint8_t)(*(pDataRamReq+4) & 0x0F);
 465:C:/Workspace/FW_Platform2_5/trunk/PlatformLibrary/LIB_IOManager\ExternalOutputManager.c **** 	
 466:C:/Workspace/FW_Platform2_5/trunk/PlatformLibrary/LIB_IOManager\ExternalOutputManager.c **** 	if(uart >= EXTERNAL_NUM)
 467:C:/Workspace/FW_Platform2_5/trunk/PlatformLibrary/LIB_IOManager\ExternalOutputManager.c **** 	{
 468:C:/Workspace/FW_Platform2_5/trunk/PlatformLibrary/LIB_IOManager\ExternalOutputManager.c **** 		PLT_ERROR_WARNING(PLT_ERROR_IOM_EXT_OUTMNG_MAX_CHANNEL_NUM_REACHED_ERR);
 469:C:/Workspace/FW_Platform2_5/trunk/PlatformLibrary/LIB_IOManager\ExternalOutputManager.c ****         return LIB_IOM_EXTERNAL_SETREADRAMREQ_ERR;  /* Serious Error */
 470:C:/Workspace/FW_Platform2_5/trunk/PlatformLibrary/LIB_IOManager\ExternalOutputManager.c **** 	}
 471:C:/Workspace/FW_Platform2_5/trunk/PlatformLibrary/LIB_IOManager\ExternalOutputManager.c **** 	
 472:C:/Workspace/FW_Platform2_5/trunk/PlatformLibrary/LIB_IOManager\ExternalOutputManager.c **** 	pCmd = IOM_External_CommandBufferTable[uart].pCmdBuffer + IOM_External_CommandBufferCntTable[uart]
 473:C:/Workspace/FW_Platform2_5/trunk/PlatformLibrary/LIB_IOManager\ExternalOutputManager.c **** 	
 474:C:/Workspace/FW_Platform2_5/trunk/PlatformLibrary/LIB_IOManager\ExternalOutputManager.c **** 	if((IOM_External_CommandBufferTable[uart].pCmdBuffer + IOM_External_CommandBufferTable[uart].szCmd
 475:C:/Workspace/FW_Platform2_5/trunk/PlatformLibrary/LIB_IOManager\ExternalOutputManager.c **** 	{
 476:C:/Workspace/FW_Platform2_5/trunk/PlatformLibrary/LIB_IOManager\ExternalOutputManager.c **** 		UseExternalBoard();
 477:C:/Workspace/FW_Platform2_5/trunk/PlatformLibrary/LIB_IOManager\ExternalOutputManager.c **** 		*pCmd = 0; /* PilotType Reserved for read ram */
 478:C:/Workspace/FW_Platform2_5/trunk/PlatformLibrary/LIB_IOManager\ExternalOutputManager.c **** 	
 479:C:/Workspace/FW_Platform2_5/trunk/PlatformLibrary/LIB_IOManager\ExternalOutputManager.c **** 		(void)memcpy((uint8_t*)(pCmd+1), pDataRamReq, IOM_EXT_CMDDATA_RAM_READ_SZ);
 480:C:/Workspace/FW_Platform2_5/trunk/PlatformLibrary/LIB_IOManager\ExternalOutputManager.c **** 		UnuseExternalBoard();
 481:C:/Workspace/FW_Platform2_5/trunk/PlatformLibrary/LIB_IOManager\ExternalOutputManager.c **** 	
 482:C:/Workspace/FW_Platform2_5/trunk/PlatformLibrary/LIB_IOManager\ExternalOutputManager.c **** 		ExternalSeqId[uart].NewReq= (uint8_t)(*(pDataRamReq+IOM_EXT_CMDDATA_RAM_READ_SZ) & 0xF0);
 483:C:/Workspace/FW_Platform2_5/trunk/PlatformLibrary/LIB_IOManager\ExternalOutputManager.c **** 	}
 484:C:/Workspace/FW_Platform2_5/trunk/PlatformLibrary/LIB_IOManager\ExternalOutputManager.c **** 	else
 485:C:/Workspace/FW_Platform2_5/trunk/PlatformLibrary/LIB_IOManager\ExternalOutputManager.c **** 	{
 486:C:/Workspace/FW_Platform2_5/trunk/PlatformLibrary/LIB_IOManager\ExternalOutputManager.c **** 		PLT_ERROR_WARNING(PLT_ERROR_IOM_EXT_OUTMNG_TOOMANY_BYTES_CMDBUFFER_ERR);
 487:C:/Workspace/FW_Platform2_5/trunk/PlatformLibrary/LIB_IOManager\ExternalOutputManager.c ****         return LIB_IOM_EXTERNAL_SETREADRAMREQ_ERR;  /* Serious Error */
 488:C:/Workspace/FW_Platform2_5/trunk/PlatformLibrary/LIB_IOManager\ExternalOutputManager.c **** 	}
 489:C:/Workspace/FW_Platform2_5/trunk/PlatformLibrary/LIB_IOManager\ExternalOutputManager.c **** 	return LIB_IOM_NO_ERROR;
 490:C:/Workspace/FW_Platform2_5/trunk/PlatformLibrary/LIB_IOManager\ExternalOutputManager.c **** }
 491:C:/Workspace/FW_Platform2_5/trunk/PlatformLibrary/LIB_IOManager\ExternalOutputManager.c **** 
 492:C:/Workspace/FW_Platform2_5/trunk/PlatformLibrary/LIB_IOManager\ExternalOutputManager.c **** 
 493:C:/Workspace/FW_Platform2_5/trunk/PlatformLibrary/LIB_IOManager\ExternalOutputManager.c **** /**
 494:C:/Workspace/FW_Platform2_5/trunk/PlatformLibrary/LIB_IOManager\ExternalOutputManager.c **** \n Sets a write ram request to command buffer
 495:C:/Workspace/FW_Platform2_5/trunk/PlatformLibrary/LIB_IOManager\ExternalOutputManager.c **** 
 496:C:/Workspace/FW_Platform2_5/trunk/PlatformLibrary/LIB_IOManager\ExternalOutputManager.c **** \param  [in] pDataRamReq pointer to write ram request parameters.
 497:C:/Workspace/FW_Platform2_5/trunk/PlatformLibrary/LIB_IOManager\ExternalOutputManager.c **** \param  [in] len size in bytes of the parameters
 498:C:/Workspace/FW_Platform2_5/trunk/PlatformLibrary/LIB_IOManager\ExternalOutputManager.c **** 
 499:C:/Workspace/FW_Platform2_5/trunk/PlatformLibrary/LIB_IOManager\ExternalOutputManager.c **** \return 	LIB_IOM_ErrorType
 500:C:/Workspace/FW_Platform2_5/trunk/PlatformLibrary/LIB_IOManager\ExternalOutputManager.c **** 
 501:C:/Workspace/FW_Platform2_5/trunk/PlatformLibrary/LIB_IOManager\ExternalOutputManager.c **** \retval		LIB_IOM_NO_ERROR   	 no error
 502:C:/Workspace/FW_Platform2_5/trunk/PlatformLibrary/LIB_IOManager\ExternalOutputManager.c **** \retval		LIB_IOM_EXTERNAL_SETWRITERAMREQ_ERR (error, for detail use LIB_IOM_External_GetExternalOut
 503:C:/Workspace/FW_Platform2_5/trunk/PlatformLibrary/LIB_IOManager\ExternalOutputManager.c **** 
 504:C:/Workspace/FW_Platform2_5/trunk/PlatformLibrary/LIB_IOManager\ExternalOutputManager.c **** \author		Roberto Fioravanti
 505:C:/Workspace/FW_Platform2_5/trunk/PlatformLibrary/LIB_IOManager\ExternalOutputManager.c **** 
 506:C:/Workspace/FW_Platform2_5/trunk/PlatformLibrary/LIB_IOManager\ExternalOutputManager.c **** \date			13/09/2010
 507:C:/Workspace/FW_Platform2_5/trunk/PlatformLibrary/LIB_IOManager\ExternalOutputManager.c **** 
 508:C:/Workspace/FW_Platform2_5/trunk/PlatformLibrary/LIB_IOManager\ExternalOutputManager.c **** \version    1.0.0
 509:C:/Workspace/FW_Platform2_5/trunk/PlatformLibrary/LIB_IOManager\ExternalOutputManager.c **** 
 510:C:/Workspace/FW_Platform2_5/trunk/PlatformLibrary/LIB_IOManager\ExternalOutputManager.c **** \note       \par \b Nota1:
 511:C:/Workspace/FW_Platform2_5/trunk/PlatformLibrary/LIB_IOManager\ExternalOutputManager.c ****             documentation by Roberto Fioravanti
 512:C:/Workspace/FW_Platform2_5/trunk/PlatformLibrary/LIB_IOManager\ExternalOutputManager.c **** */
 513:C:/Workspace/FW_Platform2_5/trunk/PlatformLibrary/LIB_IOManager\ExternalOutputManager.c **** LIB_IOM_ErrorType LIB_IOM_External_SetWriteRamRequest(uint8_t * pDataRamReq, uint8_t len)
 514:C:/Workspace/FW_Platform2_5/trunk/PlatformLibrary/LIB_IOManager\ExternalOutputManager.c **** {
 515:C:/Workspace/FW_Platform2_5/trunk/PlatformLibrary/LIB_IOManager\ExternalOutputManager.c **** 	uint8_t uart = 0;
 516:C:/Workspace/FW_Platform2_5/trunk/PlatformLibrary/LIB_IOManager\ExternalOutputManager.c **** 	uint8_t* pCmd;
 517:C:/Workspace/FW_Platform2_5/trunk/PlatformLibrary/LIB_IOManager\ExternalOutputManager.c **** 	
 518:C:/Workspace/FW_Platform2_5/trunk/PlatformLibrary/LIB_IOManager\ExternalOutputManager.c **** 	if(len < 5)
 519:C:/Workspace/FW_Platform2_5/trunk/PlatformLibrary/LIB_IOManager\ExternalOutputManager.c **** 	{
 520:C:/Workspace/FW_Platform2_5/trunk/PlatformLibrary/LIB_IOManager\ExternalOutputManager.c **** 		PLT_ERROR_WARNING(PLT_ERROR_IOM_EXT_OUTMNG_MISSINGDATA_SETREADRAM_ERR);
 521:C:/Workspace/FW_Platform2_5/trunk/PlatformLibrary/LIB_IOManager\ExternalOutputManager.c ****         return LIB_IOM_EXTERNAL_SETREADRAMREQ_ERR;  /* Serious Error */
 522:C:/Workspace/FW_Platform2_5/trunk/PlatformLibrary/LIB_IOManager\ExternalOutputManager.c **** 	}
 523:C:/Workspace/FW_Platform2_5/trunk/PlatformLibrary/LIB_IOManager\ExternalOutputManager.c **** 	
 524:C:/Workspace/FW_Platform2_5/trunk/PlatformLibrary/LIB_IOManager\ExternalOutputManager.c **** 	uart = (uint8_t)(*(pDataRamReq+4) & 0x0F);
 525:C:/Workspace/FW_Platform2_5/trunk/PlatformLibrary/LIB_IOManager\ExternalOutputManager.c **** 	
 526:C:/Workspace/FW_Platform2_5/trunk/PlatformLibrary/LIB_IOManager\ExternalOutputManager.c **** 	if(uart >= EXTERNAL_NUM)
 527:C:/Workspace/FW_Platform2_5/trunk/PlatformLibrary/LIB_IOManager\ExternalOutputManager.c **** 	{
 528:C:/Workspace/FW_Platform2_5/trunk/PlatformLibrary/LIB_IOManager\ExternalOutputManager.c **** 		PLT_ERROR_WARNING(PLT_ERROR_IOM_EXT_OUTMNG_MAX_CHANNEL_NUM_REACHED_ERR);
 529:C:/Workspace/FW_Platform2_5/trunk/PlatformLibrary/LIB_IOManager\ExternalOutputManager.c ****         return LIB_IOM_EXTERNAL_SETWRITERAMREQ_ERR;  /* Serious Error */
 530:C:/Workspace/FW_Platform2_5/trunk/PlatformLibrary/LIB_IOManager\ExternalOutputManager.c **** 	}
 531:C:/Workspace/FW_Platform2_5/trunk/PlatformLibrary/LIB_IOManager\ExternalOutputManager.c **** 	
 532:C:/Workspace/FW_Platform2_5/trunk/PlatformLibrary/LIB_IOManager\ExternalOutputManager.c **** 	if(uart >= EXTERNAL_NUM)
 533:C:/Workspace/FW_Platform2_5/trunk/PlatformLibrary/LIB_IOManager\ExternalOutputManager.c **** 	{
 534:C:/Workspace/FW_Platform2_5/trunk/PlatformLibrary/LIB_IOManager\ExternalOutputManager.c **** 		PLT_ERROR_WARNING(PLT_ERROR_IOM_EXT_OUTMNG_MAX_CHANNEL_NUM_REACHED_ERR);
 535:C:/Workspace/FW_Platform2_5/trunk/PlatformLibrary/LIB_IOManager\ExternalOutputManager.c ****         return LIB_IOM_EXTERNAL_SETWRITERAMREQ_ERR;  /* Serious Error */
 536:C:/Workspace/FW_Platform2_5/trunk/PlatformLibrary/LIB_IOManager\ExternalOutputManager.c **** 	}
 537:C:/Workspace/FW_Platform2_5/trunk/PlatformLibrary/LIB_IOManager\ExternalOutputManager.c **** 	
 538:C:/Workspace/FW_Platform2_5/trunk/PlatformLibrary/LIB_IOManager\ExternalOutputManager.c **** 	pCmd = IOM_External_CommandBufferTable[uart].pCmdBuffer + IOM_External_CommandBufferCntTable[uart]
 539:C:/Workspace/FW_Platform2_5/trunk/PlatformLibrary/LIB_IOManager\ExternalOutputManager.c **** 	
 540:C:/Workspace/FW_Platform2_5/trunk/PlatformLibrary/LIB_IOManager\ExternalOutputManager.c **** 	if((IOM_External_CommandBufferTable[uart].pCmdBuffer + IOM_External_CommandBufferTable[uart].szCmd
 541:C:/Workspace/FW_Platform2_5/trunk/PlatformLibrary/LIB_IOManager\ExternalOutputManager.c **** 	{
 542:C:/Workspace/FW_Platform2_5/trunk/PlatformLibrary/LIB_IOManager\ExternalOutputManager.c **** 		UseExternalBoard();
 543:C:/Workspace/FW_Platform2_5/trunk/PlatformLibrary/LIB_IOManager\ExternalOutputManager.c **** 		*pCmd = 0; /* PilotType Reserved for write ram */
 544:C:/Workspace/FW_Platform2_5/trunk/PlatformLibrary/LIB_IOManager\ExternalOutputManager.c **** 		
 545:C:/Workspace/FW_Platform2_5/trunk/PlatformLibrary/LIB_IOManager\ExternalOutputManager.c **** 		pCmd += IOM_EXT_CMDDATA_RAM_READ_SZ;
 546:C:/Workspace/FW_Platform2_5/trunk/PlatformLibrary/LIB_IOManager\ExternalOutputManager.c **** 	
 547:C:/Workspace/FW_Platform2_5/trunk/PlatformLibrary/LIB_IOManager\ExternalOutputManager.c **** 		(void)memcpy((uint8_t*)(pCmd+1), pDataRamReq, IOM_EXT_CMDDATA_RAM_WRITE_SZ);
 548:C:/Workspace/FW_Platform2_5/trunk/PlatformLibrary/LIB_IOManager\ExternalOutputManager.c **** 		UnuseExternalBoard();
 549:C:/Workspace/FW_Platform2_5/trunk/PlatformLibrary/LIB_IOManager\ExternalOutputManager.c **** 		ExternalSeqId[uart].NewReq= (uint8_t)(*(pDataRamReq+IOM_EXT_CMDDATA_RAM_WRITE_SZ) & 0xF0);
 550:C:/Workspace/FW_Platform2_5/trunk/PlatformLibrary/LIB_IOManager\ExternalOutputManager.c **** 	}
 551:C:/Workspace/FW_Platform2_5/trunk/PlatformLibrary/LIB_IOManager\ExternalOutputManager.c **** 	else
 552:C:/Workspace/FW_Platform2_5/trunk/PlatformLibrary/LIB_IOManager\ExternalOutputManager.c **** 	{
 553:C:/Workspace/FW_Platform2_5/trunk/PlatformLibrary/LIB_IOManager\ExternalOutputManager.c **** 		PLT_ERROR_WARNING(PLT_ERROR_IOM_EXT_OUTMNG_TOOMANY_BYTES_CMDBUFFER_ERR);
 554:C:/Workspace/FW_Platform2_5/trunk/PlatformLibrary/LIB_IOManager\ExternalOutputManager.c ****         return LIB_IOM_EXTERNAL_SETWRITERAMREQ_ERR;  /* Serious Error */
 555:C:/Workspace/FW_Platform2_5/trunk/PlatformLibrary/LIB_IOManager\ExternalOutputManager.c **** 	}
 556:C:/Workspace/FW_Platform2_5/trunk/PlatformLibrary/LIB_IOManager\ExternalOutputManager.c **** 	return LIB_IOM_NO_ERROR;
 557:C:/Workspace/FW_Platform2_5/trunk/PlatformLibrary/LIB_IOManager\ExternalOutputManager.c **** }
 558:C:/Workspace/FW_Platform2_5/trunk/PlatformLibrary/LIB_IOManager\ExternalOutputManager.c **** 
 559:C:/Workspace/FW_Platform2_5/trunk/PlatformLibrary/LIB_IOManager\ExternalOutputManager.c **** /**
 560:C:/Workspace/FW_Platform2_5/trunk/PlatformLibrary/LIB_IOManager\ExternalOutputManager.c **** \n Sets a extra request to command buffer
 561:C:/Workspace/FW_Platform2_5/trunk/PlatformLibrary/LIB_IOManager\ExternalOutputManager.c **** 
 562:C:/Workspace/FW_Platform2_5/trunk/PlatformLibrary/LIB_IOManager\ExternalOutputManager.c **** \param  [in] pDataRamReq pointer to write ram request parameters.
 563:C:/Workspace/FW_Platform2_5/trunk/PlatformLibrary/LIB_IOManager\ExternalOutputManager.c **** \param  [in] len size in bytes of the parameters
 564:C:/Workspace/FW_Platform2_5/trunk/PlatformLibrary/LIB_IOManager\ExternalOutputManager.c **** 
 565:C:/Workspace/FW_Platform2_5/trunk/PlatformLibrary/LIB_IOManager\ExternalOutputManager.c **** \return 	LIB_IOM_ErrorType
 566:C:/Workspace/FW_Platform2_5/trunk/PlatformLibrary/LIB_IOManager\ExternalOutputManager.c **** 
 567:C:/Workspace/FW_Platform2_5/trunk/PlatformLibrary/LIB_IOManager\ExternalOutputManager.c **** \retval		LIB_IOM_NO_ERROR   	 no error
 568:C:/Workspace/FW_Platform2_5/trunk/PlatformLibrary/LIB_IOManager\ExternalOutputManager.c **** \retval		LIB_IOM_EXTERNAL_SETEXTRAREQ_ERR (error, for detail use LIB_IOM_External_GetExternalOutMng
 569:C:/Workspace/FW_Platform2_5/trunk/PlatformLibrary/LIB_IOManager\ExternalOutputManager.c **** 
 570:C:/Workspace/FW_Platform2_5/trunk/PlatformLibrary/LIB_IOManager\ExternalOutputManager.c **** \author		Roberto Fioravanti
 571:C:/Workspace/FW_Platform2_5/trunk/PlatformLibrary/LIB_IOManager\ExternalOutputManager.c **** 
 572:C:/Workspace/FW_Platform2_5/trunk/PlatformLibrary/LIB_IOManager\ExternalOutputManager.c **** \date			13/09/2010
 573:C:/Workspace/FW_Platform2_5/trunk/PlatformLibrary/LIB_IOManager\ExternalOutputManager.c **** 
 574:C:/Workspace/FW_Platform2_5/trunk/PlatformLibrary/LIB_IOManager\ExternalOutputManager.c **** \version    1.0.0
 575:C:/Workspace/FW_Platform2_5/trunk/PlatformLibrary/LIB_IOManager\ExternalOutputManager.c **** 
 576:C:/Workspace/FW_Platform2_5/trunk/PlatformLibrary/LIB_IOManager\ExternalOutputManager.c **** \note       \par \b Nota1:
 577:C:/Workspace/FW_Platform2_5/trunk/PlatformLibrary/LIB_IOManager\ExternalOutputManager.c ****             documentation by Roberto Fioravanti
 578:C:/Workspace/FW_Platform2_5/trunk/PlatformLibrary/LIB_IOManager\ExternalOutputManager.c **** */
 579:C:/Workspace/FW_Platform2_5/trunk/PlatformLibrary/LIB_IOManager\ExternalOutputManager.c **** LIB_IOM_ErrorType LIB_IOM_External_SetExtraRequest(uint8_t * pDataExtraReq, uint8_t len)
 580:C:/Workspace/FW_Platform2_5/trunk/PlatformLibrary/LIB_IOManager\ExternalOutputManager.c **** {
 581:C:/Workspace/FW_Platform2_5/trunk/PlatformLibrary/LIB_IOManager\ExternalOutputManager.c **** 	uint8_t uart = 0;
 582:C:/Workspace/FW_Platform2_5/trunk/PlatformLibrary/LIB_IOManager\ExternalOutputManager.c **** 	uint8_t* pCmd;
 583:C:/Workspace/FW_Platform2_5/trunk/PlatformLibrary/LIB_IOManager\ExternalOutputManager.c **** 	
 584:C:/Workspace/FW_Platform2_5/trunk/PlatformLibrary/LIB_IOManager\ExternalOutputManager.c **** 	if(len < 3)
 585:C:/Workspace/FW_Platform2_5/trunk/PlatformLibrary/LIB_IOManager\ExternalOutputManager.c **** 	{
 586:C:/Workspace/FW_Platform2_5/trunk/PlatformLibrary/LIB_IOManager\ExternalOutputManager.c **** 		PLT_ERROR_WARNING(PLT_ERROR_IOM_EXT_OUTMNG_MISSINGDATA_SETREADRAM_ERR);
 587:C:/Workspace/FW_Platform2_5/trunk/PlatformLibrary/LIB_IOManager\ExternalOutputManager.c ****         return LIB_IOM_EXTERNAL_SETEXTRAREQ_ERR;  /* Serious Error */
 588:C:/Workspace/FW_Platform2_5/trunk/PlatformLibrary/LIB_IOManager\ExternalOutputManager.c **** 	}
 589:C:/Workspace/FW_Platform2_5/trunk/PlatformLibrary/LIB_IOManager\ExternalOutputManager.c **** 	
 590:C:/Workspace/FW_Platform2_5/trunk/PlatformLibrary/LIB_IOManager\ExternalOutputManager.c **** 	uart = (uint8_t)(*(pDataExtraReq+2) & 0x0F);
 591:C:/Workspace/FW_Platform2_5/trunk/PlatformLibrary/LIB_IOManager\ExternalOutputManager.c **** 	
 592:C:/Workspace/FW_Platform2_5/trunk/PlatformLibrary/LIB_IOManager\ExternalOutputManager.c **** 	if(uart >= EXTERNAL_NUM)
 593:C:/Workspace/FW_Platform2_5/trunk/PlatformLibrary/LIB_IOManager\ExternalOutputManager.c **** 	{
 594:C:/Workspace/FW_Platform2_5/trunk/PlatformLibrary/LIB_IOManager\ExternalOutputManager.c **** 		PLT_ERROR_WARNING(PLT_ERROR_IOM_EXT_OUTMNG_MAX_CHANNEL_NUM_REACHED_ERR);
 595:C:/Workspace/FW_Platform2_5/trunk/PlatformLibrary/LIB_IOManager\ExternalOutputManager.c ****         return LIB_IOM_EXTERNAL_SETEXTRAREQ_ERR;  /* Serious Error */
 596:C:/Workspace/FW_Platform2_5/trunk/PlatformLibrary/LIB_IOManager\ExternalOutputManager.c **** 	}
 597:C:/Workspace/FW_Platform2_5/trunk/PlatformLibrary/LIB_IOManager\ExternalOutputManager.c **** 	
 598:C:/Workspace/FW_Platform2_5/trunk/PlatformLibrary/LIB_IOManager\ExternalOutputManager.c **** 	pCmd = IOM_External_CommandBufferTable[uart].pCmdBuffer + IOM_External_CommandBufferCntTable[uart]
 599:C:/Workspace/FW_Platform2_5/trunk/PlatformLibrary/LIB_IOManager\ExternalOutputManager.c **** 	
 600:C:/Workspace/FW_Platform2_5/trunk/PlatformLibrary/LIB_IOManager\ExternalOutputManager.c **** 	
 601:C:/Workspace/FW_Platform2_5/trunk/PlatformLibrary/LIB_IOManager\ExternalOutputManager.c **** 	if((IOM_External_CommandBufferTable[uart].pCmdBuffer + IOM_External_CommandBufferTable[uart].szCmd
 602:C:/Workspace/FW_Platform2_5/trunk/PlatformLibrary/LIB_IOManager\ExternalOutputManager.c **** 	{
 603:C:/Workspace/FW_Platform2_5/trunk/PlatformLibrary/LIB_IOManager\ExternalOutputManager.c **** 		UseExternalBoard();
 604:C:/Workspace/FW_Platform2_5/trunk/PlatformLibrary/LIB_IOManager\ExternalOutputManager.c **** 		
 605:C:/Workspace/FW_Platform2_5/trunk/PlatformLibrary/LIB_IOManager\ExternalOutputManager.c **** 		*pCmd = 0; /* PilotType Reserved for write ram */
 606:C:/Workspace/FW_Platform2_5/trunk/PlatformLibrary/LIB_IOManager\ExternalOutputManager.c **** 		pCmd += IOM_EXT_CMDDATA_RAM_READ_SZ + IOM_EXT_CMDDATA_RAM_WRITE_SZ;
 607:C:/Workspace/FW_Platform2_5/trunk/PlatformLibrary/LIB_IOManager\ExternalOutputManager.c **** 		
 608:C:/Workspace/FW_Platform2_5/trunk/PlatformLibrary/LIB_IOManager\ExternalOutputManager.c **** 		(void)memcpy((uint8_t*)(pCmd+1), pDataExtraReq, 2);
 609:C:/Workspace/FW_Platform2_5/trunk/PlatformLibrary/LIB_IOManager\ExternalOutputManager.c **** 		UnuseExternalBoard();
 610:C:/Workspace/FW_Platform2_5/trunk/PlatformLibrary/LIB_IOManager\ExternalOutputManager.c **** 	
 611:C:/Workspace/FW_Platform2_5/trunk/PlatformLibrary/LIB_IOManager\ExternalOutputManager.c **** 		ExternalSeqId[uart].NewReq=(uint8_t)(*(pDataExtraReq+IOM_EXT_CMDDATA_EXTRA_REQ_SZ) & 0xF0);
 612:C:/Workspace/FW_Platform2_5/trunk/PlatformLibrary/LIB_IOManager\ExternalOutputManager.c **** 	}
 613:C:/Workspace/FW_Platform2_5/trunk/PlatformLibrary/LIB_IOManager\ExternalOutputManager.c **** 	else
 614:C:/Workspace/FW_Platform2_5/trunk/PlatformLibrary/LIB_IOManager\ExternalOutputManager.c **** 	{
 615:C:/Workspace/FW_Platform2_5/trunk/PlatformLibrary/LIB_IOManager\ExternalOutputManager.c **** 		PLT_ERROR_WARNING(PLT_ERROR_IOM_EXT_OUTMNG_TOOMANY_BYTES_CMDBUFFER_ERR);
 616:C:/Workspace/FW_Platform2_5/trunk/PlatformLibrary/LIB_IOManager\ExternalOutputManager.c ****         return LIB_IOM_EXTERNAL_SETEXTRAREQ_ERR;  /* Serious Error */
 617:C:/Workspace/FW_Platform2_5/trunk/PlatformLibrary/LIB_IOManager\ExternalOutputManager.c **** 	}
 618:C:/Workspace/FW_Platform2_5/trunk/PlatformLibrary/LIB_IOManager\ExternalOutputManager.c **** 	return LIB_IOM_NO_ERROR;
 619:C:/Workspace/FW_Platform2_5/trunk/PlatformLibrary/LIB_IOManager\ExternalOutputManager.c **** }
 620:C:/Workspace/FW_Platform2_5/trunk/PlatformLibrary/LIB_IOManager\ExternalOutputManager.c **** 
 621:C:/Workspace/FW_Platform2_5/trunk/PlatformLibrary/LIB_IOManager\ExternalOutputManager.c **** /**
 622:C:/Workspace/FW_Platform2_5/trunk/PlatformLibrary/LIB_IOManager\ExternalOutputManager.c **** \n Returns Command buffer for the specified external, if ready.
 623:C:/Workspace/FW_Platform2_5/trunk/PlatformLibrary/LIB_IOManager\ExternalOutputManager.c **** Command buffer becomes ready once  LIB_IOM_External_SetCommand has been called for each load.
 624:C:/Workspace/FW_Platform2_5/trunk/PlatformLibrary/LIB_IOManager\ExternalOutputManager.c **** 
 625:C:/Workspace/FW_Platform2_5/trunk/PlatformLibrary/LIB_IOManager\ExternalOutputManager.c **** \param  [in] uart external board index
 626:C:/Workspace/FW_Platform2_5/trunk/PlatformLibrary/LIB_IOManager\ExternalOutputManager.c **** \param  [out] ppCmd pointer to pointer to command buffer
 627:C:/Workspace/FW_Platform2_5/trunk/PlatformLibrary/LIB_IOManager\ExternalOutputManager.c **** \param  [out] pCmdLen pointer to size in bytes
 628:C:/Workspace/FW_Platform2_5/trunk/PlatformLibrary/LIB_IOManager\ExternalOutputManager.c **** 
 629:C:/Workspace/FW_Platform2_5/trunk/PlatformLibrary/LIB_IOManager\ExternalOutputManager.c **** \return 	LIB_IOM_ErrorType
 630:C:/Workspace/FW_Platform2_5/trunk/PlatformLibrary/LIB_IOManager\ExternalOutputManager.c **** 
 631:C:/Workspace/FW_Platform2_5/trunk/PlatformLibrary/LIB_IOManager\ExternalOutputManager.c **** \retval		LIB_IOM_NO_ERROR   	 no error
 632:C:/Workspace/FW_Platform2_5/trunk/PlatformLibrary/LIB_IOManager\ExternalOutputManager.c **** \retval		LIB_IOM_EXTERNAL_GETCMD_ERR (error, for detail use LIB_IOM_External_GetExternalOutMngError
 633:C:/Workspace/FW_Platform2_5/trunk/PlatformLibrary/LIB_IOManager\ExternalOutputManager.c **** 
 634:C:/Workspace/FW_Platform2_5/trunk/PlatformLibrary/LIB_IOManager\ExternalOutputManager.c **** \author		Roberto Fioravanti
 635:C:/Workspace/FW_Platform2_5/trunk/PlatformLibrary/LIB_IOManager\ExternalOutputManager.c **** 
 636:C:/Workspace/FW_Platform2_5/trunk/PlatformLibrary/LIB_IOManager\ExternalOutputManager.c **** \date			13/09/2010
 637:C:/Workspace/FW_Platform2_5/trunk/PlatformLibrary/LIB_IOManager\ExternalOutputManager.c **** 
 638:C:/Workspace/FW_Platform2_5/trunk/PlatformLibrary/LIB_IOManager\ExternalOutputManager.c **** \version    1.0.0
 639:C:/Workspace/FW_Platform2_5/trunk/PlatformLibrary/LIB_IOManager\ExternalOutputManager.c **** 
 640:C:/Workspace/FW_Platform2_5/trunk/PlatformLibrary/LIB_IOManager\ExternalOutputManager.c **** \note       \par \b Nota1:
 641:C:/Workspace/FW_Platform2_5/trunk/PlatformLibrary/LIB_IOManager\ExternalOutputManager.c ****             documentation by Roberto Fioravanti
 642:C:/Workspace/FW_Platform2_5/trunk/PlatformLibrary/LIB_IOManager\ExternalOutputManager.c **** */
 643:C:/Workspace/FW_Platform2_5/trunk/PlatformLibrary/LIB_IOManager\ExternalOutputManager.c **** LIB_IOM_ErrorType LIB_IOM_External_GetCommandBuffer(uint8_t uart, uint8_t** ppCmd, uint8_t* pCmdLen
 644:C:/Workspace/FW_Platform2_5/trunk/PlatformLibrary/LIB_IOManager\ExternalOutputManager.c **** {
 645:C:/Workspace/FW_Platform2_5/trunk/PlatformLibrary/LIB_IOManager\ExternalOutputManager.c **** 	uint8_t* pCmd = IOM_External_CommandBufferTable[uart].pCmdBuffer;
 646:C:/Workspace/FW_Platform2_5/trunk/PlatformLibrary/LIB_IOManager\ExternalOutputManager.c ****     uint16_t    cmd_writeram = 0;
 647:C:/Workspace/FW_Platform2_5/trunk/PlatformLibrary/LIB_IOManager\ExternalOutputManager.c ****     uint16_t    cmd_readram = 0;
 648:C:/Workspace/FW_Platform2_5/trunk/PlatformLibrary/LIB_IOManager\ExternalOutputManager.c ****     uint16_t    cmd_extrareq = 0;
 649:C:/Workspace/FW_Platform2_5/trunk/PlatformLibrary/LIB_IOManager\ExternalOutputManager.c ****     uint8_t i=0;
 650:C:/Workspace/FW_Platform2_5/trunk/PlatformLibrary/LIB_IOManager\ExternalOutputManager.c ****     uint8_t *p;
 651:C:/Workspace/FW_Platform2_5/trunk/PlatformLibrary/LIB_IOManager\ExternalOutputManager.c ****     
 652:C:/Workspace/FW_Platform2_5/trunk/PlatformLibrary/LIB_IOManager\ExternalOutputManager.c **** 	ExternalSeqId[uart].OldReq &= 0xF0;
 653:C:/Workspace/FW_Platform2_5/trunk/PlatformLibrary/LIB_IOManager\ExternalOutputManager.c **** 	
 654:C:/Workspace/FW_Platform2_5/trunk/PlatformLibrary/LIB_IOManager\ExternalOutputManager.c **** 	if(uart >= EXTERNAL_NUM)
 655:C:/Workspace/FW_Platform2_5/trunk/PlatformLibrary/LIB_IOManager\ExternalOutputManager.c **** 	{
 656:C:/Workspace/FW_Platform2_5/trunk/PlatformLibrary/LIB_IOManager\ExternalOutputManager.c **** 		PLT_ERROR_WARNING(PLT_ERROR_IOM_EXT_OUTMNG_MAX_CHANNEL_NUM_REACHED_ERR);
 657:C:/Workspace/FW_Platform2_5/trunk/PlatformLibrary/LIB_IOManager\ExternalOutputManager.c ****         return LIB_IOM_EXTERNAL_GETCMD_ERR;  /* Serious Error */
 658:C:/Workspace/FW_Platform2_5/trunk/PlatformLibrary/LIB_IOManager\ExternalOutputManager.c **** 	}
 659:C:/Workspace/FW_Platform2_5/trunk/PlatformLibrary/LIB_IOManager\ExternalOutputManager.c **** 	
 660:C:/Workspace/FW_Platform2_5/trunk/PlatformLibrary/LIB_IOManager\ExternalOutputManager.c **** 	UseExternalBoard();
 661:C:/Workspace/FW_Platform2_5/trunk/PlatformLibrary/LIB_IOManager\ExternalOutputManager.c ****     /* check if command buffer is ready */
 662:C:/Workspace/FW_Platform2_5/trunk/PlatformLibrary/LIB_IOManager\ExternalOutputManager.c **** 	for(i=0; i< ExternalBoardCounter; i++)
 663:C:/Workspace/FW_Platform2_5/trunk/PlatformLibrary/LIB_IOManager\ExternalOutputManager.c **** 	{
 664:C:/Workspace/FW_Platform2_5/trunk/PlatformLibrary/LIB_IOManager\ExternalOutputManager.c **** 	    if(IOM_External_LoadsTable[i].CommCh == uart)
 665:C:/Workspace/FW_Platform2_5/trunk/PlatformLibrary/LIB_IOManager\ExternalOutputManager.c **** 	    {
 666:C:/Workspace/FW_Platform2_5/trunk/PlatformLibrary/LIB_IOManager\ExternalOutputManager.c **** 	        p=(IOM_External_CommandBufferTable[uart].pCmdBuffer + IOM_External_LoadsTable[i].CmdOffset
 667:C:/Workspace/FW_Platform2_5/trunk/PlatformLibrary/LIB_IOManager\ExternalOutputManager.c **** 			/* command buffer it's assumed to be not ready if there is at least one load not set*/
 668:C:/Workspace/FW_Platform2_5/trunk/PlatformLibrary/LIB_IOManager\ExternalOutputManager.c **** 	        if((  *(p) != IOM_External_LoadsTable[i].PilotType)
 669:C:/Workspace/FW_Platform2_5/trunk/PlatformLibrary/LIB_IOManager\ExternalOutputManager.c **** 	        && ( *(p + 1) != IOM_External_LoadsTable[i].Displacement))
 670:C:/Workspace/FW_Platform2_5/trunk/PlatformLibrary/LIB_IOManager\ExternalOutputManager.c **** 	        {
 671:C:/Workspace/FW_Platform2_5/trunk/PlatformLibrary/LIB_IOManager\ExternalOutputManager.c **** 	            *pCmdLen=0;
 672:C:/Workspace/FW_Platform2_5/trunk/PlatformLibrary/LIB_IOManager\ExternalOutputManager.c **** 	            return LIB_IOM_EXTERNAL_GETCMD_ERR;
 673:C:/Workspace/FW_Platform2_5/trunk/PlatformLibrary/LIB_IOManager\ExternalOutputManager.c **** 	        }
 674:C:/Workspace/FW_Platform2_5/trunk/PlatformLibrary/LIB_IOManager\ExternalOutputManager.c **** 	    }
 675:C:/Workspace/FW_Platform2_5/trunk/PlatformLibrary/LIB_IOManager\ExternalOutputManager.c **** 	}
 676:C:/Workspace/FW_Platform2_5/trunk/PlatformLibrary/LIB_IOManager\ExternalOutputManager.c **** 	
 677:C:/Workspace/FW_Platform2_5/trunk/PlatformLibrary/LIB_IOManager\ExternalOutputManager.c **** 	*pCmdLen = IOM_External_CommandBufferCntTable[uart]; /* */
 678:C:/Workspace/FW_Platform2_5/trunk/PlatformLibrary/LIB_IOManager\ExternalOutputManager.c **** 	
 679:C:/Workspace/FW_Platform2_5/trunk/PlatformLibrary/LIB_IOManager\ExternalOutputManager.c ****     (void)memcpy(&cmd_writeram, 
 680:C:/Workspace/FW_Platform2_5/trunk/PlatformLibrary/LIB_IOManager\ExternalOutputManager.c ****                  (pCmd + IOM_External_CommandBufferCntTable[uart] + 1/*pilotype for ram*/ + IOM_EXT
 681:C:/Workspace/FW_Platform2_5/trunk/PlatformLibrary/LIB_IOManager\ExternalOutputManager.c ****                  sizeof(cmd_writeram));
 682:C:/Workspace/FW_Platform2_5/trunk/PlatformLibrary/LIB_IOManager\ExternalOutputManager.c ****     (void)memcpy(&cmd_readram, 
 683:C:/Workspace/FW_Platform2_5/trunk/PlatformLibrary/LIB_IOManager\ExternalOutputManager.c ****              (pCmd + IOM_External_CommandBufferCntTable[uart] + 1),
 684:C:/Workspace/FW_Platform2_5/trunk/PlatformLibrary/LIB_IOManager\ExternalOutputManager.c ****              sizeof(cmd_readram));
 685:C:/Workspace/FW_Platform2_5/trunk/PlatformLibrary/LIB_IOManager\ExternalOutputManager.c ****     (void)memcpy(&cmd_extrareq, 
 686:C:/Workspace/FW_Platform2_5/trunk/PlatformLibrary/LIB_IOManager\ExternalOutputManager.c ****                  (pCmd + IOM_External_CommandBufferCntTable[uart] + 1 + IOM_EXT_CMDDATA_RAM_READ_SZ
 687:C:/Workspace/FW_Platform2_5/trunk/PlatformLibrary/LIB_IOManager\ExternalOutputManager.c ****                  sizeof(cmd_extrareq));
 688:C:/Workspace/FW_Platform2_5/trunk/PlatformLibrary/LIB_IOManager\ExternalOutputManager.c ****     if(cmd_writeram)
 689:C:/Workspace/FW_Platform2_5/trunk/PlatformLibrary/LIB_IOManager\ExternalOutputManager.c **** 	{
 690:C:/Workspace/FW_Platform2_5/trunk/PlatformLibrary/LIB_IOManager\ExternalOutputManager.c **** 		/* write ram */
 691:C:/Workspace/FW_Platform2_5/trunk/PlatformLibrary/LIB_IOManager\ExternalOutputManager.c **** 		*pCmdLen += 1+IOM_EXT_CMDDATA_RAM_READ_SZ+IOM_EXT_CMDDATA_RAM_WRITE_SZ; /*reserved pilotType +  r
 692:C:/Workspace/FW_Platform2_5/trunk/PlatformLibrary/LIB_IOManager\ExternalOutputManager.c **** 		ExternalSeqId[uart].OldReq |= 1;
 693:C:/Workspace/FW_Platform2_5/trunk/PlatformLibrary/LIB_IOManager\ExternalOutputManager.c **** 	}
 694:C:/Workspace/FW_Platform2_5/trunk/PlatformLibrary/LIB_IOManager\ExternalOutputManager.c **** 	else if(cmd_readram) 
 695:C:/Workspace/FW_Platform2_5/trunk/PlatformLibrary/LIB_IOManager\ExternalOutputManager.c **** 	{
 696:C:/Workspace/FW_Platform2_5/trunk/PlatformLibrary/LIB_IOManager\ExternalOutputManager.c **** 		/* read ram */
 697:C:/Workspace/FW_Platform2_5/trunk/PlatformLibrary/LIB_IOManager\ExternalOutputManager.c **** 		*pCmdLen += 1+IOM_EXT_CMDDATA_RAM_READ_SZ; /*reserved pilotType +  read */
 698:C:/Workspace/FW_Platform2_5/trunk/PlatformLibrary/LIB_IOManager\ExternalOutputManager.c **** 	}
 699:C:/Workspace/FW_Platform2_5/trunk/PlatformLibrary/LIB_IOManager\ExternalOutputManager.c **** 	else if(cmd_extrareq) 
 700:C:/Workspace/FW_Platform2_5/trunk/PlatformLibrary/LIB_IOManager\ExternalOutputManager.c **** 	{
 701:C:/Workspace/FW_Platform2_5/trunk/PlatformLibrary/LIB_IOManager\ExternalOutputManager.c **** 		/* extra ram */
 702:C:/Workspace/FW_Platform2_5/trunk/PlatformLibrary/LIB_IOManager\ExternalOutputManager.c **** 		*pCmdLen += 1+IOM_EXT_CMDDATA_RAM_READ_SZ+IOM_EXT_CMDDATA_RAM_WRITE_SZ+IOM_EXT_CMDDATA_EXTRA_REQ_
 703:C:/Workspace/FW_Platform2_5/trunk/PlatformLibrary/LIB_IOManager\ExternalOutputManager.c **** 		ExternalSeqId[uart].OldReq |= 2;
 704:C:/Workspace/FW_Platform2_5/trunk/PlatformLibrary/LIB_IOManager\ExternalOutputManager.c **** 	}
 705:C:/Workspace/FW_Platform2_5/trunk/PlatformLibrary/LIB_IOManager\ExternalOutputManager.c **** 	
 706:C:/Workspace/FW_Platform2_5/trunk/PlatformLibrary/LIB_IOManager\ExternalOutputManager.c **** 	ExternalSeqId[uart].Seq++;
 707:C:/Workspace/FW_Platform2_5/trunk/PlatformLibrary/LIB_IOManager\ExternalOutputManager.c **** 	
 708:C:/Workspace/FW_Platform2_5/trunk/PlatformLibrary/LIB_IOManager\ExternalOutputManager.c **** 	*ppCmd = IOM_External_CommandBufferTable[uart].pCmdBufferTx;
 709:C:/Workspace/FW_Platform2_5/trunk/PlatformLibrary/LIB_IOManager\ExternalOutputManager.c **** 	
 710:C:/Workspace/FW_Platform2_5/trunk/PlatformLibrary/LIB_IOManager\ExternalOutputManager.c **** 	if((ExternalSeqId[uart].OldReq & 0xF0) != ExternalSeqId[uart].NewReq)
 711:C:/Workspace/FW_Platform2_5/trunk/PlatformLibrary/LIB_IOManager\ExternalOutputManager.c **** 	{
 712:C:/Workspace/FW_Platform2_5/trunk/PlatformLibrary/LIB_IOManager\ExternalOutputManager.c **** 		ExternalSeqId[uart].OldReq &= 0x0F;
 713:C:/Workspace/FW_Platform2_5/trunk/PlatformLibrary/LIB_IOManager\ExternalOutputManager.c **** 		ExternalSeqId[uart].OldReq += ExternalSeqId[uart].NewReq;
 714:C:/Workspace/FW_Platform2_5/trunk/PlatformLibrary/LIB_IOManager\ExternalOutputManager.c **** 		ExternalSeqId[uart].Seq=0;
 715:C:/Workspace/FW_Platform2_5/trunk/PlatformLibrary/LIB_IOManager\ExternalOutputManager.c **** 	}
 716:C:/Workspace/FW_Platform2_5/trunk/PlatformLibrary/LIB_IOManager\ExternalOutputManager.c **** 	
 717:C:/Workspace/FW_Platform2_5/trunk/PlatformLibrary/LIB_IOManager\ExternalOutputManager.c **** 	*IOM_External_CommandBufferTable[uart].pCmdBuffer = ExternalSeqId[uart].OldReq;
 718:C:/Workspace/FW_Platform2_5/trunk/PlatformLibrary/LIB_IOManager\ExternalOutputManager.c **** 	memcpy(IOM_External_CommandBufferTable[uart].pCmdBufferTx, IOM_External_CommandBufferTable[uart].p
 719:C:/Workspace/FW_Platform2_5/trunk/PlatformLibrary/LIB_IOManager\ExternalOutputManager.c **** 	
 720:C:/Workspace/FW_Platform2_5/trunk/PlatformLibrary/LIB_IOManager\ExternalOutputManager.c **** 	UnuseExternalBoard();
 721:C:/Workspace/FW_Platform2_5/trunk/PlatformLibrary/LIB_IOManager\ExternalOutputManager.c **** 	
 722:C:/Workspace/FW_Platform2_5/trunk/PlatformLibrary/LIB_IOManager\ExternalOutputManager.c **** 	return LIB_IOM_NO_ERROR;
 723:C:/Workspace/FW_Platform2_5/trunk/PlatformLibrary/LIB_IOManager\ExternalOutputManager.c **** }
 724:C:/Workspace/FW_Platform2_5/trunk/PlatformLibrary/LIB_IOManager\ExternalOutputManager.c **** 
 725:C:/Workspace/FW_Platform2_5/trunk/PlatformLibrary/LIB_IOManager\ExternalOutputManager.c **** bool_t LIB_IOM_External_GetInfoBuffer(uint8_t extloadItem, uint8_t *pByteData, uint8_t szData)
 726:C:/Workspace/FW_Platform2_5/trunk/PlatformLibrary/LIB_IOManager\ExternalOutputManager.c **** {
 727:C:/Workspace/FW_Platform2_5/trunk/PlatformLibrary/LIB_IOManager\ExternalOutputManager.c **** 	bool_t resVal = FALSE;
 728:C:/Workspace/FW_Platform2_5/trunk/PlatformLibrary/LIB_IOManager\ExternalOutputManager.c **** 
 729:C:/Workspace/FW_Platform2_5/trunk/PlatformLibrary/LIB_IOManager\ExternalOutputManager.c **** #if defined(CONFIG_NUM_EXTDLOADS)
 730:C:/Workspace/FW_Platform2_5/trunk/PlatformLibrary/LIB_IOManager\ExternalOutputManager.c **** 	if (extloadItem < CONFIG_NUM_EXTDLOADS)
 731:C:/Workspace/FW_Platform2_5/trunk/PlatformLibrary/LIB_IOManager\ExternalOutputManager.c **** 	{
 732:C:/Workspace/FW_Platform2_5/trunk/PlatformLibrary/LIB_IOManager\ExternalOutputManager.c **** 		if (szData >= IOM_External_LoadsTable[extloadItem].szPilotTypeInfo)
 733:C:/Workspace/FW_Platform2_5/trunk/PlatformLibrary/LIB_IOManager\ExternalOutputManager.c **** 		{
 734:C:/Workspace/FW_Platform2_5/trunk/PlatformLibrary/LIB_IOManager\ExternalOutputManager.c **** 			memcpy(pByteData, IOM_External_LoadsTable[extloadItem].pPilotTypeInfo, IOM_External_LoadsTable[e
 735:C:/Workspace/FW_Platform2_5/trunk/PlatformLibrary/LIB_IOManager\ExternalOutputManager.c **** 			resVal = TRUE;
 736:C:/Workspace/FW_Platform2_5/trunk/PlatformLibrary/LIB_IOManager\ExternalOutputManager.c **** 		}
 737:C:/Workspace/FW_Platform2_5/trunk/PlatformLibrary/LIB_IOManager\ExternalOutputManager.c **** 	}
 738:C:/Workspace/FW_Platform2_5/trunk/PlatformLibrary/LIB_IOManager\ExternalOutputManager.c **** #endif
 739:C:/Workspace/FW_Platform2_5/trunk/PlatformLibrary/LIB_IOManager\ExternalOutputManager.c **** 
 740:C:/Workspace/FW_Platform2_5/trunk/PlatformLibrary/LIB_IOManager\ExternalOutputManager.c **** 	return resVal;
 741:C:/Workspace/FW_Platform2_5/trunk/PlatformLibrary/LIB_IOManager\ExternalOutputManager.c **** 
 742:C:/Workspace/FW_Platform2_5/trunk/PlatformLibrary/LIB_IOManager\ExternalOutputManager.c **** }
 743:C:/Workspace/FW_Platform2_5/trunk/PlatformLibrary/LIB_IOManager\ExternalOutputManager.c **** 
 744:C:/Workspace/FW_Platform2_5/trunk/PlatformLibrary/LIB_IOManager\ExternalOutputManager.c **** 
 745:C:/Workspace/FW_Platform2_5/trunk/PlatformLibrary/LIB_IOManager\ExternalOutputManager.c **** /**
 746:C:/Workspace/FW_Platform2_5/trunk/PlatformLibrary/LIB_IOManager\ExternalOutputManager.c **** \n Returns the load's status value decoding the command buffer value
 747:C:/Workspace/FW_Platform2_5/trunk/PlatformLibrary/LIB_IOManager\ExternalOutputManager.c **** 
 748:C:/Workspace/FW_Platform2_5/trunk/PlatformLibrary/LIB_IOManager\ExternalOutputManager.c **** \param  [in] pilotType PilotType of the load
 749:C:/Workspace/FW_Platform2_5/trunk/PlatformLibrary/LIB_IOManager\ExternalOutputManager.c **** \param  [in] pLoad pointer to GIOM_LoadStruct structure containing the command
 750:C:/Workspace/FW_Platform2_5/trunk/PlatformLibrary/LIB_IOManager\ExternalOutputManager.c **** 
 751:C:/Workspace/FW_Platform2_5/trunk/PlatformLibrary/LIB_IOManager\ExternalOutputManager.c **** \return 	bool_t
 752:C:/Workspace/FW_Platform2_5/trunk/PlatformLibrary/LIB_IOManager\ExternalOutputManager.c **** 
 753:C:/Workspace/FW_Platform2_5/trunk/PlatformLibrary/LIB_IOManager\ExternalOutputManager.c **** \retval		FALSE load is inactive
 754:C:/Workspace/FW_Platform2_5/trunk/PlatformLibrary/LIB_IOManager\ExternalOutputManager.c **** \retval		TRUE load is active
 755:C:/Workspace/FW_Platform2_5/trunk/PlatformLibrary/LIB_IOManager\ExternalOutputManager.c **** 
 756:C:/Workspace/FW_Platform2_5/trunk/PlatformLibrary/LIB_IOManager\ExternalOutputManager.c **** \author		Roberto Fioravanti
 757:C:/Workspace/FW_Platform2_5/trunk/PlatformLibrary/LIB_IOManager\ExternalOutputManager.c **** 
 758:C:/Workspace/FW_Platform2_5/trunk/PlatformLibrary/LIB_IOManager\ExternalOutputManager.c **** \date			13/09/2010
 759:C:/Workspace/FW_Platform2_5/trunk/PlatformLibrary/LIB_IOManager\ExternalOutputManager.c **** 
 760:C:/Workspace/FW_Platform2_5/trunk/PlatformLibrary/LIB_IOManager\ExternalOutputManager.c **** \version    1.0.0
 761:C:/Workspace/FW_Platform2_5/trunk/PlatformLibrary/LIB_IOManager\ExternalOutputManager.c **** 
 762:C:/Workspace/FW_Platform2_5/trunk/PlatformLibrary/LIB_IOManager\ExternalOutputManager.c **** \note       \par \b Nota1:
 763:C:/Workspace/FW_Platform2_5/trunk/PlatformLibrary/LIB_IOManager\ExternalOutputManager.c ****             documentation by Roberto Fioravanti 
 764:C:/Workspace/FW_Platform2_5/trunk/PlatformLibrary/LIB_IOManager\ExternalOutputManager.c **** */
 765:C:/Workspace/FW_Platform2_5/trunk/PlatformLibrary/LIB_IOManager\ExternalOutputManager.c **** bool_t	LIB_IOM_External_GetLoadStatus(uint8_t pilotType, const GIOM_LoadStruct *const pLoad)
 766:C:/Workspace/FW_Platform2_5/trunk/PlatformLibrary/LIB_IOManager\ExternalOutputManager.c **** {
 767:C:/Workspace/FW_Platform2_5/trunk/PlatformLibrary/LIB_IOManager\ExternalOutputManager.c **** 	bool_t bLoadStatus=FALSE;
 768:C:/Workspace/FW_Platform2_5/trunk/PlatformLibrary/LIB_IOManager\ExternalOutputManager.c **** 	
 769:C:/Workspace/FW_Platform2_5/trunk/PlatformLibrary/LIB_IOManager\ExternalOutputManager.c **** 	switch(pilotType)
 770:C:/Workspace/FW_Platform2_5/trunk/PlatformLibrary/LIB_IOManager\ExternalOutputManager.c **** 	{
 771:C:/Workspace/FW_Platform2_5/trunk/PlatformLibrary/LIB_IOManager\ExternalOutputManager.c **** #if defined(CONFIG_EXTERN_MODULE_L_SUPPORT)
 772:C:/Workspace/FW_Platform2_5/trunk/PlatformLibrary/LIB_IOManager\ExternalOutputManager.c **** 		case EXTERN_MODULE_L:
 773:C:/Workspace/FW_Platform2_5/trunk/PlatformLibrary/LIB_IOManager\ExternalOutputManager.c **** 		{
 774:C:/Workspace/FW_Platform2_5/trunk/PlatformLibrary/LIB_IOManager\ExternalOutputManager.c **** 			ExternalBldcWashCmdType* tmpPtr = (ExternalBldcWashCmdType*) &pLoad->data[0];
 775:C:/Workspace/FW_Platform2_5/trunk/PlatformLibrary/LIB_IOManager\ExternalOutputManager.c **** 
 776:C:/Workspace/FW_Platform2_5/trunk/PlatformLibrary/LIB_IOManager\ExternalOutputManager.c **** 			if(tmpPtr->rpm)
 777:C:/Workspace/FW_Platform2_5/trunk/PlatformLibrary/LIB_IOManager\ExternalOutputManager.c **** 			{
 778:C:/Workspace/FW_Platform2_5/trunk/PlatformLibrary/LIB_IOManager\ExternalOutputManager.c **** 				bLoadStatus=TRUE;
 779:C:/Workspace/FW_Platform2_5/trunk/PlatformLibrary/LIB_IOManager\ExternalOutputManager.c **** 			}
 780:C:/Workspace/FW_Platform2_5/trunk/PlatformLibrary/LIB_IOManager\ExternalOutputManager.c **** 		}
 781:C:/Workspace/FW_Platform2_5/trunk/PlatformLibrary/LIB_IOManager\ExternalOutputManager.c **** 			break;
 782:C:/Workspace/FW_Platform2_5/trunk/PlatformLibrary/LIB_IOManager\ExternalOutputManager.c **** #endif /* defined(CONFIG_EXTERN_MODULE_L_SUPPORT) */
 783:C:/Workspace/FW_Platform2_5/trunk/PlatformLibrary/LIB_IOManager\ExternalOutputManager.c **** #if defined(CONFIG_PMSM_MOTOR_L_SUPPORT)
 784:C:/Workspace/FW_Platform2_5/trunk/PlatformLibrary/LIB_IOManager\ExternalOutputManager.c **** 		case PMSM_MOTOR_L:
 785:C:/Workspace/FW_Platform2_5/trunk/PlatformLibrary/LIB_IOManager\ExternalOutputManager.c **** 		{
 786:C:/Workspace/FW_Platform2_5/trunk/PlatformLibrary/LIB_IOManager\ExternalOutputManager.c **** 			ExternalBldcWashCmdType* tmpPtr = (ExternalBldcWashCmdType*) &pLoad->data[0];
 787:C:/Workspace/FW_Platform2_5/trunk/PlatformLibrary/LIB_IOManager\ExternalOutputManager.c **** 
 788:C:/Workspace/FW_Platform2_5/trunk/PlatformLibrary/LIB_IOManager\ExternalOutputManager.c **** 			if(tmpPtr->rpm)
 789:C:/Workspace/FW_Platform2_5/trunk/PlatformLibrary/LIB_IOManager\ExternalOutputManager.c **** 			{
 790:C:/Workspace/FW_Platform2_5/trunk/PlatformLibrary/LIB_IOManager\ExternalOutputManager.c **** 				bLoadStatus=TRUE;
 791:C:/Workspace/FW_Platform2_5/trunk/PlatformLibrary/LIB_IOManager\ExternalOutputManager.c **** 			}
 792:C:/Workspace/FW_Platform2_5/trunk/PlatformLibrary/LIB_IOManager\ExternalOutputManager.c **** 		}
 793:C:/Workspace/FW_Platform2_5/trunk/PlatformLibrary/LIB_IOManager\ExternalOutputManager.c **** 			break;
 794:C:/Workspace/FW_Platform2_5/trunk/PlatformLibrary/LIB_IOManager\ExternalOutputManager.c **** #endif
 795:C:/Workspace/FW_Platform2_5/trunk/PlatformLibrary/LIB_IOManager\ExternalOutputManager.c **** #if defined(CONFIG_BLDC_WASH_L_SUPPORT)
 796:C:/Workspace/FW_Platform2_5/trunk/PlatformLibrary/LIB_IOManager\ExternalOutputManager.c **** 		case BLDC_WASH_L:
 797:C:/Workspace/FW_Platform2_5/trunk/PlatformLibrary/LIB_IOManager\ExternalOutputManager.c **** 		{
 798:C:/Workspace/FW_Platform2_5/trunk/PlatformLibrary/LIB_IOManager\ExternalOutputManager.c **** 			ExternalBldcWashCmdType* tmpPtr = (ExternalBldcWashCmdType*) &pLoad->data[0];
 799:C:/Workspace/FW_Platform2_5/trunk/PlatformLibrary/LIB_IOManager\ExternalOutputManager.c **** 
 800:C:/Workspace/FW_Platform2_5/trunk/PlatformLibrary/LIB_IOManager\ExternalOutputManager.c **** 			if(tmpPtr->rpm)
 801:C:/Workspace/FW_Platform2_5/trunk/PlatformLibrary/LIB_IOManager\ExternalOutputManager.c **** 			{
 802:C:/Workspace/FW_Platform2_5/trunk/PlatformLibrary/LIB_IOManager\ExternalOutputManager.c **** 				bLoadStatus=TRUE;
 803:C:/Workspace/FW_Platform2_5/trunk/PlatformLibrary/LIB_IOManager\ExternalOutputManager.c **** 			}
 804:C:/Workspace/FW_Platform2_5/trunk/PlatformLibrary/LIB_IOManager\ExternalOutputManager.c **** 		}
 805:C:/Workspace/FW_Platform2_5/trunk/PlatformLibrary/LIB_IOManager\ExternalOutputManager.c **** 			break;
 806:C:/Workspace/FW_Platform2_5/trunk/PlatformLibrary/LIB_IOManager\ExternalOutputManager.c **** #endif
 807:C:/Workspace/FW_Platform2_5/trunk/PlatformLibrary/LIB_IOManager\ExternalOutputManager.c **** #if defined(CONFIG_BLDC_DRAIN_L_SUPPORT)
 808:C:/Workspace/FW_Platform2_5/trunk/PlatformLibrary/LIB_IOManager\ExternalOutputManager.c **** 		case BLDC_DRAIN_L:
 809:C:/Workspace/FW_Platform2_5/trunk/PlatformLibrary/LIB_IOManager\ExternalOutputManager.c **** 		{
 810:C:/Workspace/FW_Platform2_5/trunk/PlatformLibrary/LIB_IOManager\ExternalOutputManager.c **** 			ExternalBldcDrainCmdType* tmpPtr = (ExternalBldcDrainCmdType*) &pLoad->data[0];
 811:C:/Workspace/FW_Platform2_5/trunk/PlatformLibrary/LIB_IOManager\ExternalOutputManager.c **** 
 812:C:/Workspace/FW_Platform2_5/trunk/PlatformLibrary/LIB_IOManager\ExternalOutputManager.c **** 			if(tmpPtr->rpm)
 813:C:/Workspace/FW_Platform2_5/trunk/PlatformLibrary/LIB_IOManager\ExternalOutputManager.c **** 			{
 814:C:/Workspace/FW_Platform2_5/trunk/PlatformLibrary/LIB_IOManager\ExternalOutputManager.c **** 				bLoadStatus=TRUE;
 815:C:/Workspace/FW_Platform2_5/trunk/PlatformLibrary/LIB_IOManager\ExternalOutputManager.c **** 			}
 816:C:/Workspace/FW_Platform2_5/trunk/PlatformLibrary/LIB_IOManager\ExternalOutputManager.c **** 		}
 817:C:/Workspace/FW_Platform2_5/trunk/PlatformLibrary/LIB_IOManager\ExternalOutputManager.c **** 			break;
 818:C:/Workspace/FW_Platform2_5/trunk/PlatformLibrary/LIB_IOManager\ExternalOutputManager.c **** #endif
 819:C:/Workspace/FW_Platform2_5/trunk/PlatformLibrary/LIB_IOManager\ExternalOutputManager.c **** #if defined(CONFIG_PMSM_DRYER_L_SUPPORT)
 820:C:/Workspace/FW_Platform2_5/trunk/PlatformLibrary/LIB_IOManager\ExternalOutputManager.c **** 		case PMSM_DRYER_L:
 821:C:/Workspace/FW_Platform2_5/trunk/PlatformLibrary/LIB_IOManager\ExternalOutputManager.c **** 		{
 822:C:/Workspace/FW_Platform2_5/trunk/PlatformLibrary/LIB_IOManager\ExternalOutputManager.c **** 			ExternalBldcDrainCmdType* tmpPtr = (ExternalBldcDrainCmdType*) &pLoad->data[0];
 823:C:/Workspace/FW_Platform2_5/trunk/PlatformLibrary/LIB_IOManager\ExternalOutputManager.c **** 
 824:C:/Workspace/FW_Platform2_5/trunk/PlatformLibrary/LIB_IOManager\ExternalOutputManager.c **** 			if(tmpPtr->rpm)
 825:C:/Workspace/FW_Platform2_5/trunk/PlatformLibrary/LIB_IOManager\ExternalOutputManager.c **** 			{
 826:C:/Workspace/FW_Platform2_5/trunk/PlatformLibrary/LIB_IOManager\ExternalOutputManager.c **** 				bLoadStatus=TRUE;
 827:C:/Workspace/FW_Platform2_5/trunk/PlatformLibrary/LIB_IOManager\ExternalOutputManager.c **** 			}
 828:C:/Workspace/FW_Platform2_5/trunk/PlatformLibrary/LIB_IOManager\ExternalOutputManager.c **** 		}
 829:C:/Workspace/FW_Platform2_5/trunk/PlatformLibrary/LIB_IOManager\ExternalOutputManager.c **** 			break;
 830:C:/Workspace/FW_Platform2_5/trunk/PlatformLibrary/LIB_IOManager\ExternalOutputManager.c **** #endif
 831:C:/Workspace/FW_Platform2_5/trunk/PlatformLibrary/LIB_IOManager\ExternalOutputManager.c **** #if defined(CONFIG_MULTIPOWER_COMP_L_SUPPORT)
 832:C:/Workspace/FW_Platform2_5/trunk/PlatformLibrary/LIB_IOManager\ExternalOutputManager.c **** 	    case MULTIPOWER_COMP_L:
 833:C:/Workspace/FW_Platform2_5/trunk/PlatformLibrary/LIB_IOManager\ExternalOutputManager.c **** 	    {
 834:C:/Workspace/FW_Platform2_5/trunk/PlatformLibrary/LIB_IOManager\ExternalOutputManager.c **** 	    	ExternalBldcDrainCmdType* tmpPtr = (ExternalBldcDrainCmdType*) &pLoad->data[0];
 835:C:/Workspace/FW_Platform2_5/trunk/PlatformLibrary/LIB_IOManager\ExternalOutputManager.c **** 
 836:C:/Workspace/FW_Platform2_5/trunk/PlatformLibrary/LIB_IOManager\ExternalOutputManager.c **** 			if(tmpPtr->rpm)
 837:C:/Workspace/FW_Platform2_5/trunk/PlatformLibrary/LIB_IOManager\ExternalOutputManager.c **** 			{
 838:C:/Workspace/FW_Platform2_5/trunk/PlatformLibrary/LIB_IOManager\ExternalOutputManager.c **** 				bLoadStatus=TRUE;
 839:C:/Workspace/FW_Platform2_5/trunk/PlatformLibrary/LIB_IOManager\ExternalOutputManager.c **** 			}
 840:C:/Workspace/FW_Platform2_5/trunk/PlatformLibrary/LIB_IOManager\ExternalOutputManager.c **** 	    }
 841:C:/Workspace/FW_Platform2_5/trunk/PlatformLibrary/LIB_IOManager\ExternalOutputManager.c **** 			break;
 842:C:/Workspace/FW_Platform2_5/trunk/PlatformLibrary/LIB_IOManager\ExternalOutputManager.c **** #endif /* defined(MULTIPOWER_COMP_L_SUPPORT) */
 843:C:/Workspace/FW_Platform2_5/trunk/PlatformLibrary/LIB_IOManager\ExternalOutputManager.c **** #if defined(CONFIG_BRUSHLESS_HOOD_L_SUPPORT)
 844:C:/Workspace/FW_Platform2_5/trunk/PlatformLibrary/LIB_IOManager\ExternalOutputManager.c **** 		case BRUSHLESS_HOOD_L:
 845:C:/Workspace/FW_Platform2_5/trunk/PlatformLibrary/LIB_IOManager\ExternalOutputManager.c **** 		{
 846:C:/Workspace/FW_Platform2_5/trunk/PlatformLibrary/LIB_IOManager\ExternalOutputManager.c **** 			ExternalBldcDrainCmdType* tmpPtr = (ExternalBldcDrainCmdType*) &pLoad->data[0];
 847:C:/Workspace/FW_Platform2_5/trunk/PlatformLibrary/LIB_IOManager\ExternalOutputManager.c **** 
 848:C:/Workspace/FW_Platform2_5/trunk/PlatformLibrary/LIB_IOManager\ExternalOutputManager.c **** 			if(tmpPtr->rpm)
 849:C:/Workspace/FW_Platform2_5/trunk/PlatformLibrary/LIB_IOManager\ExternalOutputManager.c **** 			{
 850:C:/Workspace/FW_Platform2_5/trunk/PlatformLibrary/LIB_IOManager\ExternalOutputManager.c **** 				bLoadStatus=TRUE;
 851:C:/Workspace/FW_Platform2_5/trunk/PlatformLibrary/LIB_IOManager\ExternalOutputManager.c **** 			}
 852:C:/Workspace/FW_Platform2_5/trunk/PlatformLibrary/LIB_IOManager\ExternalOutputManager.c **** 			break;
 853:C:/Workspace/FW_Platform2_5/trunk/PlatformLibrary/LIB_IOManager\ExternalOutputManager.c **** 		}
 854:C:/Workspace/FW_Platform2_5/trunk/PlatformLibrary/LIB_IOManager\ExternalOutputManager.c **** #endif
 855:C:/Workspace/FW_Platform2_5/trunk/PlatformLibrary/LIB_IOManager\ExternalOutputManager.c **** #if defined(CONFIG_AIRSENSOR_HOOD_L_SUPPORT)
 856:C:/Workspace/FW_Platform2_5/trunk/PlatformLibrary/LIB_IOManager\ExternalOutputManager.c **** 		case AIRSENSOR_HOOD_L:
 857:C:/Workspace/FW_Platform2_5/trunk/PlatformLibrary/LIB_IOManager\ExternalOutputManager.c **** 			/* as it's a sensor it's always active */
 858:C:/Workspace/FW_Platform2_5/trunk/PlatformLibrary/LIB_IOManager\ExternalOutputManager.c **** 			bLoadStatus=TRUE;
 859:C:/Workspace/FW_Platform2_5/trunk/PlatformLibrary/LIB_IOManager\ExternalOutputManager.c **** 			break;
 860:C:/Workspace/FW_Platform2_5/trunk/PlatformLibrary/LIB_IOManager\ExternalOutputManager.c **** #endif
 861:C:/Workspace/FW_Platform2_5/trunk/PlatformLibrary/LIB_IOManager\ExternalOutputManager.c **** 	}
 862:C:/Workspace/FW_Platform2_5/trunk/PlatformLibrary/LIB_IOManager\ExternalOutputManager.c **** 	
 863:C:/Workspace/FW_Platform2_5/trunk/PlatformLibrary/LIB_IOManager\ExternalOutputManager.c **** 	return bLoadStatus;
 864:C:/Workspace/FW_Platform2_5/trunk/PlatformLibrary/LIB_IOManager\ExternalOutputManager.c **** }
 865:C:/Workspace/FW_Platform2_5/trunk/PlatformLibrary/LIB_IOManager\ExternalOutputManager.c **** 
 866:C:/Workspace/FW_Platform2_5/trunk/PlatformLibrary/LIB_IOManager\ExternalOutputManager.c **** 
 867:C:/Workspace/FW_Platform2_5/trunk/PlatformLibrary/LIB_IOManager\ExternalOutputManager.c **** 
 868:C:/Workspace/FW_Platform2_5/trunk/PlatformLibrary/LIB_IOManager\ExternalOutputManager.c **** 
 869:C:/Workspace/FW_Platform2_5/trunk/PlatformLibrary/LIB_IOManager\ExternalOutputManager.c **** 
 870:C:/Workspace/FW_Platform2_5/trunk/PlatformLibrary/LIB_IOManager\ExternalOutputManager.c **** /**
 871:C:/Workspace/FW_Platform2_5/trunk/PlatformLibrary/LIB_IOManager\ExternalOutputManager.c **** \n Returns the load's status value decoding the connad value
 872:C:/Workspace/FW_Platform2_5/trunk/PlatformLibrary/LIB_IOManager\ExternalOutputManager.c **** 
 873:C:/Workspace/FW_Platform2_5/trunk/PlatformLibrary/LIB_IOManager\ExternalOutputManager.c **** \param  [in] pilotType PilotType of the load
 874:C:/Workspace/FW_Platform2_5/trunk/PlatformLibrary/LIB_IOManager\ExternalOutputManager.c **** \param  [in] pLoad pointer to GIOM_LoadStruct atructure containing the command
 875:C:/Workspace/FW_Platform2_5/trunk/PlatformLibrary/LIB_IOManager\ExternalOutputManager.c **** 
 876:C:/Workspace/FW_Platform2_5/trunk/PlatformLibrary/LIB_IOManager\ExternalOutputManager.c **** \return 	bool_t
 877:C:/Workspace/FW_Platform2_5/trunk/PlatformLibrary/LIB_IOManager\ExternalOutputManager.c **** 
 878:C:/Workspace/FW_Platform2_5/trunk/PlatformLibrary/LIB_IOManager\ExternalOutputManager.c **** \retval		FALSE load is inactive
 879:C:/Workspace/FW_Platform2_5/trunk/PlatformLibrary/LIB_IOManager\ExternalOutputManager.c **** \retval		TRUE load is active
 880:C:/Workspace/FW_Platform2_5/trunk/PlatformLibrary/LIB_IOManager\ExternalOutputManager.c **** 
 881:C:/Workspace/FW_Platform2_5/trunk/PlatformLibrary/LIB_IOManager\ExternalOutputManager.c **** \author		Roberto Fioravanti
 882:C:/Workspace/FW_Platform2_5/trunk/PlatformLibrary/LIB_IOManager\ExternalOutputManager.c **** 
 883:C:/Workspace/FW_Platform2_5/trunk/PlatformLibrary/LIB_IOManager\ExternalOutputManager.c **** \date			13/09/2010
 884:C:/Workspace/FW_Platform2_5/trunk/PlatformLibrary/LIB_IOManager\ExternalOutputManager.c **** 
 885:C:/Workspace/FW_Platform2_5/trunk/PlatformLibrary/LIB_IOManager\ExternalOutputManager.c **** \version    1.0.0
 886:C:/Workspace/FW_Platform2_5/trunk/PlatformLibrary/LIB_IOManager\ExternalOutputManager.c **** 
 887:C:/Workspace/FW_Platform2_5/trunk/PlatformLibrary/LIB_IOManager\ExternalOutputManager.c **** \note       \par \b Nota1:
 888:C:/Workspace/FW_Platform2_5/trunk/PlatformLibrary/LIB_IOManager\ExternalOutputManager.c ****             documentation by Roberto Fioravanti 
 889:C:/Workspace/FW_Platform2_5/trunk/PlatformLibrary/LIB_IOManager\ExternalOutputManager.c **** */
 890:C:/Workspace/FW_Platform2_5/trunk/PlatformLibrary/LIB_IOManager\ExternalOutputManager.c **** void	LIB_IOM_External_ProcessInfoPacketData(uint8_t ch, uint8_t* pInfoPacketData, uint8_t szInfoPac
 891:C:/Workspace/FW_Platform2_5/trunk/PlatformLibrary/LIB_IOManager\ExternalOutputManager.c **** {
 892:C:/Workspace/FW_Platform2_5/trunk/PlatformLibrary/LIB_IOManager\ExternalOutputManager.c **** 	uint8_t offset=0;
 893:C:/Workspace/FW_Platform2_5/trunk/PlatformLibrary/LIB_IOManager\ExternalOutputManager.c **** 	uint8_t	rem = szInfoPacketData;
 894:C:/Workspace/FW_Platform2_5/trunk/PlatformLibrary/LIB_IOManager\ExternalOutputManager.c **** 	uint8_t size;
 895:C:/Workspace/FW_Platform2_5/trunk/PlatformLibrary/LIB_IOManager\ExternalOutputManager.c **** 	uint8_t pilotType;
 896:C:/Workspace/FW_Platform2_5/trunk/PlatformLibrary/LIB_IOManager\ExternalOutputManager.c **** 	uint8_t i;
 897:C:/Workspace/FW_Platform2_5/trunk/PlatformLibrary/LIB_IOManager\ExternalOutputManager.c **** 	
 898:C:/Workspace/FW_Platform2_5/trunk/PlatformLibrary/LIB_IOManager\ExternalOutputManager.c **** 	if(ch >= EXTERNAL_NUM)
 899:C:/Workspace/FW_Platform2_5/trunk/PlatformLibrary/LIB_IOManager\ExternalOutputManager.c **** 	{
 900:C:/Workspace/FW_Platform2_5/trunk/PlatformLibrary/LIB_IOManager\ExternalOutputManager.c **** 		PLT_ERROR_WARNING(PLT_ERROR_IOM_EXT_OUTMNG_MAX_CHANNEL_NUM_REACHED_ERR);
 901:C:/Workspace/FW_Platform2_5/trunk/PlatformLibrary/LIB_IOManager\ExternalOutputManager.c ****         return;  /* Serious Error */
 902:C:/Workspace/FW_Platform2_5/trunk/PlatformLibrary/LIB_IOManager\ExternalOutputManager.c **** 	}
 903:C:/Workspace/FW_Platform2_5/trunk/PlatformLibrary/LIB_IOManager\ExternalOutputManager.c **** 
 904:C:/Workspace/FW_Platform2_5/trunk/PlatformLibrary/LIB_IOManager\ExternalOutputManager.c **** 	*(ExternalData[ch].pRamBuffer) = ExternalSeqId[ch].Seq;	/* seqID*/
 905:C:/Workspace/FW_Platform2_5/trunk/PlatformLibrary/LIB_IOManager\ExternalOutputManager.c **** 	*(ExternalData[ch].pRamBuffer+1) = *pInfoPacketData;	/* ReqID*/
 906:C:/Workspace/FW_Platform2_5/trunk/PlatformLibrary/LIB_IOManager\ExternalOutputManager.c **** 	
 907:C:/Workspace/FW_Platform2_5/trunk/PlatformLibrary/LIB_IOManager\ExternalOutputManager.c **** 	pInfoPacketData +=1;
 908:C:/Workspace/FW_Platform2_5/trunk/PlatformLibrary/LIB_IOManager\ExternalOutputManager.c **** 	rem--;
 909:C:/Workspace/FW_Platform2_5/trunk/PlatformLibrary/LIB_IOManager\ExternalOutputManager.c **** 	/*parse PiloTypeInfo data*/
 910:C:/Workspace/FW_Platform2_5/trunk/PlatformLibrary/LIB_IOManager\ExternalOutputManager.c **** 	
 911:C:/Workspace/FW_Platform2_5/trunk/PlatformLibrary/LIB_IOManager\ExternalOutputManager.c **** 	
 912:C:/Workspace/FW_Platform2_5/trunk/PlatformLibrary/LIB_IOManager\ExternalOutputManager.c **** 	while (rem)
 913:C:/Workspace/FW_Platform2_5/trunk/PlatformLibrary/LIB_IOManager\ExternalOutputManager.c **** 	{
 914:C:/Workspace/FW_Platform2_5/trunk/PlatformLibrary/LIB_IOManager\ExternalOutputManager.c **** 		pilotType=((InfoPacketDataHdrType*)pInfoPacketData)->pilotType;
 915:C:/Workspace/FW_Platform2_5/trunk/PlatformLibrary/LIB_IOManager\ExternalOutputManager.c **** 		switch(pilotType)
 916:C:/Workspace/FW_Platform2_5/trunk/PlatformLibrary/LIB_IOManager\ExternalOutputManager.c **** 		{
 917:C:/Workspace/FW_Platform2_5/trunk/PlatformLibrary/LIB_IOManager\ExternalOutputManager.c **** 			case 0x00:
 918:C:/Workspace/FW_Platform2_5/trunk/PlatformLibrary/LIB_IOManager\ExternalOutputManager.c **** 			/* threats the pilotType 0 as read ram data */
 919:C:/Workspace/FW_Platform2_5/trunk/PlatformLibrary/LIB_IOManager\ExternalOutputManager.c **** 			
 920:C:/Workspace/FW_Platform2_5/trunk/PlatformLibrary/LIB_IOManager\ExternalOutputManager.c **** 			/* check if the sub field has data
 921:C:/Workspace/FW_Platform2_5/trunk/PlatformLibrary/LIB_IOManager\ExternalOutputManager.c **** 			if szData is 0 the field is not valid
 922:C:/Workspace/FW_Platform2_5/trunk/PlatformLibrary/LIB_IOManager\ExternalOutputManager.c **** 			*/
 923:C:/Workspace/FW_Platform2_5/trunk/PlatformLibrary/LIB_IOManager\ExternalOutputManager.c **** 			if(((InfoPacketDataHdrType*)pInfoPacketData)->szData)
 924:C:/Workspace/FW_Platform2_5/trunk/PlatformLibrary/LIB_IOManager\ExternalOutputManager.c **** 			{
 925:C:/Workspace/FW_Platform2_5/trunk/PlatformLibrary/LIB_IOManager\ExternalOutputManager.c **** 			    
 926:C:/Workspace/FW_Platform2_5/trunk/PlatformLibrary/LIB_IOManager\ExternalOutputManager.c **** 				offset= (uint8_t)(((InfoPacketDataHdrType*)pInfoPacketData)->szData + 1);
 927:C:/Workspace/FW_Platform2_5/trunk/PlatformLibrary/LIB_IOManager\ExternalOutputManager.c **** 				size = (uint8_t) ((((InfoPacketDataHdrType*)pInfoPacketData)->szData -1 <= (ExternalData[ch].sz
 928:C:/Workspace/FW_Platform2_5/trunk/PlatformLibrary/LIB_IOManager\ExternalOutputManager.c **** 					((InfoPacketDataHdrType*)pInfoPacketData)->szData -1 :
 929:C:/Workspace/FW_Platform2_5/trunk/PlatformLibrary/LIB_IOManager\ExternalOutputManager.c **** 					(ExternalData[ch].szRamBuffer-2));
 930:C:/Workspace/FW_Platform2_5/trunk/PlatformLibrary/LIB_IOManager\ExternalOutputManager.c **** 
 931:C:/Workspace/FW_Platform2_5/trunk/PlatformLibrary/LIB_IOManager\ExternalOutputManager.c **** 			
 932:C:/Workspace/FW_Platform2_5/trunk/PlatformLibrary/LIB_IOManager\ExternalOutputManager.c **** 				if(size > ExternalData[ch].szRamBuffer - 2)
 933:C:/Workspace/FW_Platform2_5/trunk/PlatformLibrary/LIB_IOManager\ExternalOutputManager.c **** 				{
 934:C:/Workspace/FW_Platform2_5/trunk/PlatformLibrary/LIB_IOManager\ExternalOutputManager.c **** 					size =  (uint8_t)(ExternalData[ch].szRamBuffer - 2);
 935:C:/Workspace/FW_Platform2_5/trunk/PlatformLibrary/LIB_IOManager\ExternalOutputManager.c **** 				}
 936:C:/Workspace/FW_Platform2_5/trunk/PlatformLibrary/LIB_IOManager\ExternalOutputManager.c **** 
 937:C:/Workspace/FW_Platform2_5/trunk/PlatformLibrary/LIB_IOManager\ExternalOutputManager.c **** 				memcpy(ExternalData[ch].pRamBuffer+2/*seqID+toolid*/, pInfoPacketData+2, size);
 938:C:/Workspace/FW_Platform2_5/trunk/PlatformLibrary/LIB_IOManager\ExternalOutputManager.c **** 
 939:C:/Workspace/FW_Platform2_5/trunk/PlatformLibrary/LIB_IOManager\ExternalOutputManager.c **** 				pInfoPacketData += offset;
 940:C:/Workspace/FW_Platform2_5/trunk/PlatformLibrary/LIB_IOManager\ExternalOutputManager.c **** 				rem -= offset;
 941:C:/Workspace/FW_Platform2_5/trunk/PlatformLibrary/LIB_IOManager\ExternalOutputManager.c **** 			}
 942:C:/Workspace/FW_Platform2_5/trunk/PlatformLibrary/LIB_IOManager\ExternalOutputManager.c **** 			else 
 943:C:/Workspace/FW_Platform2_5/trunk/PlatformLibrary/LIB_IOManager\ExternalOutputManager.c **** 		    {
 944:C:/Workspace/FW_Platform2_5/trunk/PlatformLibrary/LIB_IOManager\ExternalOutputManager.c **** 			    rem =0;
 945:C:/Workspace/FW_Platform2_5/trunk/PlatformLibrary/LIB_IOManager\ExternalOutputManager.c **** 			}
 946:C:/Workspace/FW_Platform2_5/trunk/PlatformLibrary/LIB_IOManager\ExternalOutputManager.c **** 			break;
 947:C:/Workspace/FW_Platform2_5/trunk/PlatformLibrary/LIB_IOManager\ExternalOutputManager.c **** #if defined(CONFIG_EXTERNAL_GLOBAL_DATA_BLOCK_SUPPORT)
 948:C:/Workspace/FW_Platform2_5/trunk/PlatformLibrary/LIB_IOManager\ExternalOutputManager.c **** 			case 0xFF:
 949:C:/Workspace/FW_Platform2_5/trunk/PlatformLibrary/LIB_IOManager\ExternalOutputManager.c **** 				/* threats the pilotType 0xFF as GLOBAL data */
 950:C:/Workspace/FW_Platform2_5/trunk/PlatformLibrary/LIB_IOManager\ExternalOutputManager.c **** 
 951:C:/Workspace/FW_Platform2_5/trunk/PlatformLibrary/LIB_IOManager\ExternalOutputManager.c **** 				if(((InfoPacketDataHdrType*)pInfoPacketData)->szData)
 952:C:/Workspace/FW_Platform2_5/trunk/PlatformLibrary/LIB_IOManager\ExternalOutputManager.c **** 				{
 953:C:/Workspace/FW_Platform2_5/trunk/PlatformLibrary/LIB_IOManager\ExternalOutputManager.c **** 
 954:C:/Workspace/FW_Platform2_5/trunk/PlatformLibrary/LIB_IOManager\ExternalOutputManager.c **** 					offset= (uint8_t)(((InfoPacketDataHdrType*)pInfoPacketData)->szData + 1);
 955:C:/Workspace/FW_Platform2_5/trunk/PlatformLibrary/LIB_IOManager\ExternalOutputManager.c **** 					size = (uint8_t) ((((InfoPacketDataHdrType*)pInfoPacketData)->szData -1 <= (ExternalData[ch].s
 956:C:/Workspace/FW_Platform2_5/trunk/PlatformLibrary/LIB_IOManager\ExternalOutputManager.c **** 						((InfoPacketDataHdrType*)pInfoPacketData)->szData -1 :
 957:C:/Workspace/FW_Platform2_5/trunk/PlatformLibrary/LIB_IOManager\ExternalOutputManager.c **** 						(ExternalData[ch].szGlobal));
 958:C:/Workspace/FW_Platform2_5/trunk/PlatformLibrary/LIB_IOManager\ExternalOutputManager.c **** 
 959:C:/Workspace/FW_Platform2_5/trunk/PlatformLibrary/LIB_IOManager\ExternalOutputManager.c **** 
 960:C:/Workspace/FW_Platform2_5/trunk/PlatformLibrary/LIB_IOManager\ExternalOutputManager.c **** 					if(size > ExternalData[ch].szGlobal - 2)
 961:C:/Workspace/FW_Platform2_5/trunk/PlatformLibrary/LIB_IOManager\ExternalOutputManager.c **** 					{
 962:C:/Workspace/FW_Platform2_5/trunk/PlatformLibrary/LIB_IOManager\ExternalOutputManager.c **** 						size =  (uint8_t)(ExternalData[ch].szGlobal - 2);
 963:C:/Workspace/FW_Platform2_5/trunk/PlatformLibrary/LIB_IOManager\ExternalOutputManager.c **** 					}
 964:C:/Workspace/FW_Platform2_5/trunk/PlatformLibrary/LIB_IOManager\ExternalOutputManager.c **** 
 965:C:/Workspace/FW_Platform2_5/trunk/PlatformLibrary/LIB_IOManager\ExternalOutputManager.c **** 					memcpy(ExternalData[ch].pGlobalData, pInfoPacketData+2, size);
 966:C:/Workspace/FW_Platform2_5/trunk/PlatformLibrary/LIB_IOManager\ExternalOutputManager.c **** 
 967:C:/Workspace/FW_Platform2_5/trunk/PlatformLibrary/LIB_IOManager\ExternalOutputManager.c **** 					pInfoPacketData += offset;
 968:C:/Workspace/FW_Platform2_5/trunk/PlatformLibrary/LIB_IOManager\ExternalOutputManager.c **** 					rem -= offset;
 969:C:/Workspace/FW_Platform2_5/trunk/PlatformLibrary/LIB_IOManager\ExternalOutputManager.c **** 				}
 970:C:/Workspace/FW_Platform2_5/trunk/PlatformLibrary/LIB_IOManager\ExternalOutputManager.c **** 				else
 971:C:/Workspace/FW_Platform2_5/trunk/PlatformLibrary/LIB_IOManager\ExternalOutputManager.c **** 				{
 972:C:/Workspace/FW_Platform2_5/trunk/PlatformLibrary/LIB_IOManager\ExternalOutputManager.c **** 					rem =0;
 973:C:/Workspace/FW_Platform2_5/trunk/PlatformLibrary/LIB_IOManager\ExternalOutputManager.c **** 				}
 974:C:/Workspace/FW_Platform2_5/trunk/PlatformLibrary/LIB_IOManager\ExternalOutputManager.c **** 
 975:C:/Workspace/FW_Platform2_5/trunk/PlatformLibrary/LIB_IOManager\ExternalOutputManager.c **** 				break;
 976:C:/Workspace/FW_Platform2_5/trunk/PlatformLibrary/LIB_IOManager\ExternalOutputManager.c **** #endif
 977:C:/Workspace/FW_Platform2_5/trunk/PlatformLibrary/LIB_IOManager\ExternalOutputManager.c **** 			default:
 978:C:/Workspace/FW_Platform2_5/trunk/PlatformLibrary/LIB_IOManager\ExternalOutputManager.c **** 			{
 979:C:/Workspace/FW_Platform2_5/trunk/PlatformLibrary/LIB_IOManager\ExternalOutputManager.c **** 				
 980:C:/Workspace/FW_Platform2_5/trunk/PlatformLibrary/LIB_IOManager\ExternalOutputManager.c **** 				i=0;
 981:C:/Workspace/FW_Platform2_5/trunk/PlatformLibrary/LIB_IOManager\ExternalOutputManager.c **** 				
 982:C:/Workspace/FW_Platform2_5/trunk/PlatformLibrary/LIB_IOManager\ExternalOutputManager.c **** 				/*search for PilotType */
 983:C:/Workspace/FW_Platform2_5/trunk/PlatformLibrary/LIB_IOManager\ExternalOutputManager.c **** 				while((i<IOM_NUM_OF_EXTERNAL_LOADS))
 984:C:/Workspace/FW_Platform2_5/trunk/PlatformLibrary/LIB_IOManager\ExternalOutputManager.c **** 				{
 985:C:/Workspace/FW_Platform2_5/trunk/PlatformLibrary/LIB_IOManager\ExternalOutputManager.c **** 					if(pilotType ==  IOM_External_LoadsTable[i].PilotType)
 986:C:/Workspace/FW_Platform2_5/trunk/PlatformLibrary/LIB_IOManager\ExternalOutputManager.c **** 					{
 987:C:/Workspace/FW_Platform2_5/trunk/PlatformLibrary/LIB_IOManager\ExternalOutputManager.c **** 						break;
 988:C:/Workspace/FW_Platform2_5/trunk/PlatformLibrary/LIB_IOManager\ExternalOutputManager.c **** 					}
 989:C:/Workspace/FW_Platform2_5/trunk/PlatformLibrary/LIB_IOManager\ExternalOutputManager.c **** 					i++;
 990:C:/Workspace/FW_Platform2_5/trunk/PlatformLibrary/LIB_IOManager\ExternalOutputManager.c **** 				}
 991:C:/Workspace/FW_Platform2_5/trunk/PlatformLibrary/LIB_IOManager\ExternalOutputManager.c **** 	
 992:C:/Workspace/FW_Platform2_5/trunk/PlatformLibrary/LIB_IOManager\ExternalOutputManager.c **** 				if(i>=IOM_NUM_OF_EXTERNAL_LOADS)
 993:C:/Workspace/FW_Platform2_5/trunk/PlatformLibrary/LIB_IOManager\ExternalOutputManager.c **** 				{
 994:C:/Workspace/FW_Platform2_5/trunk/PlatformLibrary/LIB_IOManager\ExternalOutputManager.c **** 					PLT_ERROR_WARNING(PLT_ERROR_IOM_EXT_OUTMNG_INVALID_PILOTTYPE_ERR);
 995:C:/Workspace/FW_Platform2_5/trunk/PlatformLibrary/LIB_IOManager\ExternalOutputManager.c **** 			    	return;  /* Serious Error */
 996:C:/Workspace/FW_Platform2_5/trunk/PlatformLibrary/LIB_IOManager\ExternalOutputManager.c **** 				}
 997:C:/Workspace/FW_Platform2_5/trunk/PlatformLibrary/LIB_IOManager\ExternalOutputManager.c **** 	
 998:C:/Workspace/FW_Platform2_5/trunk/PlatformLibrary/LIB_IOManager\ExternalOutputManager.c **** 				offset=(uint8_t)(((InfoPacketDataHdrType*)pInfoPacketData)->szData + 1);
 999:C:/Workspace/FW_Platform2_5/trunk/PlatformLibrary/LIB_IOManager\ExternalOutputManager.c **** 				size = (uint8_t)(((InfoPacketDataHdrType*)pInfoPacketData)->szData - 1);
1000:C:/Workspace/FW_Platform2_5/trunk/PlatformLibrary/LIB_IOManager\ExternalOutputManager.c **** 				
1001:C:/Workspace/FW_Platform2_5/trunk/PlatformLibrary/LIB_IOManager\ExternalOutputManager.c **** 				if (size > IOM_External_LoadsTable[i].szPilotTypeInfo)
1002:C:/Workspace/FW_Platform2_5/trunk/PlatformLibrary/LIB_IOManager\ExternalOutputManager.c **** 				{
1003:C:/Workspace/FW_Platform2_5/trunk/PlatformLibrary/LIB_IOManager\ExternalOutputManager.c **** 					size = IOM_External_LoadsTable[i].szPilotTypeInfo;
1004:C:/Workspace/FW_Platform2_5/trunk/PlatformLibrary/LIB_IOManager\ExternalOutputManager.c **** 				}
1005:C:/Workspace/FW_Platform2_5/trunk/PlatformLibrary/LIB_IOManager\ExternalOutputManager.c **** 				
1006:C:/Workspace/FW_Platform2_5/trunk/PlatformLibrary/LIB_IOManager\ExternalOutputManager.c **** 				UseExternalInfo();				
1007:C:/Workspace/FW_Platform2_5/trunk/PlatformLibrary/LIB_IOManager\ExternalOutputManager.c **** 				memcpy(IOM_External_LoadsTable[i].pPilotTypeInfo, pInfoPacketData+2, size);
1008:C:/Workspace/FW_Platform2_5/trunk/PlatformLibrary/LIB_IOManager\ExternalOutputManager.c **** 				UnuseExternalInfo();				
1009:C:/Workspace/FW_Platform2_5/trunk/PlatformLibrary/LIB_IOManager\ExternalOutputManager.c **** 				
1010:C:/Workspace/FW_Platform2_5/trunk/PlatformLibrary/LIB_IOManager\ExternalOutputManager.c **** 				pInfoPacketData += offset;
1011:C:/Workspace/FW_Platform2_5/trunk/PlatformLibrary/LIB_IOManager\ExternalOutputManager.c **** 				rem -= offset ;
1012:C:/Workspace/FW_Platform2_5/trunk/PlatformLibrary/LIB_IOManager\ExternalOutputManager.c **** 			}
1013:C:/Workspace/FW_Platform2_5/trunk/PlatformLibrary/LIB_IOManager\ExternalOutputManager.c **** 		}
1014:C:/Workspace/FW_Platform2_5/trunk/PlatformLibrary/LIB_IOManager\ExternalOutputManager.c **** 	}
1015:C:/Workspace/FW_Platform2_5/trunk/PlatformLibrary/LIB_IOManager\ExternalOutputManager.c **** 
1016:C:/Workspace/FW_Platform2_5/trunk/PlatformLibrary/LIB_IOManager\ExternalOutputManager.c **** }
1017:C:/Workspace/FW_Platform2_5/trunk/PlatformLibrary/LIB_IOManager\ExternalOutputManager.c **** 
1018:C:/Workspace/FW_Platform2_5/trunk/PlatformLibrary/LIB_IOManager\ExternalOutputManager.c **** 
1019:C:/Workspace/FW_Platform2_5/trunk/PlatformLibrary/LIB_IOManager\ExternalOutputManager.c **** 
1020:C:/Workspace/FW_Platform2_5/trunk/PlatformLibrary/LIB_IOManager\ExternalOutputManager.c **** /* Local Function */
1021:C:/Workspace/FW_Platform2_5/trunk/PlatformLibrary/LIB_IOManager\ExternalOutputManager.c **** static uint8_t LIB_IOM_External_PilotType2CmdBufferSize(uint8_t pilotType)
1022:C:/Workspace/FW_Platform2_5/trunk/PlatformLibrary/LIB_IOManager\ExternalOutputManager.c **** {
1023:C:/Workspace/FW_Platform2_5/trunk/PlatformLibrary/LIB_IOManager\ExternalOutputManager.c **** 	uint8_t cmdsize=0;
1024:C:/Workspace/FW_Platform2_5/trunk/PlatformLibrary/LIB_IOManager\ExternalOutputManager.c **** 	switch(pilotType)
  63                             		.loc 1 1024 0
  64 0031 5B 1E                   		movu.B	r1, r14
  65 0033 71 EE DE                		add	#-34, r14
  66 0036 61 1E                   		cmp	#1, r14
  67                             	.LBE5:
  68                             	.LBE4:
 299:C:/Workspace/FW_Platform2_5/trunk/PlatformLibrary/LIB_IOManager\ExternalOutputManager.c **** 	pilotType = LIB_IOM_GetPilotType(PILOT_TYPE_FIELD(pByte));
  69                             		.loc 1 299 0
  70 0038 CF 1B                   		mov.B	r1, r11
  71                             	.LVL9:
  72                             	.LBB7:
  73                             	.LBB6:
  74                             		.loc 1 1024 0
  75 003a 25 0C                   		bleu	.L11
1025:C:/Workspace/FW_Platform2_5/trunk/PlatformLibrary/LIB_IOManager\ExternalOutputManager.c **** 	{
1026:C:/Workspace/FW_Platform2_5/trunk/PlatformLibrary/LIB_IOManager\ExternalOutputManager.c **** #if defined(CONFIG_EXTERN_MODULE_L_SUPPORT)
1027:C:/Workspace/FW_Platform2_5/trunk/PlatformLibrary/LIB_IOManager\ExternalOutputManager.c **** 		case EXTERN_MODULE_L:
1028:C:/Workspace/FW_Platform2_5/trunk/PlatformLibrary/LIB_IOManager\ExternalOutputManager.c **** 			cmdsize = EXTERN_MODULE_L_CMD_SZ;
1029:C:/Workspace/FW_Platform2_5/trunk/PlatformLibrary/LIB_IOManager\ExternalOutputManager.c **** 			break;
1030:C:/Workspace/FW_Platform2_5/trunk/PlatformLibrary/LIB_IOManager\ExternalOutputManager.c **** #endif /* defined(CONFIG_EXTERN_MODULE_L_SUPPORT) */
1031:C:/Workspace/FW_Platform2_5/trunk/PlatformLibrary/LIB_IOManager\ExternalOutputManager.c **** #if defined(CONFIG_PMSM_MOTOR_L_SUPPORT)
1032:C:/Workspace/FW_Platform2_5/trunk/PlatformLibrary/LIB_IOManager\ExternalOutputManager.c **** 		case PMSM_MOTOR_L:
1033:C:/Workspace/FW_Platform2_5/trunk/PlatformLibrary/LIB_IOManager\ExternalOutputManager.c **** 			cmdsize = PMSM_MOTOR_L_CMD_SZ;
1034:C:/Workspace/FW_Platform2_5/trunk/PlatformLibrary/LIB_IOManager\ExternalOutputManager.c **** 			break;
1035:C:/Workspace/FW_Platform2_5/trunk/PlatformLibrary/LIB_IOManager\ExternalOutputManager.c **** #endif /* defined(CONFIG_PMSM_MOTOR_L_SUPPORT) */
1036:C:/Workspace/FW_Platform2_5/trunk/PlatformLibrary/LIB_IOManager\ExternalOutputManager.c **** #if defined(CONFIG_BLDC_WASH_L_SUPPORT)
1037:C:/Workspace/FW_Platform2_5/trunk/PlatformLibrary/LIB_IOManager\ExternalOutputManager.c **** 		case BLDC_WASH_L:
1038:C:/Workspace/FW_Platform2_5/trunk/PlatformLibrary/LIB_IOManager\ExternalOutputManager.c **** 			cmdsize = BLDC_WASH_L_CMD_SZ;
1039:C:/Workspace/FW_Platform2_5/trunk/PlatformLibrary/LIB_IOManager\ExternalOutputManager.c **** 			break;
1040:C:/Workspace/FW_Platform2_5/trunk/PlatformLibrary/LIB_IOManager\ExternalOutputManager.c **** #endif /* defined(CONFIG_BLDC_WASH_L_SUPPORT)*/
1041:C:/Workspace/FW_Platform2_5/trunk/PlatformLibrary/LIB_IOManager\ExternalOutputManager.c **** #if defined(CONFIG_BLDC_DRAIN_L_SUPPORT)
1042:C:/Workspace/FW_Platform2_5/trunk/PlatformLibrary/LIB_IOManager\ExternalOutputManager.c **** 		case BLDC_DRAIN_L:
1043:C:/Workspace/FW_Platform2_5/trunk/PlatformLibrary/LIB_IOManager\ExternalOutputManager.c **** 			cmdsize = BLDC_DRAIN_L_CMD_SZ;
1044:C:/Workspace/FW_Platform2_5/trunk/PlatformLibrary/LIB_IOManager\ExternalOutputManager.c **** 			break;
1045:C:/Workspace/FW_Platform2_5/trunk/PlatformLibrary/LIB_IOManager\ExternalOutputManager.c **** #endif /* defined(CONFIG_BLDC_DRAIN_L_SUPPORT)*/
1046:C:/Workspace/FW_Platform2_5/trunk/PlatformLibrary/LIB_IOManager\ExternalOutputManager.c **** #if defined(CONFIG_PMSM_DRYER_L_SUPPORT)			
1047:C:/Workspace/FW_Platform2_5/trunk/PlatformLibrary/LIB_IOManager\ExternalOutputManager.c **** 		case PMSM_DRYER_L:
1048:C:/Workspace/FW_Platform2_5/trunk/PlatformLibrary/LIB_IOManager\ExternalOutputManager.c **** 			cmdsize = PMSM_DRYER_L_CMD_SZ;
1049:C:/Workspace/FW_Platform2_5/trunk/PlatformLibrary/LIB_IOManager\ExternalOutputManager.c **** 			break;
1050:C:/Workspace/FW_Platform2_5/trunk/PlatformLibrary/LIB_IOManager\ExternalOutputManager.c **** #endif /* defined(CONFIG_PMSM_DRYER_L_SUPPORT) */
1051:C:/Workspace/FW_Platform2_5/trunk/PlatformLibrary/LIB_IOManager\ExternalOutputManager.c **** #if defined(CONFIG_MULTIPOWER_COMP_L_SUPPORT)			
1052:C:/Workspace/FW_Platform2_5/trunk/PlatformLibrary/LIB_IOManager\ExternalOutputManager.c **** 	    case MULTIPOWER_COMP_L:
1053:C:/Workspace/FW_Platform2_5/trunk/PlatformLibrary/LIB_IOManager\ExternalOutputManager.c **** 	        cmdsize = MULTIPOWER_COMP_L_CMD_SZ;
1054:C:/Workspace/FW_Platform2_5/trunk/PlatformLibrary/LIB_IOManager\ExternalOutputManager.c **** 	        break;
1055:C:/Workspace/FW_Platform2_5/trunk/PlatformLibrary/LIB_IOManager\ExternalOutputManager.c **** #endif /* defined(CONFIG_MULTIPOWER_COMP_L_SUPPORT) */
1056:C:/Workspace/FW_Platform2_5/trunk/PlatformLibrary/LIB_IOManager\ExternalOutputManager.c **** #if defined(CONFIG_BRUSHLESS_HOOD_L_SUPPORT)			
1057:C:/Workspace/FW_Platform2_5/trunk/PlatformLibrary/LIB_IOManager\ExternalOutputManager.c **** 	    case BRUSHLESS_HOOD_L:
1058:C:/Workspace/FW_Platform2_5/trunk/PlatformLibrary/LIB_IOManager\ExternalOutputManager.c **** 	        cmdsize = BRUSHLESS_HOOD_L_CMD_SZ;
1059:C:/Workspace/FW_Platform2_5/trunk/PlatformLibrary/LIB_IOManager\ExternalOutputManager.c **** 	        break;
1060:C:/Workspace/FW_Platform2_5/trunk/PlatformLibrary/LIB_IOManager\ExternalOutputManager.c **** #endif /* defined(CONFIG_BRUSHLESS_HOOD_L_SUPPORT) */
1061:C:/Workspace/FW_Platform2_5/trunk/PlatformLibrary/LIB_IOManager\ExternalOutputManager.c **** #if defined(CONFIG_AIRSENSOR_HOOD_L_SUPPORT)			
1062:C:/Workspace/FW_Platform2_5/trunk/PlatformLibrary/LIB_IOManager\ExternalOutputManager.c **** 	    case AIRSENSOR_HOOD_L:
1063:C:/Workspace/FW_Platform2_5/trunk/PlatformLibrary/LIB_IOManager\ExternalOutputManager.c **** 	        cmdsize = AIRSENSOR_HOOD_L_CMD_SZ;
1064:C:/Workspace/FW_Platform2_5/trunk/PlatformLibrary/LIB_IOManager\ExternalOutputManager.c **** 	        break;
1065:C:/Workspace/FW_Platform2_5/trunk/PlatformLibrary/LIB_IOManager\ExternalOutputManager.c **** #endif /* defined(AIRSENSOR_HOOD_L_SUPPORT) */
1066:C:/Workspace/FW_Platform2_5/trunk/PlatformLibrary/LIB_IOManager\ExternalOutputManager.c **** 		default:
1067:C:/Workspace/FW_Platform2_5/trunk/PlatformLibrary/LIB_IOManager\ExternalOutputManager.c **** 		PLT_ERROR_WARNING(PLT_ERROR_IOM_EXT_OUTMNG_INVALID_PILOTTYPE_ERR);
  76                             		.loc 1 1067 0
  77 003c 66 91                   		mov.L	#9, r1
  78                             	.LVL10:
  79 003e 05 00 00 00             		bsr	_LIB_Error_Warning_Handler
  80                             	.LVL11:
1023:C:/Workspace/FW_Platform2_5/trunk/PlatformLibrary/LIB_IOManager\ExternalOutputManager.c **** 	uint8_t cmdsize=0;
  81                             		.loc 1 1023 0
  82 0042 66 03                   		mov	#0, r3
  83 0044 2E 04                   		bra	.L6
  84                             	.LVL12:
  85                             	.L11:
1038:C:/Workspace/FW_Platform2_5/trunk/PlatformLibrary/LIB_IOManager\ExternalOutputManager.c **** 			cmdsize = BLDC_WASH_L_CMD_SZ;
  86                             		.loc 1 1038 0
  87 0046 66 63                   		mov	#6, r3
  88                             	.LVL13:
  89                             		.balign 2,3,5
  90                             	.L6:
  91                             	.LBE6:
  92                             	.LBE7:
 336:C:/Workspace/FW_Platform2_5/trunk/PlatformLibrary/LIB_IOManager\ExternalOutputManager.c **** 	szCmdBuffer=IOM_External_CommandBufferCntTable[uart];
  93                             		.loc 1 336 0
  94 0048 FB E2 00 00 00 00       		mov.L	#_IOM_External_CommandBufferCntTable, r14
  95 004e CC EE                   		mov.B	[r14], r14
  96                             	.LVL14:
 337:C:/Workspace/FW_Platform2_5/trunk/PlatformLibrary/LIB_IOManager\ExternalOutputManager.c **** 	if(!szCmdBuffer)
  97                             		.loc 1 337 0
  98 0050 5B E4                   		movu.B	r14, r4
  99 0052 61 04                   		cmp	#0, r4
 100 0054 21 04                   		bne	.L7
 339:C:/Workspace/FW_Platform2_5/trunk/PlatformLibrary/LIB_IOManager\ExternalOutputManager.c **** 		szCmdBuffer++; /*byte reserved for Seq ID */
 101                             		.loc 1 339 0
 102 0056 66 1E                   		mov	#1, r14
 103                             	.LVL15:
 104                             		.balign 2,3,1
 105                             	.L7:
 342:C:/Workspace/FW_Platform2_5/trunk/PlatformLibrary/LIB_IOManager\ExternalOutputManager.c **** 	if((szCmdBuffer + szCmd + EXTERNAL_COMMAND_BUFFER_HDR_SZ) > IOM_External_CommandBufferTable[uart].
 106                             		.loc 1 342 0
 107 0058 5B E2                   		movu.B	r14, r2
 108 005a 5B 34                   		movu.B	r3, r4
 109 005c 4B 24                   		add	r2, r4
 110 005e 75 54 1A                		cmp	#26, r4
 111 0061 2B 0B                   		ble	.L8
 344:C:/Workspace/FW_Platform2_5/trunk/PlatformLibrary/LIB_IOManager\ExternalOutputManager.c **** 		PLT_ERROR_WARNING(PLT_ERROR_IOM_EXT_OUTMNG_TOOMANY_BYTES_CMDBUFFER_ERR);
 112                             		.loc 1 344 0
 113 0063 75 41 10                		mov.L	#16, r1
 114                             	.LVL16:
 115                             		.balign 2,3,3
 116                             	.L13:
 117 0066 05 00 00 00             		bsr	_LIB_Error_Warning_Handler
 118                             	.LVL17:
 119 006a 2E 3D                   		bra	.L9
 120                             	.LVL18:
 121                             	.L8:
 349:C:/Workspace/FW_Platform2_5/trunk/PlatformLibrary/LIB_IOManager\ExternalOutputManager.c **** 	IOM_External_LoadsTable[ExternalBoardCounter].pPilotTypeInfo	= pInfoBuffer;
 122                             		.loc 1 349 0
 123 006c FB 22 00 00 00 00       		mov.L	#_ExternalBoardCounter, r2
 124 0072 CC 2F                   		mov.B	[r2], r15
 368:C:/Workspace/FW_Platform2_5/trunk/PlatformLibrary/LIB_IOManager\ExternalOutputManager.c **** 	return LIB_IOM_NO_ERROR;
 125                             		.loc 1 368 0
 126 0074 66 01                   		mov.L	#0, r1
 349:C:/Workspace/FW_Platform2_5/trunk/PlatformLibrary/LIB_IOManager\ExternalOutputManager.c **** 	IOM_External_LoadsTable[ExternalBoardCounter].pPilotTypeInfo	= pInfoBuffer;
 127                             		.loc 1 349 0
 128 0076 5B F5                   		movu.B	r15, r5
 129 0078 63 C5                   		mul	#12, r5
 130 007a 70 55 00 00 00 00       		add	#_IOM_External_LoadsTable, r5
 131 0080 EF 54                   		mov.L	r5, r4
 132 0082 FD 22 4A                		mov.L	r10, [r4+]
 353:C:/Workspace/FW_Platform2_5/trunk/PlatformLibrary/LIB_IOManager\ExternalOutputManager.c **** 	IOM_External_LoadsTable[ExternalBoardCounter].szCmd = szCmd;
 133                             		.loc 1 353 0
 134 0085 80 CB                   		mov.B	r3, 3[r4]
 361:C:/Workspace/FW_Platform2_5/trunk/PlatformLibrary/LIB_IOManager\ExternalOutputManager.c **** 	szCmdBuffer += (szCmd+EXTERNAL_COMMAND_BUFFER_HDR_SZ);
 135                             		.loc 1 361 0
 136 0087 62 23                   		add	#2, r3
 137                             	.LVL19:
 350:C:/Workspace/FW_Platform2_5/trunk/PlatformLibrary/LIB_IOManager\ExternalOutputManager.c **** 	IOM_External_LoadsTable[ExternalBoardCounter].szPilotTypeInfo = szInfoBuffer;
 138                             		.loc 1 350 0
 139 0089 81 57                   		mov.B	r7, 4[r5]
 352:C:/Workspace/FW_Platform2_5/trunk/PlatformLibrary/LIB_IOManager\ExternalOutputManager.c **** 	IOM_External_LoadsTable[ExternalBoardCounter].CmdOffset = szCmdBuffer;
 140                             		.loc 1 352 0
 141 008b C7 4E 02                		mov.B	r14, 2[r4]
 357:C:/Workspace/FW_Platform2_5/trunk/PlatformLibrary/LIB_IOManager\ExternalOutputManager.c **** 	IOM_External_LoadsTable[ExternalBoardCounter].Displacement = ExternalBoardCounter;
 142                             		.loc 1 357 0
 143 008e C7 5F 08                		mov.B	r15, 8[r5]
 361:C:/Workspace/FW_Platform2_5/trunk/PlatformLibrary/LIB_IOManager\ExternalOutputManager.c **** 	szCmdBuffer += (szCmd+EXTERNAL_COMMAND_BUFFER_HDR_SZ);
 144                             		.loc 1 361 0
 145 0091 4B 3E                   		add	r3, r14
 146                             	.LVL20:
 362:C:/Workspace/FW_Platform2_5/trunk/PlatformLibrary/LIB_IOManager\ExternalOutputManager.c **** 	IOM_External_CommandBufferCntTable[uart] = szCmdBuffer;
 147                             		.loc 1 362 0
 148 0093 FB 72 00 00 00 00       		mov.L	#_IOM_External_CommandBufferCntTable, r7
 149                             	.LVL21:
 365:C:/Workspace/FW_Platform2_5/trunk/PlatformLibrary/LIB_IOManager\ExternalOutputManager.c **** 	ExternalBoardCounter++;
 150                             		.loc 1 365 0
 151 0099 62 1F                   		add	#1, r15
 351:C:/Workspace/FW_Platform2_5/trunk/PlatformLibrary/LIB_IOManager\ExternalOutputManager.c **** 	IOM_External_LoadsTable[ExternalBoardCounter].PilotType = pilotType;
 152                             		.loc 1 351 0
 153 009b C7 4B 01                		mov.B	r11, 1[r4]
 359:C:/Workspace/FW_Platform2_5/trunk/PlatformLibrary/LIB_IOManager\ExternalOutputManager.c **** 	IOM_External_LoadsTable[ExternalBoardCounter].CommCh = uart;
 154                             		.loc 1 359 0
 155 009e 3C 59 00                		mov.B	#0, 9[r5]
 156                             	.LVL22:
 362:C:/Workspace/FW_Platform2_5/trunk/PlatformLibrary/LIB_IOManager\ExternalOutputManager.c **** 	IOM_External_CommandBufferCntTable[uart] = szCmdBuffer;
 157                             		.loc 1 362 0
 158 00a1 C3 7E                   		mov.B	r14, [r7]
 365:C:/Workspace/FW_Platform2_5/trunk/PlatformLibrary/LIB_IOManager\ExternalOutputManager.c **** 	ExternalBoardCounter++;
 159                             		.loc 1 365 0
 160 00a3 C3 2F                   		mov.B	r15, [r2]
 161 00a5 2E 05                   		bra	.L4
 162                             	.LVL23:
 163                             	.L9:
 296:C:/Workspace/FW_Platform2_5/trunk/PlatformLibrary/LIB_IOManager\ExternalOutputManager.c **** 	    return LIB_IOM_EXTERNAL_SETINFOBUFFER_ERR;
 164                             		.loc 1 296 0
 165 00a7 66 11                   		mov.L	#1, r1
 166 00a9 03                      		.balign 2,3,2
 167                             	.L4:
 369:C:/Workspace/FW_Platform2_5/trunk/PlatformLibrary/LIB_IOManager\ExternalOutputManager.c **** }
 168                             		.loc 1 369 0
 169 00aa 3F 7B 06                		rtsd	#24, r7-r11
 170                             	.LFE1:
 172 00ad 03                      		.section	.text.LIB_IOM_External_SetCommand,"ax",@progbits
 173                             		.global	_LIB_IOM_External_SetCommand
 175                             	_LIB_IOM_External_SetCommand:
 176                             	.LFB2:
 399:C:/Workspace/FW_Platform2_5/trunk/PlatformLibrary/LIB_IOManager\ExternalOutputManager.c **** {
 177                             		.loc 1 399 0
 178                             	.LVL24:
 179 0000 6E 7D                   		pushm	r7-r13
 180                             	.LCFI2:
 407:C:/Workspace/FW_Platform2_5/trunk/PlatformLibrary/LIB_IOManager\ExternalOutputManager.c **** 		if(pilotType ==  IOM_External_LoadsTable[i].PilotType)
 181                             		.loc 1 407 0
 182 0002 FB A2 00 00 00 00       		mov.L	#_IOM_External_LoadsTable, r10
 183 0008 5B 17                   		movu.B	r1, r7
 184 000a 45 A7 05                		cmp	5[r10].UB, r7
 399:C:/Workspace/FW_Platform2_5/trunk/PlatformLibrary/LIB_IOManager\ExternalOutputManager.c **** {
 185                             		.loc 1 399 0
 186 000d CF 1C                   		mov.B	r1, r12
 187 000f EF 2D                   		mov.L	r2, r13
 407:C:/Workspace/FW_Platform2_5/trunk/PlatformLibrary/LIB_IOManager\ExternalOutputManager.c **** 		if(pilotType ==  IOM_External_LoadsTable[i].PilotType)
 188                             		.loc 1 407 0
 189 0011 20 09                   		beq	.L18
 190                             	.LVL25:
 191 0013 45 A7 11                		cmp	17[r10].UB, r7
 192 0016 21 48                   		bne	.L20
 193 0018 2E 06                   		bra	.L19
 194                             	.LVL26:
 195                             	.L18:
 400:C:/Workspace/FW_Platform2_5/trunk/PlatformLibrary/LIB_IOManager\ExternalOutputManager.c **** 	uint8_t i=0;
 196                             		.loc 1 400 0
 197 001a 66 0A                   		mov	#0, r10
 198 001c 2E 04                   		bra	.L15
 199                             	.LVL27:
 200                             	.L19:
 411:C:/Workspace/FW_Platform2_5/trunk/PlatformLibrary/LIB_IOManager\ExternalOutputManager.c **** 		i++;
 201                             		.loc 1 411 0
 202 001e 66 1A                   		mov	#1, r10
 203                             	.LVL28:
 204                             		.balign 2,3,1
 205                             	.L15:
 420:C:/Workspace/FW_Platform2_5/trunk/PlatformLibrary/LIB_IOManager\ExternalOutputManager.c **** 	uart = IOM_External_LoadsTable[i].CommCh;
 206                             		.loc 1 420 0
 207 0020 5B AA                   		movu.B	r10, r10
 208                             	.LVL29:
 209 0022 63 CA                   		mul	#12, r10
 210                             	.LVL30:
 211 0024 70 AA 00 00 00 00       		add	#_IOM_External_LoadsTable, r10
 422:C:/Workspace/FW_Platform2_5/trunk/PlatformLibrary/LIB_IOManager\ExternalOutputManager.c **** 	pCmd = IOM_External_CommandBufferTable[uart].pCmdBuffer + offset;
 212                             		.loc 1 422 0
 213 002a 59 A7 09                		movu.B	9[r10], r7
 214 002d 59 AE 06                		movu.B	6[r10], r14
 215 0030 63 C7                   		mul	#12, r7
 216 0032 70 77 00 00 00 00       		add	#_IOM_External_CommandBufferTable, r7
 217 0038 EC 77                   		mov.L	[r7], r7
 421:C:/Workspace/FW_Platform2_5/trunk/PlatformLibrary/LIB_IOManager\ExternalOutputManager.c **** 	offset = IOM_External_LoadsTable[i].CmdOffset;
 218                             		.loc 1 421 0
 219 003a 71 AB 04                		add	#4, r10, r11
 422:C:/Workspace/FW_Platform2_5/trunk/PlatformLibrary/LIB_IOManager\ExternalOutputManager.c **** 	pCmd = IOM_External_CommandBufferTable[uart].pCmdBuffer + offset;
 220                             		.loc 1 422 0
 221 003d 4B E7                   		add	r14, r7
 222                             	.LVL31:
 423:C:/Workspace/FW_Platform2_5/trunk/PlatformLibrary/LIB_IOManager\ExternalOutputManager.c **** 	UseExternalBoard();
 223                             		.loc 1 423 0
 224 003f 05 00 00 00             		bsr	_UseExternalBoard
 225                             	.LVL32:
 424:C:/Workspace/FW_Platform2_5/trunk/PlatformLibrary/LIB_IOManager\ExternalOutputManager.c **** 	*pCmd = pilotType;
 226                             		.loc 1 424 0
 227 0043 C3 7C                   		mov.B	r12, [r7]
 425:C:/Workspace/FW_Platform2_5/trunk/PlatformLibrary/LIB_IOManager\ExternalOutputManager.c **** 	*(pCmd+1) = IOM_External_LoadsTable[i].Displacement;	
 228                             		.loc 1 425 0
 229 0045 CD AA 08                		mov.B	8[r10], r10
 426:C:/Workspace/FW_Platform2_5/trunk/PlatformLibrary/LIB_IOManager\ExternalOutputManager.c **** 	memcpy((pCmd+2), &pLoad->data[0], IOM_External_LoadsTable[i].szCmd);
 230                             		.loc 1 426 0
 231 0048 71 71 02                		add	#2, r7, r1
 425:C:/Workspace/FW_Platform2_5/trunk/PlatformLibrary/LIB_IOManager\ExternalOutputManager.c **** 	*(pCmd+1) = IOM_External_LoadsTable[i].Displacement;	
 232                             		.loc 1 425 0
 233 004b C7 7A 01                		mov.B	r10, 1[r7]
 426:C:/Workspace/FW_Platform2_5/trunk/PlatformLibrary/LIB_IOManager\ExternalOutputManager.c **** 	memcpy((pCmd+2), &pLoad->data[0], IOM_External_LoadsTable[i].szCmd);
 234                             		.loc 1 426 0
 235 004e 59 B3 03                		movu.B	3[r11], r3
 236 0051 71 D2 02                		add	#2, r13, r2
 237 0054 7F 8F                   		smovf
 427:C:/Workspace/FW_Platform2_5/trunk/PlatformLibrary/LIB_IOManager\ExternalOutputManager.c **** 	UnuseExternalBoard();
 238                             		.loc 1 427 0
 239 0056 05 00 00 00             		bsr	_UnuseExternalBoard
 240                             	.LVL33:
 429:C:/Workspace/FW_Platform2_5/trunk/PlatformLibrary/LIB_IOManager\ExternalOutputManager.c **** 	return LIB_IOM_NO_ERROR;
 241                             		.loc 1 429 0
 242 005a 66 01                   		mov.L	#0, r1
 243 005c 2E 0A                   		bra	.L21
 244                             	.LVL34:
 245                             	.L20:
 416:C:/Workspace/FW_Platform2_5/trunk/PlatformLibrary/LIB_IOManager\ExternalOutputManager.c **** 		PLT_ERROR_WARNING(PLT_ERROR_IOM_EXT_OUTMNG_MAX_NUM_EXTERNAL_LOADS_REACHED_ERR);
 246                             		.loc 1 416 0
 247 005e 66 A1                   		mov.L	#10, r1
 248                             	.LVL35:
 249 0060 05 00 00 00             		bsr	_LIB_Error_Warning_Handler
 250                             	.LVL36:
 417:C:/Workspace/FW_Platform2_5/trunk/PlatformLibrary/LIB_IOManager\ExternalOutputManager.c ****     	return LIB_IOM_EXTERNAL_SETCOMMAND_ERR;  /* Serious Error */
 251                             		.loc 1 417 0
 252 0064 66 31                   		mov.L	#3, r1
 253                             	.LVL37:
 254                             		.balign 2,3,2
 255                             	.L21:
 430:C:/Workspace/FW_Platform2_5/trunk/PlatformLibrary/LIB_IOManager\ExternalOutputManager.c **** }
 256                             		.loc 1 430 0
 257 0066 3F 7D 07                		rtsd	#28, r7-r13
 258                             	.LFE2:
 260 0069 03                      		.section	.text.LIB_IOM_External_SetReadRamRequest,"ax",@progbits
 261                             		.global	_LIB_IOM_External_SetReadRamRequest
 263                             	_LIB_IOM_External_SetReadRamRequest:
 264                             	.LFB3:
 454:C:/Workspace/FW_Platform2_5/trunk/PlatformLibrary/LIB_IOManager\ExternalOutputManager.c **** {
 265                             		.loc 1 454 0
 266                             	.LVL38:
 458:C:/Workspace/FW_Platform2_5/trunk/PlatformLibrary/LIB_IOManager\ExternalOutputManager.c **** 	if(len < 5)
 267                             		.loc 1 458 0
 268 0000 5B 22                   		movu.B	r2, r2
 454:C:/Workspace/FW_Platform2_5/trunk/PlatformLibrary/LIB_IOManager\ExternalOutputManager.c **** {
 269                             		.loc 1 454 0
 270 0002 6E 7C                   		pushm	r7-r12
 271                             	.LCFI3:
 458:C:/Workspace/FW_Platform2_5/trunk/PlatformLibrary/LIB_IOManager\ExternalOutputManager.c **** 	if(len < 5)
 272                             		.loc 1 458 0
 273 0004 61 42                   		cmp	#4, r2
 274 0006 24 07                   		bgtu	.L24
 460:C:/Workspace/FW_Platform2_5/trunk/PlatformLibrary/LIB_IOManager\ExternalOutputManager.c **** 		PLT_ERROR_WARNING(PLT_ERROR_IOM_EXT_OUTMNG_MISSINGDATA_SETREADRAM_ERR);
 275                             		.loc 1 460 0
 276 0008 75 41 11                		mov.L	#17, r1
 277                             	.LVL39:
 278 000b 2E 55                   		bra	.L29
 279                             	.LVL40:
 280                             	.L24:
 464:C:/Workspace/FW_Platform2_5/trunk/PlatformLibrary/LIB_IOManager\ExternalOutputManager.c **** 	uart = (uint8_t)(*(pDataRamReq+4) & 0x0F);
 281                             		.loc 1 464 0
 282 000d CD 1B 04                		mov.B	4[r1], r11
 283 0010 EF 17                   		mov.L	r1, r7
 284                             	.LVL41:
 285 0012 64 FB                   		and	#15, r11
 466:C:/Workspace/FW_Platform2_5/trunk/PlatformLibrary/LIB_IOManager\ExternalOutputManager.c **** 	if(uart >= EXTERNAL_NUM)
 286                             		.loc 1 466 0
 287 0014 EF BA                   		mov.L	r11, r10
 288 0016 20 06                   		beq	.L26
 289                             	.LVL42:
 468:C:/Workspace/FW_Platform2_5/trunk/PlatformLibrary/LIB_IOManager\ExternalOutputManager.c **** 		PLT_ERROR_WARNING(PLT_ERROR_IOM_EXT_OUTMNG_MAX_CHANNEL_NUM_REACHED_ERR);
 290                             		.loc 1 468 0
 291 0018 66 F1                   		mov.L	#15, r1
 292                             	.LVL43:
 293 001a 2E 46                   		bra	.L29
 294                             	.LVL44:
 295                             	.L26:
 472:C:/Workspace/FW_Platform2_5/trunk/PlatformLibrary/LIB_IOManager\ExternalOutputManager.c **** 	pCmd = IOM_External_CommandBufferTable[uart].pCmdBuffer + IOM_External_CommandBufferCntTable[uart]
 296                             		.loc 1 472 0
 297 001c FB C2 00 00 00 00       		mov.L	#_IOM_External_CommandBufferCntTable, r12
 298 0022 58 CC                   		movu.B	[r12], r12
 299                             	.LVL45:
 474:C:/Workspace/FW_Platform2_5/trunk/PlatformLibrary/LIB_IOManager\ExternalOutputManager.c **** 	if((IOM_External_CommandBufferTable[uart].pCmdBuffer + IOM_External_CommandBufferTable[uart].szCmd
 300                             		.loc 1 474 0
 301 0024 70 CE 00 00 00 00       		add	#_IOM_CommandBufferExternal_0+4, r12, r14
 472:C:/Workspace/FW_Platform2_5/trunk/PlatformLibrary/LIB_IOManager\ExternalOutputManager.c **** 	pCmd = IOM_External_CommandBufferTable[uart].pCmdBuffer + IOM_External_CommandBufferCntTable[uart]
 302                             		.loc 1 472 0
 303 002a 70 CC 00 00 00 00       		add	#_IOM_CommandBufferExternal_0, r12
 304                             	.LVL46:
 474:C:/Workspace/FW_Platform2_5/trunk/PlatformLibrary/LIB_IOManager\ExternalOutputManager.c **** 	if((IOM_External_CommandBufferTable[uart].pCmdBuffer + IOM_External_CommandBufferTable[uart].szCmd
 305                             		.loc 1 474 0
 306 0030 74 0E 00 00 00 00       		cmp	#_IOM_CommandBufferExternal_0+27, r14
 307 0036 24 26                   		bgtu	.L27
 476:C:/Workspace/FW_Platform2_5/trunk/PlatformLibrary/LIB_IOManager\ExternalOutputManager.c **** 		UseExternalBoard();
 308                             		.loc 1 476 0
 309 0038 05 00 00 00             		bsr	_UseExternalBoard
 310                             	.LVL47:
 477:C:/Workspace/FW_Platform2_5/trunk/PlatformLibrary/LIB_IOManager\ExternalOutputManager.c **** 		*pCmd = 0; /* PilotType Reserved for read ram */
 311                             		.loc 1 477 0
 312 003c EF CE                   		mov.L	r12, r14
 313 003e FD 20 EB                		mov.B	r11, [r14+]
 479:C:/Workspace/FW_Platform2_5/trunk/PlatformLibrary/LIB_IOManager\ExternalOutputManager.c **** 		(void)memcpy((uint8_t*)(pCmd+1), pDataRamReq, IOM_EXT_CMDDATA_RAM_READ_SZ);
 314                             		.loc 1 479 0
 315 0041 EC 7B                   		mov.L	[r7], r11
 316 0043 E3 EB                   		mov.L	r11, [r14]
 480:C:/Workspace/FW_Platform2_5/trunk/PlatformLibrary/LIB_IOManager\ExternalOutputManager.c **** 		UnuseExternalBoard();
 317                             		.loc 1 480 0
 318 0045 05 00 00 00             		bsr	_UnuseExternalBoard
 319                             	.LVL48:
 482:C:/Workspace/FW_Platform2_5/trunk/PlatformLibrary/LIB_IOManager\ExternalOutputManager.c **** 		ExternalSeqId[uart].NewReq= (uint8_t)(*(pDataRamReq+IOM_EXT_CMDDATA_RAM_READ_SZ) & 0xF0);
 320                             		.loc 1 482 0
 321 0049 CD 7B 04                		mov.B	4[r7], r11
 322 004c FB 72 00 00 00 00       		mov.L	#_ExternalSeqId, r7
 323                             	.LVL49:
 324 0052 75 2B F0                		and	#-16, r11
 325 0055 C7 7B 02                		mov.B	r11, 2[r7]
 489:C:/Workspace/FW_Platform2_5/trunk/PlatformLibrary/LIB_IOManager\ExternalOutputManager.c **** 	return LIB_IOM_NO_ERROR;
 326                             		.loc 1 489 0
 327 0058 EF A1                   		mov.L	r10, r1
 328 005a 2E 0C                   		bra	.L25
 329                             	.LVL50:
 330                             	.L27:
 486:C:/Workspace/FW_Platform2_5/trunk/PlatformLibrary/LIB_IOManager\ExternalOutputManager.c **** 		PLT_ERROR_WARNING(PLT_ERROR_IOM_EXT_OUTMNG_TOOMANY_BYTES_CMDBUFFER_ERR);
 331                             		.loc 1 486 0
 332 005c 75 41 10                		mov.L	#16, r1
 333                             	.LVL51:
 334 005f 03                      		.balign 2,3,3
 335                             	.L29:
 336 0060 05 00 00 00             		bsr	_LIB_Error_Warning_Handler
 337                             	.LVL52:
 487:C:/Workspace/FW_Platform2_5/trunk/PlatformLibrary/LIB_IOManager\ExternalOutputManager.c ****         return LIB_IOM_EXTERNAL_SETREADRAMREQ_ERR;  /* Serious Error */
 338                             		.loc 1 487 0
 339 0064 66 41                   		mov.L	#4, r1
 340                             		.balign 2,3,2
 341                             	.L25:
 490:C:/Workspace/FW_Platform2_5/trunk/PlatformLibrary/LIB_IOManager\ExternalOutputManager.c **** }
 342                             		.loc 1 490 0
 343 0066 3F 7C 06                		rtsd	#24, r7-r12
 344                             	.LFE3:
 346 0069 03                      		.section	.text.LIB_IOM_External_SetWriteRamRequest,"ax",@progbits
 347                             		.global	_LIB_IOM_External_SetWriteRamRequest
 349                             	_LIB_IOM_External_SetWriteRamRequest:
 350                             	.LFB4:
 514:C:/Workspace/FW_Platform2_5/trunk/PlatformLibrary/LIB_IOManager\ExternalOutputManager.c **** {
 351                             		.loc 1 514 0
 352                             	.LVL53:
 518:C:/Workspace/FW_Platform2_5/trunk/PlatformLibrary/LIB_IOManager\ExternalOutputManager.c **** 	if(len < 5)
 353                             		.loc 1 518 0
 354 0000 5B 22                   		movu.B	r2, r2
 514:C:/Workspace/FW_Platform2_5/trunk/PlatformLibrary/LIB_IOManager\ExternalOutputManager.c **** {
 355                             		.loc 1 514 0
 356 0002 6E 7C                   		pushm	r7-r12
 357                             	.LCFI4:
 518:C:/Workspace/FW_Platform2_5/trunk/PlatformLibrary/LIB_IOManager\ExternalOutputManager.c **** 	if(len < 5)
 358                             		.loc 1 518 0
 359 0004 61 42                   		cmp	#4, r2
 360 0006 24 0D                   		bgtu	.L31
 520:C:/Workspace/FW_Platform2_5/trunk/PlatformLibrary/LIB_IOManager\ExternalOutputManager.c **** 		PLT_ERROR_WARNING(PLT_ERROR_IOM_EXT_OUTMNG_MISSINGDATA_SETREADRAM_ERR);
 361                             		.loc 1 520 0
 362 0008 75 41 11                		mov.L	#17, r1
 363                             	.LVL54:
 364 000b 05 00 00 00             		bsr	_LIB_Error_Warning_Handler
 365                             	.LVL55:
 521:C:/Workspace/FW_Platform2_5/trunk/PlatformLibrary/LIB_IOManager\ExternalOutputManager.c ****         return LIB_IOM_EXTERNAL_SETREADRAMREQ_ERR;  /* Serious Error */
 366                             		.loc 1 521 0
 367 000f 66 41                   		mov.L	#4, r1
 368 0011 2E 59                   		bra	.L32
 369                             	.LVL56:
 370                             	.L31:
 524:C:/Workspace/FW_Platform2_5/trunk/PlatformLibrary/LIB_IOManager\ExternalOutputManager.c **** 	uart = (uint8_t)(*(pDataRamReq+4) & 0x0F);
 371                             		.loc 1 524 0
 372 0013 CD 1C 04                		mov.B	4[r1], r12
 373 0016 EF 17                   		mov.L	r1, r7
 374                             	.LVL57:
 375 0018 64 FC                   		and	#15, r12
 526:C:/Workspace/FW_Platform2_5/trunk/PlatformLibrary/LIB_IOManager\ExternalOutputManager.c **** 	if(uart >= EXTERNAL_NUM)
 376                             		.loc 1 526 0
 377 001a EF CB                   		mov.L	r12, r11
 378 001c 20 06                   		beq	.L33
 379                             	.LVL58:
 528:C:/Workspace/FW_Platform2_5/trunk/PlatformLibrary/LIB_IOManager\ExternalOutputManager.c **** 		PLT_ERROR_WARNING(PLT_ERROR_IOM_EXT_OUTMNG_MAX_CHANNEL_NUM_REACHED_ERR);
 380                             		.loc 1 528 0
 381 001e 66 F1                   		mov.L	#15, r1
 382                             	.LVL59:
 383 0020 2E 44                   		bra	.L36
 384                             	.LVL60:
 385                             	.L33:
 538:C:/Workspace/FW_Platform2_5/trunk/PlatformLibrary/LIB_IOManager\ExternalOutputManager.c **** 	pCmd = IOM_External_CommandBufferTable[uart].pCmdBuffer + IOM_External_CommandBufferCntTable[uart]
 386                             		.loc 1 538 0
 387 0022 FB A2 00 00 00 00       		mov.L	#_IOM_External_CommandBufferCntTable, r10
 388 0028 58 AA                   		movu.B	[r10], r10
 389                             	.LVL61:
 540:C:/Workspace/FW_Platform2_5/trunk/PlatformLibrary/LIB_IOManager\ExternalOutputManager.c **** 	if((IOM_External_CommandBufferTable[uart].pCmdBuffer + IOM_External_CommandBufferTable[uart].szCmd
 390                             		.loc 1 540 0
 391 002a 70 AE 00 00 00 00       		add	#_IOM_CommandBufferExternal_0+4, r10, r14
 538:C:/Workspace/FW_Platform2_5/trunk/PlatformLibrary/LIB_IOManager\ExternalOutputManager.c **** 	pCmd = IOM_External_CommandBufferTable[uart].pCmdBuffer + IOM_External_CommandBufferCntTable[uart]
 392                             		.loc 1 538 0
 393 0030 70 AA 00 00 00 00       		add	#_IOM_CommandBufferExternal_0, r10
 394                             	.LVL62:
 540:C:/Workspace/FW_Platform2_5/trunk/PlatformLibrary/LIB_IOManager\ExternalOutputManager.c **** 	if((IOM_External_CommandBufferTable[uart].pCmdBuffer + IOM_External_CommandBufferTable[uart].szCmd
 395                             		.loc 1 540 0
 396 0036 74 0E 00 00 00 00       		cmp	#_IOM_CommandBufferExternal_0+27, r14
 397 003c 24 25                   		bgtu	.L34
 542:C:/Workspace/FW_Platform2_5/trunk/PlatformLibrary/LIB_IOManager\ExternalOutputManager.c **** 		UseExternalBoard();
 398                             		.loc 1 542 0
 399 003e 05 00 00 00             		bsr	_UseExternalBoard
 400                             	.LVL63:
 543:C:/Workspace/FW_Platform2_5/trunk/PlatformLibrary/LIB_IOManager\ExternalOutputManager.c **** 		*pCmd = 0; /* PilotType Reserved for write ram */
 401                             		.loc 1 543 0
 402 0042 C3 AC                   		mov.B	r12, [r10]
 403                             	.LVL64:
 547:C:/Workspace/FW_Platform2_5/trunk/PlatformLibrary/LIB_IOManager\ExternalOutputManager.c **** 		(void)memcpy((uint8_t*)(pCmd+1), pDataRamReq, IOM_EXT_CMDDATA_RAM_WRITE_SZ);
 404                             		.loc 1 547 0
 405 0044 EC 7C                   		mov.L	[r7], r12
 406 0046 62 5A                   		add	#5, r10
 407                             	.LVL65:
 408 0048 E3 AC                   		mov.L	r12, [r10]
 548:C:/Workspace/FW_Platform2_5/trunk/PlatformLibrary/LIB_IOManager\ExternalOutputManager.c **** 		UnuseExternalBoard();
 409                             		.loc 1 548 0
 410 004a 05 00 00 00             		bsr	_UnuseExternalBoard
 411                             	.LVL66:
 549:C:/Workspace/FW_Platform2_5/trunk/PlatformLibrary/LIB_IOManager\ExternalOutputManager.c **** 		ExternalSeqId[uart].NewReq= (uint8_t)(*(pDataRamReq+IOM_EXT_CMDDATA_RAM_WRITE_SZ) & 0xF0);
 412                             		.loc 1 549 0
 413 004e CD 7A 04                		mov.B	4[r7], r10
 414                             	.LVL67:
 415 0051 FB 72 00 00 00 00       		mov.L	#_ExternalSeqId, r7
 416                             	.LVL68:
 417 0057 75 2A F0                		and	#-16, r10
 418 005a C7 7A 02                		mov.B	r10, 2[r7]
 556:C:/Workspace/FW_Platform2_5/trunk/PlatformLibrary/LIB_IOManager\ExternalOutputManager.c **** 	return LIB_IOM_NO_ERROR;
 419                             		.loc 1 556 0
 420 005d EF B1                   		mov.L	r11, r1
 421 005f 2E 0B                   		bra	.L32
 422                             	.LVL69:
 423                             	.L34:
 553:C:/Workspace/FW_Platform2_5/trunk/PlatformLibrary/LIB_IOManager\ExternalOutputManager.c **** 		PLT_ERROR_WARNING(PLT_ERROR_IOM_EXT_OUTMNG_TOOMANY_BYTES_CMDBUFFER_ERR);
 424                             		.loc 1 553 0
 425 0061 75 41 10                		mov.L	#16, r1
 426                             	.LVL70:
 427                             		.balign 2,3,3
 428                             	.L36:
 429 0064 05 00 00 00             		bsr	_LIB_Error_Warning_Handler
 430                             	.LVL71:
 554:C:/Workspace/FW_Platform2_5/trunk/PlatformLibrary/LIB_IOManager\ExternalOutputManager.c ****         return LIB_IOM_EXTERNAL_SETWRITERAMREQ_ERR;  /* Serious Error */
 431                             		.loc 1 554 0
 432 0068 66 51                   		mov.L	#5, r1
 433                             	.LVL72:
 434                             		.balign 2,3,2
 435                             	.L32:
 557:C:/Workspace/FW_Platform2_5/trunk/PlatformLibrary/LIB_IOManager\ExternalOutputManager.c **** }
 436                             		.loc 1 557 0
 437 006a 3F 7C 06                		rtsd	#24, r7-r12
 438                             	.LFE4:
 440 006d 03                      		.section	.text.LIB_IOM_External_SetExtraRequest,"ax",@progbits
 441                             		.global	_LIB_IOM_External_SetExtraRequest
 443                             	_LIB_IOM_External_SetExtraRequest:
 444                             	.LFB5:
 580:C:/Workspace/FW_Platform2_5/trunk/PlatformLibrary/LIB_IOManager\ExternalOutputManager.c **** {
 445                             		.loc 1 580 0
 446                             	.LVL73:
 584:C:/Workspace/FW_Platform2_5/trunk/PlatformLibrary/LIB_IOManager\ExternalOutputManager.c **** 	if(len < 3)
 447                             		.loc 1 584 0
 448 0000 5B 22                   		movu.B	r2, r2
 580:C:/Workspace/FW_Platform2_5/trunk/PlatformLibrary/LIB_IOManager\ExternalOutputManager.c **** {
 449                             		.loc 1 580 0
 450 0002 6E 7C                   		pushm	r7-r12
 451                             	.LCFI5:
 584:C:/Workspace/FW_Platform2_5/trunk/PlatformLibrary/LIB_IOManager\ExternalOutputManager.c **** 	if(len < 3)
 452                             		.loc 1 584 0
 453 0004 61 22                   		cmp	#2, r2
 454 0006 24 07                   		bgtu	.L38
 586:C:/Workspace/FW_Platform2_5/trunk/PlatformLibrary/LIB_IOManager\ExternalOutputManager.c **** 		PLT_ERROR_WARNING(PLT_ERROR_IOM_EXT_OUTMNG_MISSINGDATA_SETREADRAM_ERR);
 455                             		.loc 1 586 0
 456 0008 75 41 11                		mov.L	#17, r1
 457                             	.LVL74:
 458 000b 2E 53                   		bra	.L43
 459                             	.LVL75:
 460                             	.L38:
 590:C:/Workspace/FW_Platform2_5/trunk/PlatformLibrary/LIB_IOManager\ExternalOutputManager.c **** 	uart = (uint8_t)(*(pDataExtraReq+2) & 0x0F);
 461                             		.loc 1 590 0
 462 000d CD 1C 02                		mov.B	2[r1], r12
 463 0010 EF 17                   		mov.L	r1, r7
 464                             	.LVL76:
 465 0012 64 FC                   		and	#15, r12
 592:C:/Workspace/FW_Platform2_5/trunk/PlatformLibrary/LIB_IOManager\ExternalOutputManager.c **** 	if(uart >= EXTERNAL_NUM)
 466                             		.loc 1 592 0
 467 0014 EF CB                   		mov.L	r12, r11
 468 0016 20 06                   		beq	.L40
 469                             	.LVL77:
 594:C:/Workspace/FW_Platform2_5/trunk/PlatformLibrary/LIB_IOManager\ExternalOutputManager.c **** 		PLT_ERROR_WARNING(PLT_ERROR_IOM_EXT_OUTMNG_MAX_CHANNEL_NUM_REACHED_ERR);
 470                             		.loc 1 594 0
 471 0018 66 F1                   		mov.L	#15, r1
 472                             	.LVL78:
 473 001a 2E 44                   		bra	.L43
 474                             	.LVL79:
 475                             	.L40:
 598:C:/Workspace/FW_Platform2_5/trunk/PlatformLibrary/LIB_IOManager\ExternalOutputManager.c **** 	pCmd = IOM_External_CommandBufferTable[uart].pCmdBuffer + IOM_External_CommandBufferCntTable[uart]
 476                             		.loc 1 598 0
 477 001c FB A2 00 00 00 00       		mov.L	#_IOM_External_CommandBufferCntTable, r10
 478 0022 58 AA                   		movu.B	[r10], r10
 479                             	.LVL80:
 601:C:/Workspace/FW_Platform2_5/trunk/PlatformLibrary/LIB_IOManager\ExternalOutputManager.c **** 	if((IOM_External_CommandBufferTable[uart].pCmdBuffer + IOM_External_CommandBufferTable[uart].szCmd
 480                             		.loc 1 601 0
 481 0024 70 AE 00 00 00 00       		add	#_IOM_CommandBufferExternal_0+2, r10, r14
 598:C:/Workspace/FW_Platform2_5/trunk/PlatformLibrary/LIB_IOManager\ExternalOutputManager.c **** 	pCmd = IOM_External_CommandBufferTable[uart].pCmdBuffer + IOM_External_CommandBufferCntTable[uart]
 482                             		.loc 1 598 0
 483 002a 70 AA 00 00 00 00       		add	#_IOM_CommandBufferExternal_0, r10
 484                             	.LVL81:
 601:C:/Workspace/FW_Platform2_5/trunk/PlatformLibrary/LIB_IOManager\ExternalOutputManager.c **** 	if((IOM_External_CommandBufferTable[uart].pCmdBuffer + IOM_External_CommandBufferTable[uart].szCmd
 485                             		.loc 1 601 0
 486 0030 74 0E 00 00 00 00       		cmp	#_IOM_CommandBufferExternal_0+27, r14
 487 0036 24 25                   		bgtu	.L41
 603:C:/Workspace/FW_Platform2_5/trunk/PlatformLibrary/LIB_IOManager\ExternalOutputManager.c **** 		UseExternalBoard();
 488                             		.loc 1 603 0
 489 0038 05 00 00 00             		bsr	_UseExternalBoard
 490                             	.LVL82:
 605:C:/Workspace/FW_Platform2_5/trunk/PlatformLibrary/LIB_IOManager\ExternalOutputManager.c **** 		*pCmd = 0; /* PilotType Reserved for write ram */
 491                             		.loc 1 605 0
 492 003c C3 AC                   		mov.B	r12, [r10]
 493                             	.LVL83:
 608:C:/Workspace/FW_Platform2_5/trunk/PlatformLibrary/LIB_IOManager\ExternalOutputManager.c **** 		(void)memcpy((uint8_t*)(pCmd+1), pDataExtraReq, 2);
 494                             		.loc 1 608 0
 495 003e DC 7C                   		mov.W	[r7], r12
 496 0040 62 9A                   		add	#9, r10
 497                             	.LVL84:
 498 0042 D3 AC                   		mov.W	r12, [r10]
 609:C:/Workspace/FW_Platform2_5/trunk/PlatformLibrary/LIB_IOManager\ExternalOutputManager.c **** 		UnuseExternalBoard();
 499                             		.loc 1 609 0
 500 0044 05 00 00 00             		bsr	_UnuseExternalBoard
 501                             	.LVL85:
 611:C:/Workspace/FW_Platform2_5/trunk/PlatformLibrary/LIB_IOManager\ExternalOutputManager.c **** 		ExternalSeqId[uart].NewReq=(uint8_t)(*(pDataExtraReq+IOM_EXT_CMDDATA_EXTRA_REQ_SZ) & 0xF0);
 502                             		.loc 1 611 0
 503 0048 CD 7A 02                		mov.B	2[r7], r10
 504                             	.LVL86:
 505 004b FB 72 00 00 00 00       		mov.L	#_ExternalSeqId, r7
 506                             	.LVL87:
 507 0051 75 2A F0                		and	#-16, r10
 508 0054 C7 7A 02                		mov.B	r10, 2[r7]
 618:C:/Workspace/FW_Platform2_5/trunk/PlatformLibrary/LIB_IOManager\ExternalOutputManager.c **** 	return LIB_IOM_NO_ERROR;
 509                             		.loc 1 618 0
 510 0057 EF B1                   		mov.L	r11, r1
 511 0059 2E 0B                   		bra	.L39
 512                             	.LVL88:
 513                             	.L41:
 615:C:/Workspace/FW_Platform2_5/trunk/PlatformLibrary/LIB_IOManager\ExternalOutputManager.c **** 		PLT_ERROR_WARNING(PLT_ERROR_IOM_EXT_OUTMNG_TOOMANY_BYTES_CMDBUFFER_ERR);
 514                             		.loc 1 615 0
 515 005b 75 41 10                		mov.L	#16, r1
 516                             	.LVL89:
 517                             		.balign 2,3,3
 518                             	.L43:
 519 005e 05 00 00 00             		bsr	_LIB_Error_Warning_Handler
 520                             	.LVL90:
 616:C:/Workspace/FW_Platform2_5/trunk/PlatformLibrary/LIB_IOManager\ExternalOutputManager.c ****         return LIB_IOM_EXTERNAL_SETEXTRAREQ_ERR;  /* Serious Error */
 521                             		.loc 1 616 0
 522 0062 66 61                   		mov.L	#6, r1
 523                             		.balign 2,3,2
 524                             	.L39:
 619:C:/Workspace/FW_Platform2_5/trunk/PlatformLibrary/LIB_IOManager\ExternalOutputManager.c **** }
 525                             		.loc 1 619 0
 526 0064 3F 7C 06                		rtsd	#24, r7-r12
 527                             	.LFE5:
 529 0067 03                      		.section	.text.LIB_IOM_External_GetCommandBuffer,"ax",@progbits
 530                             		.global	_LIB_IOM_External_GetCommandBuffer
 532                             	_LIB_IOM_External_GetCommandBuffer:
 533                             	.LFB6:
 644:C:/Workspace/FW_Platform2_5/trunk/PlatformLibrary/LIB_IOManager\ExternalOutputManager.c **** {
 534                             		.loc 1 644 0
 535                             	.LVL91:
 536 0000 6E 7C                   		pushm	r7-r12
 537                             	.LCFI6:
 645:C:/Workspace/FW_Platform2_5/trunk/PlatformLibrary/LIB_IOManager\ExternalOutputManager.c **** 	uint8_t* pCmd = IOM_External_CommandBufferTable[uart].pCmdBuffer;
 538                             		.loc 1 645 0
 539 0002 5B 1B                   		movu.B	r1, r11
 652:C:/Workspace/FW_Platform2_5/trunk/PlatformLibrary/LIB_IOManager\ExternalOutputManager.c **** 	ExternalSeqId[uart].OldReq &= 0xF0;
 540                             		.loc 1 652 0
 541 0004 EF BE                   		mov.L	r11, r14
 542 0006 63 3E                   		mul	#3, r14
 543 0008 70 EE 00 00 00 00       		add	#_ExternalSeqId, r14
 544 000e CD E4 01                		mov.B	1[r14], r4
 645:C:/Workspace/FW_Platform2_5/trunk/PlatformLibrary/LIB_IOManager\ExternalOutputManager.c **** 	uint8_t* pCmd = IOM_External_CommandBufferTable[uart].pCmdBuffer;
 545                             		.loc 1 645 0
 546 0011 EF BA                   		mov.L	r11, r10
 547 0013 63 CA                   		mul	#12, r10
 548 0015 70 AA 00 00 00 00       		add	#_IOM_External_CommandBufferTable, r10
 652:C:/Workspace/FW_Platform2_5/trunk/PlatformLibrary/LIB_IOManager\ExternalOutputManager.c **** 	ExternalSeqId[uart].OldReq &= 0xF0;
 549                             		.loc 1 652 0
 550 001b 75 24 F0                		and	#-16, r4
 551 001e C7 E4 01                		mov.B	r4, 1[r14]
 654:C:/Workspace/FW_Platform2_5/trunk/PlatformLibrary/LIB_IOManager\ExternalOutputManager.c **** 	if(uart >= EXTERNAL_NUM)
 552                             		.loc 1 654 0
 553 0021 61 0B                   		cmp	#0, r11
 645:C:/Workspace/FW_Platform2_5/trunk/PlatformLibrary/LIB_IOManager\ExternalOutputManager.c **** 	uint8_t* pCmd = IOM_External_CommandBufferTable[uart].pCmdBuffer;
 554                             		.loc 1 645 0
 555 0023 EC AA                   		mov.L	[r10], r10
 556                             	.LVL92:
 654:C:/Workspace/FW_Platform2_5/trunk/PlatformLibrary/LIB_IOManager\ExternalOutputManager.c **** 	if(uart >= EXTERNAL_NUM)
 557                             		.loc 1 654 0
 558 0025 20 0A                   		beq	.L45
 656:C:/Workspace/FW_Platform2_5/trunk/PlatformLibrary/LIB_IOManager\ExternalOutputManager.c **** 		PLT_ERROR_WARNING(PLT_ERROR_IOM_EXT_OUTMNG_MAX_CHANNEL_NUM_REACHED_ERR);
 559                             		.loc 1 656 0
 560 0027 66 F1                   		mov.L	#15, r1
 561                             	.LVL93:
 562 0029 05 00 00 00             		bsr	_LIB_Error_Warning_Handler
 563                             	.LVL94:
 564 002d 2E 3B                   		bra	.L59
 565                             	.LVL95:
 566                             	.L45:
 567 002f EF 2C                   		mov.L	r2, r12
 568 0031 EF 37                   		mov.L	r3, r7
 660:C:/Workspace/FW_Platform2_5/trunk/PlatformLibrary/LIB_IOManager\ExternalOutputManager.c **** 	UseExternalBoard();
 569                             		.loc 1 660 0
 570 0033 05 00 00 00             		bsr	_UseExternalBoard
 571                             	.LVL96:
 662:C:/Workspace/FW_Platform2_5/trunk/PlatformLibrary/LIB_IOManager\ExternalOutputManager.c **** 	for(i=0; i< ExternalBoardCounter; i++)
 572                             		.loc 1 662 0
 573 0037 FB 42 00 00 00 00       		mov.L	#_ExternalBoardCounter, r4
 574 003d FB E2 00 00 00 00       		mov.L	#_IOM_External_LoadsTable+9, r14
 575 0043 58 42                   		movu.B	[r4], r2
 576 0045 2E 2D                   		bra	.L47
 577                             	.LVL97:
 578                             	.L49:
 664:C:/Workspace/FW_Platform2_5/trunk/PlatformLibrary/LIB_IOManager\ExternalOutputManager.c **** 	    if(IOM_External_LoadsTable[i].CommCh == uart)
 579                             		.loc 1 664 0
 580 0047 58 E4                   		movu.B	[r14], r4
 581 0049 61 04                   		cmp	#0, r4
 582 004b 21 22                   		bne	.L48
 643:C:/Workspace/FW_Platform2_5/trunk/PlatformLibrary/LIB_IOManager\ExternalOutputManager.c **** LIB_IOM_ErrorType LIB_IOM_External_GetCommandBuffer(uint8_t uart, uint8_t** ppCmd, uint8_t* pCmdLen
 583                             		.loc 1 643 0
 584 004d 71 E3 FD                		add	#-3, r14, r3
 666:C:/Workspace/FW_Platform2_5/trunk/PlatformLibrary/LIB_IOManager\ExternalOutputManager.c **** 	        p=(IOM_External_CommandBufferTable[uart].pCmdBuffer + IOM_External_LoadsTable[i].CmdOffset
 585                             		.loc 1 666 0
 586 0050 58 33                   		movu.B	[r3], r3
 643:C:/Workspace/FW_Platform2_5/trunk/PlatformLibrary/LIB_IOManager\ExternalOutputManager.c **** LIB_IOM_ErrorType LIB_IOM_External_GetCommandBuffer(uint8_t uart, uint8_t** ppCmd, uint8_t* pCmdLen
 587                             		.loc 1 643 0
 588 0052 71 E1 FC                		add	#-4, r14, r1
 666:C:/Workspace/FW_Platform2_5/trunk/PlatformLibrary/LIB_IOManager\ExternalOutputManager.c **** 	        p=(IOM_External_CommandBufferTable[uart].pCmdBuffer + IOM_External_LoadsTable[i].CmdOffset
 589                             		.loc 1 666 0
 590 0055 4B A3                   		add	r10, r3
 591                             	.LVL98:
 668:C:/Workspace/FW_Platform2_5/trunk/PlatformLibrary/LIB_IOManager\ExternalOutputManager.c **** 	        if((  *(p) != IOM_External_LoadsTable[i].PilotType)
 592                             		.loc 1 668 0
 593 0057 58 35                   		movu.B	[r3], r5
 594 0059 44 15                   		cmp	[r1].UB, r5
 595 005b 20 12                   		beq	.L48
 669:C:/Workspace/FW_Platform2_5/trunk/PlatformLibrary/LIB_IOManager\ExternalOutputManager.c **** 	        && ( *(p + 1) != IOM_External_LoadsTable[i].Displacement))
 596                             		.loc 1 669 0
 597 005d B0 39                   		movu.B	1[r3], r1
 643:C:/Workspace/FW_Platform2_5/trunk/PlatformLibrary/LIB_IOManager\ExternalOutputManager.c **** LIB_IOM_ErrorType LIB_IOM_External_GetCommandBuffer(uint8_t uart, uint8_t** ppCmd, uint8_t* pCmdLen
 598                             		.loc 1 643 0
 599 005f 71 E5 FF                		add	#-1, r14, r5
 669:C:/Workspace/FW_Platform2_5/trunk/PlatformLibrary/LIB_IOManager\ExternalOutputManager.c **** 	        && ( *(p + 1) != IOM_External_LoadsTable[i].Displacement))
 600                             		.loc 1 669 0
 601 0062 44 51                   		cmp	[r5].UB, r1
 602 0064 20 09                   		beq	.L48
 671:C:/Workspace/FW_Platform2_5/trunk/PlatformLibrary/LIB_IOManager\ExternalOutputManager.c **** 	            *pCmdLen=0;
 603                             		.loc 1 671 0
 604 0066 C3 74                   		mov.B	r4, [r7]
 605                             	.LVL99:
 606                             		.balign 2,3,1
 607                             	.L59:
 672:C:/Workspace/FW_Platform2_5/trunk/PlatformLibrary/LIB_IOManager\ExternalOutputManager.c **** 	            return LIB_IOM_EXTERNAL_GETCMD_ERR;
 608                             		.loc 1 672 0
 609 0068 66 21                   		mov.L	#2, r1
 610 006a 38 B0 00                		bra	.L46
 611                             	.LVL100:
 612                             	.L48:
 662:C:/Workspace/FW_Platform2_5/trunk/PlatformLibrary/LIB_IOManager\ExternalOutputManager.c **** 	for(i=0; i< ExternalBoardCounter; i++)
 613                             		.loc 1 662 0
 614 006d 62 1B                   		add	#1, r11
 615                             	.LVL101:
 616 006f 62 CE                   		add	#12, r14
 617                             	.LVL102:
 618 0071 03                      		.balign 2,3,1
 619                             	.L47:
 662:C:/Workspace/FW_Platform2_5/trunk/PlatformLibrary/LIB_IOManager\ExternalOutputManager.c **** 	for(i=0; i< ExternalBoardCounter; i++)
 620                             		.loc 1 662 0 is_stmt 0 discriminator 1
 621 0072 5B B4                   		movu.B	r11, r4
 622 0074 47 24                   		cmp	r2, r4
 623 0076 21 D1                   		bne	.L49
 677:C:/Workspace/FW_Platform2_5/trunk/PlatformLibrary/LIB_IOManager\ExternalOutputManager.c **** 	*pCmdLen = IOM_External_CommandBufferCntTable[uart]; /* */
 624                             		.loc 1 677 0 is_stmt 1
 625 0078 FB B2 00 00 00 00       		mov.L	#_IOM_External_CommandBufferCntTable, r11
 626                             	.LVL103:
 627 007e CC BE                   		mov.B	[r11], r14
 628 0080 C3 7E                   		mov.B	r14, [r7]
 680:C:/Workspace/FW_Platform2_5/trunk/PlatformLibrary/LIB_IOManager\ExternalOutputManager.c ****                  (pCmd + IOM_External_CommandBufferCntTable[uart] + 1/*pilotype for ram*/ + IOM_EXT
 629                             		.loc 1 680 0
 630 0082 58 BB                   		movu.B	[r11], r11
 631                             	.LVL104:
 682:C:/Workspace/FW_Platform2_5/trunk/PlatformLibrary/LIB_IOManager\ExternalOutputManager.c ****     (void)memcpy(&cmd_readram, 
 632                             		.loc 1 682 0
 633 0084 4B AB                   		add	r10, r11
 634                             	.LVL105:
 635 0086 71 B4 01                		add	#1, r11, r4
 636                             	.LVL106:
 637 0089 DC 43                   		mov.W	[r4], r3
 638                             	.LVL107:
 685:C:/Workspace/FW_Platform2_5/trunk/PlatformLibrary/LIB_IOManager\ExternalOutputManager.c ****     (void)memcpy(&cmd_extrareq, 
 639                             		.loc 1 685 0
 640 008b 71 B4 09                		add	#9, r11, r4
 679:C:/Workspace/FW_Platform2_5/trunk/PlatformLibrary/LIB_IOManager\ExternalOutputManager.c ****     (void)memcpy(&cmd_writeram, 
 641                             		.loc 1 679 0
 642 008e 62 5B                   		add	#5, r11
 643                             	.LVL108:
 688:C:/Workspace/FW_Platform2_5/trunk/PlatformLibrary/LIB_IOManager\ExternalOutputManager.c ****     if(cmd_writeram)
 644                             		.loc 1 688 0
 645 0090 5C BB                   		movu.W	[r11], r11
 646                             	.LVL109:
 685:C:/Workspace/FW_Platform2_5/trunk/PlatformLibrary/LIB_IOManager\ExternalOutputManager.c ****     (void)memcpy(&cmd_extrareq, 
 647                             		.loc 1 685 0
 648 0092 DC 44                   		mov.W	[r4], r4
 649                             	.LVL110:
 688:C:/Workspace/FW_Platform2_5/trunk/PlatformLibrary/LIB_IOManager\ExternalOutputManager.c ****     if(cmd_writeram)
 650                             		.loc 1 688 0
 651 0094 61 0B                   		cmp	#0, r11
 652 0096 20 13                   		beq	.L50
 691:C:/Workspace/FW_Platform2_5/trunk/PlatformLibrary/LIB_IOManager\ExternalOutputManager.c **** 		*pCmdLen += 1+IOM_EXT_CMDDATA_RAM_READ_SZ+IOM_EXT_CMDDATA_RAM_WRITE_SZ; /*reserved pilotType +  r
 653                             		.loc 1 691 0
 654 0098 62 9E                   		add	#9, r14
 655 009a C3 7E                   		mov.B	r14, [r7]
 692:C:/Workspace/FW_Platform2_5/trunk/PlatformLibrary/LIB_IOManager\ExternalOutputManager.c **** 		ExternalSeqId[uart].OldReq |= 1;
 656                             		.loc 1 692 0
 657 009c FB B2 00 00 00 00       		mov.L	#_ExternalSeqId, r11
 658 00a2 CD BE 01                		mov.B	1[r11], r14
 659 00a5 65 1E                   		or	#1, r14
 660 00a7 2E 23                   		bra	.L58
 661                             	.L50:
 694:C:/Workspace/FW_Platform2_5/trunk/PlatformLibrary/LIB_IOManager\ExternalOutputManager.c **** 	else if(cmd_readram) 
 662                             		.loc 1 694 0
 663 00a9 5F 3B                   		movu.W	r3, r11
 664 00ab 61 0B                   		cmp	#0, r11
 665 00ad 20 08                   		beq	.L52
 697:C:/Workspace/FW_Platform2_5/trunk/PlatformLibrary/LIB_IOManager\ExternalOutputManager.c **** 		*pCmdLen += 1+IOM_EXT_CMDDATA_RAM_READ_SZ; /*reserved pilotType +  read */
 666                             		.loc 1 697 0
 667 00af 62 5E                   		add	#5, r14
 668 00b1 C3 7E                   		mov.B	r14, [r7]
 669 00b3 2E 1B                   		bra	.L51
 670                             	.L52:
 699:C:/Workspace/FW_Platform2_5/trunk/PlatformLibrary/LIB_IOManager\ExternalOutputManager.c **** 	else if(cmd_extrareq) 
 671                             		.loc 1 699 0
 672 00b5 5F 4B                   		movu.W	r4, r11
 673 00b7 61 0B                   		cmp	#0, r11
 674 00b9 20 15                   		beq	.L51
 702:C:/Workspace/FW_Platform2_5/trunk/PlatformLibrary/LIB_IOManager\ExternalOutputManager.c **** 		*pCmdLen += 1+IOM_EXT_CMDDATA_RAM_READ_SZ+IOM_EXT_CMDDATA_RAM_WRITE_SZ+IOM_EXT_CMDDATA_EXTRA_REQ_
 675                             		.loc 1 702 0
 676 00bb 62 BE                   		add	#11, r14
 677 00bd C3 7E                   		mov.B	r14, [r7]
 703:C:/Workspace/FW_Platform2_5/trunk/PlatformLibrary/LIB_IOManager\ExternalOutputManager.c **** 		ExternalSeqId[uart].OldReq |= 2;
 678                             		.loc 1 703 0
 679 00bf FB B2 00 00 00 00       		mov.L	#_ExternalSeqId, r11
 680 00c5 CD BE 01                		mov.B	1[r11], r14
 681 00c8 65 2E                   		or	#2, r14
 682                             		.balign 2,3,5
 683                             	.L58:
 684 00ca C7 BE 01                		mov.B	r14, 1[r11]
 685 00cd 03                      		.balign 2,3,5
 686                             	.L51:
 706:C:/Workspace/FW_Platform2_5/trunk/PlatformLibrary/LIB_IOManager\ExternalOutputManager.c **** 	ExternalSeqId[uart].Seq++;
 687                             		.loc 1 706 0
 688 00ce FB E2 00 00 00 00       		mov.L	#_ExternalSeqId, r14
 689 00d4 CC EB                   		mov.B	[r14], r11
 690 00d6 62 1B                   		add	#1, r11
 691 00d8 C3 EB                   		mov.B	r11, [r14]
 708:C:/Workspace/FW_Platform2_5/trunk/PlatformLibrary/LIB_IOManager\ExternalOutputManager.c **** 	*ppCmd = IOM_External_CommandBufferTable[uart].pCmdBufferTx;
 692                             		.loc 1 708 0
 693 00da FB B2 00 00 00 00       		mov.L	#_IOM_External_CommandBufferTable, r11
 694 00e0 ED B1 01                		mov.L	4[r11], r1
 695 00e3 E3 C1                   		mov.L	r1, [r12]
 710:C:/Workspace/FW_Platform2_5/trunk/PlatformLibrary/LIB_IOManager\ExternalOutputManager.c **** 	if((ExternalSeqId[uart].OldReq & 0xF0) != ExternalSeqId[uart].NewReq)
 696                             		.loc 1 710 0
 697 00e5 CD EB 01                		mov.B	1[r14], r11
 698 00e8 59 E4 02                		movu.B	2[r14], r4
 699                             	.LVL111:
 700 00eb EF BC                   		mov.L	r11, r12
 701                             	.LVL112:
 702 00ed 76 2C F0 00             		and	#0xf0, r12
 703 00f1 47 C4                   		cmp	r12, r4
 704 00f3 20 0F                   		beq	.L53
 712:C:/Workspace/FW_Platform2_5/trunk/PlatformLibrary/LIB_IOManager\ExternalOutputManager.c **** 		ExternalSeqId[uart].OldReq &= 0x0F;
 705                             		.loc 1 712 0
 706 00f5 64 FB                   		and	#15, r11
 713:C:/Workspace/FW_Platform2_5/trunk/PlatformLibrary/LIB_IOManager\ExternalOutputManager.c **** 		ExternalSeqId[uart].OldReq += ExternalSeqId[uart].NewReq;
 707                             		.loc 1 713 0
 708 00f7 06 09 EB 02             		add	2[r14].B, r11
 709 00fb C7 EB 01                		mov.B	r11, 1[r14]
 714:C:/Workspace/FW_Platform2_5/trunk/PlatformLibrary/LIB_IOManager\ExternalOutputManager.c **** 		ExternalSeqId[uart].Seq=0;
 710                             		.loc 1 714 0
 711 00fe F8 E4 00                		mov.B	#0, [r14]
 712 0101 03                      		.balign 2,3,5
 713                             	.L53:
 717:C:/Workspace/FW_Platform2_5/trunk/PlatformLibrary/LIB_IOManager\ExternalOutputManager.c **** 	*IOM_External_CommandBufferTable[uart].pCmdBuffer = ExternalSeqId[uart].OldReq;
 714                             		.loc 1 717 0
 715 0102 FB B2 00 00 00 00       		mov.L	#_ExternalSeqId, r11
 716 0108 CD BB 01                		mov.B	1[r11], r11
 718:C:/Workspace/FW_Platform2_5/trunk/PlatformLibrary/LIB_IOManager\ExternalOutputManager.c **** 	memcpy(IOM_External_CommandBufferTable[uart].pCmdBufferTx, IOM_External_CommandBufferTable[uart].p
 717                             		.loc 1 718 0
 718 010b EF A2                   		mov.L	r10, r2
 717:C:/Workspace/FW_Platform2_5/trunk/PlatformLibrary/LIB_IOManager\ExternalOutputManager.c **** 	*IOM_External_CommandBufferTable[uart].pCmdBuffer = ExternalSeqId[uart].OldReq;
 719                             		.loc 1 717 0
 720 010d C3 AB                   		mov.B	r11, [r10]
 718:C:/Workspace/FW_Platform2_5/trunk/PlatformLibrary/LIB_IOManager\ExternalOutputManager.c **** 	memcpy(IOM_External_CommandBufferTable[uart].pCmdBufferTx, IOM_External_CommandBufferTable[uart].p
 721                             		.loc 1 718 0
 722 010f 58 73                   		movu.B	[r7], r3
 723                             	.LVL113:
 724 0111 7F 8F                   		smovf
 720:C:/Workspace/FW_Platform2_5/trunk/PlatformLibrary/LIB_IOManager\ExternalOutputManager.c **** 	UnuseExternalBoard();
 725                             		.loc 1 720 0
 726 0113 05 00 00 00             		bsr	_UnuseExternalBoard
 727                             	.LVL114:
 722:C:/Workspace/FW_Platform2_5/trunk/PlatformLibrary/LIB_IOManager\ExternalOutputManager.c **** 	return LIB_IOM_NO_ERROR;
 728                             		.loc 1 722 0
 729 0117 66 01                   		mov.L	#0, r1
 730                             	.LVL115:
 731 0119 03                      		.balign 2,3,2
 732                             	.L46:
 723:C:/Workspace/FW_Platform2_5/trunk/PlatformLibrary/LIB_IOManager\ExternalOutputManager.c **** }
 733                             		.loc 1 723 0
 734 011a 3F 7C 06                		rtsd	#24, r7-r12
 735                             	.LFE6:
 737 011d 03                      		.section	.text.LIB_IOM_External_GetInfoBuffer,"ax",@progbits
 738                             		.global	_LIB_IOM_External_GetInfoBuffer
 740                             	_LIB_IOM_External_GetInfoBuffer:
 741                             	.LFB7:
 726:C:/Workspace/FW_Platform2_5/trunk/PlatformLibrary/LIB_IOManager\ExternalOutputManager.c **** {
 742                             		.loc 1 726 0
 743                             	.LVL116:
 730:C:/Workspace/FW_Platform2_5/trunk/PlatformLibrary/LIB_IOManager\ExternalOutputManager.c **** 	if (extloadItem < CONFIG_NUM_EXTDLOADS)
 744                             		.loc 1 730 0
 745 0000 5B 14                   		movu.B	r1, r4
 746 0002 61 04                   		cmp	#0, r4
 747 0004 21 1A                   		bne	.L62
 732:C:/Workspace/FW_Platform2_5/trunk/PlatformLibrary/LIB_IOManager\ExternalOutputManager.c **** 		if (szData >= IOM_External_LoadsTable[extloadItem].szPilotTypeInfo)
 748                             		.loc 1 732 0
 749 0006 FB E2 00 00 00 00       		mov.L	#_IOM_External_LoadsTable, r14
 750 000c 5B 31                   		movu.B	r3, r1
 751                             	.LVL117:
 752 000e 59 E3 04                		movu.B	4[r14], r3
 753                             	.LVL118:
 754 0011 47 31                   		cmp	r3, r1
 755 0013 23 0B                   		bltu	.L62
 734:C:/Workspace/FW_Platform2_5/trunk/PlatformLibrary/LIB_IOManager\ExternalOutputManager.c **** 			memcpy(pByteData, IOM_External_LoadsTable[extloadItem].pPilotTypeInfo, IOM_External_LoadsTable[e
 756                             		.loc 1 734 0
 757 0015 EF 21                   		mov.L	r2, r1
 758                             	.LVL119:
 759 0017 EC E2                   		mov.L	[r14], r2
 760                             	.LVL120:
 761 0019 7F 8F                   		smovf
 762                             	.LVL121:
 735:C:/Workspace/FW_Platform2_5/trunk/PlatformLibrary/LIB_IOManager\ExternalOutputManager.c **** 			resVal = TRUE;
 763                             		.loc 1 735 0
 764 001b 66 11                   		mov.L	#1, r1
 765 001d 02                      		rts
 766                             	.LVL122:
 767                             	.L62:
 727:C:/Workspace/FW_Platform2_5/trunk/PlatformLibrary/LIB_IOManager\ExternalOutputManager.c **** 	bool_t resVal = FALSE;
 768                             		.loc 1 727 0
 769 001e 66 01                   		mov.L	#0, r1
 770 0020 02                      		rts
 771                             	.LFE7:
 773                             		.section	.text.LIB_IOM_External_GetLoadStatus,"ax",@progbits
 774                             		.global	_LIB_IOM_External_GetLoadStatus
 776                             	_LIB_IOM_External_GetLoadStatus:
 777                             	.LFB8:
 766:C:/Workspace/FW_Platform2_5/trunk/PlatformLibrary/LIB_IOManager\ExternalOutputManager.c **** {
 778                             		.loc 1 766 0
 779                             	.LVL123:
 769:C:/Workspace/FW_Platform2_5/trunk/PlatformLibrary/LIB_IOManager\ExternalOutputManager.c **** 	switch(pilotType)
 780                             		.loc 1 769 0
 781 0000 5B 11                   		movu.B	r1, r1
 782 0002 75 51 22                		cmp	#34, r1
 783 0005 20 07                   		beq	.L67
 784 0007 75 51 23                		cmp	#35, r1
 785 000a 21 0A                   		bne	.L69
 786                             		.balign 2,3,5
 787                             	.L67:
 788                             	.LVL124:
 812:C:/Workspace/FW_Platform2_5/trunk/PlatformLibrary/LIB_IOManager\ExternalOutputManager.c **** 			if(tmpPtr->rpm)
 789                             		.loc 1 812 0
 790 000c 98 29                   		mov.W	2[r2], r1
 791                             	.LVL125:
 767:C:/Workspace/FW_Platform2_5/trunk/PlatformLibrary/LIB_IOManager\ExternalOutputManager.c **** 	bool_t bLoadStatus=FALSE;
 792                             		.loc 1 767 0
 793 000e 61 01                   		cmp	#0, r1
 794 0010 FC DB 11                		scne.L	r1
 795 0013 02                      		rts
 796                             	.LVL126:
 797                             	.L69:
 798 0014 66 01                   		mov.L	#0, r1
 799                             	.LVL127:
 864:C:/Workspace/FW_Platform2_5/trunk/PlatformLibrary/LIB_IOManager\ExternalOutputManager.c **** }
 800                             		.loc 1 864 0
 801 0016 02                      		rts
 802                             	.LFE8:
 804 0017 03                      		.section	.text.LIB_IOM_External_ProcessInfoPacketData,"ax",@progbits
 805                             		.global	_LIB_IOM_External_ProcessInfoPacketData
 807                             	_LIB_IOM_External_ProcessInfoPacketData:
 808                             	.LFB9:
 891:C:/Workspace/FW_Platform2_5/trunk/PlatformLibrary/LIB_IOManager\ExternalOutputManager.c **** {
 809                             		.loc 1 891 0
 898:C:/Workspace/FW_Platform2_5/trunk/PlatformLibrary/LIB_IOManager\ExternalOutputManager.c **** 	if(ch >= EXTERNAL_NUM)
 810                             		.loc 1 898 0
 811 0000 5B 11                   		movu.B	r1, r1
 812 0002 61 01                   		cmp	#0, r1
 813 0004 20 06                   		beq	.L71
 900:C:/Workspace/FW_Platform2_5/trunk/PlatformLibrary/LIB_IOManager\ExternalOutputManager.c **** 		PLT_ERROR_WARNING(PLT_ERROR_IOM_EXT_OUTMNG_MAX_CHANNEL_NUM_REACHED_ERR);
 814                             		.loc 1 900 0
 815 0006 66 F1                   		mov.L	#15, r1
 816 0008 2E 7E                   		bra	.L91
 817                             	.L71:
 891:C:/Workspace/FW_Platform2_5/trunk/PlatformLibrary/LIB_IOManager\ExternalOutputManager.c **** {
 818                             		.loc 1 891 0
 819 000a 6E 7D                   		pushm	r7-r13
 820                             	.LCFI7:
 904:C:/Workspace/FW_Platform2_5/trunk/PlatformLibrary/LIB_IOManager\ExternalOutputManager.c **** 	*(ExternalData[ch].pRamBuffer) = ExternalSeqId[ch].Seq;	/* seqID*/
 821                             		.loc 1 904 0
 822 000c FB 72 00 00 00 00       		mov.L	#_ExternalSeqId, r7
 823 0012 CC 77                   		mov.B	[r7], r7
 824 0014 FB B2 00 00 00 00       		mov.L	#_IOM_ReadRamExternal_0, r11
 825 001a C3 B7                   		mov.B	r7, [r11]
 905:C:/Workspace/FW_Platform2_5/trunk/PlatformLibrary/LIB_IOManager\ExternalOutputManager.c **** 	*(ExternalData[ch].pRamBuffer+1) = *pInfoPacketData;	/* ReqID*/
 826                             		.loc 1 905 0
 827 001c EF 27                   		mov.L	r2, r7
 828 001e FD 28 7A                		mov.B	[r7+], r10
 985:C:/Workspace/FW_Platform2_5/trunk/PlatformLibrary/LIB_IOManager\ExternalOutputManager.c **** 					if(pilotType ==  IOM_External_LoadsTable[i].PilotType)
 829                             		.loc 1 985 0
 830 0021 FB 92 00 00 00 00       		mov.L	#_IOM_External_LoadsTable, r9
 905:C:/Workspace/FW_Platform2_5/trunk/PlatformLibrary/LIB_IOManager\ExternalOutputManager.c **** 	*(ExternalData[ch].pRamBuffer+1) = *pInfoPacketData;	/* ReqID*/
 831                             		.loc 1 905 0
 832 0027 C7 BA 01                		mov.B	r10, 1[r11]
 908:C:/Workspace/FW_Platform2_5/trunk/PlatformLibrary/LIB_IOManager\ExternalOutputManager.c **** 	rem--;
 833                             		.loc 1 908 0
 834 002a 71 3A FF                		add	#-1, r3, r10
 912:C:/Workspace/FW_Platform2_5/trunk/PlatformLibrary/LIB_IOManager\ExternalOutputManager.c **** 	while (rem)
 835                             		.loc 1 912 0
 836 002d 2E 4D                   		bra	.L87
 837                             	.L80:
 915:C:/Workspace/FW_Platform2_5/trunk/PlatformLibrary/LIB_IOManager\ExternalOutputManager.c **** 		switch(pilotType)
 838                             		.loc 1 915 0
 839 002f 59 7B 01                		movu.B	1[r7], r11
 840 0032 61 0B                   		cmp	#0, r11
 841 0034 20 0E                   		beq	.L74
 985:C:/Workspace/FW_Platform2_5/trunk/PlatformLibrary/LIB_IOManager\ExternalOutputManager.c **** 					if(pilotType ==  IOM_External_LoadsTable[i].PilotType)
 842                             		.loc 1 985 0 discriminator 1
 843 0036 45 9B 05                		cmp	5[r9].UB, r11
 844 0039 20 51                   		beq	.L82
 985:C:/Workspace/FW_Platform2_5/trunk/PlatformLibrary/LIB_IOManager\ExternalOutputManager.c **** 					if(pilotType ==  IOM_External_LoadsTable[i].PilotType)
 845                             		.loc 1 985 0 is_stmt 0
 846 003b 45 9B 11                		cmp	17[r9].UB, r11
 847 003e 21 44                   		bne	.L88
 848 0040 2E 4E                   		bra	.L83
 849                             	.L74:
 923:C:/Workspace/FW_Platform2_5/trunk/PlatformLibrary/LIB_IOManager\ExternalOutputManager.c **** 			if(((InfoPacketDataHdrType*)pInfoPacketData)->szData)
 850                             		.loc 1 923 0 is_stmt 1
 851 0042 CC 73                   		mov.B	[r7], r3
 852 0044 5B 3B                   		movu.B	r3, r11
 853 0046 61 0B                   		cmp	#0, r11
 854 0048 20 2F                   		beq	.L84
 926:C:/Workspace/FW_Platform2_5/trunk/PlatformLibrary/LIB_IOManager\ExternalOutputManager.c **** 				offset= (uint8_t)(((InfoPacketDataHdrType*)pInfoPacketData)->szData + 1);
 855                             		.loc 1 926 0
 856 004a 71 3C 01                		add	#1, r3, r12
 927:C:/Workspace/FW_Platform2_5/trunk/PlatformLibrary/LIB_IOManager\ExternalOutputManager.c **** 				size = (uint8_t) ((((InfoPacketDataHdrType*)pInfoPacketData)->szData -1 <= (ExternalData[ch].sz
 857                             		.loc 1 927 0
 858 004d 75 5B 21                		cmp	#33, r11
 926:C:/Workspace/FW_Platform2_5/trunk/PlatformLibrary/LIB_IOManager\ExternalOutputManager.c **** 				offset= (uint8_t)(((InfoPacketDataHdrType*)pInfoPacketData)->szData + 1);
 859                             		.loc 1 926 0
 860 0050 CF CD                   		mov.B	r12, r13
 927:C:/Workspace/FW_Platform2_5/trunk/PlatformLibrary/LIB_IOManager\ExternalOutputManager.c **** 				size = (uint8_t) ((((InfoPacketDataHdrType*)pInfoPacketData)->szData -1 <= (ExternalData[ch].sz
 861                             		.loc 1 927 0
 862 0052 2A 0D                   		bgt	.L86
 863 0054 60 13                   		sub	#1, r3
 932:C:/Workspace/FW_Platform2_5/trunk/PlatformLibrary/LIB_IOManager\ExternalOutputManager.c **** 				if(size > ExternalData[ch].szRamBuffer - 2)
 864                             		.loc 1 932 0
 865 0056 5B 3B                   		movu.B	r3, r11
 866 0058 75 5B 20                		cmp	#32, r11
 867 005b 2A 04                   		bgt	.L86
 868 005d 2E 05                   		bra	.L79
 869                             	.L86:
 934:C:/Workspace/FW_Platform2_5/trunk/PlatformLibrary/LIB_IOManager\ExternalOutputManager.c **** 					size =  (uint8_t)(ExternalData[ch].szRamBuffer - 2);
 870                             		.loc 1 934 0
 871 005f 75 43 20                		mov	#32, r3
 872                             		.balign 2,3,5
 873                             	.L79:
 937:C:/Workspace/FW_Platform2_5/trunk/PlatformLibrary/LIB_IOManager\ExternalOutputManager.c **** 				memcpy(ExternalData[ch].pRamBuffer+2/*seqID+toolid*/, pInfoPacketData+2, size);
 874                             		.loc 1 937 0
 875 0062 FB 12 00 00 00 00       		mov.L	#_IOM_ReadRamExternal_0+2, r1
 876 0068 71 72 02                		add	#2, r7, r2
 877 006b 5B 33                   		movu.B	r3, r3
 878 006d 7F 8F                   		smovf
 939:C:/Workspace/FW_Platform2_5/trunk/PlatformLibrary/LIB_IOManager\ExternalOutputManager.c **** 				pInfoPacketData += offset;
 879                             		.loc 1 939 0
 880 006f 5B DD                   		movu.B	r13, r13
 881 0071 4B D7                   		add	r13, r7
 940:C:/Workspace/FW_Platform2_5/trunk/PlatformLibrary/LIB_IOManager\ExternalOutputManager.c **** 				rem -= offset;
 882                             		.loc 1 940 0
 883 0073 43 CA                   		sub	r12, r10
 884 0075 2E 05                   		bra	.L87
 885                             	.L84:
 944:C:/Workspace/FW_Platform2_5/trunk/PlatformLibrary/LIB_IOManager\ExternalOutputManager.c **** 			    rem =0;
 886                             		.loc 1 944 0
 887 0077 CF BA                   		mov.B	r11, r10
 888 0079 03                      		.balign 2,3,1
 889                             	.L87:
 912:C:/Workspace/FW_Platform2_5/trunk/PlatformLibrary/LIB_IOManager\ExternalOutputManager.c **** 	while (rem)
 890                             		.loc 1 912 0 discriminator 1
 891 007a 5B AB                   		movu.B	r10, r11
 892 007c 61 0B                   		cmp	#0, r11
 893 007e 21 B1                   		bne	.L80
 894 0080 2E 4F                   		bra	.L89
 895                             	.L88:
1016:C:/Workspace/FW_Platform2_5/trunk/PlatformLibrary/LIB_IOManager\ExternalOutputManager.c **** }
 896                             		.loc 1 1016 0
 897 0082 6F 7D                   		popm	r7-r13
 994:C:/Workspace/FW_Platform2_5/trunk/PlatformLibrary/LIB_IOManager\ExternalOutputManager.c **** 					PLT_ERROR_WARNING(PLT_ERROR_IOM_EXT_OUTMNG_INVALID_PILOTTYPE_ERR);
 898                             		.loc 1 994 0
 899 0084 66 91                   		mov.L	#9, r1
 900                             		.balign 2,3,3
 901                             	.L91:
 902                             	.LCFI8:
 903 0086 04 00 00 00             		bra	_LIB_Error_Warning_Handler
 904                             	.L82:
 905                             	.LCFI9:
 985:C:/Workspace/FW_Platform2_5/trunk/PlatformLibrary/LIB_IOManager\ExternalOutputManager.c **** 					if(pilotType ==  IOM_External_LoadsTable[i].PilotType)
 906                             		.loc 1 985 0
 907 008a 66 0B                   		mov	#0, r11
 908 008c 2E 04                   		bra	.L75
 909                             	.L83:
 989:C:/Workspace/FW_Platform2_5/trunk/PlatformLibrary/LIB_IOManager\ExternalOutputManager.c **** 					i++;
 910                             		.loc 1 989 0
 911 008e 66 1B                   		mov	#1, r11
 912                             		.balign 2,3,1
 913                             	.L75:
1001:C:/Workspace/FW_Platform2_5/trunk/PlatformLibrary/LIB_IOManager\ExternalOutputManager.c **** 				if (size > IOM_External_LoadsTable[i].szPilotTypeInfo)
 914                             		.loc 1 1001 0
 915 0090 5B BB                   		movu.B	r11, r11
 916 0092 63 CB                   		mul	#12, r11
 998:C:/Workspace/FW_Platform2_5/trunk/PlatformLibrary/LIB_IOManager\ExternalOutputManager.c **** 				offset=(uint8_t)(((InfoPacketDataHdrType*)pInfoPacketData)->szData + 1);
 917                             		.loc 1 998 0
 918 0094 CC 7C                   		mov.B	[r7], r12
1001:C:/Workspace/FW_Platform2_5/trunk/PlatformLibrary/LIB_IOManager\ExternalOutputManager.c **** 				if (size > IOM_External_LoadsTable[i].szPilotTypeInfo)
 919                             		.loc 1 1001 0
 920 0096 70 BE 00 00 00 00       		add	#_IOM_External_LoadsTable, r11, r14
 921 009c CD EE 04                		mov.B	4[r14], r14
 998:C:/Workspace/FW_Platform2_5/trunk/PlatformLibrary/LIB_IOManager\ExternalOutputManager.c **** 				offset=(uint8_t)(((InfoPacketDataHdrType*)pInfoPacketData)->szData + 1);
 922                             		.loc 1 998 0
 923 009f 71 CD 01                		add	#1, r12, r13
 924 00a2 60 1C                   		sub	#1, r12
 925 00a4 5B C3                   		movu.B	r12, r3
 926 00a6 5B E4                   		movu.B	r14, r4
 927 00a8 47 43                   		cmp	r4, r3
 928 00aa CF D8                   		mov.B	r13, r8
 929 00ac 25 04                   		bleu	.L81
 930 00ae CF EC                   		mov.B	r14, r12
 931                             		.balign 2,3,3
 932                             	.L81:
1006:C:/Workspace/FW_Platform2_5/trunk/PlatformLibrary/LIB_IOManager\ExternalOutputManager.c **** 				UseExternalInfo();				
 933                             		.loc 1 1006 0
 934 00b0 05 00 00 00             		bsr	_UseExternalInfo
1007:C:/Workspace/FW_Platform2_5/trunk/PlatformLibrary/LIB_IOManager\ExternalOutputManager.c **** 				memcpy(IOM_External_LoadsTable[i].pPilotTypeInfo, pInfoPacketData+2, size);
 935                             		.loc 1 1007 0
 936 00b4 70 BB 00 00 00 00       		add	#_IOM_External_LoadsTable, r11
 937 00ba EC B1                   		mov.L	[r11], r1
 938 00bc 71 72 02                		add	#2, r7, r2
 939 00bf 5B C3                   		movu.B	r12, r3
 940 00c1 7F 8F                   		smovf
1010:C:/Workspace/FW_Platform2_5/trunk/PlatformLibrary/LIB_IOManager\ExternalOutputManager.c **** 				pInfoPacketData += offset;
 941                             		.loc 1 1010 0
 942 00c3 5B 88                   		movu.B	r8, r8
1008:C:/Workspace/FW_Platform2_5/trunk/PlatformLibrary/LIB_IOManager\ExternalOutputManager.c **** 				UnuseExternalInfo();				
 943                             		.loc 1 1008 0
 944 00c5 05 00 00 00             		bsr	_UnuseExternalInfo
1010:C:/Workspace/FW_Platform2_5/trunk/PlatformLibrary/LIB_IOManager\ExternalOutputManager.c **** 				pInfoPacketData += offset;
 945                             		.loc 1 1010 0
 946 00c9 4B 87                   		add	r8, r7
1011:C:/Workspace/FW_Platform2_5/trunk/PlatformLibrary/LIB_IOManager\ExternalOutputManager.c **** 				rem -= offset ;
 947                             		.loc 1 1011 0
 948 00cb 43 DA                   		sub	r13, r10
 949 00cd 2E AD                   		bra	.L87
 950                             	.L89:
1016:C:/Workspace/FW_Platform2_5/trunk/PlatformLibrary/LIB_IOManager\ExternalOutputManager.c **** }
 951                             		.loc 1 1016 0
 952 00cf 3F 7D 07                		rtsd	#28, r7-r13
 953                             	.LFE9:
 955                             		.comm	_IOM_External_CommandBufferCntTable,1,1
 956                             		.global	_ExternalData
 957                             		.section	.rodata.ExternalData,"a",@progbits
 958                             		.balign 4
 961                             	_ExternalData:
 962 0000 00 00 00 00             		.long	_IOM_ReadRamExternal_0
 963 0004 22                      		.byte	34
 964 0005 00 00 00                		.zero	3
 965                             		.comm	_ExternalSeqId,3,1
 966                             		.global	_IOM_External_CommandBufferTable
 967                             		.section	.rodata.IOM_External_CommandBufferTable,"a",@progbits
 968                             		.balign 4
 971                             	_IOM_External_CommandBufferTable:
 972 0000 00 00 00 00             		.long	_IOM_CommandBufferExternal_0
 973 0004 00 00 00 00             		.long	_IOM_CommandBufferExternal_0_Tx
 974 0008 1C                      		.byte	28
 975 0009 00 00 00                		.zero	3
 976                             		.comm	_IOM_External_LoadsTable,24,4
 977                             		.comm	_IOM_ReadRamExternal_0,34,1
 978                             		.comm	_IOM_CommandBufferExternal_0_Tx,28,1
 979                             		.comm	_IOM_CommandBufferExternal_0,28,1
 980                             		.section	.bss.ExternalBoardCounter,"aw",@nobits
 983                             	_ExternalBoardCounter:
 984 0000 00                      		.zero	1
 1230                             	.Letext0:
 1231                             		.file 2 "C:\\Workspace\\FW_Platform2_5\\trunk\\HAL\\HAL_General/StandardTypes.h"
 1232                             		.file 3 "C:\\Workspace\\FW_Platform2_5\\trunk\\PlatformLibrary\\LIB_Error/LIB_Error.h"
 1233                             		.file 4 "C:/Workspace/FW_Platform2_5/trunk/PlatformLibrary/LIB_IOManager/OutputManagerExp.h"
 1234                             		.file 5 "C:/Workspace/FW_Platform2_5/trunk/PlatformLibrary/LIB_IOManager/OutputManager.h"
 1235                             		.file 6 "C:\\Workspace\\FW_Platform2_5\\trunk\\CFG_DishWasher\\CFG_Inertia/Config.h"
