   1                             		.file	"Feedbacks.c"
   2                             		.section P,"ax"
   3                             	.Ltext0:
   4                             		.section	.text.LIB_FDB_FeedbackInitMeasure,"ax",@progbits
   5                             		.global	_LIB_FDB_FeedbackInitMeasure
   7                             	_LIB_FDB_FeedbackInitMeasure:
   8                             	.LFB0:
   9                             		.file 1 "C:/Workspace/FW_Platform2_5/trunk/PlatformLibrary/LIB_Feedbacks/Feedbacks.c"
   1:C:/Workspace/FW_Platform2_5/trunk/PlatformLibrary/LIB_Feedbacks\Feedbacks.c **** /*
   2:C:/Workspace/FW_Platform2_5/trunk/PlatformLibrary/LIB_Feedbacks\Feedbacks.c **** Copyright (c) 2004-2005, Indesit Company, I.D.D..
   3:C:/Workspace/FW_Platform2_5/trunk/PlatformLibrary/LIB_Feedbacks\Feedbacks.c **** Tutti i diritti sono riservati. All rights reserved.
   4:C:/Workspace/FW_Platform2_5/trunk/PlatformLibrary/LIB_Feedbacks\Feedbacks.c **** */
   5:C:/Workspace/FW_Platform2_5/trunk/PlatformLibrary/LIB_Feedbacks\Feedbacks.c **** 
   6:C:/Workspace/FW_Platform2_5/trunk/PlatformLibrary/LIB_Feedbacks\Feedbacks.c **** /**
   7:C:/Workspace/FW_Platform2_5/trunk/PlatformLibrary/LIB_Feedbacks\Feedbacks.c **** \n
   8:C:/Workspace/FW_Platform2_5/trunk/PlatformLibrary/LIB_Feedbacks\Feedbacks.c **** \par		Feedbacks.c
   9:C:/Workspace/FW_Platform2_5/trunk/PlatformLibrary/LIB_Feedbacks\Feedbacks.c **** \n			Implementation of all functions necessary to achieve the aim.
  10:C:/Workspace/FW_Platform2_5/trunk/PlatformLibrary/LIB_Feedbacks\Feedbacks.c **** \n
  11:C:/Workspace/FW_Platform2_5/trunk/PlatformLibrary/LIB_Feedbacks\Feedbacks.c **** \file		Feedbacks.c
  12:C:/Workspace/FW_Platform2_5/trunk/PlatformLibrary/LIB_Feedbacks\Feedbacks.c **** \ingroup	LIB_Feedbacks
  13:C:/Workspace/FW_Platform2_5/trunk/PlatformLibrary/LIB_Feedbacks\Feedbacks.c **** \date		Nov 2, 2010
  14:C:/Workspace/FW_Platform2_5/trunk/PlatformLibrary/LIB_Feedbacks\Feedbacks.c **** \version	01.00.00
  15:C:/Workspace/FW_Platform2_5/trunk/PlatformLibrary/LIB_Feedbacks\Feedbacks.c **** \author		stefano.ughi
  16:C:/Workspace/FW_Platform2_5/trunk/PlatformLibrary/LIB_Feedbacks\Feedbacks.c **** \n
  17:C:/Workspace/FW_Platform2_5/trunk/PlatformLibrary/LIB_Feedbacks\Feedbacks.c **** \n
  18:C:/Workspace/FW_Platform2_5/trunk/PlatformLibrary/LIB_Feedbacks\Feedbacks.c **** \par\b	History:
  19:C:/Workspace/FW_Platform2_5/trunk/PlatformLibrary/LIB_Feedbacks\Feedbacks.c **** \n
  20:C:/Workspace/FW_Platform2_5/trunk/PlatformLibrary/LIB_Feedbacks\Feedbacks.c **** \n 		01.00.01
  21:C:/Workspace/FW_Platform2_5/trunk/PlatformLibrary/LIB_Feedbacks\Feedbacks.c **** \n		Apr 18, 2010
  22:C:/Workspace/FW_Platform2_5/trunk/PlatformLibrary/LIB_Feedbacks\Feedbacks.c **** \n		stefano.ughi
  23:C:/Workspace/FW_Platform2_5/trunk/PlatformLibrary/LIB_Feedbacks\Feedbacks.c **** \n		changes
  24:C:/Workspace/FW_Platform2_5/trunk/PlatformLibrary/LIB_Feedbacks\Feedbacks.c **** \n         - in LIB_FDB_Manager() added support for Zero Crossing Voltage signal on I.C.U. pin
  25:C:/Workspace/FW_Platform2_5/trunk/PlatformLibrary/LIB_Feedbacks\Feedbacks.c **** \n
  26:C:/Workspace/FW_Platform2_5/trunk/PlatformLibrary/LIB_Feedbacks\Feedbacks.c **** \n 		01.00.00
  27:C:/Workspace/FW_Platform2_5/trunk/PlatformLibrary/LIB_Feedbacks\Feedbacks.c **** \n		Nov 2, 2010
  28:C:/Workspace/FW_Platform2_5/trunk/PlatformLibrary/LIB_Feedbacks\Feedbacks.c **** \n		stefano.ughi
  29:C:/Workspace/FW_Platform2_5/trunk/PlatformLibrary/LIB_Feedbacks\Feedbacks.c **** \n		changes
  30:C:/Workspace/FW_Platform2_5/trunk/PlatformLibrary/LIB_Feedbacks\Feedbacks.c **** \n          Creation
  31:C:/Workspace/FW_Platform2_5/trunk/PlatformLibrary/LIB_Feedbacks\Feedbacks.c **** \n
  32:C:/Workspace/FW_Platform2_5/trunk/PlatformLibrary/LIB_Feedbacks\Feedbacks.c **** */
  33:C:/Workspace/FW_Platform2_5/trunk/PlatformLibrary/LIB_Feedbacks\Feedbacks.c **** 
  34:C:/Workspace/FW_Platform2_5/trunk/PlatformLibrary/LIB_Feedbacks\Feedbacks.c **** #define MODULE_BODY_LIB_FEEDBACKS
  35:C:/Workspace/FW_Platform2_5/trunk/PlatformLibrary/LIB_Feedbacks\Feedbacks.c **** /* ******** */
  36:C:/Workspace/FW_Platform2_5/trunk/PlatformLibrary/LIB_Feedbacks\Feedbacks.c **** /* Includes */
  37:C:/Workspace/FW_Platform2_5/trunk/PlatformLibrary/LIB_Feedbacks\Feedbacks.c **** /* ******** */
  38:C:/Workspace/FW_Platform2_5/trunk/PlatformLibrary/LIB_Feedbacks\Feedbacks.c **** #include "Config.h"
  39:C:/Workspace/FW_Platform2_5/trunk/PlatformLibrary/LIB_Feedbacks\Feedbacks.c **** #include <string.h>
  40:C:/Workspace/FW_Platform2_5/trunk/PlatformLibrary/LIB_Feedbacks\Feedbacks.c **** #include <stdlib.h>
  41:C:/Workspace/FW_Platform2_5/trunk/PlatformLibrary/LIB_Feedbacks\Feedbacks.c **** #include "Feedbacks.h"
  42:C:/Workspace/FW_Platform2_5/trunk/PlatformLibrary/LIB_Feedbacks\Feedbacks.c **** #include "OCDIO_drv.h"
  43:C:/Workspace/FW_Platform2_5/trunk/PlatformLibrary/LIB_Feedbacks\Feedbacks.c **** #include "OCTPM_drv.h"
  44:C:/Workspace/FW_Platform2_5/trunk/PlatformLibrary/LIB_Feedbacks\Feedbacks.c **** #include "OCIRQ_drv.h"
  45:C:/Workspace/FW_Platform2_5/trunk/PlatformLibrary/LIB_Feedbacks\Feedbacks.c **** #include "DigitalInputs.h"
  46:C:/Workspace/FW_Platform2_5/trunk/PlatformLibrary/LIB_Feedbacks\Feedbacks.c **** #include "LIB_Error.h"
  47:C:/Workspace/FW_Platform2_5/trunk/PlatformLibrary/LIB_Feedbacks\Feedbacks.c **** #include "InputManagerExp.h"
  48:C:/Workspace/FW_Platform2_5/trunk/PlatformLibrary/LIB_Feedbacks\Feedbacks.c **** #include "IOSharing.h"
  49:C:/Workspace/FW_Platform2_5/trunk/PlatformLibrary/LIB_Feedbacks\Feedbacks.c **** #include "LIB_ClassBVar.h"
  50:C:/Workspace/FW_Platform2_5/trunk/PlatformLibrary/LIB_Feedbacks\Feedbacks.c **** #include "LIB_Trace.h"
  51:C:/Workspace/FW_Platform2_5/trunk/PlatformLibrary/LIB_Feedbacks\Feedbacks.c **** 
  52:C:/Workspace/FW_Platform2_5/trunk/PlatformLibrary/LIB_Feedbacks\Feedbacks.c **** /* ****************** */
  53:C:/Workspace/FW_Platform2_5/trunk/PlatformLibrary/LIB_Feedbacks\Feedbacks.c **** /* Defines and Macros */
  54:C:/Workspace/FW_Platform2_5/trunk/PlatformLibrary/LIB_Feedbacks\Feedbacks.c **** /* ****************** */
  55:C:/Workspace/FW_Platform2_5/trunk/PlatformLibrary/LIB_Feedbacks\Feedbacks.c **** 
  56:C:/Workspace/FW_Platform2_5/trunk/PlatformLibrary/LIB_Feedbacks\Feedbacks.c **** /** All feedbacks are not ready */
  57:C:/Workspace/FW_Platform2_5/trunk/PlatformLibrary/LIB_Feedbacks\Feedbacks.c **** #define FDB_ALL_ARE_NOT_READY   ((feedbackBitfield_t)0u)
  58:C:/Workspace/FW_Platform2_5/trunk/PlatformLibrary/LIB_Feedbacks\Feedbacks.c **** /** Reading of all feedbacks is enabled */
  59:C:/Workspace/FW_Platform2_5/trunk/PlatformLibrary/LIB_Feedbacks\Feedbacks.c **** #define FDB_ALL_READ_ENABLED    ((feedbackBitfield_t)0u)
  60:C:/Workspace/FW_Platform2_5/trunk/PlatformLibrary/LIB_Feedbacks\Feedbacks.c **** /** Feedback's value is indeterminate */
  61:C:/Workspace/FW_Platform2_5/trunk/PlatformLibrary/LIB_Feedbacks\Feedbacks.c **** #define FDB_INDETERMINATE       0xFF
  62:C:/Workspace/FW_Platform2_5/trunk/PlatformLibrary/LIB_Feedbacks\Feedbacks.c **** 
  63:C:/Workspace/FW_Platform2_5/trunk/PlatformLibrary/LIB_Feedbacks\Feedbacks.c **** /* *************************** */
  64:C:/Workspace/FW_Platform2_5/trunk/PlatformLibrary/LIB_Feedbacks\Feedbacks.c **** /* Typedef, Structs and Unions */
  65:C:/Workspace/FW_Platform2_5/trunk/PlatformLibrary/LIB_Feedbacks\Feedbacks.c **** /* *************************** */
  66:C:/Workspace/FW_Platform2_5/trunk/PlatformLibrary/LIB_Feedbacks\Feedbacks.c **** /*lint -esym( 754,FDB_descriptorType_tag::w ) w not referenced */
  67:C:/Workspace/FW_Platform2_5/trunk/PlatformLibrary/LIB_Feedbacks\Feedbacks.c **** /*lint -esym( 754,free ) free not referenced */
  68:C:/Workspace/FW_Platform2_5/trunk/PlatformLibrary/LIB_Feedbacks\Feedbacks.c **** 
  69:C:/Workspace/FW_Platform2_5/trunk/PlatformLibrary/LIB_Feedbacks\Feedbacks.c **** /**
  70:C:/Workspace/FW_Platform2_5/trunk/PlatformLibrary/LIB_Feedbacks\Feedbacks.c **** Feedback's descriptor
  71:C:/Workspace/FW_Platform2_5/trunk/PlatformLibrary/LIB_Feedbacks\Feedbacks.c **** */
  72:C:/Workspace/FW_Platform2_5/trunk/PlatformLibrary/LIB_Feedbacks\Feedbacks.c **** typedef union FDB_descriptorType_tag
  73:C:/Workspace/FW_Platform2_5/trunk/PlatformLibrary/LIB_Feedbacks\Feedbacks.c **** {
  74:C:/Workspace/FW_Platform2_5/trunk/PlatformLibrary/LIB_Feedbacks\Feedbacks.c ****     /** word's access */
  75:C:/Workspace/FW_Platform2_5/trunk/PlatformLibrary/LIB_Feedbacks\Feedbacks.c ****     uint16_t w;
  76:C:/Workspace/FW_Platform2_5/trunk/PlatformLibrary/LIB_Feedbacks\Feedbacks.c ****     /** bit's access */
  77:C:/Workspace/FW_Platform2_5/trunk/PlatformLibrary/LIB_Feedbacks\Feedbacks.c ****     struct
  78:C:/Workspace/FW_Platform2_5/trunk/PlatformLibrary/LIB_Feedbacks\Feedbacks.c ****     {
  79:C:/Workspace/FW_Platform2_5/trunk/PlatformLibrary/LIB_Feedbacks\Feedbacks.c ****         /** If '1' the feedback is updated */
  80:C:/Workspace/FW_Platform2_5/trunk/PlatformLibrary/LIB_Feedbacks\Feedbacks.c ****         uint8_t active:1;
  81:C:/Workspace/FW_Platform2_5/trunk/PlatformLibrary/LIB_Feedbacks\Feedbacks.c ****         /** If '1' feedback read through multiplexer if '0' direct */
  82:C:/Workspace/FW_Platform2_5/trunk/PlatformLibrary/LIB_Feedbacks\Feedbacks.c ****         uint8_t readtype:1;
  83:C:/Workspace/FW_Platform2_5/trunk/PlatformLibrary/LIB_Feedbacks\Feedbacks.c ****         /** Multiplexer's configuration for feedback's reading */
  84:C:/Workspace/FW_Platform2_5/trunk/PlatformLibrary/LIB_Feedbacks\Feedbacks.c ****         uint8_t chsel:3;
  85:C:/Workspace/FW_Platform2_5/trunk/PlatformLibrary/LIB_Feedbacks\Feedbacks.c ****         /** Pull-up enable */
  86:C:/Workspace/FW_Platform2_5/trunk/PlatformLibrary/LIB_Feedbacks\Feedbacks.c ****         uint8_t pullupEn:1;
  87:C:/Workspace/FW_Platform2_5/trunk/PlatformLibrary/LIB_Feedbacks\Feedbacks.c ****         /** Unused */
  88:C:/Workspace/FW_Platform2_5/trunk/PlatformLibrary/LIB_Feedbacks\Feedbacks.c ****         uint8_t free:2;
  89:C:/Workspace/FW_Platform2_5/trunk/PlatformLibrary/LIB_Feedbacks\Feedbacks.c ****         /** If '1' feedback is linked to a partializated load */
  90:C:/Workspace/FW_Platform2_5/trunk/PlatformLibrary/LIB_Feedbacks\Feedbacks.c ****         uint8_t loadP:1;
  91:C:/Workspace/FW_Platform2_5/trunk/PlatformLibrary/LIB_Feedbacks\Feedbacks.c ****         /** Pin of the linkage module minus 1 linked to the feedback */
  92:C:/Workspace/FW_Platform2_5/trunk/PlatformLibrary/LIB_Feedbacks\Feedbacks.c ****         uint8_t pin:6;
  93:C:/Workspace/FW_Platform2_5/trunk/PlatformLibrary/LIB_Feedbacks\Feedbacks.c ****         /** If '1' reading inverted */
  94:C:/Workspace/FW_Platform2_5/trunk/PlatformLibrary/LIB_Feedbacks\Feedbacks.c ****         uint8_t actvsense:1;
  95:C:/Workspace/FW_Platform2_5/trunk/PlatformLibrary/LIB_Feedbacks\Feedbacks.c ****     } s;
  96:C:/Workspace/FW_Platform2_5/trunk/PlatformLibrary/LIB_Feedbacks\Feedbacks.c **** } FDB_descriptorType;
  97:C:/Workspace/FW_Platform2_5/trunk/PlatformLibrary/LIB_Feedbacks\Feedbacks.c **** 
  98:C:/Workspace/FW_Platform2_5/trunk/PlatformLibrary/LIB_Feedbacks\Feedbacks.c **** typedef struct
  99:C:/Workspace/FW_Platform2_5/trunk/PlatformLibrary/LIB_Feedbacks\Feedbacks.c **** {
 100:C:/Workspace/FW_Platform2_5/trunk/PlatformLibrary/LIB_Feedbacks\Feedbacks.c ****     uint8_t cntSamples;
 101:C:/Workspace/FW_Platform2_5/trunk/PlatformLibrary/LIB_Feedbacks\Feedbacks.c ****     int8_t cntVal;
 102:C:/Workspace/FW_Platform2_5/trunk/PlatformLibrary/LIB_Feedbacks\Feedbacks.c ****     int8_t cntZCmatch;
 103:C:/Workspace/FW_Platform2_5/trunk/PlatformLibrary/LIB_Feedbacks\Feedbacks.c ****     unsigned int  ready: 1; /*  indicating if feedback is ready */
 104:C:/Workspace/FW_Platform2_5/trunk/PlatformLibrary/LIB_Feedbacks\Feedbacks.c ****     unsigned int  readyWritable: 1;
 105:C:/Workspace/FW_Platform2_5/trunk/PlatformLibrary/LIB_Feedbacks\Feedbacks.c **** } FDB_StatusType;
 106:C:/Workspace/FW_Platform2_5/trunk/PlatformLibrary/LIB_Feedbacks\Feedbacks.c **** 
 107:C:/Workspace/FW_Platform2_5/trunk/PlatformLibrary/LIB_Feedbacks\Feedbacks.c **** /* **************************** */
 108:C:/Workspace/FW_Platform2_5/trunk/PlatformLibrary/LIB_Feedbacks\Feedbacks.c **** /* Prototype of local functions */
 109:C:/Workspace/FW_Platform2_5/trunk/PlatformLibrary/LIB_Feedbacks\Feedbacks.c **** /* **************************** */
 110:C:/Workspace/FW_Platform2_5/trunk/PlatformLibrary/LIB_Feedbacks\Feedbacks.c **** 
 111:C:/Workspace/FW_Platform2_5/trunk/PlatformLibrary/LIB_Feedbacks\Feedbacks.c **** /* ****************** */
 112:C:/Workspace/FW_Platform2_5/trunk/PlatformLibrary/LIB_Feedbacks\Feedbacks.c **** /* Exported variables */
 113:C:/Workspace/FW_Platform2_5/trunk/PlatformLibrary/LIB_Feedbacks\Feedbacks.c **** /* ****************** */
 114:C:/Workspace/FW_Platform2_5/trunk/PlatformLibrary/LIB_Feedbacks\Feedbacks.c **** 
 115:C:/Workspace/FW_Platform2_5/trunk/PlatformLibrary/LIB_Feedbacks\Feedbacks.c **** /* **************** */
 116:C:/Workspace/FW_Platform2_5/trunk/PlatformLibrary/LIB_Feedbacks\Feedbacks.c **** /* Global variables */
 117:C:/Workspace/FW_Platform2_5/trunk/PlatformLibrary/LIB_Feedbacks\Feedbacks.c **** /* **************** */
 118:C:/Workspace/FW_Platform2_5/trunk/PlatformLibrary/LIB_Feedbacks\Feedbacks.c **** /** The output of the module */
 119:C:/Workspace/FW_Platform2_5/trunk/PlatformLibrary/LIB_Feedbacks\Feedbacks.c **** uint8_t Feedback[N_FEEDBACK];
 120:C:/Workspace/FW_Platform2_5/trunk/PlatformLibrary/LIB_Feedbacks\Feedbacks.c **** /** Feedback's Descriptor */
 121:C:/Workspace/FW_Platform2_5/trunk/PlatformLibrary/LIB_Feedbacks\Feedbacks.c **** feedbackBitfield_t FeedbackInputDisable;
 122:C:/Workspace/FW_Platform2_5/trunk/PlatformLibrary/LIB_Feedbacks\Feedbacks.c **** static FDB_descriptorType FeedbackDescriptor[N_FEEDBACK];
 123:C:/Workspace/FW_Platform2_5/trunk/PlatformLibrary/LIB_Feedbacks\Feedbacks.c **** FDB_StatusType FeedbackStatus[N_FEEDBACK];
 124:C:/Workspace/FW_Platform2_5/trunk/PlatformLibrary/LIB_Feedbacks\Feedbacks.c **** 
 125:C:/Workspace/FW_Platform2_5/trunk/PlatformLibrary/LIB_Feedbacks\Feedbacks.c **** /**
 126:C:/Workspace/FW_Platform2_5/trunk/PlatformLibrary/LIB_Feedbacks\Feedbacks.c ****  * LIB_FDB_FeedbackInitMeasure
 127:C:/Workspace/FW_Platform2_5/trunk/PlatformLibrary/LIB_Feedbacks\Feedbacks.c ****  * \param  [in] pos feedback position described inside Setting File
 128:C:/Workspace/FW_Platform2_5/trunk/PlatformLibrary/LIB_Feedbacks\Feedbacks.c ****  *
 129:C:/Workspace/FW_Platform2_5/trunk/PlatformLibrary/LIB_Feedbacks\Feedbacks.c ****  **/
 130:C:/Workspace/FW_Platform2_5/trunk/PlatformLibrary/LIB_Feedbacks\Feedbacks.c **** void LIB_FDB_FeedbackInitMeasure(uint8_t pos)
 131:C:/Workspace/FW_Platform2_5/trunk/PlatformLibrary/LIB_Feedbacks\Feedbacks.c **** {
  10                             		.loc 1 131 0
  11                             	.LVL0:
 132:C:/Workspace/FW_Platform2_5/trunk/PlatformLibrary/LIB_Feedbacks\Feedbacks.c ****     if ( pos < N_FEEDBACK )
  12                             		.loc 1 132 0
  13 0000 5B 11                   		movu.B	r1, r1
  14 0002 61 71                   		cmp	#7, r1
  15 0004 24 1F                   		bgtu	.L2
 133:C:/Workspace/FW_Platform2_5/trunk/PlatformLibrary/LIB_Feedbacks\Feedbacks.c ****     {
 134:C:/Workspace/FW_Platform2_5/trunk/PlatformLibrary/LIB_Feedbacks\Feedbacks.c ****         SAFETY_REGION_START();
 135:C:/Workspace/FW_Platform2_5/trunk/PlatformLibrary/LIB_Feedbacks\Feedbacks.c ****         SAFETY_DATA_ELEM_CHECK( FeedbackStatus, pos);
 136:C:/Workspace/FW_Platform2_5/trunk/PlatformLibrary/LIB_Feedbacks\Feedbacks.c **** 
 137:C:/Workspace/FW_Platform2_5/trunk/PlatformLibrary/LIB_Feedbacks\Feedbacks.c ****         /* Disable feedback's reading */
 138:C:/Workspace/FW_Platform2_5/trunk/PlatformLibrary/LIB_Feedbacks\Feedbacks.c ****         FeedbackStatus[pos].cntSamples = 0;
  16                             		.loc 1 138 0
  17 0006 FD C3 1E                		shll	#3, r1, r14
  18 0009 70 EE 00 00 00 00       		add	#_FeedbackStatus, r14
 139:C:/Workspace/FW_Platform2_5/trunk/PlatformLibrary/LIB_Feedbacks\Feedbacks.c ****         FeedbackStatus[pos].cntZCmatch = 0;
 140:C:/Workspace/FW_Platform2_5/trunk/PlatformLibrary/LIB_Feedbacks\Feedbacks.c ****         FeedbackStatus[pos].cntVal = 0;
 141:C:/Workspace/FW_Platform2_5/trunk/PlatformLibrary/LIB_Feedbacks\Feedbacks.c ****         FeedbackStatus[pos].readyWritable = 0;
  19                             		.loc 1 141 0
  20 000f CD E4 04                		mov.B	4[r14], r4
 138:C:/Workspace/FW_Platform2_5/trunk/PlatformLibrary/LIB_Feedbacks\Feedbacks.c ****         FeedbackStatus[pos].cntSamples = 0;
  21                             		.loc 1 138 0
  22 0012 F8 E4 00                		mov.B	#0, [r14]
  23                             		.loc 1 141 0
  24 0015 7A 64                   		bclr	#6, r4
 139:C:/Workspace/FW_Platform2_5/trunk/PlatformLibrary/LIB_Feedbacks\Feedbacks.c ****         FeedbackStatus[pos].cntZCmatch = 0;
  25                             		.loc 1 139 0
  26 0017 F9 E4 02 00             		mov.B	#0, 2[r14]
 140:C:/Workspace/FW_Platform2_5/trunk/PlatformLibrary/LIB_Feedbacks\Feedbacks.c ****         FeedbackStatus[pos].cntVal = 0;
  27                             		.loc 1 140 0
  28 001b F9 E4 01 00             		mov.B	#0, 1[r14]
  29                             		.loc 1 141 0
  30 001f C7 E4 04                		mov.B	r4, 4[r14]
  31 0022 02                      		rts
  32                             	.L2:
 142:C:/Workspace/FW_Platform2_5/trunk/PlatformLibrary/LIB_Feedbacks\Feedbacks.c **** 
 143:C:/Workspace/FW_Platform2_5/trunk/PlatformLibrary/LIB_Feedbacks\Feedbacks.c ****         SAFETY_DATA_ELEM_UPDATE( FeedbackStatus, pos );
 144:C:/Workspace/FW_Platform2_5/trunk/PlatformLibrary/LIB_Feedbacks\Feedbacks.c ****         SAFETY_REGION_END();
 145:C:/Workspace/FW_Platform2_5/trunk/PlatformLibrary/LIB_Feedbacks\Feedbacks.c ****     }
 146:C:/Workspace/FW_Platform2_5/trunk/PlatformLibrary/LIB_Feedbacks\Feedbacks.c ****     else
 147:C:/Workspace/FW_Platform2_5/trunk/PlatformLibrary/LIB_Feedbacks\Feedbacks.c ****     {
 148:C:/Workspace/FW_Platform2_5/trunk/PlatformLibrary/LIB_Feedbacks\Feedbacks.c ****         PLT_ERROR_FATAL(PLT_ERROR_FEEDBACK_2);
  33                             		.loc 1 148 0
  34 0023 66 81                   		mov.L	#8, r1
  35                             	.LVL1:
  36 0025 04 00 00 00             		bra	_LIB_Error_Fatal_Handler
  37                             	.LVL2:
  38                             	.LFE0:
  40                             		.section	.text.LIB_FDB_AreFeedbackReady,"ax",@progbits
  41                             		.global	_LIB_FDB_AreFeedbackReady
  43                             	_LIB_FDB_AreFeedbackReady:
  44                             	.LFB1:
 149:C:/Workspace/FW_Platform2_5/trunk/PlatformLibrary/LIB_Feedbacks\Feedbacks.c ****     }
 150:C:/Workspace/FW_Platform2_5/trunk/PlatformLibrary/LIB_Feedbacks\Feedbacks.c **** }
 151:C:/Workspace/FW_Platform2_5/trunk/PlatformLibrary/LIB_Feedbacks\Feedbacks.c **** 
 152:C:/Workspace/FW_Platform2_5/trunk/PlatformLibrary/LIB_Feedbacks\Feedbacks.c **** /**
 153:C:/Workspace/FW_Platform2_5/trunk/PlatformLibrary/LIB_Feedbacks\Feedbacks.c **** LIB_FDB_AreFeedbackReady
 154:C:/Workspace/FW_Platform2_5/trunk/PlatformLibrary/LIB_Feedbacks\Feedbacks.c **** This function returns TRUE if all active feedbacks are ready otherwise FALSE.
 155:C:/Workspace/FW_Platform2_5/trunk/PlatformLibrary/LIB_Feedbacks\Feedbacks.c **** 
 156:C:/Workspace/FW_Platform2_5/trunk/PlatformLibrary/LIB_Feedbacks\Feedbacks.c **** \return 	bool_t
 157:C:/Workspace/FW_Platform2_5/trunk/PlatformLibrary/LIB_Feedbacks\Feedbacks.c **** 
 158:C:/Workspace/FW_Platform2_5/trunk/PlatformLibrary/LIB_Feedbacks\Feedbacks.c **** \retval		TRUE all active feedbacks are ready\n
 159:C:/Workspace/FW_Platform2_5/trunk/PlatformLibrary/LIB_Feedbacks\Feedbacks.c ****             FALSE at least one feedback is not ready
 160:C:/Workspace/FW_Platform2_5/trunk/PlatformLibrary/LIB_Feedbacks\Feedbacks.c **** 
 161:C:/Workspace/FW_Platform2_5/trunk/PlatformLibrary/LIB_Feedbacks\Feedbacks.c **** \author 	Stefano Ughi
 162:C:/Workspace/FW_Platform2_5/trunk/PlatformLibrary/LIB_Feedbacks\Feedbacks.c **** \date		Nov. 08, 2010
 163:C:/Workspace/FW_Platform2_5/trunk/PlatformLibrary/LIB_Feedbacks\Feedbacks.c **** \version	1.0.0
 164:C:/Workspace/FW_Platform2_5/trunk/PlatformLibrary/LIB_Feedbacks\Feedbacks.c **** 
 165:C:/Workspace/FW_Platform2_5/trunk/PlatformLibrary/LIB_Feedbacks\Feedbacks.c **** */
 166:C:/Workspace/FW_Platform2_5/trunk/PlatformLibrary/LIB_Feedbacks\Feedbacks.c **** bool_t LIB_FDB_AreFeedbackReady(void)
 167:C:/Workspace/FW_Platform2_5/trunk/PlatformLibrary/LIB_Feedbacks\Feedbacks.c **** {
  45                             		.loc 1 167 0
  46                             	.LVL3:
  47                             		.loc 1 167 0
  48 0000 66 0E                   		mov.L	#0, r14
  49                             	.LVL4:
  50                             		.balign 2,3,2
  51                             	.L8:
 168:C:/Workspace/FW_Platform2_5/trunk/PlatformLibrary/LIB_Feedbacks\Feedbacks.c ****     uint8_t i;
 169:C:/Workspace/FW_Platform2_5/trunk/PlatformLibrary/LIB_Feedbacks\Feedbacks.c **** 
 170:C:/Workspace/FW_Platform2_5/trunk/PlatformLibrary/LIB_Feedbacks\Feedbacks.c ****     for ( i = 0; i < N_FEEDBACK ; i++ )
 171:C:/Workspace/FW_Platform2_5/trunk/PlatformLibrary/LIB_Feedbacks\Feedbacks.c ****     {
 172:C:/Workspace/FW_Platform2_5/trunk/PlatformLibrary/LIB_Feedbacks\Feedbacks.c ****         if ( FeedbackDescriptor[i].s.active )
  52                             		.loc 1 172 0
  53 0002 FF 24 EE                		add	r14, r14, r4
  54 0005 70 44 00 00 00 00       		add	#_FeedbackDescriptor, r4
  55 000b DC 44                   		mov.W	[r4], r4
  56 000d 61 04                   		cmp	#0, r4
  57 000f 28 11                   		bge	.L6
 173:C:/Workspace/FW_Platform2_5/trunk/PlatformLibrary/LIB_Feedbacks\Feedbacks.c ****         {
 174:C:/Workspace/FW_Platform2_5/trunk/PlatformLibrary/LIB_Feedbacks\Feedbacks.c ****             if ( FeedbackStatus[i].ready  == 0 )
  58                             		.loc 1 174 0
  59 0011 FD C3 E4                		shll	#3, r14, r4
  60 0014 70 44 00 00 00 00       		add	#_FeedbackStatus, r4
  61 001a A8 49                   		mov.L	4[r4], r1
  62 001c 69 F1                   		shlr	#31, r1
  63 001e 20 0A                   		beq	.L7
  64                             		.balign 2,3,1
  65                             	.L6:
  66 0020 62 1E                   		add	#1, r14
 170:C:/Workspace/FW_Platform2_5/trunk/PlatformLibrary/LIB_Feedbacks\Feedbacks.c ****     for ( i = 0; i < N_FEEDBACK ; i++ )
  67                             		.loc 1 170 0
  68 0022 61 8E                   		cmp	#8, r14
  69 0024 21 DE                   		bne	.L8
 175:C:/Workspace/FW_Platform2_5/trunk/PlatformLibrary/LIB_Feedbacks\Feedbacks.c ****             {
 176:C:/Workspace/FW_Platform2_5/trunk/PlatformLibrary/LIB_Feedbacks\Feedbacks.c ****                 return FALSE;
 177:C:/Workspace/FW_Platform2_5/trunk/PlatformLibrary/LIB_Feedbacks\Feedbacks.c ****             }
 178:C:/Workspace/FW_Platform2_5/trunk/PlatformLibrary/LIB_Feedbacks\Feedbacks.c ****         }
 179:C:/Workspace/FW_Platform2_5/trunk/PlatformLibrary/LIB_Feedbacks\Feedbacks.c ****     }
 180:C:/Workspace/FW_Platform2_5/trunk/PlatformLibrary/LIB_Feedbacks\Feedbacks.c ****     return TRUE;
  70                             		.loc 1 180 0
  71 0026 66 11                   		mov.L	#1, r1
  72                             	.L7:
 181:C:/Workspace/FW_Platform2_5/trunk/PlatformLibrary/LIB_Feedbacks\Feedbacks.c **** }
  73                             		.loc 1 181 0
  74 0028 02                      		rts
  75                             	.LFE1:
  77 0029 03                      		.section	.text.LIB_FDB_InitSync,"ax",@progbits
  78                             		.global	_LIB_FDB_InitSync
  80                             	_LIB_FDB_InitSync:
  81                             	.LFB2:
 182:C:/Workspace/FW_Platform2_5/trunk/PlatformLibrary/LIB_Feedbacks\Feedbacks.c **** 
 183:C:/Workspace/FW_Platform2_5/trunk/PlatformLibrary/LIB_Feedbacks\Feedbacks.c **** /** TODO: LIB_FDB_InitSync doc */
 184:C:/Workspace/FW_Platform2_5/trunk/PlatformLibrary/LIB_Feedbacks\Feedbacks.c **** void LIB_FDB_InitSync(void)
 185:C:/Workspace/FW_Platform2_5/trunk/PlatformLibrary/LIB_Feedbacks\Feedbacks.c **** {
  82                             		.loc 1 185 0
 186:C:/Workspace/FW_Platform2_5/trunk/PlatformLibrary/LIB_Feedbacks\Feedbacks.c ****     int i;
 187:C:/Workspace/FW_Platform2_5/trunk/PlatformLibrary/LIB_Feedbacks\Feedbacks.c **** 
 188:C:/Workspace/FW_Platform2_5/trunk/PlatformLibrary/LIB_Feedbacks\Feedbacks.c ****     SAFETY_REGION_START();
 189:C:/Workspace/FW_Platform2_5/trunk/PlatformLibrary/LIB_Feedbacks\Feedbacks.c **** 
 190:C:/Workspace/FW_Platform2_5/trunk/PlatformLibrary/LIB_Feedbacks\Feedbacks.c ****     FeedbackInputDisable = FDB_ALL_READ_ENABLED;
  83                             		.loc 1 190 0
  84 0000 FB E2 00 00 00 00       		mov.L	#_FeedbackInputDisable, r14
  85 0006 F8 E4 00                		mov.B	#0, [r14]
 191:C:/Workspace/FW_Platform2_5/trunk/PlatformLibrary/LIB_Feedbacks\Feedbacks.c **** 
 192:C:/Workspace/FW_Platform2_5/trunk/PlatformLibrary/LIB_Feedbacks\Feedbacks.c ****     (void)memset(&FeedbackDescriptor[0], 0, sizeof(FeedbackDescriptor));
  86                             		.loc 1 192 0
  87 0009 FB 12 00 00 00 00       		mov.L	#_FeedbackDescriptor, r1
  88 000f 75 43 10                		mov.L	#16, r3
  89 0012 66 02                   		mov	#0, r2
  90 0014 7F 88                   		sstr.b
 193:C:/Workspace/FW_Platform2_5/trunk/PlatformLibrary/LIB_Feedbacks\Feedbacks.c **** 
 194:C:/Workspace/FW_Platform2_5/trunk/PlatformLibrary/LIB_Feedbacks\Feedbacks.c ****     (void)memset(&FeedbackStatus[0], 0, sizeof(FDB_StatusType));
  91                             		.loc 1 194 0
  92 0016 FB 12 00 00 00 00       		mov.L	#_FeedbackStatus, r1
  93 001c 66 83                   		mov.L	#8, r3
  94 001e 7F 88                   		sstr.b
  95                             	.LVL5:
  96 0020 02                      		rts
  97                             	.LFE2:
  99                             		.section	.text.LIB_FDB_GetFeedbackVal,"ax",@progbits
 100                             		.global	_LIB_FDB_GetFeedbackVal
 102                             	_LIB_FDB_GetFeedbackVal:
 103                             	.LFB3:
 195:C:/Workspace/FW_Platform2_5/trunk/PlatformLibrary/LIB_Feedbacks\Feedbacks.c **** 
 196:C:/Workspace/FW_Platform2_5/trunk/PlatformLibrary/LIB_Feedbacks\Feedbacks.c ****     for(i=0; i<N_FEEDBACK; i++)
 197:C:/Workspace/FW_Platform2_5/trunk/PlatformLibrary/LIB_Feedbacks\Feedbacks.c ****     {
 198:C:/Workspace/FW_Platform2_5/trunk/PlatformLibrary/LIB_Feedbacks\Feedbacks.c ****         SAFETY_DATA_ELEM_UPDATE( Feedback, i );
 199:C:/Workspace/FW_Platform2_5/trunk/PlatformLibrary/LIB_Feedbacks\Feedbacks.c ****         SAFETY_DATA_ELEM_UPDATE( FeedbackStatus,i);
 200:C:/Workspace/FW_Platform2_5/trunk/PlatformLibrary/LIB_Feedbacks\Feedbacks.c ****         SAFETY_DATA_ELEM_UPDATE( FeedbackDescriptor, i);
 201:C:/Workspace/FW_Platform2_5/trunk/PlatformLibrary/LIB_Feedbacks\Feedbacks.c ****     }
 202:C:/Workspace/FW_Platform2_5/trunk/PlatformLibrary/LIB_Feedbacks\Feedbacks.c ****     SAFETY_DATA_UPDATE( FeedbackInputDisable );
 203:C:/Workspace/FW_Platform2_5/trunk/PlatformLibrary/LIB_Feedbacks\Feedbacks.c ****     SAFETY_REGION_END();
 204:C:/Workspace/FW_Platform2_5/trunk/PlatformLibrary/LIB_Feedbacks\Feedbacks.c **** }
 205:C:/Workspace/FW_Platform2_5/trunk/PlatformLibrary/LIB_Feedbacks\Feedbacks.c **** 
 206:C:/Workspace/FW_Platform2_5/trunk/PlatformLibrary/LIB_Feedbacks\Feedbacks.c **** /**
 207:C:/Workspace/FW_Platform2_5/trunk/PlatformLibrary/LIB_Feedbacks\Feedbacks.c **** LIB_FDB_GetFeedbackVal
 208:C:/Workspace/FW_Platform2_5/trunk/PlatformLibrary/LIB_Feedbacks\Feedbacks.c **** This function returns feedback's value on the position "pos"
 209:C:/Workspace/FW_Platform2_5/trunk/PlatformLibrary/LIB_Feedbacks\Feedbacks.c **** 
 210:C:/Workspace/FW_Platform2_5/trunk/PlatformLibrary/LIB_Feedbacks\Feedbacks.c **** \param  [in]    pos feedback's position, the position is that of setting's file.
 211:C:/Workspace/FW_Platform2_5/trunk/PlatformLibrary/LIB_Feedbacks\Feedbacks.c **** 
 212:C:/Workspace/FW_Platform2_5/trunk/PlatformLibrary/LIB_Feedbacks\Feedbacks.c **** \return     uint8_t
 213:C:/Workspace/FW_Platform2_5/trunk/PlatformLibrary/LIB_Feedbacks\Feedbacks.c **** 
 214:C:/Workspace/FW_Platform2_5/trunk/PlatformLibrary/LIB_Feedbacks\Feedbacks.c **** \retval     FDB_INPUT_LOW
 215:C:/Workspace/FW_Platform2_5/trunk/PlatformLibrary/LIB_Feedbacks\Feedbacks.c **** \retval     FDB_INPUT_HI
 216:C:/Workspace/FW_Platform2_5/trunk/PlatformLibrary/LIB_Feedbacks\Feedbacks.c **** \retval     FDB_INPUT_FREQ_OPP_PHASE
 217:C:/Workspace/FW_Platform2_5/trunk/PlatformLibrary/LIB_Feedbacks\Feedbacks.c **** \retval     FDB_INPUT_FREQ_PHASE
 218:C:/Workspace/FW_Platform2_5/trunk/PlatformLibrary/LIB_Feedbacks\Feedbacks.c **** 
 219:C:/Workspace/FW_Platform2_5/trunk/PlatformLibrary/LIB_Feedbacks\Feedbacks.c **** \author 	Stefano Ughi
 220:C:/Workspace/FW_Platform2_5/trunk/PlatformLibrary/LIB_Feedbacks\Feedbacks.c **** \date		Nov. 08, 2010
 221:C:/Workspace/FW_Platform2_5/trunk/PlatformLibrary/LIB_Feedbacks\Feedbacks.c **** \version	1.0.0
 222:C:/Workspace/FW_Platform2_5/trunk/PlatformLibrary/LIB_Feedbacks\Feedbacks.c **** 
 223:C:/Workspace/FW_Platform2_5/trunk/PlatformLibrary/LIB_Feedbacks\Feedbacks.c **** */
 224:C:/Workspace/FW_Platform2_5/trunk/PlatformLibrary/LIB_Feedbacks\Feedbacks.c **** uint8_t LIB_FDB_GetFeedbackVal(uint8_t pos)
 225:C:/Workspace/FW_Platform2_5/trunk/PlatformLibrary/LIB_Feedbacks\Feedbacks.c **** {
 104                             		.loc 1 225 0
 105                             	.LVL6:
 226:C:/Workspace/FW_Platform2_5/trunk/PlatformLibrary/LIB_Feedbacks\Feedbacks.c ****     return Feedback[pos];
 106                             		.loc 1 226 0
 107 0000 5B 11                   		movu.B	r1, r1
 108 0002 70 11 00 00 00 00       		add	#_Feedback, r1
 109                             	.LVL7:
 227:C:/Workspace/FW_Platform2_5/trunk/PlatformLibrary/LIB_Feedbacks\Feedbacks.c **** }
 110                             		.loc 1 227 0
 111 0008 58 11                   		movu.B	[r1], r1
 112                             	.LVL8:
 113 000a 02                      		rts
 114                             	.LFE3:
 116                             		.section	.text.LIB_FDB_GetFeedbackInput,"ax",@progbits
 117                             		.global	_LIB_FDB_GetFeedbackInput
 119                             	_LIB_FDB_GetFeedbackInput:
 120                             	.LFB4:
 228:C:/Workspace/FW_Platform2_5/trunk/PlatformLibrary/LIB_Feedbacks\Feedbacks.c **** 
 229:C:/Workspace/FW_Platform2_5/trunk/PlatformLibrary/LIB_Feedbacks\Feedbacks.c **** /**
 230:C:/Workspace/FW_Platform2_5/trunk/PlatformLibrary/LIB_Feedbacks\Feedbacks.c **** LIB_FDB_GetFeedbackInput
 231:C:/Workspace/FW_Platform2_5/trunk/PlatformLibrary/LIB_Feedbacks\Feedbacks.c **** This function, fixed feedback's position, returns the value of the pin linked to the feedback.
 232:C:/Workspace/FW_Platform2_5/trunk/PlatformLibrary/LIB_Feedbacks\Feedbacks.c **** 
 233:C:/Workspace/FW_Platform2_5/trunk/PlatformLibrary/LIB_Feedbacks\Feedbacks.c **** \param  [in] pos feedback's position, the position is that of setting's file.
 234:C:/Workspace/FW_Platform2_5/trunk/PlatformLibrary/LIB_Feedbacks\Feedbacks.c **** 
 235:C:/Workspace/FW_Platform2_5/trunk/PlatformLibrary/LIB_Feedbacks\Feedbacks.c **** \return 	bool_t
 236:C:/Workspace/FW_Platform2_5/trunk/PlatformLibrary/LIB_Feedbacks\Feedbacks.c **** 
 237:C:/Workspace/FW_Platform2_5/trunk/PlatformLibrary/LIB_Feedbacks\Feedbacks.c **** \retval		TRUE pin is high
 238:C:/Workspace/FW_Platform2_5/trunk/PlatformLibrary/LIB_Feedbacks\Feedbacks.c **** \retval     FALSE pin is low
 239:C:/Workspace/FW_Platform2_5/trunk/PlatformLibrary/LIB_Feedbacks\Feedbacks.c **** 
 240:C:/Workspace/FW_Platform2_5/trunk/PlatformLibrary/LIB_Feedbacks\Feedbacks.c **** \author 	Stefano Ughi
 241:C:/Workspace/FW_Platform2_5/trunk/PlatformLibrary/LIB_Feedbacks\Feedbacks.c **** \date		Nov. 08, 2010
 242:C:/Workspace/FW_Platform2_5/trunk/PlatformLibrary/LIB_Feedbacks\Feedbacks.c **** \version	1.0.0
 243:C:/Workspace/FW_Platform2_5/trunk/PlatformLibrary/LIB_Feedbacks\Feedbacks.c **** 
 244:C:/Workspace/FW_Platform2_5/trunk/PlatformLibrary/LIB_Feedbacks\Feedbacks.c **** */
 245:C:/Workspace/FW_Platform2_5/trunk/PlatformLibrary/LIB_Feedbacks\Feedbacks.c **** bool_t LIB_FDB_GetFeedbackInput(uint8_t pos)
 246:C:/Workspace/FW_Platform2_5/trunk/PlatformLibrary/LIB_Feedbacks\Feedbacks.c **** {
 121                             		.loc 1 246 0
 122                             	.LVL9:
 247:C:/Workspace/FW_Platform2_5/trunk/PlatformLibrary/LIB_Feedbacks\Feedbacks.c ****     return LIB_DIO_GET_INPUT(FeedbackDescriptor[pos].s.pin);
 123                             		.loc 1 247 0
 124 0000 5B 11                   		movu.B	r1, r1
 125 0002 4B 11                   		add	r1, r1
 126                             	.LVL10:
 127 0004 70 11 00 00 00 00       		add	#_FeedbackDescriptor, r1
 128 000a 5C 11                   		movu.W	[r1], r1
 129 000c 68 11                   		shlr	#1, r1
 130 000e 75 21 3F                		and	#63, r1
 131 0011 04 00 00 00             		bra	_LIB_DIO_GET_INPUT
 132                             	.LVL11:
 133                             	.LFE4:
 135                             		.section	.text.LIB_FDB_IsFeedbackReady,"ax",@progbits
 136                             		.global	_LIB_FDB_IsFeedbackReady
 138                             	_LIB_FDB_IsFeedbackReady:
 139                             	.LFB5:
 248:C:/Workspace/FW_Platform2_5/trunk/PlatformLibrary/LIB_Feedbacks\Feedbacks.c **** }
 249:C:/Workspace/FW_Platform2_5/trunk/PlatformLibrary/LIB_Feedbacks\Feedbacks.c **** 
 250:C:/Workspace/FW_Platform2_5/trunk/PlatformLibrary/LIB_Feedbacks\Feedbacks.c **** /**
 251:C:/Workspace/FW_Platform2_5/trunk/PlatformLibrary/LIB_Feedbacks\Feedbacks.c ****  * LIB_FDB_IsFeedbackReady
 252:C:/Workspace/FW_Platform2_5/trunk/PlatformLibrary/LIB_Feedbacks\Feedbacks.c **** This function returns TRUE if feedback in position "pos" was acquired at least once.
 253:C:/Workspace/FW_Platform2_5/trunk/PlatformLibrary/LIB_Feedbacks\Feedbacks.c **** 
 254:C:/Workspace/FW_Platform2_5/trunk/PlatformLibrary/LIB_Feedbacks\Feedbacks.c **** \param  [in]    pos feedback's position, the position is that of setting's file.
 255:C:/Workspace/FW_Platform2_5/trunk/PlatformLibrary/LIB_Feedbacks\Feedbacks.c **** 
 256:C:/Workspace/FW_Platform2_5/trunk/PlatformLibrary/LIB_Feedbacks\Feedbacks.c **** \return 	bool_t
 257:C:/Workspace/FW_Platform2_5/trunk/PlatformLibrary/LIB_Feedbacks\Feedbacks.c **** 
 258:C:/Workspace/FW_Platform2_5/trunk/PlatformLibrary/LIB_Feedbacks\Feedbacks.c **** \retval		TRUE   feedback in position "pos" was acquired at least once
 259:C:/Workspace/FW_Platform2_5/trunk/PlatformLibrary/LIB_Feedbacks\Feedbacks.c **** \retval		FALSE  feedback in position "pos" was not acquired at least once
 260:C:/Workspace/FW_Platform2_5/trunk/PlatformLibrary/LIB_Feedbacks\Feedbacks.c **** 
 261:C:/Workspace/FW_Platform2_5/trunk/PlatformLibrary/LIB_Feedbacks\Feedbacks.c **** */
 262:C:/Workspace/FW_Platform2_5/trunk/PlatformLibrary/LIB_Feedbacks\Feedbacks.c **** bool_t LIB_FDB_IsFeedbackReady(uint8_t pos)
 263:C:/Workspace/FW_Platform2_5/trunk/PlatformLibrary/LIB_Feedbacks\Feedbacks.c **** {
 140                             		.loc 1 263 0
 141                             	.LVL12:
 264:C:/Workspace/FW_Platform2_5/trunk/PlatformLibrary/LIB_Feedbacks\Feedbacks.c ****     return (bool_t)FeedbackStatus[pos].ready;
 142                             		.loc 1 264 0
 143 0000 5B 11                   		movu.B	r1, r1
 144 0002 FD C3 1E                		shll	#3, r1, r14
 145 0005 70 EE 00 00 00 00       		add	#_FeedbackStatus, r14
 146 000b ED E1 01                		mov.L	4[r14], r1
 147                             	.LVL13:
 265:C:/Workspace/FW_Platform2_5/trunk/PlatformLibrary/LIB_Feedbacks\Feedbacks.c **** }
 148                             		.loc 1 265 0
 149 000e 69 F1                   		shlr	#31, r1
 150 0010 02                      		rts
 151                             	.LFE5:
 153                             		.section	.text.LIB_FDB_RegisterFeedback,"ax",@progbits
 154                             		.global	_LIB_FDB_RegisterFeedback
 156                             	_LIB_FDB_RegisterFeedback:
 157                             	.LFB6:
 266:C:/Workspace/FW_Platform2_5/trunk/PlatformLibrary/LIB_Feedbacks\Feedbacks.c **** 
 267:C:/Workspace/FW_Platform2_5/trunk/PlatformLibrary/LIB_Feedbacks\Feedbacks.c **** /**
 268:C:/Workspace/FW_Platform2_5/trunk/PlatformLibrary/LIB_Feedbacks\Feedbacks.c ****  * LIB_FDB_RegisterFeedback
 269:C:/Workspace/FW_Platform2_5/trunk/PlatformLibrary/LIB_Feedbacks\Feedbacks.c **** \n Setup of a single feedback channel.
 270:C:/Workspace/FW_Platform2_5/trunk/PlatformLibrary/LIB_Feedbacks\Feedbacks.c **** \n This function is called inside LIB_IOM_InputInitialization()  at cold reset.
 271:C:/Workspace/FW_Platform2_5/trunk/PlatformLibrary/LIB_Feedbacks\Feedbacks.c **** 
 272:C:/Workspace/FW_Platform2_5/trunk/PlatformLibrary/LIB_Feedbacks\Feedbacks.c **** \attention \b FeedbackDescriptor[] (global) used W
 273:C:/Workspace/FW_Platform2_5/trunk/PlatformLibrary/LIB_Feedbacks\Feedbacks.c **** 
 274:C:/Workspace/FW_Platform2_5/trunk/PlatformLibrary/LIB_Feedbacks\Feedbacks.c **** \param  [in]	pos Ram Position Conversion Result vs vector Feedback[]
 275:C:/Workspace/FW_Platform2_5/trunk/PlatformLibrary/LIB_Feedbacks\Feedbacks.c **** \param  [in]	pin pin of the linkage module minus 1 linked to the feedback
 276:C:/Workspace/FW_Platform2_5/trunk/PlatformLibrary/LIB_Feedbacks\Feedbacks.c **** \param  [in]	readtype '0' -> direct feedback \n
 277:C:/Workspace/FW_Platform2_5/trunk/PlatformLibrary/LIB_Feedbacks\Feedbacks.c **** 						 '!0' -> multiplexed feedback
 278:C:/Workspace/FW_Platform2_5/trunk/PlatformLibrary/LIB_Feedbacks\Feedbacks.c **** \param  [in]	pConfigData pointer to the description feedback area
 279:C:/Workspace/FW_Platform2_5/trunk/PlatformLibrary/LIB_Feedbacks\Feedbacks.c **** 
 280:C:/Workspace/FW_Platform2_5/trunk/PlatformLibrary/LIB_Feedbacks\Feedbacks.c **** 
 281:C:/Workspace/FW_Platform2_5/trunk/PlatformLibrary/LIB_Feedbacks\Feedbacks.c **** \author 	stefano.ughi
 282:C:/Workspace/FW_Platform2_5/trunk/PlatformLibrary/LIB_Feedbacks\Feedbacks.c **** \date		Nov 05, 2010
 283:C:/Workspace/FW_Platform2_5/trunk/PlatformLibrary/LIB_Feedbacks\Feedbacks.c **** \version	1.0.0
 284:C:/Workspace/FW_Platform2_5/trunk/PlatformLibrary/LIB_Feedbacks\Feedbacks.c **** 
 285:C:/Workspace/FW_Platform2_5/trunk/PlatformLibrary/LIB_Feedbacks\Feedbacks.c **** \note		\par \b Note 1:
 286:C:/Workspace/FW_Platform2_5/trunk/PlatformLibrary/LIB_Feedbacks\Feedbacks.c **** 			documentation by stefano.ughi
 287:C:/Workspace/FW_Platform2_5/trunk/PlatformLibrary/LIB_Feedbacks\Feedbacks.c **** 			\par \b Note 2:
 288:C:/Workspace/FW_Platform2_5/trunk/PlatformLibrary/LIB_Feedbacks\Feedbacks.c **** 			if feedack is not multiplexed actvsense and pullupEn are set in LIB_IOM_InputInitialization()
 289:C:/Workspace/FW_Platform2_5/trunk/PlatformLibrary/LIB_Feedbacks\Feedbacks.c **** */
 290:C:/Workspace/FW_Platform2_5/trunk/PlatformLibrary/LIB_Feedbacks\Feedbacks.c **** void LIB_FDB_RegisterFeedback( uint8_t pos, uint8_t pin, uint8_t readtype, const uint8_t *const pCo
 291:C:/Workspace/FW_Platform2_5/trunk/PlatformLibrary/LIB_Feedbacks\Feedbacks.c **** {
 158                             		.loc 1 291 0
 159                             	.LVL14:
 292:C:/Workspace/FW_Platform2_5/trunk/PlatformLibrary/LIB_Feedbacks\Feedbacks.c ****     FDB_descriptorType *pFeedbackpin;
 293:C:/Workspace/FW_Platform2_5/trunk/PlatformLibrary/LIB_Feedbacks\Feedbacks.c **** 
 294:C:/Workspace/FW_Platform2_5/trunk/PlatformLibrary/LIB_Feedbacks\Feedbacks.c ****     if ( pos < N_FEEDBACK )
 160                             		.loc 1 294 0
 161 0000 5B 11                   		movu.B	r1, r1
 162 0002 61 71                   		cmp	#7, r1
 163 0004 24 33                   		bgtu	.L19
 295:C:/Workspace/FW_Platform2_5/trunk/PlatformLibrary/LIB_Feedbacks\Feedbacks.c ****     {
 296:C:/Workspace/FW_Platform2_5/trunk/PlatformLibrary/LIB_Feedbacks\Feedbacks.c ****         SAFETY_REGION_START();
 297:C:/Workspace/FW_Platform2_5/trunk/PlatformLibrary/LIB_Feedbacks\Feedbacks.c ****         SAFETY_DATA_ELEM_CHECK( FeedbackDescriptor, pos);
 298:C:/Workspace/FW_Platform2_5/trunk/PlatformLibrary/LIB_Feedbacks\Feedbacks.c **** 
 299:C:/Workspace/FW_Platform2_5/trunk/PlatformLibrary/LIB_Feedbacks\Feedbacks.c ****         pFeedbackpin = &FeedbackDescriptor[pos];
 164                             		.loc 1 299 0
 165 0006 4B 11                   		add	r1, r1
 166                             	.LVL15:
 167 0008 70 1E 00 00 00 00       		add	#_FeedbackDescriptor, r1, r14
 168                             	.LVL16:
 300:C:/Workspace/FW_Platform2_5/trunk/PlatformLibrary/LIB_Feedbacks\Feedbacks.c ****         /* multiplexed feedback or direct ?  */
 301:C:/Workspace/FW_Platform2_5/trunk/PlatformLibrary/LIB_Feedbacks\Feedbacks.c ****         pFeedbackpin->s.readtype = readtype;
 169                             		.loc 1 301 0
 170 000e DC E1                   		mov.W	[r14], r1
 171 0010 FD 74 C3 01             		tst	#1, r3
 302:C:/Workspace/FW_Platform2_5/trunk/PlatformLibrary/LIB_Feedbacks\Feedbacks.c ****         pFeedbackpin->s.pin = pin;
 172                             		.loc 1 302 0
 173 0014 EF 23                   		mov.L	r2, r3
 174                             	.LVL17:
 301:C:/Workspace/FW_Platform2_5/trunk/PlatformLibrary/LIB_Feedbacks\Feedbacks.c ****         pFeedbackpin->s.readtype = readtype;
 175                             		.loc 1 301 0
 176 0016 FD EE 11                		bmne	#14, r1
 177                             		.loc 1 302 0
 178 0019 75 23 3F                		and	#63, r3
 179 001c 4B 33                   		add	r3, r3
 180 001e 75 21 81                		and	#0xffffff81, r1
 181 0021 57 13                   		or	r1, r3
 182 0023 D3 E3                   		mov.W	r3, [r14]
 303:C:/Workspace/FW_Platform2_5/trunk/PlatformLibrary/LIB_Feedbacks\Feedbacks.c ****         /* feedback linked to partializated load ? */
 304:C:/Workspace/FW_Platform2_5/trunk/PlatformLibrary/LIB_Feedbacks\Feedbacks.c ****         pFeedbackpin->s.loadP = ((feedbackLLIparams_t*)pConfigData)->bit.partialized;
 183                             		.loc 1 304 0
 184 0025 5C 42                   		movu.W	[r4], r2
 185                             	.LVL18:
 186 0027 DF 34                   		mov.W	r3, r4
 187                             	.LVL19:
 188 0029 68 62                   		shlr	#6, r2
 189 002b FD 74 C2 01             		tst	#1, r2
 190 002f FD E7 14                		bmne	#7, r4
 305:C:/Workspace/FW_Platform2_5/trunk/PlatformLibrary/LIB_Feedbacks\Feedbacks.c **** 
 306:C:/Workspace/FW_Platform2_5/trunk/PlatformLibrary/LIB_Feedbacks\Feedbacks.c **** #if defined __MULTI_H
 307:C:/Workspace/FW_Platform2_5/trunk/PlatformLibrary/LIB_Feedbacks\Feedbacks.c ****         /* multiplexer's configuration for feedback's reading */
 308:C:/Workspace/FW_Platform2_5/trunk/PlatformLibrary/LIB_Feedbacks\Feedbacks.c ****         pFeedbackpin->s.chsel = ((feedbackMpxLLIparams_t*)pConfigData)->bit.mpxCfg;
 309:C:/Workspace/FW_Platform2_5/trunk/PlatformLibrary/LIB_Feedbacks\Feedbacks.c ****         /* inversion of reading ? */
 310:C:/Workspace/FW_Platform2_5/trunk/PlatformLibrary/LIB_Feedbacks\Feedbacks.c ****         pFeedbackpin->s.actvsense = ((feedbackMpxLLIparams_t*)pConfigData)->bit.inverted;
 311:C:/Workspace/FW_Platform2_5/trunk/PlatformLibrary/LIB_Feedbacks\Feedbacks.c ****         /* pull-up ? */
 312:C:/Workspace/FW_Platform2_5/trunk/PlatformLibrary/LIB_Feedbacks\Feedbacks.c ****         pFeedbackpin->s.pullupEn = ((feedbackMpxLLIparams_t*)pConfigData)->bit.pullUp;
 313:C:/Workspace/FW_Platform2_5/trunk/PlatformLibrary/LIB_Feedbacks\Feedbacks.c **** #endif  /* #if defined __MULTI_H */
 314:C:/Workspace/FW_Platform2_5/trunk/PlatformLibrary/LIB_Feedbacks\Feedbacks.c **** 
 315:C:/Workspace/FW_Platform2_5/trunk/PlatformLibrary/LIB_Feedbacks\Feedbacks.c ****         /* Feedback's reading always active */
 316:C:/Workspace/FW_Platform2_5/trunk/PlatformLibrary/LIB_Feedbacks\Feedbacks.c ****         pFeedbackpin->s.active = 1;
 191                             		.loc 1 316 0
 192 0032 78 F4                   		bset	#15, r4
 193 0034 D3 E4                   		mov.W	r4, [r14]
 194 0036 02                      		rts
 195                             	.LVL20:
 196                             	.L19:
 317:C:/Workspace/FW_Platform2_5/trunk/PlatformLibrary/LIB_Feedbacks\Feedbacks.c **** 
 318:C:/Workspace/FW_Platform2_5/trunk/PlatformLibrary/LIB_Feedbacks\Feedbacks.c ****         SAFETY_DATA_ELEM_UPDATE( FeedbackDescriptor, pos);
 319:C:/Workspace/FW_Platform2_5/trunk/PlatformLibrary/LIB_Feedbacks\Feedbacks.c ****         SAFETY_REGION_END();
 320:C:/Workspace/FW_Platform2_5/trunk/PlatformLibrary/LIB_Feedbacks\Feedbacks.c ****     }
 321:C:/Workspace/FW_Platform2_5/trunk/PlatformLibrary/LIB_Feedbacks\Feedbacks.c ****     else
 322:C:/Workspace/FW_Platform2_5/trunk/PlatformLibrary/LIB_Feedbacks\Feedbacks.c ****     {
 323:C:/Workspace/FW_Platform2_5/trunk/PlatformLibrary/LIB_Feedbacks\Feedbacks.c ****         PLT_ERROR_FATAL(PLT_ERROR_FEEDBACK_1);
 197                             		.loc 1 323 0
 198 0037 66 71                   		mov.L	#7, r1
 199 0039 04 00 00 00             		bra	_LIB_Error_Fatal_Handler
 200                             	.LVL21:
 201                             	.LFE6:
 203                             		.section	.text.LIB_FDB_Manager,"ax",@progbits
 204                             		.global	_LIB_FDB_Manager
 206                             	_LIB_FDB_Manager:
 207                             	.LFB7:
 324:C:/Workspace/FW_Platform2_5/trunk/PlatformLibrary/LIB_Feedbacks\Feedbacks.c ****     }
 325:C:/Workspace/FW_Platform2_5/trunk/PlatformLibrary/LIB_Feedbacks\Feedbacks.c **** }
 326:C:/Workspace/FW_Platform2_5/trunk/PlatformLibrary/LIB_Feedbacks\Feedbacks.c **** 
 327:C:/Workspace/FW_Platform2_5/trunk/PlatformLibrary/LIB_Feedbacks\Feedbacks.c **** /**
 328:C:/Workspace/FW_Platform2_5/trunk/PlatformLibrary/LIB_Feedbacks\Feedbacks.c **** LIB_FDB_Manager
 329:C:/Workspace/FW_Platform2_5/trunk/PlatformLibrary/LIB_Feedbacks\Feedbacks.c **** \n Feedbacks's Manager.
 330:C:/Workspace/FW_Platform2_5/trunk/PlatformLibrary/LIB_Feedbacks\Feedbacks.c **** \n This function performs feedbacks's acquisition.
 331:C:/Workspace/FW_Platform2_5/trunk/PlatformLibrary/LIB_Feedbacks\Feedbacks.c **** \n The output of the function is Feedback[], possibles value for Feedback[] are:
 332:C:/Workspace/FW_Platform2_5/trunk/PlatformLibrary/LIB_Feedbacks\Feedbacks.c **** \n \li FDB_INPUT_LOW
 333:C:/Workspace/FW_Platform2_5/trunk/PlatformLibrary/LIB_Feedbacks\Feedbacks.c **** \n \li FDB_INPUT_HI
 334:C:/Workspace/FW_Platform2_5/trunk/PlatformLibrary/LIB_Feedbacks\Feedbacks.c **** \n \li FDB_INPUT_FREQ_OPP_PHASE
 335:C:/Workspace/FW_Platform2_5/trunk/PlatformLibrary/LIB_Feedbacks\Feedbacks.c **** \n \li FDB_INPUT_FREQ_PHASE
 336:C:/Workspace/FW_Platform2_5/trunk/PlatformLibrary/LIB_Feedbacks\Feedbacks.c **** 
 337:C:/Workspace/FW_Platform2_5/trunk/PlatformLibrary/LIB_Feedbacks\Feedbacks.c **** \param  [in]    loadType    if '0' read feedbacks linked to partialized loads \n
 338:C:/Workspace/FW_Platform2_5/trunk/PlatformLibrary/LIB_Feedbacks\Feedbacks.c **** 			                if '1' read feedbacks linked to non partialized loads.
 339:C:/Workspace/FW_Platform2_5/trunk/PlatformLibrary/LIB_Feedbacks\Feedbacks.c **** \param  [in]	zcIsAvailable   if '0' zero crossing voltage not available \n
 340:C:/Workspace/FW_Platform2_5/trunk/PlatformLibrary/LIB_Feedbacks\Feedbacks.c ****                                 if '1' zero crossing voltage available
 341:C:/Workspace/FW_Platform2_5/trunk/PlatformLibrary/LIB_Feedbacks\Feedbacks.c **** 
 342:C:/Workspace/FW_Platform2_5/trunk/PlatformLibrary/LIB_Feedbacks\Feedbacks.c **** \n Below the scheme of feedback's update
 343:C:/Workspace/FW_Platform2_5/trunk/PlatformLibrary/LIB_Feedbacks\Feedbacks.c **** \n <b>
 344:C:/Workspace/FW_Platform2_5/trunk/PlatformLibrary/LIB_Feedbacks\Feedbacks.c **** \n \li case zcIsAvailable=FALSE
 345:C:/Workspace/FW_Platform2_5/trunk/PlatformLibrary/LIB_Feedbacks\Feedbacks.c **** \n
 346:C:/Workspace/FW_Platform2_5/trunk/PlatformLibrary/LIB_Feedbacks\Feedbacks.c **** \n -FeedbackVal[i]:
 347:C:/Workspace/FW_Platform2_5/trunk/PlatformLibrary/LIB_Feedbacks\Feedbacks.c **** \n
 348:C:/Workspace/FW_Platform2_5/trunk/PlatformLibrary/LIB_Feedbacks\Feedbacks.c **** \n       low
 349:C:/Workspace/FW_Platform2_5/trunk/PlatformLibrary/LIB_Feedbacks\Feedbacks.c **** \n -------------|    (-FDB_NO_ZC_LIMIT_FOR_LEVEL)
 350:C:/Workspace/FW_Platform2_5/trunk/PlatformLibrary/LIB_Feedbacks\Feedbacks.c **** \n        no decision
 351:C:/Workspace/FW_Platform2_5/trunk/PlatformLibrary/LIB_Feedbacks\Feedbacks.c **** \n |-----------------------| (-FDB_NO_ZC_LIMIT_FOR_FREQ)
 352:C:/Workspace/FW_Platform2_5/trunk/PlatformLibrary/LIB_Feedbacks\Feedbacks.c **** \n           freq
 353:C:/Workspace/FW_Platform2_5/trunk/PlatformLibrary/LIB_Feedbacks\Feedbacks.c **** \n |-----------------|  0
 354:C:/Workspace/FW_Platform2_5/trunk/PlatformLibrary/LIB_Feedbacks\Feedbacks.c **** \n           freq
 355:C:/Workspace/FW_Platform2_5/trunk/PlatformLibrary/LIB_Feedbacks\Feedbacks.c **** \n |-----------------------| (+FDB_NO_ZC_LIMIT_FOR_FREQ)
 356:C:/Workspace/FW_Platform2_5/trunk/PlatformLibrary/LIB_Feedbacks\Feedbacks.c **** \n           no decision
 357:C:/Workspace/FW_Platform2_5/trunk/PlatformLibrary/LIB_Feedbacks\Feedbacks.c **** \n |------------|    (FDB_NO_ZC_LIMIT_FOR_LEVEL)
 358:C:/Workspace/FW_Platform2_5/trunk/PlatformLibrary/LIB_Feedbacks\Feedbacks.c **** \n            high
 359:C:/Workspace/FW_Platform2_5/trunk/PlatformLibrary/LIB_Feedbacks\Feedbacks.c **** \n |---------------
 360:C:/Workspace/FW_Platform2_5/trunk/PlatformLibrary/LIB_Feedbacks\Feedbacks.c **** \n
 361:C:/Workspace/FW_Platform2_5/trunk/PlatformLibrary/LIB_Feedbacks\Feedbacks.c **** \n
 362:C:/Workspace/FW_Platform2_5/trunk/PlatformLibrary/LIB_Feedbacks\Feedbacks.c **** \n \li case zcIsAvailable=TRUE
 363:C:/Workspace/FW_Platform2_5/trunk/PlatformLibrary/LIB_Feedbacks\Feedbacks.c **** \n
 364:C:/Workspace/FW_Platform2_5/trunk/PlatformLibrary/LIB_Feedbacks\Feedbacks.c **** \n -FeedbackZCmatch[i]:
 365:C:/Workspace/FW_Platform2_5/trunk/PlatformLibrary/LIB_Feedbacks\Feedbacks.c **** \n
 366:C:/Workspace/FW_Platform2_5/trunk/PlatformLibrary/LIB_Feedbacks\Feedbacks.c **** \n   freq not in phase
 367:C:/Workspace/FW_Platform2_5/trunk/PlatformLibrary/LIB_Feedbacks\Feedbacks.c **** \n ---------------------|  (-FDB_ZC_LIMIT_FOR_FREQ)
 368:C:/Workspace/FW_Platform2_5/trunk/PlatformLibrary/LIB_Feedbacks\Feedbacks.c **** \n     no decision
 369:C:/Workspace/FW_Platform2_5/trunk/PlatformLibrary/LIB_Feedbacks\Feedbacks.c **** \n |----------------|  0
 370:C:/Workspace/FW_Platform2_5/trunk/PlatformLibrary/LIB_Feedbacks\Feedbacks.c **** \n       no decision
 371:C:/Workspace/FW_Platform2_5/trunk/PlatformLibrary/LIB_Feedbacks\Feedbacks.c **** \n |--------------------|  (FDB_ZC_LIMIT_FOR_FREQ)
 372:C:/Workspace/FW_Platform2_5/trunk/PlatformLibrary/LIB_Feedbacks\Feedbacks.c **** \n      freq in phase
 373:C:/Workspace/FW_Platform2_5/trunk/PlatformLibrary/LIB_Feedbacks\Feedbacks.c **** \n |---------------------
 374:C:/Workspace/FW_Platform2_5/trunk/PlatformLibrary/LIB_Feedbacks\Feedbacks.c **** \n
 375:C:/Workspace/FW_Platform2_5/trunk/PlatformLibrary/LIB_Feedbacks\Feedbacks.c **** \n
 376:C:/Workspace/FW_Platform2_5/trunk/PlatformLibrary/LIB_Feedbacks\Feedbacks.c **** \n
 377:C:/Workspace/FW_Platform2_5/trunk/PlatformLibrary/LIB_Feedbacks\Feedbacks.c **** \n -FeedbackVal[i]:
 378:C:/Workspace/FW_Platform2_5/trunk/PlatformLibrary/LIB_Feedbacks\Feedbacks.c **** \n
 379:C:/Workspace/FW_Platform2_5/trunk/PlatformLibrary/LIB_Feedbacks\Feedbacks.c **** \n         low
 380:C:/Workspace/FW_Platform2_5/trunk/PlatformLibrary/LIB_Feedbacks\Feedbacks.c **** \n -------------------------|  (-FDB_ZC_LIMIT_FOR_LEVEL)
 381:C:/Workspace/FW_Platform2_5/trunk/PlatformLibrary/LIB_Feedbacks\Feedbacks.c **** \n      no decision
 382:C:/Workspace/FW_Platform2_5/trunk/PlatformLibrary/LIB_Feedbacks\Feedbacks.c **** \n |--------------------|  0
 383:C:/Workspace/FW_Platform2_5/trunk/PlatformLibrary/LIB_Feedbacks\Feedbacks.c **** \n      no decision
 384:C:/Workspace/FW_Platform2_5/trunk/PlatformLibrary/LIB_Feedbacks\Feedbacks.c **** \n |-------------------------|  (+FDB_ZC_LIMIT_FOR_LEVEL)
 385:C:/Workspace/FW_Platform2_5/trunk/PlatformLibrary/LIB_Feedbacks\Feedbacks.c **** \n       high
 386:C:/Workspace/FW_Platform2_5/trunk/PlatformLibrary/LIB_Feedbacks\Feedbacks.c **** \n |-------------------------
 387:C:/Workspace/FW_Platform2_5/trunk/PlatformLibrary/LIB_Feedbacks\Feedbacks.c **** \n
 388:C:/Workspace/FW_Platform2_5/trunk/PlatformLibrary/LIB_Feedbacks\Feedbacks.c **** \n
 389:C:/Workspace/FW_Platform2_5/trunk/PlatformLibrary/LIB_Feedbacks\Feedbacks.c **** \n </b>
 390:C:/Workspace/FW_Platform2_5/trunk/PlatformLibrary/LIB_Feedbacks\Feedbacks.c **** 
 391:C:/Workspace/FW_Platform2_5/trunk/PlatformLibrary/LIB_Feedbacks\Feedbacks.c **** \author 	Stefano Ughi
 392:C:/Workspace/FW_Platform2_5/trunk/PlatformLibrary/LIB_Feedbacks\Feedbacks.c **** \date		Nov. 08, 2010
 393:C:/Workspace/FW_Platform2_5/trunk/PlatformLibrary/LIB_Feedbacks\Feedbacks.c **** \version	1.0.0
 394:C:/Workspace/FW_Platform2_5/trunk/PlatformLibrary/LIB_Feedbacks\Feedbacks.c **** 
 395:C:/Workspace/FW_Platform2_5/trunk/PlatformLibrary/LIB_Feedbacks\Feedbacks.c **** \note		\par \b Note 1:
 396:C:/Workspace/FW_Platform2_5/trunk/PlatformLibrary/LIB_Feedbacks\Feedbacks.c **** 			documentation by Stefano Ughi
 397:C:/Workspace/FW_Platform2_5/trunk/PlatformLibrary/LIB_Feedbacks\Feedbacks.c **** 
 398:C:/Workspace/FW_Platform2_5/trunk/PlatformLibrary/LIB_Feedbacks\Feedbacks.c **** */
 399:C:/Workspace/FW_Platform2_5/trunk/PlatformLibrary/LIB_Feedbacks\Feedbacks.c **** void LIB_FDB_Manager(bool_t loadType, bool_t zcIsAvailable)
 400:C:/Workspace/FW_Platform2_5/trunk/PlatformLibrary/LIB_Feedbacks\Feedbacks.c **** {
 208                             		.loc 1 400 0
 209                             	.LVL22:
 210 0000 6E 6D                   		pushm	r6-r13
 211                             	.LCFI0:
 212                             		.loc 1 400 0
 213 0002 EF 1C                   		mov.L	r1, r12
 214 0004 EF 26                   		mov.L	r2, r6
 215 0006 FB 72 00 00 00 00       		mov.L	#_FeedbackStatus, r7
 216 000c 66 0A                   		mov.L	#0, r10
 401:C:/Workspace/FW_Platform2_5/trunk/PlatformLibrary/LIB_Feedbacks\Feedbacks.c ****     feedbackBitfield_t feedbackMask;
 402:C:/Workspace/FW_Platform2_5/trunk/PlatformLibrary/LIB_Feedbacks\Feedbacks.c ****     uint8_t i;
 403:C:/Workspace/FW_Platform2_5/trunk/PlatformLibrary/LIB_Feedbacks\Feedbacks.c ****     uint8_t tmpFeedbackValue;
 404:C:/Workspace/FW_Platform2_5/trunk/PlatformLibrary/LIB_Feedbacks\Feedbacks.c ****     bool_t pinval;
 405:C:/Workspace/FW_Platform2_5/trunk/PlatformLibrary/LIB_Feedbacks\Feedbacks.c ****     bool_t zcSyncEdge;
 406:C:/Workspace/FW_Platform2_5/trunk/PlatformLibrary/LIB_Feedbacks\Feedbacks.c **** #if defined(ZCV_CH_ID)
 407:C:/Workspace/FW_Platform2_5/trunk/PlatformLibrary/LIB_Feedbacks\Feedbacks.c ****     ICU_EdgeModeType mode;
 408:C:/Workspace/FW_Platform2_5/trunk/PlatformLibrary/LIB_Feedbacks\Feedbacks.c **** #endif
 409:C:/Workspace/FW_Platform2_5/trunk/PlatformLibrary/LIB_Feedbacks\Feedbacks.c ****     /* TRACE_TO_PIN(1,24); */
 410:C:/Workspace/FW_Platform2_5/trunk/PlatformLibrary/LIB_Feedbacks\Feedbacks.c **** 
 411:C:/Workspace/FW_Platform2_5/trunk/PlatformLibrary/LIB_Feedbacks\Feedbacks.c ****     for ( i = 0; i < N_FEEDBACK ; i++ )
 412:C:/Workspace/FW_Platform2_5/trunk/PlatformLibrary/LIB_Feedbacks\Feedbacks.c ****     {
 413:C:/Workspace/FW_Platform2_5/trunk/PlatformLibrary/LIB_Feedbacks\Feedbacks.c ****         /* SAFETY REGION START */
 414:C:/Workspace/FW_Platform2_5/trunk/PlatformLibrary/LIB_Feedbacks\Feedbacks.c ****         /* check consistency FeedbackDescriptor, FeedbackStatus, Feedbacks
 415:C:/Workspace/FW_Platform2_5/trunk/PlatformLibrary/LIB_Feedbacks\Feedbacks.c ****          *
 416:C:/Workspace/FW_Platform2_5/trunk/PlatformLibrary/LIB_Feedbacks\Feedbacks.c ****          */
 417:C:/Workspace/FW_Platform2_5/trunk/PlatformLibrary/LIB_Feedbacks\Feedbacks.c **** 
 418:C:/Workspace/FW_Platform2_5/trunk/PlatformLibrary/LIB_Feedbacks\Feedbacks.c ****         SAFETY_REGION_START();
 419:C:/Workspace/FW_Platform2_5/trunk/PlatformLibrary/LIB_Feedbacks\Feedbacks.c **** 
 420:C:/Workspace/FW_Platform2_5/trunk/PlatformLibrary/LIB_Feedbacks\Feedbacks.c ****         SAFETY_DATA_ELEM_CHECK( Feedback, i);
 421:C:/Workspace/FW_Platform2_5/trunk/PlatformLibrary/LIB_Feedbacks\Feedbacks.c ****         SAFETY_DATA_ELEM_CHECK( FeedbackStatus, i);
 422:C:/Workspace/FW_Platform2_5/trunk/PlatformLibrary/LIB_Feedbacks\Feedbacks.c ****         SAFETY_DATA_ELEM_CHECK( FeedbackDescriptor, i);
 423:C:/Workspace/FW_Platform2_5/trunk/PlatformLibrary/LIB_Feedbacks\Feedbacks.c ****         SAFETY_DATA_CHECK( FeedbackInputDisable );
 424:C:/Workspace/FW_Platform2_5/trunk/PlatformLibrary/LIB_Feedbacks\Feedbacks.c **** 
 425:C:/Workspace/FW_Platform2_5/trunk/PlatformLibrary/LIB_Feedbacks\Feedbacks.c ****         /* Check if the feedback is active and is of the loadType to read */
 426:C:/Workspace/FW_Platform2_5/trunk/PlatformLibrary/LIB_Feedbacks\Feedbacks.c ****         if ( FeedbackDescriptor[i].s.active && (FeedbackDescriptor[i].s.loadP == loadType) )
 427:C:/Workspace/FW_Platform2_5/trunk/PlatformLibrary/LIB_Feedbacks\Feedbacks.c ****         {
 428:C:/Workspace/FW_Platform2_5/trunk/PlatformLibrary/LIB_Feedbacks\Feedbacks.c **** #ifdef __MULTI_H
 429:C:/Workspace/FW_Platform2_5/trunk/PlatformLibrary/LIB_Feedbacks\Feedbacks.c ****         	bool_t activeSense;
 430:C:/Workspace/FW_Platform2_5/trunk/PlatformLibrary/LIB_Feedbacks\Feedbacks.c **** 
 431:C:/Workspace/FW_Platform2_5/trunk/PlatformLibrary/LIB_Feedbacks\Feedbacks.c ****             if (FeedbackDescriptor[i].s.readtype)
 432:C:/Workspace/FW_Platform2_5/trunk/PlatformLibrary/LIB_Feedbacks\Feedbacks.c ****             {
 433:C:/Workspace/FW_Platform2_5/trunk/PlatformLibrary/LIB_Feedbacks\Feedbacks.c ****                 /* This is a Multiplexed Feedback */
 434:C:/Workspace/FW_Platform2_5/trunk/PlatformLibrary/LIB_Feedbacks\Feedbacks.c **** 
 435:C:/Workspace/FW_Platform2_5/trunk/PlatformLibrary/LIB_Feedbacks\Feedbacks.c ****                 if ( FeedbackDescriptor[i].s.pullupEn )
 436:C:/Workspace/FW_Platform2_5/trunk/PlatformLibrary/LIB_Feedbacks\Feedbacks.c ****                 {
 437:C:/Workspace/FW_Platform2_5/trunk/PlatformLibrary/LIB_Feedbacks\Feedbacks.c ****                     (void)OCDIO_SetPinPullUpSync(FeedbackDescriptor[i].s.pin);
 438:C:/Workspace/FW_Platform2_5/trunk/PlatformLibrary/LIB_Feedbacks\Feedbacks.c ****                 }
 439:C:/Workspace/FW_Platform2_5/trunk/PlatformLibrary/LIB_Feedbacks\Feedbacks.c ****                 else
 440:C:/Workspace/FW_Platform2_5/trunk/PlatformLibrary/LIB_Feedbacks\Feedbacks.c ****                 {
 441:C:/Workspace/FW_Platform2_5/trunk/PlatformLibrary/LIB_Feedbacks\Feedbacks.c ****                     (void)OCDIO_ResetPinPullUpSync(FeedbackDescriptor[i].s.pin);
 442:C:/Workspace/FW_Platform2_5/trunk/PlatformLibrary/LIB_Feedbacks\Feedbacks.c ****                 }
 443:C:/Workspace/FW_Platform2_5/trunk/PlatformLibrary/LIB_Feedbacks\Feedbacks.c ****                 activeSense = (bool_t)(FeedbackDescriptor[i].s.actvsense?1:0);
 444:C:/Workspace/FW_Platform2_5/trunk/PlatformLibrary/LIB_Feedbacks\Feedbacks.c ****                 LIB_IOM_Set_IODir_ActiveSense(activeSense,FeedbackDescriptor[i].s.pin);
 445:C:/Workspace/FW_Platform2_5/trunk/PlatformLibrary/LIB_Feedbacks\Feedbacks.c **** 
 446:C:/Workspace/FW_Platform2_5/trunk/PlatformLibrary/LIB_Feedbacks\Feedbacks.c ****                 /* Select multiplexer's channel */
 447:C:/Workspace/FW_Platform2_5/trunk/PlatformLibrary/LIB_Feedbacks\Feedbacks.c ****                 PM_setInMux(FeedbackDescriptor[i].s.chsel);
 448:C:/Workspace/FW_Platform2_5/trunk/PlatformLibrary/LIB_Feedbacks\Feedbacks.c ****             }
 449:C:/Workspace/FW_Platform2_5/trunk/PlatformLibrary/LIB_Feedbacks\Feedbacks.c **** 
 450:C:/Workspace/FW_Platform2_5/trunk/PlatformLibrary/LIB_Feedbacks\Feedbacks.c **** #endif  /* #ifdef __MULTI_H */
 451:C:/Workspace/FW_Platform2_5/trunk/PlatformLibrary/LIB_Feedbacks\Feedbacks.c **** 
 452:C:/Workspace/FW_Platform2_5/trunk/PlatformLibrary/LIB_Feedbacks\Feedbacks.c ****             /* Get the Feedback value according with inversion bit */
 453:C:/Workspace/FW_Platform2_5/trunk/PlatformLibrary/LIB_Feedbacks\Feedbacks.c ****             pinval = LIB_DIO_GET_INPUT( FeedbackDescriptor[i].s.pin );
 454:C:/Workspace/FW_Platform2_5/trunk/PlatformLibrary/LIB_Feedbacks\Feedbacks.c **** 
 455:C:/Workspace/FW_Platform2_5/trunk/PlatformLibrary/LIB_Feedbacks\Feedbacks.c ****             /* Count the values */
 456:C:/Workspace/FW_Platform2_5/trunk/PlatformLibrary/LIB_Feedbacks\Feedbacks.c ****             if (pinval)
 457:C:/Workspace/FW_Platform2_5/trunk/PlatformLibrary/LIB_Feedbacks\Feedbacks.c ****             {
 458:C:/Workspace/FW_Platform2_5/trunk/PlatformLibrary/LIB_Feedbacks\Feedbacks.c ****                 FeedbackStatus[i].cntVal++;
 459:C:/Workspace/FW_Platform2_5/trunk/PlatformLibrary/LIB_Feedbacks\Feedbacks.c ****             }
 460:C:/Workspace/FW_Platform2_5/trunk/PlatformLibrary/LIB_Feedbacks\Feedbacks.c ****             else
 461:C:/Workspace/FW_Platform2_5/trunk/PlatformLibrary/LIB_Feedbacks\Feedbacks.c ****             {
 462:C:/Workspace/FW_Platform2_5/trunk/PlatformLibrary/LIB_Feedbacks\Feedbacks.c ****                 FeedbackStatus[i].cntVal--;
 463:C:/Workspace/FW_Platform2_5/trunk/PlatformLibrary/LIB_Feedbacks\Feedbacks.c ****             }
 464:C:/Workspace/FW_Platform2_5/trunk/PlatformLibrary/LIB_Feedbacks\Feedbacks.c **** 
 465:C:/Workspace/FW_Platform2_5/trunk/PlatformLibrary/LIB_Feedbacks\Feedbacks.c ****             /* If Zero Crossing Voltage is available */
 466:C:/Workspace/FW_Platform2_5/trunk/PlatformLibrary/LIB_Feedbacks\Feedbacks.c ****             if ( TRUE == zcIsAvailable )
 467:C:/Workspace/FW_Platform2_5/trunk/PlatformLibrary/LIB_Feedbacks\Feedbacks.c ****             {
 468:C:/Workspace/FW_Platform2_5/trunk/PlatformLibrary/LIB_Feedbacks\Feedbacks.c ****                 /* Check the matching with the ZC signal */
 469:C:/Workspace/FW_Platform2_5/trunk/PlatformLibrary/LIB_Feedbacks\Feedbacks.c **** #if defined(ZCV_CH_ID)
 470:C:/Workspace/FW_Platform2_5/trunk/PlatformLibrary/LIB_Feedbacks\Feedbacks.c ****                 (void)OCICU_GetModeSync(ZCV_CH_ID, &mode);
 471:C:/Workspace/FW_Platform2_5/trunk/PlatformLibrary/LIB_Feedbacks\Feedbacks.c ****                 if ( ICU_EDGE_MODE_RISING == mode )
 472:C:/Workspace/FW_Platform2_5/trunk/PlatformLibrary/LIB_Feedbacks\Feedbacks.c ****                 {
 473:C:/Workspace/FW_Platform2_5/trunk/PlatformLibrary/LIB_Feedbacks\Feedbacks.c ****                     zcSyncEdge = IRQ_ON_POSITIVE_EDGE;
 474:C:/Workspace/FW_Platform2_5/trunk/PlatformLibrary/LIB_Feedbacks\Feedbacks.c ****                 }
 475:C:/Workspace/FW_Platform2_5/trunk/PlatformLibrary/LIB_Feedbacks\Feedbacks.c ****                 else if ( ICU_EDGE_MODE_FALLING == mode )
 476:C:/Workspace/FW_Platform2_5/trunk/PlatformLibrary/LIB_Feedbacks\Feedbacks.c ****                 {
 477:C:/Workspace/FW_Platform2_5/trunk/PlatformLibrary/LIB_Feedbacks\Feedbacks.c ****                     zcSyncEdge = IRQ_ON_NEGATIVE_EDGE;
 478:C:/Workspace/FW_Platform2_5/trunk/PlatformLibrary/LIB_Feedbacks\Feedbacks.c ****                 }
 479:C:/Workspace/FW_Platform2_5/trunk/PlatformLibrary/LIB_Feedbacks\Feedbacks.c ****                 else
 480:C:/Workspace/FW_Platform2_5/trunk/PlatformLibrary/LIB_Feedbacks\Feedbacks.c ****                 {
 481:C:/Workspace/FW_Platform2_5/trunk/PlatformLibrary/LIB_Feedbacks\Feedbacks.c ****                     /* we have some troubles !*/
 482:C:/Workspace/FW_Platform2_5/trunk/PlatformLibrary/LIB_Feedbacks\Feedbacks.c ****                     PLT_ERROR_WARNING( PLT_ERROR_FEEDBACK_2 );
 483:C:/Workspace/FW_Platform2_5/trunk/PlatformLibrary/LIB_Feedbacks\Feedbacks.c ****                     zcSyncEdge = 0xFF;
 484:C:/Workspace/FW_Platform2_5/trunk/PlatformLibrary/LIB_Feedbacks\Feedbacks.c ****                 }
 485:C:/Workspace/FW_Platform2_5/trunk/PlatformLibrary/LIB_Feedbacks\Feedbacks.c **** #else
 486:C:/Workspace/FW_Platform2_5/trunk/PlatformLibrary/LIB_Feedbacks\Feedbacks.c ****                 zcSyncEdge = OCIRQ_GetEdgeSync();
 487:C:/Workspace/FW_Platform2_5/trunk/PlatformLibrary/LIB_Feedbacks\Feedbacks.c **** #endif
 488:C:/Workspace/FW_Platform2_5/trunk/PlatformLibrary/LIB_Feedbacks\Feedbacks.c ****                 /*
 489:C:/Workspace/FW_Platform2_5/trunk/PlatformLibrary/LIB_Feedbacks\Feedbacks.c ****                    I am waiting for positive edge so I am on the low level of zero crossing and I r
 490:C:/Workspace/FW_Platform2_5/trunk/PlatformLibrary/LIB_Feedbacks\Feedbacks.c ****                    or
 491:C:/Workspace/FW_Platform2_5/trunk/PlatformLibrary/LIB_Feedbacks\Feedbacks.c ****                    I am waiting for negative edge so I am on the high level of zero crossing and I 
 492:C:/Workspace/FW_Platform2_5/trunk/PlatformLibrary/LIB_Feedbacks\Feedbacks.c ****                 */
 493:C:/Workspace/FW_Platform2_5/trunk/PlatformLibrary/LIB_Feedbacks\Feedbacks.c ****                 if (((IRQ_ON_POSITIVE_EDGE == zcSyncEdge) && (FALSE == pinval)) ||
 494:C:/Workspace/FW_Platform2_5/trunk/PlatformLibrary/LIB_Feedbacks\Feedbacks.c ****                         ((IRQ_ON_NEGATIVE_EDGE == zcSyncEdge) && (TRUE == pinval)))
 495:C:/Workspace/FW_Platform2_5/trunk/PlatformLibrary/LIB_Feedbacks\Feedbacks.c ****                 {
 496:C:/Workspace/FW_Platform2_5/trunk/PlatformLibrary/LIB_Feedbacks\Feedbacks.c ****                     /* Match -> feedback in phase with zero crossing voltage */
 497:C:/Workspace/FW_Platform2_5/trunk/PlatformLibrary/LIB_Feedbacks\Feedbacks.c ****                     FeedbackStatus[i].cntZCmatch++;
 498:C:/Workspace/FW_Platform2_5/trunk/PlatformLibrary/LIB_Feedbacks\Feedbacks.c ****                 }
 499:C:/Workspace/FW_Platform2_5/trunk/PlatformLibrary/LIB_Feedbacks\Feedbacks.c ****                 else
 500:C:/Workspace/FW_Platform2_5/trunk/PlatformLibrary/LIB_Feedbacks\Feedbacks.c ****                 {
 501:C:/Workspace/FW_Platform2_5/trunk/PlatformLibrary/LIB_Feedbacks\Feedbacks.c ****                     /* No match -> feedback in phase opposition respect zero crossing voltage */
 502:C:/Workspace/FW_Platform2_5/trunk/PlatformLibrary/LIB_Feedbacks\Feedbacks.c ****                     FeedbackStatus[i].cntZCmatch--;
 503:C:/Workspace/FW_Platform2_5/trunk/PlatformLibrary/LIB_Feedbacks\Feedbacks.c ****                 }
 504:C:/Workspace/FW_Platform2_5/trunk/PlatformLibrary/LIB_Feedbacks\Feedbacks.c ****             }
 505:C:/Workspace/FW_Platform2_5/trunk/PlatformLibrary/LIB_Feedbacks\Feedbacks.c **** 
 506:C:/Workspace/FW_Platform2_5/trunk/PlatformLibrary/LIB_Feedbacks\Feedbacks.c ****             /* Update num. samples Counter  */
 507:C:/Workspace/FW_Platform2_5/trunk/PlatformLibrary/LIB_Feedbacks\Feedbacks.c ****             FeedbackStatus[i].cntSamples++;
 508:C:/Workspace/FW_Platform2_5/trunk/PlatformLibrary/LIB_Feedbacks\Feedbacks.c **** 
 509:C:/Workspace/FW_Platform2_5/trunk/PlatformLibrary/LIB_Feedbacks\Feedbacks.c ****             /* Check if time to decide feedback's state */
 510:C:/Workspace/FW_Platform2_5/trunk/PlatformLibrary/LIB_Feedbacks\Feedbacks.c ****             if ( FeedbackStatus[i].cntSamples >= FEEDBACK_SAMPLES )
 511:C:/Workspace/FW_Platform2_5/trunk/PlatformLibrary/LIB_Feedbacks\Feedbacks.c ****             {
 512:C:/Workspace/FW_Platform2_5/trunk/PlatformLibrary/LIB_Feedbacks\Feedbacks.c ****                 FeedbackStatus[i].cntSamples = 0;
 513:C:/Workspace/FW_Platform2_5/trunk/PlatformLibrary/LIB_Feedbacks\Feedbacks.c ****                 /* No value for feedbacks */
 514:C:/Workspace/FW_Platform2_5/trunk/PlatformLibrary/LIB_Feedbacks\Feedbacks.c ****                 tmpFeedbackValue = FDB_INDETERMINATE;
 515:C:/Workspace/FW_Platform2_5/trunk/PlatformLibrary/LIB_Feedbacks\Feedbacks.c **** 
 516:C:/Workspace/FW_Platform2_5/trunk/PlatformLibrary/LIB_Feedbacks\Feedbacks.c **** 
 517:C:/Workspace/FW_Platform2_5/trunk/PlatformLibrary/LIB_Feedbacks\Feedbacks.c ****                 if ( FALSE == zcIsAvailable )
 518:C:/Workspace/FW_Platform2_5/trunk/PlatformLibrary/LIB_Feedbacks\Feedbacks.c ****                 {
 519:C:/Workspace/FW_Platform2_5/trunk/PlatformLibrary/LIB_Feedbacks\Feedbacks.c ****                     /* Zero Crossing Voltage Not Available */
 520:C:/Workspace/FW_Platform2_5/trunk/PlatformLibrary/LIB_Feedbacks\Feedbacks.c ****                     if ( abs(FeedbackStatus[i].cntVal) <= FDB_NO_ZC_LIMIT_FOR_FREQ)
 521:C:/Workspace/FW_Platform2_5/trunk/PlatformLibrary/LIB_Feedbacks\Feedbacks.c ****                     {
 522:C:/Workspace/FW_Platform2_5/trunk/PlatformLibrary/LIB_Feedbacks\Feedbacks.c ****                         /* frequency on feedback */
 523:C:/Workspace/FW_Platform2_5/trunk/PlatformLibrary/LIB_Feedbacks\Feedbacks.c ****                         tmpFeedbackValue = FDB_INPUT_FREQ_PHASE;
 524:C:/Workspace/FW_Platform2_5/trunk/PlatformLibrary/LIB_Feedbacks\Feedbacks.c ****                     }
 525:C:/Workspace/FW_Platform2_5/trunk/PlatformLibrary/LIB_Feedbacks\Feedbacks.c ****                     else if ( abs(FeedbackStatus[i].cntVal) >= FDB_NO_ZC_LIMIT_FOR_LEVEL)
 526:C:/Workspace/FW_Platform2_5/trunk/PlatformLibrary/LIB_Feedbacks\Feedbacks.c ****                     {
 527:C:/Workspace/FW_Platform2_5/trunk/PlatformLibrary/LIB_Feedbacks\Feedbacks.c ****                         if ( FeedbackStatus[i].cntVal > 0 )
 528:C:/Workspace/FW_Platform2_5/trunk/PlatformLibrary/LIB_Feedbacks\Feedbacks.c ****                         {
 529:C:/Workspace/FW_Platform2_5/trunk/PlatformLibrary/LIB_Feedbacks\Feedbacks.c ****                             /* feedback is high */
 530:C:/Workspace/FW_Platform2_5/trunk/PlatformLibrary/LIB_Feedbacks\Feedbacks.c ****                             tmpFeedbackValue = FDB_INPUT_HI;
 531:C:/Workspace/FW_Platform2_5/trunk/PlatformLibrary/LIB_Feedbacks\Feedbacks.c ****                         }
 532:C:/Workspace/FW_Platform2_5/trunk/PlatformLibrary/LIB_Feedbacks\Feedbacks.c ****                         else
 533:C:/Workspace/FW_Platform2_5/trunk/PlatformLibrary/LIB_Feedbacks\Feedbacks.c ****                         {
 534:C:/Workspace/FW_Platform2_5/trunk/PlatformLibrary/LIB_Feedbacks\Feedbacks.c ****                             /* feedback is low */
 535:C:/Workspace/FW_Platform2_5/trunk/PlatformLibrary/LIB_Feedbacks\Feedbacks.c ****                             tmpFeedbackValue = FDB_INPUT_LOW;
 536:C:/Workspace/FW_Platform2_5/trunk/PlatformLibrary/LIB_Feedbacks\Feedbacks.c ****                         }
 537:C:/Workspace/FW_Platform2_5/trunk/PlatformLibrary/LIB_Feedbacks\Feedbacks.c ****                     }
 538:C:/Workspace/FW_Platform2_5/trunk/PlatformLibrary/LIB_Feedbacks\Feedbacks.c ****                     else
 539:C:/Workspace/FW_Platform2_5/trunk/PlatformLibrary/LIB_Feedbacks\Feedbacks.c ****                     {
 540:C:/Workspace/FW_Platform2_5/trunk/PlatformLibrary/LIB_Feedbacks\Feedbacks.c ****                         /* no decision ! */
 541:C:/Workspace/FW_Platform2_5/trunk/PlatformLibrary/LIB_Feedbacks\Feedbacks.c ****                     }
 542:C:/Workspace/FW_Platform2_5/trunk/PlatformLibrary/LIB_Feedbacks\Feedbacks.c ****                 }
 543:C:/Workspace/FW_Platform2_5/trunk/PlatformLibrary/LIB_Feedbacks\Feedbacks.c ****                 else
 544:C:/Workspace/FW_Platform2_5/trunk/PlatformLibrary/LIB_Feedbacks\Feedbacks.c ****                 {
 545:C:/Workspace/FW_Platform2_5/trunk/PlatformLibrary/LIB_Feedbacks\Feedbacks.c ****                     /* Zero Crossing Voltage Available */
 546:C:/Workspace/FW_Platform2_5/trunk/PlatformLibrary/LIB_Feedbacks\Feedbacks.c ****                     if ( abs(FeedbackStatus[i].cntZCmatch) >= FDB_ZC_LIMIT_FOR_FREQ )
 547:C:/Workspace/FW_Platform2_5/trunk/PlatformLibrary/LIB_Feedbacks\Feedbacks.c ****                     {
 548:C:/Workspace/FW_Platform2_5/trunk/PlatformLibrary/LIB_Feedbacks\Feedbacks.c ****                         /* frequency on feedback */
 549:C:/Workspace/FW_Platform2_5/trunk/PlatformLibrary/LIB_Feedbacks\Feedbacks.c ****                         if ( FeedbackStatus[i].cntZCmatch > 0 )
 550:C:/Workspace/FW_Platform2_5/trunk/PlatformLibrary/LIB_Feedbacks\Feedbacks.c ****                         {
 551:C:/Workspace/FW_Platform2_5/trunk/PlatformLibrary/LIB_Feedbacks\Feedbacks.c ****                             /* frequency in phase respect zero crossing voltage on feedback */
 552:C:/Workspace/FW_Platform2_5/trunk/PlatformLibrary/LIB_Feedbacks\Feedbacks.c ****                             tmpFeedbackValue = FDB_INPUT_FREQ_PHASE;
 553:C:/Workspace/FW_Platform2_5/trunk/PlatformLibrary/LIB_Feedbacks\Feedbacks.c ****                         }
 554:C:/Workspace/FW_Platform2_5/trunk/PlatformLibrary/LIB_Feedbacks\Feedbacks.c ****                         else
 555:C:/Workspace/FW_Platform2_5/trunk/PlatformLibrary/LIB_Feedbacks\Feedbacks.c ****                         {
 556:C:/Workspace/FW_Platform2_5/trunk/PlatformLibrary/LIB_Feedbacks\Feedbacks.c ****                             /* frequency in opposition phase respect zero crossing voltage on feedb
 557:C:/Workspace/FW_Platform2_5/trunk/PlatformLibrary/LIB_Feedbacks\Feedbacks.c ****                             tmpFeedbackValue = FDB_INPUT_FREQ_OPP_PHASE;
 558:C:/Workspace/FW_Platform2_5/trunk/PlatformLibrary/LIB_Feedbacks\Feedbacks.c ****                         }
 559:C:/Workspace/FW_Platform2_5/trunk/PlatformLibrary/LIB_Feedbacks\Feedbacks.c ****                     }
 560:C:/Workspace/FW_Platform2_5/trunk/PlatformLibrary/LIB_Feedbacks\Feedbacks.c ****                     else if ( abs(FeedbackStatus[i].cntVal) >= FDB_ZC_LIMIT_FOR_LEVEL )
 561:C:/Workspace/FW_Platform2_5/trunk/PlatformLibrary/LIB_Feedbacks\Feedbacks.c ****                     {
 562:C:/Workspace/FW_Platform2_5/trunk/PlatformLibrary/LIB_Feedbacks\Feedbacks.c ****                         /* level on feedback */
 563:C:/Workspace/FW_Platform2_5/trunk/PlatformLibrary/LIB_Feedbacks\Feedbacks.c ****                         if ( FeedbackStatus[i].cntVal > 0 )
 564:C:/Workspace/FW_Platform2_5/trunk/PlatformLibrary/LIB_Feedbacks\Feedbacks.c ****                         {
 565:C:/Workspace/FW_Platform2_5/trunk/PlatformLibrary/LIB_Feedbacks\Feedbacks.c ****                             /* high value on feedback */
 566:C:/Workspace/FW_Platform2_5/trunk/PlatformLibrary/LIB_Feedbacks\Feedbacks.c ****                             tmpFeedbackValue = FDB_INPUT_HI;
 567:C:/Workspace/FW_Platform2_5/trunk/PlatformLibrary/LIB_Feedbacks\Feedbacks.c ****                         }
 568:C:/Workspace/FW_Platform2_5/trunk/PlatformLibrary/LIB_Feedbacks\Feedbacks.c ****                         else
 569:C:/Workspace/FW_Platform2_5/trunk/PlatformLibrary/LIB_Feedbacks\Feedbacks.c ****                         {
 570:C:/Workspace/FW_Platform2_5/trunk/PlatformLibrary/LIB_Feedbacks\Feedbacks.c ****                             /* low value on feedback */
 571:C:/Workspace/FW_Platform2_5/trunk/PlatformLibrary/LIB_Feedbacks\Feedbacks.c ****                             tmpFeedbackValue = FDB_INPUT_LOW;
 572:C:/Workspace/FW_Platform2_5/trunk/PlatformLibrary/LIB_Feedbacks\Feedbacks.c ****                         }
 573:C:/Workspace/FW_Platform2_5/trunk/PlatformLibrary/LIB_Feedbacks\Feedbacks.c ****                     }
 574:C:/Workspace/FW_Platform2_5/trunk/PlatformLibrary/LIB_Feedbacks\Feedbacks.c ****                     else
 575:C:/Workspace/FW_Platform2_5/trunk/PlatformLibrary/LIB_Feedbacks\Feedbacks.c ****                     {
 576:C:/Workspace/FW_Platform2_5/trunk/PlatformLibrary/LIB_Feedbacks\Feedbacks.c ****                         /* no decision ! */
 577:C:/Workspace/FW_Platform2_5/trunk/PlatformLibrary/LIB_Feedbacks\Feedbacks.c ****                     }
 578:C:/Workspace/FW_Platform2_5/trunk/PlatformLibrary/LIB_Feedbacks\Feedbacks.c ****                 }
 579:C:/Workspace/FW_Platform2_5/trunk/PlatformLibrary/LIB_Feedbacks\Feedbacks.c **** 
 580:C:/Workspace/FW_Platform2_5/trunk/PlatformLibrary/LIB_Feedbacks\Feedbacks.c ****                 feedbackMask = (feedbackBitfield_t)(1u<<i);
 217                             		.loc 1 580 0
 218 000e 66 1D                   		mov.L	#1, r13
 581:C:/Workspace/FW_Platform2_5/trunk/PlatformLibrary/LIB_Feedbacks\Feedbacks.c ****                 /* Process tmpFeedbackValue and update Feedback[] if feedback is not disabled */
 582:C:/Workspace/FW_Platform2_5/trunk/PlatformLibrary/LIB_Feedbacks\Feedbacks.c ****                 if ( ( FeedbackInputDisable & feedbackMask ) == 0 )
 219                             		.loc 1 582 0
 220 0010 FB 92 00 00 00 00       		mov.L	#_FeedbackInputDisable, r9
 583:C:/Workspace/FW_Platform2_5/trunk/PlatformLibrary/LIB_Feedbacks\Feedbacks.c ****                 {
 584:C:/Workspace/FW_Platform2_5/trunk/PlatformLibrary/LIB_Feedbacks\Feedbacks.c ****                     if ( tmpFeedbackValue != FDB_INDETERMINATE )
 585:C:/Workspace/FW_Platform2_5/trunk/PlatformLibrary/LIB_Feedbacks\Feedbacks.c ****                     {
 586:C:/Workspace/FW_Platform2_5/trunk/PlatformLibrary/LIB_Feedbacks\Feedbacks.c ****                         Feedback[i] = tmpFeedbackValue;
 221                             		.loc 1 586 0
 222 0016 FB 82 00 00 00 00       		mov.L	#_Feedback, r8
 223                             	.LVL23:
 224                             		.balign 2,3,2
 225                             	.L38:
 426:C:/Workspace/FW_Platform2_5/trunk/PlatformLibrary/LIB_Feedbacks\Feedbacks.c ****         if ( FeedbackDescriptor[i].s.active && (FeedbackDescriptor[i].s.loadP == loadType) )
 226                             		.loc 1 426 0
 227 001c FF 2B AA                		add	r10, r10, r11
 228 001f 70 BB 00 00 00 00       		add	#_FeedbackDescriptor, r11
 229 0025 5C B1                   		movu.W	[r11], r1
 230 0027 FD 8F 1B                		shlr	#15, r1, r11
 231 002a 3A D6 00                		beq	.L24
 426:C:/Workspace/FW_Platform2_5/trunk/PlatformLibrary/LIB_Feedbacks\Feedbacks.c ****         if ( FeedbackDescriptor[i].s.active && (FeedbackDescriptor[i].s.loadP == loadType) )
 232                             		.loc 1 426 0 is_stmt 0 discriminator 1
 233 002d FD 87 1B                		shlr	#7, r1, r11
 234 0030 64 1B                   		and	#1, r11
 235 0032 47 CB                   		cmp	r12, r11
 236 0034 3B CC 00                		bne	.L24
 453:C:/Workspace/FW_Platform2_5/trunk/PlatformLibrary/LIB_Feedbacks\Feedbacks.c ****             pinval = LIB_DIO_GET_INPUT( FeedbackDescriptor[i].s.pin );
 237                             		.loc 1 453 0 is_stmt 1
 238 0037 68 11                   		shlr	#1, r1
 239 0039 75 21 3F                		and	#63, r1
 240 003c 05 00 00 00             		bsr	_LIB_DIO_GET_INPUT
 241                             	.LVL24:
 456:C:/Workspace/FW_Platform2_5/trunk/PlatformLibrary/LIB_Feedbacks\Feedbacks.c ****             if (pinval)
 242                             		.loc 1 456 0
 243 0040 61 01                   		cmp	#0, r1
 453:C:/Workspace/FW_Platform2_5/trunk/PlatformLibrary/LIB_Feedbacks\Feedbacks.c ****             pinval = LIB_DIO_GET_INPUT( FeedbackDescriptor[i].s.pin );
 244                             		.loc 1 453 0
 245 0042 EF 1B                   		mov.L	r1, r11
 246                             	.LVL25:
 458:C:/Workspace/FW_Platform2_5/trunk/PlatformLibrary/LIB_Feedbacks\Feedbacks.c ****                 FeedbackStatus[i].cntVal++;
 247                             		.loc 1 458 0
 248 0044 CD 7E 01                		mov.B	1[r7], r14
 456:C:/Workspace/FW_Platform2_5/trunk/PlatformLibrary/LIB_Feedbacks\Feedbacks.c ****             if (pinval)
 249                             		.loc 1 456 0
 250 0047 20 06                   		beq	.L26
 458:C:/Workspace/FW_Platform2_5/trunk/PlatformLibrary/LIB_Feedbacks\Feedbacks.c ****                 FeedbackStatus[i].cntVal++;
 251                             		.loc 1 458 0
 252 0049 62 1E                   		add	#1, r14
 253 004b 2E 05                   		bra	.L49
 254                             	.L26:
 462:C:/Workspace/FW_Platform2_5/trunk/PlatformLibrary/LIB_Feedbacks\Feedbacks.c ****                 FeedbackStatus[i].cntVal--;
 255                             		.loc 1 462 0
 256 004d 60 1E                   		sub	#1, r14
 257 004f 03                      		.balign 2,3,5
 258                             	.L49:
 259 0050 C7 7E 01                		mov.B	r14, 1[r7]
 466:C:/Workspace/FW_Platform2_5/trunk/PlatformLibrary/LIB_Feedbacks\Feedbacks.c ****             if ( TRUE == zcIsAvailable )
 260                             		.loc 1 466 0
 261 0053 61 16                   		cmp	#1, r6
 262 0055 21 27                   		bne	.L28
 486:C:/Workspace/FW_Platform2_5/trunk/PlatformLibrary/LIB_Feedbacks\Feedbacks.c ****                 zcSyncEdge = OCIRQ_GetEdgeSync();
 263                             		.loc 1 486 0
 264 0057 05 00 00 00             		bsr	_OCIRQ_GetEdgeSync
 265                             	.LVL26:
 493:C:/Workspace/FW_Platform2_5/trunk/PlatformLibrary/LIB_Feedbacks\Feedbacks.c ****                 if (((IRQ_ON_POSITIVE_EDGE == zcSyncEdge) && (FALSE == pinval)) ||
 266                             		.loc 1 493 0
 267 005b 61 11                   		cmp	#1, r1
 268 005d 21 06                   		bne	.L29
 493:C:/Workspace/FW_Platform2_5/trunk/PlatformLibrary/LIB_Feedbacks\Feedbacks.c ****                 if (((IRQ_ON_POSITIVE_EDGE == zcSyncEdge) && (FALSE == pinval)) ||
 269                             		.loc 1 493 0 is_stmt 0 discriminator 1
 270 005f 61 0B                   		cmp	#0, r11
 271 0061 2E 08                   		bra	.L50
 272                             	.L29:
 493:C:/Workspace/FW_Platform2_5/trunk/PlatformLibrary/LIB_Feedbacks\Feedbacks.c ****                 if (((IRQ_ON_POSITIVE_EDGE == zcSyncEdge) && (FALSE == pinval)) ||
 273                             		.loc 1 493 0 discriminator 2
 274 0063 61 01                   		cmp	#0, r1
 275 0065 21 0D                   		bne	.L31
 494:C:/Workspace/FW_Platform2_5/trunk/PlatformLibrary/LIB_Feedbacks\Feedbacks.c ****                         ((IRQ_ON_NEGATIVE_EDGE == zcSyncEdge) && (TRUE == pinval)))
 276                             		.loc 1 494 0 is_stmt 1
 277 0067 61 1B                   		cmp	#1, r11
 278                             	.L50:
 279 0069 21 09                   		bne	.L31
 497:C:/Workspace/FW_Platform2_5/trunk/PlatformLibrary/LIB_Feedbacks\Feedbacks.c ****                     FeedbackStatus[i].cntZCmatch++;
 280                             		.loc 1 497 0
 281 006b CD 7B 02                		mov.B	2[r7], r11
 282                             	.LVL27:
 283 006e 62 1B                   		add	#1, r11
 284 0070 2E 08                   		bra	.L51
 285                             	.LVL28:
 286                             	.L31:
 502:C:/Workspace/FW_Platform2_5/trunk/PlatformLibrary/LIB_Feedbacks\Feedbacks.c ****                     FeedbackStatus[i].cntZCmatch--;
 287                             		.loc 1 502 0
 288 0072 CD 7B 02                		mov.B	2[r7], r11
 289                             	.LVL29:
 290 0075 60 1B                   		sub	#1, r11
 291 0077 03                      		.balign 2,3,5
 292                             	.L51:
 293 0078 C7 7B 02                		mov.B	r11, 2[r7]
 294                             	.LVL30:
 295 007b 03                      		.balign 2,3,5
 296                             	.L28:
 507:C:/Workspace/FW_Platform2_5/trunk/PlatformLibrary/LIB_Feedbacks\Feedbacks.c ****             FeedbackStatus[i].cntSamples++;
 297                             		.loc 1 507 0
 298 007c CC 7B                   		mov.B	[r7], r11
 299 007e 62 1B                   		add	#1, r11
 300 0080 C3 7B                   		mov.B	r11, [r7]
 510:C:/Workspace/FW_Platform2_5/trunk/PlatformLibrary/LIB_Feedbacks\Feedbacks.c ****             if ( FeedbackStatus[i].cntSamples >= FEEDBACK_SAMPLES )
 301                             		.loc 1 510 0
 302 0082 5B BB                   		movu.B	r11, r11
 303 0084 61 FB                   		cmp	#15, r11
 304 0086 25 7A                   		bleu	.L24
 512:C:/Workspace/FW_Platform2_5/trunk/PlatformLibrary/LIB_Feedbacks\Feedbacks.c ****                 FeedbackStatus[i].cntSamples = 0;
 305                             		.loc 1 512 0
 306 0088 3C 70 00                		mov.B	#0, [r7]
 307                             	.LVL31:
 517:C:/Workspace/FW_Platform2_5/trunk/PlatformLibrary/LIB_Feedbacks\Feedbacks.c ****                 if ( FALSE == zcIsAvailable )
 308                             		.loc 1 517 0
 309 008b 61 06                   		cmp	#0, r6
 310 008d 21 17                   		bne	.L32
 520:C:/Workspace/FW_Platform2_5/trunk/PlatformLibrary/LIB_Feedbacks\Feedbacks.c ****                     if ( abs(FeedbackStatus[i].cntVal) <= FDB_NO_ZC_LIMIT_FOR_FREQ)
 311                             		.loc 1 520 0
 312 008f CD 7E 01                		mov.B	1[r7], r14
 313 0092 71 EB 02                		add	#2, r14, r11
 314 0095 5B BB                   		movu.B	r11, r11
 315 0097 61 4B                   		cmp	#4, r11
 316 0099 24 07                   		bgtu	.L33
 317 009b 03                      		.balign 2,3,1
 318                             	.L36:
 523:C:/Workspace/FW_Platform2_5/trunk/PlatformLibrary/LIB_Feedbacks\Feedbacks.c ****                         tmpFeedbackValue = FDB_INPUT_FREQ_PHASE;
 319                             		.loc 1 523 0
 320 009c 66 3E                   		mov	#3, r14
 321 009e 2E 2E                   		bra	.L34
 322                             	.L33:
 525:C:/Workspace/FW_Platform2_5/trunk/PlatformLibrary/LIB_Feedbacks\Feedbacks.c ****                     else if ( abs(FeedbackStatus[i].cntVal) >= FDB_NO_ZC_LIMIT_FOR_LEVEL)
 323                             		.loc 1 525 0
 324 00a0 CF EE                   		mov.B	r14, r14
 325 00a2 2E 18                   		bra	.L54
 326                             	.L32:
 546:C:/Workspace/FW_Platform2_5/trunk/PlatformLibrary/LIB_Feedbacks\Feedbacks.c ****                     if ( abs(FeedbackStatus[i].cntZCmatch) >= FDB_ZC_LIMIT_FOR_FREQ )
 327                             		.loc 1 546 0
 328 00a4 CD 7B 02                		mov.B	2[r7], r11
 329 00a7 FC 0F BE                		abs	r11, r14
 330 00aa 61 DE                   		cmp	#13, r14
 331 00ac 2B 0A                   		ble	.L35
 549:C:/Workspace/FW_Platform2_5/trunk/PlatformLibrary/LIB_Feedbacks\Feedbacks.c ****                         if ( FeedbackStatus[i].cntZCmatch > 0 )
 332                             		.loc 1 549 0
 333 00ae 61 0B                   		cmp	#0, r11
 334 00b0 2A EC                   		bgt	.L36
 557:C:/Workspace/FW_Platform2_5/trunk/PlatformLibrary/LIB_Feedbacks\Feedbacks.c ****                             tmpFeedbackValue = FDB_INPUT_FREQ_OPP_PHASE;
 335                             		.loc 1 557 0
 336 00b2 66 2E                   		mov	#2, r14
 337 00b4 2E 18                   		bra	.L34
 338                             	.L35:
 560:C:/Workspace/FW_Platform2_5/trunk/PlatformLibrary/LIB_Feedbacks\Feedbacks.c ****                     else if ( abs(FeedbackStatus[i].cntVal) >= FDB_ZC_LIMIT_FOR_LEVEL )
 339                             		.loc 1 560 0
 340 00b6 CD 7E 01                		mov.B	1[r7], r14
 341 00b9 03                      		.balign 2,3,2
 342                             	.L54:
 343 00ba FC 0F EB                		abs	r14, r11
 344 00bd 61 DB                   		cmp	#13, r11
 345 00bf 2B 09                   		ble	.L40
 563:C:/Workspace/FW_Platform2_5/trunk/PlatformLibrary/LIB_Feedbacks\Feedbacks.c ****                         if ( FeedbackStatus[i].cntVal > 0 )
 346                             		.loc 1 563 0
 347 00c1 61 0E                   		cmp	#0, r14
 348 00c3 FC DB EA                		scgt.L	r14
 349 00c6 2E 06                   		bra	.L34
 350                             	.L40:
 514:C:/Workspace/FW_Platform2_5/trunk/PlatformLibrary/LIB_Feedbacks\Feedbacks.c ****                 tmpFeedbackValue = FDB_INDETERMINATE;
 351                             		.loc 1 514 0
 352 00c8 FB E6 FF                		mov	#-1, r14
 353 00cb 03                      		.balign 2,3,1
 354                             	.L34:
 355                             	.LVL32:
 580:C:/Workspace/FW_Platform2_5/trunk/PlatformLibrary/LIB_Feedbacks\Feedbacks.c ****                 feedbackMask = (feedbackBitfield_t)(1u<<i);
 356                             		.loc 1 580 0
 357 00cc EF D4                   		mov.L	r13, r4
 582:C:/Workspace/FW_Platform2_5/trunk/PlatformLibrary/LIB_Feedbacks\Feedbacks.c ****                 if ( ( FeedbackInputDisable & feedbackMask ) == 0 )
 358                             		.loc 1 582 0
 359 00ce CC 9B                   		mov.B	[r9], r11
 580:C:/Workspace/FW_Platform2_5/trunk/PlatformLibrary/LIB_Feedbacks\Feedbacks.c ****                 feedbackMask = (feedbackBitfield_t)(1u<<i);
 360                             		.loc 1 580 0
 361 00d0 FD 62 A4                		shll	r10, r4
 582:C:/Workspace/FW_Platform2_5/trunk/PlatformLibrary/LIB_Feedbacks\Feedbacks.c ****                 if ( ( FeedbackInputDisable & feedbackMask ) == 0 )
 362                             		.loc 1 582 0
 363 00d3 53 4B                   		and	r4, r11
 364 00d5 5B BB                   		movu.B	r11, r11
 365 00d7 61 0B                   		cmp	#0, r11
 366 00d9 21 0D                   		bne	.L37
 584:C:/Workspace/FW_Platform2_5/trunk/PlatformLibrary/LIB_Feedbacks\Feedbacks.c ****                     if ( tmpFeedbackValue != FDB_INDETERMINATE )
 367                             		.loc 1 584 0
 368 00db 5B EB                   		movu.B	r14, r11
 369 00dd 75 5B FF                		cmp	#0xff, r11
 370 00e0 20 06                   		beq	.L37
 371                             		.loc 1 586 0
 372 00e2 FE 0A 8E                		mov.B	r14, [r10,r8]
 373 00e5 03                      		.balign 2,3,2
 374                             	.L37:
 587:C:/Workspace/FW_Platform2_5/trunk/PlatformLibrary/LIB_Feedbacks\Feedbacks.c ****                     }
 588:C:/Workspace/FW_Platform2_5/trunk/PlatformLibrary/LIB_Feedbacks\Feedbacks.c ****                 }
 589:C:/Workspace/FW_Platform2_5/trunk/PlatformLibrary/LIB_Feedbacks\Feedbacks.c **** 
 590:C:/Workspace/FW_Platform2_5/trunk/PlatformLibrary/LIB_Feedbacks\Feedbacks.c ****                 FeedbackStatus[i].ready 			= 1;
 375                             		.loc 1 590 0
 376 00e6 FD C3 AB                		shll	#3, r10, r11
 377 00e9 70 BB 00 00 00 00       		add	#_FeedbackStatus, r11
 378 00ef CD BE 04                		mov.B	4[r11], r14
 379                             	.LVL33:
 380 00f2 78 7E                   		bset	#7, r14
 591:C:/Workspace/FW_Platform2_5/trunk/PlatformLibrary/LIB_Feedbacks\Feedbacks.c ****                 FeedbackStatus[i].readyWritable 	= 1;
 381                             		.loc 1 591 0
 382 00f4 78 6E                   		bset	#6, r14
 383 00f6 C7 BE 04                		mov.B	r14, 4[r11]
 592:C:/Workspace/FW_Platform2_5/trunk/PlatformLibrary/LIB_Feedbacks\Feedbacks.c ****                 FeedbackStatus[i].cntZCmatch       	= 0;
 384                             		.loc 1 592 0
 385 00f9 3C 72 00                		mov.B	#0, 2[r7]
 593:C:/Workspace/FW_Platform2_5/trunk/PlatformLibrary/LIB_Feedbacks\Feedbacks.c ****                 FeedbackStatus[i].cntVal 			= 0;
 386                             		.loc 1 593 0
 387 00fc 3C 71 00                		mov.B	#0, 1[r7]
 388                             	.LVL34:
 389 00ff 03                      		.balign 2,3,1
 390                             	.L24:
 391 0100 62 1A                   		add	#1, r10
 392 0102 62 87                   		add	#8, r7
 411:C:/Workspace/FW_Platform2_5/trunk/PlatformLibrary/LIB_Feedbacks\Feedbacks.c ****     for ( i = 0; i < N_FEEDBACK ; i++ )
 393                             		.loc 1 411 0
 394 0104 61 8A                   		cmp	#8, r10
 395 0106 3B 16 FF                		bne	.L38
 594:C:/Workspace/FW_Platform2_5/trunk/PlatformLibrary/LIB_Feedbacks\Feedbacks.c **** 
 595:C:/Workspace/FW_Platform2_5/trunk/PlatformLibrary/LIB_Feedbacks\Feedbacks.c ****             }
 596:C:/Workspace/FW_Platform2_5/trunk/PlatformLibrary/LIB_Feedbacks\Feedbacks.c **** 
 597:C:/Workspace/FW_Platform2_5/trunk/PlatformLibrary/LIB_Feedbacks\Feedbacks.c ****         }
 598:C:/Workspace/FW_Platform2_5/trunk/PlatformLibrary/LIB_Feedbacks\Feedbacks.c **** 
 599:C:/Workspace/FW_Platform2_5/trunk/PlatformLibrary/LIB_Feedbacks\Feedbacks.c ****         SAFETY_DATA_ELEM_UPDATE( Feedback, i);
 600:C:/Workspace/FW_Platform2_5/trunk/PlatformLibrary/LIB_Feedbacks\Feedbacks.c ****         SAFETY_DATA_ELEM_UPDATE( FeedbackStatus, i);
 601:C:/Workspace/FW_Platform2_5/trunk/PlatformLibrary/LIB_Feedbacks\Feedbacks.c ****         SAFETY_DATA_ELEM_UPDATE( FeedbackDescriptor, i);
 602:C:/Workspace/FW_Platform2_5/trunk/PlatformLibrary/LIB_Feedbacks\Feedbacks.c ****         SAFETY_DATA_UPDATE( FeedbackInputDisable );
 603:C:/Workspace/FW_Platform2_5/trunk/PlatformLibrary/LIB_Feedbacks\Feedbacks.c **** 
 604:C:/Workspace/FW_Platform2_5/trunk/PlatformLibrary/LIB_Feedbacks\Feedbacks.c ****         SAFETY_REGION_END();
 605:C:/Workspace/FW_Platform2_5/trunk/PlatformLibrary/LIB_Feedbacks\Feedbacks.c ****         /* SAFETY REGION END */
 606:C:/Workspace/FW_Platform2_5/trunk/PlatformLibrary/LIB_Feedbacks\Feedbacks.c ****     }
 607:C:/Workspace/FW_Platform2_5/trunk/PlatformLibrary/LIB_Feedbacks\Feedbacks.c ****     /* TRACE_TO_PIN(0,24); */
 608:C:/Workspace/FW_Platform2_5/trunk/PlatformLibrary/LIB_Feedbacks\Feedbacks.c **** }
 396                             		.loc 1 608 0
 397 0109 3F 6D 08                		rtsd	#32, r6-r13
 398                             	.LFE7:
 400                             		.section	.text.LIB_FDB_IsFeedbackWritableReady,"ax",@progbits
 401                             		.global	_LIB_FDB_IsFeedbackWritableReady
 403                             	_LIB_FDB_IsFeedbackWritableReady:
 404                             	.LFB8:
 609:C:/Workspace/FW_Platform2_5/trunk/PlatformLibrary/LIB_Feedbacks\Feedbacks.c **** 
 610:C:/Workspace/FW_Platform2_5/trunk/PlatformLibrary/LIB_Feedbacks\Feedbacks.c **** /**
 611:C:/Workspace/FW_Platform2_5/trunk/PlatformLibrary/LIB_Feedbacks\Feedbacks.c **** LIB_FDB_IsFeedbackWritableReady
 612:C:/Workspace/FW_Platform2_5/trunk/PlatformLibrary/LIB_Feedbacks\Feedbacks.c **** This function returns TRUE if feedback in position "pos" was acquired.
 613:C:/Workspace/FW_Platform2_5/trunk/PlatformLibrary/LIB_Feedbacks\Feedbacks.c **** \n The function acts on FeedbackReadyWritable.
 614:C:/Workspace/FW_Platform2_5/trunk/PlatformLibrary/LIB_Feedbacks\Feedbacks.c **** 
 615:C:/Workspace/FW_Platform2_5/trunk/PlatformLibrary/LIB_Feedbacks\Feedbacks.c **** \param  [in]    pos feedback's position, the position is that of setting's file.
 616:C:/Workspace/FW_Platform2_5/trunk/PlatformLibrary/LIB_Feedbacks\Feedbacks.c **** 
 617:C:/Workspace/FW_Platform2_5/trunk/PlatformLibrary/LIB_Feedbacks\Feedbacks.c **** \return 	bool_t
 618:C:/Workspace/FW_Platform2_5/trunk/PlatformLibrary/LIB_Feedbacks\Feedbacks.c **** 
 619:C:/Workspace/FW_Platform2_5/trunk/PlatformLibrary/LIB_Feedbacks\Feedbacks.c **** \retval		TRUE
 620:C:/Workspace/FW_Platform2_5/trunk/PlatformLibrary/LIB_Feedbacks\Feedbacks.c **** \retval		FALSE
 621:C:/Workspace/FW_Platform2_5/trunk/PlatformLibrary/LIB_Feedbacks\Feedbacks.c **** */
 622:C:/Workspace/FW_Platform2_5/trunk/PlatformLibrary/LIB_Feedbacks\Feedbacks.c **** 
 623:C:/Workspace/FW_Platform2_5/trunk/PlatformLibrary/LIB_Feedbacks\Feedbacks.c **** bool_t LIB_FDB_IsFeedbackWritableReady(uint8_t pos)
 624:C:/Workspace/FW_Platform2_5/trunk/PlatformLibrary/LIB_Feedbacks\Feedbacks.c **** {
 405                             		.loc 1 624 0
 406                             	.LVL35:
 625:C:/Workspace/FW_Platform2_5/trunk/PlatformLibrary/LIB_Feedbacks\Feedbacks.c ****     return (bool_t)FeedbackStatus[pos].readyWritable ;
 407                             		.loc 1 625 0
 408 0000 5B 11                   		movu.B	r1, r1
 409 0002 FD C3 1E                		shll	#3, r1, r14
 410 0005 70 EE 00 00 00 00       		add	#_FeedbackStatus, r14
 411 000b ED E1 01                		mov.L	4[r14], r1
 412                             	.LVL36:
 413 000e 69 E1                   		shlr	#30, r1
 626:C:/Workspace/FW_Platform2_5/trunk/PlatformLibrary/LIB_Feedbacks\Feedbacks.c **** }
 414                             		.loc 1 626 0
 415 0010 64 11                   		and	#1, r1
 416 0012 02                      		rts
 417                             	.LFE8:
 419                             		.section	.text.LIB_FDB_GetFeedbackWritableBitMap,"ax",@progbits
 420                             		.global	_LIB_FDB_GetFeedbackWritableBitMap
 422                             	_LIB_FDB_GetFeedbackWritableBitMap:
 423                             	.LFB9:
 627:C:/Workspace/FW_Platform2_5/trunk/PlatformLibrary/LIB_Feedbacks\Feedbacks.c **** 
 628:C:/Workspace/FW_Platform2_5/trunk/PlatformLibrary/LIB_Feedbacks\Feedbacks.c **** /**
 629:C:/Workspace/FW_Platform2_5/trunk/PlatformLibrary/LIB_Feedbacks\Feedbacks.c **** This function returns a bitmap of all feedbacks acquired.
 630:C:/Workspace/FW_Platform2_5/trunk/PlatformLibrary/LIB_Feedbacks\Feedbacks.c **** 
 631:C:/Workspace/FW_Platform2_5/trunk/PlatformLibrary/LIB_Feedbacks\Feedbacks.c **** \param  	none
 632:C:/Workspace/FW_Platform2_5/trunk/PlatformLibrary/LIB_Feedbacks\Feedbacks.c **** 
 633:C:/Workspace/FW_Platform2_5/trunk/PlatformLibrary/LIB_Feedbacks\Feedbacks.c **** \return 	feedbackBitfield_t
 634:C:/Workspace/FW_Platform2_5/trunk/PlatformLibrary/LIB_Feedbacks\Feedbacks.c **** 
 635:C:/Workspace/FW_Platform2_5/trunk/PlatformLibrary/LIB_Feedbacks\Feedbacks.c **** \retval		FeedbackReadyWritable bitmap
 636:C:/Workspace/FW_Platform2_5/trunk/PlatformLibrary/LIB_Feedbacks\Feedbacks.c **** 
 637:C:/Workspace/FW_Platform2_5/trunk/PlatformLibrary/LIB_Feedbacks\Feedbacks.c **** 
 638:C:/Workspace/FW_Platform2_5/trunk/PlatformLibrary/LIB_Feedbacks\Feedbacks.c **** \author 	Alessandro Sabbatini
 639:C:/Workspace/FW_Platform2_5/trunk/PlatformLibrary/LIB_Feedbacks\Feedbacks.c **** \date		Dec. 12, 2012
 640:C:/Workspace/FW_Platform2_5/trunk/PlatformLibrary/LIB_Feedbacks\Feedbacks.c **** \version	1.0.0
 641:C:/Workspace/FW_Platform2_5/trunk/PlatformLibrary/LIB_Feedbacks\Feedbacks.c **** */
 642:C:/Workspace/FW_Platform2_5/trunk/PlatformLibrary/LIB_Feedbacks\Feedbacks.c **** feedbackBitfield_t LIB_FDB_GetFeedbackWritableBitMap(void)
 643:C:/Workspace/FW_Platform2_5/trunk/PlatformLibrary/LIB_Feedbacks\Feedbacks.c **** {
 424                             		.loc 1 643 0
 425                             	.LVL37:
 426                             		.loc 1 643 0
 427 0000 66 0E                   		mov.L	#0, r14
 644:C:/Workspace/FW_Platform2_5/trunk/PlatformLibrary/LIB_Feedbacks\Feedbacks.c **** 	uint8_t i;
 645:C:/Workspace/FW_Platform2_5/trunk/PlatformLibrary/LIB_Feedbacks\Feedbacks.c **** 	feedbackBitfield_t res = 0;
 428                             		.loc 1 645 0
 429 0002 CF E1                   		mov.B	r14, r1
 430                             	.LVL38:
 431                             		.balign 2,3,2
 432                             	.L58:
 646:C:/Workspace/FW_Platform2_5/trunk/PlatformLibrary/LIB_Feedbacks\Feedbacks.c **** 
 647:C:/Workspace/FW_Platform2_5/trunk/PlatformLibrary/LIB_Feedbacks\Feedbacks.c **** 	for (i = 0; i < N_FEEDBACK; i++)
 648:C:/Workspace/FW_Platform2_5/trunk/PlatformLibrary/LIB_Feedbacks\Feedbacks.c **** 	{
 649:C:/Workspace/FW_Platform2_5/trunk/PlatformLibrary/LIB_Feedbacks\Feedbacks.c **** 		if (FeedbackStatus[i].readyWritable) {
 433                             		.loc 1 649 0
 434 0004 FD C3 E4                		shll	#3, r14, r4
 435 0007 70 44 00 00 00 00       		add	#_FeedbackStatus, r4
 436 000d A8 4C                   		mov.L	4[r4], r4
 437 000f FD 70 C4 00 00 00 40    		tst	#0x40000000, r4
 438 0016 20 06                   		beq	.L57
 650:C:/Workspace/FW_Platform2_5/trunk/PlatformLibrary/LIB_Feedbacks\Feedbacks.c **** 			res |= ( ((feedbackBitfield_t)1) << i );
 439                             		.loc 1 650 0
 440 0018 FC 63 1E                		bset	r14, r1
 441                             	.LVL39:
 442 001b 03                      		.balign 2,3,1
 443                             	.L57:
 444 001c 62 1E                   		add	#1, r14
 647:C:/Workspace/FW_Platform2_5/trunk/PlatformLibrary/LIB_Feedbacks\Feedbacks.c **** 	for (i = 0; i < N_FEEDBACK; i++)
 445                             		.loc 1 647 0
 446 001e 61 8E                   		cmp	#8, r14
 447 0020 21 E4                   		bne	.L58
 651:C:/Workspace/FW_Platform2_5/trunk/PlatformLibrary/LIB_Feedbacks\Feedbacks.c **** 		}
 652:C:/Workspace/FW_Platform2_5/trunk/PlatformLibrary/LIB_Feedbacks\Feedbacks.c **** 	}
 653:C:/Workspace/FW_Platform2_5/trunk/PlatformLibrary/LIB_Feedbacks\Feedbacks.c **** 
 654:C:/Workspace/FW_Platform2_5/trunk/PlatformLibrary/LIB_Feedbacks\Feedbacks.c **** 	return res;
 655:C:/Workspace/FW_Platform2_5/trunk/PlatformLibrary/LIB_Feedbacks\Feedbacks.c **** }
 448                             		.loc 1 655 0
 449 0022 5B 11                   		movu.B	r1, r1
 450 0024 02                      		rts
 451                             	.LFE9:
 453                             		.comm	_FeedbackStatus,64,4
 454                             		.comm	_FeedbackInputDisable,1,1
 455                             		.comm	_Feedback,8,1
 456 0025 03                      		.section	.bss.FeedbackDescriptor,"aw",@nobits
 457                             		.balign 2
 460                             	_FeedbackDescriptor:
 461 0000 00 00 00 00 00 00 00 00 		.zero	16
 461      00 00 00 00 00 00 00 00 
 580                             	.Letext0:
 581                             		.file 2 "C:\\Workspace\\FW_Platform2_5\\trunk\\HAL\\HAL_General/StandardTypes.h"
 582                             		.file 3 "C:/Workspace/FW_Platform2_5/trunk/PlatformLibrary/LIB_Feedbacks/FeedbacksExp.h"
 583                             		.file 4 "C:\\Workspace\\FW_Platform2_5\\trunk\\PlatformLibrary\\LIB_Error/LIB_Error.h"
 584                             		.file 5 "C:\\Workspace\\FW_Platform2_5\\trunk\\PlatformLibrary\\LIB_IOManager/InputManagerExp.h"
 585                             		.file 6 "C:\\Workspace\\FW_Platform2_5\\trunk\\PlatformLibrary\\LIB_DigitalIO/DigitalInputs.h"
 586                             		.file 7 "C:\\Workspace\\FW_Platform2_5\\trunk\\Drivers\\OCIRQ/OCIRQ_drv.h"
