   1                             		.file	"IEC60335_RN_adapter.c"
   2                             		.section P,"ax"
   3                             	.Ltext0:
   4                             		.section	.text.CPU_Test_ErrorHandler,"ax",@progbits
   5                             		.global	_CPU_Test_ErrorHandler
   7                             	_CPU_Test_ErrorHandler:
   8                             	.LFB0:
   9                             		.file 1 "C:/Workspace/FW_Platform2_5/trunk/HAL/RN_RX200/IEC60335_B_libs/src/IEC60335_RN_adapter.c"
   1:C:/Workspace/FW_Platform2_5/trunk/HAL/RN_RX200/IEC60335_B_libs/src\IEC60335_RN_adapter.c **** /*
   2:C:/Workspace/FW_Platform2_5/trunk/HAL/RN_RX200/IEC60335_B_libs/src\IEC60335_RN_adapter.c **** Copyright (c) 2004-2005, Indesit Company, EDT.
   3:C:/Workspace/FW_Platform2_5/trunk/HAL/RN_RX200/IEC60335_B_libs/src\IEC60335_RN_adapter.c **** Tutti i diritti sono riservati. All rights reserved.
   4:C:/Workspace/FW_Platform2_5/trunk/HAL/RN_RX200/IEC60335_B_libs/src\IEC60335_RN_adapter.c **** */
   5:C:/Workspace/FW_Platform2_5/trunk/HAL/RN_RX200/IEC60335_B_libs/src\IEC60335_RN_adapter.c **** 
   6:C:/Workspace/FW_Platform2_5/trunk/HAL/RN_RX200/IEC60335_B_libs/src\IEC60335_RN_adapter.c **** /**
   7:C:/Workspace/FW_Platform2_5/trunk/HAL/RN_RX200/IEC60335_B_libs/src\IEC60335_RN_adapter.c **** \Par		[Title]
   8:C:/Workspace/FW_Platform2_5/trunk/HAL/RN_RX200/IEC60335_B_libs/src\IEC60335_RN_adapter.c **** \n			[Brief description]
   9:C:/Workspace/FW_Platform2_5/trunk/HAL/RN_RX200/IEC60335_B_libs/src\IEC60335_RN_adapter.c **** \n
  10:C:/Workspace/FW_Platform2_5/trunk/HAL/RN_RX200/IEC60335_B_libs/src\IEC60335_RN_adapter.c **** \file		[File Name] <file's name, use tag ${file} if you are Eclipse's user>
  11:C:/Workspace/FW_Platform2_5/trunk/HAL/RN_RX200/IEC60335_B_libs/src\IEC60335_RN_adapter.c **** \ingroup	[module_name_slave] <Symbolic name used by Doxygen to group files belonging to the same mo
  12:C:/Workspace/FW_Platform2_5/trunk/HAL/RN_RX200/IEC60335_B_libs/src\IEC60335_RN_adapter.c **** \date		[Date] <Creation date, format dd/mm/yyyy, use tag ${date} if you are Eclipse's user >
  13:C:/Workspace/FW_Platform2_5/trunk/HAL/RN_RX200/IEC60335_B_libs/src\IEC60335_RN_adapter.c **** \version	01.00.00 <Start Project's BaseLine>
  14:C:/Workspace/FW_Platform2_5/trunk/HAL/RN_RX200/IEC60335_B_libs/src\IEC60335_RN_adapter.c **** \author		[Developer] <Name and Surname of Developer, use tag ${user} if you are Eclipse's user >
  15:C:/Workspace/FW_Platform2_5/trunk/HAL/RN_RX200/IEC60335_B_libs/src\IEC60335_RN_adapter.c **** \n
  16:C:/Workspace/FW_Platform2_5/trunk/HAL/RN_RX200/IEC60335_B_libs/src\IEC60335_RN_adapter.c **** \n
  17:C:/Workspace/FW_Platform2_5/trunk/HAL/RN_RX200/IEC60335_B_libs/src\IEC60335_RN_adapter.c **** \Par\b	History:
  18:C:/Workspace/FW_Platform2_5/trunk/HAL/RN_RX200/IEC60335_B_libs/src\IEC60335_RN_adapter.c **** \n
  19:C:/Workspace/FW_Platform2_5/trunk/HAL/RN_RX200/IEC60335_B_libs/src\IEC60335_RN_adapter.c **** \n 		01.04.00 <Current Project's BaseLine>
  20:C:/Workspace/FW_Platform2_5/trunk/HAL/RN_RX200/IEC60335_B_libs/src\IEC60335_RN_adapter.c **** \n		[Date] <Date of Current Project's BaseLine, format dd/mm/yyyy>
  21:C:/Workspace/FW_Platform2_5/trunk/HAL/RN_RX200/IEC60335_B_libs/src\IEC60335_RN_adapter.c **** \n		[Developer] <Name and Surname of Developer>
  22:C:/Workspace/FW_Platform2_5/trunk/HAL/RN_RX200/IEC60335_B_libs/src\IEC60335_RN_adapter.c **** \n		changes: <Changes's Description>
  23:C:/Workspace/FW_Platform2_5/trunk/HAL/RN_RX200/IEC60335_B_libs/src\IEC60335_RN_adapter.c **** \n 		- change 1 <Description of change 1>
  24:C:/Workspace/FW_Platform2_5/trunk/HAL/RN_RX200/IEC60335_B_libs/src\IEC60335_RN_adapter.c **** \n		- change 2 <Description of change 2>\n
  25:C:/Workspace/FW_Platform2_5/trunk/HAL/RN_RX200/IEC60335_B_libs/src\IEC60335_RN_adapter.c **** \n
  26:C:/Workspace/FW_Platform2_5/trunk/HAL/RN_RX200/IEC60335_B_libs/src\IEC60335_RN_adapter.c **** \n 		01.03.00 <Previous Project's BaseLine>
  27:C:/Workspace/FW_Platform2_5/trunk/HAL/RN_RX200/IEC60335_B_libs/src\IEC60335_RN_adapter.c **** \n		[Date] <Date of Previous Project's BaseLine, format dd/mm/yyyy >
  28:C:/Workspace/FW_Platform2_5/trunk/HAL/RN_RX200/IEC60335_B_libs/src\IEC60335_RN_adapter.c **** \n		[Developer] <Name and Surname of Developer>
  29:C:/Workspace/FW_Platform2_5/trunk/HAL/RN_RX200/IEC60335_B_libs/src\IEC60335_RN_adapter.c **** \n		changes: <Changes's Description>
  30:C:/Workspace/FW_Platform2_5/trunk/HAL/RN_RX200/IEC60335_B_libs/src\IEC60335_RN_adapter.c **** \n 		- change 1 <Description of change 1>
  31:C:/Workspace/FW_Platform2_5/trunk/HAL/RN_RX200/IEC60335_B_libs/src\IEC60335_RN_adapter.c **** \n		- change 2 <Description of change 2>
  32:C:/Workspace/FW_Platform2_5/trunk/HAL/RN_RX200/IEC60335_B_libs/src\IEC60335_RN_adapter.c **** \n
  33:C:/Workspace/FW_Platform2_5/trunk/HAL/RN_RX200/IEC60335_B_libs/src\IEC60335_RN_adapter.c **** \n
  34:C:/Workspace/FW_Platform2_5/trunk/HAL/RN_RX200/IEC60335_B_libs/src\IEC60335_RN_adapter.c **** \n etc.
  35:C:/Workspace/FW_Platform2_5/trunk/HAL/RN_RX200/IEC60335_B_libs/src\IEC60335_RN_adapter.c **** */
  36:C:/Workspace/FW_Platform2_5/trunk/HAL/RN_RX200/IEC60335_B_libs/src\IEC60335_RN_adapter.c **** 
  37:C:/Workspace/FW_Platform2_5/trunk/HAL/RN_RX200/IEC60335_B_libs/src\IEC60335_RN_adapter.c **** #define MODULE_BODY_CLASSBCHECK
  38:C:/Workspace/FW_Platform2_5/trunk/HAL/RN_RX200/IEC60335_B_libs/src\IEC60335_RN_adapter.c **** 
  39:C:/Workspace/FW_Platform2_5/trunk/HAL/RN_RX200/IEC60335_B_libs/src\IEC60335_RN_adapter.c **** /* ********** */
  40:C:/Workspace/FW_Platform2_5/trunk/HAL/RN_RX200/IEC60335_B_libs/src\IEC60335_RN_adapter.c **** /* Includes */
  41:C:/Workspace/FW_Platform2_5/trunk/HAL/RN_RX200/IEC60335_B_libs/src\IEC60335_RN_adapter.c **** /* ********* */
  42:C:/Workspace/FW_Platform2_5/trunk/HAL/RN_RX200/IEC60335_B_libs/src\IEC60335_RN_adapter.c **** #include "Config.h"
  43:C:/Workspace/FW_Platform2_5/trunk/HAL/RN_RX200/IEC60335_B_libs/src\IEC60335_RN_adapter.c **** #include "IEC60335.h"
  44:C:/Workspace/FW_Platform2_5/trunk/HAL/RN_RX200/IEC60335_B_libs/src\IEC60335_RN_adapter.c **** #include "interrupt_handlers.h"
  45:C:/Workspace/FW_Platform2_5/trunk/HAL/RN_RX200/IEC60335_B_libs/src\IEC60335_RN_adapter.c **** #include "LIB_Error.h"
  46:C:/Workspace/FW_Platform2_5/trunk/HAL/RN_RX200/IEC60335_B_libs/src\IEC60335_RN_adapter.c **** #include "Common/misratypes.h"
  47:C:/Workspace/FW_Platform2_5/trunk/HAL/RN_RX200/IEC60335_B_libs/src\IEC60335_RN_adapter.c **** #include "CPU/cpu_test.h"
  48:C:/Workspace/FW_Platform2_5/trunk/HAL/RN_RX200/IEC60335_B_libs/src\IEC60335_RN_adapter.c **** #include "RAM/ramtest_march_c.h"
  49:C:/Workspace/FW_Platform2_5/trunk/HAL/RN_RX200/IEC60335_B_libs/src\IEC60335_RN_adapter.c **** #include "RAM/ramtest_stack.h"
  50:C:/Workspace/FW_Platform2_5/trunk/HAL/RN_RX200/IEC60335_B_libs/src\IEC60335_RN_adapter.c **** #include "Clock/clock_monitor.h"
  51:C:/Workspace/FW_Platform2_5/trunk/HAL/RN_RX200/IEC60335_B_libs/src\IEC60335_RN_adapter.c **** #include "ADC12/test_adc12.h"
  52:C:/Workspace/FW_Platform2_5/trunk/HAL/RN_RX200/IEC60335_B_libs/src\IEC60335_RN_adapter.c **** #include "IWDT/iwdt.h"
  53:C:/Workspace/FW_Platform2_5/trunk/HAL/RN_RX200/IEC60335_B_libs/src\IEC60335_RN_adapter.c **** 
  54:C:/Workspace/FW_Platform2_5/trunk/HAL/RN_RX200/IEC60335_B_libs/src\IEC60335_RN_adapter.c **** /* ****************** */
  55:C:/Workspace/FW_Platform2_5/trunk/HAL/RN_RX200/IEC60335_B_libs/src\IEC60335_RN_adapter.c **** /* Defines and Macros */
  56:C:/Workspace/FW_Platform2_5/trunk/HAL/RN_RX200/IEC60335_B_libs/src\IEC60335_RN_adapter.c **** /* ****************** */
  57:C:/Workspace/FW_Platform2_5/trunk/HAL/RN_RX200/IEC60335_B_libs/src\IEC60335_RN_adapter.c **** 
  58:C:/Workspace/FW_Platform2_5/trunk/HAL/RN_RX200/IEC60335_B_libs/src\IEC60335_RN_adapter.c **** /* *************************** */
  59:C:/Workspace/FW_Platform2_5/trunk/HAL/RN_RX200/IEC60335_B_libs/src\IEC60335_RN_adapter.c **** /* Typedef, Structs and Unions */
  60:C:/Workspace/FW_Platform2_5/trunk/HAL/RN_RX200/IEC60335_B_libs/src\IEC60335_RN_adapter.c **** /* *************************** */
  61:C:/Workspace/FW_Platform2_5/trunk/HAL/RN_RX200/IEC60335_B_libs/src\IEC60335_RN_adapter.c **** 
  62:C:/Workspace/FW_Platform2_5/trunk/HAL/RN_RX200/IEC60335_B_libs/src\IEC60335_RN_adapter.c **** 
  63:C:/Workspace/FW_Platform2_5/trunk/HAL/RN_RX200/IEC60335_B_libs/src\IEC60335_RN_adapter.c **** /* ****************** */
  64:C:/Workspace/FW_Platform2_5/trunk/HAL/RN_RX200/IEC60335_B_libs/src\IEC60335_RN_adapter.c **** /* Exported variables */
  65:C:/Workspace/FW_Platform2_5/trunk/HAL/RN_RX200/IEC60335_B_libs/src\IEC60335_RN_adapter.c **** /* ****************** */
  66:C:/Workspace/FW_Platform2_5/trunk/HAL/RN_RX200/IEC60335_B_libs/src\IEC60335_RN_adapter.c **** 
  67:C:/Workspace/FW_Platform2_5/trunk/HAL/RN_RX200/IEC60335_B_libs/src\IEC60335_RN_adapter.c **** /* **************** */
  68:C:/Workspace/FW_Platform2_5/trunk/HAL/RN_RX200/IEC60335_B_libs/src\IEC60335_RN_adapter.c **** /* Global variables */
  69:C:/Workspace/FW_Platform2_5/trunk/HAL/RN_RX200/IEC60335_B_libs/src\IEC60335_RN_adapter.c **** /* **************** */
  70:C:/Workspace/FW_Platform2_5/trunk/HAL/RN_RX200/IEC60335_B_libs/src\IEC60335_RN_adapter.c **** 
  71:C:/Workspace/FW_Platform2_5/trunk/HAL/RN_RX200/IEC60335_B_libs/src\IEC60335_RN_adapter.c **** #if defined(CONFIG_LIB_CLASS_B_RAM)
  72:C:/Workspace/FW_Platform2_5/trunk/HAL/RN_RX200/IEC60335_B_libs/src\IEC60335_RN_adapter.c **** /* safe ram must be outside the block to be tested, tested by ad hoc function*/
  73:C:/Workspace/FW_Platform2_5/trunk/HAL/RN_RX200/IEC60335_B_libs/src\IEC60335_RN_adapter.c **** static uint8_t SafeRam[CONFIG_LIB_CLASS_B_RAM_CHUNKSIZE]  			__attribute__ ((section (".CLASS_B_tem
  74:C:/Workspace/FW_Platform2_5/trunk/HAL/RN_RX200/IEC60335_B_libs/src\IEC60335_RN_adapter.c **** static int SafeStack[12];
  75:C:/Workspace/FW_Platform2_5/trunk/HAL/RN_RX200/IEC60335_B_libs/src\IEC60335_RN_adapter.c **** #endif
  76:C:/Workspace/FW_Platform2_5/trunk/HAL/RN_RX200/IEC60335_B_libs/src\IEC60335_RN_adapter.c **** 
  77:C:/Workspace/FW_Platform2_5/trunk/HAL/RN_RX200/IEC60335_B_libs/src\IEC60335_RN_adapter.c **** /* ******************* */
  78:C:/Workspace/FW_Platform2_5/trunk/HAL/RN_RX200/IEC60335_B_libs/src\IEC60335_RN_adapter.c **** /* Function prototypes */
  79:C:/Workspace/FW_Platform2_5/trunk/HAL/RN_RX200/IEC60335_B_libs/src\IEC60335_RN_adapter.c **** /* ******************* */
  80:C:/Workspace/FW_Platform2_5/trunk/HAL/RN_RX200/IEC60335_B_libs/src\IEC60335_RN_adapter.c **** 
  81:C:/Workspace/FW_Platform2_5/trunk/HAL/RN_RX200/IEC60335_B_libs/src\IEC60335_RN_adapter.c **** /*CPU TEST*/
  82:C:/Workspace/FW_Platform2_5/trunk/HAL/RN_RX200/IEC60335_B_libs/src\IEC60335_RN_adapter.c **** void CPU_Test_ErrorHandler(void)
  83:C:/Workspace/FW_Platform2_5/trunk/HAL/RN_RX200/IEC60335_B_libs/src\IEC60335_RN_adapter.c **** {
  10                             		.loc 1 83 0
  11 0000 7E A6                   		push.l	r6
  12                             	.LCFI0:
  13 0002 EF 06                   		mov.L	r0, r6
  14                             	.LCFI1:
  84:C:/Workspace/FW_Platform2_5/trunk/HAL/RN_RX200/IEC60335_B_libs/src\IEC60335_RN_adapter.c **** 	PLT_ERROR_FATAL(PLT_ERROR_CLASSBCHECK_CPU);
  15                             		.loc 1 84 0
  16 0004 75 41 38                		mov.L	#56, r1
  17 0007 05 00 00 00             		bsr	_LIB_Error_Fatal_Handler
  18                             	.LVL0:
  85:C:/Workspace/FW_Platform2_5/trunk/HAL/RN_RX200/IEC60335_B_libs/src\IEC60335_RN_adapter.c **** }
  19                             		.loc 1 85 0
  20 000b 3F 66 01                		rtsd	#4, r6-r6
  21                             	.LFE0:
  23                             		.section	.text.IEC60335_CPUregTest_BIST,"ax",@progbits
  24                             		.global	_IEC60335_CPUregTest_BIST
  26                             	_IEC60335_CPUregTest_BIST:
  27                             	.LFB1:
  86:C:/Workspace/FW_Platform2_5/trunk/HAL/RN_RX200/IEC60335_B_libs/src\IEC60335_RN_adapter.c **** type_testResult IEC60335_CPUregTest_BIST(void)
  87:C:/Workspace/FW_Platform2_5/trunk/HAL/RN_RX200/IEC60335_B_libs/src\IEC60335_RN_adapter.c **** {
  28                             		.loc 1 87 0
  29 0000 7E AA                   		push.l	r10
  30                             	.LCFI2:
  31 0002 7E A6                   		push.l	r6
  32                             	.LCFI3:
  33 0004 EF 06                   		mov.L	r0, r6
  34                             	.LCFI4:
  88:C:/Workspace/FW_Platform2_5/trunk/HAL/RN_RX200/IEC60335_B_libs/src\IEC60335_RN_adapter.c **** 	CPU_Test_All();
  35                             		.loc 1 88 0
  36 0006 05 00 00 00             		bsr	_CPU_Test_All
  37                             	.LVL1:
  89:C:/Workspace/FW_Platform2_5/trunk/HAL/RN_RX200/IEC60335_B_libs/src\IEC60335_RN_adapter.c **** 	return IEC60335_testPassed;
  38                             		.loc 1 89 0
  39 000a 66 1A                   		mov.L	#1, r10
  90:C:/Workspace/FW_Platform2_5/trunk/HAL/RN_RX200/IEC60335_B_libs/src\IEC60335_RN_adapter.c **** }
  40                             		.loc 1 90 0
  41 000c EF A1                   		mov.L	r10, r1
  42 000e 7E B6                   		pop	r6
  43 0010 7E BA                   		pop	r10
  44 0012 02                      		rts
  45                             	.LFE1:
  47                             		.section	.text.IEC60335_RamMarchC,"ax",@progbits
  48                             		.global	_IEC60335_RamMarchC
  50                             	_IEC60335_RamMarchC:
  51                             	.LFB2:
  91:C:/Workspace/FW_Platform2_5/trunk/HAL/RN_RX200/IEC60335_B_libs/src\IEC60335_RN_adapter.c **** 
  92:C:/Workspace/FW_Platform2_5/trunk/HAL/RN_RX200/IEC60335_B_libs/src\IEC60335_RN_adapter.c **** /*RAM TEST*/
  93:C:/Workspace/FW_Platform2_5/trunk/HAL/RN_RX200/IEC60335_B_libs/src\IEC60335_RN_adapter.c **** 
  94:C:/Workspace/FW_Platform2_5/trunk/HAL/RN_RX200/IEC60335_B_libs/src\IEC60335_RN_adapter.c **** #if defined(CONFIG_LIB_CLASS_B_RAM)
  95:C:/Workspace/FW_Platform2_5/trunk/HAL/RN_RX200/IEC60335_B_libs/src\IEC60335_RN_adapter.c **** 
  96:C:/Workspace/FW_Platform2_5/trunk/HAL/RN_RX200/IEC60335_B_libs/src\IEC60335_RN_adapter.c **** /*
  97:C:/Workspace/FW_Platform2_5/trunk/HAL/RN_RX200/IEC60335_B_libs/src\IEC60335_RN_adapter.c **** Generic test
  98:C:/Workspace/FW_Platform2_5/trunk/HAL/RN_RX200/IEC60335_B_libs/src\IEC60335_RN_adapter.c **** \param [in]	startAddrs	start address
  99:C:/Workspace/FW_Platform2_5/trunk/HAL/RN_RX200/IEC60335_B_libs/src\IEC60335_RN_adapter.c **** \param [in]	length in bytes
 100:C:/Workspace/FW_Platform2_5/trunk/HAL/RN_RX200/IEC60335_B_libs/src\IEC60335_RN_adapter.c **** \param [in]	isBIST boolean indicating whether BIST or POST test
 101:C:/Workspace/FW_Platform2_5/trunk/HAL/RN_RX200/IEC60335_B_libs/src\IEC60335_RN_adapter.c **** */
 102:C:/Workspace/FW_Platform2_5/trunk/HAL/RN_RX200/IEC60335_B_libs/src\IEC60335_RN_adapter.c **** bool_t IEC60335_RamMarchC (const uint32_t startAddrs, const uint32_t length, bool_t isBIST)
 103:C:/Workspace/FW_Platform2_5/trunk/HAL/RN_RX200/IEC60335_B_libs/src\IEC60335_RN_adapter.c **** {
  52                             		.loc 1 103 0
  53                             	.LVL2:
  54 0000 7E AA                   		push.l	r10
  55                             	.LCFI5:
  56 0002 7E A6                   		push.l	r6
  57                             	.LCFI6:
  58 0004 71 06 F0                		add	#-16, r0, r6
  59                             	.LCFI7:
  60 0007 EF 60                   		mov.L	r6, r0
  61                             	.LCFI8:
  62 0009 A0 69                   		mov.L	r1, 4[r6]
  63 000b A0 E2                   		mov.L	r2, 8[r6]
  64 000d A0 EB                   		mov.L	r3, 12[r6]
 104:C:/Workspace/FW_Platform2_5/trunk/HAL/RN_RX200/IEC60335_B_libs/src\IEC60335_RN_adapter.c **** 	void* p_RAMSafe=0;
  65                             		.loc 1 104 0
  66 000f 3E 60 00                		mov.L	#0, [r6]
  67                             	.LVL3:
 105:C:/Workspace/FW_Platform2_5/trunk/HAL/RN_RX200/IEC60335_B_libs/src\IEC60335_RN_adapter.c **** 	if(0 != isBIST)
  68                             		.loc 1 105 0
  69 0012 ED 6A 03                		mov.L	12[r6], r10
  70 0015 61 0A                   		cmp	#0, r10
  71 0017 20 09                   		beq	.L5
 106:C:/Workspace/FW_Platform2_5/trunk/HAL/RN_RX200/IEC60335_B_libs/src\IEC60335_RN_adapter.c **** 	{
 107:C:/Workspace/FW_Platform2_5/trunk/HAL/RN_RX200/IEC60335_B_libs/src\IEC60335_RN_adapter.c **** 		p_RAMSafe=SafeRam;
  72                             		.loc 1 107 0
  73 0019 F8 62 00 00 00 00       		mov.L	#_SafeRam, [r6]
  74 001f 03                      		.balign 2,3,1
  75                             	.L5:
 108:C:/Workspace/FW_Platform2_5/trunk/HAL/RN_RX200/IEC60335_B_libs/src\IEC60335_RN_adapter.c **** 	}
 109:C:/Workspace/FW_Platform2_5/trunk/HAL/RN_RX200/IEC60335_B_libs/src\IEC60335_RN_adapter.c **** 	return RamTest_March_C(startAddrs, startAddrs+(length-1), p_RAMSafe);
  76                             		.loc 1 109 0
  77 0020 ED 6A 02                		mov.L	8[r6], r10
  78 0023 06 89 6A 01             		add	4[r6].L, r10
  79 0027 60 1A                   		sub	#1, r10
  80 0029 A8 69                   		mov.L	4[r6], r1
  81                             	.LVL4:
  82 002b EF A2                   		mov.L	r10, r2
  83                             	.LVL5:
  84 002d EC 63                   		mov.L	[r6], r3
  85                             	.LVL6:
  86 002f 05 00 00 00             		bsr	_RamTest_March_C
  87                             	.LVL7:
  88 0033 EF 1A                   		mov.L	r1, r10
 110:C:/Workspace/FW_Platform2_5/trunk/HAL/RN_RX200/IEC60335_B_libs/src\IEC60335_RN_adapter.c **** }
  89                             		.loc 1 110 0
  90 0035 EF A1                   		mov.L	r10, r1
  91 0037 71 00 10                		add	#16, r0
  92                             	.LVL8:
  93 003a 7E B6                   		pop	r6
  94                             	.LVL9:
  95 003c 7E BA                   		pop	r10
  96                             	.LVL10:
  97 003e 02                      		rts
  98                             	.LFE2:
 100 003f 03                      		.section	.text.IEC60335_RamMarchC_SafeRam,"ax",@progbits
 101                             		.global	_IEC60335_RamMarchC_SafeRam
 103                             	_IEC60335_RamMarchC_SafeRam:
 104                             	.LFB3:
 111:C:/Workspace/FW_Platform2_5/trunk/HAL/RN_RX200/IEC60335_B_libs/src\IEC60335_RN_adapter.c **** 
 112:C:/Workspace/FW_Platform2_5/trunk/HAL/RN_RX200/IEC60335_B_libs/src\IEC60335_RN_adapter.c **** /*
 113:C:/Workspace/FW_Platform2_5/trunk/HAL/RN_RX200/IEC60335_B_libs/src\IEC60335_RN_adapter.c **** safe ram destructive test : POST - Pre-Operation Self test and BIST - built-in self test
 114:C:/Workspace/FW_Platform2_5/trunk/HAL/RN_RX200/IEC60335_B_libs/src\IEC60335_RN_adapter.c **** */
 115:C:/Workspace/FW_Platform2_5/trunk/HAL/RN_RX200/IEC60335_B_libs/src\IEC60335_RN_adapter.c **** bool_t IEC60335_RamMarchC_SafeRam (void)
 116:C:/Workspace/FW_Platform2_5/trunk/HAL/RN_RX200/IEC60335_B_libs/src\IEC60335_RN_adapter.c **** {
 105                             		.loc 1 116 0
 106 0000 6E 6B                   		pushm	r6-r11
 107                             	.LCFI9:
 108 0002 EF 06                   		mov.L	r0, r6
 109                             	.LCFI10:
 117:C:/Workspace/FW_Platform2_5/trunk/HAL/RN_RX200/IEC60335_B_libs/src\IEC60335_RN_adapter.c **** 	return RamTest_March_C((uint32_t)SafeRam, (uint32_t)(SafeRam+sizeof(SafeRam)-1), (void* const)0);
 110                             		.loc 1 117 0
 111 0004 FB B2 00 00 00 00       		mov.L	#_SafeRam, r11
 112 000a FB A2 00 00 00 00       		mov.L	#_SafeRam+7, r10
 113 0010 EF B1                   		mov.L	r11, r1
 114 0012 EF A2                   		mov.L	r10, r2
 115 0014 66 03                   		mov.L	#0, r3
 116 0016 05 00 00 00             		bsr	_RamTest_March_C
 117                             	.LVL11:
 118 001a EF 1A                   		mov.L	r1, r10
 118:C:/Workspace/FW_Platform2_5/trunk/HAL/RN_RX200/IEC60335_B_libs/src\IEC60335_RN_adapter.c **** }
 119                             		.loc 1 118 0
 120 001c EF A1                   		mov.L	r10, r1
 121 001e 3F 6B 06                		rtsd	#24, r6-r11
 122                             	.LFE3:
 124                             		.section	.text.IEC60335_RamMarchC_UserStack,"ax",@progbits
 125                             		.global	_IEC60335_RamMarchC_UserStack
 127                             	_IEC60335_RamMarchC_UserStack:
 128                             	.LFB4:
 119:C:/Workspace/FW_Platform2_5/trunk/HAL/RN_RX200/IEC60335_B_libs/src\IEC60335_RN_adapter.c **** 
 120:C:/Workspace/FW_Platform2_5/trunk/HAL/RN_RX200/IEC60335_B_libs/src\IEC60335_RN_adapter.c **** /*
 121:C:/Workspace/FW_Platform2_5/trunk/HAL/RN_RX200/IEC60335_B_libs/src\IEC60335_RN_adapter.c **** User Stack test
 122:C:/Workspace/FW_Platform2_5/trunk/HAL/RN_RX200/IEC60335_B_libs/src\IEC60335_RN_adapter.c **** \param [in]	startAddrs	start address
 123:C:/Workspace/FW_Platform2_5/trunk/HAL/RN_RX200/IEC60335_B_libs/src\IEC60335_RN_adapter.c **** \param [in]	length in bytes
 124:C:/Workspace/FW_Platform2_5/trunk/HAL/RN_RX200/IEC60335_B_libs/src\IEC60335_RN_adapter.c **** \param [in]	isBIST boolean indicating whether BIST or POST test
 125:C:/Workspace/FW_Platform2_5/trunk/HAL/RN_RX200/IEC60335_B_libs/src\IEC60335_RN_adapter.c **** */
 126:C:/Workspace/FW_Platform2_5/trunk/HAL/RN_RX200/IEC60335_B_libs/src\IEC60335_RN_adapter.c **** bool_t IEC60335_RamMarchC_UserStack (const uint32_t startAddrs, const uint32_t length, bool_t isBIS
 127:C:/Workspace/FW_Platform2_5/trunk/HAL/RN_RX200/IEC60335_B_libs/src\IEC60335_RN_adapter.c **** {
 129                             		.loc 1 127 0
 130                             	.LVL12:
 131 0000 6E 6B                   		pushm	r6-r11
 132                             	.LCFI11:
 133 0002 71 06 F0                		add	#-16, r0, r6
 134                             	.LCFI12:
 135 0005 71 60 FC                		add	#-4, r6, r0
 136                             	.LCFI13:
 137 0008 A0 69                   		mov.L	r1, 4[r6]
 138 000a A0 E2                   		mov.L	r2, 8[r6]
 139 000c A0 EB                   		mov.L	r3, 12[r6]
 128:C:/Workspace/FW_Platform2_5/trunk/HAL/RN_RX200/IEC60335_B_libs/src\IEC60335_RN_adapter.c **** 	void* p_RAMSafe=0;
 140                             		.loc 1 128 0
 141 000e 3E 60 00                		mov.L	#0, [r6]
 142                             	.LVL13:
 129:C:/Workspace/FW_Platform2_5/trunk/HAL/RN_RX200/IEC60335_B_libs/src\IEC60335_RN_adapter.c **** 	if(0 != isBIST)
 143                             		.loc 1 129 0
 144 0011 ED 6A 03                		mov.L	12[r6], r10
 145 0014 61 0A                   		cmp	#0, r10
 146 0016 20 08                   		beq	.L10
 130:C:/Workspace/FW_Platform2_5/trunk/HAL/RN_RX200/IEC60335_B_libs/src\IEC60335_RN_adapter.c **** 	{
 131:C:/Workspace/FW_Platform2_5/trunk/HAL/RN_RX200/IEC60335_B_libs/src\IEC60335_RN_adapter.c **** 		p_RAMSafe=SafeRam;
 147                             		.loc 1 131 0
 148 0018 F8 62 00 00 00 00       		mov.L	#_SafeRam, [r6]
 149                             		.balign 2,3,1
 150                             	.L10:
 132:C:/Workspace/FW_Platform2_5/trunk/HAL/RN_RX200/IEC60335_B_libs/src\IEC60335_RN_adapter.c **** 	}
 133:C:/Workspace/FW_Platform2_5/trunk/HAL/RN_RX200/IEC60335_B_libs/src\IEC60335_RN_adapter.c **** 	return RamTest_Stack_User(startAddrs, startAddrs+(length-1), p_RAMSafe,(uint32_t) SafeStack + size
 151                             		.loc 1 133 0
 152 001e ED 6A 02                		mov.L	8[r6], r10
 153 0021 06 89 6A 01             		add	4[r6].L, r10
 154 0025 71 AB FF                		add	#-1, r10, r11
 155 0028 FB A2 00 00 00 00       		mov.L	#_SafeStack, r10
 156 002e 71 AA 2F                		add	#47, r10
 157 0031 F8 02 00 00 00 00       		mov.L	#_RamTest_March_C, [r0]
 158 0037 A8 69                   		mov.L	4[r6], r1
 159                             	.LVL14:
 160 0039 EF B2                   		mov.L	r11, r2
 161                             	.LVL15:
 162 003b EC 63                   		mov.L	[r6], r3
 163                             	.LVL16:
 164 003d EF A4                   		mov.L	r10, r4
 165 003f 05 00 00 00             		bsr	_RamTest_Stack_User
 166                             	.LVL17:
 167 0043 EF 1A                   		mov.L	r1, r10
 134:C:/Workspace/FW_Platform2_5/trunk/HAL/RN_RX200/IEC60335_B_libs/src\IEC60335_RN_adapter.c **** }
 168                             		.loc 1 134 0
 169 0045 EF A1                   		mov.L	r10, r1
 170 0047 3F 6B 0B                		rtsd	#44, r6-r11
 171                             	.LFE4:
 173                             		.section	.text.IEC60335_RamMarchC_IntStack,"ax",@progbits
 174                             		.global	_IEC60335_RamMarchC_IntStack
 176                             	_IEC60335_RamMarchC_IntStack:
 177                             	.LFB5:
 135:C:/Workspace/FW_Platform2_5/trunk/HAL/RN_RX200/IEC60335_B_libs/src\IEC60335_RN_adapter.c **** /*
 136:C:/Workspace/FW_Platform2_5/trunk/HAL/RN_RX200/IEC60335_B_libs/src\IEC60335_RN_adapter.c **** Int Stack test
 137:C:/Workspace/FW_Platform2_5/trunk/HAL/RN_RX200/IEC60335_B_libs/src\IEC60335_RN_adapter.c **** \param [in]	startAddrs	start address
 138:C:/Workspace/FW_Platform2_5/trunk/HAL/RN_RX200/IEC60335_B_libs/src\IEC60335_RN_adapter.c **** \param [in]	length in bytes
 139:C:/Workspace/FW_Platform2_5/trunk/HAL/RN_RX200/IEC60335_B_libs/src\IEC60335_RN_adapter.c **** \param [in]	isBIST boolean indicating whether BIST or POST test
 140:C:/Workspace/FW_Platform2_5/trunk/HAL/RN_RX200/IEC60335_B_libs/src\IEC60335_RN_adapter.c **** */
 141:C:/Workspace/FW_Platform2_5/trunk/HAL/RN_RX200/IEC60335_B_libs/src\IEC60335_RN_adapter.c **** bool_t IEC60335_RamMarchC_IntStack (const uint32_t startAddrs, const uint32_t length, bool_t isBIST
 142:C:/Workspace/FW_Platform2_5/trunk/HAL/RN_RX200/IEC60335_B_libs/src\IEC60335_RN_adapter.c **** {
 178                             		.loc 1 142 0
 179                             	.LVL18:
 180 0000 6E 6B                   		pushm	r6-r11
 181                             	.LCFI14:
 182 0002 71 06 F4                		add	#-12, r0, r6
 183                             	.LCFI15:
 184 0005 71 60 FC                		add	#-4, r6, r0
 185                             	.LCFI16:
 186 0008 E3 61                   		mov.L	r1, [r6]
 187 000a A0 6A                   		mov.L	r2, 4[r6]
 188 000c A0 E3                   		mov.L	r3, 8[r6]
 143:C:/Workspace/FW_Platform2_5/trunk/HAL/RN_RX200/IEC60335_B_libs/src\IEC60335_RN_adapter.c **** 	/*in POST (isBIST is FALSE): isBIST is ignored because Int stack is used */
 144:C:/Workspace/FW_Platform2_5/trunk/HAL/RN_RX200/IEC60335_B_libs/src\IEC60335_RN_adapter.c **** 	return RamTest_Stack_Int(startAddrs, startAddrs+(length-1), SafeRam,(uint32_t) SafeStack + sizeof(
 189                             		.loc 1 144 0
 190 000e ED 6A 01                		mov.L	4[r6], r10
 191 0011 06 88 6A                		add	[r6].L, r10
 192 0014 71 AB FF                		add	#-1, r10, r11
 193 0017 FB A2 00 00 00 00       		mov.L	#_SafeStack, r10
 194 001d 71 AA 2F                		add	#47, r10
 195 0020 F8 02 00 00 00 00       		mov.L	#_RamTest_March_C, [r0]
 196 0026 EC 61                   		mov.L	[r6], r1
 197                             	.LVL19:
 198 0028 EF B2                   		mov.L	r11, r2
 199                             	.LVL20:
 200 002a FB 32 00 00 00 00       		mov.L	#_SafeRam, r3
 201                             	.LVL21:
 202 0030 EF A4                   		mov.L	r10, r4
 203 0032 05 00 00 00             		bsr	_RamTest_Stack_Int
 204                             	.LVL22:
 205 0036 EF 1A                   		mov.L	r1, r10
 145:C:/Workspace/FW_Platform2_5/trunk/HAL/RN_RX200/IEC60335_B_libs/src\IEC60335_RN_adapter.c **** }
 206                             		.loc 1 145 0
 207 0038 EF A1                   		mov.L	r10, r1
 208 003a 3F 6B 0A                		rtsd	#40, r6-r11
 209                             	.LFE5:
 211                             		.section	.text.ClockMonitorErrorCallBack,"ax",@progbits
 213                             	_ClockMonitorErrorCallBack:
 214                             	.LFB6:
 146:C:/Workspace/FW_Platform2_5/trunk/HAL/RN_RX200/IEC60335_B_libs/src\IEC60335_RN_adapter.c **** 
 147:C:/Workspace/FW_Platform2_5/trunk/HAL/RN_RX200/IEC60335_B_libs/src\IEC60335_RN_adapter.c **** #endif
 148:C:/Workspace/FW_Platform2_5/trunk/HAL/RN_RX200/IEC60335_B_libs/src\IEC60335_RN_adapter.c **** 
 149:C:/Workspace/FW_Platform2_5/trunk/HAL/RN_RX200/IEC60335_B_libs/src\IEC60335_RN_adapter.c **** /*Clock Error Management ------------------------------*/
 150:C:/Workspace/FW_Platform2_5/trunk/HAL/RN_RX200/IEC60335_B_libs/src\IEC60335_RN_adapter.c **** 
 151:C:/Workspace/FW_Platform2_5/trunk/HAL/RN_RX200/IEC60335_B_libs/src\IEC60335_RN_adapter.c **** #if defined(CONFIG_LIB_CLASS_B_CLOCK_HW)
 152:C:/Workspace/FW_Platform2_5/trunk/HAL/RN_RX200/IEC60335_B_libs/src\IEC60335_RN_adapter.c **** 
 153:C:/Workspace/FW_Platform2_5/trunk/HAL/RN_RX200/IEC60335_B_libs/src\IEC60335_RN_adapter.c **** static int clockError=0;
 154:C:/Workspace/FW_Platform2_5/trunk/HAL/RN_RX200/IEC60335_B_libs/src\IEC60335_RN_adapter.c **** static void ClockMonitorErrorCallBack(void)
 155:C:/Workspace/FW_Platform2_5/trunk/HAL/RN_RX200/IEC60335_B_libs/src\IEC60335_RN_adapter.c **** {
 215                             		.loc 1 155 0
 216 0000 7E AA                   		push.l	r10
 217                             	.LCFI17:
 218 0002 7E A6                   		push.l	r6
 219                             	.LCFI18:
 220 0004 EF 06                   		mov.L	r0, r6
 221                             	.LCFI19:
 156:C:/Workspace/FW_Platform2_5/trunk/HAL/RN_RX200/IEC60335_B_libs/src\IEC60335_RN_adapter.c **** 	clockError=1;
 222                             		.loc 1 156 0
 223 0006 FB A2 00 00 00 00       		mov.L	#_clockError, r10
 224 000c F8 A6 01                		mov.L	#1, [r10]
 157:C:/Workspace/FW_Platform2_5/trunk/HAL/RN_RX200/IEC60335_B_libs/src\IEC60335_RN_adapter.c **** }
 225                             		.loc 1 157 0
 226 000f 7E B6                   		pop	r6
 227 0011 7E BA                   		pop	r10
 228 0013 02                      		rts
 229                             	.LFE6:
 231                             		.section	.text.IEC60335_initClockTestHW,"ax",@progbits
 232                             		.global	_IEC60335_initClockTestHW
 234                             	_IEC60335_initClockTestHW:
 235                             	.LFB7:
 158:C:/Workspace/FW_Platform2_5/trunk/HAL/RN_RX200/IEC60335_B_libs/src\IEC60335_RN_adapter.c **** void IEC60335_initClockTestHW(void)
 159:C:/Workspace/FW_Platform2_5/trunk/HAL/RN_RX200/IEC60335_B_libs/src\IEC60335_RN_adapter.c **** {
 236                             		.loc 1 159 0
 237 0000 7E A6                   		push.l	r6
 238                             	.LCFI20:
 239 0002 EF 06                   		mov.L	r0, r6
 240                             	.LCFI21:
 160:C:/Workspace/FW_Platform2_5/trunk/HAL/RN_RX200/IEC60335_B_libs/src\IEC60335_RN_adapter.c **** #if defined(CONFIG_WDT_ENABLED) /* funziona solo se l'IWDT e' fatto partire*/
 161:C:/Workspace/FW_Platform2_5/trunk/HAL/RN_RX200/IEC60335_B_libs/src\IEC60335_RN_adapter.c **** 	ClockMonitor_Init(NULL);
 241                             		.loc 1 161 0
 242 0004 66 01                   		mov.L	#0, r1
 243 0006 05 00 00 00             		bsr	_ClockMonitor_Init
 244                             	.LVL23:
 162:C:/Workspace/FW_Platform2_5/trunk/HAL/RN_RX200/IEC60335_B_libs/src\IEC60335_RN_adapter.c **** #endif
 163:C:/Workspace/FW_Platform2_5/trunk/HAL/RN_RX200/IEC60335_B_libs/src\IEC60335_RN_adapter.c **** }
 245                             		.loc 1 163 0
 246 000a 3F 66 01                		rtsd	#4, r6-r6
 247                             	.LFE7:
 249                             		.section	.text.IEC60335_Clocktest_MainLoopHandler,"ax",@progbits
 250                             		.global	_IEC60335_Clocktest_MainLoopHandler
 252                             	_IEC60335_Clocktest_MainLoopHandler:
 253                             	.LFB8:
 164:C:/Workspace/FW_Platform2_5/trunk/HAL/RN_RX200/IEC60335_B_libs/src\IEC60335_RN_adapter.c **** 
 165:C:/Workspace/FW_Platform2_5/trunk/HAL/RN_RX200/IEC60335_B_libs/src\IEC60335_RN_adapter.c **** type_testResult IEC60335_Clocktest_MainLoopHandler(void)
 166:C:/Workspace/FW_Platform2_5/trunk/HAL/RN_RX200/IEC60335_B_libs/src\IEC60335_RN_adapter.c **** {
 254                             		.loc 1 166 0
 255 0000 7E AA                   		push.l	r10
 256                             	.LCFI22:
 257 0002 7E A6                   		push.l	r6
 258                             	.LCFI23:
 259 0004 71 06 FC                		add	#-4, r0, r6
 260                             	.LCFI24:
 261 0007 EF 60                   		mov.L	r6, r0
 262                             	.LCFI25:
 167:C:/Workspace/FW_Platform2_5/trunk/HAL/RN_RX200/IEC60335_B_libs/src\IEC60335_RN_adapter.c **** 	type_testResult retVal=IEC60335_testPassed;
 263                             		.loc 1 167 0
 264 0009 3E 60 01                		mov.L	#1, [r6]
 265                             	.LVL24:
 168:C:/Workspace/FW_Platform2_5/trunk/HAL/RN_RX200/IEC60335_B_libs/src\IEC60335_RN_adapter.c **** 
 169:C:/Workspace/FW_Platform2_5/trunk/HAL/RN_RX200/IEC60335_B_libs/src\IEC60335_RN_adapter.c **** 	if( clockError )
 266                             		.loc 1 169 0
 267 000c FB A2 00 00 00 00       		mov.L	#_clockError, r10
 268 0012 EC AA                   		mov.L	[r10], r10
 269 0014 61 0A                   		cmp	#0, r10
 270 0016 20 06                   		beq	.L17
 170:C:/Workspace/FW_Platform2_5/trunk/HAL/RN_RX200/IEC60335_B_libs/src\IEC60335_RN_adapter.c **** 		retVal= IEC60335_testFailed;
 271                             		.loc 1 170 0
 272 0018 3E 60 00                		mov.L	#0, [r6]
 273 001b 03                      		.balign 2,3,1
 274                             	.L17:
 171:C:/Workspace/FW_Platform2_5/trunk/HAL/RN_RX200/IEC60335_B_libs/src\IEC60335_RN_adapter.c **** 
 172:C:/Workspace/FW_Platform2_5/trunk/HAL/RN_RX200/IEC60335_B_libs/src\IEC60335_RN_adapter.c **** 	return retVal;
 275                             		.loc 1 172 0
 276 001c EC 6A                   		mov.L	[r6], r10
 173:C:/Workspace/FW_Platform2_5/trunk/HAL/RN_RX200/IEC60335_B_libs/src\IEC60335_RN_adapter.c **** }
 277                             		.loc 1 173 0
 278 001e EF A1                   		mov.L	r10, r1
 279 0020 62 40                   		add	#4, r0
 280                             	.LVL25:
 281 0022 7E B6                   		pop	r6
 282 0024 7E BA                   		pop	r10
 283 0026 02                      		rts
 284                             	.LFE8:
 286 0027 03                      		.section	.text.INT_Excep_FERRF,"ax",@progbits
 287                             		.global	_INT_Excep_FERRF
 289                             	_INT_Excep_FERRF:
 290                             	.LFB9:
 174:C:/Workspace/FW_Platform2_5/trunk/HAL/RN_RX200/IEC60335_B_libs/src\IEC60335_RN_adapter.c **** 
 175:C:/Workspace/FW_Platform2_5/trunk/HAL/RN_RX200/IEC60335_B_libs/src\IEC60335_RN_adapter.c **** void INT_Excep_FERRF(void)
 176:C:/Workspace/FW_Platform2_5/trunk/HAL/RN_RX200/IEC60335_B_libs/src\IEC60335_RN_adapter.c **** {
 291                             		.loc 1 176 0
 292                             		; Note: Interrupt Handler
 293 0000 6E 1F                   		pushm	r1-r15
 294                             	.LCFI26:
 295 0002 EF 06                   		mov.L	r0, r6
 296                             	.LCFI27:
 177:C:/Workspace/FW_Platform2_5/trunk/HAL/RN_RX200/IEC60335_B_libs/src\IEC60335_RN_adapter.c **** 	LIB_Error_Fatal_Handler(PLT_ERROR_CLASSBCHECK_CLOCK);
 297                             		.loc 1 177 0
 298 0004 75 41 37                		mov.L	#55, r1
 299 0007 05 00 00 00             		bsr	_LIB_Error_Fatal_Handler
 300                             	.LVL26:
 178:C:/Workspace/FW_Platform2_5/trunk/HAL/RN_RX200/IEC60335_B_libs/src\IEC60335_RN_adapter.c **** }
 301                             		.loc 1 178 0
 302 000b 6F 1F                   		popm	r1-r15
 303 000d 7F 95                   		rte
 304                             	.LFE9:
 306                             		.section	.text.INT_Excep_OVFF,"ax",@progbits
 307                             		.global	_INT_Excep_OVFF
 309                             	_INT_Excep_OVFF:
 310                             	.LFB10:
 179:C:/Workspace/FW_Platform2_5/trunk/HAL/RN_RX200/IEC60335_B_libs/src\IEC60335_RN_adapter.c **** 
 180:C:/Workspace/FW_Platform2_5/trunk/HAL/RN_RX200/IEC60335_B_libs/src\IEC60335_RN_adapter.c **** void INT_Excep_OVFF(void)
 181:C:/Workspace/FW_Platform2_5/trunk/HAL/RN_RX200/IEC60335_B_libs/src\IEC60335_RN_adapter.c **** {
 311                             		.loc 1 181 0
 312                             		; Note: Interrupt Handler
 313 0000 6E 1F                   		pushm	r1-r15
 314                             	.LCFI28:
 315 0002 EF 06                   		mov.L	r0, r6
 316                             	.LCFI29:
 182:C:/Workspace/FW_Platform2_5/trunk/HAL/RN_RX200/IEC60335_B_libs/src\IEC60335_RN_adapter.c **** 	LIB_Error_Fatal_Handler(PLT_ERROR_CLASSBCHECK_CLOCK);
 317                             		.loc 1 182 0
 318 0004 75 41 37                		mov.L	#55, r1
 319 0007 05 00 00 00             		bsr	_LIB_Error_Fatal_Handler
 320                             	.LVL27:
 183:C:/Workspace/FW_Platform2_5/trunk/HAL/RN_RX200/IEC60335_B_libs/src\IEC60335_RN_adapter.c **** }
 321                             		.loc 1 183 0
 322 000b 6F 1F                   		popm	r1-r15
 323 000d 7F 95                   		rte
 324                             	.LFE10:
 326                             		.section	.text.IEC60335_WDTest,"ax",@progbits
 327                             		.global	_IEC60335_WDTest
 329                             	_IEC60335_WDTest:
 330                             	.LFB11:
 184:C:/Workspace/FW_Platform2_5/trunk/HAL/RN_RX200/IEC60335_B_libs/src\IEC60335_RN_adapter.c **** 
 185:C:/Workspace/FW_Platform2_5/trunk/HAL/RN_RX200/IEC60335_B_libs/src\IEC60335_RN_adapter.c **** #endif
 186:C:/Workspace/FW_Platform2_5/trunk/HAL/RN_RX200/IEC60335_B_libs/src\IEC60335_RN_adapter.c **** 
 187:C:/Workspace/FW_Platform2_5/trunk/HAL/RN_RX200/IEC60335_B_libs/src\IEC60335_RN_adapter.c **** /* --- WDT TEST -------------------------------------------------------*/
 188:C:/Workspace/FW_Platform2_5/trunk/HAL/RN_RX200/IEC60335_B_libs/src\IEC60335_RN_adapter.c **** /*!
 189:C:/Workspace/FW_Platform2_5/trunk/HAL/RN_RX200/IEC60335_B_libs/src\IEC60335_RN_adapter.c ****  * @brief IEC60335 WD Test
 190:C:/Workspace/FW_Platform2_5/trunk/HAL/RN_RX200/IEC60335_B_libs/src\IEC60335_RN_adapter.c ****  */
 191:C:/Workspace/FW_Platform2_5/trunk/HAL/RN_RX200/IEC60335_B_libs/src\IEC60335_RN_adapter.c **** 
 192:C:/Workspace/FW_Platform2_5/trunk/HAL/RN_RX200/IEC60335_B_libs/src\IEC60335_RN_adapter.c **** type_testResult IEC60335_WDTest(void)
 193:C:/Workspace/FW_Platform2_5/trunk/HAL/RN_RX200/IEC60335_B_libs/src\IEC60335_RN_adapter.c **** {
 331                             		.loc 1 193 0
 332 0000 7E AA                   		push.l	r10
 333                             	.LCFI30:
 334 0002 7E A6                   		push.l	r6
 335                             	.LCFI31:
 336 0004 EF 06                   		mov.L	r0, r6
 337                             	.LCFI32:
 338 0006 60 40                   		sub	#4, r0
 194:C:/Workspace/FW_Platform2_5/trunk/HAL/RN_RX200/IEC60335_B_libs/src\IEC60335_RN_adapter.c **** 	IWDT_Init(0,0,0,0,0);
 339                             		.loc 1 194 0
 340 0008 3E 00 00                		mov.L	#0, [r0]
 341 000b 66 01                   		mov.L	#0, r1
 342 000d 66 02                   		mov.L	#0, r2
 343 000f 66 03                   		mov.L	#0, r3
 344 0011 66 04                   		mov.L	#0, r4
 345 0013 05 00 00 00             		bsr	_IWDT_Init
 346                             	.LVL28:
 195:C:/Workspace/FW_Platform2_5/trunk/HAL/RN_RX200/IEC60335_B_libs/src\IEC60335_RN_adapter.c **** 	return IEC60335_testPassed;
 347                             		.loc 1 195 0
 348 0017 66 1A                   		mov.L	#1, r10
 196:C:/Workspace/FW_Platform2_5/trunk/HAL/RN_RX200/IEC60335_B_libs/src\IEC60335_RN_adapter.c **** }
 349                             		.loc 1 196 0
 350 0019 EF A1                   		mov.L	r10, r1
 351 001b 62 40                   		add	#4, r0
 352 001d 7E B6                   		pop	r6
 353 001f 7E BA                   		pop	r10
 354 0021 02                      		rts
 355                             	.LFE11:
 357                             		.section	.text.IEC60335_ADCtest_POST,"ax",@progbits
 358                             		.global	_IEC60335_ADCtest_POST
 360                             	_IEC60335_ADCtest_POST:
 361                             	.LFB12:
 197:C:/Workspace/FW_Platform2_5/trunk/HAL/RN_RX200/IEC60335_B_libs/src\IEC60335_RN_adapter.c **** 
 198:C:/Workspace/FW_Platform2_5/trunk/HAL/RN_RX200/IEC60335_B_libs/src\IEC60335_RN_adapter.c **** type_testResult IEC60335_ADCtest_POST(void)
 199:C:/Workspace/FW_Platform2_5/trunk/HAL/RN_RX200/IEC60335_B_libs/src\IEC60335_RN_adapter.c **** {
 362                             		.loc 1 199 0
 363 0000 7E AA                   		push.l	r10
 364                             	.LCFI33:
 365 0002 7E A6                   		push.l	r6
 366                             	.LCFI34:
 367 0004 71 06 FC                		add	#-4, r0, r6
 368                             	.LCFI35:
 369 0007 EF 60                   		mov.L	r6, r0
 370                             	.LCFI36:
 200:C:/Workspace/FW_Platform2_5/trunk/HAL/RN_RX200/IEC60335_B_libs/src\IEC60335_RN_adapter.c **** 	type_testResult retVal=IEC60335_testPassed;
 371                             		.loc 1 200 0
 372 0009 3E 60 01                		mov.L	#1, [r6]
 373                             	.LVL29:
 201:C:/Workspace/FW_Platform2_5/trunk/HAL/RN_RX200/IEC60335_B_libs/src\IEC60335_RN_adapter.c **** 
 202:C:/Workspace/FW_Platform2_5/trunk/HAL/RN_RX200/IEC60335_B_libs/src\IEC60335_RN_adapter.c **** 	Test_ADC12_Init();
 374                             		.loc 1 202 0
 375 000c 05 00 00 00             		bsr	_Test_ADC12_Init
 376                             	.LVL30:
 203:C:/Workspace/FW_Platform2_5/trunk/HAL/RN_RX200/IEC60335_B_libs/src\IEC60335_RN_adapter.c **** 
 204:C:/Workspace/FW_Platform2_5/trunk/HAL/RN_RX200/IEC60335_B_libs/src\IEC60335_RN_adapter.c **** 	if(!Test_ADC12_Wait()){
 377                             		.loc 1 204 0
 378 0010 05 00 00 00             		bsr	_Test_ADC12_Wait
 379                             	.LVL31:
 380 0014 EF 1A                   		mov.L	r1, r10
 381 0016 61 0A                   		cmp	#0, r10
 382 0018 21 06                   		bne	.L24
 205:C:/Workspace/FW_Platform2_5/trunk/HAL/RN_RX200/IEC60335_B_libs/src\IEC60335_RN_adapter.c **** 		retVal = IEC60335_testFailed;
 383                             		.loc 1 205 0
 384 001a 3E 60 00                		mov.L	#0, [r6]
 385 001d 03                      		.balign 2,3,1
 386                             	.L24:
 206:C:/Workspace/FW_Platform2_5/trunk/HAL/RN_RX200/IEC60335_B_libs/src\IEC60335_RN_adapter.c **** 	}
 207:C:/Workspace/FW_Platform2_5/trunk/HAL/RN_RX200/IEC60335_B_libs/src\IEC60335_RN_adapter.c **** 	return retVal;
 387                             		.loc 1 207 0
 388 001e EC 6A                   		mov.L	[r6], r10
 208:C:/Workspace/FW_Platform2_5/trunk/HAL/RN_RX200/IEC60335_B_libs/src\IEC60335_RN_adapter.c **** }
 389                             		.loc 1 208 0
 390 0020 EF A1                   		mov.L	r10, r1
 391 0022 62 40                   		add	#4, r0
 392                             	.LVL32:
 393 0024 7E B6                   		pop	r6
 394 0026 7E BA                   		pop	r10
 395 0028 02                      		rts
 396                             	.LFE12:
 398 0029 03                      		.section	.text.IEC60335_ADCtest_BITS_start,"ax",@progbits
 399                             		.global	_IEC60335_ADCtest_BITS_start
 401                             	_IEC60335_ADCtest_BITS_start:
 402                             	.LFB13:
 209:C:/Workspace/FW_Platform2_5/trunk/HAL/RN_RX200/IEC60335_B_libs/src\IEC60335_RN_adapter.c **** 
 210:C:/Workspace/FW_Platform2_5/trunk/HAL/RN_RX200/IEC60335_B_libs/src\IEC60335_RN_adapter.c **** void IEC60335_ADCtest_BITS_start(void)
 211:C:/Workspace/FW_Platform2_5/trunk/HAL/RN_RX200/IEC60335_B_libs/src\IEC60335_RN_adapter.c **** {
 403                             		.loc 1 211 0
 404 0000 7E A6                   		push.l	r6
 405                             	.LCFI37:
 406 0002 EF 06                   		mov.L	r0, r6
 407                             	.LCFI38:
 212:C:/Workspace/FW_Platform2_5/trunk/HAL/RN_RX200/IEC60335_B_libs/src\IEC60335_RN_adapter.c **** 	Test_ADC12_Start(0);
 408                             		.loc 1 212 0
 409 0004 66 01                   		mov.L	#0, r1
 410 0006 05 00 00 00             		bsr	_Test_ADC12_Start
 411                             	.LVL33:
 213:C:/Workspace/FW_Platform2_5/trunk/HAL/RN_RX200/IEC60335_B_libs/src\IEC60335_RN_adapter.c **** }
 412                             		.loc 1 213 0
 413 000a 3F 66 01                		rtsd	#4, r6-r6
 414                             	.LFE13:
 416                             		.section	.text.IEC60335_ADCtest_BITS_check,"ax",@progbits
 417                             		.global	_IEC60335_ADCtest_BITS_check
 419                             	_IEC60335_ADCtest_BITS_check:
 420                             	.LFB14:
 214:C:/Workspace/FW_Platform2_5/trunk/HAL/RN_RX200/IEC60335_B_libs/src\IEC60335_RN_adapter.c **** 
 215:C:/Workspace/FW_Platform2_5/trunk/HAL/RN_RX200/IEC60335_B_libs/src\IEC60335_RN_adapter.c **** type_testResult IEC60335_ADCtest_BITS_check(void)
 216:C:/Workspace/FW_Platform2_5/trunk/HAL/RN_RX200/IEC60335_B_libs/src\IEC60335_RN_adapter.c **** {
 421                             		.loc 1 216 0
 422 0000 7E AA                   		push.l	r10
 423                             	.LCFI39:
 424 0002 7E A6                   		push.l	r6
 425                             	.LCFI40:
 426 0004 71 06 FC                		add	#-4, r0, r6
 427                             	.LCFI41:
 428 0007 EF 60                   		mov.L	r6, r0
 429                             	.LCFI42:
 217:C:/Workspace/FW_Platform2_5/trunk/HAL/RN_RX200/IEC60335_B_libs/src\IEC60335_RN_adapter.c **** 	type_testResult retVal=IEC60335_testPassed;
 430                             		.loc 1 217 0
 431 0009 3E 60 01                		mov.L	#1, [r6]
 432                             	.LVL34:
 218:C:/Workspace/FW_Platform2_5/trunk/HAL/RN_RX200/IEC60335_B_libs/src\IEC60335_RN_adapter.c **** 
 219:C:/Workspace/FW_Platform2_5/trunk/HAL/RN_RX200/IEC60335_B_libs/src\IEC60335_RN_adapter.c **** 	if(!Test_ADC12_CheckResult(FALSE))
 433                             		.loc 1 219 0
 434 000c 66 01                   		mov.L	#0, r1
 435 000e 05 00 00 00             		bsr	_Test_ADC12_CheckResult
 436                             	.LVL35:
 437 0012 EF 1A                   		mov.L	r1, r10
 438 0014 61 0A                   		cmp	#0, r10
 439 0016 21 06                   		bne	.L28
 220:C:/Workspace/FW_Platform2_5/trunk/HAL/RN_RX200/IEC60335_B_libs/src\IEC60335_RN_adapter.c **** 		retVal = IEC60335_testFailed;
 440                             		.loc 1 220 0
 441 0018 3E 60 00                		mov.L	#0, [r6]
 442 001b 03                      		.balign 2,3,1
 443                             	.L28:
 221:C:/Workspace/FW_Platform2_5/trunk/HAL/RN_RX200/IEC60335_B_libs/src\IEC60335_RN_adapter.c **** 
 222:C:/Workspace/FW_Platform2_5/trunk/HAL/RN_RX200/IEC60335_B_libs/src\IEC60335_RN_adapter.c **** 	return retVal;
 444                             		.loc 1 222 0
 445 001c EC 6A                   		mov.L	[r6], r10
 223:C:/Workspace/FW_Platform2_5/trunk/HAL/RN_RX200/IEC60335_B_libs/src\IEC60335_RN_adapter.c **** }
 446                             		.loc 1 223 0
 447 001e EF A1                   		mov.L	r10, r1
 448 0020 62 40                   		add	#4, r0
 449                             	.LVL36:
 450 0022 7E B6                   		pop	r6
 451 0024 7E BA                   		pop	r10
 452 0026 02                      		rts
 453                             	.LFE14:
 455 0027 03                      		.section	.CLASS_B_temp,"aw",@progbits
 458                             	_SafeRam:
 459 0000 00 00 00 00 00 00 00 00 		.zero	8
 460                             		.section	.bss.SafeStack,"aw",@nobits
 461                             		.balign 4
 464                             	_SafeStack:
 465 0000 00 00 00 00 00 00 00 00 		.zero	48
 465      00 00 00 00 00 00 00 00 
 465      00 00 00 00 00 00 00 00 
 465      00 00 00 00 00 00 00 00 
 465      00 00 00 00 00 00 00 00 
 466                             		.section	.bss.clockError,"aw",@nobits
 467                             		.balign 4
 470                             	_clockError:
 471 0000 00 00 00 00             		.zero	4
 920                             	.Letext0:
 921                             		.file 2 "C:\\Workspace\\FW_Platform2_5\\trunk\\HAL\\RN_RX200\\IEC60335_B_libs\\inc/IEC60335.h"
 922                             		.file 3 "C:\\Workspace\\FW_Platform2_5\\trunk\\PlatformLibrary\\LIB_Error/LIB_Error.h"
 923                             		.file 4 "C:/Workspace/FW_Platform2_5/trunk/HAL/RN_RX200/IEC60335_B_libs/src/RAM/ramtest_stack.h"
 924                             		.file 5 "C:/Workspace/FW_Platform2_5/trunk/HAL/RN_RX200/IEC60335_B_libs/src/Clock/clock_monitor.h"
 925                             		.file 6 "C:/Workspace/FW_Platform2_5/trunk/HAL/RN_RX200/IEC60335_B_libs/src/ADC12/test_adc12.h"
 926                             		.file 7 "C:/Workspace/FW_Platform2_5/trunk/HAL/RN_RX200/IEC60335_B_libs/src/IWDT/iwdt.h"
 927                             		.file 8 "C:/Workspace/FW_Platform2_5/trunk/HAL/RN_RX200/IEC60335_B_libs/src/RAM/ramtest_march_c.h"
 928                             		.file 9 "C:/Workspace/FW_Platform2_5/trunk/HAL/RN_RX200/IEC60335_B_libs/src/CPU/cpu_test.h"
