   1                             		.file	"InputManager.c"
   2                             		.section P,"ax"
   3                             	.Ltext0:
   4                             		.section	.text.LIB_IOM_InputInitialization,"ax",@progbits
   5                             		.global	_LIB_IOM_InputInitialization
   7                             	_LIB_IOM_InputInitialization:
   8                             	.LFB0:
   9                             		.file 1 "C:/Workspace/FW_Platform2_5/trunk/PlatformLibrary/LIB_IOManager/InputManager.c"
   1:C:/Workspace/FW_Platform2_5/trunk/PlatformLibrary/LIB_IOManager\InputManager.c **** /*
   2:C:/Workspace/FW_Platform2_5/trunk/PlatformLibrary/LIB_IOManager\InputManager.c **** Copyright (c) 2004-2005, Indesit Company, I.D.D..
   3:C:/Workspace/FW_Platform2_5/trunk/PlatformLibrary/LIB_IOManager\InputManager.c **** Tutti i diritti sono riservati. All rights reserved.
   4:C:/Workspace/FW_Platform2_5/trunk/PlatformLibrary/LIB_IOManager\InputManager.c **** */
   5:C:/Workspace/FW_Platform2_5/trunk/PlatformLibrary/LIB_IOManager\InputManager.c **** 
   6:C:/Workspace/FW_Platform2_5/trunk/PlatformLibrary/LIB_IOManager\InputManager.c **** /**
   7:C:/Workspace/FW_Platform2_5/trunk/PlatformLibrary/LIB_IOManager\InputManager.c **** 			Implementation of all functions necessary to achieve the aim.
   8:C:/Workspace/FW_Platform2_5/trunk/PlatformLibrary/LIB_IOManager\InputManager.c **** \n
   9:C:/Workspace/FW_Platform2_5/trunk/PlatformLibrary/LIB_IOManager\InputManager.c **** \file		InputManager.c
  10:C:/Workspace/FW_Platform2_5/trunk/PlatformLibrary/LIB_IOManager\InputManager.c **** \ingroup	InputsManager
  11:C:/Workspace/FW_Platform2_5/trunk/PlatformLibrary/LIB_IOManager\InputManager.c **** \date		Jun 8, 2010
  12:C:/Workspace/FW_Platform2_5/trunk/PlatformLibrary/LIB_IOManager\InputManager.c **** \version	01.00.00
  13:C:/Workspace/FW_Platform2_5/trunk/PlatformLibrary/LIB_IOManager\InputManager.c **** \author		stefano.ughi
  14:C:/Workspace/FW_Platform2_5/trunk/PlatformLibrary/LIB_IOManager\InputManager.c **** \n
  15:C:/Workspace/FW_Platform2_5/trunk/PlatformLibrary/LIB_IOManager\InputManager.c **** \n
  16:C:/Workspace/FW_Platform2_5/trunk/PlatformLibrary/LIB_IOManager\InputManager.c **** \Par\b	History:
  17:C:/Workspace/FW_Platform2_5/trunk/PlatformLibrary/LIB_IOManager\InputManager.c **** \n
  18:C:/Workspace/FW_Platform2_5/trunk/PlatformLibrary/LIB_IOManager\InputManager.c **** \n 		01.00.00
  19:C:/Workspace/FW_Platform2_5/trunk/PlatformLibrary/LIB_IOManager\InputManager.c **** \n		Jun 8, 2010
  20:C:/Workspace/FW_Platform2_5/trunk/PlatformLibrary/LIB_IOManager\InputManager.c **** \n		Stefano Ughi
  21:C:/Workspace/FW_Platform2_5/trunk/PlatformLibrary/LIB_IOManager\InputManager.c **** \n		changes
  22:C:/Workspace/FW_Platform2_5/trunk/PlatformLibrary/LIB_IOManager\InputManager.c **** \n 	    - Creation
  23:C:/Workspace/FW_Platform2_5/trunk/PlatformLibrary/LIB_IOManager\InputManager.c **** \n
  24:C:/Workspace/FW_Platform2_5/trunk/PlatformLibrary/LIB_IOManager\InputManager.c **** \n
  25:C:/Workspace/FW_Platform2_5/trunk/PlatformLibrary/LIB_IOManager\InputManager.c **** \n 		01.00.01
  26:C:/Workspace/FW_Platform2_5/trunk/PlatformLibrary/LIB_IOManager\InputManager.c **** \n		Nov 15, 2010
  27:C:/Workspace/FW_Platform2_5/trunk/PlatformLibrary/LIB_IOManager\InputManager.c **** \n		Stefano Ughi
  28:C:/Workspace/FW_Platform2_5/trunk/PlatformLibrary/LIB_IOManager\InputManager.c **** \n		changes
  29:C:/Workspace/FW_Platform2_5/trunk/PlatformLibrary/LIB_IOManager\InputManager.c **** \n 		- void LIB_IOM_InputInitialization( uint8_t resetType )
  30:C:/Workspace/FW_Platform2_5/trunk/PlatformLibrary/LIB_IOManager\InputManager.c **** \n		  added error handling in input pin setup
  31:C:/Workspace/FW_Platform2_5/trunk/PlatformLibrary/LIB_IOManager\InputManager.c **** \n        added new call to feedbacks's init. if defined PLATFORM2_FEEDBACK
  32:C:/Workspace/FW_Platform2_5/trunk/PlatformLibrary/LIB_IOManager\InputManager.c **** \n
  33:C:/Workspace/FW_Platform2_5/trunk/PlatformLibrary/LIB_IOManager\InputManager.c **** \n 		01.00.02
  34:C:/Workspace/FW_Platform2_5/trunk/PlatformLibrary/LIB_IOManager\InputManager.c **** \n		Mar 30, 2011
  35:C:/Workspace/FW_Platform2_5/trunk/PlatformLibrary/LIB_IOManager\InputManager.c **** \n		Stefano Ughi
  36:C:/Workspace/FW_Platform2_5/trunk/PlatformLibrary/LIB_IOManager\InputManager.c **** \n		changes
  37:C:/Workspace/FW_Platform2_5/trunk/PlatformLibrary/LIB_IOManager\InputManager.c **** \n 		- added #include "ProductModules_Cfg.h"
  38:C:/Workspace/FW_Platform2_5/trunk/PlatformLibrary/LIB_IOManager\InputManager.c **** \n      - added define WILD_CARD to use with PLATFORM2_SUPPORT define
  39:C:/Workspace/FW_Platform2_5/trunk/PlatformLibrary/LIB_IOManager\InputManager.c **** \n
  40:C:/Workspace/FW_Platform2_5/trunk/PlatformLibrary/LIB_IOManager\InputManager.c **** \n etc.
  41:C:/Workspace/FW_Platform2_5/trunk/PlatformLibrary/LIB_IOManager\InputManager.c **** */
  42:C:/Workspace/FW_Platform2_5/trunk/PlatformLibrary/LIB_IOManager\InputManager.c **** #define MODULE_BODY_LIB_IOMANAGER
  43:C:/Workspace/FW_Platform2_5/trunk/PlatformLibrary/LIB_IOManager\InputManager.c **** /* ******** */
  44:C:/Workspace/FW_Platform2_5/trunk/PlatformLibrary/LIB_IOManager\InputManager.c **** /* Includes */
  45:C:/Workspace/FW_Platform2_5/trunk/PlatformLibrary/LIB_IOManager\InputManager.c **** /* ******** */
  46:C:/Workspace/FW_Platform2_5/trunk/PlatformLibrary/LIB_IOManager\InputManager.c **** 
  47:C:/Workspace/FW_Platform2_5/trunk/PlatformLibrary/LIB_IOManager\InputManager.c **** #include "Config.h"
  48:C:/Workspace/FW_Platform2_5/trunk/PlatformLibrary/LIB_IOManager\InputManager.c **** 
  49:C:/Workspace/FW_Platform2_5/trunk/PlatformLibrary/LIB_IOManager\InputManager.c **** #include "LIB_Utilities.h"
  50:C:/Workspace/FW_Platform2_5/trunk/PlatformLibrary/LIB_IOManager\InputManager.c **** #include "InputManager.h"
  51:C:/Workspace/FW_Platform2_5/trunk/PlatformLibrary/LIB_IOManager\InputManager.c **** #include "LIB_Error.h"
  52:C:/Workspace/FW_Platform2_5/trunk/PlatformLibrary/LIB_IOManager\InputManager.c **** /*#include "InputManagerExp.h"*/
  53:C:/Workspace/FW_Platform2_5/trunk/PlatformLibrary/LIB_IOManager\InputManager.c **** 
  54:C:/Workspace/FW_Platform2_5/trunk/PlatformLibrary/LIB_IOManager\InputManager.c **** #include "IOSharing.h"
  55:C:/Workspace/FW_Platform2_5/trunk/PlatformLibrary/LIB_IOManager\InputManager.c **** #include "DigitalInputs.h"
  56:C:/Workspace/FW_Platform2_5/trunk/PlatformLibrary/LIB_IOManager\InputManager.c **** #include "Analog.h"
  57:C:/Workspace/FW_Platform2_5/trunk/PlatformLibrary/LIB_IOManager\InputManager.c **** #include "OCDIO_drv.h"
  58:C:/Workspace/FW_Platform2_5/trunk/PlatformLibrary/LIB_IOManager\InputManager.c **** #if defined(PLATFORM1_MODULES_USED)
  59:C:/Workspace/FW_Platform2_5/trunk/PlatformLibrary/LIB_IOManager\InputManager.c **** #include "Feedback.h"
  60:C:/Workspace/FW_Platform2_5/trunk/PlatformLibrary/LIB_IOManager\InputManager.c **** #else
  61:C:/Workspace/FW_Platform2_5/trunk/PlatformLibrary/LIB_IOManager\InputManager.c **** #include "Feedbacks.h"
  62:C:/Workspace/FW_Platform2_5/trunk/PlatformLibrary/LIB_IOManager\InputManager.c **** #endif
  63:C:/Workspace/FW_Platform2_5/trunk/PlatformLibrary/LIB_IOManager\InputManager.c **** /*lint -e537*/
  64:C:/Workspace/FW_Platform2_5/trunk/PlatformLibrary/LIB_IOManager\InputManager.c **** #include "ProductModules_Cfg.h"
  65:C:/Workspace/FW_Platform2_5/trunk/PlatformLibrary/LIB_IOManager\InputManager.c **** /*lint +e537*/
  66:C:/Workspace/FW_Platform2_5/trunk/PlatformLibrary/LIB_IOManager\InputManager.c **** #ifdef CONFIG_PM_CONDUCTIVITY_SENSOR
  67:C:/Workspace/FW_Platform2_5/trunk/PlatformLibrary/LIB_IOManager\InputManager.c **** #include "PM_ConductivitySensor.h"
  68:C:/Workspace/FW_Platform2_5/trunk/PlatformLibrary/LIB_IOManager\InputManager.c **** #endif /* CONFIG_PM_CONDUCTIVITY_SENSOR */
  69:C:/Workspace/FW_Platform2_5/trunk/PlatformLibrary/LIB_IOManager\InputManager.c **** 
  70:C:/Workspace/FW_Platform2_5/trunk/PlatformLibrary/LIB_IOManager\InputManager.c **** #ifdef CONFIG_PM_LINEARPRESSURE_SENSOR
  71:C:/Workspace/FW_Platform2_5/trunk/PlatformLibrary/LIB_IOManager\InputManager.c **** #include "PM_LinearPressureSensor.h"
  72:C:/Workspace/FW_Platform2_5/trunk/PlatformLibrary/LIB_IOManager\InputManager.c **** #endif /* CONFIG_PM_LINEARPRESSURESENSOR */
  73:C:/Workspace/FW_Platform2_5/trunk/PlatformLibrary/LIB_IOManager\InputManager.c **** 
  74:C:/Workspace/FW_Platform2_5/trunk/PlatformLibrary/LIB_IOManager\InputManager.c **** #ifdef CONFIG_PM_ANALOG_FEEDBACKS_SUPPORT
  75:C:/Workspace/FW_Platform2_5/trunk/PlatformLibrary/LIB_IOManager\InputManager.c **** #include "PM_AnalogFeedback.h"
  76:C:/Workspace/FW_Platform2_5/trunk/PlatformLibrary/LIB_IOManager\InputManager.c **** #endif /* CONFIG_PM_ANALOG_FEEDBACK */
  77:C:/Workspace/FW_Platform2_5/trunk/PlatformLibrary/LIB_IOManager\InputManager.c **** 
  78:C:/Workspace/FW_Platform2_5/trunk/PlatformLibrary/LIB_IOManager\InputManager.c **** #ifdef CONFIG_PM_MOTORGATE
  79:C:/Workspace/FW_Platform2_5/trunk/PlatformLibrary/LIB_IOManager\InputManager.c **** #include "PM_UM_UniversalMotor.h"
  80:C:/Workspace/FW_Platform2_5/trunk/PlatformLibrary/LIB_IOManager\InputManager.c **** #include "PM_UM_Tachometer.h"
  81:C:/Workspace/FW_Platform2_5/trunk/PlatformLibrary/LIB_IOManager\InputManager.c **** #endif
  82:C:/Workspace/FW_Platform2_5/trunk/PlatformLibrary/LIB_IOManager\InputManager.c **** 
  83:C:/Workspace/FW_Platform2_5/trunk/PlatformLibrary/LIB_IOManager\InputManager.c **** #if defined(CONFIG_PM_FREQUENCY_FEEDBACKS_SUPPORT)
  84:C:/Workspace/FW_Platform2_5/trunk/PlatformLibrary/LIB_IOManager\InputManager.c **** #include "PM_FrequencyFeedbacks.h"
  85:C:/Workspace/FW_Platform2_5/trunk/PlatformLibrary/LIB_IOManager\InputManager.c **** #endif /* defined(CONFIG_PM_FREQUENCY_FEEDBACKS_SUPPORT) */
  86:C:/Workspace/FW_Platform2_5/trunk/PlatformLibrary/LIB_IOManager\InputManager.c **** 
  87:C:/Workspace/FW_Platform2_5/trunk/PlatformLibrary/LIB_IOManager\InputManager.c **** /* ****************** */
  88:C:/Workspace/FW_Platform2_5/trunk/PlatformLibrary/LIB_IOManager\InputManager.c **** /* Defines and Macros */
  89:C:/Workspace/FW_Platform2_5/trunk/PlatformLibrary/LIB_IOManager\InputManager.c **** /* ****************** */
  90:C:/Workspace/FW_Platform2_5/trunk/PlatformLibrary/LIB_IOManager\InputManager.c **** 
  91:C:/Workspace/FW_Platform2_5/trunk/PlatformLibrary/LIB_IOManager\InputManager.c **** #define EEP_LOWLEVELINPUT_TABPTR_OFFSET		0		/* L.L.I. displacement vs PTR_IO_CONFIG_DATA */
  92:C:/Workspace/FW_Platform2_5/trunk/PlatformLibrary/LIB_IOManager\InputManager.c **** #define EEP_PIN_TABPTR_OFFSET    			4		/* Pins displacement vs PTR_IO_CONFIG_DATA */
  93:C:/Workspace/FW_Platform2_5/trunk/PlatformLibrary/LIB_IOManager\InputManager.c **** 
  94:C:/Workspace/FW_Platform2_5/trunk/PlatformLibrary/LIB_IOManager\InputManager.c **** #define LLI_TABLE_ITEM_SIZE_IN_BYTES 		4		/* Size in bytes of a single item inside L.L.I. table */
  95:C:/Workspace/FW_Platform2_5/trunk/PlatformLibrary/LIB_IOManager\InputManager.c **** /* Input Maps Field Access */
  96:C:/Workspace/FW_Platform2_5/trunk/PlatformLibrary/LIB_IOManager\InputManager.c **** #define READ_TYPE(pByte)                    (*(pByte))      /* Input Read Type */
  97:C:/Workspace/FW_Platform2_5/trunk/PlatformLibrary/LIB_IOManager\InputManager.c **** #define INPUT_PIN_TAB_OFFSET(pByte)         (*(pByte+1))    /* Pin Tab Offset Field vs PTR_IO_DEVIC
  98:C:/Workspace/FW_Platform2_5/trunk/PlatformLibrary/LIB_IOManager\InputManager.c **** #define INPUT_TYPE_PARAMS_OFFSET(pByte)     (*(pByte+2))    /* Input Type Params Offset vs PTR_IO_D
  99:C:/Workspace/FW_Platform2_5/trunk/PlatformLibrary/LIB_IOManager\InputManager.c **** #define INPUT_RESULT_POS(pByte)             (*(pByte+3))    /* Where Input Result is stored */
 100:C:/Workspace/FW_Platform2_5/trunk/PlatformLibrary/LIB_IOManager\InputManager.c **** /* *************************** */
 101:C:/Workspace/FW_Platform2_5/trunk/PlatformLibrary/LIB_IOManager\InputManager.c **** /* Typedef, Structs and Unions */
 102:C:/Workspace/FW_Platform2_5/trunk/PlatformLibrary/LIB_IOManager\InputManager.c **** /* *************************** */
 103:C:/Workspace/FW_Platform2_5/trunk/PlatformLibrary/LIB_IOManager\InputManager.c **** 
 104:C:/Workspace/FW_Platform2_5/trunk/PlatformLibrary/LIB_IOManager\InputManager.c **** 
 105:C:/Workspace/FW_Platform2_5/trunk/PlatformLibrary/LIB_IOManager\InputManager.c **** /* ********* */
 106:C:/Workspace/FW_Platform2_5/trunk/PlatformLibrary/LIB_IOManager\InputManager.c **** /* Variables */
 107:C:/Workspace/FW_Platform2_5/trunk/PlatformLibrary/LIB_IOManager\InputManager.c **** /* ********* */
 108:C:/Workspace/FW_Platform2_5/trunk/PlatformLibrary/LIB_IOManager\InputManager.c **** 
 109:C:/Workspace/FW_Platform2_5/trunk/PlatformLibrary/LIB_IOManager\InputManager.c **** /* Global */
 110:C:/Workspace/FW_Platform2_5/trunk/PlatformLibrary/LIB_IOManager\InputManager.c **** extern const IO_ModuleIOMapType ModuleIOmap[];
 111:C:/Workspace/FW_Platform2_5/trunk/PlatformLibrary/LIB_IOManager\InputManager.c **** 
 112:C:/Workspace/FW_Platform2_5/trunk/PlatformLibrary/LIB_IOManager\InputManager.c **** /* Static */
 113:C:/Workspace/FW_Platform2_5/trunk/PlatformLibrary/LIB_IOManager\InputManager.c **** 
 114:C:/Workspace/FW_Platform2_5/trunk/PlatformLibrary/LIB_IOManager\InputManager.c **** 
 115:C:/Workspace/FW_Platform2_5/trunk/PlatformLibrary/LIB_IOManager\InputManager.c **** /* ******************* */
 116:C:/Workspace/FW_Platform2_5/trunk/PlatformLibrary/LIB_IOManager\InputManager.c **** /* Functions Prototype */
 117:C:/Workspace/FW_Platform2_5/trunk/PlatformLibrary/LIB_IOManager\InputManager.c **** /* ******************* */
 118:C:/Workspace/FW_Platform2_5/trunk/PlatformLibrary/LIB_IOManager\InputManager.c **** 
 119:C:/Workspace/FW_Platform2_5/trunk/PlatformLibrary/LIB_IOManager\InputManager.c **** /* Exported function */
 120:C:/Workspace/FW_Platform2_5/trunk/PlatformLibrary/LIB_IOManager\InputManager.c **** 
 121:C:/Workspace/FW_Platform2_5/trunk/PlatformLibrary/LIB_IOManager\InputManager.c **** /* Local Function */
 122:C:/Workspace/FW_Platform2_5/trunk/PlatformLibrary/LIB_IOManager\InputManager.c **** 
 123:C:/Workspace/FW_Platform2_5/trunk/PlatformLibrary/LIB_IOManager\InputManager.c **** /* *************** */
 124:C:/Workspace/FW_Platform2_5/trunk/PlatformLibrary/LIB_IOManager\InputManager.c **** /* Function Bodies */
 125:C:/Workspace/FW_Platform2_5/trunk/PlatformLibrary/LIB_IOManager\InputManager.c **** /* *************** */
 126:C:/Workspace/FW_Platform2_5/trunk/PlatformLibrary/LIB_IOManager\InputManager.c **** 
 127:C:/Workspace/FW_Platform2_5/trunk/PlatformLibrary/LIB_IOManager\InputManager.c **** /* Exported function */
 128:C:/Workspace/FW_Platform2_5/trunk/PlatformLibrary/LIB_IOManager\InputManager.c **** /**
 129:C:/Workspace/FW_Platform2_5/trunk/PlatformLibrary/LIB_IOManager\InputManager.c **** \n Inputs Initialization.
 130:C:/Workspace/FW_Platform2_5/trunk/PlatformLibrary/LIB_IOManager\InputManager.c **** \n This function is called in ResetModuleManager() if SystemMode==SYSTEM_NORMAL_MODE
 131:C:/Workspace/FW_Platform2_5/trunk/PlatformLibrary/LIB_IOManager\InputManager.c **** \n regardless cold or warm reset.
 132:C:/Workspace/FW_Platform2_5/trunk/PlatformLibrary/LIB_IOManager\InputManager.c **** 
 133:C:/Workspace/FW_Platform2_5/trunk/PlatformLibrary/LIB_IOManager\InputManager.c **** \param  [in] resetType if !=0 -> cold reset otherwise warm reset.
 134:C:/Workspace/FW_Platform2_5/trunk/PlatformLibrary/LIB_IOManager\InputManager.c **** 
 135:C:/Workspace/FW_Platform2_5/trunk/PlatformLibrary/LIB_IOManager\InputManager.c **** \author 	Stefano Ughi
 136:C:/Workspace/FW_Platform2_5/trunk/PlatformLibrary/LIB_IOManager\InputManager.c **** \date		10/06/2010
 137:C:/Workspace/FW_Platform2_5/trunk/PlatformLibrary/LIB_IOManager\InputManager.c **** \version	1.0.0
 138:C:/Workspace/FW_Platform2_5/trunk/PlatformLibrary/LIB_IOManager\InputManager.c **** 
 139:C:/Workspace/FW_Platform2_5/trunk/PlatformLibrary/LIB_IOManager\InputManager.c **** 
 140:C:/Workspace/FW_Platform2_5/trunk/PlatformLibrary/LIB_IOManager\InputManager.c **** \note		\par \b Nota 1:
 141:C:/Workspace/FW_Platform2_5/trunk/PlatformLibrary/LIB_IOManager\InputManager.c **** 			documentation by Stefano Ughi
 142:C:/Workspace/FW_Platform2_5/trunk/PlatformLibrary/LIB_IOManager\InputManager.c **** 
 143:C:/Workspace/FW_Platform2_5/trunk/PlatformLibrary/LIB_IOManager\InputManager.c **** */
 144:C:/Workspace/FW_Platform2_5/trunk/PlatformLibrary/LIB_IOManager\InputManager.c **** 
 145:C:/Workspace/FW_Platform2_5/trunk/PlatformLibrary/LIB_IOManager\InputManager.c **** void LIB_IOM_InputInitialization( uint8_t resetType )
 146:C:/Workspace/FW_Platform2_5/trunk/PlatformLibrary/LIB_IOManager\InputManager.c **** {
  10                             		.loc 1 146 0
  11                             	.LVL0:
  12 0000 6E 7D                   		pushm	r7-r13
  13                             	.LCFI0:
  14 0002 71 00 E4                		add	#-28, r0
  15                             	.LCFI1:
 147:C:/Workspace/FW_Platform2_5/trunk/PlatformLibrary/LIB_IOManager\InputManager.c **** 	struct Loader lowLevelInputTabPtr;
 148:C:/Workspace/FW_Platform2_5/trunk/PlatformLibrary/LIB_IOManager\InputManager.c **** 	struct Loader pinTabPtr;
 149:C:/Workspace/FW_Platform2_5/trunk/PlatformLibrary/LIB_IOManager\InputManager.c **** 	struct Loader lowLevelParametersPtr;
 150:C:/Workspace/FW_Platform2_5/trunk/PlatformLibrary/LIB_IOManager\InputManager.c **** 	IO_ErrorType err;
 151:C:/Workspace/FW_Platform2_5/trunk/PlatformLibrary/LIB_IOManager\InputManager.c **** 	uint8_t *pByte;          /* local pointer used to scan inputs */
 152:C:/Workspace/FW_Platform2_5/trunk/PlatformLibrary/LIB_IOManager\InputManager.c **** 	uint8_t pin;
 153:C:/Workspace/FW_Platform2_5/trunk/PlatformLibrary/LIB_IOManager\InputManager.c **** 	uint8_t readType;
 154:C:/Workspace/FW_Platform2_5/trunk/PlatformLibrary/LIB_IOManager\InputManager.c **** 	uint8_t activeSense;
 155:C:/Workspace/FW_Platform2_5/trunk/PlatformLibrary/LIB_IOManager\InputManager.c **** 
 156:C:/Workspace/FW_Platform2_5/trunk/PlatformLibrary/LIB_IOManager\InputManager.c **** 	uint8_t channelAD;
 157:C:/Workspace/FW_Platform2_5/trunk/PlatformLibrary/LIB_IOManager\InputManager.c **** 
 158:C:/Workspace/FW_Platform2_5/trunk/PlatformLibrary/LIB_IOManager\InputManager.c **** 
 159:C:/Workspace/FW_Platform2_5/trunk/PlatformLibrary/LIB_IOManager\InputManager.c **** 	if ( 0 != BasicLoader(SF_PTR_IO_CONFIG, EEP_LOWLEVELINPUT_TABPTR_OFFSET, &lowLevelInputTabPtr) )
  16                             		.loc 1 159 0
  17 0005 71 03 10                		add	#16, r0, r3
 146:C:/Workspace/FW_Platform2_5/trunk/PlatformLibrary/LIB_IOManager\InputManager.c **** {
  18                             		.loc 1 146 0
  19 0008 CF 1C                   		mov.B	r1, r12
  20                             		.loc 1 159 0
  21 000a 66 02                   		mov	#0, r2
  22 000c 75 41 20                		mov	#32, r1
  23                             	.LVL1:
  24 000f 05 00 00 00             		bsr	_BasicLoader
  25                             	.LVL2:
  26 0013 5B 11                   		movu.B	r1, r1
  27 0015 61 01                   		cmp	#0, r1
  28 0017 20 08                   		beq	.L2
 160:C:/Workspace/FW_Platform2_5/trunk/PlatformLibrary/LIB_IOManager\InputManager.c **** 	{
 161:C:/Workspace/FW_Platform2_5/trunk/PlatformLibrary/LIB_IOManager\InputManager.c **** 		PLT_ERROR_FATAL(PLT_ERROR_INPUT_MNGR_1);
  29                             		.loc 1 161 0
  30 0019 75 41 12                		mov.L	#18, r1
  31 001c 38 C6 00                		bra	.L37
  32                             	.L2:
 162:C:/Workspace/FW_Platform2_5/trunk/PlatformLibrary/LIB_IOManager\InputManager.c **** 		return; /* Serious Error */
 163:C:/Workspace/FW_Platform2_5/trunk/PlatformLibrary/LIB_IOManager\InputManager.c **** 	}
 164:C:/Workspace/FW_Platform2_5/trunk/PlatformLibrary/LIB_IOManager\InputManager.c **** 	if ( 0 != BasicLoader(SF_PTR_IO_CONFIG, EEP_PIN_TABPTR_OFFSET, &pinTabPtr) )
  33                             		.loc 1 164 0
  34 001f 71 03 08                		add	#8, r0, r3
  35 0022 75 41 20                		mov	#32, r1
  36 0025 66 42                   		mov	#4, r2
  37 0027 05 00 00 00             		bsr	_BasicLoader
  38                             	.LVL3:
  39 002b 5B 11                   		movu.B	r1, r1
  40 002d 61 01                   		cmp	#0, r1
  41 002f 20 08                   		beq	.L4
 165:C:/Workspace/FW_Platform2_5/trunk/PlatformLibrary/LIB_IOManager\InputManager.c **** 	{
 166:C:/Workspace/FW_Platform2_5/trunk/PlatformLibrary/LIB_IOManager\InputManager.c **** 		PLT_ERROR_FATAL(PLT_ERROR_INPUT_MNGR_2);
  42                             		.loc 1 166 0
  43 0031 75 41 13                		mov.L	#19, r1
  44 0034 38 AE 00                		bra	.L37
  45                             	.L4:
 167:C:/Workspace/FW_Platform2_5/trunk/PlatformLibrary/LIB_IOManager\InputManager.c **** 		return; /* Serious Error */
 168:C:/Workspace/FW_Platform2_5/trunk/PlatformLibrary/LIB_IOManager\InputManager.c **** 	}
 169:C:/Workspace/FW_Platform2_5/trunk/PlatformLibrary/LIB_IOManager\InputManager.c **** 	LIB_ADC_UnregisterAllADch();
  46                             		.loc 1 169 0
  47 0037 05 00 00 00             		bsr	_LIB_ADC_UnregisterAllADch
  48                             	.LVL4:
 170:C:/Workspace/FW_Platform2_5/trunk/PlatformLibrary/LIB_IOManager\InputManager.c **** 	/* For All Inputs in Setting File */
 171:C:/Workspace/FW_Platform2_5/trunk/PlatformLibrary/LIB_IOManager\InputManager.c **** 	for ( pByte = lowLevelInputTabPtr.Data;
  49                             		.loc 1 171 0
  50 003b ED 0A 04                		mov.L	16[r0], r10
  51                             	.LVL5:
 172:C:/Workspace/FW_Platform2_5/trunk/PlatformLibrary/LIB_IOManager\InputManager.c **** 	        pByte < (lowLevelInputTabPtr.Data + (lowLevelInputTabPtr.DataLenght*2));
 173:C:/Workspace/FW_Platform2_5/trunk/PlatformLibrary/LIB_IOManager\InputManager.c **** 	        pByte += LLI_TABLE_ITEM_SIZE_IN_BYTES )
 174:C:/Workspace/FW_Platform2_5/trunk/PlatformLibrary/LIB_IOManager\InputManager.c **** 	{
 175:C:/Workspace/FW_Platform2_5/trunk/PlatformLibrary/LIB_IOManager\InputManager.c **** 		/* pin (refer to Linkage M.C.U. Board) linked with Input
 176:C:/Workspace/FW_Platform2_5/trunk/PlatformLibrary/LIB_IOManager\InputManager.c **** 		pin = value inserted in Editor minus 1 */
 177:C:/Workspace/FW_Platform2_5/trunk/PlatformLibrary/LIB_IOManager\InputManager.c **** 		pin = *(pinTabPtr.Data + INPUT_PIN_TAB_OFFSET(pByte));
 178:C:/Workspace/FW_Platform2_5/trunk/PlatformLibrary/LIB_IOManager\InputManager.c **** 		if ( pin >= IO_MODULE_MAP_SIZE )
 179:C:/Workspace/FW_Platform2_5/trunk/PlatformLibrary/LIB_IOManager\InputManager.c **** 		{
 180:C:/Workspace/FW_Platform2_5/trunk/PlatformLibrary/LIB_IOManager\InputManager.c **** 			PLT_ERROR_FATAL(PLT_ERROR_INPUT_MNGR_3);
 181:C:/Workspace/FW_Platform2_5/trunk/PlatformLibrary/LIB_IOManager\InputManager.c **** 			return;  /* Serious Error */
 182:C:/Workspace/FW_Platform2_5/trunk/PlatformLibrary/LIB_IOManager\InputManager.c **** 		}
 183:C:/Workspace/FW_Platform2_5/trunk/PlatformLibrary/LIB_IOManager\InputManager.c **** 
 184:C:/Workspace/FW_Platform2_5/trunk/PlatformLibrary/LIB_IOManager\InputManager.c **** 
 185:C:/Workspace/FW_Platform2_5/trunk/PlatformLibrary/LIB_IOManager\InputManager.c **** 		/* Set the pin as input */
 186:C:/Workspace/FW_Platform2_5/trunk/PlatformLibrary/LIB_IOManager\InputManager.c **** 		err = OCDIO_SetPinDirValueSync(pin,0);
 187:C:/Workspace/FW_Platform2_5/trunk/PlatformLibrary/LIB_IOManager\InputManager.c **** 		if ( (IO_ErrorType)IO_E_UNKNOWN_MODE == err )
 188:C:/Workspace/FW_Platform2_5/trunk/PlatformLibrary/LIB_IOManager\InputManager.c **** 		{
 189:C:/Workspace/FW_Platform2_5/trunk/PlatformLibrary/LIB_IOManager\InputManager.c **** 			/* Serious Error */
 190:C:/Workspace/FW_Platform2_5/trunk/PlatformLibrary/LIB_IOManager\InputManager.c **** 			PLT_ERROR_FATAL(PLT_ERROR_INPUT_MNGR_6);
 191:C:/Workspace/FW_Platform2_5/trunk/PlatformLibrary/LIB_IOManager\InputManager.c **** 		}
 192:C:/Workspace/FW_Platform2_5/trunk/PlatformLibrary/LIB_IOManager\InputManager.c **** 		else if ( (IO_ErrorType)IO_E_INVALID_VALUE == err )
 193:C:/Workspace/FW_Platform2_5/trunk/PlatformLibrary/LIB_IOManager\InputManager.c **** 		{
 194:C:/Workspace/FW_Platform2_5/trunk/PlatformLibrary/LIB_IOManager\InputManager.c **** 			/* Serious Error */
 195:C:/Workspace/FW_Platform2_5/trunk/PlatformLibrary/LIB_IOManager\InputManager.c **** 			PLT_ERROR_FATAL(PLT_ERROR_INPUT_MNGR_7);
 196:C:/Workspace/FW_Platform2_5/trunk/PlatformLibrary/LIB_IOManager\InputManager.c **** 		}
 197:C:/Workspace/FW_Platform2_5/trunk/PlatformLibrary/LIB_IOManager\InputManager.c **** 		else
 198:C:/Workspace/FW_Platform2_5/trunk/PlatformLibrary/LIB_IOManager\InputManager.c **** 		{
 199:C:/Workspace/FW_Platform2_5/trunk/PlatformLibrary/LIB_IOManager\InputManager.c **** 			/* do nothing */
 200:C:/Workspace/FW_Platform2_5/trunk/PlatformLibrary/LIB_IOManager\InputManager.c **** 		}
 201:C:/Workspace/FW_Platform2_5/trunk/PlatformLibrary/LIB_IOManager\InputManager.c **** 		/* get pointer to low level input parameters */
 202:C:/Workspace/FW_Platform2_5/trunk/PlatformLibrary/LIB_IOManager\InputManager.c **** 		if ( 0 != BasicLoader( SF_PTR_IO_DEVICE, INPUT_TYPE_PARAMS_OFFSET(pByte), &lowLevelParametersPtr)
 203:C:/Workspace/FW_Platform2_5/trunk/PlatformLibrary/LIB_IOManager\InputManager.c **** 		{
 204:C:/Workspace/FW_Platform2_5/trunk/PlatformLibrary/LIB_IOManager\InputManager.c **** 			PLT_ERROR_FATAL(PLT_ERROR_INPUT_MNGR_4);
 205:C:/Workspace/FW_Platform2_5/trunk/PlatformLibrary/LIB_IOManager\InputManager.c **** 			return;  /* Serious Error */
 206:C:/Workspace/FW_Platform2_5/trunk/PlatformLibrary/LIB_IOManager\InputManager.c **** 		}
 207:C:/Workspace/FW_Platform2_5/trunk/PlatformLibrary/LIB_IOManager\InputManager.c **** 
 208:C:/Workspace/FW_Platform2_5/trunk/PlatformLibrary/LIB_IOManager\InputManager.c **** 
 209:C:/Workspace/FW_Platform2_5/trunk/PlatformLibrary/LIB_IOManager\InputManager.c **** 		readType = READ_TYPE(pByte);
 210:C:/Workspace/FW_Platform2_5/trunk/PlatformLibrary/LIB_IOManager\InputManager.c **** 		switch (readType)
  52                             		.loc 1 210 0
  53 003e FB 92 00 00 00 00       		mov.L	#.L15, r9
 145:C:/Workspace/FW_Platform2_5/trunk/PlatformLibrary/LIB_IOManager\InputManager.c **** void LIB_IOM_InputInitialization( uint8_t resetType )
  54                             		.loc 1 145 0
  55 0044 71 AB 03                		add	#3, r10, r11
 211:C:/Workspace/FW_Platform2_5/trunk/PlatformLibrary/LIB_IOManager\InputManager.c **** 		{
 212:C:/Workspace/FW_Platform2_5/trunk/PlatformLibrary/LIB_IOManager\InputManager.c **** 
 213:C:/Workspace/FW_Platform2_5/trunk/PlatformLibrary/LIB_IOManager\InputManager.c **** 		case I2C_I:
 214:C:/Workspace/FW_Platform2_5/trunk/PlatformLibrary/LIB_IOManager\InputManager.c **** 
 215:C:/Workspace/FW_Platform2_5/trunk/PlatformLibrary/LIB_IOManager\InputManager.c **** 			/* Nothing to do up to now ..... */
 216:C:/Workspace/FW_Platform2_5/trunk/PlatformLibrary/LIB_IOManager\InputManager.c **** 
 217:C:/Workspace/FW_Platform2_5/trunk/PlatformLibrary/LIB_IOManager\InputManager.c **** 			break;
 218:C:/Workspace/FW_Platform2_5/trunk/PlatformLibrary/LIB_IOManager\InputManager.c **** 
 219:C:/Workspace/FW_Platform2_5/trunk/PlatformLibrary/LIB_IOManager\InputManager.c **** 
 220:C:/Workspace/FW_Platform2_5/trunk/PlatformLibrary/LIB_IOManager\InputManager.c **** 		case ZEROCROSSING_I:
 221:C:/Workspace/FW_Platform2_5/trunk/PlatformLibrary/LIB_IOManager\InputManager.c **** 
 222:C:/Workspace/FW_Platform2_5/trunk/PlatformLibrary/LIB_IOManager\InputManager.c **** 			/* Nothing to do up to now ..... */
 223:C:/Workspace/FW_Platform2_5/trunk/PlatformLibrary/LIB_IOManager\InputManager.c **** 
 224:C:/Workspace/FW_Platform2_5/trunk/PlatformLibrary/LIB_IOManager\InputManager.c **** 			break;
 225:C:/Workspace/FW_Platform2_5/trunk/PlatformLibrary/LIB_IOManager\InputManager.c **** 	
 226:C:/Workspace/FW_Platform2_5/trunk/PlatformLibrary/LIB_IOManager\InputManager.c **** #ifdef __FREQFEEDBACKCHK_H
 227:C:/Workspace/FW_Platform2_5/trunk/PlatformLibrary/LIB_IOManager\InputManager.c **** 		case FREQFEEDBACK_I:
 228:C:/Workspace/FW_Platform2_5/trunk/PlatformLibrary/LIB_IOManager\InputManager.c **** 			if ( ((freqFeedbackLLIparams_t*)lowLevelParametersPtr.Data)->bit.pullUp )
 229:C:/Workspace/FW_Platform2_5/trunk/PlatformLibrary/LIB_IOManager\InputManager.c **** 			{
 230:C:/Workspace/FW_Platform2_5/trunk/PlatformLibrary/LIB_IOManager\InputManager.c **** 				(void)OCDIO_SetPinPullUpSync(pin);
 231:C:/Workspace/FW_Platform2_5/trunk/PlatformLibrary/LIB_IOManager\InputManager.c **** 			}
 232:C:/Workspace/FW_Platform2_5/trunk/PlatformLibrary/LIB_IOManager\InputManager.c **** 			activeSense = ((((freqFeedbackLLIparams_t*)lowLevelParametersPtr.Data)->bit.inverted)?1:0);
 233:C:/Workspace/FW_Platform2_5/trunk/PlatformLibrary/LIB_IOManager\InputManager.c **** 			LIB_IOM_Set_IODir_ActiveSense(activeSense,pin);
 234:C:/Workspace/FW_Platform2_5/trunk/PlatformLibrary/LIB_IOManager\InputManager.c **** 			FFC_Enable(pin,(*lowLevelParametersPtr.Data & 0x7F), INPUT_RESULT_POS(pByte),30);
 235:C:/Workspace/FW_Platform2_5/trunk/PlatformLibrary/LIB_IOManager\InputManager.c **** 
 236:C:/Workspace/FW_Platform2_5/trunk/PlatformLibrary/LIB_IOManager\InputManager.c **** 			break;
 237:C:/Workspace/FW_Platform2_5/trunk/PlatformLibrary/LIB_IOManager\InputManager.c **** #elif defined(CONFIG_PM_FREQUENCY_FEEDBACKS_SUPPORT)
 238:C:/Workspace/FW_Platform2_5/trunk/PlatformLibrary/LIB_IOManager\InputManager.c **** 		case FREQFEEDBACK_I:
 239:C:/Workspace/FW_Platform2_5/trunk/PlatformLibrary/LIB_IOManager\InputManager.c **** 
 240:C:/Workspace/FW_Platform2_5/trunk/PlatformLibrary/LIB_IOManager\InputManager.c **** 			if( IO_E_OK != PM_FrequencyFeedbacks_Configure(pin,(freqFeedbackLLIparams_t*)((void*)lowLevelPar
 241:C:/Workspace/FW_Platform2_5/trunk/PlatformLibrary/LIB_IOManager\InputManager.c **** 				PLT_ERROR_FATAL(PLT_ERROR_INPUT_MNGR_8);
 242:C:/Workspace/FW_Platform2_5/trunk/PlatformLibrary/LIB_IOManager\InputManager.c **** 			}
 243:C:/Workspace/FW_Platform2_5/trunk/PlatformLibrary/LIB_IOManager\InputManager.c **** 
 244:C:/Workspace/FW_Platform2_5/trunk/PlatformLibrary/LIB_IOManager\InputManager.c **** 			break;
 245:C:/Workspace/FW_Platform2_5/trunk/PlatformLibrary/LIB_IOManager\InputManager.c **** #endif /*CONFIG_PM_FREQUENCY_FEEDBACKS_SUPPORT */
 246:C:/Workspace/FW_Platform2_5/trunk/PlatformLibrary/LIB_IOManager\InputManager.c **** 
 247:C:/Workspace/FW_Platform2_5/trunk/PlatformLibrary/LIB_IOManager\InputManager.c **** #if defined(CONFIG_PM_MOTORGATE) /* ex __TACHIMETRICA_H */
 248:C:/Workspace/FW_Platform2_5/trunk/PlatformLibrary/LIB_IOManager\InputManager.c **** 		case TACHO_I:
 249:C:/Workspace/FW_Platform2_5/trunk/PlatformLibrary/LIB_IOManager\InputManager.c **** 			if ( ((tachoLLIparams_t*)lowLevelParametersPtr.Data)->bit.pullUp)
 250:C:/Workspace/FW_Platform2_5/trunk/PlatformLibrary/LIB_IOManager\InputManager.c **** 			{
 251:C:/Workspace/FW_Platform2_5/trunk/PlatformLibrary/LIB_IOManager\InputManager.c **** 				(void)OCDIO_SetPinPullUpSync(pin);
 252:C:/Workspace/FW_Platform2_5/trunk/PlatformLibrary/LIB_IOManager\InputManager.c **** 			}
 253:C:/Workspace/FW_Platform2_5/trunk/PlatformLibrary/LIB_IOManager\InputManager.c **** 			LIB_IOM_Set_IODir_ActiveSense(0,pin);
 254:C:/Workspace/FW_Platform2_5/trunk/PlatformLibrary/LIB_IOManager\InputManager.c **** 
 255:C:/Workspace/FW_Platform2_5/trunk/PlatformLibrary/LIB_IOManager\InputManager.c **** 			PM_UM_Tacho_Init(pin);
 256:C:/Workspace/FW_Platform2_5/trunk/PlatformLibrary/LIB_IOManager\InputManager.c **** 
 257:C:/Workspace/FW_Platform2_5/trunk/PlatformLibrary/LIB_IOManager\InputManager.c **** 			break;
 258:C:/Workspace/FW_Platform2_5/trunk/PlatformLibrary/LIB_IOManager\InputManager.c **** #endif /*defined(CONFIG_PM_MOTORGATE) ex __TACHIMETRICA_H */
 259:C:/Workspace/FW_Platform2_5/trunk/PlatformLibrary/LIB_IOManager\InputManager.c **** 
 260:C:/Workspace/FW_Platform2_5/trunk/PlatformLibrary/LIB_IOManager\InputManager.c **** /* Linear Pressure Sensor on Plaform 1 */
 261:C:/Workspace/FW_Platform2_5/trunk/PlatformLibrary/LIB_IOManager\InputManager.c **** #ifdef __PRESSOSTATOLINEARE_H
 262:C:/Workspace/FW_Platform2_5/trunk/PlatformLibrary/LIB_IOManager\InputManager.c **** 		case PRESSLIN_I:
 263:C:/Workspace/FW_Platform2_5/trunk/PlatformLibrary/LIB_IOManager\InputManager.c **** 			if ( ((linearPressureSensLLIparams_t*)lowLevelParametersPtr.Data)->bit.pullUp )
 264:C:/Workspace/FW_Platform2_5/trunk/PlatformLibrary/LIB_IOManager\InputManager.c **** 			{
 265:C:/Workspace/FW_Platform2_5/trunk/PlatformLibrary/LIB_IOManager\InputManager.c **** 				(void)OCDIO_SetPinPullUpSync(pin);
 266:C:/Workspace/FW_Platform2_5/trunk/PlatformLibrary/LIB_IOManager\InputManager.c **** 			}
 267:C:/Workspace/FW_Platform2_5/trunk/PlatformLibrary/LIB_IOManager\InputManager.c **** 
 268:C:/Workspace/FW_Platform2_5/trunk/PlatformLibrary/LIB_IOManager\InputManager.c **** 			LIB_IOM_Set_IODir_ActiveSense(0,pin);
 269:C:/Workspace/FW_Platform2_5/trunk/PlatformLibrary/LIB_IOManager\InputManager.c **** 
 270:C:/Workspace/FW_Platform2_5/trunk/PlatformLibrary/LIB_IOManager\InputManager.c **** 			PSL_Init(pin,*(lowLevelParametersPtr.Data+2));
 271:C:/Workspace/FW_Platform2_5/trunk/PlatformLibrary/LIB_IOManager\InputManager.c **** 			PSL_Enable(lowLevelParametersPtr.Data,1);
 272:C:/Workspace/FW_Platform2_5/trunk/PlatformLibrary/LIB_IOManager\InputManager.c **** 
 273:C:/Workspace/FW_Platform2_5/trunk/PlatformLibrary/LIB_IOManager\InputManager.c **** 			break;
 274:C:/Workspace/FW_Platform2_5/trunk/PlatformLibrary/LIB_IOManager\InputManager.c **** #elif defined(CONFIG_PM_LINEARPRESSURE_SENSOR)
 275:C:/Workspace/FW_Platform2_5/trunk/PlatformLibrary/LIB_IOManager\InputManager.c **** 		case PRESSLIN_I:
 276:C:/Workspace/FW_Platform2_5/trunk/PlatformLibrary/LIB_IOManager\InputManager.c **** 			if ( ((linearPressureSensLLIparams_t*)((void*)lowLevelParametersPtr.Data))->bit.pullUp )
 277:C:/Workspace/FW_Platform2_5/trunk/PlatformLibrary/LIB_IOManager\InputManager.c **** 			{
 278:C:/Workspace/FW_Platform2_5/trunk/PlatformLibrary/LIB_IOManager\InputManager.c **** 				(void)OCDIO_SetPinPullUpSync(pin);
 279:C:/Workspace/FW_Platform2_5/trunk/PlatformLibrary/LIB_IOManager\InputManager.c **** 			}
 280:C:/Workspace/FW_Platform2_5/trunk/PlatformLibrary/LIB_IOManager\InputManager.c **** 
 281:C:/Workspace/FW_Platform2_5/trunk/PlatformLibrary/LIB_IOManager\InputManager.c **** 			LIB_IOM_Set_IODir_ActiveSense(0,pin);
 282:C:/Workspace/FW_Platform2_5/trunk/PlatformLibrary/LIB_IOManager\InputManager.c **** 
 283:C:/Workspace/FW_Platform2_5/trunk/PlatformLibrary/LIB_IOManager\InputManager.c **** 			PM_LPS_Init(pin, lowLevelParametersPtr.Data);
 284:C:/Workspace/FW_Platform2_5/trunk/PlatformLibrary/LIB_IOManager\InputManager.c **** 			break;
 285:C:/Workspace/FW_Platform2_5/trunk/PlatformLibrary/LIB_IOManager\InputManager.c **** #endif /*CONFIG_PM_LINEARPRESSURESENSOR */
 286:C:/Workspace/FW_Platform2_5/trunk/PlatformLibrary/LIB_IOManager\InputManager.c **** 
 287:C:/Workspace/FW_Platform2_5/trunk/PlatformLibrary/LIB_IOManager\InputManager.c **** #ifdef __PULSECOUNTER_H
 288:C:/Workspace/FW_Platform2_5/trunk/PlatformLibrary/LIB_IOManager\InputManager.c **** 		case PULSECNTR_I:
 289:C:/Workspace/FW_Platform2_5/trunk/PlatformLibrary/LIB_IOManager\InputManager.c **** 			if ( ((pulseCounterLLIparams_t*)lowLevelParametersPtr.Data)->bit.pullUp )
 290:C:/Workspace/FW_Platform2_5/trunk/PlatformLibrary/LIB_IOManager\InputManager.c **** 			{
 291:C:/Workspace/FW_Platform2_5/trunk/PlatformLibrary/LIB_IOManager\InputManager.c **** 				(void)OCDIO_SetPinPullUpSync(pin);
 292:C:/Workspace/FW_Platform2_5/trunk/PlatformLibrary/LIB_IOManager\InputManager.c **** 			}
 293:C:/Workspace/FW_Platform2_5/trunk/PlatformLibrary/LIB_IOManager\InputManager.c **** 			LIB_IOM_Set_IODir_ActiveSense(0,pin);
 294:C:/Workspace/FW_Platform2_5/trunk/PlatformLibrary/LIB_IOManager\InputManager.c **** 			(void)PulseCounter_Init(pin,lowLevelParametersPtr.Data);
 295:C:/Workspace/FW_Platform2_5/trunk/PlatformLibrary/LIB_IOManager\InputManager.c **** 			(void)PulseCounter_SetState ( PULSECOUNTER_ENABLE );
 296:C:/Workspace/FW_Platform2_5/trunk/PlatformLibrary/LIB_IOManager\InputManager.c **** 			break;
 297:C:/Workspace/FW_Platform2_5/trunk/PlatformLibrary/LIB_IOManager\InputManager.c **** #endif /* __PULSECOUNTER_H */
 298:C:/Workspace/FW_Platform2_5/trunk/PlatformLibrary/LIB_IOManager\InputManager.c **** 
 299:C:/Workspace/FW_Platform2_5/trunk/PlatformLibrary/LIB_IOManager\InputManager.c **** 		case ANALOG_I:
 300:C:/Workspace/FW_Platform2_5/trunk/PlatformLibrary/LIB_IOManager\InputManager.c **** #ifdef __TURBIDITY_SENSOR_H
 301:C:/Workspace/FW_Platform2_5/trunk/PlatformLibrary/LIB_IOManager\InputManager.c **** 		case TURBIDITY_I:
 302:C:/Workspace/FW_Platform2_5/trunk/PlatformLibrary/LIB_IOManager\InputManager.c **** #endif
 303:C:/Workspace/FW_Platform2_5/trunk/PlatformLibrary/LIB_IOManager\InputManager.c **** #ifdef CONFIG_PM_ANALOG_FEEDBACKS_SUPPORT
 304:C:/Workspace/FW_Platform2_5/trunk/PlatformLibrary/LIB_IOManager\InputManager.c **** 		case ANALOGFEEDBACK_I:
 305:C:/Workspace/FW_Platform2_5/trunk/PlatformLibrary/LIB_IOManager\InputManager.c **** #endif /* CONFIG_PM_ANALOG_FEEDBACKS_SUPPORT */
 306:C:/Workspace/FW_Platform2_5/trunk/PlatformLibrary/LIB_IOManager\InputManager.c **** 
 307:C:/Workspace/FW_Platform2_5/trunk/PlatformLibrary/LIB_IOManager\InputManager.c **** 			/* fixed the linkage's pin return the AD channel linked with that pin */
 308:C:/Workspace/FW_Platform2_5/trunk/PlatformLibrary/LIB_IOManager\InputManager.c **** 
 309:C:/Workspace/FW_Platform2_5/trunk/PlatformLibrary/LIB_IOManager\InputManager.c **** 			if ( OCADC_GetADchannelSync(&ModuleIOmap[pin],&channelAD) != (IO_ErrorType)IO_E_OK )
 310:C:/Workspace/FW_Platform2_5/trunk/PlatformLibrary/LIB_IOManager\InputManager.c **** 			{
 311:C:/Workspace/FW_Platform2_5/trunk/PlatformLibrary/LIB_IOManager\InputManager.c **** 				PLT_ERROR_FATAL(PLT_ERROR_INPUT_MNGR_5);
 312:C:/Workspace/FW_Platform2_5/trunk/PlatformLibrary/LIB_IOManager\InputManager.c **** 				return; /* Serious Error !*/
 313:C:/Workspace/FW_Platform2_5/trunk/PlatformLibrary/LIB_IOManager\InputManager.c **** 			}
 314:C:/Workspace/FW_Platform2_5/trunk/PlatformLibrary/LIB_IOManager\InputManager.c **** 
 315:C:/Workspace/FW_Platform2_5/trunk/PlatformLibrary/LIB_IOManager\InputManager.c **** 			/* Function Parameters: Param 1: channelAD -> A/D channel
 316:C:/Workspace/FW_Platform2_5/trunk/PlatformLibrary/LIB_IOManager\InputManager.c **** 								    Param 2: Ram Position Conversion Result
 317:C:/Workspace/FW_Platform2_5/trunk/PlatformLibrary/LIB_IOManager\InputManager.c **** 								    Param 3: lowLevelParametersPtr.Data -> pointer to Setting File Params
 318:C:/Workspace/FW_Platform2_5/trunk/PlatformLibrary/LIB_IOManager\InputManager.c **** 			*/
 319:C:/Workspace/FW_Platform2_5/trunk/PlatformLibrary/LIB_IOManager\InputManager.c **** 
 320:C:/Workspace/FW_Platform2_5/trunk/PlatformLibrary/LIB_IOManager\InputManager.c **** 			LIB_ADC_RegisterADchannel( channelAD, INPUT_RESULT_POS(pByte), lowLevelParametersPtr.Data );
 321:C:/Workspace/FW_Platform2_5/trunk/PlatformLibrary/LIB_IOManager\InputManager.c **** 
 322:C:/Workspace/FW_Platform2_5/trunk/PlatformLibrary/LIB_IOManager\InputManager.c **** #ifdef __TURBIDITY_SENSOR_H
 323:C:/Workspace/FW_Platform2_5/trunk/PlatformLibrary/LIB_IOManager\InputManager.c **** 
 324:C:/Workspace/FW_Platform2_5/trunk/PlatformLibrary/LIB_IOManager\InputManager.c **** 			if ( readType == TURBIDITY_I )
 325:C:/Workspace/FW_Platform2_5/trunk/PlatformLibrary/LIB_IOManager\InputManager.c **** 			{
 326:C:/Workspace/FW_Platform2_5/trunk/PlatformLibrary/LIB_IOManager\InputManager.c **** 				uint8_t pinPWMCh = *(pinTabPtr.Data + INPUT_PIN_TAB_OFFSET(pByte) + 1 );
 327:C:/Workspace/FW_Platform2_5/trunk/PlatformLibrary/LIB_IOManager\InputManager.c **** 				(void)TurbiditySensor_Init( channelAD, pinPWMCh, lowLevelParametersPtr.Data );
 328:C:/Workspace/FW_Platform2_5/trunk/PlatformLibrary/LIB_IOManager\InputManager.c **** 			}
 329:C:/Workspace/FW_Platform2_5/trunk/PlatformLibrary/LIB_IOManager\InputManager.c **** 
 330:C:/Workspace/FW_Platform2_5/trunk/PlatformLibrary/LIB_IOManager\InputManager.c **** #endif /* __TURBIDITY_SENSOR_H */
 331:C:/Workspace/FW_Platform2_5/trunk/PlatformLibrary/LIB_IOManager\InputManager.c **** 
 332:C:/Workspace/FW_Platform2_5/trunk/PlatformLibrary/LIB_IOManager\InputManager.c **** #ifdef CONFIG_PM_ANALOG_FEEDBACKS_SUPPORT
 333:C:/Workspace/FW_Platform2_5/trunk/PlatformLibrary/LIB_IOManager\InputManager.c **** 
 334:C:/Workspace/FW_Platform2_5/trunk/PlatformLibrary/LIB_IOManager\InputManager.c **** 			if ( readType == ANALOGFEEDBACK_I )
 335:C:/Workspace/FW_Platform2_5/trunk/PlatformLibrary/LIB_IOManager\InputManager.c **** 			{
 336:C:/Workspace/FW_Platform2_5/trunk/PlatformLibrary/LIB_IOManager\InputManager.c **** #if defined (PLATFORM2_SUPPORT) && ( defined(DR_DRYER) || defined (DW_DEA700) || defined(WILD_CARD)
 337:C:/Workspace/FW_Platform2_5/trunk/PlatformLibrary/LIB_IOManager\InputManager.c **** 				(void)PM_AnalogFeedback_Setup( channelAD, lowLevelParametersPtr.Data );
 338:C:/Workspace/FW_Platform2_5/trunk/PlatformLibrary/LIB_IOManager\InputManager.c **** #else
 339:C:/Workspace/FW_Platform2_5/trunk/PlatformLibrary/LIB_IOManager\InputManager.c **** 				(void)AnalogFeedback_Setup( channelAD, lowLevelParametersPtr.Data );
 340:C:/Workspace/FW_Platform2_5/trunk/PlatformLibrary/LIB_IOManager\InputManager.c **** #endif
 341:C:/Workspace/FW_Platform2_5/trunk/PlatformLibrary/LIB_IOManager\InputManager.c **** 			}
 342:C:/Workspace/FW_Platform2_5/trunk/PlatformLibrary/LIB_IOManager\InputManager.c **** 
 343:C:/Workspace/FW_Platform2_5/trunk/PlatformLibrary/LIB_IOManager\InputManager.c **** #endif /* CONFIG_PM_ANALOG_FEEDBACKS_SUPPORT */
 344:C:/Workspace/FW_Platform2_5/trunk/PlatformLibrary/LIB_IOManager\InputManager.c **** 
 345:C:/Workspace/FW_Platform2_5/trunk/PlatformLibrary/LIB_IOManager\InputManager.c **** 			break;
 346:C:/Workspace/FW_Platform2_5/trunk/PlatformLibrary/LIB_IOManager\InputManager.c **** 
 347:C:/Workspace/FW_Platform2_5/trunk/PlatformLibrary/LIB_IOManager\InputManager.c **** #ifdef __TIME_COUNTER_H
 348:C:/Workspace/FW_Platform2_5/trunk/PlatformLibrary/LIB_IOManager\InputManager.c **** 		case TIME_I:
 349:C:/Workspace/FW_Platform2_5/trunk/PlatformLibrary/LIB_IOManager\InputManager.c **** 			/* If not to add to TimeInputs[] Array */
 350:C:/Workspace/FW_Platform2_5/trunk/PlatformLibrary/LIB_IOManager\InputManager.c **** 			if( !(((timeLLIparams_t *)lowLevelParametersPtr.Data) -> bit.automatic) )
 351:C:/Workspace/FW_Platform2_5/trunk/PlatformLibrary/LIB_IOManager\InputManager.c **** 			{
 352:C:/Workspace/FW_Platform2_5/trunk/PlatformLibrary/LIB_IOManager\InputManager.c **** 				break;
 353:C:/Workspace/FW_Platform2_5/trunk/PlatformLibrary/LIB_IOManager\InputManager.c **** 			}
 354:C:/Workspace/FW_Platform2_5/trunk/PlatformLibrary/LIB_IOManager\InputManager.c **** 
 355:C:/Workspace/FW_Platform2_5/trunk/PlatformLibrary/LIB_IOManager\InputManager.c **** 			if (resetType)
 356:C:/Workspace/FW_Platform2_5/trunk/PlatformLibrary/LIB_IOManager\InputManager.c **** 			{
 357:C:/Workspace/FW_Platform2_5/trunk/PlatformLibrary/LIB_IOManager\InputManager.c **** 				/*                     POS                  NSAMPLES                          DELTA            
 358:C:/Workspace/FW_Platform2_5/trunk/PlatformLibrary/LIB_IOManager\InputManager.c **** 				if (InsertTimeInput( INPUT_RESULT_POS(pByte),(*lowLevelParametersPtr.Data & 0x7F),(*(lowLevelPa
 359:C:/Workspace/FW_Platform2_5/trunk/PlatformLibrary/LIB_IOManager\InputManager.c **** 				{
 360:C:/Workspace/FW_Platform2_5/trunk/PlatformLibrary/LIB_IOManager\InputManager.c **** 					/* errore !!! */
 361:C:/Workspace/FW_Platform2_5/trunk/PlatformLibrary/LIB_IOManager\InputManager.c **** 				}
 362:C:/Workspace/FW_Platform2_5/trunk/PlatformLibrary/LIB_IOManager\InputManager.c **** 			}
 363:C:/Workspace/FW_Platform2_5/trunk/PlatformLibrary/LIB_IOManager\InputManager.c **** 
 364:C:/Workspace/FW_Platform2_5/trunk/PlatformLibrary/LIB_IOManager\InputManager.c **** 			break;
 365:C:/Workspace/FW_Platform2_5/trunk/PlatformLibrary/LIB_IOManager\InputManager.c **** 
 366:C:/Workspace/FW_Platform2_5/trunk/PlatformLibrary/LIB_IOManager\InputManager.c **** 
 367:C:/Workspace/FW_Platform2_5/trunk/PlatformLibrary/LIB_IOManager\InputManager.c **** 
 368:C:/Workspace/FW_Platform2_5/trunk/PlatformLibrary/LIB_IOManager\InputManager.c **** 		case TIMEMULT_I:
 369:C:/Workspace/FW_Platform2_5/trunk/PlatformLibrary/LIB_IOManager\InputManager.c **** 			/* If not to add to TimeInputs[] Array */
 370:C:/Workspace/FW_Platform2_5/trunk/PlatformLibrary/LIB_IOManager\InputManager.c **** 			if( !(((timeMpxLLIparams_t *)lowLevelParametersPtr.Data) -> bit.automatic) )
 371:C:/Workspace/FW_Platform2_5/trunk/PlatformLibrary/LIB_IOManager\InputManager.c **** 			{
 372:C:/Workspace/FW_Platform2_5/trunk/PlatformLibrary/LIB_IOManager\InputManager.c **** 				break;
 373:C:/Workspace/FW_Platform2_5/trunk/PlatformLibrary/LIB_IOManager\InputManager.c **** 			}
 374:C:/Workspace/FW_Platform2_5/trunk/PlatformLibrary/LIB_IOManager\InputManager.c **** 			if (resetType)
 375:C:/Workspace/FW_Platform2_5/trunk/PlatformLibrary/LIB_IOManager\InputManager.c **** 			{
 376:C:/Workspace/FW_Platform2_5/trunk/PlatformLibrary/LIB_IOManager\InputManager.c **** 				/* POS       NSAMPLES              DELTA                        MULCONF     ENABLED  READTYPE	 
 377:C:/Workspace/FW_Platform2_5/trunk/PlatformLibrary/LIB_IOManager\InputManager.c **** 				if (InsertTimeInput( INPUT_RESULT_POS(pByte),(*lowLevelParametersPtr.Data & 0x7F),(*(lowLevelPa
 378:C:/Workspace/FW_Platform2_5/trunk/PlatformLibrary/LIB_IOManager\InputManager.c **** 				{
 379:C:/Workspace/FW_Platform2_5/trunk/PlatformLibrary/LIB_IOManager\InputManager.c **** 
 380:C:/Workspace/FW_Platform2_5/trunk/PlatformLibrary/LIB_IOManager\InputManager.c **** 					/* errore !!! */
 381:C:/Workspace/FW_Platform2_5/trunk/PlatformLibrary/LIB_IOManager\InputManager.c **** 				}
 382:C:/Workspace/FW_Platform2_5/trunk/PlatformLibrary/LIB_IOManager\InputManager.c **** 			}
 383:C:/Workspace/FW_Platform2_5/trunk/PlatformLibrary/LIB_IOManager\InputManager.c **** 			/* per il TIME semplice togliere il selettore mulsel */
 384:C:/Workspace/FW_Platform2_5/trunk/PlatformLibrary/LIB_IOManager\InputManager.c **** 			break;
 385:C:/Workspace/FW_Platform2_5/trunk/PlatformLibrary/LIB_IOManager\InputManager.c **** 
 386:C:/Workspace/FW_Platform2_5/trunk/PlatformLibrary/LIB_IOManager\InputManager.c **** #endif /*__TIME_COUNTER_H */
 387:C:/Workspace/FW_Platform2_5/trunk/PlatformLibrary/LIB_IOManager\InputManager.c **** 
 388:C:/Workspace/FW_Platform2_5/trunk/PlatformLibrary/LIB_IOManager\InputManager.c **** #ifdef __PUSH_H
 389:C:/Workspace/FW_Platform2_5/trunk/PlatformLibrary/LIB_IOManager\InputManager.c **** 
 390:C:/Workspace/FW_Platform2_5/trunk/PlatformLibrary/LIB_IOManager\InputManager.c **** 		case KEY_I:
 391:C:/Workspace/FW_Platform2_5/trunk/PlatformLibrary/LIB_IOManager\InputManager.c **** 
 392:C:/Workspace/FW_Platform2_5/trunk/PlatformLibrary/LIB_IOManager\InputManager.c **** 			/* No pullup */
 393:C:/Workspace/FW_Platform2_5/trunk/PlatformLibrary/LIB_IOManager\InputManager.c **** 			activeSense = ((((keyLLIparams_t*)lowLevelParametersPtr.Data)->bit.inverted)?1:0);
 394:C:/Workspace/FW_Platform2_5/trunk/PlatformLibrary/LIB_IOManager\InputManager.c **** 			LIB_IOM_Set_IODir_ActiveSense(activeSense,pin);
 395:C:/Workspace/FW_Platform2_5/trunk/PlatformLibrary/LIB_IOManager\InputManager.c **** 
 396:C:/Workspace/FW_Platform2_5/trunk/PlatformLibrary/LIB_IOManager\InputManager.c **** 			if (PUSH_InsertDigInput( INPUT_RESULT_POS(pByte), pin, 0, 0, (*lowLevelParametersPtr.Data & 0x7F
 397:C:/Workspace/FW_Platform2_5/trunk/PlatformLibrary/LIB_IOManager\InputManager.c **** 			{
 398:C:/Workspace/FW_Platform2_5/trunk/PlatformLibrary/LIB_IOManager\InputManager.c **** 				/* errore !!! */
 399:C:/Workspace/FW_Platform2_5/trunk/PlatformLibrary/LIB_IOManager\InputManager.c **** 			}
 400:C:/Workspace/FW_Platform2_5/trunk/PlatformLibrary/LIB_IOManager\InputManager.c **** 
 401:C:/Workspace/FW_Platform2_5/trunk/PlatformLibrary/LIB_IOManager\InputManager.c **** 			break;
 402:C:/Workspace/FW_Platform2_5/trunk/PlatformLibrary/LIB_IOManager\InputManager.c **** 
 403:C:/Workspace/FW_Platform2_5/trunk/PlatformLibrary/LIB_IOManager\InputManager.c **** #endif /* __PUSH_H */
 404:C:/Workspace/FW_Platform2_5/trunk/PlatformLibrary/LIB_IOManager\InputManager.c **** 
 405:C:/Workspace/FW_Platform2_5/trunk/PlatformLibrary/LIB_IOManager\InputManager.c **** 		case DIGITAL_I:
 406:C:/Workspace/FW_Platform2_5/trunk/PlatformLibrary/LIB_IOManager\InputManager.c **** 
 407:C:/Workspace/FW_Platform2_5/trunk/PlatformLibrary/LIB_IOManager\InputManager.c **** 			if ( ((digitalLLIparams_t*)((void*)lowLevelParametersPtr.Data))->bit.pullUp )
 408:C:/Workspace/FW_Platform2_5/trunk/PlatformLibrary/LIB_IOManager\InputManager.c **** 			{
 409:C:/Workspace/FW_Platform2_5/trunk/PlatformLibrary/LIB_IOManager\InputManager.c **** 				(void)OCDIO_SetPinPullUpSync(pin);
 410:C:/Workspace/FW_Platform2_5/trunk/PlatformLibrary/LIB_IOManager\InputManager.c **** 			}
 411:C:/Workspace/FW_Platform2_5/trunk/PlatformLibrary/LIB_IOManager\InputManager.c **** 			activeSense = (uint8_t) ((((digitalLLIparams_t*)((void*)lowLevelParametersPtr.Data))->bit.invert
 412:C:/Workspace/FW_Platform2_5/trunk/PlatformLibrary/LIB_IOManager\InputManager.c **** 			LIB_IOM_Set_IODir_ActiveSense(activeSense,pin);
 413:C:/Workspace/FW_Platform2_5/trunk/PlatformLibrary/LIB_IOManager\InputManager.c **** 
 414:C:/Workspace/FW_Platform2_5/trunk/PlatformLibrary/LIB_IOManager\InputManager.c **** 
 415:C:/Workspace/FW_Platform2_5/trunk/PlatformLibrary/LIB_IOManager\InputManager.c **** 			if (resetType)		/* if reset is cold */
 416:C:/Workspace/FW_Platform2_5/trunk/PlatformLibrary/LIB_IOManager\InputManager.c **** 			{
 417:C:/Workspace/FW_Platform2_5/trunk/PlatformLibrary/LIB_IOManager\InputManager.c **** 				/* param 1: Ram Position Conversion's Result */
 418:C:/Workspace/FW_Platform2_5/trunk/PlatformLibrary/LIB_IOManager\InputManager.c **** 				/* param 2: pin -> pin linkage module M.C.U. - 1 */
 419:C:/Workspace/FW_Platform2_5/trunk/PlatformLibrary/LIB_IOManager\InputManager.c **** 				/* param 3: multiplexed or not multiplexed input */
 420:C:/Workspace/FW_Platform2_5/trunk/PlatformLibrary/LIB_IOManager\InputManager.c **** 				/* param 4: pointer to config. params  */
 421:C:/Workspace/FW_Platform2_5/trunk/PlatformLibrary/LIB_IOManager\InputManager.c **** 
 422:C:/Workspace/FW_Platform2_5/trunk/PlatformLibrary/LIB_IOManager\InputManager.c **** 				LIB_DIO_InsertDigInput( INPUT_RESULT_POS(pByte), pin, NO_MPX_INPUT, lowLevelParametersPtr.Data)
 423:C:/Workspace/FW_Platform2_5/trunk/PlatformLibrary/LIB_IOManager\InputManager.c **** 
 424:C:/Workspace/FW_Platform2_5/trunk/PlatformLibrary/LIB_IOManager\InputManager.c **** 			}
 425:C:/Workspace/FW_Platform2_5/trunk/PlatformLibrary/LIB_IOManager\InputManager.c **** 
 426:C:/Workspace/FW_Platform2_5/trunk/PlatformLibrary/LIB_IOManager\InputManager.c **** 			break;
 427:C:/Workspace/FW_Platform2_5/trunk/PlatformLibrary/LIB_IOManager\InputManager.c **** #if defined( __CONDUCTIVITY_SENSOR_H_ )
 428:C:/Workspace/FW_Platform2_5/trunk/PlatformLibrary/LIB_IOManager\InputManager.c **** 
 429:C:/Workspace/FW_Platform2_5/trunk/PlatformLibrary/LIB_IOManager\InputManager.c **** 		case CONDUCTIVITYSENSOR_I:
 430:C:/Workspace/FW_Platform2_5/trunk/PlatformLibrary/LIB_IOManager\InputManager.c **** 			/*longfill conductivity sensor and conductivity sensor*/
 431:C:/Workspace/FW_Platform2_5/trunk/PlatformLibrary/LIB_IOManager\InputManager.c **** 			if ( ((conductivitySensorLLI_t*)lowLevelParametersPtr.Data)->bit.pullUp)
 432:C:/Workspace/FW_Platform2_5/trunk/PlatformLibrary/LIB_IOManager\InputManager.c **** 			{
 433:C:/Workspace/FW_Platform2_5/trunk/PlatformLibrary/LIB_IOManager\InputManager.c **** 				(void)OCDIO_SetPinPullUpSync(pin);
 434:C:/Workspace/FW_Platform2_5/trunk/PlatformLibrary/LIB_IOManager\InputManager.c **** 			}
 435:C:/Workspace/FW_Platform2_5/trunk/PlatformLibrary/LIB_IOManager\InputManager.c **** 
 436:C:/Workspace/FW_Platform2_5/trunk/PlatformLibrary/LIB_IOManager\InputManager.c **** 			activeSense = ((((conductivitySensorLLI_t*)lowLevelParametersPtr.Data)->bit.inverted)?1:0);
 437:C:/Workspace/FW_Platform2_5/trunk/PlatformLibrary/LIB_IOManager\InputManager.c **** 
 438:C:/Workspace/FW_Platform2_5/trunk/PlatformLibrary/LIB_IOManager\InputManager.c **** 			LIB_IOM_Set_IODir_ActiveSense(activeSense,pin);
 439:C:/Workspace/FW_Platform2_5/trunk/PlatformLibrary/LIB_IOManager\InputManager.c **** 			/*Tout, Tmin, Tmax non used*/
 440:C:/Workspace/FW_Platform2_5/trunk/PlatformLibrary/LIB_IOManager\InputManager.c **** 			CSN_Init(pin,  *(lowLevelParametersPtr.Data+9), *(lowLevelParametersPtr.Data+8), *(lowLevelParam
 441:C:/Workspace/FW_Platform2_5/trunk/PlatformLibrary/LIB_IOManager\InputManager.c **** 
 442:C:/Workspace/FW_Platform2_5/trunk/PlatformLibrary/LIB_IOManager\InputManager.c **** 			break;
 443:C:/Workspace/FW_Platform2_5/trunk/PlatformLibrary/LIB_IOManager\InputManager.c **** 
 444:C:/Workspace/FW_Platform2_5/trunk/PlatformLibrary/LIB_IOManager\InputManager.c **** #elif defined( CONFIG_PM_CONDUCTIVITY_SENSOR )
 445:C:/Workspace/FW_Platform2_5/trunk/PlatformLibrary/LIB_IOManager\InputManager.c **** 
 446:C:/Workspace/FW_Platform2_5/trunk/PlatformLibrary/LIB_IOManager\InputManager.c **** 		case CONDUCTIVITYSENSOR_I:
 447:C:/Workspace/FW_Platform2_5/trunk/PlatformLibrary/LIB_IOManager\InputManager.c **** 			/*longfill conductivity sensor and conductivity sensor*/
 448:C:/Workspace/FW_Platform2_5/trunk/PlatformLibrary/LIB_IOManager\InputManager.c **** 			if ( ((conductivitySensorLLI_t*)lowLevelParametersPtr.Data)->bit.pullUp)
 449:C:/Workspace/FW_Platform2_5/trunk/PlatformLibrary/LIB_IOManager\InputManager.c **** 			{
 450:C:/Workspace/FW_Platform2_5/trunk/PlatformLibrary/LIB_IOManager\InputManager.c **** 				(void)OCDIO_SetPinPullUpSync(pin);
 451:C:/Workspace/FW_Platform2_5/trunk/PlatformLibrary/LIB_IOManager\InputManager.c **** 			}
 452:C:/Workspace/FW_Platform2_5/trunk/PlatformLibrary/LIB_IOManager\InputManager.c **** 
 453:C:/Workspace/FW_Platform2_5/trunk/PlatformLibrary/LIB_IOManager\InputManager.c **** 			activeSense = ((((conductivitySensorLLI_t*)lowLevelParametersPtr.Data)->bit.inverted)?1:0);
 454:C:/Workspace/FW_Platform2_5/trunk/PlatformLibrary/LIB_IOManager\InputManager.c **** 
 455:C:/Workspace/FW_Platform2_5/trunk/PlatformLibrary/LIB_IOManager\InputManager.c **** 			LIB_IOM_Set_IODir_ActiveSense(activeSense,pin);
 456:C:/Workspace/FW_Platform2_5/trunk/PlatformLibrary/LIB_IOManager\InputManager.c **** 			/*Tout, Tmin, Tmax non used*/		
 457:C:/Workspace/FW_Platform2_5/trunk/PlatformLibrary/LIB_IOManager\InputManager.c **** 			PM_CSN_Init(pin,  lowLevelParametersPtr.Data );
 458:C:/Workspace/FW_Platform2_5/trunk/PlatformLibrary/LIB_IOManager\InputManager.c **** 
 459:C:/Workspace/FW_Platform2_5/trunk/PlatformLibrary/LIB_IOManager\InputManager.c **** 			break;
 460:C:/Workspace/FW_Platform2_5/trunk/PlatformLibrary/LIB_IOManager\InputManager.c **** 
 461:C:/Workspace/FW_Platform2_5/trunk/PlatformLibrary/LIB_IOManager\InputManager.c **** #endif /*__CONDUCTIVITY_SENSOR_2_H_*/
 462:C:/Workspace/FW_Platform2_5/trunk/PlatformLibrary/LIB_IOManager\InputManager.c **** 
 463:C:/Workspace/FW_Platform2_5/trunk/PlatformLibrary/LIB_IOManager\InputManager.c **** #ifdef __MULTI_H
 464:C:/Workspace/FW_Platform2_5/trunk/PlatformLibrary/LIB_IOManager\InputManager.c **** 
 465:C:/Workspace/FW_Platform2_5/trunk/PlatformLibrary/LIB_IOManager\InputManager.c **** 		case DIGMULT_I:
 466:C:/Workspace/FW_Platform2_5/trunk/PlatformLibrary/LIB_IOManager\InputManager.c **** 
 467:C:/Workspace/FW_Platform2_5/trunk/PlatformLibrary/LIB_IOManager\InputManager.c **** 			if (resetType)
 468:C:/Workspace/FW_Platform2_5/trunk/PlatformLibrary/LIB_IOManager\InputManager.c **** 			{
 469:C:/Workspace/FW_Platform2_5/trunk/PlatformLibrary/LIB_IOManager\InputManager.c **** 				/* param 1: Ram Position Conversion's Result */
 470:C:/Workspace/FW_Platform2_5/trunk/PlatformLibrary/LIB_IOManager\InputManager.c **** 				/* param 2: pin -> pin linkage module M.C.U. - 1 */
 471:C:/Workspace/FW_Platform2_5/trunk/PlatformLibrary/LIB_IOManager\InputManager.c **** 				/* param 3: multiplexed or not multiplexed input */
 472:C:/Workspace/FW_Platform2_5/trunk/PlatformLibrary/LIB_IOManager\InputManager.c **** 				/* param 4: pointer to config. params  */
 473:C:/Workspace/FW_Platform2_5/trunk/PlatformLibrary/LIB_IOManager\InputManager.c **** 
 474:C:/Workspace/FW_Platform2_5/trunk/PlatformLibrary/LIB_IOManager\InputManager.c **** 				LIB_DIO_InsertDigInput( INPUT_RESULT_POS(pByte), pin, MPX_INPUT, lowLevelParametersPtr.Data);
 475:C:/Workspace/FW_Platform2_5/trunk/PlatformLibrary/LIB_IOManager\InputManager.c **** 			}
 476:C:/Workspace/FW_Platform2_5/trunk/PlatformLibrary/LIB_IOManager\InputManager.c **** 
 477:C:/Workspace/FW_Platform2_5/trunk/PlatformLibrary/LIB_IOManager\InputManager.c **** 			break;
 478:C:/Workspace/FW_Platform2_5/trunk/PlatformLibrary/LIB_IOManager\InputManager.c **** #endif
 479:C:/Workspace/FW_Platform2_5/trunk/PlatformLibrary/LIB_IOManager\InputManager.c **** 
 480:C:/Workspace/FW_Platform2_5/trunk/PlatformLibrary/LIB_IOManager\InputManager.c **** #ifdef CONFIG_FEEDBACK_ENABLE
 481:C:/Workspace/FW_Platform2_5/trunk/PlatformLibrary/LIB_IOManager\InputManager.c **** 
 482:C:/Workspace/FW_Platform2_5/trunk/PlatformLibrary/LIB_IOManager\InputManager.c **** 		case FEEDBACK_I:
 483:C:/Workspace/FW_Platform2_5/trunk/PlatformLibrary/LIB_IOManager\InputManager.c **** 
 484:C:/Workspace/FW_Platform2_5/trunk/PlatformLibrary/LIB_IOManager\InputManager.c **** 			if ( ((feedbackLLIparams_t*)((void*)lowLevelParametersPtr.Data))->bit.pullUp)
 485:C:/Workspace/FW_Platform2_5/trunk/PlatformLibrary/LIB_IOManager\InputManager.c **** 			{
 486:C:/Workspace/FW_Platform2_5/trunk/PlatformLibrary/LIB_IOManager\InputManager.c **** 				(void)OCDIO_SetPinPullUpSync(pin);
 487:C:/Workspace/FW_Platform2_5/trunk/PlatformLibrary/LIB_IOManager\InputManager.c **** 			}
 488:C:/Workspace/FW_Platform2_5/trunk/PlatformLibrary/LIB_IOManager\InputManager.c **** 			activeSense = (uint8_t) ((((feedbackLLIparams_t*)((void*)lowLevelParametersPtr.Data))->bit.inver
 489:C:/Workspace/FW_Platform2_5/trunk/PlatformLibrary/LIB_IOManager\InputManager.c **** 			LIB_IOM_Set_IODir_ActiveSense(activeSense,pin);
 490:C:/Workspace/FW_Platform2_5/trunk/PlatformLibrary/LIB_IOManager\InputManager.c **** 
 491:C:/Workspace/FW_Platform2_5/trunk/PlatformLibrary/LIB_IOManager\InputManager.c **** 			if (resetType)
  56                             		.loc 1 491 0
  57 0047 5B CC                   		movu.B	r12, r12
 171:C:/Workspace/FW_Platform2_5/trunk/PlatformLibrary/LIB_IOManager\InputManager.c **** 	for ( pByte = lowLevelInputTabPtr.Data;
  58                             		.loc 1 171 0
  59 0049 38 23 01                		bra	.L5
  60                             	.LVL6:
  61                             	.L21:
 177:C:/Workspace/FW_Platform2_5/trunk/PlatformLibrary/LIB_IOManager\InputManager.c **** 		pin = *(pinTabPtr.Data + INPUT_PIN_TAB_OFFSET(pByte));
  62                             		.loc 1 177 0
  63 004c 59 A7 01                		movu.B	1[r10], r7
  64 004f 06 89 07 02             		add	8[r0].L, r7
  65 0053 CC 77                   		mov.B	[r7], r7
  66                             	.LVL7:
 178:C:/Workspace/FW_Platform2_5/trunk/PlatformLibrary/LIB_IOManager\InputManager.c **** 		if ( pin >= IO_MODULE_MAP_SIZE )
  67                             		.loc 1 178 0
  68 0055 5B 7D                   		movu.B	r7, r13
  69 0057 75 5D 2B                		cmp	#43, r13
  70 005a 25 08                   		bleu	.L6
 180:C:/Workspace/FW_Platform2_5/trunk/PlatformLibrary/LIB_IOManager\InputManager.c **** 			PLT_ERROR_FATAL(PLT_ERROR_INPUT_MNGR_3);
  71                             		.loc 1 180 0
  72 005c 75 41 14                		mov.L	#20, r1
  73 005f 38 83 00                		bra	.L37
  74                             	.L6:
 186:C:/Workspace/FW_Platform2_5/trunk/PlatformLibrary/LIB_IOManager\InputManager.c **** 		err = OCDIO_SetPinDirValueSync(pin,0);
  75                             		.loc 1 186 0
  76 0062 CF 71                   		mov.B	r7, r1
  77 0064 66 02                   		mov	#0, r2
  78 0066 05 00 00 00             		bsr	_OCDIO_SetPinDirValueSync
  79                             	.LVL8:
 187:C:/Workspace/FW_Platform2_5/trunk/PlatformLibrary/LIB_IOManager\InputManager.c **** 		if ( (IO_ErrorType)IO_E_UNKNOWN_MODE == err )
  80                             		.loc 1 187 0
  81 006a 5B 11                   		movu.B	r1, r1
  82 006c 61 31                   		cmp	#3, r1
  83 006e 21 07                   		bne	.L7
 190:C:/Workspace/FW_Platform2_5/trunk/PlatformLibrary/LIB_IOManager\InputManager.c **** 			PLT_ERROR_FATAL(PLT_ERROR_INPUT_MNGR_6);
  84                             		.loc 1 190 0
  85 0070 75 41 17                		mov.L	#23, r1
  86                             	.LVL9:
  87 0073 2E 0B                   		bra	.L36
  88                             	.LVL10:
  89                             	.L7:
 192:C:/Workspace/FW_Platform2_5/trunk/PlatformLibrary/LIB_IOManager\InputManager.c **** 		else if ( (IO_ErrorType)IO_E_INVALID_VALUE == err )
  90                             		.loc 1 192 0
  91 0075 75 51 13                		cmp	#19, r1
  92 0078 21 0A                   		bne	.L8
 195:C:/Workspace/FW_Platform2_5/trunk/PlatformLibrary/LIB_IOManager\InputManager.c **** 			PLT_ERROR_FATAL(PLT_ERROR_INPUT_MNGR_7);
  93                             		.loc 1 195 0
  94 007a 75 41 18                		mov.L	#24, r1
  95                             	.LVL11:
  96 007d 03                      		.balign 2,3,3
  97                             	.L36:
  98 007e 05 00 00 00             		bsr	_LIB_Error_Fatal_Handler
  99                             	.LVL12:
 100                             		.balign 2,3,5
 101                             	.L8:
 202:C:/Workspace/FW_Platform2_5/trunk/PlatformLibrary/LIB_IOManager\InputManager.c **** 		if ( 0 != BasicLoader( SF_PTR_IO_DEVICE, INPUT_TYPE_PARAMS_OFFSET(pByte), &lowLevelParametersPtr)
 102                             		.loc 1 202 0
 103 0082 CD A2 02                		mov.B	2[r10], r2
 104 0085 75 41 21                		mov	#33, r1
 105 0088 EF 03                   		mov.L	r0, r3
 106 008a 05 00 00 00             		bsr	_BasicLoader
 107                             	.LVL13:
 108 008e 5B 11                   		movu.B	r1, r1
 109 0090 61 01                   		cmp	#0, r1
 110 0092 20 07                   		beq	.L9
 204:C:/Workspace/FW_Platform2_5/trunk/PlatformLibrary/LIB_IOManager\InputManager.c **** 			PLT_ERROR_FATAL(PLT_ERROR_INPUT_MNGR_4);
 111                             		.loc 1 204 0
 112 0094 75 41 15                		mov.L	#21, r1
 113 0097 2E 4B                   		bra	.L37
 114                             	.L9:
 209:C:/Workspace/FW_Platform2_5/trunk/PlatformLibrary/LIB_IOManager\InputManager.c **** 		readType = READ_TYPE(pByte);
 115                             		.loc 1 209 0
 116 0099 CC AD                   		mov.B	[r10], r13
 117                             	.LVL14:
 210:C:/Workspace/FW_Platform2_5/trunk/PlatformLibrary/LIB_IOManager\InputManager.c **** 		switch (readType)
 118                             		.loc 1 210 0
 119 009b 5B DE                   		movu.B	r13, r14
 120 009d 61 DE                   		cmp	#13, r14
 121 009f 25 05 38 C7 00          		bgtu	.L10
 122 00a4 FE 6E 9E                		mov.L	[r14,r9], r14
 123                             		
 124 00a7 7F 0E                   	1:jmp	r14
 125                             		.section	.rodata.LIB_IOM_InputInitialization,"a",@progbits
 126                             		.balign 4
 127                             		.balign 4
 128                             	.L15:
 129 0000 00 00 00 00             		.long .L11
 130 0004 00 00 00 00             		.long .L12
 131 0008 00 00 00 00             		.long .L13
 132 000c 00 00 00 00             		.long .L10
 133 0010 00 00 00 00             		.long .L10
 134 0014 00 00 00 00             		.long .L10
 135 0018 00 00 00 00             		.long .L10
 136 001c 00 00 00 00             		.long .L14
 137 0020 00 00 00 00             		.long .L10
 138 0024 00 00 00 00             		.long .L10
 139 0028 00 00 00 00             		.long .L10
 140 002c 00 00 00 00             		.long .L10
 141 0030 00 00 00 00             		.long .L10
 142 0034 00 00 00 00             		.long .L12
 143                             		.section	.text.LIB_IOM_InputInitialization
 144                             	.L14:
 240:C:/Workspace/FW_Platform2_5/trunk/PlatformLibrary/LIB_IOManager\InputManager.c **** 			if( IO_E_OK != PM_FrequencyFeedbacks_Configure(pin,(freqFeedbackLLIparams_t*)((void*)lowLevelPar
 145                             		.loc 1 240 0
 146 00a9 EC 02                   		mov.L	[r0], r2
 147 00ab CC B3                   		mov.B	[r11], r3
 148 00ad CF 71                   		mov.B	r7, r1
 149 00af 05 00 00 00             		bsr	_PM_FrequencyFeedbacks_Configure
 150                             	.LVL15:
 151 00b3 5B 11                   		movu.B	r1, r1
 152 00b5 61 01                   		cmp	#0, r1
 153 00b7 3A B1 00                		beq	.L10
 241:C:/Workspace/FW_Platform2_5/trunk/PlatformLibrary/LIB_IOManager\InputManager.c **** 				PLT_ERROR_FATAL(PLT_ERROR_INPUT_MNGR_8);
 154                             		.loc 1 241 0
 155 00ba 75 41 19                		mov.L	#25, r1
 156 00bd 05 00 00 00             		bsr	_LIB_Error_Fatal_Handler
 157                             	.LVL16:
 158 00c1 38 A7 00                		bra	.L10
 159                             	.L12:
 309:C:/Workspace/FW_Platform2_5/trunk/PlatformLibrary/LIB_IOManager\InputManager.c **** 			if ( OCADC_GetADchannelSync(&ModuleIOmap[pin],&channelAD) != (IO_ErrorType)IO_E_OK )
 160                             		.loc 1 309 0
 161 00c4 5B 77                   		movu.B	r7, r7
 162                             	.LVL17:
 163 00c6 FD C3 71                		shll	#3, r7, r1
 164 00c9 75 42 18                		mov.L	#24, r2
 165 00cc 70 11 00 00 00 00       		add	#_ModuleIOmap, r1
 166 00d2 4B 02                   		add	r0, r2
 167 00d4 05 00 00 00             		bsr	_OCADC_GetADchannelSync
 168                             	.LVL18:
 169 00d8 5B 11                   		movu.B	r1, r1
 170 00da 61 01                   		cmp	#0, r1
 171 00dc 20 0D                   		beq	.L17
 311:C:/Workspace/FW_Platform2_5/trunk/PlatformLibrary/LIB_IOManager\InputManager.c **** 				PLT_ERROR_FATAL(PLT_ERROR_INPUT_MNGR_5);
 172                             		.loc 1 311 0
 173 00de 75 41 16                		mov.L	#22, r1
 174                             	.LVL19:
 175 00e1 03                      		.balign 2,3,3
 176                             	.L37:
 177 00e2 05 00 00 00             		bsr	_LIB_Error_Fatal_Handler
 178                             	.LVL20:
 179 00e6 38 96 00                		bra	.L1
 180                             	.LVL21:
 181                             	.L17:
 320:C:/Workspace/FW_Platform2_5/trunk/PlatformLibrary/LIB_IOManager\InputManager.c **** 			LIB_ADC_RegisterADchannel( channelAD, INPUT_RESULT_POS(pByte), lowLevelParametersPtr.Data );
 182                             		.loc 1 320 0
 183 00e9 8E 01                   		mov.B	24[r0], r1
 184 00eb CC B2                   		mov.B	[r11], r2
 185 00ed EC 03                   		mov.L	[r0], r3
 334:C:/Workspace/FW_Platform2_5/trunk/PlatformLibrary/LIB_IOManager\InputManager.c **** 			if ( readType == ANALOGFEEDBACK_I )
 186                             		.loc 1 334 0
 187 00ef 5B DD                   		movu.B	r13, r13
 320:C:/Workspace/FW_Platform2_5/trunk/PlatformLibrary/LIB_IOManager\InputManager.c **** 			LIB_ADC_RegisterADchannel( channelAD, INPUT_RESULT_POS(pByte), lowLevelParametersPtr.Data );
 188                             		.loc 1 320 0
 189 00f1 05 00 00 00             		bsr	_LIB_ADC_RegisterADchannel
 190                             	.LVL22:
 334:C:/Workspace/FW_Platform2_5/trunk/PlatformLibrary/LIB_IOManager\InputManager.c **** 			if ( readType == ANALOGFEEDBACK_I )
 191                             		.loc 1 334 0
 192 00f5 61 DD                   		cmp	#13, r13
 193 00f7 21 71                   		bne	.L10
 337:C:/Workspace/FW_Platform2_5/trunk/PlatformLibrary/LIB_IOManager\InputManager.c **** 				(void)PM_AnalogFeedback_Setup( channelAD, lowLevelParametersPtr.Data );
 194                             		.loc 1 337 0
 195 00f9 8E 01                   		mov.B	24[r0], r1
 196 00fb EC 02                   		mov.L	[r0], r2
 197 00fd 05 00 00 00             		bsr	_PM_AnalogFeedback_Setup
 198                             	.LVL23:
 199 0101 2E 67                   		bra	.L10
 200                             	.LVL24:
 201                             	.L11:
 407:C:/Workspace/FW_Platform2_5/trunk/PlatformLibrary/LIB_IOManager\InputManager.c **** 			if ( ((digitalLLIparams_t*)((void*)lowLevelParametersPtr.Data))->bit.pullUp )
 202                             		.loc 1 407 0
 203 0103 EC 0D                   		mov.L	[r0], r13
 204                             	.LVL25:
 205 0105 DC DD                   		mov.W	[r13], r13
 206 0107 75 2D 20                		and	#32, r13
 207 010a 5F DD                   		movu.W	r13, r13
 208 010c 61 0D                   		cmp	#0, r13
 209 010e 20 08                   		beq	.L19
 409:C:/Workspace/FW_Platform2_5/trunk/PlatformLibrary/LIB_IOManager\InputManager.c **** 				(void)OCDIO_SetPinPullUpSync(pin);
 210                             		.loc 1 409 0
 211 0110 CF 71                   		mov.B	r7, r1
 212 0112 05 00 00 00             		bsr	_OCDIO_SetPinPullUpSync
 213                             	.LVL26:
 214                             		.balign 2,3,1
 215                             	.L19:
 411:C:/Workspace/FW_Platform2_5/trunk/PlatformLibrary/LIB_IOManager\InputManager.c **** 			activeSense = (uint8_t) ((((digitalLLIparams_t*)((void*)lowLevelParametersPtr.Data))->bit.invert
 216                             		.loc 1 411 0
 217 0116 EC 0D                   		mov.L	[r0], r13
 412:C:/Workspace/FW_Platform2_5/trunk/PlatformLibrary/LIB_IOManager\InputManager.c **** 			LIB_IOM_Set_IODir_ActiveSense(activeSense,pin);
 218                             		.loc 1 412 0
 219 0118 CF 72                   		mov.B	r7, r2
 411:C:/Workspace/FW_Platform2_5/trunk/PlatformLibrary/LIB_IOManager\InputManager.c **** 			activeSense = (uint8_t) ((((digitalLLIparams_t*)((void*)lowLevelParametersPtr.Data))->bit.invert
 220                             		.loc 1 411 0
 221 011a DC D1                   		mov.W	[r13], r1
 222 011c 6A 71                   		shar	#7, r1
 412:C:/Workspace/FW_Platform2_5/trunk/PlatformLibrary/LIB_IOManager\InputManager.c **** 			LIB_IOM_Set_IODir_ActiveSense(activeSense,pin);
 223                             		.loc 1 412 0
 224 011e 64 11                   		and	#1, r1
 225 0120 05 00 00 00             		bsr	_LIB_IOM_Set_IODir_ActiveSense
 226                             	.LVL27:
 415:C:/Workspace/FW_Platform2_5/trunk/PlatformLibrary/LIB_IOManager\InputManager.c **** 			if (resetType)		/* if reset is cold */
 227                             		.loc 1 415 0
 228 0124 61 0C                   		cmp	#0, r12
 229 0126 20 42                   		beq	.L10
 422:C:/Workspace/FW_Platform2_5/trunk/PlatformLibrary/LIB_IOManager\InputManager.c **** 				LIB_DIO_InsertDigInput( INPUT_RESULT_POS(pByte), pin, NO_MPX_INPUT, lowLevelParametersPtr.Data)
 230                             		.loc 1 422 0
 231 0128 CC B1                   		mov.B	[r11], r1
 232 012a EC 04                   		mov.L	[r0], r4
 233 012c CF 72                   		mov.B	r7, r2
 234 012e 66 03                   		mov	#0, r3
 235 0130 05 00 00 00             		bsr	_LIB_DIO_InsertDigInput
 236                             	.LVL28:
 237 0134 2E 34                   		bra	.L10
 238                             	.LVL29:
 239                             	.L13:
 484:C:/Workspace/FW_Platform2_5/trunk/PlatformLibrary/LIB_IOManager\InputManager.c **** 			if ( ((feedbackLLIparams_t*)((void*)lowLevelParametersPtr.Data))->bit.pullUp)
 240                             		.loc 1 484 0
 241 0136 EC 0D                   		mov.L	[r0], r13
 242                             	.LVL30:
 243 0138 DC DD                   		mov.W	[r13], r13
 244 013a 75 2D 20                		and	#32, r13
 245 013d 5F DD                   		movu.W	r13, r13
 246 013f 61 0D                   		cmp	#0, r13
 247 0141 20 09                   		beq	.L20
 486:C:/Workspace/FW_Platform2_5/trunk/PlatformLibrary/LIB_IOManager\InputManager.c **** 				(void)OCDIO_SetPinPullUpSync(pin);
 248                             		.loc 1 486 0
 249 0143 CF 71                   		mov.B	r7, r1
 250 0145 05 00 00 00             		bsr	_OCDIO_SetPinPullUpSync
 251                             	.LVL31:
 252 0149 03                      		.balign 2,3,1
 253                             	.L20:
 488:C:/Workspace/FW_Platform2_5/trunk/PlatformLibrary/LIB_IOManager\InputManager.c **** 			activeSense = (uint8_t) ((((feedbackLLIparams_t*)((void*)lowLevelParametersPtr.Data))->bit.inver
 254                             		.loc 1 488 0
 255 014a EC 0D                   		mov.L	[r0], r13
 489:C:/Workspace/FW_Platform2_5/trunk/PlatformLibrary/LIB_IOManager\InputManager.c **** 			LIB_IOM_Set_IODir_ActiveSense(activeSense,pin);
 256                             		.loc 1 489 0
 257 014c CF 72                   		mov.B	r7, r2
 488:C:/Workspace/FW_Platform2_5/trunk/PlatformLibrary/LIB_IOManager\InputManager.c **** 			activeSense = (uint8_t) ((((feedbackLLIparams_t*)((void*)lowLevelParametersPtr.Data))->bit.inver
 258                             		.loc 1 488 0
 259 014e DC D1                   		mov.W	[r13], r1
 260 0150 6A 71                   		shar	#7, r1
 489:C:/Workspace/FW_Platform2_5/trunk/PlatformLibrary/LIB_IOManager\InputManager.c **** 			LIB_IOM_Set_IODir_ActiveSense(activeSense,pin);
 261                             		.loc 1 489 0
 262 0152 64 11                   		and	#1, r1
 263 0154 05 00 00 00             		bsr	_LIB_IOM_Set_IODir_ActiveSense
 264                             	.LVL32:
 265                             		.loc 1 491 0
 266 0158 61 0C                   		cmp	#0, r12
 267 015a 20 0E                   		beq	.L10
 492:C:/Workspace/FW_Platform2_5/trunk/PlatformLibrary/LIB_IOManager\InputManager.c **** 			{
 493:C:/Workspace/FW_Platform2_5/trunk/PlatformLibrary/LIB_IOManager\InputManager.c **** 				/* param 1: Ram Position Conversion Result */
 494:C:/Workspace/FW_Platform2_5/trunk/PlatformLibrary/LIB_IOManager\InputManager.c **** 				/* param 2: pin -> pin del linkage - 1 */
 495:C:/Workspace/FW_Platform2_5/trunk/PlatformLibrary/LIB_IOManager\InputManager.c **** 				/* param 3: '0' -> ingresso semplice, '1' multiplexato */
 496:C:/Workspace/FW_Platform2_5/trunk/PlatformLibrary/LIB_IOManager\InputManager.c **** 				/* param 4: puntatore alla word descrittiva del feedback */
 497:C:/Workspace/FW_Platform2_5/trunk/PlatformLibrary/LIB_IOManager\InputManager.c **** #if defined (CONFIG_PLATFORM2_FEEDBACK)
 498:C:/Workspace/FW_Platform2_5/trunk/PlatformLibrary/LIB_IOManager\InputManager.c **** 				LIB_FDB_RegisterFeedback( INPUT_RESULT_POS(pByte), pin, 0, lowLevelParametersPtr.Data );
 268                             		.loc 1 498 0
 269 015c CC B1                   		mov.B	[r11], r1
 270 015e EC 04                   		mov.L	[r0], r4
 271 0160 CF 72                   		mov.B	r7, r2
 272 0162 66 03                   		mov	#0, r3
 273 0164 05 00 00 00             		bsr	_LIB_FDB_RegisterFeedback
 274                             	.LVL33:
 275                             		.balign 2,3,1
 276                             	.L10:
 173:C:/Workspace/FW_Platform2_5/trunk/PlatformLibrary/LIB_IOManager\InputManager.c **** 	        pByte += LLI_TABLE_ITEM_SIZE_IN_BYTES )
 277                             		.loc 1 173 0
 278 0168 62 4A                   		add	#4, r10
 279                             	.LVL34:
 280 016a 62 4B                   		add	#4, r11
 281                             		.balign 2,3,3
 282                             	.L5:
 172:C:/Workspace/FW_Platform2_5/trunk/PlatformLibrary/LIB_IOManager\InputManager.c **** 	        pByte < (lowLevelInputTabPtr.Data + (lowLevelInputTabPtr.DataLenght*2));
 283                             		.loc 1 172 0 discriminator 1
 284 016c B5 07                   		movu.B	20[r0], r7
 285 016e ED 0D 04                		mov.L	16[r0], r13
 286 0171 4B 77                   		add	r7, r7
 287 0173 4B D7                   		add	r13, r7
 171:C:/Workspace/FW_Platform2_5/trunk/PlatformLibrary/LIB_IOManager\InputManager.c **** 	for ( pByte = lowLevelInputTabPtr.Data;
 288                             		.loc 1 171 0 discriminator 1
 289 0175 47 7A                   		cmp	r7, r10
 290 0177 22 05 38 D3 FE          		bltu	.L21
 291                             	.LVL35:
 292                             		.balign 2,3,2
 293                             	.L1:
 499:C:/Workspace/FW_Platform2_5/trunk/PlatformLibrary/LIB_IOManager\InputManager.c **** #else
 500:C:/Workspace/FW_Platform2_5/trunk/PlatformLibrary/LIB_IOManager\InputManager.c **** 				InsertFeedback( INPUT_RESULT_POS(pByte), pin, 0, lowLevelParametersPtr.Data );
 501:C:/Workspace/FW_Platform2_5/trunk/PlatformLibrary/LIB_IOManager\InputManager.c **** #endif /* defined (CONFIG_PLATFORM2_FEEDBACK) */
 502:C:/Workspace/FW_Platform2_5/trunk/PlatformLibrary/LIB_IOManager\InputManager.c **** 			}
 503:C:/Workspace/FW_Platform2_5/trunk/PlatformLibrary/LIB_IOManager\InputManager.c **** 			break;
 504:C:/Workspace/FW_Platform2_5/trunk/PlatformLibrary/LIB_IOManager\InputManager.c **** 
 505:C:/Workspace/FW_Platform2_5/trunk/PlatformLibrary/LIB_IOManager\InputManager.c **** #ifdef __MULTI_H
 506:C:/Workspace/FW_Platform2_5/trunk/PlatformLibrary/LIB_IOManager\InputManager.c **** 
 507:C:/Workspace/FW_Platform2_5/trunk/PlatformLibrary/LIB_IOManager\InputManager.c **** 		case FEEDMULT_I:
 508:C:/Workspace/FW_Platform2_5/trunk/PlatformLibrary/LIB_IOManager\InputManager.c **** 
 509:C:/Workspace/FW_Platform2_5/trunk/PlatformLibrary/LIB_IOManager\InputManager.c **** 			if (resetType)
 510:C:/Workspace/FW_Platform2_5/trunk/PlatformLibrary/LIB_IOManager\InputManager.c **** 			{
 511:C:/Workspace/FW_Platform2_5/trunk/PlatformLibrary/LIB_IOManager\InputManager.c **** 
 512:C:/Workspace/FW_Platform2_5/trunk/PlatformLibrary/LIB_IOManager\InputManager.c **** 				/* param 1: Ram Position Conversion Result */
 513:C:/Workspace/FW_Platform2_5/trunk/PlatformLibrary/LIB_IOManager\InputManager.c **** 				/* param 2: pin -> pin del linkage - 1 */
 514:C:/Workspace/FW_Platform2_5/trunk/PlatformLibrary/LIB_IOManager\InputManager.c **** 				/* param 3: '0' -> ingresso semplice, '1' multiplexato */
 515:C:/Workspace/FW_Platform2_5/trunk/PlatformLibrary/LIB_IOManager\InputManager.c **** 				/* param 4: puntatore alla word descrittiva del feedback */
 516:C:/Workspace/FW_Platform2_5/trunk/PlatformLibrary/LIB_IOManager\InputManager.c **** #if defined (CONFIG_PLATFORM2_FEEDBACK)
 517:C:/Workspace/FW_Platform2_5/trunk/PlatformLibrary/LIB_IOManager\InputManager.c **** 				LIB_FDB_RegisterFeedback( INPUT_RESULT_POS(pByte), pin, 1, lowLevelParametersPtr.Data );
 518:C:/Workspace/FW_Platform2_5/trunk/PlatformLibrary/LIB_IOManager\InputManager.c **** #else
 519:C:/Workspace/FW_Platform2_5/trunk/PlatformLibrary/LIB_IOManager\InputManager.c **** 				InsertFeedback( INPUT_RESULT_POS(pByte), pin, 1, lowLevelParametersPtr.Data );
 520:C:/Workspace/FW_Platform2_5/trunk/PlatformLibrary/LIB_IOManager\InputManager.c **** #endif /* #if defined (CONFIG_PLATFORM2_FEEDBACK) */
 521:C:/Workspace/FW_Platform2_5/trunk/PlatformLibrary/LIB_IOManager\InputManager.c **** 			}
 522:C:/Workspace/FW_Platform2_5/trunk/PlatformLibrary/LIB_IOManager\InputManager.c **** 
 523:C:/Workspace/FW_Platform2_5/trunk/PlatformLibrary/LIB_IOManager\InputManager.c **** 			break;
 524:C:/Workspace/FW_Platform2_5/trunk/PlatformLibrary/LIB_IOManager\InputManager.c **** 
 525:C:/Workspace/FW_Platform2_5/trunk/PlatformLibrary/LIB_IOManager\InputManager.c **** #endif /* __MULTI_H */
 526:C:/Workspace/FW_Platform2_5/trunk/PlatformLibrary/LIB_IOManager\InputManager.c **** 
 527:C:/Workspace/FW_Platform2_5/trunk/PlatformLibrary/LIB_IOManager\InputManager.c **** 
 528:C:/Workspace/FW_Platform2_5/trunk/PlatformLibrary/LIB_IOManager\InputManager.c **** #endif /* CONFIG_FEEDBACK_ENABLE */
 529:C:/Workspace/FW_Platform2_5/trunk/PlatformLibrary/LIB_IOManager\InputManager.c **** 
 530:C:/Workspace/FW_Platform2_5/trunk/PlatformLibrary/LIB_IOManager\InputManager.c **** #ifdef __RLTEC_DDC_H
 531:C:/Workspace/FW_Platform2_5/trunk/PlatformLibrary/LIB_IOManager\InputManager.c **** 		case DDC_I:
 532:C:/Workspace/FW_Platform2_5/trunk/PlatformLibrary/LIB_IOManager\InputManager.c **** 			if ( ((ddcLLIparams_t*)lowLevelParametersPtr.Data)->bit.pullUp )
 533:C:/Workspace/FW_Platform2_5/trunk/PlatformLibrary/LIB_IOManager\InputManager.c **** 			{
 534:C:/Workspace/FW_Platform2_5/trunk/PlatformLibrary/LIB_IOManager\InputManager.c **** 				(void)OCDIO_SetPinPullUpSync(pin);
 535:C:/Workspace/FW_Platform2_5/trunk/PlatformLibrary/LIB_IOManager\InputManager.c **** 			}
 536:C:/Workspace/FW_Platform2_5/trunk/PlatformLibrary/LIB_IOManager\InputManager.c **** 
 537:C:/Workspace/FW_Platform2_5/trunk/PlatformLibrary/LIB_IOManager\InputManager.c **** 			LIB_IOM_Set_IODir_ActiveSense(0,pin);
 538:C:/Workspace/FW_Platform2_5/trunk/PlatformLibrary/LIB_IOManager\InputManager.c **** 			/** pin  il pin del modulo linkage
 539:C:/Workspace/FW_Platform2_5/trunk/PlatformLibrary/LIB_IOManager\InputManager.c **** 			    lowLevelParametersPtr.Data  il puntatore ai parametri Low Level Input */
 540:C:/Workspace/FW_Platform2_5/trunk/PlatformLibrary/LIB_IOManager\InputManager.c **** 			DDC_Init( pin, lowLevelParametersPtr.Data );
 541:C:/Workspace/FW_Platform2_5/trunk/PlatformLibrary/LIB_IOManager\InputManager.c **** 
 542:C:/Workspace/FW_Platform2_5/trunk/PlatformLibrary/LIB_IOManager\InputManager.c **** 			break;
 543:C:/Workspace/FW_Platform2_5/trunk/PlatformLibrary/LIB_IOManager\InputManager.c **** #endif  /* __RLTEC_DDC_H */
 544:C:/Workspace/FW_Platform2_5/trunk/PlatformLibrary/LIB_IOManager\InputManager.c **** 		default:
 545:C:/Workspace/FW_Platform2_5/trunk/PlatformLibrary/LIB_IOManager\InputManager.c **** 			/* CODICE NON CONTEMPLATO */
 546:C:/Workspace/FW_Platform2_5/trunk/PlatformLibrary/LIB_IOManager\InputManager.c **** 			break;
 547:C:/Workspace/FW_Platform2_5/trunk/PlatformLibrary/LIB_IOManager\InputManager.c **** 
 548:C:/Workspace/FW_Platform2_5/trunk/PlatformLibrary/LIB_IOManager\InputManager.c **** 
 549:C:/Workspace/FW_Platform2_5/trunk/PlatformLibrary/LIB_IOManager\InputManager.c **** 		} /* end switch */
 550:C:/Workspace/FW_Platform2_5/trunk/PlatformLibrary/LIB_IOManager\InputManager.c **** 	}
 551:C:/Workspace/FW_Platform2_5/trunk/PlatformLibrary/LIB_IOManager\InputManager.c **** }
 294                             		.loc 1 551 0
 295 017c 3F 7D 0E                		rtsd	#56, r7-r13
 296                             	.LFE0:
 346                             	.Letext0:
 347                             		.file 2 "C:\\Workspace\\FW_Platform2_5\\trunk\\HAL\\HAL_General/StandardTypes.h"
 348                             		.file 3 "C:\\Workspace\\FW_Platform2_5\\trunk\\HAL\\RN_RX200/RN_RX200_cfg.h"
 349                             		.file 4 "C:\\Workspace\\FW_Platform2_5\\trunk\\ProductModules\\PM_Library/LIB_Utilities.h"
 350                             		.file 5 "C:/Workspace/FW_Platform2_5/trunk/PlatformLibrary/LIB_IOManager/InputManagerExp.h"
 351                             		.file 6 "C:\\Workspace\\FW_Platform2_5\\trunk\\PlatformLibrary\\LIB_Error/LIB_Error.h"
 352                             		.file 7 "C:\\Workspace\\FW_Platform2_5\\trunk\\PlatformLibrary\\LIB_DigitalIO/DigitalInputs.h"
 353                             		.file 8 "C:\\Workspace\\FW_Platform2_5\\trunk\\Drivers/IO_driver.h"
 354                             		.file 9 "C:\\Workspace\\FW_Platform2_5\\trunk\\ProductModules\\PM_AnalogFeedbacks/PM_AnalogFeedbac
 355                             		.file 10 "C:\\Workspace\\FW_Platform2_5\\trunk\\ProductModules\\PM_FreqFeedbacks/PM_FrequencyFeedb
 356                             		.file 11 "C:\\Workspace\\FW_Platform2_5\\trunk\\Drivers\\OCDIO/OCDIO_drv.h"
 357                             		.file 12 "C:\\Workspace\\FW_Platform2_5\\trunk\\ProductModules\\PM_FreqFeedbacks/PM_FrequencyFeedb
 358                             		.file 13 "C:\\Workspace\\FW_Platform2_5\\trunk\\Drivers\\OCADC/OCADC_drv.h"
 359                             		.file 14 "C:\\Workspace\\FW_Platform2_5\\trunk\\PlatformLibrary\\LIB_Analog/Analog.h"
 360                             		.file 15 "C:/Workspace/FW_Platform2_5/trunk/PlatformLibrary/LIB_IOManager/IOSharing.h"
 361                             		.file 16 "C:\\Workspace\\FW_Platform2_5\\trunk\\PlatformLibrary\\LIB_Feedbacks/Feedbacks.h"
