   1                             		.file	"ISR_TMR.c"
   2                             		.section P,"ax"
   3                             	.Ltext0:
   4                             		.section	.text.TMR0_ISR,"ax",@progbits
   5                             		.weak	_TMR0_ISR
   7                             	_TMR0_ISR:
   8                             	.LFB0:
   9                             		.file 1 "C:/Workspace/FW_Platform2_5/trunk/HAL/RN_RX200/McuModule/ISR_TMR.c"
   1:C:/Workspace/FW_Platform2_5/trunk/HAL/RN_RX200/McuModule\ISR_TMR.c **** #include "ISR_TMR.h"
   2:C:/Workspace/FW_Platform2_5/trunk/HAL/RN_RX200/McuModule\ISR_TMR.c **** 
   3:C:/Workspace/FW_Platform2_5/trunk/HAL/RN_RX200/McuModule\ISR_TMR.c **** #include "HAL_Interface.h"
   4:C:/Workspace/FW_Platform2_5/trunk/HAL/RN_RX200/McuModule\ISR_TMR.c **** #include  HAL_CFG
   5:C:/Workspace/FW_Platform2_5/trunk/HAL/RN_RX200/McuModule\ISR_TMR.c **** #include  HAL
   6:C:/Workspace/FW_Platform2_5/trunk/HAL/RN_RX200/McuModule\ISR_TMR.c **** 
   7:C:/Workspace/FW_Platform2_5/trunk/HAL/RN_RX200/McuModule\ISR_TMR.c **** #include "OCTPM_drv.h"
   8:C:/Workspace/FW_Platform2_5/trunk/HAL/RN_RX200/McuModule\ISR_TMR.c **** 
   9:C:/Workspace/FW_Platform2_5/trunk/HAL/RN_RX200/McuModule\ISR_TMR.c **** #if defined(CASTELLATED_MODULE_LP1_0241_01) || defined(EDGE_MODULE_LP1_0258_01) || defined(CUSTOM_M
  10:C:/Workspace/FW_Platform2_5/trunk/HAL/RN_RX200/McuModule\ISR_TMR.c **** 
  11:C:/Workspace/FW_Platform2_5/trunk/HAL/RN_RX200/McuModule\ISR_TMR.c **** #if defined(TMR0_ISR_SUPPORT)
  12:C:/Workspace/FW_Platform2_5/trunk/HAL/RN_RX200/McuModule\ISR_TMR.c **** int TMR0_ISR(void);
  13:C:/Workspace/FW_Platform2_5/trunk/HAL/RN_RX200/McuModule\ISR_TMR.c **** __attribute__((weak)) int TMR0_ISR(void)
  14:C:/Workspace/FW_Platform2_5/trunk/HAL/RN_RX200/McuModule\ISR_TMR.c **** {
  10                             		.loc 1 14 0
  15:C:/Workspace/FW_Platform2_5/trunk/HAL/RN_RX200/McuModule\ISR_TMR.c **** 	if( TMR_GetClearSourceId(HAL_TMR_MTU0) == TCNT_CLEARING_TGRC ){
  11                             		.loc 1 15 0
  12 0000 66 01                   		mov	#0, r1
  13 0002 05 00 00 00             		bsr	_TMR_GetClearSourceId
  14                             	.LVL0:
  15 0006 5B 11                   		movu.B	r1, r1
  16 0008 61 21                   		cmp	#2, r1
  16:C:/Workspace/FW_Platform2_5/trunk/HAL/RN_RX200/McuModule\ISR_TMR.c **** 		HWCNTR_ISR(HW_TMR_ID_0);
  17                             		.loc 1 16 0
  18 000a 66 01                   		mov	#0, r1
  15:C:/Workspace/FW_Platform2_5/trunk/HAL/RN_RX200/McuModule\ISR_TMR.c **** 	if( TMR_GetClearSourceId(HAL_TMR_MTU0) == TCNT_CLEARING_TGRC ){
  19                             		.loc 1 15 0
  20 000c 21 08                   		bne	.L2
  21                             		.loc 1 16 0
  22 000e 05 00 00 00             		bsr	_HWCNTR_ISR
  23                             	.LVL1:
  17:C:/Workspace/FW_Platform2_5/trunk/HAL/RN_RX200/McuModule\ISR_TMR.c **** 		return 1;
  24                             		.loc 1 17 0
  25 0012 2E 06                   		bra	.L3
  26                             	.L2:
  18:C:/Workspace/FW_Platform2_5/trunk/HAL/RN_RX200/McuModule\ISR_TMR.c **** 	}else{
  19:C:/Workspace/FW_Platform2_5/trunk/HAL/RN_RX200/McuModule\ISR_TMR.c **** 		HWTMRCH_ISR(TMR0_IDX);
  27                             		.loc 1 19 0
  28 0014 05 00 00 00             		bsr	_HWTMRCH_ISR
  29                             	.LVL2:
  30                             		.balign 2,3,1
  31                             	.L3:
  20:C:/Workspace/FW_Platform2_5/trunk/HAL/RN_RX200/McuModule\ISR_TMR.c **** 		return 1;
  21:C:/Workspace/FW_Platform2_5/trunk/HAL/RN_RX200/McuModule\ISR_TMR.c **** 	}
  22:C:/Workspace/FW_Platform2_5/trunk/HAL/RN_RX200/McuModule\ISR_TMR.c ****     return 0;
  23:C:/Workspace/FW_Platform2_5/trunk/HAL/RN_RX200/McuModule\ISR_TMR.c **** }
  32                             		.loc 1 23 0
  33 0018 66 11                   		mov.L	#1, r1
  34 001a 02                      		rts
  35                             	.LFE0:
  37 001b 03                      		.section	.text.MTU0_TGIC0_ExceptionHandler,"ax",@progbits
  38                             		.global	_MTU0_TGIC0_ExceptionHandler
  40                             	_MTU0_TGIC0_ExceptionHandler:
  41                             	.LFB1:
  24:C:/Workspace/FW_Platform2_5/trunk/HAL/RN_RX200/McuModule\ISR_TMR.c **** 
  25:C:/Workspace/FW_Platform2_5/trunk/HAL/RN_RX200/McuModule\ISR_TMR.c **** 
  26:C:/Workspace/FW_Platform2_5/trunk/HAL/RN_RX200/McuModule\ISR_TMR.c **** int MTU0_TGIC0_ExceptionHandler(void* pDevice, int status)
  27:C:/Workspace/FW_Platform2_5/trunk/HAL/RN_RX200/McuModule\ISR_TMR.c **** {
  42                             		.loc 1 27 0
  43                             	.LVL3:
  28:C:/Workspace/FW_Platform2_5/trunk/HAL/RN_RX200/McuModule\ISR_TMR.c ****     return TMR0_ISR();
  44                             		.loc 1 28 0
  45 0000 04 00 00 00             		bra	_TMR0_ISR
  46                             	.LVL4:
  47                             	.LFE1:
  49                             		.section	.text.TMR1_ISR,"ax",@progbits
  50                             		.weak	_TMR1_ISR
  52                             	_TMR1_ISR:
  53                             	.LFB2:
  29:C:/Workspace/FW_Platform2_5/trunk/HAL/RN_RX200/McuModule\ISR_TMR.c **** }
  30:C:/Workspace/FW_Platform2_5/trunk/HAL/RN_RX200/McuModule\ISR_TMR.c **** #endif
  31:C:/Workspace/FW_Platform2_5/trunk/HAL/RN_RX200/McuModule\ISR_TMR.c **** 
  32:C:/Workspace/FW_Platform2_5/trunk/HAL/RN_RX200/McuModule\ISR_TMR.c **** #if defined(TMR1_ISR_SUPPORT)
  33:C:/Workspace/FW_Platform2_5/trunk/HAL/RN_RX200/McuModule\ISR_TMR.c **** int TMR1_ISR(void);
  34:C:/Workspace/FW_Platform2_5/trunk/HAL/RN_RX200/McuModule\ISR_TMR.c **** __attribute__((weak)) int TMR1_ISR(void)
  35:C:/Workspace/FW_Platform2_5/trunk/HAL/RN_RX200/McuModule\ISR_TMR.c **** {
  54                             		.loc 1 35 0
  36:C:/Workspace/FW_Platform2_5/trunk/HAL/RN_RX200/McuModule\ISR_TMR.c **** 	if( TMR_GetClearSourceId(HAL_TMR_MTU2) == TCNT_CLEARING_TGRA ){
  55                             		.loc 1 36 0
  56 0000 66 21                   		mov	#2, r1
  57 0002 05 00 00 00             		bsr	_TMR_GetClearSourceId
  58                             	.LVL5:
  59 0006 5B 11                   		movu.B	r1, r1
  60 0008 61 01                   		cmp	#0, r1
  61 000a 21 0A                   		bne	.L6
  37:C:/Workspace/FW_Platform2_5/trunk/HAL/RN_RX200/McuModule\ISR_TMR.c **** 		HWCNTR_ISR(HW_TMR_ID_2);
  62                             		.loc 1 37 0
  63 000c 66 21                   		mov	#2, r1
  64 000e 05 00 00 00             		bsr	_HWCNTR_ISR
  65                             	.LVL6:
  38:C:/Workspace/FW_Platform2_5/trunk/HAL/RN_RX200/McuModule\ISR_TMR.c **** 		return 1;
  66                             		.loc 1 38 0
  67 0012 2E 08                   		bra	.L7
  68                             	.L6:
  39:C:/Workspace/FW_Platform2_5/trunk/HAL/RN_RX200/McuModule\ISR_TMR.c **** 	}else{
  40:C:/Workspace/FW_Platform2_5/trunk/HAL/RN_RX200/McuModule\ISR_TMR.c **** 		HWTMRCH_ISR(TMR1_IDX);
  69                             		.loc 1 40 0
  70 0014 66 11                   		mov	#1, r1
  71 0016 05 00 00 00             		bsr	_HWTMRCH_ISR
  72                             	.LVL7:
  73                             		.balign 2,3,1
  74                             	.L7:
  41:C:/Workspace/FW_Platform2_5/trunk/HAL/RN_RX200/McuModule\ISR_TMR.c **** 		return 1;
  42:C:/Workspace/FW_Platform2_5/trunk/HAL/RN_RX200/McuModule\ISR_TMR.c **** 	}
  43:C:/Workspace/FW_Platform2_5/trunk/HAL/RN_RX200/McuModule\ISR_TMR.c ****     return 0;
  44:C:/Workspace/FW_Platform2_5/trunk/HAL/RN_RX200/McuModule\ISR_TMR.c **** }
  75                             		.loc 1 44 0
  76 001a 66 11                   		mov.L	#1, r1
  77 001c 02                      		rts
  78                             	.LFE2:
  80 001d 03                      		.section	.text.MTU2_TGIA2_ExceptionHandler,"ax",@progbits
  81                             		.global	_MTU2_TGIA2_ExceptionHandler
  83                             	_MTU2_TGIA2_ExceptionHandler:
  84                             	.LFB3:
  45:C:/Workspace/FW_Platform2_5/trunk/HAL/RN_RX200/McuModule\ISR_TMR.c **** 
  46:C:/Workspace/FW_Platform2_5/trunk/HAL/RN_RX200/McuModule\ISR_TMR.c **** int MTU2_TGIA2_ExceptionHandler(void* pDevice, int status)
  47:C:/Workspace/FW_Platform2_5/trunk/HAL/RN_RX200/McuModule\ISR_TMR.c **** {
  85                             		.loc 1 47 0
  86                             	.LVL8:
  48:C:/Workspace/FW_Platform2_5/trunk/HAL/RN_RX200/McuModule\ISR_TMR.c ****     return TMR1_ISR();
  87                             		.loc 1 48 0
  88 0000 04 00 00 00             		bra	_TMR1_ISR
  89                             	.LVL9:
  90                             	.LFE3:
  92                             		.section	.text.TMR2_ISR,"ax",@progbits
  93                             		.weak	_TMR2_ISR
  95                             	_TMR2_ISR:
  96                             	.LFB4:
  49:C:/Workspace/FW_Platform2_5/trunk/HAL/RN_RX200/McuModule\ISR_TMR.c **** }
  50:C:/Workspace/FW_Platform2_5/trunk/HAL/RN_RX200/McuModule\ISR_TMR.c **** #endif
  51:C:/Workspace/FW_Platform2_5/trunk/HAL/RN_RX200/McuModule\ISR_TMR.c **** 
  52:C:/Workspace/FW_Platform2_5/trunk/HAL/RN_RX200/McuModule\ISR_TMR.c **** #if defined(TMR2_ISR_SUPPORT)
  53:C:/Workspace/FW_Platform2_5/trunk/HAL/RN_RX200/McuModule\ISR_TMR.c **** int TMR2_ISR(void);
  54:C:/Workspace/FW_Platform2_5/trunk/HAL/RN_RX200/McuModule\ISR_TMR.c **** __attribute__((weak)) int TMR2_ISR(void)
  55:C:/Workspace/FW_Platform2_5/trunk/HAL/RN_RX200/McuModule\ISR_TMR.c **** {
  97                             		.loc 1 55 0
  56:C:/Workspace/FW_Platform2_5/trunk/HAL/RN_RX200/McuModule\ISR_TMR.c **** 	if( TMR_GetClearSourceId(HAL_TMR_MTU3) == TCNT_CLEARING_TGRA ){
  98                             		.loc 1 56 0
  99 0000 66 31                   		mov	#3, r1
 100 0002 05 00 00 00             		bsr	_TMR_GetClearSourceId
 101                             	.LVL10:
 102 0006 5B 11                   		movu.B	r1, r1
 103 0008 61 01                   		cmp	#0, r1
 104 000a 21 0A                   		bne	.L10
  57:C:/Workspace/FW_Platform2_5/trunk/HAL/RN_RX200/McuModule\ISR_TMR.c **** 		HWCNTR_ISR(HW_TMR_ID_3);
 105                             		.loc 1 57 0
 106 000c 66 31                   		mov	#3, r1
 107 000e 05 00 00 00             		bsr	_HWCNTR_ISR
 108                             	.LVL11:
  58:C:/Workspace/FW_Platform2_5/trunk/HAL/RN_RX200/McuModule\ISR_TMR.c **** 		return 1;
 109                             		.loc 1 58 0
 110 0012 2E 08                   		bra	.L11
 111                             	.L10:
  59:C:/Workspace/FW_Platform2_5/trunk/HAL/RN_RX200/McuModule\ISR_TMR.c **** 	}else{
  60:C:/Workspace/FW_Platform2_5/trunk/HAL/RN_RX200/McuModule\ISR_TMR.c **** 		HWTMRCH_ISR(TMR2_IDX);
 112                             		.loc 1 60 0
 113 0014 66 21                   		mov	#2, r1
 114 0016 05 00 00 00             		bsr	_HWTMRCH_ISR
 115                             	.LVL12:
 116                             		.balign 2,3,1
 117                             	.L11:
  61:C:/Workspace/FW_Platform2_5/trunk/HAL/RN_RX200/McuModule\ISR_TMR.c **** 		return 1;
  62:C:/Workspace/FW_Platform2_5/trunk/HAL/RN_RX200/McuModule\ISR_TMR.c **** 	}
  63:C:/Workspace/FW_Platform2_5/trunk/HAL/RN_RX200/McuModule\ISR_TMR.c ****     return 0;
  64:C:/Workspace/FW_Platform2_5/trunk/HAL/RN_RX200/McuModule\ISR_TMR.c **** }
 118                             		.loc 1 64 0
 119 001a 66 11                   		mov.L	#1, r1
 120 001c 02                      		rts
 121                             	.LFE4:
 123 001d 03                      		.section	.text.MTU3_TGIA3_ExceptionHandler,"ax",@progbits
 124                             		.global	_MTU3_TGIA3_ExceptionHandler
 126                             	_MTU3_TGIA3_ExceptionHandler:
 127                             	.LFB5:
  65:C:/Workspace/FW_Platform2_5/trunk/HAL/RN_RX200/McuModule\ISR_TMR.c **** 
  66:C:/Workspace/FW_Platform2_5/trunk/HAL/RN_RX200/McuModule\ISR_TMR.c **** int MTU3_TGIA3_ExceptionHandler(void* pDevice, int status)
  67:C:/Workspace/FW_Platform2_5/trunk/HAL/RN_RX200/McuModule\ISR_TMR.c **** {
 128                             		.loc 1 67 0
 129                             	.LVL13:
  68:C:/Workspace/FW_Platform2_5/trunk/HAL/RN_RX200/McuModule\ISR_TMR.c ****     return TMR2_ISR();
 130                             		.loc 1 68 0
 131 0000 04 00 00 00             		bra	_TMR2_ISR
 132                             	.LVL14:
 133                             	.LFE5:
 135                             		.section	.text.TMR3_ISR,"ax",@progbits
 136                             		.weak	_TMR3_ISR
 138                             	_TMR3_ISR:
 139                             	.LFB6:
  69:C:/Workspace/FW_Platform2_5/trunk/HAL/RN_RX200/McuModule\ISR_TMR.c **** }
  70:C:/Workspace/FW_Platform2_5/trunk/HAL/RN_RX200/McuModule\ISR_TMR.c **** #endif
  71:C:/Workspace/FW_Platform2_5/trunk/HAL/RN_RX200/McuModule\ISR_TMR.c **** 
  72:C:/Workspace/FW_Platform2_5/trunk/HAL/RN_RX200/McuModule\ISR_TMR.c **** #if defined(TMR3_ISR_SUPPORT)
  73:C:/Workspace/FW_Platform2_5/trunk/HAL/RN_RX200/McuModule\ISR_TMR.c **** int TMR3_ISR(void);
  74:C:/Workspace/FW_Platform2_5/trunk/HAL/RN_RX200/McuModule\ISR_TMR.c **** __attribute__((weak)) int TMR3_ISR(void)
  75:C:/Workspace/FW_Platform2_5/trunk/HAL/RN_RX200/McuModule\ISR_TMR.c **** {
 140                             		.loc 1 75 0
  76:C:/Workspace/FW_Platform2_5/trunk/HAL/RN_RX200/McuModule\ISR_TMR.c **** 	if( TMR_GetClearSourceId(HAL_TMR_MTU0) == TCNT_CLEARING_TGRA ){
 141                             		.loc 1 76 0
 142 0000 66 01                   		mov	#0, r1
 143 0002 05 00 00 00             		bsr	_TMR_GetClearSourceId
 144                             	.LVL15:
 145 0006 5B 11                   		movu.B	r1, r1
 146 0008 61 01                   		cmp	#0, r1
 147 000a 21 08                   		bne	.L14
  77:C:/Workspace/FW_Platform2_5/trunk/HAL/RN_RX200/McuModule\ISR_TMR.c **** 		HWCNTR_ISR(HW_TMR_ID_0);
 148                             		.loc 1 77 0
 149 000c 05 00 00 00             		bsr	_HWCNTR_ISR
 150                             	.LVL16:
  78:C:/Workspace/FW_Platform2_5/trunk/HAL/RN_RX200/McuModule\ISR_TMR.c **** 		return 1;
 151                             		.loc 1 78 0
 152 0010 2E 08                   		bra	.L15
 153                             	.L14:
  79:C:/Workspace/FW_Platform2_5/trunk/HAL/RN_RX200/McuModule\ISR_TMR.c **** 	}else{
  80:C:/Workspace/FW_Platform2_5/trunk/HAL/RN_RX200/McuModule\ISR_TMR.c **** 		HWTMRCH_ISR(TMR3_IDX);
 154                             		.loc 1 80 0
 155 0012 66 31                   		mov	#3, r1
 156 0014 05 00 00 00             		bsr	_HWTMRCH_ISR
 157                             	.LVL17:
 158                             		.balign 2,3,1
 159                             	.L15:
  81:C:/Workspace/FW_Platform2_5/trunk/HAL/RN_RX200/McuModule\ISR_TMR.c **** 		return 1;
  82:C:/Workspace/FW_Platform2_5/trunk/HAL/RN_RX200/McuModule\ISR_TMR.c **** 	}
  83:C:/Workspace/FW_Platform2_5/trunk/HAL/RN_RX200/McuModule\ISR_TMR.c **** }
 160                             		.loc 1 83 0
 161 0018 66 11                   		mov.L	#1, r1
 162 001a 02                      		rts
 163                             	.LFE6:
 165 001b 03                      		.section	.text.MTU0_TGIA0_ExceptionHandler,"ax",@progbits
 166                             		.global	_MTU0_TGIA0_ExceptionHandler
 168                             	_MTU0_TGIA0_ExceptionHandler:
 169                             	.LFB7:
  84:C:/Workspace/FW_Platform2_5/trunk/HAL/RN_RX200/McuModule\ISR_TMR.c **** 
  85:C:/Workspace/FW_Platform2_5/trunk/HAL/RN_RX200/McuModule\ISR_TMR.c **** int MTU0_TGIA0_ExceptionHandler(void* pDevice, int status)
  86:C:/Workspace/FW_Platform2_5/trunk/HAL/RN_RX200/McuModule\ISR_TMR.c **** {
 170                             		.loc 1 86 0
 171                             	.LVL18:
  87:C:/Workspace/FW_Platform2_5/trunk/HAL/RN_RX200/McuModule\ISR_TMR.c ****     return TMR3_ISR();
 172                             		.loc 1 87 0
 173 0000 04 00 00 00             		bra	_TMR3_ISR
 174                             	.LVL19:
 175                             	.LFE7:
 177                             		.section	.text.TMR4_ISR,"ax",@progbits
 178                             		.weak	_TMR4_ISR
 180                             	_TMR4_ISR:
 181                             	.LFB8:
  88:C:/Workspace/FW_Platform2_5/trunk/HAL/RN_RX200/McuModule\ISR_TMR.c **** }
  89:C:/Workspace/FW_Platform2_5/trunk/HAL/RN_RX200/McuModule\ISR_TMR.c **** #endif
  90:C:/Workspace/FW_Platform2_5/trunk/HAL/RN_RX200/McuModule\ISR_TMR.c **** 
  91:C:/Workspace/FW_Platform2_5/trunk/HAL/RN_RX200/McuModule\ISR_TMR.c **** #if defined(TMR4_ISR_SUPPORT)
  92:C:/Workspace/FW_Platform2_5/trunk/HAL/RN_RX200/McuModule\ISR_TMR.c **** int TMR4_ISR(void);
  93:C:/Workspace/FW_Platform2_5/trunk/HAL/RN_RX200/McuModule\ISR_TMR.c **** __attribute__((weak)) int TMR4_ISR(void)
  94:C:/Workspace/FW_Platform2_5/trunk/HAL/RN_RX200/McuModule\ISR_TMR.c **** {
 182                             		.loc 1 94 0
  95:C:/Workspace/FW_Platform2_5/trunk/HAL/RN_RX200/McuModule\ISR_TMR.c **** 	if( TMR_GetClearSourceId(HAL_TMR_MTU1) == TCNT_CLEARING_TGRA ){
 183                             		.loc 1 95 0
 184 0000 66 11                   		mov	#1, r1
 185 0002 05 00 00 00             		bsr	_TMR_GetClearSourceId
 186                             	.LVL20:
 187 0006 5B 11                   		movu.B	r1, r1
 188 0008 61 01                   		cmp	#0, r1
 189 000a 21 0A                   		bne	.L18
  96:C:/Workspace/FW_Platform2_5/trunk/HAL/RN_RX200/McuModule\ISR_TMR.c **** 		HWCNTR_ISR(HW_TMR_ID_1);
 190                             		.loc 1 96 0
 191 000c 66 11                   		mov	#1, r1
 192 000e 05 00 00 00             		bsr	_HWCNTR_ISR
 193                             	.LVL21:
  97:C:/Workspace/FW_Platform2_5/trunk/HAL/RN_RX200/McuModule\ISR_TMR.c **** 		return 1;
 194                             		.loc 1 97 0
 195 0012 2E 08                   		bra	.L19
 196                             	.L18:
  98:C:/Workspace/FW_Platform2_5/trunk/HAL/RN_RX200/McuModule\ISR_TMR.c **** 	}else{
  99:C:/Workspace/FW_Platform2_5/trunk/HAL/RN_RX200/McuModule\ISR_TMR.c **** 		HWTMRCH_ISR(TMR4_IDX);
 197                             		.loc 1 99 0
 198 0014 66 41                   		mov	#4, r1
 199 0016 05 00 00 00             		bsr	_HWTMRCH_ISR
 200                             	.LVL22:
 201                             		.balign 2,3,1
 202                             	.L19:
 100:C:/Workspace/FW_Platform2_5/trunk/HAL/RN_RX200/McuModule\ISR_TMR.c **** 		return 1;
 101:C:/Workspace/FW_Platform2_5/trunk/HAL/RN_RX200/McuModule\ISR_TMR.c **** 	}
 102:C:/Workspace/FW_Platform2_5/trunk/HAL/RN_RX200/McuModule\ISR_TMR.c ****     return 0;
 103:C:/Workspace/FW_Platform2_5/trunk/HAL/RN_RX200/McuModule\ISR_TMR.c **** }
 203                             		.loc 1 103 0
 204 001a 66 11                   		mov.L	#1, r1
 205 001c 02                      		rts
 206                             	.LFE8:
 208 001d 03                      		.section	.text.MTU1_TGIA1_ExceptionHandler,"ax",@progbits
 209                             		.global	_MTU1_TGIA1_ExceptionHandler
 211                             	_MTU1_TGIA1_ExceptionHandler:
 212                             	.LFB9:
 104:C:/Workspace/FW_Platform2_5/trunk/HAL/RN_RX200/McuModule\ISR_TMR.c **** 
 105:C:/Workspace/FW_Platform2_5/trunk/HAL/RN_RX200/McuModule\ISR_TMR.c **** int MTU1_TGIA1_ExceptionHandler(void* pDevice, int status)
 106:C:/Workspace/FW_Platform2_5/trunk/HAL/RN_RX200/McuModule\ISR_TMR.c **** {
 213                             		.loc 1 106 0
 214                             	.LVL23:
 107:C:/Workspace/FW_Platform2_5/trunk/HAL/RN_RX200/McuModule\ISR_TMR.c ****     return TMR4_ISR();
 215                             		.loc 1 107 0
 216 0000 04 00 00 00             		bra	_TMR4_ISR
 217                             	.LVL24:
 218                             	.LFE9:
 220                             		.section	.text.TMR5_ISR,"ax",@progbits
 221                             		.weak	_TMR5_ISR
 223                             	_TMR5_ISR:
 224                             	.LFB10:
 108:C:/Workspace/FW_Platform2_5/trunk/HAL/RN_RX200/McuModule\ISR_TMR.c **** }
 109:C:/Workspace/FW_Platform2_5/trunk/HAL/RN_RX200/McuModule\ISR_TMR.c **** #endif
 110:C:/Workspace/FW_Platform2_5/trunk/HAL/RN_RX200/McuModule\ISR_TMR.c **** 
 111:C:/Workspace/FW_Platform2_5/trunk/HAL/RN_RX200/McuModule\ISR_TMR.c **** #if defined(TMR5_ISR_SUPPORT)
 112:C:/Workspace/FW_Platform2_5/trunk/HAL/RN_RX200/McuModule\ISR_TMR.c **** int TMR5_ISR(void);
 113:C:/Workspace/FW_Platform2_5/trunk/HAL/RN_RX200/McuModule\ISR_TMR.c **** __attribute__((weak)) int TMR5_ISR(void)
 114:C:/Workspace/FW_Platform2_5/trunk/HAL/RN_RX200/McuModule\ISR_TMR.c **** {
 225                             		.loc 1 114 0
 115:C:/Workspace/FW_Platform2_5/trunk/HAL/RN_RX200/McuModule\ISR_TMR.c **** 	if( TMR_GetClearSourceId(HAL_TMR_MTU3) == TCNT_CLEARING_TGRC ){
 226                             		.loc 1 115 0
 227 0000 66 31                   		mov	#3, r1
 228 0002 05 00 00 00             		bsr	_TMR_GetClearSourceId
 229                             	.LVL25:
 230 0006 5B 11                   		movu.B	r1, r1
 231 0008 61 21                   		cmp	#2, r1
 232 000a 21 0A                   		bne	.L22
 116:C:/Workspace/FW_Platform2_5/trunk/HAL/RN_RX200/McuModule\ISR_TMR.c **** 		HWCNTR_ISR(HW_TMR_ID_3);
 233                             		.loc 1 116 0
 234 000c 66 31                   		mov	#3, r1
 235 000e 05 00 00 00             		bsr	_HWCNTR_ISR
 236                             	.LVL26:
 117:C:/Workspace/FW_Platform2_5/trunk/HAL/RN_RX200/McuModule\ISR_TMR.c **** 		return 1;
 237                             		.loc 1 117 0
 238 0012 2E 08                   		bra	.L23
 239                             	.L22:
 118:C:/Workspace/FW_Platform2_5/trunk/HAL/RN_RX200/McuModule\ISR_TMR.c **** 	}else{
 119:C:/Workspace/FW_Platform2_5/trunk/HAL/RN_RX200/McuModule\ISR_TMR.c **** 		HWTMRCH_ISR(TMR5_IDX);
 240                             		.loc 1 119 0
 241 0014 66 51                   		mov	#5, r1
 242 0016 05 00 00 00             		bsr	_HWTMRCH_ISR
 243                             	.LVL27:
 244                             		.balign 2,3,1
 245                             	.L23:
 120:C:/Workspace/FW_Platform2_5/trunk/HAL/RN_RX200/McuModule\ISR_TMR.c **** 		return 1;
 121:C:/Workspace/FW_Platform2_5/trunk/HAL/RN_RX200/McuModule\ISR_TMR.c **** 	}
 122:C:/Workspace/FW_Platform2_5/trunk/HAL/RN_RX200/McuModule\ISR_TMR.c ****     return 0;
 123:C:/Workspace/FW_Platform2_5/trunk/HAL/RN_RX200/McuModule\ISR_TMR.c **** }
 246                             		.loc 1 123 0
 247 001a 66 11                   		mov.L	#1, r1
 248 001c 02                      		rts
 249                             	.LFE10:
 251 001d 03                      		.section	.text.MTU3_TGIC3_ExceptionHandler,"ax",@progbits
 252                             		.global	_MTU3_TGIC3_ExceptionHandler
 254                             	_MTU3_TGIC3_ExceptionHandler:
 255                             	.LFB11:
 124:C:/Workspace/FW_Platform2_5/trunk/HAL/RN_RX200/McuModule\ISR_TMR.c **** 
 125:C:/Workspace/FW_Platform2_5/trunk/HAL/RN_RX200/McuModule\ISR_TMR.c **** int MTU3_TGIC3_ExceptionHandler(void* pDevice, int status)
 126:C:/Workspace/FW_Platform2_5/trunk/HAL/RN_RX200/McuModule\ISR_TMR.c **** {
 256                             		.loc 1 126 0
 257                             	.LVL28:
 127:C:/Workspace/FW_Platform2_5/trunk/HAL/RN_RX200/McuModule\ISR_TMR.c ****     return TMR5_ISR();
 258                             		.loc 1 127 0
 259 0000 04 00 00 00             		bra	_TMR5_ISR
 260                             	.LVL29:
 261                             	.LFE11:
 263                             		.section	.text.TMR6_ISR,"ax",@progbits
 264                             		.weak	_TMR6_ISR
 266                             	_TMR6_ISR:
 267                             	.LFB12:
 128:C:/Workspace/FW_Platform2_5/trunk/HAL/RN_RX200/McuModule\ISR_TMR.c **** }
 129:C:/Workspace/FW_Platform2_5/trunk/HAL/RN_RX200/McuModule\ISR_TMR.c **** #endif
 130:C:/Workspace/FW_Platform2_5/trunk/HAL/RN_RX200/McuModule\ISR_TMR.c **** 
 131:C:/Workspace/FW_Platform2_5/trunk/HAL/RN_RX200/McuModule\ISR_TMR.c **** #if defined(TMR6_ISR_SUPPORT)
 132:C:/Workspace/FW_Platform2_5/trunk/HAL/RN_RX200/McuModule\ISR_TMR.c **** int TMR6_ISR(void);
 133:C:/Workspace/FW_Platform2_5/trunk/HAL/RN_RX200/McuModule\ISR_TMR.c **** __attribute__((weak)) int TMR6_ISR(void)
 134:C:/Workspace/FW_Platform2_5/trunk/HAL/RN_RX200/McuModule\ISR_TMR.c **** {
 268                             		.loc 1 134 0
 135:C:/Workspace/FW_Platform2_5/trunk/HAL/RN_RX200/McuModule\ISR_TMR.c **** 	if( TMR_GetClearSourceId(HAL_TMR_MTU4) == TCNT_CLEARING_TGRC ){
 269                             		.loc 1 135 0
 270 0000 66 41                   		mov	#4, r1
 271 0002 05 00 00 00             		bsr	_TMR_GetClearSourceId
 272                             	.LVL30:
 273 0006 5B 11                   		movu.B	r1, r1
 274 0008 61 21                   		cmp	#2, r1
 275 000a 21 0A                   		bne	.L26
 136:C:/Workspace/FW_Platform2_5/trunk/HAL/RN_RX200/McuModule\ISR_TMR.c **** 		HWCNTR_ISR(HW_TMR_ID_4);
 276                             		.loc 1 136 0
 277 000c 66 41                   		mov	#4, r1
 278 000e 05 00 00 00             		bsr	_HWCNTR_ISR
 279                             	.LVL31:
 137:C:/Workspace/FW_Platform2_5/trunk/HAL/RN_RX200/McuModule\ISR_TMR.c **** 		return 1;
 280                             		.loc 1 137 0
 281 0012 2E 08                   		bra	.L27
 282                             	.L26:
 138:C:/Workspace/FW_Platform2_5/trunk/HAL/RN_RX200/McuModule\ISR_TMR.c **** 	}else{
 139:C:/Workspace/FW_Platform2_5/trunk/HAL/RN_RX200/McuModule\ISR_TMR.c **** 		HWTMRCH_ISR(TMR6_IDX);
 283                             		.loc 1 139 0
 284 0014 66 61                   		mov	#6, r1
 285 0016 05 00 00 00             		bsr	_HWTMRCH_ISR
 286                             	.LVL32:
 287                             		.balign 2,3,1
 288                             	.L27:
 140:C:/Workspace/FW_Platform2_5/trunk/HAL/RN_RX200/McuModule\ISR_TMR.c **** 		return 1;
 141:C:/Workspace/FW_Platform2_5/trunk/HAL/RN_RX200/McuModule\ISR_TMR.c **** 	}
 142:C:/Workspace/FW_Platform2_5/trunk/HAL/RN_RX200/McuModule\ISR_TMR.c ****     return 0;
 143:C:/Workspace/FW_Platform2_5/trunk/HAL/RN_RX200/McuModule\ISR_TMR.c **** }
 289                             		.loc 1 143 0
 290 001a 66 11                   		mov.L	#1, r1
 291 001c 02                      		rts
 292                             	.LFE12:
 294 001d 03                      		.section	.text.MTU4_TGIC4_ExceptionHandler,"ax",@progbits
 295                             		.global	_MTU4_TGIC4_ExceptionHandler
 297                             	_MTU4_TGIC4_ExceptionHandler:
 298                             	.LFB13:
 144:C:/Workspace/FW_Platform2_5/trunk/HAL/RN_RX200/McuModule\ISR_TMR.c **** 
 145:C:/Workspace/FW_Platform2_5/trunk/HAL/RN_RX200/McuModule\ISR_TMR.c **** int MTU4_TGIC4_ExceptionHandler(void* pDevice, int status)
 146:C:/Workspace/FW_Platform2_5/trunk/HAL/RN_RX200/McuModule\ISR_TMR.c **** {
 299                             		.loc 1 146 0
 300                             	.LVL33:
 147:C:/Workspace/FW_Platform2_5/trunk/HAL/RN_RX200/McuModule\ISR_TMR.c ****     return TMR6_ISR();
 301                             		.loc 1 147 0
 302 0000 04 00 00 00             		bra	_TMR6_ISR
 303                             	.LVL34:
 304                             	.LFE13:
 306                             		.section	.text.TMR7_ISR,"ax",@progbits
 307                             		.weak	_TMR7_ISR
 309                             	_TMR7_ISR:
 310                             	.LFB14:
 148:C:/Workspace/FW_Platform2_5/trunk/HAL/RN_RX200/McuModule\ISR_TMR.c **** }
 149:C:/Workspace/FW_Platform2_5/trunk/HAL/RN_RX200/McuModule\ISR_TMR.c **** #endif
 150:C:/Workspace/FW_Platform2_5/trunk/HAL/RN_RX200/McuModule\ISR_TMR.c **** 
 151:C:/Workspace/FW_Platform2_5/trunk/HAL/RN_RX200/McuModule\ISR_TMR.c **** #if defined(TMR7_ISR_SUPPORT)
 152:C:/Workspace/FW_Platform2_5/trunk/HAL/RN_RX200/McuModule\ISR_TMR.c **** int TMR7_ISR(void);
 153:C:/Workspace/FW_Platform2_5/trunk/HAL/RN_RX200/McuModule\ISR_TMR.c **** __attribute__((weak)) int TMR7_ISR(void)
 154:C:/Workspace/FW_Platform2_5/trunk/HAL/RN_RX200/McuModule\ISR_TMR.c **** {
 311                             		.loc 1 154 0
 155:C:/Workspace/FW_Platform2_5/trunk/HAL/RN_RX200/McuModule\ISR_TMR.c **** 	if( TMR_GetClearSourceId(HAL_TMR_MTU4) == TCNT_CLEARING_TGRA ){
 312                             		.loc 1 155 0
 313 0000 66 41                   		mov	#4, r1
 314 0002 05 00 00 00             		bsr	_TMR_GetClearSourceId
 315                             	.LVL35:
 316 0006 5B 11                   		movu.B	r1, r1
 317 0008 61 01                   		cmp	#0, r1
 318 000a 21 0A                   		bne	.L30
 156:C:/Workspace/FW_Platform2_5/trunk/HAL/RN_RX200/McuModule\ISR_TMR.c **** 		HWCNTR_ISR(HW_TMR_ID_4);
 319                             		.loc 1 156 0
 320 000c 66 41                   		mov	#4, r1
 321 000e 05 00 00 00             		bsr	_HWCNTR_ISR
 322                             	.LVL36:
 157:C:/Workspace/FW_Platform2_5/trunk/HAL/RN_RX200/McuModule\ISR_TMR.c **** 		return 1;
 323                             		.loc 1 157 0
 324 0012 2E 08                   		bra	.L31
 325                             	.L30:
 158:C:/Workspace/FW_Platform2_5/trunk/HAL/RN_RX200/McuModule\ISR_TMR.c **** 	}else{
 159:C:/Workspace/FW_Platform2_5/trunk/HAL/RN_RX200/McuModule\ISR_TMR.c **** 		HWTMRCH_ISR(TMR7_IDX);
 326                             		.loc 1 159 0
 327 0014 66 71                   		mov	#7, r1
 328 0016 05 00 00 00             		bsr	_HWTMRCH_ISR
 329                             	.LVL37:
 330                             		.balign 2,3,1
 331                             	.L31:
 160:C:/Workspace/FW_Platform2_5/trunk/HAL/RN_RX200/McuModule\ISR_TMR.c **** 		return 1;
 161:C:/Workspace/FW_Platform2_5/trunk/HAL/RN_RX200/McuModule\ISR_TMR.c **** 	}
 162:C:/Workspace/FW_Platform2_5/trunk/HAL/RN_RX200/McuModule\ISR_TMR.c ****     return 0;
 163:C:/Workspace/FW_Platform2_5/trunk/HAL/RN_RX200/McuModule\ISR_TMR.c **** }
 332                             		.loc 1 163 0
 333 001a 66 11                   		mov.L	#1, r1
 334 001c 02                      		rts
 335                             	.LFE14:
 337 001d 03                      		.section	.text.MTU4_TGIA4_ExceptionHandler,"ax",@progbits
 338                             		.global	_MTU4_TGIA4_ExceptionHandler
 340                             	_MTU4_TGIA4_ExceptionHandler:
 341                             	.LFB15:
 164:C:/Workspace/FW_Platform2_5/trunk/HAL/RN_RX200/McuModule\ISR_TMR.c **** 
 165:C:/Workspace/FW_Platform2_5/trunk/HAL/RN_RX200/McuModule\ISR_TMR.c **** int MTU4_TGIA4_ExceptionHandler(void* pDevice, int status)
 166:C:/Workspace/FW_Platform2_5/trunk/HAL/RN_RX200/McuModule\ISR_TMR.c **** {
 342                             		.loc 1 166 0
 343                             	.LVL38:
 167:C:/Workspace/FW_Platform2_5/trunk/HAL/RN_RX200/McuModule\ISR_TMR.c ****     return TMR7_ISR();
 344                             		.loc 1 167 0
 345 0000 04 00 00 00             		bra	_TMR7_ISR
 346                             	.LVL39:
 347                             	.LFE15:
 349                             		.section	.text.TCIV0_ISR,"ax",@progbits
 350                             		.weak	_TCIV0_ISR
 352                             	_TCIV0_ISR:
 353                             	.LFB16:
 168:C:/Workspace/FW_Platform2_5/trunk/HAL/RN_RX200/McuModule\ISR_TMR.c **** }
 169:C:/Workspace/FW_Platform2_5/trunk/HAL/RN_RX200/McuModule\ISR_TMR.c **** #endif
 170:C:/Workspace/FW_Platform2_5/trunk/HAL/RN_RX200/McuModule\ISR_TMR.c **** 
 171:C:/Workspace/FW_Platform2_5/trunk/HAL/RN_RX200/McuModule\ISR_TMR.c **** 
 172:C:/Workspace/FW_Platform2_5/trunk/HAL/RN_RX200/McuModule\ISR_TMR.c **** #if defined(TMR8_ISR_SUPPORT)
 173:C:/Workspace/FW_Platform2_5/trunk/HAL/RN_RX200/McuModule\ISR_TMR.c **** int TMR8_ISR(void);
 174:C:/Workspace/FW_Platform2_5/trunk/HAL/RN_RX200/McuModule\ISR_TMR.c **** __attribute__((weak)) int TMR8_ISR(void)
 175:C:/Workspace/FW_Platform2_5/trunk/HAL/RN_RX200/McuModule\ISR_TMR.c **** {
 176:C:/Workspace/FW_Platform2_5/trunk/HAL/RN_RX200/McuModule\ISR_TMR.c **** 	if( TMR_GetClearSourceId(HAL_TMR_MTU3) == TCNT_CLEARING_TGRD ){
 177:C:/Workspace/FW_Platform2_5/trunk/HAL/RN_RX200/McuModule\ISR_TMR.c **** 		HWCNTR_ISR(HW_TMR_ID_3);
 178:C:/Workspace/FW_Platform2_5/trunk/HAL/RN_RX200/McuModule\ISR_TMR.c **** 		return 1;
 179:C:/Workspace/FW_Platform2_5/trunk/HAL/RN_RX200/McuModule\ISR_TMR.c **** 	}else{
 180:C:/Workspace/FW_Platform2_5/trunk/HAL/RN_RX200/McuModule\ISR_TMR.c **** 		HWTMRCH_ISR(TMR8_IDX);
 181:C:/Workspace/FW_Platform2_5/trunk/HAL/RN_RX200/McuModule\ISR_TMR.c **** 		return 1;
 182:C:/Workspace/FW_Platform2_5/trunk/HAL/RN_RX200/McuModule\ISR_TMR.c **** 	}
 183:C:/Workspace/FW_Platform2_5/trunk/HAL/RN_RX200/McuModule\ISR_TMR.c ****     return 0;
 184:C:/Workspace/FW_Platform2_5/trunk/HAL/RN_RX200/McuModule\ISR_TMR.c **** }
 185:C:/Workspace/FW_Platform2_5/trunk/HAL/RN_RX200/McuModule\ISR_TMR.c **** 
 186:C:/Workspace/FW_Platform2_5/trunk/HAL/RN_RX200/McuModule\ISR_TMR.c **** int MTU3_TGID3_ExceptionHandler(void* pDevice, int status)
 187:C:/Workspace/FW_Platform2_5/trunk/HAL/RN_RX200/McuModule\ISR_TMR.c **** {
 188:C:/Workspace/FW_Platform2_5/trunk/HAL/RN_RX200/McuModule\ISR_TMR.c ****     return TMR8_ISR();
 189:C:/Workspace/FW_Platform2_5/trunk/HAL/RN_RX200/McuModule\ISR_TMR.c **** }
 190:C:/Workspace/FW_Platform2_5/trunk/HAL/RN_RX200/McuModule\ISR_TMR.c **** #endif
 191:C:/Workspace/FW_Platform2_5/trunk/HAL/RN_RX200/McuModule\ISR_TMR.c **** 
 192:C:/Workspace/FW_Platform2_5/trunk/HAL/RN_RX200/McuModule\ISR_TMR.c **** 
 193:C:/Workspace/FW_Platform2_5/trunk/HAL/RN_RX200/McuModule\ISR_TMR.c **** #if defined(TMR9_ISR_SUPPORT)
 194:C:/Workspace/FW_Platform2_5/trunk/HAL/RN_RX200/McuModule\ISR_TMR.c **** int TMR9_ISR(void);
 195:C:/Workspace/FW_Platform2_5/trunk/HAL/RN_RX200/McuModule\ISR_TMR.c **** __attribute__((weak)) int TMR9_ISR(void)
 196:C:/Workspace/FW_Platform2_5/trunk/HAL/RN_RX200/McuModule\ISR_TMR.c **** {
 197:C:/Workspace/FW_Platform2_5/trunk/HAL/RN_RX200/McuModule\ISR_TMR.c **** 	if( TMR_GetClearSourceId(HAL_TMR_MTU4) == TCNT_CLEARING_TGRB ){
 198:C:/Workspace/FW_Platform2_5/trunk/HAL/RN_RX200/McuModule\ISR_TMR.c **** 		HWCNTR_ISR(HW_TMR_ID_4);
 199:C:/Workspace/FW_Platform2_5/trunk/HAL/RN_RX200/McuModule\ISR_TMR.c **** 		return 1;
 200:C:/Workspace/FW_Platform2_5/trunk/HAL/RN_RX200/McuModule\ISR_TMR.c **** 	}else{
 201:C:/Workspace/FW_Platform2_5/trunk/HAL/RN_RX200/McuModule\ISR_TMR.c **** 		HWTMRCH_ISR(TMR9_IDX);
 202:C:/Workspace/FW_Platform2_5/trunk/HAL/RN_RX200/McuModule\ISR_TMR.c **** 		return 1;
 203:C:/Workspace/FW_Platform2_5/trunk/HAL/RN_RX200/McuModule\ISR_TMR.c **** 	}
 204:C:/Workspace/FW_Platform2_5/trunk/HAL/RN_RX200/McuModule\ISR_TMR.c ****     return 0;
 205:C:/Workspace/FW_Platform2_5/trunk/HAL/RN_RX200/McuModule\ISR_TMR.c **** }
 206:C:/Workspace/FW_Platform2_5/trunk/HAL/RN_RX200/McuModule\ISR_TMR.c **** 
 207:C:/Workspace/FW_Platform2_5/trunk/HAL/RN_RX200/McuModule\ISR_TMR.c **** int MTU4_TGIB4_ExceptionHandler(void* pDevice, int status)
 208:C:/Workspace/FW_Platform2_5/trunk/HAL/RN_RX200/McuModule\ISR_TMR.c **** {
 209:C:/Workspace/FW_Platform2_5/trunk/HAL/RN_RX200/McuModule\ISR_TMR.c ****     return TMR9_ISR();
 210:C:/Workspace/FW_Platform2_5/trunk/HAL/RN_RX200/McuModule\ISR_TMR.c **** }
 211:C:/Workspace/FW_Platform2_5/trunk/HAL/RN_RX200/McuModule\ISR_TMR.c **** #endif
 212:C:/Workspace/FW_Platform2_5/trunk/HAL/RN_RX200/McuModule\ISR_TMR.c **** 
 213:C:/Workspace/FW_Platform2_5/trunk/HAL/RN_RX200/McuModule\ISR_TMR.c **** #elif defined(EDGE_MODULE_LP1_0258_02) || defined(EDGE_MODULE_LP1_0258_04)
 214:C:/Workspace/FW_Platform2_5/trunk/HAL/RN_RX200/McuModule\ISR_TMR.c **** 
 215:C:/Workspace/FW_Platform2_5/trunk/HAL/RN_RX200/McuModule\ISR_TMR.c **** 
 216:C:/Workspace/FW_Platform2_5/trunk/HAL/RN_RX200/McuModule\ISR_TMR.c **** #if defined(TMR0_ISR_SUPPORT)
 217:C:/Workspace/FW_Platform2_5/trunk/HAL/RN_RX200/McuModule\ISR_TMR.c **** int TMR0_ISR(void);
 218:C:/Workspace/FW_Platform2_5/trunk/HAL/RN_RX200/McuModule\ISR_TMR.c **** __attribute__((weak)) int TMR0_ISR(void)
 219:C:/Workspace/FW_Platform2_5/trunk/HAL/RN_RX200/McuModule\ISR_TMR.c **** {
 220:C:/Workspace/FW_Platform2_5/trunk/HAL/RN_RX200/McuModule\ISR_TMR.c **** 	if( TMR_GetClearSourceId(HAL_TMR_MTU0) == TCNT_CLEARING_TGRA ){
 221:C:/Workspace/FW_Platform2_5/trunk/HAL/RN_RX200/McuModule\ISR_TMR.c **** 		HWCNTR_ISR(HW_TMR_ID_0);
 222:C:/Workspace/FW_Platform2_5/trunk/HAL/RN_RX200/McuModule\ISR_TMR.c **** 		return 1;
 223:C:/Workspace/FW_Platform2_5/trunk/HAL/RN_RX200/McuModule\ISR_TMR.c **** 	}else{
 224:C:/Workspace/FW_Platform2_5/trunk/HAL/RN_RX200/McuModule\ISR_TMR.c **** 		HWTMRCH_ISR(TMR0_IDX);
 225:C:/Workspace/FW_Platform2_5/trunk/HAL/RN_RX200/McuModule\ISR_TMR.c **** 		return 1;
 226:C:/Workspace/FW_Platform2_5/trunk/HAL/RN_RX200/McuModule\ISR_TMR.c **** 	}
 227:C:/Workspace/FW_Platform2_5/trunk/HAL/RN_RX200/McuModule\ISR_TMR.c ****     return 0;
 228:C:/Workspace/FW_Platform2_5/trunk/HAL/RN_RX200/McuModule\ISR_TMR.c **** }
 229:C:/Workspace/FW_Platform2_5/trunk/HAL/RN_RX200/McuModule\ISR_TMR.c **** 
 230:C:/Workspace/FW_Platform2_5/trunk/HAL/RN_RX200/McuModule\ISR_TMR.c **** 
 231:C:/Workspace/FW_Platform2_5/trunk/HAL/RN_RX200/McuModule\ISR_TMR.c **** int MTU0_TGIA0_ExceptionHandler(void* pDevice, int status)
 232:C:/Workspace/FW_Platform2_5/trunk/HAL/RN_RX200/McuModule\ISR_TMR.c **** {
 233:C:/Workspace/FW_Platform2_5/trunk/HAL/RN_RX200/McuModule\ISR_TMR.c ****     return TMR0_ISR();
 234:C:/Workspace/FW_Platform2_5/trunk/HAL/RN_RX200/McuModule\ISR_TMR.c **** }
 235:C:/Workspace/FW_Platform2_5/trunk/HAL/RN_RX200/McuModule\ISR_TMR.c **** #endif
 236:C:/Workspace/FW_Platform2_5/trunk/HAL/RN_RX200/McuModule\ISR_TMR.c **** 
 237:C:/Workspace/FW_Platform2_5/trunk/HAL/RN_RX200/McuModule\ISR_TMR.c **** #if defined(TMR1_ISR_SUPPORT)
 238:C:/Workspace/FW_Platform2_5/trunk/HAL/RN_RX200/McuModule\ISR_TMR.c **** int TMR1_ISR(void);
 239:C:/Workspace/FW_Platform2_5/trunk/HAL/RN_RX200/McuModule\ISR_TMR.c **** __attribute__((weak)) int TMR1_ISR(void)
 240:C:/Workspace/FW_Platform2_5/trunk/HAL/RN_RX200/McuModule\ISR_TMR.c **** {
 241:C:/Workspace/FW_Platform2_5/trunk/HAL/RN_RX200/McuModule\ISR_TMR.c **** 	if( TMR_GetClearSourceId(HAL_TMR_MTU3) == TCNT_CLEARING_TGRA ){
 242:C:/Workspace/FW_Platform2_5/trunk/HAL/RN_RX200/McuModule\ISR_TMR.c **** 		HWCNTR_ISR(HW_TMR_ID_3);
 243:C:/Workspace/FW_Platform2_5/trunk/HAL/RN_RX200/McuModule\ISR_TMR.c **** 		return 1;
 244:C:/Workspace/FW_Platform2_5/trunk/HAL/RN_RX200/McuModule\ISR_TMR.c **** 	}else{
 245:C:/Workspace/FW_Platform2_5/trunk/HAL/RN_RX200/McuModule\ISR_TMR.c **** 		HWTMRCH_ISR(TMR1_IDX);
 246:C:/Workspace/FW_Platform2_5/trunk/HAL/RN_RX200/McuModule\ISR_TMR.c **** 		return 1;
 247:C:/Workspace/FW_Platform2_5/trunk/HAL/RN_RX200/McuModule\ISR_TMR.c **** 	}
 248:C:/Workspace/FW_Platform2_5/trunk/HAL/RN_RX200/McuModule\ISR_TMR.c ****     return 0;
 249:C:/Workspace/FW_Platform2_5/trunk/HAL/RN_RX200/McuModule\ISR_TMR.c **** }
 250:C:/Workspace/FW_Platform2_5/trunk/HAL/RN_RX200/McuModule\ISR_TMR.c **** 
 251:C:/Workspace/FW_Platform2_5/trunk/HAL/RN_RX200/McuModule\ISR_TMR.c **** int MTU3_TGIA3_ExceptionHandler(void* pDevice, int status)
 252:C:/Workspace/FW_Platform2_5/trunk/HAL/RN_RX200/McuModule\ISR_TMR.c **** {
 253:C:/Workspace/FW_Platform2_5/trunk/HAL/RN_RX200/McuModule\ISR_TMR.c ****     return TMR1_ISR();
 254:C:/Workspace/FW_Platform2_5/trunk/HAL/RN_RX200/McuModule\ISR_TMR.c **** }
 255:C:/Workspace/FW_Platform2_5/trunk/HAL/RN_RX200/McuModule\ISR_TMR.c **** #endif
 256:C:/Workspace/FW_Platform2_5/trunk/HAL/RN_RX200/McuModule\ISR_TMR.c **** 
 257:C:/Workspace/FW_Platform2_5/trunk/HAL/RN_RX200/McuModule\ISR_TMR.c **** #if defined(TMR2_ISR_SUPPORT)
 258:C:/Workspace/FW_Platform2_5/trunk/HAL/RN_RX200/McuModule\ISR_TMR.c **** int TMR2_ISR(void);
 259:C:/Workspace/FW_Platform2_5/trunk/HAL/RN_RX200/McuModule\ISR_TMR.c **** __attribute__((weak)) int TMR2_ISR(void)
 260:C:/Workspace/FW_Platform2_5/trunk/HAL/RN_RX200/McuModule\ISR_TMR.c **** {
 261:C:/Workspace/FW_Platform2_5/trunk/HAL/RN_RX200/McuModule\ISR_TMR.c **** 	if( TMR_GetClearSourceId(HAL_TMR_MTU2) == TCNT_CLEARING_TGRA ){
 262:C:/Workspace/FW_Platform2_5/trunk/HAL/RN_RX200/McuModule\ISR_TMR.c **** 		HWCNTR_ISR(HW_TMR_ID_2);
 263:C:/Workspace/FW_Platform2_5/trunk/HAL/RN_RX200/McuModule\ISR_TMR.c **** 		return 1;
 264:C:/Workspace/FW_Platform2_5/trunk/HAL/RN_RX200/McuModule\ISR_TMR.c **** 	}else{
 265:C:/Workspace/FW_Platform2_5/trunk/HAL/RN_RX200/McuModule\ISR_TMR.c **** 		HWTMRCH_ISR(TMR2_IDX);
 266:C:/Workspace/FW_Platform2_5/trunk/HAL/RN_RX200/McuModule\ISR_TMR.c **** 		return 1;
 267:C:/Workspace/FW_Platform2_5/trunk/HAL/RN_RX200/McuModule\ISR_TMR.c **** 	}
 268:C:/Workspace/FW_Platform2_5/trunk/HAL/RN_RX200/McuModule\ISR_TMR.c ****     return 0;
 269:C:/Workspace/FW_Platform2_5/trunk/HAL/RN_RX200/McuModule\ISR_TMR.c **** }
 270:C:/Workspace/FW_Platform2_5/trunk/HAL/RN_RX200/McuModule\ISR_TMR.c **** 
 271:C:/Workspace/FW_Platform2_5/trunk/HAL/RN_RX200/McuModule\ISR_TMR.c **** int MTU2_TGIA2_ExceptionHandler(void* pDevice, int status)
 272:C:/Workspace/FW_Platform2_5/trunk/HAL/RN_RX200/McuModule\ISR_TMR.c **** {
 273:C:/Workspace/FW_Platform2_5/trunk/HAL/RN_RX200/McuModule\ISR_TMR.c ****     return TMR2_ISR();
 274:C:/Workspace/FW_Platform2_5/trunk/HAL/RN_RX200/McuModule\ISR_TMR.c **** }
 275:C:/Workspace/FW_Platform2_5/trunk/HAL/RN_RX200/McuModule\ISR_TMR.c **** #endif
 276:C:/Workspace/FW_Platform2_5/trunk/HAL/RN_RX200/McuModule\ISR_TMR.c **** 
 277:C:/Workspace/FW_Platform2_5/trunk/HAL/RN_RX200/McuModule\ISR_TMR.c **** #if defined(TMR3_ISR_SUPPORT)
 278:C:/Workspace/FW_Platform2_5/trunk/HAL/RN_RX200/McuModule\ISR_TMR.c **** int TMR3_ISR(void);
 279:C:/Workspace/FW_Platform2_5/trunk/HAL/RN_RX200/McuModule\ISR_TMR.c **** __attribute__((weak)) int TMR3_ISR(void)
 280:C:/Workspace/FW_Platform2_5/trunk/HAL/RN_RX200/McuModule\ISR_TMR.c **** {
 281:C:/Workspace/FW_Platform2_5/trunk/HAL/RN_RX200/McuModule\ISR_TMR.c **** 	if( TMR_GetClearSourceId(HAL_TMR_MTU0) == TCNT_CLEARING_TGRC ){
 282:C:/Workspace/FW_Platform2_5/trunk/HAL/RN_RX200/McuModule\ISR_TMR.c **** 		HWCNTR_ISR(HW_TMR_ID_0);
 283:C:/Workspace/FW_Platform2_5/trunk/HAL/RN_RX200/McuModule\ISR_TMR.c **** 		return 1;
 284:C:/Workspace/FW_Platform2_5/trunk/HAL/RN_RX200/McuModule\ISR_TMR.c **** 	}else{
 285:C:/Workspace/FW_Platform2_5/trunk/HAL/RN_RX200/McuModule\ISR_TMR.c **** 		HWTMRCH_ISR(TMR3_IDX);
 286:C:/Workspace/FW_Platform2_5/trunk/HAL/RN_RX200/McuModule\ISR_TMR.c **** 		return 1;
 287:C:/Workspace/FW_Platform2_5/trunk/HAL/RN_RX200/McuModule\ISR_TMR.c **** 	}
 288:C:/Workspace/FW_Platform2_5/trunk/HAL/RN_RX200/McuModule\ISR_TMR.c **** }
 289:C:/Workspace/FW_Platform2_5/trunk/HAL/RN_RX200/McuModule\ISR_TMR.c **** 
 290:C:/Workspace/FW_Platform2_5/trunk/HAL/RN_RX200/McuModule\ISR_TMR.c **** int MTU0_TGIC0_ExceptionHandler(void* pDevice, int status)
 291:C:/Workspace/FW_Platform2_5/trunk/HAL/RN_RX200/McuModule\ISR_TMR.c **** {
 292:C:/Workspace/FW_Platform2_5/trunk/HAL/RN_RX200/McuModule\ISR_TMR.c ****     return TMR3_ISR();
 293:C:/Workspace/FW_Platform2_5/trunk/HAL/RN_RX200/McuModule\ISR_TMR.c **** }
 294:C:/Workspace/FW_Platform2_5/trunk/HAL/RN_RX200/McuModule\ISR_TMR.c **** #endif
 295:C:/Workspace/FW_Platform2_5/trunk/HAL/RN_RX200/McuModule\ISR_TMR.c **** 
 296:C:/Workspace/FW_Platform2_5/trunk/HAL/RN_RX200/McuModule\ISR_TMR.c **** #if defined(TMR4_ISR_SUPPORT)
 297:C:/Workspace/FW_Platform2_5/trunk/HAL/RN_RX200/McuModule\ISR_TMR.c **** int TMR4_ISR(void);
 298:C:/Workspace/FW_Platform2_5/trunk/HAL/RN_RX200/McuModule\ISR_TMR.c **** __attribute__((weak)) int TMR4_ISR(void)
 299:C:/Workspace/FW_Platform2_5/trunk/HAL/RN_RX200/McuModule\ISR_TMR.c **** {
 300:C:/Workspace/FW_Platform2_5/trunk/HAL/RN_RX200/McuModule\ISR_TMR.c **** 	if( TMR_GetClearSourceId(HAL_TMR_MTU1) == TCNT_CLEARING_TGRA ){
 301:C:/Workspace/FW_Platform2_5/trunk/HAL/RN_RX200/McuModule\ISR_TMR.c **** 		HWCNTR_ISR(HW_TMR_ID_1);
 302:C:/Workspace/FW_Platform2_5/trunk/HAL/RN_RX200/McuModule\ISR_TMR.c **** 		return 1;
 303:C:/Workspace/FW_Platform2_5/trunk/HAL/RN_RX200/McuModule\ISR_TMR.c **** 	}else{
 304:C:/Workspace/FW_Platform2_5/trunk/HAL/RN_RX200/McuModule\ISR_TMR.c **** 		HWTMRCH_ISR(TMR4_IDX);
 305:C:/Workspace/FW_Platform2_5/trunk/HAL/RN_RX200/McuModule\ISR_TMR.c **** 		return 1;
 306:C:/Workspace/FW_Platform2_5/trunk/HAL/RN_RX200/McuModule\ISR_TMR.c **** 	}
 307:C:/Workspace/FW_Platform2_5/trunk/HAL/RN_RX200/McuModule\ISR_TMR.c ****     return 0;
 308:C:/Workspace/FW_Platform2_5/trunk/HAL/RN_RX200/McuModule\ISR_TMR.c **** }
 309:C:/Workspace/FW_Platform2_5/trunk/HAL/RN_RX200/McuModule\ISR_TMR.c **** 
 310:C:/Workspace/FW_Platform2_5/trunk/HAL/RN_RX200/McuModule\ISR_TMR.c **** int MTU1_TGIA1_ExceptionHandler(void* pDevice, int status)
 311:C:/Workspace/FW_Platform2_5/trunk/HAL/RN_RX200/McuModule\ISR_TMR.c **** {
 312:C:/Workspace/FW_Platform2_5/trunk/HAL/RN_RX200/McuModule\ISR_TMR.c ****     return TMR4_ISR();
 313:C:/Workspace/FW_Platform2_5/trunk/HAL/RN_RX200/McuModule\ISR_TMR.c **** }
 314:C:/Workspace/FW_Platform2_5/trunk/HAL/RN_RX200/McuModule\ISR_TMR.c **** #endif
 315:C:/Workspace/FW_Platform2_5/trunk/HAL/RN_RX200/McuModule\ISR_TMR.c **** 
 316:C:/Workspace/FW_Platform2_5/trunk/HAL/RN_RX200/McuModule\ISR_TMR.c **** #if defined(TMR5_ISR_SUPPORT)
 317:C:/Workspace/FW_Platform2_5/trunk/HAL/RN_RX200/McuModule\ISR_TMR.c **** int TMR5_ISR(void);
 318:C:/Workspace/FW_Platform2_5/trunk/HAL/RN_RX200/McuModule\ISR_TMR.c **** __attribute__((weak)) int TMR5_ISR(void)
 319:C:/Workspace/FW_Platform2_5/trunk/HAL/RN_RX200/McuModule\ISR_TMR.c **** {
 320:C:/Workspace/FW_Platform2_5/trunk/HAL/RN_RX200/McuModule\ISR_TMR.c **** 	if( TMR_GetClearSourceId(HAL_TMR_MTU3) == TCNT_CLEARING_TGRC ){
 321:C:/Workspace/FW_Platform2_5/trunk/HAL/RN_RX200/McuModule\ISR_TMR.c **** 		HWCNTR_ISR(HW_TMR_ID_3);
 322:C:/Workspace/FW_Platform2_5/trunk/HAL/RN_RX200/McuModule\ISR_TMR.c **** 		return 1;
 323:C:/Workspace/FW_Platform2_5/trunk/HAL/RN_RX200/McuModule\ISR_TMR.c **** 	}else{
 324:C:/Workspace/FW_Platform2_5/trunk/HAL/RN_RX200/McuModule\ISR_TMR.c **** 		HWTMRCH_ISR(TMR5_IDX);
 325:C:/Workspace/FW_Platform2_5/trunk/HAL/RN_RX200/McuModule\ISR_TMR.c **** 		return 1;
 326:C:/Workspace/FW_Platform2_5/trunk/HAL/RN_RX200/McuModule\ISR_TMR.c **** 	}
 327:C:/Workspace/FW_Platform2_5/trunk/HAL/RN_RX200/McuModule\ISR_TMR.c ****     return 0;
 328:C:/Workspace/FW_Platform2_5/trunk/HAL/RN_RX200/McuModule\ISR_TMR.c **** }
 329:C:/Workspace/FW_Platform2_5/trunk/HAL/RN_RX200/McuModule\ISR_TMR.c **** 
 330:C:/Workspace/FW_Platform2_5/trunk/HAL/RN_RX200/McuModule\ISR_TMR.c **** int MTU3_TGIC3_ExceptionHandler(void* pDevice, int status)
 331:C:/Workspace/FW_Platform2_5/trunk/HAL/RN_RX200/McuModule\ISR_TMR.c **** {
 332:C:/Workspace/FW_Platform2_5/trunk/HAL/RN_RX200/McuModule\ISR_TMR.c ****     return TMR5_ISR();
 333:C:/Workspace/FW_Platform2_5/trunk/HAL/RN_RX200/McuModule\ISR_TMR.c **** }
 334:C:/Workspace/FW_Platform2_5/trunk/HAL/RN_RX200/McuModule\ISR_TMR.c **** #endif
 335:C:/Workspace/FW_Platform2_5/trunk/HAL/RN_RX200/McuModule\ISR_TMR.c **** 
 336:C:/Workspace/FW_Platform2_5/trunk/HAL/RN_RX200/McuModule\ISR_TMR.c **** #if defined(TMR6_ISR_SUPPORT)
 337:C:/Workspace/FW_Platform2_5/trunk/HAL/RN_RX200/McuModule\ISR_TMR.c **** int TMR6_ISR(void);
 338:C:/Workspace/FW_Platform2_5/trunk/HAL/RN_RX200/McuModule\ISR_TMR.c **** __attribute__((weak)) int TMR6_ISR(void)
 339:C:/Workspace/FW_Platform2_5/trunk/HAL/RN_RX200/McuModule\ISR_TMR.c **** {
 340:C:/Workspace/FW_Platform2_5/trunk/HAL/RN_RX200/McuModule\ISR_TMR.c **** 	if( TMR_GetClearSourceId(HAL_TMR_MTU4) == TCNT_CLEARING_TGRC ){
 341:C:/Workspace/FW_Platform2_5/trunk/HAL/RN_RX200/McuModule\ISR_TMR.c **** 		HWCNTR_ISR(HW_TMR_ID_4);
 342:C:/Workspace/FW_Platform2_5/trunk/HAL/RN_RX200/McuModule\ISR_TMR.c **** 		return 1;
 343:C:/Workspace/FW_Platform2_5/trunk/HAL/RN_RX200/McuModule\ISR_TMR.c **** 	}else{
 344:C:/Workspace/FW_Platform2_5/trunk/HAL/RN_RX200/McuModule\ISR_TMR.c **** 		HWTMRCH_ISR(TMR6_IDX);
 345:C:/Workspace/FW_Platform2_5/trunk/HAL/RN_RX200/McuModule\ISR_TMR.c **** 		return 1;
 346:C:/Workspace/FW_Platform2_5/trunk/HAL/RN_RX200/McuModule\ISR_TMR.c **** 	}
 347:C:/Workspace/FW_Platform2_5/trunk/HAL/RN_RX200/McuModule\ISR_TMR.c ****     return 0;
 348:C:/Workspace/FW_Platform2_5/trunk/HAL/RN_RX200/McuModule\ISR_TMR.c **** }
 349:C:/Workspace/FW_Platform2_5/trunk/HAL/RN_RX200/McuModule\ISR_TMR.c **** 
 350:C:/Workspace/FW_Platform2_5/trunk/HAL/RN_RX200/McuModule\ISR_TMR.c **** int MTU4_TGIC4_ExceptionHandler(void* pDevice, int status)
 351:C:/Workspace/FW_Platform2_5/trunk/HAL/RN_RX200/McuModule\ISR_TMR.c **** {
 352:C:/Workspace/FW_Platform2_5/trunk/HAL/RN_RX200/McuModule\ISR_TMR.c ****     return TMR6_ISR();
 353:C:/Workspace/FW_Platform2_5/trunk/HAL/RN_RX200/McuModule\ISR_TMR.c **** }
 354:C:/Workspace/FW_Platform2_5/trunk/HAL/RN_RX200/McuModule\ISR_TMR.c **** #endif
 355:C:/Workspace/FW_Platform2_5/trunk/HAL/RN_RX200/McuModule\ISR_TMR.c **** 
 356:C:/Workspace/FW_Platform2_5/trunk/HAL/RN_RX200/McuModule\ISR_TMR.c **** #if defined(TMR7_ISR_SUPPORT)
 357:C:/Workspace/FW_Platform2_5/trunk/HAL/RN_RX200/McuModule\ISR_TMR.c **** int TMR7_ISR(void);
 358:C:/Workspace/FW_Platform2_5/trunk/HAL/RN_RX200/McuModule\ISR_TMR.c **** __attribute__((weak)) int TMR7_ISR(void)
 359:C:/Workspace/FW_Platform2_5/trunk/HAL/RN_RX200/McuModule\ISR_TMR.c **** {
 360:C:/Workspace/FW_Platform2_5/trunk/HAL/RN_RX200/McuModule\ISR_TMR.c **** 	if( TMR_GetClearSourceId(HAL_TMR_MTU4) == TCNT_CLEARING_TGRA ){
 361:C:/Workspace/FW_Platform2_5/trunk/HAL/RN_RX200/McuModule\ISR_TMR.c **** 		HWCNTR_ISR(HW_TMR_ID_4);
 362:C:/Workspace/FW_Platform2_5/trunk/HAL/RN_RX200/McuModule\ISR_TMR.c **** 		return 1;
 363:C:/Workspace/FW_Platform2_5/trunk/HAL/RN_RX200/McuModule\ISR_TMR.c **** 	}else{
 364:C:/Workspace/FW_Platform2_5/trunk/HAL/RN_RX200/McuModule\ISR_TMR.c **** 		HWTMRCH_ISR(TMR7_IDX);
 365:C:/Workspace/FW_Platform2_5/trunk/HAL/RN_RX200/McuModule\ISR_TMR.c **** 		return 1;
 366:C:/Workspace/FW_Platform2_5/trunk/HAL/RN_RX200/McuModule\ISR_TMR.c **** 	}
 367:C:/Workspace/FW_Platform2_5/trunk/HAL/RN_RX200/McuModule\ISR_TMR.c ****     return 0;
 368:C:/Workspace/FW_Platform2_5/trunk/HAL/RN_RX200/McuModule\ISR_TMR.c **** }
 369:C:/Workspace/FW_Platform2_5/trunk/HAL/RN_RX200/McuModule\ISR_TMR.c **** 
 370:C:/Workspace/FW_Platform2_5/trunk/HAL/RN_RX200/McuModule\ISR_TMR.c **** int MTU4_TGIA4_ExceptionHandler(void* pDevice, int status)
 371:C:/Workspace/FW_Platform2_5/trunk/HAL/RN_RX200/McuModule\ISR_TMR.c **** {
 372:C:/Workspace/FW_Platform2_5/trunk/HAL/RN_RX200/McuModule\ISR_TMR.c ****     return TMR7_ISR();
 373:C:/Workspace/FW_Platform2_5/trunk/HAL/RN_RX200/McuModule\ISR_TMR.c **** }
 374:C:/Workspace/FW_Platform2_5/trunk/HAL/RN_RX200/McuModule\ISR_TMR.c **** #endif
 375:C:/Workspace/FW_Platform2_5/trunk/HAL/RN_RX200/McuModule\ISR_TMR.c **** 
 376:C:/Workspace/FW_Platform2_5/trunk/HAL/RN_RX200/McuModule\ISR_TMR.c **** 
 377:C:/Workspace/FW_Platform2_5/trunk/HAL/RN_RX200/McuModule\ISR_TMR.c **** #if defined(TMR8_ISR_SUPPORT)
 378:C:/Workspace/FW_Platform2_5/trunk/HAL/RN_RX200/McuModule\ISR_TMR.c **** int TMR8_ISR(void);
 379:C:/Workspace/FW_Platform2_5/trunk/HAL/RN_RX200/McuModule\ISR_TMR.c **** __attribute__((weak)) int TMR8_ISR(void)
 380:C:/Workspace/FW_Platform2_5/trunk/HAL/RN_RX200/McuModule\ISR_TMR.c **** {
 381:C:/Workspace/FW_Platform2_5/trunk/HAL/RN_RX200/McuModule\ISR_TMR.c **** 	if( TMR_GetClearSourceId(HAL_TMR_MTU3) == TCNT_CLEARING_TGRD ){
 382:C:/Workspace/FW_Platform2_5/trunk/HAL/RN_RX200/McuModule\ISR_TMR.c **** 		HWCNTR_ISR(HW_TMR_ID_3);
 383:C:/Workspace/FW_Platform2_5/trunk/HAL/RN_RX200/McuModule\ISR_TMR.c **** 		return 1;
 384:C:/Workspace/FW_Platform2_5/trunk/HAL/RN_RX200/McuModule\ISR_TMR.c **** 	}else{
 385:C:/Workspace/FW_Platform2_5/trunk/HAL/RN_RX200/McuModule\ISR_TMR.c **** 		HWTMRCH_ISR(TMR8_IDX);
 386:C:/Workspace/FW_Platform2_5/trunk/HAL/RN_RX200/McuModule\ISR_TMR.c **** 		return 1;
 387:C:/Workspace/FW_Platform2_5/trunk/HAL/RN_RX200/McuModule\ISR_TMR.c **** 	}
 388:C:/Workspace/FW_Platform2_5/trunk/HAL/RN_RX200/McuModule\ISR_TMR.c ****     return 0;
 389:C:/Workspace/FW_Platform2_5/trunk/HAL/RN_RX200/McuModule\ISR_TMR.c **** }
 390:C:/Workspace/FW_Platform2_5/trunk/HAL/RN_RX200/McuModule\ISR_TMR.c **** 
 391:C:/Workspace/FW_Platform2_5/trunk/HAL/RN_RX200/McuModule\ISR_TMR.c **** int MTU3_TGID3_ExceptionHandler(void* pDevice, int status)
 392:C:/Workspace/FW_Platform2_5/trunk/HAL/RN_RX200/McuModule\ISR_TMR.c **** {
 393:C:/Workspace/FW_Platform2_5/trunk/HAL/RN_RX200/McuModule\ISR_TMR.c ****     return TMR8_ISR();
 394:C:/Workspace/FW_Platform2_5/trunk/HAL/RN_RX200/McuModule\ISR_TMR.c **** }
 395:C:/Workspace/FW_Platform2_5/trunk/HAL/RN_RX200/McuModule\ISR_TMR.c **** #endif
 396:C:/Workspace/FW_Platform2_5/trunk/HAL/RN_RX200/McuModule\ISR_TMR.c **** 
 397:C:/Workspace/FW_Platform2_5/trunk/HAL/RN_RX200/McuModule\ISR_TMR.c **** 
 398:C:/Workspace/FW_Platform2_5/trunk/HAL/RN_RX200/McuModule\ISR_TMR.c **** #if defined(TMR9_ISR_SUPPORT)
 399:C:/Workspace/FW_Platform2_5/trunk/HAL/RN_RX200/McuModule\ISR_TMR.c **** int TMR9_ISR(void);
 400:C:/Workspace/FW_Platform2_5/trunk/HAL/RN_RX200/McuModule\ISR_TMR.c **** __attribute__((weak)) int TMR9_ISR(void)
 401:C:/Workspace/FW_Platform2_5/trunk/HAL/RN_RX200/McuModule\ISR_TMR.c **** {
 402:C:/Workspace/FW_Platform2_5/trunk/HAL/RN_RX200/McuModule\ISR_TMR.c **** 	if( TMR_GetClearSourceId(HAL_TMR_MTU4) == TCNT_CLEARING_TGRB ){
 403:C:/Workspace/FW_Platform2_5/trunk/HAL/RN_RX200/McuModule\ISR_TMR.c **** 		HWCNTR_ISR(HW_TMR_ID_4);
 404:C:/Workspace/FW_Platform2_5/trunk/HAL/RN_RX200/McuModule\ISR_TMR.c **** 		return 1;
 405:C:/Workspace/FW_Platform2_5/trunk/HAL/RN_RX200/McuModule\ISR_TMR.c **** 	}else{
 406:C:/Workspace/FW_Platform2_5/trunk/HAL/RN_RX200/McuModule\ISR_TMR.c **** 		HWTMRCH_ISR(TMR9_IDX);
 407:C:/Workspace/FW_Platform2_5/trunk/HAL/RN_RX200/McuModule\ISR_TMR.c **** 		return 1;
 408:C:/Workspace/FW_Platform2_5/trunk/HAL/RN_RX200/McuModule\ISR_TMR.c **** 	}
 409:C:/Workspace/FW_Platform2_5/trunk/HAL/RN_RX200/McuModule\ISR_TMR.c ****     return 0;
 410:C:/Workspace/FW_Platform2_5/trunk/HAL/RN_RX200/McuModule\ISR_TMR.c **** }
 411:C:/Workspace/FW_Platform2_5/trunk/HAL/RN_RX200/McuModule\ISR_TMR.c **** 
 412:C:/Workspace/FW_Platform2_5/trunk/HAL/RN_RX200/McuModule\ISR_TMR.c **** int MTU4_TGIB4_ExceptionHandler(void* pDevice, int status)
 413:C:/Workspace/FW_Platform2_5/trunk/HAL/RN_RX200/McuModule\ISR_TMR.c **** {
 414:C:/Workspace/FW_Platform2_5/trunk/HAL/RN_RX200/McuModule\ISR_TMR.c ****     return TMR9_ISR();
 415:C:/Workspace/FW_Platform2_5/trunk/HAL/RN_RX200/McuModule\ISR_TMR.c **** }
 416:C:/Workspace/FW_Platform2_5/trunk/HAL/RN_RX200/McuModule\ISR_TMR.c **** #endif
 417:C:/Workspace/FW_Platform2_5/trunk/HAL/RN_RX200/McuModule\ISR_TMR.c **** 
 418:C:/Workspace/FW_Platform2_5/trunk/HAL/RN_RX200/McuModule\ISR_TMR.c **** 
 419:C:/Workspace/FW_Platform2_5/trunk/HAL/RN_RX200/McuModule\ISR_TMR.c **** #endif /* defined(CASTELLATED_MODULE_LP1_0241_01) */
 420:C:/Workspace/FW_Platform2_5/trunk/HAL/RN_RX200/McuModule\ISR_TMR.c **** 
 421:C:/Workspace/FW_Platform2_5/trunk/HAL/RN_RX200/McuModule\ISR_TMR.c **** 
 422:C:/Workspace/FW_Platform2_5/trunk/HAL/RN_RX200/McuModule\ISR_TMR.c **** #if defined(TCIV0_IRQ_SUPPORT)
 423:C:/Workspace/FW_Platform2_5/trunk/HAL/RN_RX200/McuModule\ISR_TMR.c **** int TCIV0_ISR(void);
 424:C:/Workspace/FW_Platform2_5/trunk/HAL/RN_RX200/McuModule\ISR_TMR.c **** __attribute__((weak)) int TCIV0_ISR(void)
 425:C:/Workspace/FW_Platform2_5/trunk/HAL/RN_RX200/McuModule\ISR_TMR.c **** {
 354                             		.loc 1 425 0
 426:C:/Workspace/FW_Platform2_5/trunk/HAL/RN_RX200/McuModule\ISR_TMR.c **** 	if( TMR_GetClearSourceId(HAL_TMR_MTU0) == TCNT_CLEARING_OVERFLOW ){
 355                             		.loc 1 426 0
 356 0000 66 01                   		mov	#0, r1
 357 0002 05 00 00 00             		bsr	_TMR_GetClearSourceId
 358                             	.LVL40:
 359 0006 5B 11                   		movu.B	r1, r1
 360 0008 61 41                   		cmp	#4, r1
 361 000a 21 0B                   		bne	.L35
 427:C:/Workspace/FW_Platform2_5/trunk/HAL/RN_RX200/McuModule\ISR_TMR.c **** 		HWCNTR_ISR(HW_TMR_ID_0);
 362                             		.loc 1 427 0
 363 000c 66 01                   		mov	#0, r1
 364 000e 05 00 00 00             		bsr	_HWCNTR_ISR
 365                             	.LVL41:
 428:C:/Workspace/FW_Platform2_5/trunk/HAL/RN_RX200/McuModule\ISR_TMR.c **** 		return 1;
 366                             		.loc 1 428 0
 367 0012 66 11                   		mov.L	#1, r1
 368 0014 02                      		rts
 369                             	.L35:
 429:C:/Workspace/FW_Platform2_5/trunk/HAL/RN_RX200/McuModule\ISR_TMR.c **** 	}
 430:C:/Workspace/FW_Platform2_5/trunk/HAL/RN_RX200/McuModule\ISR_TMR.c ****     return 0;
 370                             		.loc 1 430 0
 371 0015 66 01                   		mov.L	#0, r1
 431:C:/Workspace/FW_Platform2_5/trunk/HAL/RN_RX200/McuModule\ISR_TMR.c **** }
 372                             		.loc 1 431 0
 373 0017 02                      		rts
 374                             	.LFE16:
 376                             		.section	.text.CNT0_OVF_ExceptionHandler,"ax",@progbits
 377                             		.global	_CNT0_OVF_ExceptionHandler
 379                             	_CNT0_OVF_ExceptionHandler:
 380                             	.LFB17:
 432:C:/Workspace/FW_Platform2_5/trunk/HAL/RN_RX200/McuModule\ISR_TMR.c **** 
 433:C:/Workspace/FW_Platform2_5/trunk/HAL/RN_RX200/McuModule\ISR_TMR.c **** int  CNT0_OVF_ExceptionHandler(void)
 434:C:/Workspace/FW_Platform2_5/trunk/HAL/RN_RX200/McuModule\ISR_TMR.c **** {
 381                             		.loc 1 434 0
 435:C:/Workspace/FW_Platform2_5/trunk/HAL/RN_RX200/McuModule\ISR_TMR.c **** 	return TCIV0_ISR();
 382                             		.loc 1 435 0
 383 0000 04 00 00 00             		bra	_TCIV0_ISR
 384                             	.LVL42:
 385                             	.LFE17:
 387                             		.section	.text.TCIV1_ISR,"ax",@progbits
 388                             		.weak	_TCIV1_ISR
 390                             	_TCIV1_ISR:
 391                             	.LFB18:
 436:C:/Workspace/FW_Platform2_5/trunk/HAL/RN_RX200/McuModule\ISR_TMR.c **** }
 437:C:/Workspace/FW_Platform2_5/trunk/HAL/RN_RX200/McuModule\ISR_TMR.c **** #endif
 438:C:/Workspace/FW_Platform2_5/trunk/HAL/RN_RX200/McuModule\ISR_TMR.c **** 
 439:C:/Workspace/FW_Platform2_5/trunk/HAL/RN_RX200/McuModule\ISR_TMR.c **** #if defined(TCIV1_IRQ_SUPPORT)
 440:C:/Workspace/FW_Platform2_5/trunk/HAL/RN_RX200/McuModule\ISR_TMR.c **** int TCIV1_ISR(void);
 441:C:/Workspace/FW_Platform2_5/trunk/HAL/RN_RX200/McuModule\ISR_TMR.c **** __attribute__((weak)) int TCIV1_ISR(void)
 442:C:/Workspace/FW_Platform2_5/trunk/HAL/RN_RX200/McuModule\ISR_TMR.c **** {
 392                             		.loc 1 442 0
 443:C:/Workspace/FW_Platform2_5/trunk/HAL/RN_RX200/McuModule\ISR_TMR.c **** 	if( TMR_GetClearSourceId(HAL_TMR_MTU1) == TCNT_CLEARING_OVERFLOW ){
 393                             		.loc 1 443 0
 394 0000 66 11                   		mov	#1, r1
 395 0002 05 00 00 00             		bsr	_TMR_GetClearSourceId
 396                             	.LVL43:
 397 0006 5B 11                   		movu.B	r1, r1
 398 0008 61 41                   		cmp	#4, r1
 399 000a 21 0B                   		bne	.L39
 444:C:/Workspace/FW_Platform2_5/trunk/HAL/RN_RX200/McuModule\ISR_TMR.c **** 		HWCNTR_ISR(HW_TMR_ID_1);
 400                             		.loc 1 444 0
 401 000c 66 11                   		mov	#1, r1
 402 000e 05 00 00 00             		bsr	_HWCNTR_ISR
 403                             	.LVL44:
 445:C:/Workspace/FW_Platform2_5/trunk/HAL/RN_RX200/McuModule\ISR_TMR.c **** 		return 1;
 404                             		.loc 1 445 0
 405 0012 66 11                   		mov.L	#1, r1
 406 0014 02                      		rts
 407                             	.L39:
 446:C:/Workspace/FW_Platform2_5/trunk/HAL/RN_RX200/McuModule\ISR_TMR.c **** 	}
 447:C:/Workspace/FW_Platform2_5/trunk/HAL/RN_RX200/McuModule\ISR_TMR.c ****     return 0;
 408                             		.loc 1 447 0
 409 0015 66 01                   		mov.L	#0, r1
 448:C:/Workspace/FW_Platform2_5/trunk/HAL/RN_RX200/McuModule\ISR_TMR.c **** }
 410                             		.loc 1 448 0
 411 0017 02                      		rts
 412                             	.LFE18:
 414                             		.section	.text.CNT1_OVF_ExceptionHandler,"ax",@progbits
 415                             		.global	_CNT1_OVF_ExceptionHandler
 417                             	_CNT1_OVF_ExceptionHandler:
 418                             	.LFB19:
 449:C:/Workspace/FW_Platform2_5/trunk/HAL/RN_RX200/McuModule\ISR_TMR.c **** 
 450:C:/Workspace/FW_Platform2_5/trunk/HAL/RN_RX200/McuModule\ISR_TMR.c **** int  CNT1_OVF_ExceptionHandler(void)
 451:C:/Workspace/FW_Platform2_5/trunk/HAL/RN_RX200/McuModule\ISR_TMR.c **** {
 419                             		.loc 1 451 0
 452:C:/Workspace/FW_Platform2_5/trunk/HAL/RN_RX200/McuModule\ISR_TMR.c **** 	return TCIV1_ISR();
 420                             		.loc 1 452 0
 421 0000 04 00 00 00             		bra	_TCIV1_ISR
 422                             	.LVL45:
 423                             	.LFE19:
 425                             		.section	.text.TCIV2_ISR,"ax",@progbits
 426                             		.weak	_TCIV2_ISR
 428                             	_TCIV2_ISR:
 429                             	.LFB20:
 453:C:/Workspace/FW_Platform2_5/trunk/HAL/RN_RX200/McuModule\ISR_TMR.c **** }
 454:C:/Workspace/FW_Platform2_5/trunk/HAL/RN_RX200/McuModule\ISR_TMR.c **** #endif
 455:C:/Workspace/FW_Platform2_5/trunk/HAL/RN_RX200/McuModule\ISR_TMR.c **** 
 456:C:/Workspace/FW_Platform2_5/trunk/HAL/RN_RX200/McuModule\ISR_TMR.c **** 
 457:C:/Workspace/FW_Platform2_5/trunk/HAL/RN_RX200/McuModule\ISR_TMR.c **** #if defined(TCIV2_IRQ_SUPPORT)
 458:C:/Workspace/FW_Platform2_5/trunk/HAL/RN_RX200/McuModule\ISR_TMR.c **** int TCIV2_ISR(void);
 459:C:/Workspace/FW_Platform2_5/trunk/HAL/RN_RX200/McuModule\ISR_TMR.c **** __attribute__((weak)) int TCIV2_ISR(void)
 460:C:/Workspace/FW_Platform2_5/trunk/HAL/RN_RX200/McuModule\ISR_TMR.c **** {
 430                             		.loc 1 460 0
 461:C:/Workspace/FW_Platform2_5/trunk/HAL/RN_RX200/McuModule\ISR_TMR.c **** 	if( TMR_GetClearSourceId(HAL_TMR_MTU2) == TCNT_CLEARING_OVERFLOW ){
 431                             		.loc 1 461 0
 432 0000 66 21                   		mov	#2, r1
 433 0002 05 00 00 00             		bsr	_TMR_GetClearSourceId
 434                             	.LVL46:
 435 0006 5B 11                   		movu.B	r1, r1
 436 0008 61 41                   		cmp	#4, r1
 437 000a 21 0B                   		bne	.L43
 462:C:/Workspace/FW_Platform2_5/trunk/HAL/RN_RX200/McuModule\ISR_TMR.c **** 		HWCNTR_ISR(HW_TMR_ID_2);
 438                             		.loc 1 462 0
 439 000c 66 21                   		mov	#2, r1
 440 000e 05 00 00 00             		bsr	_HWCNTR_ISR
 441                             	.LVL47:
 463:C:/Workspace/FW_Platform2_5/trunk/HAL/RN_RX200/McuModule\ISR_TMR.c **** 		return 1;
 442                             		.loc 1 463 0
 443 0012 66 11                   		mov.L	#1, r1
 444 0014 02                      		rts
 445                             	.L43:
 464:C:/Workspace/FW_Platform2_5/trunk/HAL/RN_RX200/McuModule\ISR_TMR.c **** 	}
 465:C:/Workspace/FW_Platform2_5/trunk/HAL/RN_RX200/McuModule\ISR_TMR.c ****     return 0;
 446                             		.loc 1 465 0
 447 0015 66 01                   		mov.L	#0, r1
 466:C:/Workspace/FW_Platform2_5/trunk/HAL/RN_RX200/McuModule\ISR_TMR.c **** }
 448                             		.loc 1 466 0
 449 0017 02                      		rts
 450                             	.LFE20:
 452                             		.section	.text.CNT2_OVF_ExceptionHandler,"ax",@progbits
 453                             		.global	_CNT2_OVF_ExceptionHandler
 455                             	_CNT2_OVF_ExceptionHandler:
 456                             	.LFB21:
 467:C:/Workspace/FW_Platform2_5/trunk/HAL/RN_RX200/McuModule\ISR_TMR.c **** 
 468:C:/Workspace/FW_Platform2_5/trunk/HAL/RN_RX200/McuModule\ISR_TMR.c **** int  CNT2_OVF_ExceptionHandler(void)
 469:C:/Workspace/FW_Platform2_5/trunk/HAL/RN_RX200/McuModule\ISR_TMR.c **** {
 457                             		.loc 1 469 0
 470:C:/Workspace/FW_Platform2_5/trunk/HAL/RN_RX200/McuModule\ISR_TMR.c **** 	return TCIV2_ISR();
 458                             		.loc 1 470 0
 459 0000 04 00 00 00             		bra	_TCIV2_ISR
 460                             	.LVL48:
 461                             	.LFE21:
 463                             		.section	.text.TCIV3_ISR,"ax",@progbits
 464                             		.weak	_TCIV3_ISR
 466                             	_TCIV3_ISR:
 467                             	.LFB22:
 471:C:/Workspace/FW_Platform2_5/trunk/HAL/RN_RX200/McuModule\ISR_TMR.c **** }
 472:C:/Workspace/FW_Platform2_5/trunk/HAL/RN_RX200/McuModule\ISR_TMR.c **** #endif
 473:C:/Workspace/FW_Platform2_5/trunk/HAL/RN_RX200/McuModule\ISR_TMR.c **** 
 474:C:/Workspace/FW_Platform2_5/trunk/HAL/RN_RX200/McuModule\ISR_TMR.c **** 
 475:C:/Workspace/FW_Platform2_5/trunk/HAL/RN_RX200/McuModule\ISR_TMR.c **** #if defined(TCIV3_IRQ_SUPPORT)
 476:C:/Workspace/FW_Platform2_5/trunk/HAL/RN_RX200/McuModule\ISR_TMR.c **** int TCIV3_ISR(void);
 477:C:/Workspace/FW_Platform2_5/trunk/HAL/RN_RX200/McuModule\ISR_TMR.c **** __attribute__((weak)) int TCIV3_ISR(void)
 478:C:/Workspace/FW_Platform2_5/trunk/HAL/RN_RX200/McuModule\ISR_TMR.c **** {
 468                             		.loc 1 478 0
 479:C:/Workspace/FW_Platform2_5/trunk/HAL/RN_RX200/McuModule\ISR_TMR.c **** 	if( TMR_GetClearSourceId(HAL_TMR_MTU3) == TCNT_CLEARING_OVERFLOW ){
 469                             		.loc 1 479 0
 470 0000 66 31                   		mov	#3, r1
 471 0002 05 00 00 00             		bsr	_TMR_GetClearSourceId
 472                             	.LVL49:
 473 0006 5B 11                   		movu.B	r1, r1
 474 0008 61 41                   		cmp	#4, r1
 475 000a 21 0B                   		bne	.L47
 480:C:/Workspace/FW_Platform2_5/trunk/HAL/RN_RX200/McuModule\ISR_TMR.c **** 		HWCNTR_ISR(HW_TMR_ID_3);
 476                             		.loc 1 480 0
 477 000c 66 31                   		mov	#3, r1
 478 000e 05 00 00 00             		bsr	_HWCNTR_ISR
 479                             	.LVL50:
 481:C:/Workspace/FW_Platform2_5/trunk/HAL/RN_RX200/McuModule\ISR_TMR.c **** 		return 1;
 480                             		.loc 1 481 0
 481 0012 66 11                   		mov.L	#1, r1
 482 0014 02                      		rts
 483                             	.L47:
 482:C:/Workspace/FW_Platform2_5/trunk/HAL/RN_RX200/McuModule\ISR_TMR.c **** 	}
 483:C:/Workspace/FW_Platform2_5/trunk/HAL/RN_RX200/McuModule\ISR_TMR.c ****     return 0;
 484                             		.loc 1 483 0
 485 0015 66 01                   		mov.L	#0, r1
 484:C:/Workspace/FW_Platform2_5/trunk/HAL/RN_RX200/McuModule\ISR_TMR.c **** }
 486                             		.loc 1 484 0
 487 0017 02                      		rts
 488                             	.LFE22:
 490                             		.section	.text.CNT3_OVF_ExceptionHandler,"ax",@progbits
 491                             		.global	_CNT3_OVF_ExceptionHandler
 493                             	_CNT3_OVF_ExceptionHandler:
 494                             	.LFB23:
 485:C:/Workspace/FW_Platform2_5/trunk/HAL/RN_RX200/McuModule\ISR_TMR.c **** 
 486:C:/Workspace/FW_Platform2_5/trunk/HAL/RN_RX200/McuModule\ISR_TMR.c **** int  CNT3_OVF_ExceptionHandler(void)
 487:C:/Workspace/FW_Platform2_5/trunk/HAL/RN_RX200/McuModule\ISR_TMR.c **** {
 495                             		.loc 1 487 0
 488:C:/Workspace/FW_Platform2_5/trunk/HAL/RN_RX200/McuModule\ISR_TMR.c **** 	return TCIV3_ISR();
 496                             		.loc 1 488 0
 497 0000 04 00 00 00             		bra	_TCIV3_ISR
 498                             	.LVL51:
 499                             	.LFE23:
 501                             		.section	.text.TCIV4_ISR,"ax",@progbits
 502                             		.weak	_TCIV4_ISR
 504                             	_TCIV4_ISR:
 505                             	.LFB24:
 489:C:/Workspace/FW_Platform2_5/trunk/HAL/RN_RX200/McuModule\ISR_TMR.c **** }
 490:C:/Workspace/FW_Platform2_5/trunk/HAL/RN_RX200/McuModule\ISR_TMR.c **** #endif
 491:C:/Workspace/FW_Platform2_5/trunk/HAL/RN_RX200/McuModule\ISR_TMR.c **** 
 492:C:/Workspace/FW_Platform2_5/trunk/HAL/RN_RX200/McuModule\ISR_TMR.c **** #if defined(TCIV4_IRQ_SUPPORT)
 493:C:/Workspace/FW_Platform2_5/trunk/HAL/RN_RX200/McuModule\ISR_TMR.c **** int TCIV4_ISR(void);
 494:C:/Workspace/FW_Platform2_5/trunk/HAL/RN_RX200/McuModule\ISR_TMR.c **** __attribute__((weak)) int TCIV4_ISR(void)
 495:C:/Workspace/FW_Platform2_5/trunk/HAL/RN_RX200/McuModule\ISR_TMR.c **** {
 506                             		.loc 1 495 0
 496:C:/Workspace/FW_Platform2_5/trunk/HAL/RN_RX200/McuModule\ISR_TMR.c **** 	if( TMR_GetClearSourceId(HAL_TMR_MTU4) == TCNT_CLEARING_OVERFLOW ){
 507                             		.loc 1 496 0
 508 0000 66 41                   		mov	#4, r1
 509 0002 05 00 00 00             		bsr	_TMR_GetClearSourceId
 510                             	.LVL52:
 511 0006 5B 11                   		movu.B	r1, r1
 512 0008 61 41                   		cmp	#4, r1
 513 000a 21 09                   		bne	.L51
 497:C:/Workspace/FW_Platform2_5/trunk/HAL/RN_RX200/McuModule\ISR_TMR.c **** 		HWCNTR_ISR(HW_TMR_ID_4);
 514                             		.loc 1 497 0
 515 000c 05 00 00 00             		bsr	_HWCNTR_ISR
 516                             	.LVL53:
 498:C:/Workspace/FW_Platform2_5/trunk/HAL/RN_RX200/McuModule\ISR_TMR.c **** 		return 1;
 517                             		.loc 1 498 0
 518 0010 66 11                   		mov.L	#1, r1
 519 0012 02                      		rts
 520                             	.L51:
 499:C:/Workspace/FW_Platform2_5/trunk/HAL/RN_RX200/McuModule\ISR_TMR.c **** 	}
 500:C:/Workspace/FW_Platform2_5/trunk/HAL/RN_RX200/McuModule\ISR_TMR.c ****     return 0;
 521                             		.loc 1 500 0
 522 0013 66 01                   		mov.L	#0, r1
 501:C:/Workspace/FW_Platform2_5/trunk/HAL/RN_RX200/McuModule\ISR_TMR.c **** }
 523                             		.loc 1 501 0
 524 0015 02                      		rts
 525                             	.LFE24:
 527                             		.section	.text.CNT4_OVF_ExceptionHandler,"ax",@progbits
 528                             		.global	_CNT4_OVF_ExceptionHandler
 530                             	_CNT4_OVF_ExceptionHandler:
 531                             	.LFB25:
 502:C:/Workspace/FW_Platform2_5/trunk/HAL/RN_RX200/McuModule\ISR_TMR.c **** 
 503:C:/Workspace/FW_Platform2_5/trunk/HAL/RN_RX200/McuModule\ISR_TMR.c **** int  CNT4_OVF_ExceptionHandler(void)
 504:C:/Workspace/FW_Platform2_5/trunk/HAL/RN_RX200/McuModule\ISR_TMR.c **** {
 532                             		.loc 1 504 0
 505:C:/Workspace/FW_Platform2_5/trunk/HAL/RN_RX200/McuModule\ISR_TMR.c **** 	return TCIV4_ISR();
 533                             		.loc 1 505 0
 534 0000 04 00 00 00             		bra	_TCIV4_ISR
 535                             	.LVL54:
 536                             	.LFE25:
 764                             	.Letext0:
 765                             		.file 2 "C:\\Workspace\\FW_Platform2_5\\trunk\\HAL\\HAL_General/StandardTypes.h"
 766                             		.file 3 "C:\\Workspace\\FW_Platform2_5\\trunk\\HAL\\RN_RX200/RN_RX200_cfg.h"
 767                             		.file 4 "C:\\Workspace\\FW_Platform2_5\\trunk\\Drivers/IO_driver.h"
 768                             		.file 5 "C:\\Workspace\\FW_Platform2_5\\trunk\\CFG_DishWasher\\CFG_Inertia/Config.h"
 769                             		.file 6 "C:\\Workspace\\FW_Platform2_5\\trunk\\HAL\\RN_RX200/RN_RX200_hal.h"
 770                             		.file 7 "C:\\Workspace\\FW_Platform2_5\\trunk\\Drivers\\OCTPM/OCTPM_drv.h"
