   1                             		.file	"LIB_UTilities.c"
   2                             		.section P,"ax"
   3                             	.Ltext0:
   4                             		.section	.text.ExtendedBasicLoader.part.0,"ax",@progbits
   6                             	_ExtendedBasicLoader.part.0:
   7                             	.LFB22:
   8                             		.file 1 "C:/Workspace/FW_Platform2_5/trunk/ProductModules/PM_Library/LIB_UTilities.c"
   1:C:/Workspace/FW_Platform2_5/trunk/ProductModules/PM_Library\LIB_UTilities.c **** /*
   2:C:/Workspace/FW_Platform2_5/trunk/ProductModules/PM_Library\LIB_UTilities.c **** Copyright (c) 2009-2010, Indesit Company, I.D.D..
   3:C:/Workspace/FW_Platform2_5/trunk/ProductModules/PM_Library\LIB_UTilities.c **** Tutti i diritti sono riservati. All rights reserved.
   4:C:/Workspace/FW_Platform2_5/trunk/ProductModules/PM_Library\LIB_UTilities.c **** */
   5:C:/Workspace/FW_Platform2_5/trunk/ProductModules/PM_Library\LIB_UTilities.c **** 
   6:C:/Workspace/FW_Platform2_5/trunk/ProductModules/PM_Library\LIB_UTilities.c **** /**
   7:C:/Workspace/FW_Platform2_5/trunk/ProductModules/PM_Library\LIB_UTilities.c **** \n
   8:C:/Workspace/FW_Platform2_5/trunk/ProductModules/PM_Library\LIB_UTilities.c **** \par		Descrizione
   9:C:/Workspace/FW_Platform2_5/trunk/ProductModules/PM_Library\LIB_UTilities.c **** \n		Implementazione funzioni di utilità.
  10:C:/Workspace/FW_Platform2_5/trunk/ProductModules/PM_Library\LIB_UTilities.c **** \n
  11:C:/Workspace/FW_Platform2_5/trunk/ProductModules/PM_Library\LIB_UTilities.c **** \file		LIB_Utilities.c
  12:C:/Workspace/FW_Platform2_5/trunk/ProductModules/PM_Library\LIB_UTilities.c **** \ingroup	PM_Library
  13:C:/Workspace/FW_Platform2_5/trunk/ProductModules/PM_Library\LIB_UTilities.c **** \date		12/05/2009
  14:C:/Workspace/FW_Platform2_5/trunk/ProductModules/PM_Library\LIB_UTilities.c **** \version	01.00.00
  15:C:/Workspace/FW_Platform2_5/trunk/ProductModules/PM_Library\LIB_UTilities.c **** \author		Roberto Fioravanti
  16:C:/Workspace/FW_Platform2_5/trunk/ProductModules/PM_Library\LIB_UTilities.c **** \n
  17:C:/Workspace/FW_Platform2_5/trunk/ProductModules/PM_Library\LIB_UTilities.c **** \n
  18:C:/Workspace/FW_Platform2_5/trunk/ProductModules/PM_Library\LIB_UTilities.c **** \par		History
  19:C:/Workspace/FW_Platform2_5/trunk/ProductModules/PM_Library\LIB_UTilities.c **** \n
  20:C:/Workspace/FW_Platform2_5/trunk/ProductModules/PM_Library\LIB_UTilities.c **** \n 		00.00.75
  21:C:/Workspace/FW_Platform2_5/trunk/ProductModules/PM_Library\LIB_UTilities.c **** \n		25/10/2010
  22:C:/Workspace/FW_Platform2_5/trunk/ProductModules/PM_Library\LIB_UTilities.c **** \n		Roberto Fioravanti
  23:C:/Workspace/FW_Platform2_5/trunk/ProductModules/PM_Library\LIB_UTilities.c **** \n		changes
  24:C:/Workspace/FW_Platform2_5/trunk/ProductModules/PM_Library\LIB_UTilities.c **** \n 		- addition of SFGetDisplacementNumber method
  25:C:/Workspace/FW_Platform2_5/trunk/ProductModules/PM_Library\LIB_UTilities.c **** \n
  26:C:/Workspace/FW_Platform2_5/trunk/ProductModules/PM_Library\LIB_UTilities.c **** \n 		00.00.59
  27:C:/Workspace/FW_Platform2_5/trunk/ProductModules/PM_Library\LIB_UTilities.c **** \n		03/09/2010
  28:C:/Workspace/FW_Platform2_5/trunk/ProductModules/PM_Library\LIB_UTilities.c **** \n		Stefano Ughi
  29:C:/Workspace/FW_Platform2_5/trunk/ProductModules/PM_Library\LIB_UTilities.c **** \n		changes
  30:C:/Workspace/FW_Platform2_5/trunk/ProductModules/PM_Library\LIB_UTilities.c **** \n 		- added uint8_t WboxLoader(uint8_t displacement, Loader_Struct* pDataOut);
  31:C:/Workspace/FW_Platform2_5/trunk/ProductModules/PM_Library\LIB_UTilities.c **** \n
  32:C:/Workspace/FW_Platform2_5/trunk/ProductModules/PM_Library\LIB_UTilities.c **** \n 		00.00.58
  33:C:/Workspace/FW_Platform2_5/trunk/ProductModules/PM_Library\LIB_UTilities.c **** \n		01/09/2010
  34:C:/Workspace/FW_Platform2_5/trunk/ProductModules/PM_Library\LIB_UTilities.c **** \n		Stefano Ughi
  35:C:/Workspace/FW_Platform2_5/trunk/ProductModules/PM_Library\LIB_UTilities.c **** \n		changes
  36:C:/Workspace/FW_Platform2_5/trunk/ProductModules/PM_Library\LIB_UTilities.c **** \n 		- added uint8_t BasicLoader(settingPntr_t pointer, uint8_t displacement, Loader_Struct* pDataO
  37:C:/Workspace/FW_Platform2_5/trunk/ProductModules/PM_Library\LIB_UTilities.c **** \n
  38:C:/Workspace/FW_Platform2_5/trunk/ProductModules/PM_Library\LIB_UTilities.c **** \n 		00.00.55
  39:C:/Workspace/FW_Platform2_5/trunk/ProductModules/PM_Library\LIB_UTilities.c **** \n		30/07/2010
  40:C:/Workspace/FW_Platform2_5/trunk/ProductModules/PM_Library\LIB_UTilities.c **** \n		Roberto Fioravanti
  41:C:/Workspace/FW_Platform2_5/trunk/ProductModules/PM_Library\LIB_UTilities.c **** \n		changes
  42:C:/Workspace/FW_Platform2_5/trunk/ProductModules/PM_Library\LIB_UTilities.c **** \n 		- LIB_ComputeSettingFileCheckSum available #if defined(HAL_FLS_SUPPORT)
  43:C:/Workspace/FW_Platform2_5/trunk/ProductModules/PM_Library\LIB_UTilities.c **** \n
  44:C:/Workspace/FW_Platform2_5/trunk/ProductModules/PM_Library\LIB_UTilities.c **** \n 		00.00.39
  45:C:/Workspace/FW_Platform2_5/trunk/ProductModules/PM_Library\LIB_UTilities.c **** \n		12/04/2010
  46:C:/Workspace/FW_Platform2_5/trunk/ProductModules/PM_Library\LIB_UTilities.c **** \n		Roberto Fioravanti
  47:C:/Workspace/FW_Platform2_5/trunk/ProductModules/PM_Library\LIB_UTilities.c **** \n		changes
  48:C:/Workspace/FW_Platform2_5/trunk/ProductModules/PM_Library\LIB_UTilities.c **** \n 		- addiction LIB_ChkComputation
  49:C:/Workspace/FW_Platform2_5/trunk/ProductModules/PM_Library\LIB_UTilities.c **** \n
  50:C:/Workspace/FW_Platform2_5/trunk/ProductModules/PM_Library\LIB_UTilities.c **** \n 		00.00.26
  51:C:/Workspace/FW_Platform2_5/trunk/ProductModules/PM_Library\LIB_UTilities.c **** \n		12/01/2010
  52:C:/Workspace/FW_Platform2_5/trunk/ProductModules/PM_Library\LIB_UTilities.c **** \n		Stefano Ughi
  53:C:/Workspace/FW_Platform2_5/trunk/ProductModules/PM_Library\LIB_UTilities.c **** \n		changes
  54:C:/Workspace/FW_Platform2_5/trunk/ProductModules/PM_Library\LIB_UTilities.c **** \n 		- LIB_ComputeSettingFileCheckSum added
  55:C:/Workspace/FW_Platform2_5/trunk/ProductModules/PM_Library\LIB_UTilities.c **** \n      - LIB_ConvTwoByteInWord added
  56:C:/Workspace/FW_Platform2_5/trunk/ProductModules/PM_Library\LIB_UTilities.c **** \n
  57:C:/Workspace/FW_Platform2_5/trunk/ProductModules/PM_Library\LIB_UTilities.c **** \n 		00.00.25
  58:C:/Workspace/FW_Platform2_5/trunk/ProductModules/PM_Library\LIB_UTilities.c **** \n		08/01/2009
  59:C:/Workspace/FW_Platform2_5/trunk/ProductModules/PM_Library\LIB_UTilities.c **** \n		Roberto Fioravanti
  60:C:/Workspace/FW_Platform2_5/trunk/ProductModules/PM_Library\LIB_UTilities.c **** \n		changes
  61:C:/Workspace/FW_Platform2_5/trunk/ProductModules/PM_Library\LIB_UTilities.c **** \n 		- LIB_Delay_us
  62:C:/Workspace/FW_Platform2_5/trunk/ProductModules/PM_Library\LIB_UTilities.c **** \n
  63:C:/Workspace/FW_Platform2_5/trunk/ProductModules/PM_Library\LIB_UTilities.c **** \n 		00.00.12
  64:C:/Workspace/FW_Platform2_5/trunk/ProductModules/PM_Library\LIB_UTilities.c **** \n		08/10/2009
  65:C:/Workspace/FW_Platform2_5/trunk/ProductModules/PM_Library\LIB_UTilities.c **** \n		Roberto Fioravanti
  66:C:/Workspace/FW_Platform2_5/trunk/ProductModules/PM_Library\LIB_UTilities.c **** \n		changes
  67:C:/Workspace/FW_Platform2_5/trunk/ProductModules/PM_Library\LIB_UTilities.c **** \n 		- _NOP_();
  68:C:/Workspace/FW_Platform2_5/trunk/ProductModules/PM_Library\LIB_UTilities.c **** \n
  69:C:/Workspace/FW_Platform2_5/trunk/ProductModules/PM_Library\LIB_UTilities.c **** \n 		00.00.05
  70:C:/Workspace/FW_Platform2_5/trunk/ProductModules/PM_Library\LIB_UTilities.c **** \n		26/06/2009
  71:C:/Workspace/FW_Platform2_5/trunk/ProductModules/PM_Library\LIB_UTilities.c **** \n		Roberto Fioravanti
  72:C:/Workspace/FW_Platform2_5/trunk/ProductModules/PM_Library\LIB_UTilities.c **** \n		changes
  73:C:/Workspace/FW_Platform2_5/trunk/ProductModules/PM_Library\LIB_UTilities.c **** \n 		- LIB_Delay_us
  74:C:/Workspace/FW_Platform2_5/trunk/ProductModules/PM_Library\LIB_UTilities.c **** \n 		- LIB_MemcpyFromLast
  75:C:/Workspace/FW_Platform2_5/trunk/ProductModules/PM_Library\LIB_UTilities.c **** 
  76:C:/Workspace/FW_Platform2_5/trunk/ProductModules/PM_Library\LIB_UTilities.c **** \n etc.
  77:C:/Workspace/FW_Platform2_5/trunk/ProductModules/PM_Library\LIB_UTilities.c **** */
  78:C:/Workspace/FW_Platform2_5/trunk/ProductModules/PM_Library\LIB_UTilities.c **** 
  79:C:/Workspace/FW_Platform2_5/trunk/ProductModules/PM_Library\LIB_UTilities.c **** 
  80:C:/Workspace/FW_Platform2_5/trunk/ProductModules/PM_Library\LIB_UTilities.c **** 
  81:C:/Workspace/FW_Platform2_5/trunk/ProductModules/PM_Library\LIB_UTilities.c **** 
  82:C:/Workspace/FW_Platform2_5/trunk/ProductModules/PM_Library\LIB_UTilities.c **** 
  83:C:/Workspace/FW_Platform2_5/trunk/ProductModules/PM_Library\LIB_UTilities.c **** /* ******** */
  84:C:/Workspace/FW_Platform2_5/trunk/ProductModules/PM_Library\LIB_UTilities.c **** /* Includes */
  85:C:/Workspace/FW_Platform2_5/trunk/ProductModules/PM_Library\LIB_UTilities.c **** /* ******** */
  86:C:/Workspace/FW_Platform2_5/trunk/ProductModules/PM_Library\LIB_UTilities.c **** #include "LIB_Utilities.h"
  87:C:/Workspace/FW_Platform2_5/trunk/ProductModules/PM_Library\LIB_UTilities.c **** #include "LIB_Setting.h"
  88:C:/Workspace/FW_Platform2_5/trunk/ProductModules/PM_Library\LIB_UTilities.c **** #include "LIB_Generic.h"
  89:C:/Workspace/FW_Platform2_5/trunk/ProductModules/PM_Library\LIB_UTilities.c **** #include "LIB_crcExp.h"
  90:C:/Workspace/FW_Platform2_5/trunk/ProductModules/PM_Library\LIB_UTilities.c **** /* ****************** */
  91:C:/Workspace/FW_Platform2_5/trunk/ProductModules/PM_Library\LIB_UTilities.c **** /* Defines and Macros */
  92:C:/Workspace/FW_Platform2_5/trunk/ProductModules/PM_Library\LIB_UTilities.c **** /* ****************** */
  93:C:/Workspace/FW_Platform2_5/trunk/ProductModules/PM_Library\LIB_UTilities.c **** /** Setting file pointer Checksum */
  94:C:/Workspace/FW_Platform2_5/trunk/ProductModules/PM_Library\LIB_UTilities.c **** 
  95:C:/Workspace/FW_Platform2_5/trunk/ProductModules/PM_Library\LIB_UTilities.c **** #if !defined(FCT_START_ADDR) && defined(APPL_WBOX_ADDRESS)
  96:C:/Workspace/FW_Platform2_5/trunk/ProductModules/PM_Library\LIB_UTilities.c **** #define FCT_START_ADDR        APPL_WBOX_ADDRESS
  97:C:/Workspace/FW_Platform2_5/trunk/ProductModules/PM_Library\LIB_UTilities.c **** #endif
  98:C:/Workspace/FW_Platform2_5/trunk/ProductModules/PM_Library\LIB_UTilities.c **** 
  99:C:/Workspace/FW_Platform2_5/trunk/ProductModules/PM_Library\LIB_UTilities.c **** 
 100:C:/Workspace/FW_Platform2_5/trunk/ProductModules/PM_Library\LIB_UTilities.c **** /* *************************** */
 101:C:/Workspace/FW_Platform2_5/trunk/ProductModules/PM_Library\LIB_UTilities.c **** /* Typedef, Structs and Unions */
 102:C:/Workspace/FW_Platform2_5/trunk/ProductModules/PM_Library\LIB_UTilities.c **** /* *************************** */
 103:C:/Workspace/FW_Platform2_5/trunk/ProductModules/PM_Library\LIB_UTilities.c **** 
 104:C:/Workspace/FW_Platform2_5/trunk/ProductModules/PM_Library\LIB_UTilities.c **** 
 105:C:/Workspace/FW_Platform2_5/trunk/ProductModules/PM_Library\LIB_UTilities.c **** /* **************************** */
 106:C:/Workspace/FW_Platform2_5/trunk/ProductModules/PM_Library\LIB_UTilities.c **** /* Prototype of local functions */
 107:C:/Workspace/FW_Platform2_5/trunk/ProductModules/PM_Library\LIB_UTilities.c **** /* **************************** */
 108:C:/Workspace/FW_Platform2_5/trunk/ProductModules/PM_Library\LIB_UTilities.c **** static uint8_t GetSettingStartAddress (uint16_t* pdataStartAddr, uint8_t SFIndex, uint16_t** pmSett
 109:C:/Workspace/FW_Platform2_5/trunk/ProductModules/PM_Library\LIB_UTilities.c **** static uint8_t ExtendedBasicLoader(uint16_t* dataStartAddr, settingPntr_t pointer, uint8_t displace
 110:C:/Workspace/FW_Platform2_5/trunk/ProductModules/PM_Library\LIB_UTilities.c **** 
 111:C:/Workspace/FW_Platform2_5/trunk/ProductModules/PM_Library\LIB_UTilities.c **** /* ****************** */
 112:C:/Workspace/FW_Platform2_5/trunk/ProductModules/PM_Library\LIB_UTilities.c **** /* Exported variables */
 113:C:/Workspace/FW_Platform2_5/trunk/ProductModules/PM_Library\LIB_UTilities.c **** /* ****************** */
 114:C:/Workspace/FW_Platform2_5/trunk/ProductModules/PM_Library\LIB_UTilities.c **** extern const unsigned char Eeprom[];
 115:C:/Workspace/FW_Platform2_5/trunk/ProductModules/PM_Library\LIB_UTilities.c **** 
 116:C:/Workspace/FW_Platform2_5/trunk/ProductModules/PM_Library\LIB_UTilities.c **** #if defined(CONFIG_LIB_SETTING_CALIBRATION_ON_WBOX)
 117:C:/Workspace/FW_Platform2_5/trunk/ProductModules/PM_Library\LIB_UTilities.c **** extern const uint16_t WBOXData[];
 118:C:/Workspace/FW_Platform2_5/trunk/ProductModules/PM_Library\LIB_UTilities.c **** #endif
 119:C:/Workspace/FW_Platform2_5/trunk/ProductModules/PM_Library\LIB_UTilities.c **** /* **************** */
 120:C:/Workspace/FW_Platform2_5/trunk/ProductModules/PM_Library\LIB_UTilities.c **** /* Global variables */
 121:C:/Workspace/FW_Platform2_5/trunk/ProductModules/PM_Library\LIB_UTilities.c **** /* **************** */
 122:C:/Workspace/FW_Platform2_5/trunk/ProductModules/PM_Library\LIB_UTilities.c **** 
 123:C:/Workspace/FW_Platform2_5/trunk/ProductModules/PM_Library\LIB_UTilities.c **** 
 124:C:/Workspace/FW_Platform2_5/trunk/ProductModules/PM_Library\LIB_UTilities.c **** /* ***************** */
 125:C:/Workspace/FW_Platform2_5/trunk/ProductModules/PM_Library\LIB_UTilities.c **** /* Exported function */
 126:C:/Workspace/FW_Platform2_5/trunk/ProductModules/PM_Library\LIB_UTilities.c **** /* ***************** */
 127:C:/Workspace/FW_Platform2_5/trunk/ProductModules/PM_Library\LIB_UTilities.c **** 
 128:C:/Workspace/FW_Platform2_5/trunk/ProductModules/PM_Library\LIB_UTilities.c **** uint16_t Endian16_Swap(uint16_t value)
 129:C:/Workspace/FW_Platform2_5/trunk/ProductModules/PM_Library\LIB_UTilities.c **** {
 130:C:/Workspace/FW_Platform2_5/trunk/ProductModules/PM_Library\LIB_UTilities.c **** 	return (uint16_t)(((value & (uint16_t)0x00FF) << 8) | ((value & (uint16_t)0xFF00) >> 8));
 131:C:/Workspace/FW_Platform2_5/trunk/ProductModules/PM_Library\LIB_UTilities.c **** }
 132:C:/Workspace/FW_Platform2_5/trunk/ProductModules/PM_Library\LIB_UTilities.c **** 
 133:C:/Workspace/FW_Platform2_5/trunk/ProductModules/PM_Library\LIB_UTilities.c **** 
 134:C:/Workspace/FW_Platform2_5/trunk/ProductModules/PM_Library\LIB_UTilities.c **** /**
 135:C:/Workspace/FW_Platform2_5/trunk/ProductModules/PM_Library\LIB_UTilities.c **** Copies until 255 bytes from last.
 136:C:/Workspace/FW_Platform2_5/trunk/ProductModules/PM_Library\LIB_UTilities.c **** \warning
 137:C:/Workspace/FW_Platform2_5/trunk/ProductModules/PM_Library\LIB_UTilities.c **** 
 138:C:/Workspace/FW_Platform2_5/trunk/ProductModules/PM_Library\LIB_UTilities.c **** \note
 139:C:/Workspace/FW_Platform2_5/trunk/ProductModules/PM_Library\LIB_UTilities.c **** \version		1.0.0
 140:C:/Workspace/FW_Platform2_5/trunk/ProductModules/PM_Library\LIB_UTilities.c **** \date 			06/07/2009
 141:C:/Workspace/FW_Platform2_5/trunk/ProductModules/PM_Library\LIB_UTilities.c **** \author			Roberto Fioravanti
 142:C:/Workspace/FW_Platform2_5/trunk/ProductModules/PM_Library\LIB_UTilities.c **** */
 143:C:/Workspace/FW_Platform2_5/trunk/ProductModules/PM_Library\LIB_UTilities.c **** void LIB_MemcpyFromLast
 144:C:/Workspace/FW_Platform2_5/trunk/ProductModules/PM_Library\LIB_UTilities.c **** (
 145:C:/Workspace/FW_Platform2_5/trunk/ProductModules/PM_Library\LIB_UTilities.c ****   void *pDst, 					/* Destination buffer */
 146:C:/Workspace/FW_Platform2_5/trunk/ProductModules/PM_Library\LIB_UTilities.c ****   const void *pSrc, 		/* Source buffer */
 147:C:/Workspace/FW_Platform2_5/trunk/ProductModules/PM_Library\LIB_UTilities.c ****   uint8_t n   					/* Byte count */
 148:C:/Workspace/FW_Platform2_5/trunk/ProductModules/PM_Library\LIB_UTilities.c **** )
 149:C:/Workspace/FW_Platform2_5/trunk/ProductModules/PM_Library\LIB_UTilities.c **** {
 150:C:/Workspace/FW_Platform2_5/trunk/ProductModules/PM_Library\LIB_UTilities.c ****   uint8_t * sd = (uint8_t *)pDst+n-1;
 151:C:/Workspace/FW_Platform2_5/trunk/ProductModules/PM_Library\LIB_UTilities.c ****   const uint8_t * ss = (const uint8_t *)pSrc+n-1;
 152:C:/Workspace/FW_Platform2_5/trunk/ProductModules/PM_Library\LIB_UTilities.c **** 	while(n--)
 153:C:/Workspace/FW_Platform2_5/trunk/ProductModules/PM_Library\LIB_UTilities.c **** 	{
 154:C:/Workspace/FW_Platform2_5/trunk/ProductModules/PM_Library\LIB_UTilities.c **** 	  *sd--=*ss--;
 155:C:/Workspace/FW_Platform2_5/trunk/ProductModules/PM_Library\LIB_UTilities.c **** 	}
 156:C:/Workspace/FW_Platform2_5/trunk/ProductModules/PM_Library\LIB_UTilities.c **** }
 157:C:/Workspace/FW_Platform2_5/trunk/ProductModules/PM_Library\LIB_UTilities.c **** /**
 158:C:/Workspace/FW_Platform2_5/trunk/ProductModules/PM_Library\LIB_UTilities.c **** Setting File CheckSum Computation.
 159:C:/Workspace/FW_Platform2_5/trunk/ProductModules/PM_Library\LIB_UTilities.c **** 
 160:C:/Workspace/FW_Platform2_5/trunk/ProductModules/PM_Library\LIB_UTilities.c **** \param  [in]		Start checksum start point computation.
 161:C:/Workspace/FW_Platform2_5/trunk/ProductModules/PM_Library\LIB_UTilities.c **** \param  [in]		End checksum end point computation.
 162:C:/Workspace/FW_Platform2_5/trunk/ProductModules/PM_Library\LIB_UTilities.c **** 
 163:C:/Workspace/FW_Platform2_5/trunk/ProductModules/PM_Library\LIB_UTilities.c **** \attention \b  SF_NUM_BYTES_TO_CHECK must be fit by user.
 164:C:/Workspace/FW_Platform2_5/trunk/ProductModules/PM_Library\LIB_UTilities.c **** 
 165:C:/Workspace/FW_Platform2_5/trunk/ProductModules/PM_Library\LIB_UTilities.c **** \return 	LIB_CompChkType
 166:C:/Workspace/FW_Platform2_5/trunk/ProductModules/PM_Library\LIB_UTilities.c **** 
 167:C:/Workspace/FW_Platform2_5/trunk/ProductModules/PM_Library\LIB_UTilities.c **** \retval		jobDone TRUE/FALSE if TRUE checkSum avaible.
 168:C:/Workspace/FW_Platform2_5/trunk/ProductModules/PM_Library\LIB_UTilities.c **** \retval		checkSum checksum computed.
 169:C:/Workspace/FW_Platform2_5/trunk/ProductModules/PM_Library\LIB_UTilities.c **** 
 170:C:/Workspace/FW_Platform2_5/trunk/ProductModules/PM_Library\LIB_UTilities.c **** \author 	stefano.ughi
 171:C:/Workspace/FW_Platform2_5/trunk/ProductModules/PM_Library\LIB_UTilities.c **** \date		Jan 12, 2010
 172:C:/Workspace/FW_Platform2_5/trunk/ProductModules/PM_Library\LIB_UTilities.c **** \version	1.0.0
 173:C:/Workspace/FW_Platform2_5/trunk/ProductModules/PM_Library\LIB_UTilities.c **** 
 174:C:/Workspace/FW_Platform2_5/trunk/ProductModules/PM_Library\LIB_UTilities.c **** \note		\par \b Note 1:
 175:C:/Workspace/FW_Platform2_5/trunk/ProductModules/PM_Library\LIB_UTilities.c **** 			documentation by stefano.ughi
 176:C:/Workspace/FW_Platform2_5/trunk/ProductModules/PM_Library\LIB_UTilities.c **** */
 177:C:/Workspace/FW_Platform2_5/trunk/ProductModules/PM_Library\LIB_UTilities.c **** #if defined(HAL_FLS_SUPPORT)
 178:C:/Workspace/FW_Platform2_5/trunk/ProductModules/PM_Library\LIB_UTilities.c **** LIB_CompChkType LIB_ComputeSettingFileCheckSum(FLS_positionType Start,FLS_positionType End)
 179:C:/Workspace/FW_Platform2_5/trunk/ProductModules/PM_Library\LIB_UTilities.c **** {
 180:C:/Workspace/FW_Platform2_5/trunk/ProductModules/PM_Library\LIB_UTilities.c **** LIB_CompChkType libCompChk;
 181:C:/Workspace/FW_Platform2_5/trunk/ProductModules/PM_Library\LIB_UTilities.c **** LIB_NumBytesToCheckType i;
 182:C:/Workspace/FW_Platform2_5/trunk/ProductModules/PM_Library\LIB_UTilities.c **** static uint16_t PartialChecksum;
 183:C:/Workspace/FW_Platform2_5/trunk/ProductModules/PM_Library\LIB_UTilities.c **** static enum CompChkStateTag
 184:C:/Workspace/FW_Platform2_5/trunk/ProductModules/PM_Library\LIB_UTilities.c **** {
 185:C:/Workspace/FW_Platform2_5/trunk/ProductModules/PM_Library\LIB_UTilities.c ****     COMP_CHK_INIT=0,
 186:C:/Workspace/FW_Platform2_5/trunk/ProductModules/PM_Library\LIB_UTilities.c ****     COMP_CHK_RUN,
 187:C:/Workspace/FW_Platform2_5/trunk/ProductModules/PM_Library\LIB_UTilities.c ****     COMP_CHK_END
 188:C:/Workspace/FW_Platform2_5/trunk/ProductModules/PM_Library\LIB_UTilities.c **** }CompChkState={COMP_CHK_INIT};
 189:C:/Workspace/FW_Platform2_5/trunk/ProductModules/PM_Library\LIB_UTilities.c **** static const uint8_t *pData;
 190:C:/Workspace/FW_Platform2_5/trunk/ProductModules/PM_Library\LIB_UTilities.c **** 
 191:C:/Workspace/FW_Platform2_5/trunk/ProductModules/PM_Library\LIB_UTilities.c **** 	libCompChk.jobDone = FALSE;
 192:C:/Workspace/FW_Platform2_5/trunk/ProductModules/PM_Library\LIB_UTilities.c ****     switch(CompChkState)
 193:C:/Workspace/FW_Platform2_5/trunk/ProductModules/PM_Library\LIB_UTilities.c ****     {
 194:C:/Workspace/FW_Platform2_5/trunk/ProductModules/PM_Library\LIB_UTilities.c ****         case COMP_CHK_INIT:
 195:C:/Workspace/FW_Platform2_5/trunk/ProductModules/PM_Library\LIB_UTilities.c ****             PartialChecksum = 0;
 196:C:/Workspace/FW_Platform2_5/trunk/ProductModules/PM_Library\LIB_UTilities.c ****             pData = (uint8_t*)Start;
 197:C:/Workspace/FW_Platform2_5/trunk/ProductModules/PM_Library\LIB_UTilities.c ****             CompChkState = COMP_CHK_RUN;
 198:C:/Workspace/FW_Platform2_5/trunk/ProductModules/PM_Library\LIB_UTilities.c ****             /*lint -fallthrough */
 199:C:/Workspace/FW_Platform2_5/trunk/ProductModules/PM_Library\LIB_UTilities.c ****         case COMP_CHK_RUN:
 200:C:/Workspace/FW_Platform2_5/trunk/ProductModules/PM_Library\LIB_UTilities.c ****             for ( i = 0; i < SF_NUM_BYTES_TO_CHECK; i++ )
 201:C:/Workspace/FW_Platform2_5/trunk/ProductModules/PM_Library\LIB_UTilities.c ****             {
 202:C:/Workspace/FW_Platform2_5/trunk/ProductModules/PM_Library\LIB_UTilities.c ****                 if ( pData < (uint8_t*)End )
 203:C:/Workspace/FW_Platform2_5/trunk/ProductModules/PM_Library\LIB_UTilities.c ****                 {
 204:C:/Workspace/FW_Platform2_5/trunk/ProductModules/PM_Library\LIB_UTilities.c ****                     PartialChecksum ^= *pData;
 205:C:/Workspace/FW_Platform2_5/trunk/ProductModules/PM_Library\LIB_UTilities.c ****                     PartialChecksum = (uint16_t)(((PartialChecksum & 0x8000) ? 1 : 0) | (PartialChe
 206:C:/Workspace/FW_Platform2_5/trunk/ProductModules/PM_Library\LIB_UTilities.c ****                     pData++;
 207:C:/Workspace/FW_Platform2_5/trunk/ProductModules/PM_Library\LIB_UTilities.c ****                 }
 208:C:/Workspace/FW_Platform2_5/trunk/ProductModules/PM_Library\LIB_UTilities.c ****                 else
 209:C:/Workspace/FW_Platform2_5/trunk/ProductModules/PM_Library\LIB_UTilities.c ****                 {
 210:C:/Workspace/FW_Platform2_5/trunk/ProductModules/PM_Library\LIB_UTilities.c ****                     i = SF_NUM_BYTES_TO_CHECK;
 211:C:/Workspace/FW_Platform2_5/trunk/ProductModules/PM_Library\LIB_UTilities.c ****                     CompChkState = COMP_CHK_END;
 212:C:/Workspace/FW_Platform2_5/trunk/ProductModules/PM_Library\LIB_UTilities.c ****                 }
 213:C:/Workspace/FW_Platform2_5/trunk/ProductModules/PM_Library\LIB_UTilities.c ****             }
 214:C:/Workspace/FW_Platform2_5/trunk/ProductModules/PM_Library\LIB_UTilities.c ****             break;
 215:C:/Workspace/FW_Platform2_5/trunk/ProductModules/PM_Library\LIB_UTilities.c ****         case COMP_CHK_END:
 216:C:/Workspace/FW_Platform2_5/trunk/ProductModules/PM_Library\LIB_UTilities.c ****         	libCompChk.jobDone = TRUE;
 217:C:/Workspace/FW_Platform2_5/trunk/ProductModules/PM_Library\LIB_UTilities.c ****         	libCompChk.checkSum = PartialChecksum;
 218:C:/Workspace/FW_Platform2_5/trunk/ProductModules/PM_Library\LIB_UTilities.c ****         	/* Restore machine state for the next call */
 219:C:/Workspace/FW_Platform2_5/trunk/ProductModules/PM_Library\LIB_UTilities.c ****         	CompChkState = COMP_CHK_INIT;
 220:C:/Workspace/FW_Platform2_5/trunk/ProductModules/PM_Library\LIB_UTilities.c ****             break;
 221:C:/Workspace/FW_Platform2_5/trunk/ProductModules/PM_Library\LIB_UTilities.c ****         default:
 222:C:/Workspace/FW_Platform2_5/trunk/ProductModules/PM_Library\LIB_UTilities.c ****             CompChkState = COMP_CHK_INIT;
 223:C:/Workspace/FW_Platform2_5/trunk/ProductModules/PM_Library\LIB_UTilities.c ****             break;
 224:C:/Workspace/FW_Platform2_5/trunk/ProductModules/PM_Library\LIB_UTilities.c ****     }
 225:C:/Workspace/FW_Platform2_5/trunk/ProductModules/PM_Library\LIB_UTilities.c ****     return(libCompChk);
 226:C:/Workspace/FW_Platform2_5/trunk/ProductModules/PM_Library\LIB_UTilities.c **** }
 227:C:/Workspace/FW_Platform2_5/trunk/ProductModules/PM_Library\LIB_UTilities.c **** 
 228:C:/Workspace/FW_Platform2_5/trunk/ProductModules/PM_Library\LIB_UTilities.c **** /**
 229:C:/Workspace/FW_Platform2_5/trunk/ProductModules/PM_Library\LIB_UTilities.c **** Calculate partial checksum - setting file algorithm.
 230:C:/Workspace/FW_Platform2_5/trunk/ProductModules/PM_Library\LIB_UTilities.c **** 
 231:C:/Workspace/FW_Platform2_5/trunk/ProductModules/PM_Library\LIB_UTilities.c **** \param  [in]            Length of chunk to process
 232:C:/Workspace/FW_Platform2_5/trunk/ProductModules/PM_Library\LIB_UTilities.c **** \param  [in]            Pointer to actual position
 233:C:/Workspace/FW_Platform2_5/trunk/ProductModules/PM_Library\LIB_UTilities.c **** \param  [in]            Partial 16-bit checksum (given from a previous call - 0 for first time)
 234:C:/Workspace/FW_Platform2_5/trunk/ProductModules/PM_Library\LIB_UTilities.c **** 
 235:C:/Workspace/FW_Platform2_5/trunk/ProductModules/PM_Library\LIB_UTilities.c **** \return         uint16_t - (partial) Checksum updated
 236:C:/Workspace/FW_Platform2_5/trunk/ProductModules/PM_Library\LIB_UTilities.c **** 
 237:C:/Workspace/FW_Platform2_5/trunk/ProductModules/PM_Library\LIB_UTilities.c **** 
 238:C:/Workspace/FW_Platform2_5/trunk/ProductModules/PM_Library\LIB_UTilities.c **** \author         Alessandro Sabbatini
 239:C:/Workspace/FW_Platform2_5/trunk/ProductModules/PM_Library\LIB_UTilities.c **** \date           Aug 30, 2012
 240:C:/Workspace/FW_Platform2_5/trunk/ProductModules/PM_Library\LIB_UTilities.c **** \version        1.0.0
 241:C:/Workspace/FW_Platform2_5/trunk/ProductModules/PM_Library\LIB_UTilities.c **** 
 242:C:/Workspace/FW_Platform2_5/trunk/ProductModules/PM_Library\LIB_UTilities.c **** */
 243:C:/Workspace/FW_Platform2_5/trunk/ProductModules/PM_Library\LIB_UTilities.c **** uint16_t LIB_SettingFileChecksumCalculate(uint16_t len, uint8_t *pSource, uint16_t partialChecksum)
 244:C:/Workspace/FW_Platform2_5/trunk/ProductModules/PM_Library\LIB_UTilities.c **** {
 245:C:/Workspace/FW_Platform2_5/trunk/ProductModules/PM_Library\LIB_UTilities.c ****     int i;
 246:C:/Workspace/FW_Platform2_5/trunk/ProductModules/PM_Library\LIB_UTilities.c ****     for( i=0; i<len; i++)
 247:C:/Workspace/FW_Platform2_5/trunk/ProductModules/PM_Library\LIB_UTilities.c ****     {
 248:C:/Workspace/FW_Platform2_5/trunk/ProductModules/PM_Library\LIB_UTilities.c ****         partialChecksum ^= *pSource;
 249:C:/Workspace/FW_Platform2_5/trunk/ProductModules/PM_Library\LIB_UTilities.c ****         partialChecksum = (uint16_t) (((partialChecksum & 0x8000)? 1 : 0) | (partialChecksum<<1));
 250:C:/Workspace/FW_Platform2_5/trunk/ProductModules/PM_Library\LIB_UTilities.c ****         pSource++;
 251:C:/Workspace/FW_Platform2_5/trunk/ProductModules/PM_Library\LIB_UTilities.c ****     }
 252:C:/Workspace/FW_Platform2_5/trunk/ProductModules/PM_Library\LIB_UTilities.c **** 
 253:C:/Workspace/FW_Platform2_5/trunk/ProductModules/PM_Library\LIB_UTilities.c ****     return partialChecksum;
 254:C:/Workspace/FW_Platform2_5/trunk/ProductModules/PM_Library\LIB_UTilities.c **** }
 255:C:/Workspace/FW_Platform2_5/trunk/ProductModules/PM_Library\LIB_UTilities.c **** 
 256:C:/Workspace/FW_Platform2_5/trunk/ProductModules/PM_Library\LIB_UTilities.c **** #endif
 257:C:/Workspace/FW_Platform2_5/trunk/ProductModules/PM_Library\LIB_UTilities.c **** 
 258:C:/Workspace/FW_Platform2_5/trunk/ProductModules/PM_Library\LIB_UTilities.c **** 
 259:C:/Workspace/FW_Platform2_5/trunk/ProductModules/PM_Library\LIB_UTilities.c **** 
 260:C:/Workspace/FW_Platform2_5/trunk/ProductModules/PM_Library\LIB_UTilities.c **** /**
 261:C:/Workspace/FW_Platform2_5/trunk/ProductModules/PM_Library\LIB_UTilities.c **** Converts two consecutive bytes in a word
 262:C:/Workspace/FW_Platform2_5/trunk/ProductModules/PM_Library\LIB_UTilities.c **** 
 263:C:/Workspace/FW_Platform2_5/trunk/ProductModules/PM_Library\LIB_UTilities.c **** \param  [in]		pBuf pointer to first byte M.S.B.
 264:C:/Workspace/FW_Platform2_5/trunk/ProductModules/PM_Library\LIB_UTilities.c **** 
 265:C:/Workspace/FW_Platform2_5/trunk/ProductModules/PM_Library\LIB_UTilities.c **** \return 	uint16_t
 266:C:/Workspace/FW_Platform2_5/trunk/ProductModules/PM_Library\LIB_UTilities.c **** 
 267:C:/Workspace/FW_Platform2_5/trunk/ProductModules/PM_Library\LIB_UTilities.c **** \retval		1th byte*256+2nd byte
 268:C:/Workspace/FW_Platform2_5/trunk/ProductModules/PM_Library\LIB_UTilities.c **** 
 269:C:/Workspace/FW_Platform2_5/trunk/ProductModules/PM_Library\LIB_UTilities.c **** \author 	stefano.ughi
 270:C:/Workspace/FW_Platform2_5/trunk/ProductModules/PM_Library\LIB_UTilities.c **** \date		Jan 14, 2010
 271:C:/Workspace/FW_Platform2_5/trunk/ProductModules/PM_Library\LIB_UTilities.c **** \version	1.0.0
 272:C:/Workspace/FW_Platform2_5/trunk/ProductModules/PM_Library\LIB_UTilities.c **** 
 273:C:/Workspace/FW_Platform2_5/trunk/ProductModules/PM_Library\LIB_UTilities.c **** \note		\par \b Note 1:
 274:C:/Workspace/FW_Platform2_5/trunk/ProductModules/PM_Library\LIB_UTilities.c **** 			documentation by stefano.ughi
 275:C:/Workspace/FW_Platform2_5/trunk/ProductModules/PM_Library\LIB_UTilities.c **** 
 276:C:/Workspace/FW_Platform2_5/trunk/ProductModules/PM_Library\LIB_UTilities.c **** */
 277:C:/Workspace/FW_Platform2_5/trunk/ProductModules/PM_Library\LIB_UTilities.c **** uint16_t LIB_ConvTwoByteInWord(const uint8_t *const pBuf)
 278:C:/Workspace/FW_Platform2_5/trunk/ProductModules/PM_Library\LIB_UTilities.c **** {
 279:C:/Workspace/FW_Platform2_5/trunk/ProductModules/PM_Library\LIB_UTilities.c ****     return (uint16_t) ((*pBuf << 8) | *(pBuf + 1));
 280:C:/Workspace/FW_Platform2_5/trunk/ProductModules/PM_Library\LIB_UTilities.c **** }
 281:C:/Workspace/FW_Platform2_5/trunk/ProductModules/PM_Library\LIB_UTilities.c **** /**
 282:C:/Workspace/FW_Platform2_5/trunk/ProductModules/PM_Library\LIB_UTilities.c **** Swap a data word.
 283:C:/Workspace/FW_Platform2_5/trunk/ProductModules/PM_Library\LIB_UTilities.c **** 
 284:C:/Workspace/FW_Platform2_5/trunk/ProductModules/PM_Library\LIB_UTilities.c **** \param  [in]	data
 285:C:/Workspace/FW_Platform2_5/trunk/ProductModules/PM_Library\LIB_UTilities.c **** 
 286:C:/Workspace/FW_Platform2_5/trunk/ProductModules/PM_Library\LIB_UTilities.c **** \return 	uint16_t
 287:C:/Workspace/FW_Platform2_5/trunk/ProductModules/PM_Library\LIB_UTilities.c **** 
 288:C:/Workspace/FW_Platform2_5/trunk/ProductModules/PM_Library\LIB_UTilities.c **** \author 	stefano.ughi
 289:C:/Workspace/FW_Platform2_5/trunk/ProductModules/PM_Library\LIB_UTilities.c **** \date		Feb 01, 2010
 290:C:/Workspace/FW_Platform2_5/trunk/ProductModules/PM_Library\LIB_UTilities.c **** \version	1.0.0
 291:C:/Workspace/FW_Platform2_5/trunk/ProductModules/PM_Library\LIB_UTilities.c **** 
 292:C:/Workspace/FW_Platform2_5/trunk/ProductModules/PM_Library\LIB_UTilities.c **** \note		\par \b Note 1:
 293:C:/Workspace/FW_Platform2_5/trunk/ProductModules/PM_Library\LIB_UTilities.c **** 			documentation by stefano.ughi
 294:C:/Workspace/FW_Platform2_5/trunk/ProductModules/PM_Library\LIB_UTilities.c **** 
 295:C:/Workspace/FW_Platform2_5/trunk/ProductModules/PM_Library\LIB_UTilities.c **** */
 296:C:/Workspace/FW_Platform2_5/trunk/ProductModules/PM_Library\LIB_UTilities.c **** uint16_t LIB_SwapWord(uint16_t data)
 297:C:/Workspace/FW_Platform2_5/trunk/ProductModules/PM_Library\LIB_UTilities.c **** {
 298:C:/Workspace/FW_Platform2_5/trunk/ProductModules/PM_Library\LIB_UTilities.c **** uint16_t swapWord;
 299:C:/Workspace/FW_Platform2_5/trunk/ProductModules/PM_Library\LIB_UTilities.c ****     swapWord = (uint16_t)(((uint16_t)(data << 8) | (data >> 8)));
 300:C:/Workspace/FW_Platform2_5/trunk/ProductModules/PM_Library\LIB_UTilities.c ****     return (swapWord);
 301:C:/Workspace/FW_Platform2_5/trunk/ProductModules/PM_Library\LIB_UTilities.c **** }
 302:C:/Workspace/FW_Platform2_5/trunk/ProductModules/PM_Library\LIB_UTilities.c **** 
 303:C:/Workspace/FW_Platform2_5/trunk/ProductModules/PM_Library\LIB_UTilities.c **** /* Setting file manipulation Utilities */
 304:C:/Workspace/FW_Platform2_5/trunk/ProductModules/PM_Library\LIB_UTilities.c **** 
 305:C:/Workspace/FW_Platform2_5/trunk/ProductModules/PM_Library\LIB_UTilities.c **** /**
 306:C:/Workspace/FW_Platform2_5/trunk/ProductModules/PM_Library\LIB_UTilities.c **** Returns the start address of the setting.
 307:C:/Workspace/FW_Platform2_5/trunk/ProductModules/PM_Library\LIB_UTilities.c **** 
 308:C:/Workspace/FW_Platform2_5/trunk/ProductModules/PM_Library\LIB_UTilities.c **** \return 	uint16_t *		Pointer to Setting file area
 309:C:/Workspace/FW_Platform2_5/trunk/ProductModules/PM_Library\LIB_UTilities.c **** 
 310:C:/Workspace/FW_Platform2_5/trunk/ProductModules/PM_Library\LIB_UTilities.c **** \author 	Roberto Fioravanti
 311:C:/Workspace/FW_Platform2_5/trunk/ProductModules/PM_Library\LIB_UTilities.c **** \date		Apr 18,2013
 312:C:/Workspace/FW_Platform2_5/trunk/ProductModules/PM_Library\LIB_UTilities.c **** \version	1.0.0
 313:C:/Workspace/FW_Platform2_5/trunk/ProductModules/PM_Library\LIB_UTilities.c **** */
 314:C:/Workspace/FW_Platform2_5/trunk/ProductModules/PM_Library\LIB_UTilities.c **** uint16_t* GetDefaultSettingStartAddress(void)
 315:C:/Workspace/FW_Platform2_5/trunk/ProductModules/PM_Library\LIB_UTilities.c **** {
 316:C:/Workspace/FW_Platform2_5/trunk/ProductModules/PM_Library\LIB_UTilities.c **** 	return (uint16_t*)(&Eeprom[0]);
 317:C:/Workspace/FW_Platform2_5/trunk/ProductModules/PM_Library\LIB_UTilities.c **** }
 318:C:/Workspace/FW_Platform2_5/trunk/ProductModules/PM_Library\LIB_UTilities.c **** 
 319:C:/Workspace/FW_Platform2_5/trunk/ProductModules/PM_Library\LIB_UTilities.c **** 
 320:C:/Workspace/FW_Platform2_5/trunk/ProductModules/PM_Library\LIB_UTilities.c **** 
 321:C:/Workspace/FW_Platform2_5/trunk/ProductModules/PM_Library\LIB_UTilities.c **** /**
 322:C:/Workspace/FW_Platform2_5/trunk/ProductModules/PM_Library\LIB_UTilities.c **** This function extract address and size of data related to a given displacement
 323:C:/Workspace/FW_Platform2_5/trunk/ProductModules/PM_Library\LIB_UTilities.c **** of a given pointer belonging to a setting file.
 324:C:/Workspace/FW_Platform2_5/trunk/ProductModules/PM_Library\LIB_UTilities.c **** The start address of the Setting file is provided as parameter .
 325:C:/Workspace/FW_Platform2_5/trunk/ProductModules/PM_Library\LIB_UTilities.c **** 
 326:C:/Workspace/FW_Platform2_5/trunk/ProductModules/PM_Library\LIB_UTilities.c **** \param  [in]		pdataStartAddr: start address of the setting file.
 327:C:/Workspace/FW_Platform2_5/trunk/ProductModules/PM_Library\LIB_UTilities.c **** \param  [in] 	  pointer: Setting file pointer. This value corresponds to the position in word
 328:C:/Workspace/FW_Platform2_5/trunk/ProductModules/PM_Library\LIB_UTilities.c ****                 respect to the SF start address of the pointer value.(see setting file documentatio
 329:C:/Workspace/FW_Platform2_5/trunk/ProductModules/PM_Library\LIB_UTilities.c **** \param  [in] 	  displacement: index of the displscement. (see setting file documentation)
 330:C:/Workspace/FW_Platform2_5/trunk/ProductModules/PM_Library\LIB_UTilities.c **** \param  [out] 	pDataOut: is composed by the absolute address and the size (in words) of the returne
 331:C:/Workspace/FW_Platform2_5/trunk/ProductModules/PM_Library\LIB_UTilities.c **** 
 332:C:/Workspace/FW_Platform2_5/trunk/ProductModules/PM_Library\LIB_UTilities.c **** \return 	uint8_t
 333:C:/Workspace/FW_Platform2_5/trunk/ProductModules/PM_Library\LIB_UTilities.c **** 
 334:C:/Workspace/FW_Platform2_5/trunk/ProductModules/PM_Library\LIB_UTilities.c **** \retval	 SF_OK : OK
 335:C:/Workspace/FW_Platform2_5/trunk/ProductModules/PM_Library\LIB_UTilities.c **** \retval  SF_LDR_ERR_INVALID_DISPL: invalid displ value
 336:C:/Workspace/FW_Platform2_5/trunk/ProductModules/PM_Library\LIB_UTilities.c **** \retval  SF_LDR_ERR_INVALID_POINTER: invalid pointer value
 337:C:/Workspace/FW_Platform2_5/trunk/ProductModules/PM_Library\LIB_UTilities.c **** \retval  SF_LDR_ERR_OVFL_EXTRAPTR: too many extrapointers respect to a MAX defined value
 338:C:/Workspace/FW_Platform2_5/trunk/ProductModules/PM_Library\LIB_UTilities.c **** \retval  SF_LDR_ERR_ENDOFPOINTER: displacement is > of the last available displacement
 339:C:/Workspace/FW_Platform2_5/trunk/ProductModules/PM_Library\LIB_UTilities.c **** \retval  SF_LDR_WRN_LENGHT : data has length =0
 340:C:/Workspace/FW_Platform2_5/trunk/ProductModules/PM_Library\LIB_UTilities.c **** 
 341:C:/Workspace/FW_Platform2_5/trunk/ProductModules/PM_Library\LIB_UTilities.c **** 
 342:C:/Workspace/FW_Platform2_5/trunk/ProductModules/PM_Library\LIB_UTilities.c **** \author 	Andrea.Mantovani
 343:C:/Workspace/FW_Platform2_5/trunk/ProductModules/PM_Library\LIB_UTilities.c **** \date		Feb X, 2010
 344:C:/Workspace/FW_Platform2_5/trunk/ProductModules/PM_Library\LIB_UTilities.c **** \version	1.0.0
 345:C:/Workspace/FW_Platform2_5/trunk/ProductModules/PM_Library\LIB_UTilities.c **** 
 346:C:/Workspace/FW_Platform2_5/trunk/ProductModules/PM_Library\LIB_UTilities.c **** \note		\par \b Note 1:
 347:C:/Workspace/FW_Platform2_5/trunk/ProductModules/PM_Library\LIB_UTilities.c **** 			documentation by Andrea.Mantovani
 348:C:/Workspace/FW_Platform2_5/trunk/ProductModules/PM_Library\LIB_UTilities.c **** 
 349:C:/Workspace/FW_Platform2_5/trunk/ProductModules/PM_Library\LIB_UTilities.c **** */
 350:C:/Workspace/FW_Platform2_5/trunk/ProductModules/PM_Library\LIB_UTilities.c **** uint8_t SFBasicLoader(uint16_t* pdataStartAddr, uint8_t pointer, uint8_t displacement, Loader_Struc
 351:C:/Workspace/FW_Platform2_5/trunk/ProductModules/PM_Library\LIB_UTilities.c **** {
 352:C:/Workspace/FW_Platform2_5/trunk/ProductModules/PM_Library\LIB_UTilities.c ****   uint16_t* pDataTmp;
 353:C:/Workspace/FW_Platform2_5/trunk/ProductModules/PM_Library\LIB_UTilities.c ****   uint16_t nPage, pointerVal, ui16DisplNum;
 354:C:/Workspace/FW_Platform2_5/trunk/ProductModules/PM_Library\LIB_UTilities.c ****   uint8_t* pData, *pData2;
 355:C:/Workspace/FW_Platform2_5/trunk/ProductModules/PM_Library\LIB_UTilities.c **** 
 356:C:/Workspace/FW_Platform2_5/trunk/ProductModules/PM_Library\LIB_UTilities.c ****   uint8_t nExtraPointerWords;
 357:C:/Workspace/FW_Platform2_5/trunk/ProductModules/PM_Library\LIB_UTilities.c ****   uint8_t i;
 358:C:/Workspace/FW_Platform2_5/trunk/ProductModules/PM_Library\LIB_UTilities.c **** 
 359:C:/Workspace/FW_Platform2_5/trunk/ProductModules/PM_Library\LIB_UTilities.c **** 
 360:C:/Workspace/FW_Platform2_5/trunk/ProductModules/PM_Library\LIB_UTilities.c ****   if (0xFF == displacement)
 361:C:/Workspace/FW_Platform2_5/trunk/ProductModules/PM_Library\LIB_UTilities.c ****   {
 362:C:/Workspace/FW_Platform2_5/trunk/ProductModules/PM_Library\LIB_UTilities.c ****     /**
 363:C:/Workspace/FW_Platform2_5/trunk/ProductModules/PM_Library\LIB_UTilities.c ****       0xFF is the last admitted value and is an odd value and for this reason it must be a dummy
 364:C:/Workspace/FW_Platform2_5/trunk/ProductModules/PM_Library\LIB_UTilities.c ****       displacemnt cause the size cannot be calculated
 365:C:/Workspace/FW_Platform2_5/trunk/ProductModules/PM_Library\LIB_UTilities.c ****       */
 366:C:/Workspace/FW_Platform2_5/trunk/ProductModules/PM_Library\LIB_UTilities.c ****     return SF_LDR_ERR_INVALID_DISPL;
 367:C:/Workspace/FW_Platform2_5/trunk/ProductModules/PM_Library\LIB_UTilities.c ****   }
 368:C:/Workspace/FW_Platform2_5/trunk/ProductModules/PM_Library\LIB_UTilities.c **** 
 369:C:/Workspace/FW_Platform2_5/trunk/ProductModules/PM_Library\LIB_UTilities.c **** 
 370:C:/Workspace/FW_Platform2_5/trunk/ProductModules/PM_Library\LIB_UTilities.c ****   pDataTmp  = pdataStartAddr ;
 371:C:/Workspace/FW_Platform2_5/trunk/ProductModules/PM_Library\LIB_UTilities.c ****   pDataTmp += pointer;
 372:C:/Workspace/FW_Platform2_5/trunk/ProductModules/PM_Library\LIB_UTilities.c **** 
 373:C:/Workspace/FW_Platform2_5/trunk/ProductModules/PM_Library\LIB_UTilities.c ****   pointerVal = *(pDataTmp);
 374:C:/Workspace/FW_Platform2_5/trunk/ProductModules/PM_Library\LIB_UTilities.c **** 
 375:C:/Workspace/FW_Platform2_5/trunk/ProductModules/PM_Library\LIB_UTilities.c **** 
 376:C:/Workspace/FW_Platform2_5/trunk/ProductModules/PM_Library\LIB_UTilities.c ****     if ((NULL_POINTER == pointerVal) || (INVALID_POINTER == pointerVal))
 377:C:/Workspace/FW_Platform2_5/trunk/ProductModules/PM_Library\LIB_UTilities.c ****     {
 378:C:/Workspace/FW_Platform2_5/trunk/ProductModules/PM_Library\LIB_UTilities.c ****       return SF_LDR_ERR_INVALID_POINTER;
 379:C:/Workspace/FW_Platform2_5/trunk/ProductModules/PM_Library\LIB_UTilities.c ****     }
 380:C:/Workspace/FW_Platform2_5/trunk/ProductModules/PM_Library\LIB_UTilities.c **** 
 381:C:/Workspace/FW_Platform2_5/trunk/ProductModules/PM_Library\LIB_UTilities.c **** 
 382:C:/Workspace/FW_Platform2_5/trunk/ProductModules/PM_Library\LIB_UTilities.c ****   pdataStartAddr += pointerVal;
 383:C:/Workspace/FW_Platform2_5/trunk/ProductModules/PM_Library\LIB_UTilities.c ****   pData = (uint8_t*)(pdataStartAddr);
 384:C:/Workspace/FW_Platform2_5/trunk/ProductModules/PM_Library\LIB_UTilities.c ****   nExtraPointerWords = *pData;
 385:C:/Workspace/FW_Platform2_5/trunk/ProductModules/PM_Library\LIB_UTilities.c **** 
 386:C:/Workspace/FW_Platform2_5/trunk/ProductModules/PM_Library\LIB_UTilities.c **** 
 387:C:/Workspace/FW_Platform2_5/trunk/ProductModules/PM_Library\LIB_UTilities.c **** 
 388:C:/Workspace/FW_Platform2_5/trunk/ProductModules/PM_Library\LIB_UTilities.c ****     if (nExtraPointerWords > N_MAX_EXTRAPTR_WORDS)
 389:C:/Workspace/FW_Platform2_5/trunk/ProductModules/PM_Library\LIB_UTilities.c ****     {
 390:C:/Workspace/FW_Platform2_5/trunk/ProductModules/PM_Library\LIB_UTilities.c ****       return SF_LDR_ERR_OVFL_EXTRAPTR;
 391:C:/Workspace/FW_Platform2_5/trunk/ProductModules/PM_Library\LIB_UTilities.c ****     }
 392:C:/Workspace/FW_Platform2_5/trunk/ProductModules/PM_Library\LIB_UTilities.c **** 
 393:C:/Workspace/FW_Platform2_5/trunk/ProductModules/PM_Library\LIB_UTilities.c **** 
 394:C:/Workspace/FW_Platform2_5/trunk/ProductModules/PM_Library\LIB_UTilities.c **** 
 395:C:/Workspace/FW_Platform2_5/trunk/ProductModules/PM_Library\LIB_UTilities.c ****  /* Checks the ExtraPointer and calculates the page */
 396:C:/Workspace/FW_Platform2_5/trunk/ProductModules/PM_Library\LIB_UTilities.c ****   nPage = 0;
 397:C:/Workspace/FW_Platform2_5/trunk/ProductModules/PM_Library\LIB_UTilities.c ****   for (i = 1; i < (2 * nExtraPointerWords); i++)
 398:C:/Workspace/FW_Platform2_5/trunk/ProductModules/PM_Library\LIB_UTilities.c ****   {
 399:C:/Workspace/FW_Platform2_5/trunk/ProductModules/PM_Library\LIB_UTilities.c ****     /* displacement < 0xFF */
 400:C:/Workspace/FW_Platform2_5/trunk/ProductModules/PM_Library\LIB_UTilities.c ****     if (displacement >= OFFS_B(pData, i))
 401:C:/Workspace/FW_Platform2_5/trunk/ProductModules/PM_Library\LIB_UTilities.c ****     {
 402:C:/Workspace/FW_Platform2_5/trunk/ProductModules/PM_Library\LIB_UTilities.c ****       nPage += 0x0100U;
 403:C:/Workspace/FW_Platform2_5/trunk/ProductModules/PM_Library\LIB_UTilities.c ****     }
 404:C:/Workspace/FW_Platform2_5/trunk/ProductModules/PM_Library\LIB_UTilities.c ****   }
 405:C:/Workspace/FW_Platform2_5/trunk/ProductModules/PM_Library\LIB_UTilities.c **** 
 406:C:/Workspace/FW_Platform2_5/trunk/ProductModules/PM_Library\LIB_UTilities.c **** /* pData points to the fist byte of the displacement area */
 407:C:/Workspace/FW_Platform2_5/trunk/ProductModules/PM_Library\LIB_UTilities.c ****   pData += (2 * nExtraPointerWords);
 408:C:/Workspace/FW_Platform2_5/trunk/ProductModules/PM_Library\LIB_UTilities.c **** 
 409:C:/Workspace/FW_Platform2_5/trunk/ProductModules/PM_Library\LIB_UTilities.c **** 
 410:C:/Workspace/FW_Platform2_5/trunk/ProductModules/PM_Library\LIB_UTilities.c ****    ui16DisplNum = (uint16_t)((2*(uint8_t)(*pData)) - 1);
 411:C:/Workspace/FW_Platform2_5/trunk/ProductModules/PM_Library\LIB_UTilities.c **** 
 412:C:/Workspace/FW_Platform2_5/trunk/ProductModules/PM_Library\LIB_UTilities.c ****   /* pData2 points to the last dummy displacement */
 413:C:/Workspace/FW_Platform2_5/trunk/ProductModules/PM_Library\LIB_UTilities.c ****    pData2 =pData+ui16DisplNum;
 414:C:/Workspace/FW_Platform2_5/trunk/ProductModules/PM_Library\LIB_UTilities.c ****    if (*pData2 == *(pData2-1))
 415:C:/Workspace/FW_Platform2_5/trunk/ProductModules/PM_Library\LIB_UTilities.c ****    {
 416:C:/Workspace/FW_Platform2_5/trunk/ProductModules/PM_Library\LIB_UTilities.c ****       ui16DisplNum -=1;
 417:C:/Workspace/FW_Platform2_5/trunk/ProductModules/PM_Library\LIB_UTilities.c ****    }
 418:C:/Workspace/FW_Platform2_5/trunk/ProductModules/PM_Library\LIB_UTilities.c **** 
 419:C:/Workspace/FW_Platform2_5/trunk/ProductModules/PM_Library\LIB_UTilities.c ****     if (displacement >= ui16DisplNum)
 420:C:/Workspace/FW_Platform2_5/trunk/ProductModules/PM_Library\LIB_UTilities.c ****     {
 421:C:/Workspace/FW_Platform2_5/trunk/ProductModules/PM_Library\LIB_UTilities.c ****       return SF_LDR_ERR_ENDOFPOINTER;
 422:C:/Workspace/FW_Platform2_5/trunk/ProductModules/PM_Library\LIB_UTilities.c ****     }
 423:C:/Workspace/FW_Platform2_5/trunk/ProductModules/PM_Library\LIB_UTilities.c **** 
 424:C:/Workspace/FW_Platform2_5/trunk/ProductModules/PM_Library\LIB_UTilities.c ****   /*
 425:C:/Workspace/FW_Platform2_5/trunk/ProductModules/PM_Library\LIB_UTilities.c ****     Calculation is valid also in case *( EepData + Displacement + 1 ) < *( EepData + Displacement )
 426:C:/Workspace/FW_Platform2_5/trunk/ProductModules/PM_Library\LIB_UTilities.c ****     cause an overflow page occurs.
 427:C:/Workspace/FW_Platform2_5/trunk/ProductModules/PM_Library\LIB_UTilities.c ****   */
 428:C:/Workspace/FW_Platform2_5/trunk/ProductModules/PM_Library\LIB_UTilities.c **** 
 429:C:/Workspace/FW_Platform2_5/trunk/ProductModules/PM_Library\LIB_UTilities.c ****   pDataOut->DataLenght = (uint8_t)( *( pData + displacement + 1 ) - *( pData + displacement ) );
 430:C:/Workspace/FW_Platform2_5/trunk/ProductModules/PM_Library\LIB_UTilities.c ****   pDataOut->Data = pData + (2 * (*(pData + displacement) + nPage));
 431:C:/Workspace/FW_Platform2_5/trunk/ProductModules/PM_Library\LIB_UTilities.c ****   if (0 == pDataOut->DataLenght)
 432:C:/Workspace/FW_Platform2_5/trunk/ProductModules/PM_Library\LIB_UTilities.c ****   {
 433:C:/Workspace/FW_Platform2_5/trunk/ProductModules/PM_Library\LIB_UTilities.c ****     return SF_LDR_WRN_LENGHT;
 434:C:/Workspace/FW_Platform2_5/trunk/ProductModules/PM_Library\LIB_UTilities.c ****   }
 435:C:/Workspace/FW_Platform2_5/trunk/ProductModules/PM_Library\LIB_UTilities.c **** 
 436:C:/Workspace/FW_Platform2_5/trunk/ProductModules/PM_Library\LIB_UTilities.c ****   return SF_OK;
 437:C:/Workspace/FW_Platform2_5/trunk/ProductModules/PM_Library\LIB_UTilities.c **** 
 438:C:/Workspace/FW_Platform2_5/trunk/ProductModules/PM_Library\LIB_UTilities.c **** }
 439:C:/Workspace/FW_Platform2_5/trunk/ProductModules/PM_Library\LIB_UTilities.c **** 
 440:C:/Workspace/FW_Platform2_5/trunk/ProductModules/PM_Library\LIB_UTilities.c **** 
 441:C:/Workspace/FW_Platform2_5/trunk/ProductModules/PM_Library\LIB_UTilities.c **** 
 442:C:/Workspace/FW_Platform2_5/trunk/ProductModules/PM_Library\LIB_UTilities.c **** /**
 443:C:/Workspace/FW_Platform2_5/trunk/ProductModules/PM_Library\LIB_UTilities.c **** This function extract the page related to a given displacement belonging to a setting file.
 444:C:/Workspace/FW_Platform2_5/trunk/ProductModules/PM_Library\LIB_UTilities.c **** The start address of the Extrapointers area is provided as parameter.
 445:C:/Workspace/FW_Platform2_5/trunk/ProductModules/PM_Library\LIB_UTilities.c **** This function performs a subset of functionality of the SFBasicLoader.
 446:C:/Workspace/FW_Platform2_5/trunk/ProductModules/PM_Library\LIB_UTilities.c **** 
 447:C:/Workspace/FW_Platform2_5/trunk/ProductModules/PM_Library\LIB_UTilities.c **** \param  [in]		pdataStartAddr: start address of the extrapointers area.
 448:C:/Workspace/FW_Platform2_5/trunk/ProductModules/PM_Library\LIB_UTilities.c **** \param  [in] 	  displacement: index of the displscement. (see setting file documentation)
 449:C:/Workspace/FW_Platform2_5/trunk/ProductModules/PM_Library\LIB_UTilities.c **** \param  [out] 	ui16Page: start address of the page related to the displacement (see setting file do
 450:C:/Workspace/FW_Platform2_5/trunk/ProductModules/PM_Library\LIB_UTilities.c **** 
 451:C:/Workspace/FW_Platform2_5/trunk/ProductModules/PM_Library\LIB_UTilities.c **** \return 	uint8_t
 452:C:/Workspace/FW_Platform2_5/trunk/ProductModules/PM_Library\LIB_UTilities.c **** 
 453:C:/Workspace/FW_Platform2_5/trunk/ProductModules/PM_Library\LIB_UTilities.c **** \retval	 SF_OK : OK
 454:C:/Workspace/FW_Platform2_5/trunk/ProductModules/PM_Library\LIB_UTilities.c **** \retval  SF_LDR_ERR_INVALID_DISPL: invalid displ value
 455:C:/Workspace/FW_Platform2_5/trunk/ProductModules/PM_Library\LIB_UTilities.c **** \retval  SF_LDR_ERR_INVALID_POINTER: invalid pointer value
 456:C:/Workspace/FW_Platform2_5/trunk/ProductModules/PM_Library\LIB_UTilities.c **** \retval  SF_LDR_ERR_OVFL_EXTRAPTR: too many extrapointers respect to a MAX defined value
 457:C:/Workspace/FW_Platform2_5/trunk/ProductModules/PM_Library\LIB_UTilities.c **** \retval  SF_LDR_ERR_ENDOFPOINTER: displacement is > of the last available displacement
 458:C:/Workspace/FW_Platform2_5/trunk/ProductModules/PM_Library\LIB_UTilities.c **** \retval  SF_LDR_WRN_LENGHT : data has length =0
 459:C:/Workspace/FW_Platform2_5/trunk/ProductModules/PM_Library\LIB_UTilities.c **** 
 460:C:/Workspace/FW_Platform2_5/trunk/ProductModules/PM_Library\LIB_UTilities.c **** 
 461:C:/Workspace/FW_Platform2_5/trunk/ProductModules/PM_Library\LIB_UTilities.c **** \author 	Andrea.Mantovani
 462:C:/Workspace/FW_Platform2_5/trunk/ProductModules/PM_Library\LIB_UTilities.c **** \date		Feb X, 2010
 463:C:/Workspace/FW_Platform2_5/trunk/ProductModules/PM_Library\LIB_UTilities.c **** \version	1.0.0
 464:C:/Workspace/FW_Platform2_5/trunk/ProductModules/PM_Library\LIB_UTilities.c **** 
 465:C:/Workspace/FW_Platform2_5/trunk/ProductModules/PM_Library\LIB_UTilities.c **** \note		\par \b Note 1:
 466:C:/Workspace/FW_Platform2_5/trunk/ProductModules/PM_Library\LIB_UTilities.c **** 			documentation by Andrea.Mantovani
 467:C:/Workspace/FW_Platform2_5/trunk/ProductModules/PM_Library\LIB_UTilities.c **** 
 468:C:/Workspace/FW_Platform2_5/trunk/ProductModules/PM_Library\LIB_UTilities.c **** */
 469:C:/Workspace/FW_Platform2_5/trunk/ProductModules/PM_Library\LIB_UTilities.c **** uint8_t SFBasicLoaderGetPage(uint16_t* pdataStartAddr, uint8_t displacement,uint16_t* ui16Page)
 470:C:/Workspace/FW_Platform2_5/trunk/ProductModules/PM_Library\LIB_UTilities.c **** {
 471:C:/Workspace/FW_Platform2_5/trunk/ProductModules/PM_Library\LIB_UTilities.c ****   uint16_t nPage;
 472:C:/Workspace/FW_Platform2_5/trunk/ProductModules/PM_Library\LIB_UTilities.c ****   uint8_t* pData;
 473:C:/Workspace/FW_Platform2_5/trunk/ProductModules/PM_Library\LIB_UTilities.c ****   uint8_t nExtraPointerWords;
 474:C:/Workspace/FW_Platform2_5/trunk/ProductModules/PM_Library\LIB_UTilities.c ****   uint8_t i;
 475:C:/Workspace/FW_Platform2_5/trunk/ProductModules/PM_Library\LIB_UTilities.c **** 
 476:C:/Workspace/FW_Platform2_5/trunk/ProductModules/PM_Library\LIB_UTilities.c **** 
 477:C:/Workspace/FW_Platform2_5/trunk/ProductModules/PM_Library\LIB_UTilities.c ****   if (0xFF == displacement)
 478:C:/Workspace/FW_Platform2_5/trunk/ProductModules/PM_Library\LIB_UTilities.c ****   {
 479:C:/Workspace/FW_Platform2_5/trunk/ProductModules/PM_Library\LIB_UTilities.c ****     /**
 480:C:/Workspace/FW_Platform2_5/trunk/ProductModules/PM_Library\LIB_UTilities.c ****       0xFF  l'ultimo indice consentito per un displacement tuttavia, essendo dispari,
 481:C:/Workspace/FW_Platform2_5/trunk/ProductModules/PM_Library\LIB_UTilities.c ****        anche l'ultimo displacement in assoluto quindi non  uno spiazzamento valido
 482:C:/Workspace/FW_Platform2_5/trunk/ProductModules/PM_Library\LIB_UTilities.c ****       in quanto non  possibile specificare la sua lunghezza.
 483:C:/Workspace/FW_Platform2_5/trunk/ProductModules/PM_Library\LIB_UTilities.c ****       */
 484:C:/Workspace/FW_Platform2_5/trunk/ProductModules/PM_Library\LIB_UTilities.c ****     return SF_LDR_ERR_INVALID_DISPL;
 485:C:/Workspace/FW_Platform2_5/trunk/ProductModules/PM_Library\LIB_UTilities.c ****   }
 486:C:/Workspace/FW_Platform2_5/trunk/ProductModules/PM_Library\LIB_UTilities.c **** 
 487:C:/Workspace/FW_Platform2_5/trunk/ProductModules/PM_Library\LIB_UTilities.c ****   pData = (uint8_t*)(pdataStartAddr);
 488:C:/Workspace/FW_Platform2_5/trunk/ProductModules/PM_Library\LIB_UTilities.c ****   nExtraPointerWords = *pData;
 489:C:/Workspace/FW_Platform2_5/trunk/ProductModules/PM_Library\LIB_UTilities.c **** 
 490:C:/Workspace/FW_Platform2_5/trunk/ProductModules/PM_Library\LIB_UTilities.c **** 
 491:C:/Workspace/FW_Platform2_5/trunk/ProductModules/PM_Library\LIB_UTilities.c ****   if (nExtraPointerWords > N_MAX_EXTRAPTR_WORDS)
 492:C:/Workspace/FW_Platform2_5/trunk/ProductModules/PM_Library\LIB_UTilities.c ****   {
 493:C:/Workspace/FW_Platform2_5/trunk/ProductModules/PM_Library\LIB_UTilities.c ****     return SF_LDR_ERR_OVFL_EXTRAPTR;
 494:C:/Workspace/FW_Platform2_5/trunk/ProductModules/PM_Library\LIB_UTilities.c ****   }
 495:C:/Workspace/FW_Platform2_5/trunk/ProductModules/PM_Library\LIB_UTilities.c **** 
 496:C:/Workspace/FW_Platform2_5/trunk/ProductModules/PM_Library\LIB_UTilities.c **** /* Checks the ExtraPointer and calculates the page */
 497:C:/Workspace/FW_Platform2_5/trunk/ProductModules/PM_Library\LIB_UTilities.c ****   nPage = 0;
 498:C:/Workspace/FW_Platform2_5/trunk/ProductModules/PM_Library\LIB_UTilities.c ****   for (i = 1; i < (2 * nExtraPointerWords); i++)
 499:C:/Workspace/FW_Platform2_5/trunk/ProductModules/PM_Library\LIB_UTilities.c ****   {
 500:C:/Workspace/FW_Platform2_5/trunk/ProductModules/PM_Library\LIB_UTilities.c ****     /* displacement < 0xFF */
 501:C:/Workspace/FW_Platform2_5/trunk/ProductModules/PM_Library\LIB_UTilities.c ****     if (displacement >= OFFS_B(pData, i))
 502:C:/Workspace/FW_Platform2_5/trunk/ProductModules/PM_Library\LIB_UTilities.c ****     {
 503:C:/Workspace/FW_Platform2_5/trunk/ProductModules/PM_Library\LIB_UTilities.c ****       nPage += 0x0100U;
 504:C:/Workspace/FW_Platform2_5/trunk/ProductModules/PM_Library\LIB_UTilities.c ****     }
 505:C:/Workspace/FW_Platform2_5/trunk/ProductModules/PM_Library\LIB_UTilities.c ****   }
 506:C:/Workspace/FW_Platform2_5/trunk/ProductModules/PM_Library\LIB_UTilities.c **** 
 507:C:/Workspace/FW_Platform2_5/trunk/ProductModules/PM_Library\LIB_UTilities.c ****  *ui16Page= nPage;
 508:C:/Workspace/FW_Platform2_5/trunk/ProductModules/PM_Library\LIB_UTilities.c ****  return SF_OK;
 509:C:/Workspace/FW_Platform2_5/trunk/ProductModules/PM_Library\LIB_UTilities.c **** }
 510:C:/Workspace/FW_Platform2_5/trunk/ProductModules/PM_Library\LIB_UTilities.c **** 
 511:C:/Workspace/FW_Platform2_5/trunk/ProductModules/PM_Library\LIB_UTilities.c **** 
 512:C:/Workspace/FW_Platform2_5/trunk/ProductModules/PM_Library\LIB_UTilities.c **** /**
 513:C:/Workspace/FW_Platform2_5/trunk/ProductModules/PM_Library\LIB_UTilities.c **** This function simply calculates the address and size of data related to the given displacement.
 514:C:/Workspace/FW_Platform2_5/trunk/ProductModules/PM_Library\LIB_UTilities.c **** Also the displacement page must be rpovided as parameter.
 515:C:/Workspace/FW_Platform2_5/trunk/ProductModules/PM_Library\LIB_UTilities.c **** This function performs a subset of functionality of the SFBasicLoader.
 516:C:/Workspace/FW_Platform2_5/trunk/ProductModules/PM_Library\LIB_UTilities.c **** 
 517:C:/Workspace/FW_Platform2_5/trunk/ProductModules/PM_Library\LIB_UTilities.c **** \param  [in]		ui16Displ: being a uint16 and each displacement is only one byte the MSByte represent
 518:C:/Workspace/FW_Platform2_5/trunk/ProductModules/PM_Library\LIB_UTilities.c ****                            Displ while LSByte the Displ+1
 519:C:/Workspace/FW_Platform2_5/trunk/ProductModules/PM_Library\LIB_UTilities.c **** \param  [in] 	  ui16Page: Page related to the Displ (see setting file documentation)
 520:C:/Workspace/FW_Platform2_5/trunk/ProductModules/PM_Library\LIB_UTilities.c **** \param  [out] 	pDataOut: is composed by the address and the size (in words) of the returned data.
 521:C:/Workspace/FW_Platform2_5/trunk/ProductModules/PM_Library\LIB_UTilities.c ****                           the address isnot absolute but is the offset respect to the first displac
 522:C:/Workspace/FW_Platform2_5/trunk/ProductModules/PM_Library\LIB_UTilities.c ****                           To get the absolute address you must add Eepadd+pointer+numextrapointers 
 523:C:/Workspace/FW_Platform2_5/trunk/ProductModules/PM_Library\LIB_UTilities.c **** 
 524:C:/Workspace/FW_Platform2_5/trunk/ProductModules/PM_Library\LIB_UTilities.c **** \return 	uint8_t
 525:C:/Workspace/FW_Platform2_5/trunk/ProductModules/PM_Library\LIB_UTilities.c **** 
 526:C:/Workspace/FW_Platform2_5/trunk/ProductModules/PM_Library\LIB_UTilities.c **** \retval	 SF_OK : OK
 527:C:/Workspace/FW_Platform2_5/trunk/ProductModules/PM_Library\LIB_UTilities.c **** \retval  SF_LDR_ERR_INVALID_DISPL: invalid displ value
 528:C:/Workspace/FW_Platform2_5/trunk/ProductModules/PM_Library\LIB_UTilities.c **** \retval  SF_LDR_ERR_INVALID_POINTER: invalid pointer value
 529:C:/Workspace/FW_Platform2_5/trunk/ProductModules/PM_Library\LIB_UTilities.c **** \retval  SF_LDR_ERR_OVFL_EXTRAPTR: too many extrapointers respect to a MAX defined value
 530:C:/Workspace/FW_Platform2_5/trunk/ProductModules/PM_Library\LIB_UTilities.c **** \retval  SF_LDR_ERR_ENDOFPOINTER: displacement is > of the last available displacement
 531:C:/Workspace/FW_Platform2_5/trunk/ProductModules/PM_Library\LIB_UTilities.c **** \retval  SF_LDR_WRN_LENGHT : data has length =0
 532:C:/Workspace/FW_Platform2_5/trunk/ProductModules/PM_Library\LIB_UTilities.c **** 
 533:C:/Workspace/FW_Platform2_5/trunk/ProductModules/PM_Library\LIB_UTilities.c **** 
 534:C:/Workspace/FW_Platform2_5/trunk/ProductModules/PM_Library\LIB_UTilities.c **** \author 	Andrea.Mantovani
 535:C:/Workspace/FW_Platform2_5/trunk/ProductModules/PM_Library\LIB_UTilities.c **** \date		Feb X, 2010
 536:C:/Workspace/FW_Platform2_5/trunk/ProductModules/PM_Library\LIB_UTilities.c **** \version	1.0.0
 537:C:/Workspace/FW_Platform2_5/trunk/ProductModules/PM_Library\LIB_UTilities.c **** 
 538:C:/Workspace/FW_Platform2_5/trunk/ProductModules/PM_Library\LIB_UTilities.c **** \todo
 539:C:/Workspace/FW_Platform2_5/trunk/ProductModules/PM_Library\LIB_UTilities.c **** \note		\par \b Note 1:
 540:C:/Workspace/FW_Platform2_5/trunk/ProductModules/PM_Library\LIB_UTilities.c **** 			documentation by Andrea.Mantovani
 541:C:/Workspace/FW_Platform2_5/trunk/ProductModules/PM_Library\LIB_UTilities.c **** 
 542:C:/Workspace/FW_Platform2_5/trunk/ProductModules/PM_Library\LIB_UTilities.c **** */
 543:C:/Workspace/FW_Platform2_5/trunk/ProductModules/PM_Library\LIB_UTilities.c **** uint8_t SFBasicLoaderGetDisplOffset(uint16_t ui16Displ,uint16_t ui16Page,Loader_Struct* pDataOut)
 544:C:/Workspace/FW_Platform2_5/trunk/ProductModules/PM_Library\LIB_UTilities.c **** {
 545:C:/Workspace/FW_Platform2_5/trunk/ProductModules/PM_Library\LIB_UTilities.c ****  /* The MSByte of ui16Displ is the displ while the LSByte is the displ+1 that is used to calculate 
 546:C:/Workspace/FW_Platform2_5/trunk/ProductModules/PM_Library\LIB_UTilities.c ****  /* The Data length is in Word ! */
 547:C:/Workspace/FW_Platform2_5/trunk/ProductModules/PM_Library\LIB_UTilities.c ****  /* pDataOut->Data is the diaplacement offset respect to the first displacement
 548:C:/Workspace/FW_Platform2_5/trunk/ProductModules/PM_Library\LIB_UTilities.c ****     to get the absolute address you must add Eepadd+pointer+numextrapointers
 549:C:/Workspace/FW_Platform2_5/trunk/ProductModules/PM_Library\LIB_UTilities.c ****  */
 550:C:/Workspace/FW_Platform2_5/trunk/ProductModules/PM_Library\LIB_UTilities.c ****   pDataOut->DataLenght = (uint8_t)((uint8_t)(ui16Displ & 0x00FF) - (uint8_t)((ui16Displ & 0xFF00) >
 551:C:/Workspace/FW_Platform2_5/trunk/ProductModules/PM_Library\LIB_UTilities.c ****   pDataOut->Data = (uint8_t*)(2 * (((ui16Displ&0xFF00)>>8) + ui16Page));
 552:C:/Workspace/FW_Platform2_5/trunk/ProductModules/PM_Library\LIB_UTilities.c ****   return SF_OK;
 553:C:/Workspace/FW_Platform2_5/trunk/ProductModules/PM_Library\LIB_UTilities.c **** }
 554:C:/Workspace/FW_Platform2_5/trunk/ProductModules/PM_Library\LIB_UTilities.c **** 
 555:C:/Workspace/FW_Platform2_5/trunk/ProductModules/PM_Library\LIB_UTilities.c **** 
 556:C:/Workspace/FW_Platform2_5/trunk/ProductModules/PM_Library\LIB_UTilities.c **** 
 557:C:/Workspace/FW_Platform2_5/trunk/ProductModules/PM_Library\LIB_UTilities.c **** /**
 558:C:/Workspace/FW_Platform2_5/trunk/ProductModules/PM_Library\LIB_UTilities.c **** E' la funzione di base per il caricamento di dati dal file di setting: a partire
 559:C:/Workspace/FW_Platform2_5/trunk/ProductModules/PM_Library\LIB_UTilities.c **** dai parametri indicati in ingresso (puntatore e spiazzamento) restituisce
 560:C:/Workspace/FW_Platform2_5/trunk/ProductModules/PM_Library\LIB_UTilities.c **** un puntatore al record dei dati cercati e lunghezza in word dello stesso.
 561:C:/Workspace/FW_Platform2_5/trunk/ProductModules/PM_Library\LIB_UTilities.c **** 
 562:C:/Workspace/FW_Platform2_5/trunk/ProductModules/PM_Library\LIB_UTilities.c **** \param [in]		pointer e' il puntatore del file di setting da cui caricare i dati
 563:C:/Workspace/FW_Platform2_5/trunk/ProductModules/PM_Library\LIB_UTilities.c **** \param [in]		displacement e' lo spiazzamento relativo al puntatore pointer
 564:C:/Workspace/FW_Platform2_5/trunk/ProductModules/PM_Library\LIB_UTilities.c **** 				da cui caricare i dati
 565:C:/Workspace/FW_Platform2_5/trunk/ProductModules/PM_Library\LIB_UTilities.c **** \param [out]	pDataOut punta alla tabella dati individuata dai parametri
 566:C:/Workspace/FW_Platform2_5/trunk/ProductModules/PM_Library\LIB_UTilities.c **** 				specificati in input
 567:C:/Workspace/FW_Platform2_5/trunk/ProductModules/PM_Library\LIB_UTilities.c **** \attention 		Eeprom (global, buffer area dedicata al file di setting) e'
 568:C:/Workspace/FW_Platform2_5/trunk/ProductModules/PM_Library\LIB_UTilities.c **** 				usata come input
 569:C:/Workspace/FW_Platform2_5/trunk/ProductModules/PM_Library\LIB_UTilities.c **** 
 570:C:/Workspace/FW_Platform2_5/trunk/ProductModules/PM_Library\LIB_UTilities.c **** \return			BSLDR_OK se la funzione e' stata eseguita correttamente, un codice
 571:C:/Workspace/FW_Platform2_5/trunk/ProductModules/PM_Library\LIB_UTilities.c **** 				d'errore altrimenti.
 572:C:/Workspace/FW_Platform2_5/trunk/ProductModules/PM_Library\LIB_UTilities.c **** 
 573:C:/Workspace/FW_Platform2_5/trunk/ProductModules/PM_Library\LIB_UTilities.c **** \warning		none
 574:C:/Workspace/FW_Platform2_5/trunk/ProductModules/PM_Library\LIB_UTilities.c **** 
 575:C:/Workspace/FW_Platform2_5/trunk/ProductModules/PM_Library\LIB_UTilities.c **** \todo			il nome della funzione e i campi del tipo Loader_Struct sono difformi dalle
 576:C:/Workspace/FW_Platform2_5/trunk/ProductModules/PM_Library\LIB_UTilities.c **** 				convenzioni adottate nel resto del modulo per garantire la compatibilita'
 577:C:/Workspace/FW_Platform2_5/trunk/ProductModules/PM_Library\LIB_UTilities.c **** 				all'indietro con il modulo I/O Manager che sfrutta la funzione BasicLoader
 578:C:/Workspace/FW_Platform2_5/trunk/ProductModules/PM_Library\LIB_UTilities.c **** 				e ne specifica il prototipo tramite extern.
 579:C:/Workspace/FW_Platform2_5/trunk/ProductModules/PM_Library\LIB_UTilities.c **** 				Anche il type Loader_Struct e' definito in SkeletonTypes.h, tuttavia sarebbe
 580:C:/Workspace/FW_Platform2_5/trunk/ProductModules/PM_Library\LIB_UTilities.c **** 				opportuno cambiare i nomi dei campi, in particolare correggere l'errore
 581:C:/Workspace/FW_Platform2_5/trunk/ProductModules/PM_Library\LIB_UTilities.c **** 				"DataLenght".
 582:C:/Workspace/FW_Platform2_5/trunk/ProductModules/PM_Library\LIB_UTilities.c **** 
 583:C:/Workspace/FW_Platform2_5/trunk/ProductModules/PM_Library\LIB_UTilities.c **** \version		1.0.0
 584:C:/Workspace/FW_Platform2_5/trunk/ProductModules/PM_Library\LIB_UTilities.c **** \date 			04/01/2006
 585:C:/Workspace/FW_Platform2_5/trunk/ProductModules/PM_Library\LIB_UTilities.c **** \author			Simone Costantini
 586:C:/Workspace/FW_Platform2_5/trunk/ProductModules/PM_Library\LIB_UTilities.c **** */
 587:C:/Workspace/FW_Platform2_5/trunk/ProductModules/PM_Library\LIB_UTilities.c **** #if defined (IO_MANAGER_BASICLOADER_CSTM) 
 588:C:/Workspace/FW_Platform2_5/trunk/ProductModules/PM_Library\LIB_UTilities.c **** #if ( IO_MANAGER_BASICLOADER_CSTM == FALSE )
 589:C:/Workspace/FW_Platform2_5/trunk/ProductModules/PM_Library\LIB_UTilities.c **** uint8_t BasicLoader(settingPntr_t pointer, uint8_t displacement, Loader_Struct* pDataOut)
 590:C:/Workspace/FW_Platform2_5/trunk/ProductModules/PM_Library\LIB_UTilities.c **** {
 591:C:/Workspace/FW_Platform2_5/trunk/ProductModules/PM_Library\LIB_UTilities.c **** uint16_t* dataStartAddr = (uint16_t*)GetDefaultSettingStartAddress();
 592:C:/Workspace/FW_Platform2_5/trunk/ProductModules/PM_Library\LIB_UTilities.c **** 
 593:C:/Workspace/FW_Platform2_5/trunk/ProductModules/PM_Library\LIB_UTilities.c **** return ExtendedBasicLoader(dataStartAddr, pointer, displacement, pDataOut);
 594:C:/Workspace/FW_Platform2_5/trunk/ProductModules/PM_Library\LIB_UTilities.c **** 
 595:C:/Workspace/FW_Platform2_5/trunk/ProductModules/PM_Library\LIB_UTilities.c **** }
 596:C:/Workspace/FW_Platform2_5/trunk/ProductModules/PM_Library\LIB_UTilities.c **** 
 597:C:/Workspace/FW_Platform2_5/trunk/ProductModules/PM_Library\LIB_UTilities.c **** uint8_t ExtendedBasicLoader(uint16_t* dataStartAddr, settingPntr_t pointer, uint8_t displacement, L
   9                             		.loc 1 597 0
  10                             	.LVL0:
 598:C:/Workspace/FW_Platform2_5/trunk/ProductModules/PM_Library\LIB_UTilities.c **** {
 599:C:/Workspace/FW_Platform2_5/trunk/ProductModules/PM_Library\LIB_UTilities.c **** uint16_t nPage;
 600:C:/Workspace/FW_Platform2_5/trunk/ProductModules/PM_Library\LIB_UTilities.c **** uint8_t* pData;
 601:C:/Workspace/FW_Platform2_5/trunk/ProductModules/PM_Library\LIB_UTilities.c **** uint8_t nExtraPointerWords;
 602:C:/Workspace/FW_Platform2_5/trunk/ProductModules/PM_Library\LIB_UTilities.c **** uint8_t i;
 603:C:/Workspace/FW_Platform2_5/trunk/ProductModules/PM_Library\LIB_UTilities.c **** 
 604:C:/Workspace/FW_Platform2_5/trunk/ProductModules/PM_Library\LIB_UTilities.c **** #ifdef _BSLDR_ENABLE_ERROR_MNG_
 605:C:/Workspace/FW_Platform2_5/trunk/ProductModules/PM_Library\LIB_UTilities.c **** 
 606:C:/Workspace/FW_Platform2_5/trunk/ProductModules/PM_Library\LIB_UTilities.c **** 	if (0xFF == displacement)
 607:C:/Workspace/FW_Platform2_5/trunk/ProductModules/PM_Library\LIB_UTilities.c **** 	{
 608:C:/Workspace/FW_Platform2_5/trunk/ProductModules/PM_Library\LIB_UTilities.c **** 		/**
 609:C:/Workspace/FW_Platform2_5/trunk/ProductModules/PM_Library\LIB_UTilities.c **** 		0xFF è l'ultimo indice consentito per un displacement tuttavia, essendo dispari,
 610:C:/Workspace/FW_Platform2_5/trunk/ProductModules/PM_Library\LIB_UTilities.c **** 		è anche l'ultimo displacement in assoluto quindi non è uno spiazzamento valido
 611:C:/Workspace/FW_Platform2_5/trunk/ProductModules/PM_Library\LIB_UTilities.c **** 		in quanto non è possibile specificare la sua lunghezza.
 612:C:/Workspace/FW_Platform2_5/trunk/ProductModules/PM_Library\LIB_UTilities.c **** 		*/ 
 613:C:/Workspace/FW_Platform2_5/trunk/ProductModules/PM_Library\LIB_UTilities.c **** 		return BSLDR_ERR_INVALID_DISPL;
 614:C:/Workspace/FW_Platform2_5/trunk/ProductModules/PM_Library\LIB_UTilities.c **** 	}
 615:C:/Workspace/FW_Platform2_5/trunk/ProductModules/PM_Library\LIB_UTilities.c **** 
 616:C:/Workspace/FW_Platform2_5/trunk/ProductModules/PM_Library\LIB_UTilities.c **** #endif
 617:C:/Workspace/FW_Platform2_5/trunk/ProductModules/PM_Library\LIB_UTilities.c **** 
 618:C:/Workspace/FW_Platform2_5/trunk/ProductModules/PM_Library\LIB_UTilities.c **** 	if (pointer != INVALID_POINTER)
  11                             		.loc 1 618 0
  12 0000 5F 22                   		movu.W	r2, r2
  13 0002 77 02 FF FF 00          		cmp	#0xffff, r2
  14 0007 20 1B                   		beq	.L2
  15                             	.LBB11:
 619:C:/Workspace/FW_Platform2_5/trunk/ProductModules/PM_Library\LIB_UTilities.c **** 	{
 620:C:/Workspace/FW_Platform2_5/trunk/ProductModules/PM_Library\LIB_UTilities.c **** 		uint16_t pointerVal = EndianU16_BToN(*(dataStartAddr + pointer));
  16                             		.loc 1 620 0
  17 0009 4B 22                   		add	r2, r2
  18                             	.LVL1:
  19 000b 4B 12                   		add	r1, r2
  20 000d DC 2E                   		mov.W	[r2], r14
  21                             	.LVL2:
 621:C:/Workspace/FW_Platform2_5/trunk/ProductModules/PM_Library\LIB_UTilities.c **** 
 622:C:/Workspace/FW_Platform2_5/trunk/ProductModules/PM_Library\LIB_UTilities.c **** 	#ifdef _BSLDR_ENABLE_ERROR_MNG_
 623:C:/Workspace/FW_Platform2_5/trunk/ProductModules/PM_Library\LIB_UTilities.c **** 
 624:C:/Workspace/FW_Platform2_5/trunk/ProductModules/PM_Library\LIB_UTilities.c **** 		if ((NULL_POINTER == pointerVal) || (INVALID_POINTER == pointerVal))
  22                             		.loc 1 624 0
  23 000f 71 E2 FF                		add	#-1, r14, r2
  24 0012 5F 22                   		movu.W	r2, r2
  25 0014 77 02 FD FF 00          		cmp	#0xfffd, r2
  26 0019 24 60                   		bgtu	.L7
 625:C:/Workspace/FW_Platform2_5/trunk/ProductModules/PM_Library\LIB_UTilities.c **** 		{
 626:C:/Workspace/FW_Platform2_5/trunk/ProductModules/PM_Library\LIB_UTilities.c **** 			return BSLDR_ERR_INVALID_POINTER;
 627:C:/Workspace/FW_Platform2_5/trunk/ProductModules/PM_Library\LIB_UTilities.c **** 		}
 628:C:/Workspace/FW_Platform2_5/trunk/ProductModules/PM_Library\LIB_UTilities.c **** 
 629:C:/Workspace/FW_Platform2_5/trunk/ProductModules/PM_Library\LIB_UTilities.c **** 	#endif
 630:C:/Workspace/FW_Platform2_5/trunk/ProductModules/PM_Library\LIB_UTilities.c **** 
 631:C:/Workspace/FW_Platform2_5/trunk/ProductModules/PM_Library\LIB_UTilities.c **** 		dataStartAddr += pointerVal;
  27                             		.loc 1 631 0
  28 001b 5F EE                   		movu.W	r14, r14
  29 001d 4B EE                   		add	r14, r14
  30                             	.LVL3:
  31 001f 4B E1                   		add	r14, r1
  32                             	.LVL4:
  33 0021 03                      		.balign 2,3,5
  34                             	.L2:
  35                             	.LBE11:
 632:C:/Workspace/FW_Platform2_5/trunk/ProductModules/PM_Library\LIB_UTilities.c **** 
 633:C:/Workspace/FW_Platform2_5/trunk/ProductModules/PM_Library\LIB_UTilities.c **** 	}
 634:C:/Workspace/FW_Platform2_5/trunk/ProductModules/PM_Library\LIB_UTilities.c **** 
 635:C:/Workspace/FW_Platform2_5/trunk/ProductModules/PM_Library\LIB_UTilities.c **** 	pData = (uint8_t*)(dataStartAddr);
 636:C:/Workspace/FW_Platform2_5/trunk/ProductModules/PM_Library\LIB_UTilities.c **** 
 637:C:/Workspace/FW_Platform2_5/trunk/ProductModules/PM_Library\LIB_UTilities.c **** 	nExtraPointerWords = *pData;
  36                             		.loc 1 637 0
  37 0022 CC 15                   		mov.B	[r1], r5
  38                             	.LVL5:
 638:C:/Workspace/FW_Platform2_5/trunk/ProductModules/PM_Library\LIB_UTilities.c **** 		
 639:C:/Workspace/FW_Platform2_5/trunk/ProductModules/PM_Library\LIB_UTilities.c **** #ifdef _BSLDR_ENABLE_ERROR_MNG_
 640:C:/Workspace/FW_Platform2_5/trunk/ProductModules/PM_Library\LIB_UTilities.c **** 
 641:C:/Workspace/FW_Platform2_5/trunk/ProductModules/PM_Library\LIB_UTilities.c **** 	if (nExtraPointerWords > N_MAX_EXTRAPTR_WORDS)
  39                             		.loc 1 641 0
  40 0024 CF 5E                   		mov.B	r5, r14
  41 0026 61 0E                   		cmp	#0, r14
  42 0028 29 56                   		blt	.L8
 642:C:/Workspace/FW_Platform2_5/trunk/ProductModules/PM_Library\LIB_UTilities.c **** 	{
 643:C:/Workspace/FW_Platform2_5/trunk/ProductModules/PM_Library\LIB_UTilities.c **** 		return BSLDR_ERR_OVFL_EXTRAPTR;
 644:C:/Workspace/FW_Platform2_5/trunk/ProductModules/PM_Library\LIB_UTilities.c **** 	}
 645:C:/Workspace/FW_Platform2_5/trunk/ProductModules/PM_Library\LIB_UTilities.c **** #endif
 646:C:/Workspace/FW_Platform2_5/trunk/ProductModules/PM_Library\LIB_UTilities.c **** 
 647:C:/Workspace/FW_Platform2_5/trunk/ProductModules/PM_Library\LIB_UTilities.c **** 	/* Controlla gli ExtraPointer e imposta la pagina di conseguenza */
 648:C:/Workspace/FW_Platform2_5/trunk/ProductModules/PM_Library\LIB_UTilities.c **** 	nPage = 0;
 649:C:/Workspace/FW_Platform2_5/trunk/ProductModules/PM_Library\LIB_UTilities.c **** 	
 650:C:/Workspace/FW_Platform2_5/trunk/ProductModules/PM_Library\LIB_UTilities.c **** 	for (i = 1; i < (2 * nExtraPointerWords); i++)
  43                             		.loc 1 650 0
  44 002a 5B 55                   		movu.B	r5, r5
  45 002c 4B 55                   		add	r5, r5
  46                             	.LVL6:
  47 002e 66 12                   		mov	#1, r2
  48 0030 66 0E                   		mov	#0, r14
  49                             	.LVL7:
  50 0032 5B 33                   		movu.B	r3, r3
  51 0034 2E 10                   		bra	.L4
  52                             	.LVL8:
  53                             	.L6:
 651:C:/Workspace/FW_Platform2_5/trunk/ProductModules/PM_Library\LIB_UTilities.c **** 	{
 652:C:/Workspace/FW_Platform2_5/trunk/ProductModules/PM_Library\LIB_UTilities.c **** 		/* displacement < 0xFF */
 653:C:/Workspace/FW_Platform2_5/trunk/ProductModules/PM_Library\LIB_UTilities.c **** 		if (displacement >= OFFS_B(pData, i))
  54                             		.loc 1 653 0
  55 0036 FE CF 1F                		movu.B	[r15,r1], r15
  56 0039 47 F3                   		cmp	r15, r3
  57 003b 23 07                   		bltu	.L5
 654:C:/Workspace/FW_Platform2_5/trunk/ProductModules/PM_Library\LIB_UTilities.c **** 		{
 655:C:/Workspace/FW_Platform2_5/trunk/ProductModules/PM_Library\LIB_UTilities.c **** 			nPage += 0x0100U;
  58                             		.loc 1 655 0
  59 003d 72 EE 00 01             		add	#0x100, r14
  60                             	.LVL9:
  61 0041 03                      		.balign 2,3,1
  62                             	.L5:
 650:C:/Workspace/FW_Platform2_5/trunk/ProductModules/PM_Library\LIB_UTilities.c **** 	for (i = 1; i < (2 * nExtraPointerWords); i++)
  63                             		.loc 1 650 0
  64 0042 62 12                   		add	#1, r2
  65                             	.LVL10:
  66                             		.balign 2,3,1
  67                             	.L4:
  68 0044 5B 2F                   		movu.B	r2, r15
  69 0046 47 5F                   		cmp	r5, r15
  70 0048 29 EE                   		blt	.L6
 656:C:/Workspace/FW_Platform2_5/trunk/ProductModules/PM_Library\LIB_UTilities.c **** 		}
 657:C:/Workspace/FW_Platform2_5/trunk/ProductModules/PM_Library\LIB_UTilities.c **** 	
 658:C:/Workspace/FW_Platform2_5/trunk/ProductModules/PM_Library\LIB_UTilities.c **** 	}
 659:C:/Workspace/FW_Platform2_5/trunk/ProductModules/PM_Library\LIB_UTilities.c **** 	
 660:C:/Workspace/FW_Platform2_5/trunk/ProductModules/PM_Library\LIB_UTilities.c **** 	pData += (2 * nExtraPointerWords);		/* pData points to the begin of displacement */
  71                             		.loc 1 660 0
  72 004a 4B 51                   		add	r5, r1
  73                             	.LVL11:
 661:C:/Workspace/FW_Platform2_5/trunk/ProductModules/PM_Library\LIB_UTilities.c **** 
 662:C:/Workspace/FW_Platform2_5/trunk/ProductModules/PM_Library\LIB_UTilities.c **** #ifdef _BSLDR_ENABLE_ERROR_MNG_
 663:C:/Workspace/FW_Platform2_5/trunk/ProductModules/PM_Library\LIB_UTilities.c **** 
 664:C:/Workspace/FW_Platform2_5/trunk/ProductModules/PM_Library\LIB_UTilities.c **** 	if (displacement >= ((2 * (*pData)) - 1))
  74                             		.loc 1 664 0
  75 004c 58 12                   		movu.B	[r1], r2
  76                             	.LVL12:
  77 004e 4B 22                   		add	r2, r2
  78 0050 60 12                   		sub	#1, r2
  79 0052 47 23                   		cmp	r2, r3
  80 0054 28 2F                   		bge	.L9
 665:C:/Workspace/FW_Platform2_5/trunk/ProductModules/PM_Library\LIB_UTilities.c **** 	{
 666:C:/Workspace/FW_Platform2_5/trunk/ProductModules/PM_Library\LIB_UTilities.c **** 		return BSLDR_ERR_INVALID_DISPL;
 667:C:/Workspace/FW_Platform2_5/trunk/ProductModules/PM_Library\LIB_UTilities.c **** 	}
 668:C:/Workspace/FW_Platform2_5/trunk/ProductModules/PM_Library\LIB_UTilities.c **** 
 669:C:/Workspace/FW_Platform2_5/trunk/ProductModules/PM_Library\LIB_UTilities.c **** #endif	 
 670:C:/Workspace/FW_Platform2_5/trunk/ProductModules/PM_Library\LIB_UTilities.c **** 	 
 671:C:/Workspace/FW_Platform2_5/trunk/ProductModules/PM_Library\LIB_UTilities.c **** 	/*
 672:C:/Workspace/FW_Platform2_5/trunk/ProductModules/PM_Library\LIB_UTilities.c **** 	Il calcolo è valido anche nel caso in cui  *( EepData + Displacement + 1 ) < *( EepData + Displac
 673:C:/Workspace/FW_Platform2_5/trunk/ProductModules/PM_Library\LIB_UTilities.c **** 	a causa di un'overflow page
 674:C:/Workspace/FW_Platform2_5/trunk/ProductModules/PM_Library\LIB_UTilities.c **** 	*/
 675:C:/Workspace/FW_Platform2_5/trunk/ProductModules/PM_Library\LIB_UTilities.c ****     pDataOut->DataLenght = (uint8_t)( *( pData + displacement + 1 ) - *( pData + displacement ) );
  81                             		.loc 1 675 0
  82 0056 4B 13                   		add	r1, r3
  83                             	.LVL13:
  84 0058 88 3D                   		mov.B	1[r3], r5
  85 005a CC 32                   		mov.B	[r3], r2
 676:C:/Workspace/FW_Platform2_5/trunk/ProductModules/PM_Library\LIB_UTilities.c **** 
 677:C:/Workspace/FW_Platform2_5/trunk/ProductModules/PM_Library\LIB_UTilities.c **** 	pDataOut->Data = pData + (2 * (*(pData + displacement) + nPage));
  86                             		.loc 1 677 0
  87 005c 5F EE                   		movu.W	r14, r14
 675:C:/Workspace/FW_Platform2_5/trunk/ProductModules/PM_Library\LIB_UTilities.c ****     pDataOut->DataLenght = (uint8_t)( *( pData + displacement + 1 ) - *( pData + displacement ) );
  88                             		.loc 1 675 0
  89 005e FF 02 25                		sub	r2, r5, r2
  90 0061 81 42                   		mov.B	r2, 4[r4]
  91                             		.loc 1 677 0
  92 0063 58 33                   		movu.B	[r3], r3
  93 0065 4B 3E                   		add	r3, r14
  94                             	.LVL14:
  95 0067 4B EE                   		add	r14, r14
  96 0069 4B E1                   		add	r14, r1
  97                             	.LVL15:
  98 006b E3 41                   		mov.L	r1, [r4]
 678:C:/Workspace/FW_Platform2_5/trunk/ProductModules/PM_Library\LIB_UTilities.c **** 
 679:C:/Workspace/FW_Platform2_5/trunk/ProductModules/PM_Library\LIB_UTilities.c **** 	if (0 == pDataOut->DataLenght)
  99                             		.loc 1 679 0
 100 006d 5B 21                   		movu.B	r2, r1
 680:C:/Workspace/FW_Platform2_5/trunk/ProductModules/PM_Library\LIB_UTilities.c ****     {
 681:C:/Workspace/FW_Platform2_5/trunk/ProductModules/PM_Library\LIB_UTilities.c **** 		return BSLDR_WRN_LENGHT;
 101                             		.loc 1 681 0
 102 006f 61 01                   		cmp	#0, r1
 103 0071 66 01                   		mov.L	#0, r1
 104 0073 FD 74 E1 02             		stz	#2, r1
 105 0077 2E 0F                   		bra	.L3
 106                             	.LVL16:
 107                             	.L7:
 108                             	.LBB12:
 626:C:/Workspace/FW_Platform2_5/trunk/ProductModules/PM_Library\LIB_UTilities.c **** 			return BSLDR_ERR_INVALID_POINTER;
 109                             		.loc 1 626 0
 110 0079 FB 16 89                		mov	#0xffffff89, r1
 111                             	.LVL17:
 112 007c 2E 0A                   		bra	.L3
 113                             	.LVL18:
 114                             	.L8:
 115                             	.LBE12:
 643:C:/Workspace/FW_Platform2_5/trunk/ProductModules/PM_Library\LIB_UTilities.c **** 		return BSLDR_ERR_OVFL_EXTRAPTR;
 116                             		.loc 1 643 0
 117 007e FB 16 88                		mov	#0xffffff88, r1
 118                             	.LVL19:
 119 0081 2E 05                   		bra	.L3
 120                             	.LVL20:
 121                             	.L9:
 666:C:/Workspace/FW_Platform2_5/trunk/ProductModules/PM_Library\LIB_UTilities.c **** 		return BSLDR_ERR_INVALID_DISPL;
 122                             		.loc 1 666 0
 123 0083 FB 16 82                		mov	#0xffffff82, r1
 124                             	.LVL21:
 125                             		.balign 2,3,3
 126                             	.L3:
 682:C:/Workspace/FW_Platform2_5/trunk/ProductModules/PM_Library\LIB_UTilities.c ****     }
 683:C:/Workspace/FW_Platform2_5/trunk/ProductModules/PM_Library\LIB_UTilities.c **** 
 684:C:/Workspace/FW_Platform2_5/trunk/ProductModules/PM_Library\LIB_UTilities.c **** 	return BSLDR_OK;
 685:C:/Workspace/FW_Platform2_5/trunk/ProductModules/PM_Library\LIB_UTilities.c **** }
 127                             		.loc 1 685 0
 128 0086 76 21 8B 00             		and	#0x8b, r1
 129 008a 02                      		rts
 130                             	.LFE22:
 132 008b 03                      		.section	.text.Endian16_Swap,"ax",@progbits
 133                             		.global	_Endian16_Swap
 135                             	_Endian16_Swap:
 136                             	.LFB0:
 129:C:/Workspace/FW_Platform2_5/trunk/ProductModules/PM_Library\LIB_UTilities.c **** {
 137                             		.loc 1 129 0
 138                             	.LVL22:
 130:C:/Workspace/FW_Platform2_5/trunk/ProductModules/PM_Library\LIB_UTilities.c **** 	return (uint16_t)(((value & (uint16_t)0x00FF) << 8) | ((value & (uint16_t)0xFF00) >> 8));
 139                             		.loc 1 130 0
 140 0000 5F 11                   		movu.W	r1, r1
 141 0002 FD C8 1E                		shll	#8, r1, r14
 142 0005 68 81                   		shlr	#8, r1
 143                             	.LVL23:
 144 0007 57 E1                   		or	r14, r1
 131:C:/Workspace/FW_Platform2_5/trunk/ProductModules/PM_Library\LIB_UTilities.c **** }
 145                             		.loc 1 131 0
 146 0009 5F 11                   		movu.W	r1, r1
 147 000b 02                      		rts
 148                             	.LFE0:
 150                             		.section	.text.LIB_MemcpyFromLast,"ax",@progbits
 151                             		.global	_LIB_MemcpyFromLast
 153                             	_LIB_MemcpyFromLast:
 154                             	.LFB1:
 149:C:/Workspace/FW_Platform2_5/trunk/ProductModules/PM_Library\LIB_UTilities.c **** {
 155                             		.loc 1 149 0
 156                             	.LVL24:
 150:C:/Workspace/FW_Platform2_5/trunk/ProductModules/PM_Library\LIB_UTilities.c ****   uint8_t * sd = (uint8_t *)pDst+n-1;
 157                             		.loc 1 150 0
 158 0000 5B 3E                   		movu.B	r3, r14
 159                             	.LVL25:
 149:C:/Workspace/FW_Platform2_5/trunk/ProductModules/PM_Library\LIB_UTilities.c **** {
 160                             		.loc 1 149 0
 161 0002 7E A7                   		push.l	r7
 162                             	.LCFI0:
 143:C:/Workspace/FW_Platform2_5/trunk/ProductModules/PM_Library\LIB_UTilities.c **** void LIB_MemcpyFromLast
 163                             		.loc 1 143 0
 164 0004 4B E2                   		add	r14, r2
 165                             	.LVL26:
 166 0006 4B E1                   		add	r14, r1
 167                             	.LVL27:
 152:C:/Workspace/FW_Platform2_5/trunk/ProductModules/PM_Library\LIB_UTilities.c **** 	while(n--)
 168                             		.loc 1 152 0
 169 0008 2E 08                   		bra	.L16
 170                             	.LVL28:
 171                             	.L17:
 154:C:/Workspace/FW_Platform2_5/trunk/ProductModules/PM_Library\LIB_UTilities.c **** 	  *sd--=*ss--;
 172                             		.loc 1 154 0
 173 000a FD 2C 27                		mov.B	[-r2], r7
 174 000d FD 24 17                		mov.B	r7, [-r1]
 175                             		.balign 2,3,1
 176                             	.L16:
 152:C:/Workspace/FW_Platform2_5/trunk/ProductModules/PM_Library\LIB_UTilities.c **** 	while(n--)
 177                             		.loc 1 152 0 discriminator 1
 178 0010 60 13                   		sub	#1, r3
 179                             	.LVL29:
 180 0012 5B 34                   		movu.B	r3, r4
 181 0014 75 54 FF                		cmp	#0xff, r4
 182 0017 21 F3                   		bne	.L17
 156:C:/Workspace/FW_Platform2_5/trunk/ProductModules/PM_Library\LIB_UTilities.c **** }
 183                             		.loc 1 156 0
 184 0019 3F 77 01                		rtsd	#4, r7-r7
 185                             	.LFE1:
 187                             		.section	.text.LIB_ComputeSettingFileCheckSum,"ax",@progbits
 188                             		.global	_LIB_ComputeSettingFileCheckSum
 190                             	_LIB_ComputeSettingFileCheckSum:
 191                             	.LFB2:
 179:C:/Workspace/FW_Platform2_5/trunk/ProductModules/PM_Library\LIB_UTilities.c **** {
 192                             		.loc 1 179 0
 193                             	.LVL30:
 192:C:/Workspace/FW_Platform2_5/trunk/ProductModules/PM_Library\LIB_UTilities.c ****     switch(CompChkState)
 194                             		.loc 1 192 0
 195 0000 FB E2 00 00 00 00       		mov.L	#_CompChkState.9353, r14
 196 0006 EC E4                   		mov.L	[r14], r4
 197 0008 61 14                   		cmp	#1, r4
 198 000a 20 20                   		beq	.L22
 199 000c 61 04                   		cmp	#0, r4
 200 000e 20 08                   		beq	.L21
 201 0010 61 24                   		cmp	#2, r4
 202 0012 21 7E                   		bne	.L32
 203 0014 2E 6D                   		bra	.L23
 204                             	.L21:
 195:C:/Workspace/FW_Platform2_5/trunk/ProductModules/PM_Library\LIB_UTilities.c ****             PartialChecksum = 0;
 205                             		.loc 1 195 0
 206 0016 FB 32 00 00 00 00       		mov.L	#_PartialChecksum.9348, r3
 207 001c D3 34                   		mov.W	r4, [r3]
 196:C:/Workspace/FW_Platform2_5/trunk/ProductModules/PM_Library\LIB_UTilities.c ****             pData = (uint8_t*)Start;
 208                             		.loc 1 196 0
 209 001e FB 42 00 00 00 00       		mov.L	#_pData.9354, r4
 210 0024 E3 41                   		mov.L	r1, [r4]
 197:C:/Workspace/FW_Platform2_5/trunk/ProductModules/PM_Library\LIB_UTilities.c ****             CompChkState = COMP_CHK_RUN;
 211                             		.loc 1 197 0
 212 0026 F8 E6 01                		mov.L	#1, [r14]
 213 0029 03                      		.balign 2,3,5
 214                             	.L22:
 215                             	.LVL31:
 216 002a FB 42 00 00 00 00       		mov.L	#_PartialChecksum.9348, r4
 217 0030 FB E2 00 00 00 00       		mov.L	#_pData.9354, r14
 218 0036 DC 43                   		mov.W	[r4], r3
 219 0038 EC EE                   		mov.L	[r14], r14
 220 003a FB 42 00 00 00 00       		mov.L	#_CompChkState.9353, r4
 221 0040 EC 41                   		mov.L	[r4], r1
 222                             	.LVL32:
 179:C:/Workspace/FW_Platform2_5/trunk/ProductModules/PM_Library\LIB_UTilities.c **** {
 223                             		.loc 1 179 0 discriminator 1
 224 0042 66 04                   		mov	#0, r4
 225                             	.LVL33:
 226                             		.balign 2,3,1
 227                             	.L25:
 202:C:/Workspace/FW_Platform2_5/trunk/ProductModules/PM_Library\LIB_UTilities.c ****                 if ( pData < (uint8_t*)End )
 228                             		.loc 1 202 0
 229 0044 47 2E                   		cmp	r2, r14
 230 0046 22 13                   		bgeu	.L27
 204:C:/Workspace/FW_Platform2_5/trunk/ProductModules/PM_Library\LIB_UTilities.c ****                     PartialChecksum ^= *pData;
 231                             		.loc 1 204 0
 232 0048 FD 38 EF                		movu.B	[r14+], r15
 233 004b FC 37 F3                		xor	r15, r3
 205:C:/Workspace/FW_Platform2_5/trunk/ProductModules/PM_Library\LIB_UTilities.c ****                     PartialChecksum = (uint16_t)(((PartialChecksum & 0x8000) ? 1 : 0) | (PartialChe
 234                             		.loc 1 205 0
 235 004e 5F 33                   		movu.W	r3, r3
 236 0050 FD 8F 3F                		shlr	#15, r3, r15
 237 0053 4B 33                   		add	r3, r3
 238 0055 57 F3                   		or	r15, r3
 239 0057 2E 07                   		bra	.L24
 240                             	.L27:
 211:C:/Workspace/FW_Platform2_5/trunk/ProductModules/PM_Library\LIB_UTilities.c ****                     CompChkState = COMP_CHK_END;
 241                             		.loc 1 211 0
 242 0059 66 21                   		mov.L	#2, r1
 210:C:/Workspace/FW_Platform2_5/trunk/ProductModules/PM_Library\LIB_UTilities.c ****                     i = SF_NUM_BYTES_TO_CHECK;
 243                             		.loc 1 210 0
 244 005b 75 44 40                		mov	#64, r4
 245                             		.balign 2,3,1
 246                             	.L24:
 247                             	.LVL34:
 200:C:/Workspace/FW_Platform2_5/trunk/ProductModules/PM_Library\LIB_UTilities.c ****             for ( i = 0; i < SF_NUM_BYTES_TO_CHECK; i++ )
 248                             		.loc 1 200 0
 249 005e 62 14                   		add	#1, r4
 250                             	.LVL35:
 251 0060 5B 4F                   		movu.B	r4, r15
 252 0062 75 5F 3F                		cmp	#63, r15
 253 0065 25 DF                   		bleu	.L25
 254 0067 FB 42 00 00 00 00       		mov.L	#_pData.9354, r4
 255                             	.LVL36:
 256 006d E3 4E                   		mov.L	r14, [r4]
 257 006f FB E2 00 00 00 00       		mov.L	#_PartialChecksum.9348, r14
 258 0075 D3 E3                   		mov.W	r3, [r14]
 259 0077 FB E2 00 00 00 00       		mov.L	#_CompChkState.9353, r14
 260 007d E3 E1                   		mov.L	r1, [r14]
 261 007f 2E 15                   		bra	.L33
 262                             	.LVL37:
 263                             	.L23:
 217:C:/Workspace/FW_Platform2_5/trunk/ProductModules/PM_Library\LIB_UTilities.c ****         	libCompChk.checkSum = PartialChecksum;
 264                             		.loc 1 217 0
 265 0081 FB 42 00 00 00 00       		mov.L	#_PartialChecksum.9348, r4
 266 0087 DC 45                   		mov.W	[r4], r5
 267                             	.LVL38:
 219:C:/Workspace/FW_Platform2_5/trunk/ProductModules/PM_Library\LIB_UTilities.c ****         	CompChkState = COMP_CHK_INIT;
 268                             		.loc 1 219 0
 269 0089 F8 E6 00                		mov.L	#0, [r14]
 216:C:/Workspace/FW_Platform2_5/trunk/ProductModules/PM_Library\LIB_UTilities.c ****         	libCompChk.jobDone = TRUE;
 270                             		.loc 1 216 0
 271 008c 66 11                   		mov.L	#1, r1
 272                             	.LVL39:
 220:C:/Workspace/FW_Platform2_5/trunk/ProductModules/PM_Library\LIB_UTilities.c ****             break;
 273                             		.loc 1 220 0
 274 008e 2E 08                   		bra	.L26
 275                             	.LVL40:
 276                             	.L32:
 222:C:/Workspace/FW_Platform2_5/trunk/ProductModules/PM_Library\LIB_UTilities.c ****             CompChkState = COMP_CHK_INIT;
 277                             		.loc 1 222 0
 278 0090 F8 E6 00                		mov.L	#0, [r14]
 279                             	.LVL41:
 280 0093 03                      		.balign 2,3,1
 281                             	.L33:
 191:C:/Workspace/FW_Platform2_5/trunk/ProductModules/PM_Library\LIB_UTilities.c **** 	libCompChk.jobDone = FALSE;
 282                             		.loc 1 191 0
 283 0094 66 01                   		mov.L	#0, r1
 284                             	.LVL42:
 285                             		.balign 2,3,2
 286                             	.L26:
 226:C:/Workspace/FW_Platform2_5/trunk/ProductModules/PM_Library\LIB_UTilities.c **** }
 287                             		.loc 1 226 0
 288 0096 FD D0 52                		shll	#16, r5, r2
 289                             	.LVL43:
 290 0099 02                      		rts
 291                             	.LFE2:
 293                             		.section	.text.LIB_SettingFileChecksumCalculate,"ax",@progbits
 294                             		.global	_LIB_SettingFileChecksumCalculate
 296                             	_LIB_SettingFileChecksumCalculate:
 297                             	.LFB3:
 244:C:/Workspace/FW_Platform2_5/trunk/ProductModules/PM_Library\LIB_UTilities.c **** {
 298                             		.loc 1 244 0
 299                             	.LVL44:
 246:C:/Workspace/FW_Platform2_5/trunk/ProductModules/PM_Library\LIB_UTilities.c ****     for( i=0; i<len; i++)
 300                             		.loc 1 246 0
 301 0000 EF 2E                   		mov.L	r2, r14
 302 0002 5F 11                   		movu.W	r1, r1
 303 0004 2E 12                   		bra	.L35
 304                             	.LVL45:
 305                             	.L36:
 248:C:/Workspace/FW_Platform2_5/trunk/ProductModules/PM_Library\LIB_UTilities.c ****         partialChecksum ^= *pSource;
 306                             		.loc 1 248 0
 307 0006 FD 38 E4                		movu.B	[r14+], r4
 308                             	.LVL46:
 309 0009 FC 37 43                		xor	r4, r3
 310                             	.LVL47:
 249:C:/Workspace/FW_Platform2_5/trunk/ProductModules/PM_Library\LIB_UTilities.c ****         partialChecksum = (uint16_t) (((partialChecksum & 0x8000)? 1 : 0) | (partialChecksum<<1));
 311                             		.loc 1 249 0
 312 000c 5F 33                   		movu.W	r3, r3
 313 000e FD 8F 34                		shlr	#15, r3, r4
 314 0011 4B 33                   		add	r3, r3
 315                             	.LVL48:
 316 0013 57 43                   		or	r4, r3
 317                             	.LVL49:
 318 0015 03                      		.balign 2,3,2
 319                             	.L35:
 243:C:/Workspace/FW_Platform2_5/trunk/ProductModules/PM_Library\LIB_UTilities.c **** uint16_t LIB_SettingFileChecksumCalculate(uint16_t len, uint8_t *pSource, uint16_t partialChecksum)
 320                             		.loc 1 243 0 discriminator 1
 321 0016 FF 04 2E                		sub	r2, r14, r4
 246:C:/Workspace/FW_Platform2_5/trunk/ProductModules/PM_Library\LIB_UTilities.c ****     for( i=0; i<len; i++)
 322                             		.loc 1 246 0 discriminator 1
 323 0019 47 14                   		cmp	r1, r4
 324 001b 29 EB                   		blt	.L36
 254:C:/Workspace/FW_Platform2_5/trunk/ProductModules/PM_Library\LIB_UTilities.c **** }
 325                             		.loc 1 254 0
 326 001d 5F 31                   		movu.W	r3, r1
 327                             	.LVL50:
 328 001f 02                      		rts
 329                             	.LFE3:
 331                             		.section	.text.LIB_ConvTwoByteInWord,"ax",@progbits
 332                             		.global	_LIB_ConvTwoByteInWord
 334                             	_LIB_ConvTwoByteInWord:
 335                             	.LFB4:
 278:C:/Workspace/FW_Platform2_5/trunk/ProductModules/PM_Library\LIB_UTilities.c **** {
 336                             		.loc 1 278 0
 337                             	.LVL51:
 279:C:/Workspace/FW_Platform2_5/trunk/ProductModules/PM_Library\LIB_UTilities.c ****     return (uint16_t) ((*pBuf << 8) | *(pBuf + 1));
 338                             		.loc 1 279 0
 339 0000 58 14                   		movu.B	[r1], r4
 340 0002 B0 19                   		movu.B	1[r1], r1
 341                             	.LVL52:
 342 0004 6C 84                   		shll	#8, r4
 280:C:/Workspace/FW_Platform2_5/trunk/ProductModules/PM_Library\LIB_UTilities.c **** }
 343                             		.loc 1 280 0
 344 0006 57 41                   		or	r4, r1
 345 0008 02                      		rts
 346                             	.LFE4:
 348                             		.section	.text.LIB_SwapWord,"ax",@progbits
 349                             		.global	_LIB_SwapWord
 351                             	_LIB_SwapWord:
 352                             	.LFB5:
 297:C:/Workspace/FW_Platform2_5/trunk/ProductModules/PM_Library\LIB_UTilities.c **** {
 353                             		.loc 1 297 0
 354                             	.LVL53:
 299:C:/Workspace/FW_Platform2_5/trunk/ProductModules/PM_Library\LIB_UTilities.c ****     swapWord = (uint16_t)(((uint16_t)(data << 8) | (data >> 8)));
 355                             		.loc 1 299 0
 356 0000 FD C8 1E                		shll	#8, r1, r14
 357 0003 5F 11                   		movu.W	r1, r1
 358 0005 68 81                   		shlr	#8, r1
 359                             	.LVL54:
 360 0007 57 E1                   		or	r14, r1
 301:C:/Workspace/FW_Platform2_5/trunk/ProductModules/PM_Library\LIB_UTilities.c **** }
 361                             		.loc 1 301 0
 362 0009 5F 11                   		movu.W	r1, r1
 363 000b 02                      		rts
 364                             	.LFE5:
 366                             		.section	.text.GetDefaultSettingStartAddress,"ax",@progbits
 367                             		.global	_GetDefaultSettingStartAddress
 369                             	_GetDefaultSettingStartAddress:
 370                             	.LFB6:
 315:C:/Workspace/FW_Platform2_5/trunk/ProductModules/PM_Library\LIB_UTilities.c **** {
 371                             		.loc 1 315 0
 317:C:/Workspace/FW_Platform2_5/trunk/ProductModules/PM_Library\LIB_UTilities.c **** }
 372                             		.loc 1 317 0
 373 0000 FB 12 00 00 00 00       		mov.L	#_Eeprom, r1
 374 0006 02                      		rts
 375                             	.LFE6:
 377                             		.section	.text.SFBasicLoader,"ax",@progbits
 378                             		.global	_SFBasicLoader
 380                             	_SFBasicLoader:
 381                             	.LFB7:
 351:C:/Workspace/FW_Platform2_5/trunk/ProductModules/PM_Library\LIB_UTilities.c **** {
 382                             		.loc 1 351 0
 360:C:/Workspace/FW_Platform2_5/trunk/ProductModules/PM_Library\LIB_UTilities.c ****   if (0xFF == displacement)
 383                             		.loc 1 360 0
 384 0000 5B 3F                   		movu.B	r3, r15
 385 0002 75 5F FF                		cmp	#0xff, r15
 386 0005 3A 8A 00                		beq	.L46
 371:C:/Workspace/FW_Platform2_5/trunk/ProductModules/PM_Library\LIB_UTilities.c ****   pDataTmp += pointer;
 387                             		.loc 1 371 0
 388 0008 5B 22                   		movu.B	r2, r2
 373:C:/Workspace/FW_Platform2_5/trunk/ProductModules/PM_Library\LIB_UTilities.c ****   pointerVal = *(pDataTmp);
 389                             		.loc 1 373 0
 390 000a 4B 22                   		add	r2, r2
 351:C:/Workspace/FW_Platform2_5/trunk/ProductModules/PM_Library\LIB_UTilities.c **** {
 391                             		.loc 1 351 0
 392 000c 6E 7A                   		pushm	r7-r10
 393                             	.LCFI1:
 373:C:/Workspace/FW_Platform2_5/trunk/ProductModules/PM_Library\LIB_UTilities.c ****   pointerVal = *(pDataTmp);
 394                             		.loc 1 373 0
 395 000e 4B 12                   		add	r1, r2
 396 0010 DC 22                   		mov.W	[r2], r2
 376:C:/Workspace/FW_Platform2_5/trunk/ProductModules/PM_Library\LIB_UTilities.c ****     if ((NULL_POINTER == pointerVal) || (INVALID_POINTER == pointerVal))
 397                             		.loc 1 376 0
 398 0012 71 27 FF                		add	#-1, r2, r7
 399 0015 5F 77                   		movu.W	r7, r7
 400 0017 77 07 FD FF 00          		cmp	#0xfffd, r7
 401 001c 24 78                   		bgtu	.L47
 382:C:/Workspace/FW_Platform2_5/trunk/ProductModules/PM_Library\LIB_UTilities.c ****   pdataStartAddr += pointerVal;
 402                             		.loc 1 382 0
 403 001e 5F 22                   		movu.W	r2, r2
 404 0020 4B 22                   		add	r2, r2
 405 0022 4B 12                   		add	r1, r2
 384:C:/Workspace/FW_Platform2_5/trunk/ProductModules/PM_Library\LIB_UTilities.c ****   nExtraPointerWords = *pData;
 406                             		.loc 1 384 0
 407 0024 CC 21                   		mov.B	[r2], r1
 388:C:/Workspace/FW_Platform2_5/trunk/ProductModules/PM_Library\LIB_UTilities.c ****     if (nExtraPointerWords > N_MAX_EXTRAPTR_WORDS)
 408                             		.loc 1 388 0
 409 0026 CF 17                   		mov.B	r1, r7
 410 0028 61 07                   		cmp	#0, r7
 411 002a 29 6E                   		blt	.L48
 397:C:/Workspace/FW_Platform2_5/trunk/ProductModules/PM_Library\LIB_UTilities.c ****   for (i = 1; i < (2 * nExtraPointerWords); i++)
 412                             		.loc 1 397 0
 413 002c 5B 11                   		movu.B	r1, r1
 414 002e 4B 11                   		add	r1, r1
 415 0030 66 15                   		mov	#1, r5
 416 0032 66 0E                   		mov	#0, r14
 400:C:/Workspace/FW_Platform2_5/trunk/ProductModules/PM_Library\LIB_UTilities.c ****     if (displacement >= OFFS_B(pData, i))
 417                             		.loc 1 400 0
 418 0034 EF F7                   		mov.L	r15, r7
 419 0036 2E 10                   		bra	.L42
 420                             	.L44:
 421 0038 FE CF 2A                		movu.B	[r15,r2], r10
 422 003b 47 A7                   		cmp	r10, r7
 423 003d 23 07                   		bltu	.L43
 402:C:/Workspace/FW_Platform2_5/trunk/ProductModules/PM_Library\LIB_UTilities.c ****       nPage += 0x0100U;
 424                             		.loc 1 402 0
 425 003f 72 EE 00 01             		add	#0x100, r14
 426 0043 03                      		.balign 2,3,1
 427                             	.L43:
 397:C:/Workspace/FW_Platform2_5/trunk/ProductModules/PM_Library\LIB_UTilities.c ****   for (i = 1; i < (2 * nExtraPointerWords); i++)
 428                             		.loc 1 397 0
 429 0044 62 15                   		add	#1, r5
 430                             		.balign 2,3,1
 431                             	.L42:
 397:C:/Workspace/FW_Platform2_5/trunk/ProductModules/PM_Library\LIB_UTilities.c ****   for (i = 1; i < (2 * nExtraPointerWords); i++)
 432                             		.loc 1 397 0 is_stmt 0 discriminator 1
 433 0046 5B 5F                   		movu.B	r5, r15
 434 0048 47 1F                   		cmp	r1, r15
 435 004a 29 EE                   		blt	.L44
 407:C:/Workspace/FW_Platform2_5/trunk/ProductModules/PM_Library\LIB_UTilities.c ****   pData += (2 * nExtraPointerWords);
 436                             		.loc 1 407 0 is_stmt 1
 437 004c 4B 21                   		add	r2, r1
 410:C:/Workspace/FW_Platform2_5/trunk/ProductModules/PM_Library\LIB_UTilities.c ****    ui16DisplNum = (uint16_t)((2*(uint8_t)(*pData)) - 1);
 438                             		.loc 1 410 0
 439 004e 58 15                   		movu.B	[r1], r5
 440 0050 4B 55                   		add	r5, r5
 441 0052 71 52 FF                		add	#-1, r5, r2
 413:C:/Workspace/FW_Platform2_5/trunk/ProductModules/PM_Library\LIB_UTilities.c ****    pData2 =pData+ui16DisplNum;
 442                             		.loc 1 413 0
 443 0055 5F 2F                   		movu.W	r2, r15
 444 0057 4B 1F                   		add	r1, r15
 414:C:/Workspace/FW_Platform2_5/trunk/ProductModules/PM_Library\LIB_UTilities.c ****    if (*pData2 == *(pData2-1))
 445                             		.loc 1 414 0
 446 0059 58 F7                   		movu.B	[r15], r7
 447 005b 71 FA FF                		add	#-1, r15, r10
 448 005e 44 A7                   		cmp	[r10].UB, r7
 449 0060 21 06                   		bne	.L45
 416:C:/Workspace/FW_Platform2_5/trunk/ProductModules/PM_Library\LIB_UTilities.c ****       ui16DisplNum -=1;
 450                             		.loc 1 416 0
 451 0062 71 52 FE                		add	#-2, r5, r2
 452 0065 03                      		.balign 2,3,1
 453                             	.L45:
 419:C:/Workspace/FW_Platform2_5/trunk/ProductModules/PM_Library\LIB_UTilities.c ****     if (displacement >= ui16DisplNum)
 454                             		.loc 1 419 0
 455 0066 5B 33                   		movu.B	r3, r3
 456 0068 5F 22                   		movu.W	r2, r2
 457 006a 47 23                   		cmp	r2, r3
 458 006c 22 30                   		bgeu	.L49
 429:C:/Workspace/FW_Platform2_5/trunk/ProductModules/PM_Library\LIB_UTilities.c ****   pDataOut->DataLenght = (uint8_t)( *( pData + displacement + 1 ) - *( pData + displacement ) );
 459                             		.loc 1 429 0
 460 006e 4B 13                   		add	r1, r3
 461 0070 88 3D                   		mov.B	1[r3], r5
 462 0072 CC 32                   		mov.B	[r3], r2
 430:C:/Workspace/FW_Platform2_5/trunk/ProductModules/PM_Library\LIB_UTilities.c ****   pDataOut->Data = pData + (2 * (*(pData + displacement) + nPage));
 463                             		.loc 1 430 0
 464 0074 5F EE                   		movu.W	r14, r14
 429:C:/Workspace/FW_Platform2_5/trunk/ProductModules/PM_Library\LIB_UTilities.c ****   pDataOut->DataLenght = (uint8_t)( *( pData + displacement + 1 ) - *( pData + displacement ) );
 465                             		.loc 1 429 0
 466 0076 FF 02 25                		sub	r2, r5, r2
 467 0079 81 42                   		mov.B	r2, 4[r4]
 430:C:/Workspace/FW_Platform2_5/trunk/ProductModules/PM_Library\LIB_UTilities.c ****   pDataOut->Data = pData + (2 * (*(pData + displacement) + nPage));
 468                             		.loc 1 430 0
 469 007b 58 33                   		movu.B	[r3], r3
 431:C:/Workspace/FW_Platform2_5/trunk/ProductModules/PM_Library\LIB_UTilities.c ****   if (0 == pDataOut->DataLenght)
 470                             		.loc 1 431 0
 471 007d 5B 22                   		movu.B	r2, r2
 430:C:/Workspace/FW_Platform2_5/trunk/ProductModules/PM_Library\LIB_UTilities.c ****   pDataOut->Data = pData + (2 * (*(pData + displacement) + nPage));
 472                             		.loc 1 430 0
 473 007f 4B 3E                   		add	r3, r14
 474 0081 4B EE                   		add	r14, r14
 475 0083 4B E1                   		add	r14, r1
 476 0085 E3 41                   		mov.L	r1, [r4]
 431:C:/Workspace/FW_Platform2_5/trunk/ProductModules/PM_Library\LIB_UTilities.c ****   if (0 == pDataOut->DataLenght)
 477                             		.loc 1 431 0
 478 0087 61 02                   		cmp	#0, r2
 479 0089 21 17                   		bne	.L50
 433:C:/Workspace/FW_Platform2_5/trunk/ProductModules/PM_Library\LIB_UTilities.c ****     return SF_LDR_WRN_LENGHT;
 480                             		.loc 1 433 0
 481 008b 66 71                   		mov	#7, r1
 482 008d 2E 15                   		bra	.L41
 483                             	.L46:
 484                             	.LCFI2:
 366:C:/Workspace/FW_Platform2_5/trunk/ProductModules/PM_Library\LIB_UTilities.c ****     return SF_LDR_ERR_INVALID_DISPL;
 485                             		.loc 1 366 0
 486 008f 66 11                   		mov	#1, r1
 438:C:/Workspace/FW_Platform2_5/trunk/ProductModules/PM_Library\LIB_UTilities.c **** }
 487                             		.loc 1 438 0
 488 0091 64 71                   		and	#7, r1
 489 0093 02                      		rts
 490                             	.L47:
 491                             	.LCFI3:
 378:C:/Workspace/FW_Platform2_5/trunk/ProductModules/PM_Library\LIB_UTilities.c ****       return SF_LDR_ERR_INVALID_POINTER;
 492                             		.loc 1 378 0
 493 0094 66 21                   		mov	#2, r1
 494 0096 2E 0C                   		bra	.L41
 495                             	.L48:
 390:C:/Workspace/FW_Platform2_5/trunk/ProductModules/PM_Library\LIB_UTilities.c ****       return SF_LDR_ERR_OVFL_EXTRAPTR;
 496                             		.loc 1 390 0
 497 0098 66 31                   		mov	#3, r1
 498 009a 2E 08                   		bra	.L41
 499                             	.L49:
 421:C:/Workspace/FW_Platform2_5/trunk/ProductModules/PM_Library\LIB_UTilities.c ****       return SF_LDR_ERR_ENDOFPOINTER;
 500                             		.loc 1 421 0
 501 009c 66 51                   		mov	#5, r1
 502 009e 2E 04                   		bra	.L41
 503                             	.L50:
 436:C:/Workspace/FW_Platform2_5/trunk/ProductModules/PM_Library\LIB_UTilities.c ****   return SF_OK;
 504                             		.loc 1 436 0
 505 00a0 66 01                   		mov	#0, r1
 506                             		.balign 2,3,1
 507                             	.L41:
 438:C:/Workspace/FW_Platform2_5/trunk/ProductModules/PM_Library\LIB_UTilities.c **** }
 508                             		.loc 1 438 0
 509 00a2 64 71                   		and	#7, r1
 510 00a4 3F 7A 04                		rtsd	#16, r7-r10
 511                             	.LFE7:
 513 00a7 03                      		.section	.text.SFBasicLoaderGetPage,"ax",@progbits
 514                             		.global	_SFBasicLoaderGetPage
 516                             	_SFBasicLoaderGetPage:
 517                             	.LFB8:
 470:C:/Workspace/FW_Platform2_5/trunk/ProductModules/PM_Library\LIB_UTilities.c **** {
 518                             		.loc 1 470 0
 519                             	.LVL55:
 477:C:/Workspace/FW_Platform2_5/trunk/ProductModules/PM_Library\LIB_UTilities.c ****   if (0xFF == displacement)
 520                             		.loc 1 477 0
 521 0000 5B 22                   		movu.B	r2, r2
 522 0002 75 52 FF                		cmp	#0xff, r2
 523 0005 20 2F                   		beq	.L57
 524                             	.LVL56:
 488:C:/Workspace/FW_Platform2_5/trunk/ProductModules/PM_Library\LIB_UTilities.c ****   nExtraPointerWords = *pData;
 525                             		.loc 1 488 0
 526 0007 CC 1E                   		mov.B	[r1], r14
 527                             	.LVL57:
 491:C:/Workspace/FW_Platform2_5/trunk/ProductModules/PM_Library\LIB_UTilities.c ****   if (nExtraPointerWords > N_MAX_EXTRAPTR_WORDS)
 528                             		.loc 1 491 0
 529 0009 CF E4                   		mov.B	r14, r4
 530 000b 61 04                   		cmp	#0, r4
 531 000d 29 2B                   		blt	.L58
 498:C:/Workspace/FW_Platform2_5/trunk/ProductModules/PM_Library\LIB_UTilities.c ****   for (i = 1; i < (2 * nExtraPointerWords); i++)
 532                             		.loc 1 498 0
 533 000f 5B EE                   		movu.B	r14, r14
 534 0011 FF 2F EE                		add	r14, r14, r15
 535 0014 66 14                   		mov	#1, r4
 536 0016 66 0E                   		mov	#0, r14
 537                             	.LVL58:
 538 0018 2E 10                   		bra	.L54
 539                             	.LVL59:
 540                             	.L56:
 501:C:/Workspace/FW_Platform2_5/trunk/ProductModules/PM_Library\LIB_UTilities.c ****     if (displacement >= OFFS_B(pData, i))
 541                             		.loc 1 501 0
 542 001a FE C5 15                		movu.B	[r5,r1], r5
 543 001d 47 52                   		cmp	r5, r2
 544 001f 23 07                   		bltu	.L55
 503:C:/Workspace/FW_Platform2_5/trunk/ProductModules/PM_Library\LIB_UTilities.c ****       nPage += 0x0100U;
 545                             		.loc 1 503 0
 546 0021 72 EE 00 01             		add	#0x100, r14
 547                             	.LVL60:
 548 0025 03                      		.balign 2,3,1
 549                             	.L55:
 498:C:/Workspace/FW_Platform2_5/trunk/ProductModules/PM_Library\LIB_UTilities.c ****   for (i = 1; i < (2 * nExtraPointerWords); i++)
 550                             		.loc 1 498 0
 551 0026 62 14                   		add	#1, r4
 552                             	.LVL61:
 553                             		.balign 2,3,1
 554                             	.L54:
 498:C:/Workspace/FW_Platform2_5/trunk/ProductModules/PM_Library\LIB_UTilities.c ****   for (i = 1; i < (2 * nExtraPointerWords); i++)
 555                             		.loc 1 498 0 is_stmt 0 discriminator 1
 556 0028 5B 45                   		movu.B	r4, r5
 557 002a 47 F5                   		cmp	r15, r5
 558 002c 29 EE                   		blt	.L56
 507:C:/Workspace/FW_Platform2_5/trunk/ProductModules/PM_Library\LIB_UTilities.c ****  *ui16Page= nPage;
 559                             		.loc 1 507 0 is_stmt 1
 560 002e D3 3E                   		mov.W	r14, [r3]
 508:C:/Workspace/FW_Platform2_5/trunk/ProductModules/PM_Library\LIB_UTilities.c ****  return SF_OK;
 561                             		.loc 1 508 0
 562 0030 66 01                   		mov	#0, r1
 563                             	.LVL62:
 564 0032 2E 08                   		bra	.L53
 565                             	.LVL63:
 566                             	.L57:
 484:C:/Workspace/FW_Platform2_5/trunk/ProductModules/PM_Library\LIB_UTilities.c ****     return SF_LDR_ERR_INVALID_DISPL;
 567                             		.loc 1 484 0
 568 0034 66 11                   		mov	#1, r1
 569                             	.LVL64:
 570 0036 2E 04                   		bra	.L53
 571                             	.LVL65:
 572                             	.L58:
 493:C:/Workspace/FW_Platform2_5/trunk/ProductModules/PM_Library\LIB_UTilities.c ****     return SF_LDR_ERR_OVFL_EXTRAPTR;
 573                             		.loc 1 493 0
 574 0038 66 31                   		mov	#3, r1
 575                             	.LVL66:
 576                             		.balign 2,3,1
 577                             	.L53:
 509:C:/Workspace/FW_Platform2_5/trunk/ProductModules/PM_Library\LIB_UTilities.c **** }
 578                             		.loc 1 509 0
 579 003a 64 31                   		and	#3, r1
 580 003c 02                      		rts
 581                             	.LFE8:
 583 003d 03                      		.section	.text.SFBasicLoaderGetDisplOffset,"ax",@progbits
 584                             		.global	_SFBasicLoaderGetDisplOffset
 586                             	_SFBasicLoaderGetDisplOffset:
 587                             	.LFB9:
 544:C:/Workspace/FW_Platform2_5/trunk/ProductModules/PM_Library\LIB_UTilities.c **** {
 588                             		.loc 1 544 0
 589                             	.LVL67:
 550:C:/Workspace/FW_Platform2_5/trunk/ProductModules/PM_Library\LIB_UTilities.c ****   pDataOut->DataLenght = (uint8_t)((uint8_t)(ui16Displ & 0x00FF) - (uint8_t)((ui16Displ & 0xFF00) >
 590                             		.loc 1 550 0
 591 0000 5F 1E                   		movu.W	r1, r14
 592 0002 68 8E                   		shlr	#8, r14
 593 0004 43 E1                   		sub	r14, r1
 594                             	.LVL68:
 551:C:/Workspace/FW_Platform2_5/trunk/ProductModules/PM_Library\LIB_UTilities.c ****   pDataOut->Data = (uint8_t*)(2 * (((ui16Displ&0xFF00)>>8) + ui16Page));
 595                             		.loc 1 551 0
 596 0006 5F 22                   		movu.W	r2, r2
 597 0008 5F EE                   		movu.W	r14, r14
 598 000a 4B 2E                   		add	r2, r14
 599 000c 4B EE                   		add	r14, r14
 550:C:/Workspace/FW_Platform2_5/trunk/ProductModules/PM_Library\LIB_UTilities.c ****   pDataOut->DataLenght = (uint8_t)((uint8_t)(ui16Displ & 0x00FF) - (uint8_t)((ui16Displ & 0xFF00) >
 600                             		.loc 1 550 0
 601 000e 81 31                   		mov.B	r1, 4[r3]
 551:C:/Workspace/FW_Platform2_5/trunk/ProductModules/PM_Library\LIB_UTilities.c ****   pDataOut->Data = (uint8_t*)(2 * (((ui16Displ&0xFF00)>>8) + ui16Page));
 602                             		.loc 1 551 0
 603 0010 E3 3E                   		mov.L	r14, [r3]
 553:C:/Workspace/FW_Platform2_5/trunk/ProductModules/PM_Library\LIB_UTilities.c **** }
 604                             		.loc 1 553 0
 605 0012 66 01                   		mov.L	#0, r1
 606 0014 02                      		rts
 607                             	.LFE9:
 609                             		.section	.text.BasicLoader,"ax",@progbits
 610                             		.global	_BasicLoader
 612                             	_BasicLoader:
 613                             	.LFB10:
 590:C:/Workspace/FW_Platform2_5/trunk/ProductModules/PM_Library\LIB_UTilities.c **** {
 614                             		.loc 1 590 0
 615                             	.LVL69:
 590:C:/Workspace/FW_Platform2_5/trunk/ProductModules/PM_Library\LIB_UTilities.c **** {
 616                             		.loc 1 590 0
 617 0000 EF 34                   		mov.L	r3, r4
 618                             	.LBB15:
 619                             	.LBB16:
 606:C:/Workspace/FW_Platform2_5/trunk/ProductModules/PM_Library\LIB_UTilities.c **** 	if (0xFF == displacement)
 620                             		.loc 1 606 0
 621 0002 5B 23                   		movu.B	r2, r3
 622                             	.LVL70:
 623 0004 75 53 FF                		cmp	#0xff, r3
 624                             	.LBE16:
 625                             	.LBE15:
 590:C:/Workspace/FW_Platform2_5/trunk/ProductModules/PM_Library\LIB_UTilities.c **** {
 626                             		.loc 1 590 0
 627 0007 DF 15                   		mov.W	r1, r5
 628                             	.LVL71:
 629 0009 CF 2E                   		mov.B	r2, r14
 630                             	.LBB18:
 631                             	.LBB17:
 606:C:/Workspace/FW_Platform2_5/trunk/ProductModules/PM_Library\LIB_UTilities.c **** 	if (0xFF == displacement)
 632                             		.loc 1 606 0
 633 000b 20 10                   		beq	.L61
 634 000d FB 12 00 00 00 00       		mov.L	#_Eeprom, r1
 635                             	.LVL72:
 636 0013 DF 52                   		mov.W	r5, r2
 637                             	.LVL73:
 638 0015 CF E3                   		mov.B	r14, r3
 639 0017 04 00 00 00             		bra	_ExtendedBasicLoader.part.0
 640                             	.LVL74:
 641                             	.L61:
 642                             	.LBE17:
 643                             	.LBE18:
 595:C:/Workspace/FW_Platform2_5/trunk/ProductModules/PM_Library\LIB_UTilities.c **** }
 644                             		.loc 1 595 0
 645 001b 75 41 82                		mov.L	#0x82, r1
 646                             	.LVL75:
 647 001e 02                      		rts
 648                             	.LFE10:
 650                             		.section	.text.MSettingBasicLoader,"ax",@progbits
 651                             		.global	_MSettingBasicLoader
 653                             	_MSettingBasicLoader:
 654                             	.LFB12:
 686:C:/Workspace/FW_Platform2_5/trunk/ProductModules/PM_Library\LIB_UTilities.c **** 
 687:C:/Workspace/FW_Platform2_5/trunk/ProductModules/PM_Library\LIB_UTilities.c **** 
 688:C:/Workspace/FW_Platform2_5/trunk/ProductModules/PM_Library\LIB_UTilities.c **** /*!
 689:C:/Workspace/FW_Platform2_5/trunk/ProductModules/PM_Library\LIB_UTilities.c **** 
 690:C:/Workspace/FW_Platform2_5/trunk/ProductModules/PM_Library\LIB_UTilities.c **** \brief Extended Basic Loader
 691:C:/Workspace/FW_Platform2_5/trunk/ProductModules/PM_Library\LIB_UTilities.c **** \param[in,out]
 692:C:/Workspace/FW_Platform2_5/trunk/ProductModules/PM_Library\LIB_UTilities.c **** \return
 693:C:/Workspace/FW_Platform2_5/trunk/ProductModules/PM_Library\LIB_UTilities.c **** \date
 694:C:/Workspace/FW_Platform2_5/trunk/ProductModules/PM_Library\LIB_UTilities.c **** \author
 695:C:/Workspace/FW_Platform2_5/trunk/ProductModules/PM_Library\LIB_UTilities.c **** \version
 696:C:/Workspace/FW_Platform2_5/trunk/ProductModules/PM_Library\LIB_UTilities.c **** \ingroup
 697:C:/Workspace/FW_Platform2_5/trunk/ProductModules/PM_Library\LIB_UTilities.c **** \attention
 698:C:/Workspace/FW_Platform2_5/trunk/ProductModules/PM_Library\LIB_UTilities.c **** \warning
 699:C:/Workspace/FW_Platform2_5/trunk/ProductModules/PM_Library\LIB_UTilities.c **** */
 700:C:/Workspace/FW_Platform2_5/trunk/ProductModules/PM_Library\LIB_UTilities.c **** uint8_t MSettingBasicLoader( uint8_t SFIndex, settingPntr_t pointer, uint8_t displacement,  Loader_
 701:C:/Workspace/FW_Platform2_5/trunk/ProductModules/PM_Library\LIB_UTilities.c **** {
 655                             		.loc 1 701 0
 656                             	.LVL76:
 657                             	.LBB23:
 658                             	.LBB24:
 702:C:/Workspace/FW_Platform2_5/trunk/ProductModules/PM_Library\LIB_UTilities.c **** 
 703:C:/Workspace/FW_Platform2_5/trunk/ProductModules/PM_Library\LIB_UTilities.c **** 	uint16_t * pmSetting;	/**< Pointer to mSetting */
 704:C:/Workspace/FW_Platform2_5/trunk/ProductModules/PM_Library\LIB_UTilities.c **** 	uint8_t errorSFCode;	/**< Error code for SFBasicLoader and SFmSettingPointerSearch */
 705:C:/Workspace/FW_Platform2_5/trunk/ProductModules/PM_Library\LIB_UTilities.c **** 	uint16_t* pdataStartAddr = GetDefaultSettingStartAddress();
 706:C:/Workspace/FW_Platform2_5/trunk/ProductModules/PM_Library\LIB_UTilities.c **** 
 707:C:/Workspace/FW_Platform2_5/trunk/ProductModules/PM_Library\LIB_UTilities.c **** 	errorSFCode = GetSettingStartAddress(pdataStartAddr, SFIndex, &pmSetting);
 708:C:/Workspace/FW_Platform2_5/trunk/ProductModules/PM_Library\LIB_UTilities.c **** 
 709:C:/Workspace/FW_Platform2_5/trunk/ProductModules/PM_Library\LIB_UTilities.c **** 	if (SF_OK == errorSFCode)
 710:C:/Workspace/FW_Platform2_5/trunk/ProductModules/PM_Library\LIB_UTilities.c **** 	{
 711:C:/Workspace/FW_Platform2_5/trunk/ProductModules/PM_Library\LIB_UTilities.c **** 		errorSFCode = ExtendedBasicLoader ( pmSetting , pointer, displacement, pDataOut);
 712:C:/Workspace/FW_Platform2_5/trunk/ProductModules/PM_Library\LIB_UTilities.c **** 	}
 713:C:/Workspace/FW_Platform2_5/trunk/ProductModules/PM_Library\LIB_UTilities.c **** 
 714:C:/Workspace/FW_Platform2_5/trunk/ProductModules/PM_Library\LIB_UTilities.c **** 	return errorSFCode;
 715:C:/Workspace/FW_Platform2_5/trunk/ProductModules/PM_Library\LIB_UTilities.c **** }
 716:C:/Workspace/FW_Platform2_5/trunk/ProductModules/PM_Library\LIB_UTilities.c **** 
 717:C:/Workspace/FW_Platform2_5/trunk/ProductModules/PM_Library\LIB_UTilities.c **** 
 718:C:/Workspace/FW_Platform2_5/trunk/ProductModules/PM_Library\LIB_UTilities.c **** /**
 719:C:/Workspace/FW_Platform2_5/trunk/ProductModules/PM_Library\LIB_UTilities.c **** This routine perform access to Calibration data (WBOX or not).
 720:C:/Workspace/FW_Platform2_5/trunk/ProductModules/PM_Library\LIB_UTilities.c **** 
 721:C:/Workspace/FW_Platform2_5/trunk/ProductModules/PM_Library\LIB_UTilities.c **** \param  [in]    caliBoxID 	Calibration box to be used (ID_CAL_PNTR_ELECT_SUPP, ID_CAL_PNTR_FACTORY)
 722:C:/Workspace/FW_Platform2_5/trunk/ProductModules/PM_Library\LIB_UTilities.c **** \param  [out]	pDataOut	pointer and data length of the requested field
 723:C:/Workspace/FW_Platform2_5/trunk/ProductModules/PM_Library\LIB_UTilities.c **** 
 724:C:/Workspace/FW_Platform2_5/trunk/ProductModules/PM_Library\LIB_UTilities.c **** 
 725:C:/Workspace/FW_Platform2_5/trunk/ProductModules/PM_Library\LIB_UTilities.c **** \return 	uint8_t
 726:C:/Workspace/FW_Platform2_5/trunk/ProductModules/PM_Library\LIB_UTilities.c **** 
 727:C:/Workspace/FW_Platform2_5/trunk/ProductModules/PM_Library\LIB_UTilities.c **** \retval		BSLDR_ERR_INVALID_DISPL
 728:C:/Workspace/FW_Platform2_5/trunk/ProductModules/PM_Library\LIB_UTilities.c **** \retval		BSLDR_ERR_OVFL_EXTRAPTR
 729:C:/Workspace/FW_Platform2_5/trunk/ProductModules/PM_Library\LIB_UTilities.c **** \retval		BSLDR_WRN_LENGHT
 730:C:/Workspace/FW_Platform2_5/trunk/ProductModules/PM_Library\LIB_UTilities.c **** \retval		BSLDR_OK
 731:C:/Workspace/FW_Platform2_5/trunk/ProductModules/PM_Library\LIB_UTilities.c **** 		 	 		
 732:C:/Workspace/FW_Platform2_5/trunk/ProductModules/PM_Library\LIB_UTilities.c **** 
 733:C:/Workspace/FW_Platform2_5/trunk/ProductModules/PM_Library\LIB_UTilities.c **** \author 	Platform's Group
 734:C:/Workspace/FW_Platform2_5/trunk/ProductModules/PM_Library\LIB_UTilities.c **** \date		02/09/2010
 735:C:/Workspace/FW_Platform2_5/trunk/ProductModules/PM_Library\LIB_UTilities.c **** \version	1.0.0
 736:C:/Workspace/FW_Platform2_5/trunk/ProductModules/PM_Library\LIB_UTilities.c **** 
 737:C:/Workspace/FW_Platform2_5/trunk/ProductModules/PM_Library\LIB_UTilities.c **** 
 738:C:/Workspace/FW_Platform2_5/trunk/ProductModules/PM_Library\LIB_UTilities.c **** \author 	Platform's Group
 739:C:/Workspace/FW_Platform2_5/trunk/ProductModules/PM_Library\LIB_UTilities.c **** \date		13/09/2010
 740:C:/Workspace/FW_Platform2_5/trunk/ProductModules/PM_Library\LIB_UTilities.c **** \version	1.0.1
 741:C:/Workspace/FW_Platform2_5/trunk/ProductModules/PM_Library\LIB_UTilities.c **** 
 742:C:/Workspace/FW_Platform2_5/trunk/ProductModules/PM_Library\LIB_UTilities.c **** \author 	Alessandro Sabbatini
 743:C:/Workspace/FW_Platform2_5/trunk/ProductModules/PM_Library\LIB_UTilities.c **** \date		28/05/2013
 744:C:/Workspace/FW_Platform2_5/trunk/ProductModules/PM_Library\LIB_UTilities.c **** \version	1.1.0
 745:C:/Workspace/FW_Platform2_5/trunk/ProductModules/PM_Library\LIB_UTilities.c ****    
 746:C:/Workspace/FW_Platform2_5/trunk/ProductModules/PM_Library\LIB_UTilities.c **** \note		\par \b Note 1:
 747:C:/Workspace/FW_Platform2_5/trunk/ProductModules/PM_Library\LIB_UTilities.c **** 			documentation by Stefano Ughi\n
 748:C:/Workspace/FW_Platform2_5/trunk/ProductModules/PM_Library\LIB_UTilities.c **** 			\par \b Note 2:
 749:C:/Workspace/FW_Platform2_5/trunk/ProductModules/PM_Library\LIB_UTilities.c **** 			13/09/2010
 750:C:/Workspace/FW_Platform2_5/trunk/ProductModules/PM_Library\LIB_UTilities.c ****             pDataOut->Data = pData + (2 * (*(pData + displacement) + nPage)) + 3 + ((nWriting-1) * 
 751:C:/Workspace/FW_Platform2_5/trunk/ProductModules/PM_Library\LIB_UTilities.c ****             becames\n
 752:C:/Workspace/FW_Platform2_5/trunk/ProductModules/PM_Library\LIB_UTilities.c ****             pDataOut->Data = pData + (2 * (*(pData + displacement) + nPage)) + 4 + ((nWriting-1) * 
 753:C:/Workspace/FW_Platform2_5/trunk/ProductModules/PM_Library\LIB_UTilities.c **** 			\par \b Note 3:
 754:C:/Workspace/FW_Platform2_5/trunk/ProductModules/PM_Library\LIB_UTilities.c **** 			Update by Alessandro Sabbatini
 755:C:/Workspace/FW_Platform2_5/trunk/ProductModules/PM_Library\LIB_UTilities.c **** 			LIB_CAL_GetCalibData() is the new function to get calibration data
 756:C:/Workspace/FW_Platform2_5/trunk/ProductModules/PM_Library\LIB_UTilities.c **** 
 757:C:/Workspace/FW_Platform2_5/trunk/ProductModules/PM_Library\LIB_UTilities.c **** */
 758:C:/Workspace/FW_Platform2_5/trunk/ProductModules/PM_Library\LIB_UTilities.c **** 
 759:C:/Workspace/FW_Platform2_5/trunk/ProductModules/PM_Library\LIB_UTilities.c **** uint8_t LIB_CAL_GetCalibData(uint8_t caliBoxID, Loader_Struct* pDataOut)
 760:C:/Workspace/FW_Platform2_5/trunk/ProductModules/PM_Library\LIB_UTilities.c **** {
 761:C:/Workspace/FW_Platform2_5/trunk/ProductModules/PM_Library\LIB_UTilities.c **** 	uint8_t retVal = BSLDR_ERR_INVALID_POINTER;
 762:C:/Workspace/FW_Platform2_5/trunk/ProductModules/PM_Library\LIB_UTilities.c **** 	uint8_t tmpDspl = 0xff;
 763:C:/Workspace/FW_Platform2_5/trunk/ProductModules/PM_Library\LIB_UTilities.c **** 	uint16_t* pdataStartAddr;
 764:C:/Workspace/FW_Platform2_5/trunk/ProductModules/PM_Library\LIB_UTilities.c **** 
 765:C:/Workspace/FW_Platform2_5/trunk/ProductModules/PM_Library\LIB_UTilities.c **** #if defined(CONFIG_LIB_ADC_CALIBRATION)
 766:C:/Workspace/FW_Platform2_5/trunk/ProductModules/PM_Library\LIB_UTilities.c **** 
 767:C:/Workspace/FW_Platform2_5/trunk/ProductModules/PM_Library\LIB_UTilities.c **** #if defined(CONFIG_LIB_SETTING_CALIBRATION_ON_WBOX)
 768:C:/Workspace/FW_Platform2_5/trunk/ProductModules/PM_Library\LIB_UTilities.c **** 	pdataStartAddr = (uint16_t *) WBOXData;
 769:C:/Workspace/FW_Platform2_5/trunk/ProductModules/PM_Library\LIB_UTilities.c **** #else
 770:C:/Workspace/FW_Platform2_5/trunk/ProductModules/PM_Library\LIB_UTilities.c **** 	pdataStartAddr = GetDefaultSettingStartAddress();
 771:C:/Workspace/FW_Platform2_5/trunk/ProductModules/PM_Library\LIB_UTilities.c **** #endif
 772:C:/Workspace/FW_Platform2_5/trunk/ProductModules/PM_Library\LIB_UTilities.c **** 
 773:C:/Workspace/FW_Platform2_5/trunk/ProductModules/PM_Library\LIB_UTilities.c **** 	switch (caliBoxID)
 774:C:/Workspace/FW_Platform2_5/trunk/ProductModules/PM_Library\LIB_UTilities.c **** 	{
 775:C:/Workspace/FW_Platform2_5/trunk/ProductModules/PM_Library\LIB_UTilities.c **** 	case ID_CAL_PNTR_ELECT_SUPP:
 776:C:/Workspace/FW_Platform2_5/trunk/ProductModules/PM_Library\LIB_UTilities.c **** 	{
 777:C:/Workspace/FW_Platform2_5/trunk/ProductModules/PM_Library\LIB_UTilities.c **** 		tmpDspl = CONFIG_LIB_SETTING_CALIB_EMS_DISPL;
 778:C:/Workspace/FW_Platform2_5/trunk/ProductModules/PM_Library\LIB_UTilities.c **** 	}
 779:C:/Workspace/FW_Platform2_5/trunk/ProductModules/PM_Library\LIB_UTilities.c **** 	break;
 780:C:/Workspace/FW_Platform2_5/trunk/ProductModules/PM_Library\LIB_UTilities.c **** 
 781:C:/Workspace/FW_Platform2_5/trunk/ProductModules/PM_Library\LIB_UTilities.c **** 	case ID_CAL_PNTR_FACTORY:
 782:C:/Workspace/FW_Platform2_5/trunk/ProductModules/PM_Library\LIB_UTilities.c **** 	{
 783:C:/Workspace/FW_Platform2_5/trunk/ProductModules/PM_Library\LIB_UTilities.c **** 		tmpDspl = CONFIG_LIB_SETTING_CALIB_PLANT_DISPL;
 784:C:/Workspace/FW_Platform2_5/trunk/ProductModules/PM_Library\LIB_UTilities.c **** 	}
 785:C:/Workspace/FW_Platform2_5/trunk/ProductModules/PM_Library\LIB_UTilities.c **** 	break;
 786:C:/Workspace/FW_Platform2_5/trunk/ProductModules/PM_Library\LIB_UTilities.c **** 
 787:C:/Workspace/FW_Platform2_5/trunk/ProductModules/PM_Library\LIB_UTilities.c **** 	default:
 788:C:/Workspace/FW_Platform2_5/trunk/ProductModules/PM_Library\LIB_UTilities.c **** 
 789:C:/Workspace/FW_Platform2_5/trunk/ProductModules/PM_Library\LIB_UTilities.c **** 	break;
 790:C:/Workspace/FW_Platform2_5/trunk/ProductModules/PM_Library\LIB_UTilities.c **** 	}
 791:C:/Workspace/FW_Platform2_5/trunk/ProductModules/PM_Library\LIB_UTilities.c **** 
 792:C:/Workspace/FW_Platform2_5/trunk/ProductModules/PM_Library\LIB_UTilities.c **** 	retVal = ExtendedBasicLoader(pdataStartAddr, CONFIG_LIB_SETTING_CALIB_PTR, tmpDspl, pDataOut);
 793:C:/Workspace/FW_Platform2_5/trunk/ProductModules/PM_Library\LIB_UTilities.c **** 
 794:C:/Workspace/FW_Platform2_5/trunk/ProductModules/PM_Library\LIB_UTilities.c **** #if defined(CONFIG_LIB_SETTING_CALIBRATION_ON_WBOX)
 795:C:/Workspace/FW_Platform2_5/trunk/ProductModules/PM_Library\LIB_UTilities.c **** 
 796:C:/Workspace/FW_Platform2_5/trunk/ProductModules/PM_Library\LIB_UTilities.c **** 	if (retVal == BSLDR_OK)
 797:C:/Workspace/FW_Platform2_5/trunk/ProductModules/PM_Library\LIB_UTilities.c **** 	{
 798:C:/Workspace/FW_Platform2_5/trunk/ProductModules/PM_Library\LIB_UTilities.c **** 		unsigned int i;
 799:C:/Workspace/FW_Platform2_5/trunk/ProductModules/PM_Library\LIB_UTilities.c **** 	  	unsigned int nWriting = 8;
 800:C:/Workspace/FW_Platform2_5/trunk/ProductModules/PM_Library\LIB_UTilities.c **** 	  	uint8_t *pData = pDataOut->Data;
 801:C:/Workspace/FW_Platform2_5/trunk/ProductModules/PM_Library\LIB_UTilities.c **** 
 802:C:/Workspace/FW_Platform2_5/trunk/ProductModules/PM_Library\LIB_UTilities.c **** 	  	/* Get unmber of writings done on Calibration area, according to bitmap */
 803:C:/Workspace/FW_Platform2_5/trunk/ProductModules/PM_Library\LIB_UTilities.c **** 	  	for (i = 0; i < 8; i++)
 804:C:/Workspace/FW_Platform2_5/trunk/ProductModules/PM_Library\LIB_UTilities.c **** 	  	{
 805:C:/Workspace/FW_Platform2_5/trunk/ProductModules/PM_Library\LIB_UTilities.c **** 	  		if( ( ( pData[0] >> i ) & 0x01 ) == 1 )
 806:C:/Workspace/FW_Platform2_5/trunk/ProductModules/PM_Library\LIB_UTilities.c **** 	  		{
 807:C:/Workspace/FW_Platform2_5/trunk/ProductModules/PM_Library\LIB_UTilities.c **** 	  			nWriting = i;
 808:C:/Workspace/FW_Platform2_5/trunk/ProductModules/PM_Library\LIB_UTilities.c **** 	  			break;
 809:C:/Workspace/FW_Platform2_5/trunk/ProductModules/PM_Library\LIB_UTilities.c **** 	  		}
 810:C:/Workspace/FW_Platform2_5/trunk/ProductModules/PM_Library\LIB_UTilities.c **** 	  	}
 811:C:/Workspace/FW_Platform2_5/trunk/ProductModules/PM_Library\LIB_UTilities.c **** 
 812:C:/Workspace/FW_Platform2_5/trunk/ProductModules/PM_Library\LIB_UTilities.c **** 	  	/* Check if value found is not out of boundaries set by WBox structure */
 813:C:/Workspace/FW_Platform2_5/trunk/ProductModules/PM_Library\LIB_UTilities.c **** 	  	if( nWriting > pData[1] )
 814:C:/Workspace/FW_Platform2_5/trunk/ProductModules/PM_Library\LIB_UTilities.c **** 	  	{
 815:C:/Workspace/FW_Platform2_5/trunk/ProductModules/PM_Library\LIB_UTilities.c **** 	  		nWriting = pData[1];
 816:C:/Workspace/FW_Platform2_5/trunk/ProductModules/PM_Library\LIB_UTilities.c **** 	  	}
 817:C:/Workspace/FW_Platform2_5/trunk/ProductModules/PM_Library\LIB_UTilities.c **** 
 818:C:/Workspace/FW_Platform2_5/trunk/ProductModules/PM_Library\LIB_UTilities.c **** 	    if(nWriting != 0)
 819:C:/Workspace/FW_Platform2_5/trunk/ProductModules/PM_Library\LIB_UTilities.c **** 	    {
 820:C:/Workspace/FW_Platform2_5/trunk/ProductModules/PM_Library\LIB_UTilities.c **** 	        pDataOut->DataLenght = pData[2];
 821:C:/Workspace/FW_Platform2_5/trunk/ProductModules/PM_Library\LIB_UTilities.c **** 	        pDataOut->Data = pData + 4 + ((nWriting-1) * pDataOut->DataLenght);
 822:C:/Workspace/FW_Platform2_5/trunk/ProductModules/PM_Library\LIB_UTilities.c **** 	    }
 823:C:/Workspace/FW_Platform2_5/trunk/ProductModules/PM_Library\LIB_UTilities.c **** 	    else
 824:C:/Workspace/FW_Platform2_5/trunk/ProductModules/PM_Library\LIB_UTilities.c **** 	    {
 825:C:/Workspace/FW_Platform2_5/trunk/ProductModules/PM_Library\LIB_UTilities.c **** 	        pDataOut->DataLenght = 0;
 826:C:/Workspace/FW_Platform2_5/trunk/ProductModules/PM_Library\LIB_UTilities.c **** 	        pDataOut->Data       = (uint8_t *) NULL;
 827:C:/Workspace/FW_Platform2_5/trunk/ProductModules/PM_Library\LIB_UTilities.c **** 	        retVal = BSLDR_WRN_LENGHT;
 828:C:/Workspace/FW_Platform2_5/trunk/ProductModules/PM_Library\LIB_UTilities.c **** 	    }
 829:C:/Workspace/FW_Platform2_5/trunk/ProductModules/PM_Library\LIB_UTilities.c **** 
 830:C:/Workspace/FW_Platform2_5/trunk/ProductModules/PM_Library\LIB_UTilities.c **** 	}
 831:C:/Workspace/FW_Platform2_5/trunk/ProductModules/PM_Library\LIB_UTilities.c **** #endif /* defined(CONFIG_LIB_SETTING_CALIBRATION_ON_WBOX) */
 832:C:/Workspace/FW_Platform2_5/trunk/ProductModules/PM_Library\LIB_UTilities.c **** 
 833:C:/Workspace/FW_Platform2_5/trunk/ProductModules/PM_Library\LIB_UTilities.c **** #endif /* defined(CONFIG_LIB_ADC_CALIBRATION) && defined(LIB_SETTING_CALIBRATION_ON_WBOX) */
 834:C:/Workspace/FW_Platform2_5/trunk/ProductModules/PM_Library\LIB_UTilities.c **** 
 835:C:/Workspace/FW_Platform2_5/trunk/ProductModules/PM_Library\LIB_UTilities.c **** 	return retVal;
 836:C:/Workspace/FW_Platform2_5/trunk/ProductModules/PM_Library\LIB_UTilities.c **** }
 837:C:/Workspace/FW_Platform2_5/trunk/ProductModules/PM_Library\LIB_UTilities.c **** 
 838:C:/Workspace/FW_Platform2_5/trunk/ProductModules/PM_Library\LIB_UTilities.c **** #endif /* #if defined (IO_MANAGER_BASICLOADER_CSTM == FALSE) */
 839:C:/Workspace/FW_Platform2_5/trunk/ProductModules/PM_Library\LIB_UTilities.c **** #endif /* #if defined (IO_MANAGER_BASICLOADER_CSTM) */
 840:C:/Workspace/FW_Platform2_5/trunk/ProductModules/PM_Library\LIB_UTilities.c **** 
 841:C:/Workspace/FW_Platform2_5/trunk/ProductModules/PM_Library\LIB_UTilities.c **** 
 842:C:/Workspace/FW_Platform2_5/trunk/ProductModules/PM_Library\LIB_UTilities.c **** /**
 843:C:/Workspace/FW_Platform2_5/trunk/ProductModules/PM_Library\LIB_UTilities.c **** Computes the checksum as the sum of all \c len bytes starting form the pointer with initial seed.
 844:C:/Workspace/FW_Platform2_5/trunk/ProductModules/PM_Library\LIB_UTilities.c **** 
 845:C:/Workspace/FW_Platform2_5/trunk/ProductModules/PM_Library\LIB_UTilities.c **** \param [in]		len number of bytes (>=0)
 846:C:/Workspace/FW_Platform2_5/trunk/ProductModules/PM_Library\LIB_UTilities.c **** \param [in]		data  pointer to data
 847:C:/Workspace/FW_Platform2_5/trunk/ProductModules/PM_Library\LIB_UTilities.c **** \param [in]		initial seed value
 848:C:/Workspace/FW_Platform2_5/trunk/ProductModules/PM_Library\LIB_UTilities.c **** 
 849:C:/Workspace/FW_Platform2_5/trunk/ProductModules/PM_Library\LIB_UTilities.c **** \warning
 850:C:/Workspace/FW_Platform2_5/trunk/ProductModules/PM_Library\LIB_UTilities.c **** 
 851:C:/Workspace/FW_Platform2_5/trunk/ProductModules/PM_Library\LIB_UTilities.c **** \note
 852:C:/Workspace/FW_Platform2_5/trunk/ProductModules/PM_Library\LIB_UTilities.c **** 
 853:C:/Workspace/FW_Platform2_5/trunk/ProductModules/PM_Library\LIB_UTilities.c **** \version		1.0.0
 854:C:/Workspace/FW_Platform2_5/trunk/ProductModules/PM_Library\LIB_UTilities.c **** \date 			15/04/2009
 855:C:/Workspace/FW_Platform2_5/trunk/ProductModules/PM_Library\LIB_UTilities.c **** \author			Roberto Fioravanti
 856:C:/Workspace/FW_Platform2_5/trunk/ProductModules/PM_Library\LIB_UTilities.c **** */
 857:C:/Workspace/FW_Platform2_5/trunk/ProductModules/PM_Library\LIB_UTilities.c **** uint16_t LIB_ChkComputation (uint16_t  len, uint8_t * pdata, uint8_t seed)
 858:C:/Workspace/FW_Platform2_5/trunk/ProductModules/PM_Library\LIB_UTilities.c **** {
 859:C:/Workspace/FW_Platform2_5/trunk/ProductModules/PM_Library\LIB_UTilities.c **** 	uint8_t  *_pdata=pdata;
 860:C:/Workspace/FW_Platform2_5/trunk/ProductModules/PM_Library\LIB_UTilities.c **** 	uint16_t i;
 861:C:/Workspace/FW_Platform2_5/trunk/ProductModules/PM_Library\LIB_UTilities.c **** 
 862:C:/Workspace/FW_Platform2_5/trunk/ProductModules/PM_Library\LIB_UTilities.c **** 	uint16_t chk;
 863:C:/Workspace/FW_Platform2_5/trunk/ProductModules/PM_Library\LIB_UTilities.c **** 	chk = seed;
 864:C:/Workspace/FW_Platform2_5/trunk/ProductModules/PM_Library\LIB_UTilities.c **** 
 865:C:/Workspace/FW_Platform2_5/trunk/ProductModules/PM_Library\LIB_UTilities.c **** 	for(i=0; i<len; i++)
 866:C:/Workspace/FW_Platform2_5/trunk/ProductModules/PM_Library\LIB_UTilities.c **** 	{
 867:C:/Workspace/FW_Platform2_5/trunk/ProductModules/PM_Library\LIB_UTilities.c **** 		chk+=*_pdata;
 868:C:/Workspace/FW_Platform2_5/trunk/ProductModules/PM_Library\LIB_UTilities.c **** 		_pdata++;
 869:C:/Workspace/FW_Platform2_5/trunk/ProductModules/PM_Library\LIB_UTilities.c **** 	}
 870:C:/Workspace/FW_Platform2_5/trunk/ProductModules/PM_Library\LIB_UTilities.c **** 
 871:C:/Workspace/FW_Platform2_5/trunk/ProductModules/PM_Library\LIB_UTilities.c **** 	return chk;
 872:C:/Workspace/FW_Platform2_5/trunk/ProductModules/PM_Library\LIB_UTilities.c **** }
 873:C:/Workspace/FW_Platform2_5/trunk/ProductModules/PM_Library\LIB_UTilities.c **** /**
 874:C:/Workspace/FW_Platform2_5/trunk/ProductModules/PM_Library\LIB_UTilities.c **** This function extract address and size of data related to a given displacement 
 875:C:/Workspace/FW_Platform2_5/trunk/ProductModules/PM_Library\LIB_UTilities.c **** of a given pointer belonging to a setting file.
 876:C:/Workspace/FW_Platform2_5/trunk/ProductModules/PM_Library\LIB_UTilities.c **** The start address of the Pointer is provided as parameter.
 877:C:/Workspace/FW_Platform2_5/trunk/ProductModules/PM_Library\LIB_UTilities.c **** 
 878:C:/Workspace/FW_Platform2_5/trunk/ProductModules/PM_Library\LIB_UTilities.c **** \param  [in]		pPointerAddr: start address of the pointer area
 879:C:/Workspace/FW_Platform2_5/trunk/ProductModules/PM_Library\LIB_UTilities.c **** \param  [in] 	  displacement: index of the displscement. (see setting file documentation)
 880:C:/Workspace/FW_Platform2_5/trunk/ProductModules/PM_Library\LIB_UTilities.c **** \param  [out] 	pDataOut: is composed by the absolute address and the size (in words) of the returne
 881:C:/Workspace/FW_Platform2_5/trunk/ProductModules/PM_Library\LIB_UTilities.c **** 
 882:C:/Workspace/FW_Platform2_5/trunk/ProductModules/PM_Library\LIB_UTilities.c **** \return 	uint8_t
 883:C:/Workspace/FW_Platform2_5/trunk/ProductModules/PM_Library\LIB_UTilities.c **** 
 884:C:/Workspace/FW_Platform2_5/trunk/ProductModules/PM_Library\LIB_UTilities.c **** \retval	 SF_OK : OK
 885:C:/Workspace/FW_Platform2_5/trunk/ProductModules/PM_Library\LIB_UTilities.c **** \retval  SF_LDR_ERR_INVALID_DISPL: invalid displ value
 886:C:/Workspace/FW_Platform2_5/trunk/ProductModules/PM_Library\LIB_UTilities.c **** \retval  SF_LDR_ERR_INVALID_POINTER: invalid pointer value
 887:C:/Workspace/FW_Platform2_5/trunk/ProductModules/PM_Library\LIB_UTilities.c **** \retval  SF_LDR_ERR_OVFL_EXTRAPTR: too many extrapointers respect to a MAX defined value
 888:C:/Workspace/FW_Platform2_5/trunk/ProductModules/PM_Library\LIB_UTilities.c **** \retval  SF_LDR_ERR_ENDOFPOINTER: displacement is > of the last available displacement
 889:C:/Workspace/FW_Platform2_5/trunk/ProductModules/PM_Library\LIB_UTilities.c **** \retval  SF_LDR_WRN_LENGHT : data has length =0
 890:C:/Workspace/FW_Platform2_5/trunk/ProductModules/PM_Library\LIB_UTilities.c ****  
 891:C:/Workspace/FW_Platform2_5/trunk/ProductModules/PM_Library\LIB_UTilities.c **** 
 892:C:/Workspace/FW_Platform2_5/trunk/ProductModules/PM_Library\LIB_UTilities.c **** \author 	Andrea.Mantovani 
 893:C:/Workspace/FW_Platform2_5/trunk/ProductModules/PM_Library\LIB_UTilities.c **** \date		Feb X, 2010 
 894:C:/Workspace/FW_Platform2_5/trunk/ProductModules/PM_Library\LIB_UTilities.c **** \version	1.0.0
 895:C:/Workspace/FW_Platform2_5/trunk/ProductModules/PM_Library\LIB_UTilities.c **** \note		\par \b Note 1:
 896:C:/Workspace/FW_Platform2_5/trunk/ProductModules/PM_Library\LIB_UTilities.c **** 			documentation by Andrea.Mantovani
 897:C:/Workspace/FW_Platform2_5/trunk/ProductModules/PM_Library\LIB_UTilities.c **** 
 898:C:/Workspace/FW_Platform2_5/trunk/ProductModules/PM_Library\LIB_UTilities.c **** */
 899:C:/Workspace/FW_Platform2_5/trunk/ProductModules/PM_Library\LIB_UTilities.c **** uint8_t SFBasicLoaderPointer(uint8_t* pPointerAddr, uint8_t displacement, Loader_Struct* pDataOut) 
 900:C:/Workspace/FW_Platform2_5/trunk/ProductModules/PM_Library\LIB_UTilities.c **** {
 901:C:/Workspace/FW_Platform2_5/trunk/ProductModules/PM_Library\LIB_UTilities.c ****   uint16_t nPage, ui16DisplNum;
 902:C:/Workspace/FW_Platform2_5/trunk/ProductModules/PM_Library\LIB_UTilities.c ****   uint8_t *pData2;
 903:C:/Workspace/FW_Platform2_5/trunk/ProductModules/PM_Library\LIB_UTilities.c ****   
 904:C:/Workspace/FW_Platform2_5/trunk/ProductModules/PM_Library\LIB_UTilities.c ****   uint8_t nExtraPointerWords;
 905:C:/Workspace/FW_Platform2_5/trunk/ProductModules/PM_Library\LIB_UTilities.c ****   uint8_t i;
 906:C:/Workspace/FW_Platform2_5/trunk/ProductModules/PM_Library\LIB_UTilities.c **** 
 907:C:/Workspace/FW_Platform2_5/trunk/ProductModules/PM_Library\LIB_UTilities.c ****     
 908:C:/Workspace/FW_Platform2_5/trunk/ProductModules/PM_Library\LIB_UTilities.c ****   if (0xFF == displacement)
 909:C:/Workspace/FW_Platform2_5/trunk/ProductModules/PM_Library\LIB_UTilities.c ****   {
 910:C:/Workspace/FW_Platform2_5/trunk/ProductModules/PM_Library\LIB_UTilities.c ****     /**
 911:C:/Workspace/FW_Platform2_5/trunk/ProductModules/PM_Library\LIB_UTilities.c ****       0xFF is the last admitted value and is an odd value and for this reason it must be a dummy 
 912:C:/Workspace/FW_Platform2_5/trunk/ProductModules/PM_Library\LIB_UTilities.c ****       displacement cause the size cannot be calculated
 913:C:/Workspace/FW_Platform2_5/trunk/ProductModules/PM_Library\LIB_UTilities.c ****       */
 914:C:/Workspace/FW_Platform2_5/trunk/ProductModules/PM_Library\LIB_UTilities.c ****     return SF_LDR_ERR_INVALID_DISPL;
 915:C:/Workspace/FW_Platform2_5/trunk/ProductModules/PM_Library\LIB_UTilities.c ****   }
 916:C:/Workspace/FW_Platform2_5/trunk/ProductModules/PM_Library\LIB_UTilities.c ****  
 917:C:/Workspace/FW_Platform2_5/trunk/ProductModules/PM_Library\LIB_UTilities.c ****   
 918:C:/Workspace/FW_Platform2_5/trunk/ProductModules/PM_Library\LIB_UTilities.c ****   if (((uint8_t*)NULL_POINTER == pPointerAddr) || ((uint8_t*)INVALID_POINTER == pPointerAddr))
 919:C:/Workspace/FW_Platform2_5/trunk/ProductModules/PM_Library\LIB_UTilities.c ****   {
 920:C:/Workspace/FW_Platform2_5/trunk/ProductModules/PM_Library\LIB_UTilities.c ****     return SF_LDR_ERR_INVALID_POINTER;
 921:C:/Workspace/FW_Platform2_5/trunk/ProductModules/PM_Library\LIB_UTilities.c ****   }
 922:C:/Workspace/FW_Platform2_5/trunk/ProductModules/PM_Library\LIB_UTilities.c ****  
 923:C:/Workspace/FW_Platform2_5/trunk/ProductModules/PM_Library\LIB_UTilities.c ****   nExtraPointerWords = *pPointerAddr;
 924:C:/Workspace/FW_Platform2_5/trunk/ProductModules/PM_Library\LIB_UTilities.c ****   
 925:C:/Workspace/FW_Platform2_5/trunk/ProductModules/PM_Library\LIB_UTilities.c ****   if (nExtraPointerWords > N_MAX_EXTRAPTR_WORDS)
 926:C:/Workspace/FW_Platform2_5/trunk/ProductModules/PM_Library\LIB_UTilities.c ****   {
 927:C:/Workspace/FW_Platform2_5/trunk/ProductModules/PM_Library\LIB_UTilities.c ****     return SF_LDR_ERR_OVFL_EXTRAPTR;
 928:C:/Workspace/FW_Platform2_5/trunk/ProductModules/PM_Library\LIB_UTilities.c ****   }
 929:C:/Workspace/FW_Platform2_5/trunk/ProductModules/PM_Library\LIB_UTilities.c **** 
 930:C:/Workspace/FW_Platform2_5/trunk/ProductModules/PM_Library\LIB_UTilities.c ****  /* Checks the ExtraPointer and calculates the page */
 931:C:/Workspace/FW_Platform2_5/trunk/ProductModules/PM_Library\LIB_UTilities.c ****   nPage = 0;
 932:C:/Workspace/FW_Platform2_5/trunk/ProductModules/PM_Library\LIB_UTilities.c ****   for (i = 1; i < (2 * nExtraPointerWords); i++)
 933:C:/Workspace/FW_Platform2_5/trunk/ProductModules/PM_Library\LIB_UTilities.c ****   {
 934:C:/Workspace/FW_Platform2_5/trunk/ProductModules/PM_Library\LIB_UTilities.c ****     /* displacement < 0xFF */
 935:C:/Workspace/FW_Platform2_5/trunk/ProductModules/PM_Library\LIB_UTilities.c ****     if (displacement >= OFFS_B(pPointerAddr, i))
 936:C:/Workspace/FW_Platform2_5/trunk/ProductModules/PM_Library\LIB_UTilities.c ****     {
 937:C:/Workspace/FW_Platform2_5/trunk/ProductModules/PM_Library\LIB_UTilities.c ****       nPage += 0x0100U;
 938:C:/Workspace/FW_Platform2_5/trunk/ProductModules/PM_Library\LIB_UTilities.c ****     }
 939:C:/Workspace/FW_Platform2_5/trunk/ProductModules/PM_Library\LIB_UTilities.c ****   }
 940:C:/Workspace/FW_Platform2_5/trunk/ProductModules/PM_Library\LIB_UTilities.c **** 
 941:C:/Workspace/FW_Platform2_5/trunk/ProductModules/PM_Library\LIB_UTilities.c **** /* pData points to the first byte of the displacement area */
 942:C:/Workspace/FW_Platform2_5/trunk/ProductModules/PM_Library\LIB_UTilities.c ****   pPointerAddr += (2 * nExtraPointerWords); 
 943:C:/Workspace/FW_Platform2_5/trunk/ProductModules/PM_Library\LIB_UTilities.c **** 
 944:C:/Workspace/FW_Platform2_5/trunk/ProductModules/PM_Library\LIB_UTilities.c **** 
 945:C:/Workspace/FW_Platform2_5/trunk/ProductModules/PM_Library\LIB_UTilities.c ****    ui16DisplNum = (uint16_t)((2*(uint8_t)(*pPointerAddr))-1);
 946:C:/Workspace/FW_Platform2_5/trunk/ProductModules/PM_Library\LIB_UTilities.c ****    
 947:C:/Workspace/FW_Platform2_5/trunk/ProductModules/PM_Library\LIB_UTilities.c ****   /* pData2 points to the last dummy displacement */
 948:C:/Workspace/FW_Platform2_5/trunk/ProductModules/PM_Library\LIB_UTilities.c ****    pData2 =pPointerAddr+ui16DisplNum;
 949:C:/Workspace/FW_Platform2_5/trunk/ProductModules/PM_Library\LIB_UTilities.c ****    if (*pData2 == *(pData2-1)) 
 950:C:/Workspace/FW_Platform2_5/trunk/ProductModules/PM_Library\LIB_UTilities.c ****    {
 951:C:/Workspace/FW_Platform2_5/trunk/ProductModules/PM_Library\LIB_UTilities.c ****       ui16DisplNum -=1;
 952:C:/Workspace/FW_Platform2_5/trunk/ProductModules/PM_Library\LIB_UTilities.c ****    }
 953:C:/Workspace/FW_Platform2_5/trunk/ProductModules/PM_Library\LIB_UTilities.c ****    
 954:C:/Workspace/FW_Platform2_5/trunk/ProductModules/PM_Library\LIB_UTilities.c ****     if (displacement >= ui16DisplNum)
 955:C:/Workspace/FW_Platform2_5/trunk/ProductModules/PM_Library\LIB_UTilities.c ****     {
 956:C:/Workspace/FW_Platform2_5/trunk/ProductModules/PM_Library\LIB_UTilities.c ****       return SF_LDR_ERR_ENDOFPOINTER;
 957:C:/Workspace/FW_Platform2_5/trunk/ProductModules/PM_Library\LIB_UTilities.c ****     }
 958:C:/Workspace/FW_Platform2_5/trunk/ProductModules/PM_Library\LIB_UTilities.c ****  
 959:C:/Workspace/FW_Platform2_5/trunk/ProductModules/PM_Library\LIB_UTilities.c ****   /*
 960:C:/Workspace/FW_Platform2_5/trunk/ProductModules/PM_Library\LIB_UTilities.c ****     Calculation is valid also in case *( EepData + Displacement + 1 ) < *( EepData + Displacement )
 961:C:/Workspace/FW_Platform2_5/trunk/ProductModules/PM_Library\LIB_UTilities.c ****     cause an overflow page occurs.
 962:C:/Workspace/FW_Platform2_5/trunk/ProductModules/PM_Library\LIB_UTilities.c ****   */
 963:C:/Workspace/FW_Platform2_5/trunk/ProductModules/PM_Library\LIB_UTilities.c **** 
 964:C:/Workspace/FW_Platform2_5/trunk/ProductModules/PM_Library\LIB_UTilities.c ****   pDataOut->DataLenght = (uint8_t)( *( pPointerAddr + displacement + 1 ) - *( pPointerAddr + displa
 965:C:/Workspace/FW_Platform2_5/trunk/ProductModules/PM_Library\LIB_UTilities.c ****   pDataOut->Data = pPointerAddr + (2 * (*(pPointerAddr + displacement) + nPage));
 966:C:/Workspace/FW_Platform2_5/trunk/ProductModules/PM_Library\LIB_UTilities.c ****   if (0 == pDataOut->DataLenght)
 967:C:/Workspace/FW_Platform2_5/trunk/ProductModules/PM_Library\LIB_UTilities.c ****   {
 968:C:/Workspace/FW_Platform2_5/trunk/ProductModules/PM_Library\LIB_UTilities.c ****     return SF_LDR_WRN_LENGHT;
 969:C:/Workspace/FW_Platform2_5/trunk/ProductModules/PM_Library\LIB_UTilities.c ****   }
 970:C:/Workspace/FW_Platform2_5/trunk/ProductModules/PM_Library\LIB_UTilities.c **** 
 971:C:/Workspace/FW_Platform2_5/trunk/ProductModules/PM_Library\LIB_UTilities.c ****   return SF_OK;
 972:C:/Workspace/FW_Platform2_5/trunk/ProductModules/PM_Library\LIB_UTilities.c **** 
 973:C:/Workspace/FW_Platform2_5/trunk/ProductModules/PM_Library\LIB_UTilities.c **** }
 974:C:/Workspace/FW_Platform2_5/trunk/ProductModules/PM_Library\LIB_UTilities.c **** 
 975:C:/Workspace/FW_Platform2_5/trunk/ProductModules/PM_Library\LIB_UTilities.c **** 
 976:C:/Workspace/FW_Platform2_5/trunk/ProductModules/PM_Library\LIB_UTilities.c **** /**
 977:C:/Workspace/FW_Platform2_5/trunk/ProductModules/PM_Library\LIB_UTilities.c **** This function the number of displacements for a give setting file pointer passed by its memory poin
 978:C:/Workspace/FW_Platform2_5/trunk/ProductModules/PM_Library\LIB_UTilities.c **** 
 979:C:/Workspace/FW_Platform2_5/trunk/ProductModules/PM_Library\LIB_UTilities.c **** \param  [in]		pPointerAddr: start address of the pointer area
 980:C:/Workspace/FW_Platform2_5/trunk/ProductModules/PM_Library\LIB_UTilities.c **** \param  [out] 	    pDisplNum: number of displacement
 981:C:/Workspace/FW_Platform2_5/trunk/ProductModules/PM_Library\LIB_UTilities.c **** 
 982:C:/Workspace/FW_Platform2_5/trunk/ProductModules/PM_Library\LIB_UTilities.c **** 
 983:C:/Workspace/FW_Platform2_5/trunk/ProductModules/PM_Library\LIB_UTilities.c **** \return 	uint8_t
 984:C:/Workspace/FW_Platform2_5/trunk/ProductModules/PM_Library\LIB_UTilities.c **** 
 985:C:/Workspace/FW_Platform2_5/trunk/ProductModules/PM_Library\LIB_UTilities.c **** \retval	 SF_OK : OK
 986:C:/Workspace/FW_Platform2_5/trunk/ProductModules/PM_Library\LIB_UTilities.c **** \retval  SF_LDR_ERR_INVALID_POINTER: invalid pointer value (*pDisplNum not changed)
 987:C:/Workspace/FW_Platform2_5/trunk/ProductModules/PM_Library\LIB_UTilities.c **** \retval  SF_LDR_ERR_OVFL_EXTRAPTR: too many extrapointers respect to a MAX defined value (*pDisplNu
 988:C:/Workspace/FW_Platform2_5/trunk/ProductModules/PM_Library\LIB_UTilities.c **** 
 989:C:/Workspace/FW_Platform2_5/trunk/ProductModules/PM_Library\LIB_UTilities.c **** 
 990:C:/Workspace/FW_Platform2_5/trunk/ProductModules/PM_Library\LIB_UTilities.c **** \author 	Roberto Fioravanti
 991:C:/Workspace/FW_Platform2_5/trunk/ProductModules/PM_Library\LIB_UTilities.c **** \date		21/10/2010
 992:C:/Workspace/FW_Platform2_5/trunk/ProductModules/PM_Library\LIB_UTilities.c **** \version	1.0.0	
 993:C:/Workspace/FW_Platform2_5/trunk/ProductModules/PM_Library\LIB_UTilities.c ****    
 994:C:/Workspace/FW_Platform2_5/trunk/ProductModules/PM_Library\LIB_UTilities.c **** \note		\par \b Note 1:
 995:C:/Workspace/FW_Platform2_5/trunk/ProductModules/PM_Library\LIB_UTilities.c **** 			documentation by Roberto Fioravanti
 996:C:/Workspace/FW_Platform2_5/trunk/ProductModules/PM_Library\LIB_UTilities.c **** 
 997:C:/Workspace/FW_Platform2_5/trunk/ProductModules/PM_Library\LIB_UTilities.c **** */
 998:C:/Workspace/FW_Platform2_5/trunk/ProductModules/PM_Library\LIB_UTilities.c **** uint8_t SFGetDisplacementNumber(uint8_t* pPointerAddr, uint8_t *pDisplNum)
 999:C:/Workspace/FW_Platform2_5/trunk/ProductModules/PM_Library\LIB_UTilities.c **** {
1000:C:/Workspace/FW_Platform2_5/trunk/ProductModules/PM_Library\LIB_UTilities.c ****     uint16_t ui16DisplNum;
1001:C:/Workspace/FW_Platform2_5/trunk/ProductModules/PM_Library\LIB_UTilities.c ****     uint8_t *pData2;
1002:C:/Workspace/FW_Platform2_5/trunk/ProductModules/PM_Library\LIB_UTilities.c **** 
1003:C:/Workspace/FW_Platform2_5/trunk/ProductModules/PM_Library\LIB_UTilities.c ****     uint8_t nExtraPointerWords;
1004:C:/Workspace/FW_Platform2_5/trunk/ProductModules/PM_Library\LIB_UTilities.c ****   
1005:C:/Workspace/FW_Platform2_5/trunk/ProductModules/PM_Library\LIB_UTilities.c ****     if (((uint8_t*)NULL_POINTER == pPointerAddr))
1006:C:/Workspace/FW_Platform2_5/trunk/ProductModules/PM_Library\LIB_UTilities.c ****     {
1007:C:/Workspace/FW_Platform2_5/trunk/ProductModules/PM_Library\LIB_UTilities.c ****         return SF_LDR_ERR_INVALID_POINTER;
1008:C:/Workspace/FW_Platform2_5/trunk/ProductModules/PM_Library\LIB_UTilities.c ****     }
1009:C:/Workspace/FW_Platform2_5/trunk/ProductModules/PM_Library\LIB_UTilities.c **** 
1010:C:/Workspace/FW_Platform2_5/trunk/ProductModules/PM_Library\LIB_UTilities.c ****     nExtraPointerWords = *pPointerAddr;
1011:C:/Workspace/FW_Platform2_5/trunk/ProductModules/PM_Library\LIB_UTilities.c **** 
1012:C:/Workspace/FW_Platform2_5/trunk/ProductModules/PM_Library\LIB_UTilities.c ****     if (nExtraPointerWords > N_MAX_EXTRAPTR_WORDS)
1013:C:/Workspace/FW_Platform2_5/trunk/ProductModules/PM_Library\LIB_UTilities.c ****     {
1014:C:/Workspace/FW_Platform2_5/trunk/ProductModules/PM_Library\LIB_UTilities.c ****         return SF_LDR_ERR_OVFL_EXTRAPTR;
1015:C:/Workspace/FW_Platform2_5/trunk/ProductModules/PM_Library\LIB_UTilities.c ****     }
1016:C:/Workspace/FW_Platform2_5/trunk/ProductModules/PM_Library\LIB_UTilities.c **** 
1017:C:/Workspace/FW_Platform2_5/trunk/ProductModules/PM_Library\LIB_UTilities.c ****     
1018:C:/Workspace/FW_Platform2_5/trunk/ProductModules/PM_Library\LIB_UTilities.c ****     /* pData points to the first byte of the displacement area */
1019:C:/Workspace/FW_Platform2_5/trunk/ProductModules/PM_Library\LIB_UTilities.c ****     pPointerAddr += (2 * nExtraPointerWords); 
1020:C:/Workspace/FW_Platform2_5/trunk/ProductModules/PM_Library\LIB_UTilities.c **** 
1021:C:/Workspace/FW_Platform2_5/trunk/ProductModules/PM_Library\LIB_UTilities.c **** 
1022:C:/Workspace/FW_Platform2_5/trunk/ProductModules/PM_Library\LIB_UTilities.c ****     ui16DisplNum = (uint16_t)((2*(uint8_t)(*pPointerAddr)) - 1);
1023:C:/Workspace/FW_Platform2_5/trunk/ProductModules/PM_Library\LIB_UTilities.c **** 
1024:C:/Workspace/FW_Platform2_5/trunk/ProductModules/PM_Library\LIB_UTilities.c ****     /* pData2 points to the last dummy displacement */
1025:C:/Workspace/FW_Platform2_5/trunk/ProductModules/PM_Library\LIB_UTilities.c ****     pData2 =pPointerAddr+ui16DisplNum;
1026:C:/Workspace/FW_Platform2_5/trunk/ProductModules/PM_Library\LIB_UTilities.c ****     if (*pData2 == *(pData2-1)) 
1027:C:/Workspace/FW_Platform2_5/trunk/ProductModules/PM_Library\LIB_UTilities.c ****     {
1028:C:/Workspace/FW_Platform2_5/trunk/ProductModules/PM_Library\LIB_UTilities.c ****         ui16DisplNum -=1;
1029:C:/Workspace/FW_Platform2_5/trunk/ProductModules/PM_Library\LIB_UTilities.c ****     }
1030:C:/Workspace/FW_Platform2_5/trunk/ProductModules/PM_Library\LIB_UTilities.c ****     
1031:C:/Workspace/FW_Platform2_5/trunk/ProductModules/PM_Library\LIB_UTilities.c ****     if (ui16DisplNum < 256) {
1032:C:/Workspace/FW_Platform2_5/trunk/ProductModules/PM_Library\LIB_UTilities.c ****         *pDisplNum = (uint8_t) ui16DisplNum;  
1033:C:/Workspace/FW_Platform2_5/trunk/ProductModules/PM_Library\LIB_UTilities.c ****     }
1034:C:/Workspace/FW_Platform2_5/trunk/ProductModules/PM_Library\LIB_UTilities.c ****     else 
1035:C:/Workspace/FW_Platform2_5/trunk/ProductModules/PM_Library\LIB_UTilities.c **** 	{
1036:C:/Workspace/FW_Platform2_5/trunk/ProductModules/PM_Library\LIB_UTilities.c **** 		*pDisplNum = 255;
1037:C:/Workspace/FW_Platform2_5/trunk/ProductModules/PM_Library\LIB_UTilities.c **** 	}
1038:C:/Workspace/FW_Platform2_5/trunk/ProductModules/PM_Library\LIB_UTilities.c ****     
1039:C:/Workspace/FW_Platform2_5/trunk/ProductModules/PM_Library\LIB_UTilities.c ****     return SF_OK;
1040:C:/Workspace/FW_Platform2_5/trunk/ProductModules/PM_Library\LIB_UTilities.c **** }
1041:C:/Workspace/FW_Platform2_5/trunk/ProductModules/PM_Library\LIB_UTilities.c **** 
1042:C:/Workspace/FW_Platform2_5/trunk/ProductModules/PM_Library\LIB_UTilities.c **** /**
1043:C:/Workspace/FW_Platform2_5/trunk/ProductModules/PM_Library\LIB_UTilities.c **** This function gives Fault Priority code according to
1044:C:/Workspace/FW_Platform2_5/trunk/ProductModules/PM_Library\LIB_UTilities.c **** 
1045:C:/Workspace/FW_Platform2_5/trunk/ProductModules/PM_Library\LIB_UTilities.c **** \param  [in]		getApplTable: TRUE if Application Faults priority table to use
1046:C:/Workspace/FW_Platform2_5/trunk/ProductModules/PM_Library\LIB_UTilities.c **** \param  [in] 	    fltCode: Fault code to search
1047:C:/Workspace/FW_Platform2_5/trunk/ProductModules/PM_Library\LIB_UTilities.c **** \param  [in] 	    fltSubCode: Fault sub code to search
1048:C:/Workspace/FW_Platform2_5/trunk/ProductModules/PM_Library\LIB_UTilities.c **** \param  [out] 	    fltPrio: Returns fault priority read from setting file (if all OK, unchanged oth
1049:C:/Workspace/FW_Platform2_5/trunk/ProductModules/PM_Library\LIB_UTilities.c **** 
1050:C:/Workspace/FW_Platform2_5/trunk/ProductModules/PM_Library\LIB_UTilities.c **** 
1051:C:/Workspace/FW_Platform2_5/trunk/ProductModules/PM_Library\LIB_UTilities.c **** \return 	uint8_t
1052:C:/Workspace/FW_Platform2_5/trunk/ProductModules/PM_Library\LIB_UTilities.c **** 
1053:C:/Workspace/FW_Platform2_5/trunk/ProductModules/PM_Library\LIB_UTilities.c **** \retval	 SF_OK : 	OK
1054:C:/Workspace/FW_Platform2_5/trunk/ProductModules/PM_Library\LIB_UTilities.c **** \retval  SF_LDR_ERR_INVALID_DISPL: invalid displacement (not found)
1055:C:/Workspace/FW_Platform2_5/trunk/ProductModules/PM_Library\LIB_UTilities.c **** \retval  SF_LDR_ERR_NOT_FOUND: Fault priority value not found
1056:C:/Workspace/FW_Platform2_5/trunk/ProductModules/PM_Library\LIB_UTilities.c **** 
1057:C:/Workspace/FW_Platform2_5/trunk/ProductModules/PM_Library\LIB_UTilities.c **** 
1058:C:/Workspace/FW_Platform2_5/trunk/ProductModules/PM_Library\LIB_UTilities.c **** \author 	Alessandro Sabbatini
1059:C:/Workspace/FW_Platform2_5/trunk/ProductModules/PM_Library\LIB_UTilities.c **** \date		11/02/2013
1060:C:/Workspace/FW_Platform2_5/trunk/ProductModules/PM_Library\LIB_UTilities.c **** \version	1.0.0
1061:C:/Workspace/FW_Platform2_5/trunk/ProductModules/PM_Library\LIB_UTilities.c **** 
1062:C:/Workspace/FW_Platform2_5/trunk/ProductModules/PM_Library\LIB_UTilities.c **** \note		\par \b Note 1:
1063:C:/Workspace/FW_Platform2_5/trunk/ProductModules/PM_Library\LIB_UTilities.c **** 			documentation by Alessandro Sabbatini
1064:C:/Workspace/FW_Platform2_5/trunk/ProductModules/PM_Library\LIB_UTilities.c **** 
1065:C:/Workspace/FW_Platform2_5/trunk/ProductModules/PM_Library\LIB_UTilities.c **** */
1066:C:/Workspace/FW_Platform2_5/trunk/ProductModules/PM_Library\LIB_UTilities.c **** uint8_t LIB_SEF_GetFaultPriority(bool_t getApplTable, uint8_t fltCode, uint8_t fltSubCode, uint8_t 
1067:C:/Workspace/FW_Platform2_5/trunk/ProductModules/PM_Library\LIB_UTilities.c **** {
1068:C:/Workspace/FW_Platform2_5/trunk/ProductModules/PM_Library\LIB_UTilities.c **** #if defined(CONFIG_LIB_PRODUCTSAFETY_SUPPORT)
1069:C:/Workspace/FW_Platform2_5/trunk/ProductModules/PM_Library\LIB_UTilities.c **** 	uint8_t resCode = SF_LDR_ERR_NOT_FOUND;
1070:C:/Workspace/FW_Platform2_5/trunk/ProductModules/PM_Library\LIB_UTilities.c **** 	uint8_t reqDispl;
1071:C:/Workspace/FW_Platform2_5/trunk/ProductModules/PM_Library\LIB_UTilities.c **** 	uint8_t tmpResVal;
1072:C:/Workspace/FW_Platform2_5/trunk/ProductModules/PM_Library\LIB_UTilities.c **** 	Loader_Struct tmpLdrData;
1073:C:/Workspace/FW_Platform2_5/trunk/ProductModules/PM_Library\LIB_UTilities.c **** 
1074:C:/Workspace/FW_Platform2_5/trunk/ProductModules/PM_Library\LIB_UTilities.c **** 	if (getApplTable)
1075:C:/Workspace/FW_Platform2_5/trunk/ProductModules/PM_Library\LIB_UTilities.c **** 	{
1076:C:/Workspace/FW_Platform2_5/trunk/ProductModules/PM_Library\LIB_UTilities.c **** 		reqDispl = SF_DISPL_FAULT_APP_PRIO; /* CONFIG_LIB_PRODUCTSAFETY_APPL_DISPL; */
1077:C:/Workspace/FW_Platform2_5/trunk/ProductModules/PM_Library\LIB_UTilities.c **** 	}
1078:C:/Workspace/FW_Platform2_5/trunk/ProductModules/PM_Library\LIB_UTilities.c **** 	else
1079:C:/Workspace/FW_Platform2_5/trunk/ProductModules/PM_Library\LIB_UTilities.c **** 	{
1080:C:/Workspace/FW_Platform2_5/trunk/ProductModules/PM_Library\LIB_UTilities.c **** 		reqDispl = SF_DISPL_FAULT_PLT_PRIO; /* CONFIG_LIB_PRODUCTSAFETY_PTF_DISPL; */
1081:C:/Workspace/FW_Platform2_5/trunk/ProductModules/PM_Library\LIB_UTilities.c **** 	}
1082:C:/Workspace/FW_Platform2_5/trunk/ProductModules/PM_Library\LIB_UTilities.c **** 
1083:C:/Workspace/FW_Platform2_5/trunk/ProductModules/PM_Library\LIB_UTilities.c **** 	tmpResVal = BasicLoader(SF_PTR_FAULT, reqDispl, &tmpLdrData);
1084:C:/Workspace/FW_Platform2_5/trunk/ProductModules/PM_Library\LIB_UTilities.c **** 
1085:C:/Workspace/FW_Platform2_5/trunk/ProductModules/PM_Library\LIB_UTilities.c **** #if defined(LIB_SETTINGFILE_CUSTOM_FAULT_PRIORITY)
1086:C:/Workspace/FW_Platform2_5/trunk/ProductModules/PM_Library\LIB_UTilities.c **** 	if (tmpResVal != BSLDR_OK)
1087:C:/Workspace/FW_Platform2_5/trunk/ProductModules/PM_Library\LIB_UTilities.c **** 	{
1088:C:/Workspace/FW_Platform2_5/trunk/ProductModules/PM_Library\LIB_UTilities.c **** 		if (getApplTable)
1089:C:/Workspace/FW_Platform2_5/trunk/ProductModules/PM_Library\LIB_UTilities.c **** 		{
1090:C:/Workspace/FW_Platform2_5/trunk/ProductModules/PM_Library\LIB_UTilities.c **** 			tmpLdrData = CSTM_ApplFaultPriorities;
1091:C:/Workspace/FW_Platform2_5/trunk/ProductModules/PM_Library\LIB_UTilities.c **** 		}
1092:C:/Workspace/FW_Platform2_5/trunk/ProductModules/PM_Library\LIB_UTilities.c **** 		else
1093:C:/Workspace/FW_Platform2_5/trunk/ProductModules/PM_Library\LIB_UTilities.c **** 		{
1094:C:/Workspace/FW_Platform2_5/trunk/ProductModules/PM_Library\LIB_UTilities.c **** 			tmpLdrData = CSTM_PltFaultPriorities;
1095:C:/Workspace/FW_Platform2_5/trunk/ProductModules/PM_Library\LIB_UTilities.c **** 		}
1096:C:/Workspace/FW_Platform2_5/trunk/ProductModules/PM_Library\LIB_UTilities.c **** 		tmpResVal = BSLDR_OK;
1097:C:/Workspace/FW_Platform2_5/trunk/ProductModules/PM_Library\LIB_UTilities.c **** 
1098:C:/Workspace/FW_Platform2_5/trunk/ProductModules/PM_Library\LIB_UTilities.c **** 	}
1099:C:/Workspace/FW_Platform2_5/trunk/ProductModules/PM_Library\LIB_UTilities.c **** #endif
1100:C:/Workspace/FW_Platform2_5/trunk/ProductModules/PM_Library\LIB_UTilities.c **** 
1101:C:/Workspace/FW_Platform2_5/trunk/ProductModules/PM_Library\LIB_UTilities.c **** 	if (tmpResVal == BSLDR_OK)
1102:C:/Workspace/FW_Platform2_5/trunk/ProductModules/PM_Library\LIB_UTilities.c **** 	{
1103:C:/Workspace/FW_Platform2_5/trunk/ProductModules/PM_Library\LIB_UTilities.c **** 		uint8_t numItems = ((tmpLdrData.DataLenght * 2) / 3);
1104:C:/Workspace/FW_Platform2_5/trunk/ProductModules/PM_Library\LIB_UTilities.c **** 		uint8_t i;
1105:C:/Workspace/FW_Platform2_5/trunk/ProductModules/PM_Library\LIB_UTilities.c **** 
1106:C:/Workspace/FW_Platform2_5/trunk/ProductModules/PM_Library\LIB_UTilities.c **** 		for (i=0; i < numItems; i++)
1107:C:/Workspace/FW_Platform2_5/trunk/ProductModules/PM_Library\LIB_UTilities.c **** 		{
1108:C:/Workspace/FW_Platform2_5/trunk/ProductModules/PM_Library\LIB_UTilities.c **** 			uint8_t tmpFltCode = tmpLdrData.Data[2*i];
1109:C:/Workspace/FW_Platform2_5/trunk/ProductModules/PM_Library\LIB_UTilities.c **** 			uint8_t tmpFltSubCode = tmpLdrData.Data[(2*i) + 1];
1110:C:/Workspace/FW_Platform2_5/trunk/ProductModules/PM_Library\LIB_UTilities.c **** 
1111:C:/Workspace/FW_Platform2_5/trunk/ProductModules/PM_Library\LIB_UTilities.c **** 			if ((tmpFltCode == fltCode) && ((tmpFltSubCode == fltSubCode) || (tmpFltSubCode == 0xFF)))
1112:C:/Workspace/FW_Platform2_5/trunk/ProductModules/PM_Library\LIB_UTilities.c **** 			{
1113:C:/Workspace/FW_Platform2_5/trunk/ProductModules/PM_Library\LIB_UTilities.c **** 				*fltPrio = tmpLdrData.Data[(2*numItems)+i];
1114:C:/Workspace/FW_Platform2_5/trunk/ProductModules/PM_Library\LIB_UTilities.c **** 				resCode = SF_OK;
1115:C:/Workspace/FW_Platform2_5/trunk/ProductModules/PM_Library\LIB_UTilities.c **** 				break;
1116:C:/Workspace/FW_Platform2_5/trunk/ProductModules/PM_Library\LIB_UTilities.c **** 			}
1117:C:/Workspace/FW_Platform2_5/trunk/ProductModules/PM_Library\LIB_UTilities.c **** 		}
1118:C:/Workspace/FW_Platform2_5/trunk/ProductModules/PM_Library\LIB_UTilities.c **** 	}
1119:C:/Workspace/FW_Platform2_5/trunk/ProductModules/PM_Library\LIB_UTilities.c **** 
1120:C:/Workspace/FW_Platform2_5/trunk/ProductModules/PM_Library\LIB_UTilities.c **** 	return resCode;
1121:C:/Workspace/FW_Platform2_5/trunk/ProductModules/PM_Library\LIB_UTilities.c **** 
1122:C:/Workspace/FW_Platform2_5/trunk/ProductModules/PM_Library\LIB_UTilities.c **** #else
1123:C:/Workspace/FW_Platform2_5/trunk/ProductModules/PM_Library\LIB_UTilities.c **** 	return SF_LDR_ERR_NOT_FOUND;
1124:C:/Workspace/FW_Platform2_5/trunk/ProductModules/PM_Library\LIB_UTilities.c **** 
1125:C:/Workspace/FW_Platform2_5/trunk/ProductModules/PM_Library\LIB_UTilities.c **** #endif
1126:C:/Workspace/FW_Platform2_5/trunk/ProductModules/PM_Library\LIB_UTilities.c **** 
1127:C:/Workspace/FW_Platform2_5/trunk/ProductModules/PM_Library\LIB_UTilities.c **** }
1128:C:/Workspace/FW_Platform2_5/trunk/ProductModules/PM_Library\LIB_UTilities.c **** 
1129:C:/Workspace/FW_Platform2_5/trunk/ProductModules/PM_Library\LIB_UTilities.c **** /**
1130:C:/Workspace/FW_Platform2_5/trunk/ProductModules/PM_Library\LIB_UTilities.c **** This function gives Fault Priority field from fault priority retrieved by setting file,
1131:C:/Workspace/FW_Platform2_5/trunk/ProductModules/PM_Library\LIB_UTilities.c **** excluding Fault to display field.
1132:C:/Workspace/FW_Platform2_5/trunk/ProductModules/PM_Library\LIB_UTilities.c **** 
1133:C:/Workspace/FW_Platform2_5/trunk/ProductModules/PM_Library\LIB_UTilities.c **** \param  [in]		faultPrio: Full fault priority item get from setting file table
1134:C:/Workspace/FW_Platform2_5/trunk/ProductModules/PM_Library\LIB_UTilities.c **** 
1135:C:/Workspace/FW_Platform2_5/trunk/ProductModules/PM_Library\LIB_UTilities.c **** \return uint8_t		Fault priority without Fault to display bit
1136:C:/Workspace/FW_Platform2_5/trunk/ProductModules/PM_Library\LIB_UTilities.c **** 
1137:C:/Workspace/FW_Platform2_5/trunk/ProductModules/PM_Library\LIB_UTilities.c **** \author 	Alessandro Sabbatini
1138:C:/Workspace/FW_Platform2_5/trunk/ProductModules/PM_Library\LIB_UTilities.c **** \date		18/02/2013
1139:C:/Workspace/FW_Platform2_5/trunk/ProductModules/PM_Library\LIB_UTilities.c **** \version	1.0.0
1140:C:/Workspace/FW_Platform2_5/trunk/ProductModules/PM_Library\LIB_UTilities.c **** 
1141:C:/Workspace/FW_Platform2_5/trunk/ProductModules/PM_Library\LIB_UTilities.c **** \note		\par \b Note 1:
1142:C:/Workspace/FW_Platform2_5/trunk/ProductModules/PM_Library\LIB_UTilities.c **** 			documentation by Alessandro Sabbatini
1143:C:/Workspace/FW_Platform2_5/trunk/ProductModules/PM_Library\LIB_UTilities.c **** 
1144:C:/Workspace/FW_Platform2_5/trunk/ProductModules/PM_Library\LIB_UTilities.c **** */
1145:C:/Workspace/FW_Platform2_5/trunk/ProductModules/PM_Library\LIB_UTilities.c **** uint8_t LIB_SEF_FaultPriorityField(uint8_t faultPrio)
1146:C:/Workspace/FW_Platform2_5/trunk/ProductModules/PM_Library\LIB_UTilities.c **** {
1147:C:/Workspace/FW_Platform2_5/trunk/ProductModules/PM_Library\LIB_UTilities.c **** 	return (uint8_t) (faultPrio & ((uint8_t) SF_FAULT_PRIO_MASK));
1148:C:/Workspace/FW_Platform2_5/trunk/ProductModules/PM_Library\LIB_UTilities.c **** }
1149:C:/Workspace/FW_Platform2_5/trunk/ProductModules/PM_Library\LIB_UTilities.c **** 
1150:C:/Workspace/FW_Platform2_5/trunk/ProductModules/PM_Library\LIB_UTilities.c **** 
1151:C:/Workspace/FW_Platform2_5/trunk/ProductModules/PM_Library\LIB_UTilities.c **** /**
1152:C:/Workspace/FW_Platform2_5/trunk/ProductModules/PM_Library\LIB_UTilities.c **** This function gives Fault To Display flag from fault priority retrieved by setting file
1153:C:/Workspace/FW_Platform2_5/trunk/ProductModules/PM_Library\LIB_UTilities.c **** 
1154:C:/Workspace/FW_Platform2_5/trunk/ProductModules/PM_Library\LIB_UTilities.c **** \param  [in]		faultPrio: Full fault priority item get from setting file table
1155:C:/Workspace/FW_Platform2_5/trunk/ProductModules/PM_Library\LIB_UTilities.c **** 
1156:C:/Workspace/FW_Platform2_5/trunk/ProductModules/PM_Library\LIB_UTilities.c **** \return 	bool_t
1157:C:/Workspace/FW_Platform2_5/trunk/ProductModules/PM_Library\LIB_UTilities.c **** 
1158:C:/Workspace/FW_Platform2_5/trunk/ProductModules/PM_Library\LIB_UTilities.c **** \retval	 TRUE		if Fault to display flag is set
1159:C:/Workspace/FW_Platform2_5/trunk/ProductModules/PM_Library\LIB_UTilities.c **** \retval  FALSE		if Fault to display flag is not set
1160:C:/Workspace/FW_Platform2_5/trunk/ProductModules/PM_Library\LIB_UTilities.c **** 
1161:C:/Workspace/FW_Platform2_5/trunk/ProductModules/PM_Library\LIB_UTilities.c **** 
1162:C:/Workspace/FW_Platform2_5/trunk/ProductModules/PM_Library\LIB_UTilities.c **** \author 	Alessandro Sabbatini
1163:C:/Workspace/FW_Platform2_5/trunk/ProductModules/PM_Library\LIB_UTilities.c **** \date		18/02/2013
1164:C:/Workspace/FW_Platform2_5/trunk/ProductModules/PM_Library\LIB_UTilities.c **** \version	1.0.0
1165:C:/Workspace/FW_Platform2_5/trunk/ProductModules/PM_Library\LIB_UTilities.c **** 
1166:C:/Workspace/FW_Platform2_5/trunk/ProductModules/PM_Library\LIB_UTilities.c **** \note		\par \b Note 1:
1167:C:/Workspace/FW_Platform2_5/trunk/ProductModules/PM_Library\LIB_UTilities.c **** 			documentation by Alessandro Sabbatini
1168:C:/Workspace/FW_Platform2_5/trunk/ProductModules/PM_Library\LIB_UTilities.c **** 
1169:C:/Workspace/FW_Platform2_5/trunk/ProductModules/PM_Library\LIB_UTilities.c **** */
1170:C:/Workspace/FW_Platform2_5/trunk/ProductModules/PM_Library\LIB_UTilities.c **** bool_t LIB_SEF_IsFaultToDisplayON(uint8_t faultPrio)
1171:C:/Workspace/FW_Platform2_5/trunk/ProductModules/PM_Library\LIB_UTilities.c **** {
1172:C:/Workspace/FW_Platform2_5/trunk/ProductModules/PM_Library\LIB_UTilities.c **** 	return (uint8_t) ((faultPrio & ((uint8_t) SF_FAULT_DISPL_MASK)) != 0);
1173:C:/Workspace/FW_Platform2_5/trunk/ProductModules/PM_Library\LIB_UTilities.c **** }
1174:C:/Workspace/FW_Platform2_5/trunk/ProductModules/PM_Library\LIB_UTilities.c **** 
1175:C:/Workspace/FW_Platform2_5/trunk/ProductModules/PM_Library\LIB_UTilities.c **** /**
1176:C:/Workspace/FW_Platform2_5/trunk/ProductModules/PM_Library\LIB_UTilities.c **** This function gives Fault To Display flag according to Fault code or sub code
1177:C:/Workspace/FW_Platform2_5/trunk/ProductModules/PM_Library\LIB_UTilities.c **** 
1178:C:/Workspace/FW_Platform2_5/trunk/ProductModules/PM_Library\LIB_UTilities.c **** \param  [in]		getApplTable: TRUE if Application Faults priority table to use
1179:C:/Workspace/FW_Platform2_5/trunk/ProductModules/PM_Library\LIB_UTilities.c **** \param  [in] 	    fltCode: Fault code to search
1180:C:/Workspace/FW_Platform2_5/trunk/ProductModules/PM_Library\LIB_UTilities.c **** \param  [in] 	    fltSubCode: Fault sub code to search
1181:C:/Workspace/FW_Platform2_5/trunk/ProductModules/PM_Library\LIB_UTilities.c **** 
1182:C:/Workspace/FW_Platform2_5/trunk/ProductModules/PM_Library\LIB_UTilities.c **** 
1183:C:/Workspace/FW_Platform2_5/trunk/ProductModules/PM_Library\LIB_UTilities.c **** \return 	bool_t
1184:C:/Workspace/FW_Platform2_5/trunk/ProductModules/PM_Library\LIB_UTilities.c **** 
1185:C:/Workspace/FW_Platform2_5/trunk/ProductModules/PM_Library\LIB_UTilities.c **** \retval	 TRUE		if Fault to display flag is set
1186:C:/Workspace/FW_Platform2_5/trunk/ProductModules/PM_Library\LIB_UTilities.c **** \retval  FALSE		if Fault to display flag is not set or fault is not present
1187:C:/Workspace/FW_Platform2_5/trunk/ProductModules/PM_Library\LIB_UTilities.c **** 
1188:C:/Workspace/FW_Platform2_5/trunk/ProductModules/PM_Library\LIB_UTilities.c **** 
1189:C:/Workspace/FW_Platform2_5/trunk/ProductModules/PM_Library\LIB_UTilities.c **** \author 	Alessandro Sabbatini
1190:C:/Workspace/FW_Platform2_5/trunk/ProductModules/PM_Library\LIB_UTilities.c **** \date		18/02/2013
1191:C:/Workspace/FW_Platform2_5/trunk/ProductModules/PM_Library\LIB_UTilities.c **** \version	1.0.0
1192:C:/Workspace/FW_Platform2_5/trunk/ProductModules/PM_Library\LIB_UTilities.c **** 
1193:C:/Workspace/FW_Platform2_5/trunk/ProductModules/PM_Library\LIB_UTilities.c **** \note		\par \b Note 1:
1194:C:/Workspace/FW_Platform2_5/trunk/ProductModules/PM_Library\LIB_UTilities.c **** 			documentation by Alessandro Sabbatini
1195:C:/Workspace/FW_Platform2_5/trunk/ProductModules/PM_Library\LIB_UTilities.c **** 
1196:C:/Workspace/FW_Platform2_5/trunk/ProductModules/PM_Library\LIB_UTilities.c **** */
1197:C:/Workspace/FW_Platform2_5/trunk/ProductModules/PM_Library\LIB_UTilities.c **** bool_t LIB_SEF_GetFaultToDisplay(bool_t getApplTable, uint8_t fltCode, uint8_t fltSubCode)
1198:C:/Workspace/FW_Platform2_5/trunk/ProductModules/PM_Library\LIB_UTilities.c **** {
1199:C:/Workspace/FW_Platform2_5/trunk/ProductModules/PM_Library\LIB_UTilities.c **** 	bool_t resVal = FALSE;
1200:C:/Workspace/FW_Platform2_5/trunk/ProductModules/PM_Library\LIB_UTilities.c **** 	uint8_t fltPrio = 0;
1201:C:/Workspace/FW_Platform2_5/trunk/ProductModules/PM_Library\LIB_UTilities.c **** 
1202:C:/Workspace/FW_Platform2_5/trunk/ProductModules/PM_Library\LIB_UTilities.c **** 	if (LIB_SEF_GetFaultPriority(getApplTable, fltCode, fltSubCode, &fltPrio) == SF_OK)
1203:C:/Workspace/FW_Platform2_5/trunk/ProductModules/PM_Library\LIB_UTilities.c **** 	{
1204:C:/Workspace/FW_Platform2_5/trunk/ProductModules/PM_Library\LIB_UTilities.c **** 		resVal = LIB_SEF_IsFaultToDisplayON(fltPrio);
1205:C:/Workspace/FW_Platform2_5/trunk/ProductModules/PM_Library\LIB_UTilities.c **** 	}
1206:C:/Workspace/FW_Platform2_5/trunk/ProductModules/PM_Library\LIB_UTilities.c **** 
1207:C:/Workspace/FW_Platform2_5/trunk/ProductModules/PM_Library\LIB_UTilities.c **** 	return resVal;
1208:C:/Workspace/FW_Platform2_5/trunk/ProductModules/PM_Library\LIB_UTilities.c **** }
1209:C:/Workspace/FW_Platform2_5/trunk/ProductModules/PM_Library\LIB_UTilities.c **** 
1210:C:/Workspace/FW_Platform2_5/trunk/ProductModules/PM_Library\LIB_UTilities.c **** /* Local functions */
1211:C:/Workspace/FW_Platform2_5/trunk/ProductModules/PM_Library\LIB_UTilities.c **** /*!
1212:C:/Workspace/FW_Platform2_5/trunk/ProductModules/PM_Library\LIB_UTilities.c **** 
1213:C:/Workspace/FW_Platform2_5/trunk/ProductModules/PM_Library\LIB_UTilities.c **** \brief mSetting Search Function
1214:C:/Workspace/FW_Platform2_5/trunk/ProductModules/PM_Library\LIB_UTilities.c **** \param[in,out]
1215:C:/Workspace/FW_Platform2_5/trunk/ProductModules/PM_Library\LIB_UTilities.c **** \return
1216:C:/Workspace/FW_Platform2_5/trunk/ProductModules/PM_Library\LIB_UTilities.c **** \date
1217:C:/Workspace/FW_Platform2_5/trunk/ProductModules/PM_Library\LIB_UTilities.c **** \author
1218:C:/Workspace/FW_Platform2_5/trunk/ProductModules/PM_Library\LIB_UTilities.c **** \version
1219:C:/Workspace/FW_Platform2_5/trunk/ProductModules/PM_Library\LIB_UTilities.c **** \ingroup
1220:C:/Workspace/FW_Platform2_5/trunk/ProductModules/PM_Library\LIB_UTilities.c **** \attention
1221:C:/Workspace/FW_Platform2_5/trunk/ProductModules/PM_Library\LIB_UTilities.c **** \warning
1222:C:/Workspace/FW_Platform2_5/trunk/ProductModules/PM_Library\LIB_UTilities.c **** */
1223:C:/Workspace/FW_Platform2_5/trunk/ProductModules/PM_Library\LIB_UTilities.c **** static uint8_t GetSettingStartAddress (uint16_t* pdataStartAddr, uint8_t SFIndex, uint16_t** pmSett
1224:C:/Workspace/FW_Platform2_5/trunk/ProductModules/PM_Library\LIB_UTilities.c **** {
1225:C:/Workspace/FW_Platform2_5/trunk/ProductModules/PM_Library\LIB_UTilities.c **** 	uint16_t * pmSettingAddr2=0; /* mSetting-i pointer */
1226:C:/Workspace/FW_Platform2_5/trunk/ProductModules/PM_Library\LIB_UTilities.c **** 	uint16_t * pMappIndex=0;
1227:C:/Workspace/FW_Platform2_5/trunk/ProductModules/PM_Library\LIB_UTilities.c **** 	if ( SFIndex == 0 )
 659                             		.loc 1 1227 0
 660 0000 5B 1E                   		movu.B	r1, r14
 661 0002 61 0E                   		cmp	#0, r14
 662 0004 FB 12 00 00 00 00       		mov.L	#_Eeprom, r1
 663                             	.LVL77:
 664 000a 20 35                   		beq	.L63
1228:C:/Workspace/FW_Platform2_5/trunk/ProductModules/PM_Library\LIB_UTilities.c **** 	{
1229:C:/Workspace/FW_Platform2_5/trunk/ProductModules/PM_Library\LIB_UTilities.c **** 		/* Main SF selected. */
1230:C:/Workspace/FW_Platform2_5/trunk/ProductModules/PM_Library\LIB_UTilities.c **** 		*pmSettingAddr = pdataStartAddr;
1231:C:/Workspace/FW_Platform2_5/trunk/ProductModules/PM_Library\LIB_UTilities.c **** 	}
1232:C:/Workspace/FW_Platform2_5/trunk/ProductModules/PM_Library\LIB_UTilities.c **** 	else
1233:C:/Workspace/FW_Platform2_5/trunk/ProductModules/PM_Library\LIB_UTilities.c **** 	{
1234:C:/Workspace/FW_Platform2_5/trunk/ProductModules/PM_Library\LIB_UTilities.c **** 		/* get mSetting1 pointer field */
1235:C:/Workspace/FW_Platform2_5/trunk/ProductModules/PM_Library\LIB_UTilities.c **** 		pMappIndex = (uint16_t *)(*(SF_PTR_MAP_LENGTH + pdataStartAddr) + pdataStartAddr);
 665                             		.loc 1 1235 0
 666 000c B9 99                   		movu.W	14[r1], r1
 667 000e 4B 11                   		add	r1, r1
 668 0010 70 15 00 00 00 00       		add	#_Eeprom, r1, r5
 669                             	.LVL78:
1236:C:/Workspace/FW_Platform2_5/trunk/ProductModules/PM_Library\LIB_UTilities.c **** 		/* get mSetting-i pointer field */
1237:C:/Workspace/FW_Platform2_5/trunk/ProductModules/PM_Library\LIB_UTilities.c **** 		pMappIndex += (SFIndex - 1);
 670                             		.loc 1 1237 0
 671 0016 71 E1 FF                		add	#-1, r14, r1
1238:C:/Workspace/FW_Platform2_5/trunk/ProductModules/PM_Library\LIB_UTilities.c **** 
1239:C:/Workspace/FW_Platform2_5/trunk/ProductModules/PM_Library\LIB_UTilities.c **** 		/* test mSetting pointer field   */
1240:C:/Workspace/FW_Platform2_5/trunk/ProductModules/PM_Library\LIB_UTilities.c **** 		if(*pMappIndex == 0xFFFF)
 672                             		.loc 1 1240 0
 673 0019 4B 11                   		add	r1, r1
 674 001b 4B 51                   		add	r5, r1
 675 001d 5C 11                   		movu.W	[r1], r1
 676 001f 77 01 FF FF 00          		cmp	#0xffff, r1
 677 0024 20 15                   		beq	.L68
1241:C:/Workspace/FW_Platform2_5/trunk/ProductModules/PM_Library\LIB_UTilities.c **** 		{
1242:C:/Workspace/FW_Platform2_5/trunk/ProductModules/PM_Library\LIB_UTilities.c **** 			return SF_LDR_ERR_NO_MAPPINDEX;
1243:C:/Workspace/FW_Platform2_5/trunk/ProductModules/PM_Library\LIB_UTilities.c **** 		}
1244:C:/Workspace/FW_Platform2_5/trunk/ProductModules/PM_Library\LIB_UTilities.c **** 
1245:C:/Workspace/FW_Platform2_5/trunk/ProductModules/PM_Library\LIB_UTilities.c **** 		/* mSetting ponter */
1246:C:/Workspace/FW_Platform2_5/trunk/ProductModules/PM_Library\LIB_UTilities.c **** 		*pmSettingAddr = (uint16_t *) (*pMappIndex + pdataStartAddr);
 678                             		.loc 1 1246 0
 679 0026 4B 11                   		add	r1, r1
 680 0028 70 11 00 00 00 00       		add	#_Eeprom, r1
 681                             	.LVL79:
 682 002e 2E 11                   		bra	.L63
 683                             	.LVL80:
 684                             	.L70:
 685 0030 04 00 00 00             		bra	_ExtendedBasicLoader.part.0
 686                             	.LVL81:
 687                             	.L65:
 688                             	.LBE24:
 689                             	.LBE23:
 690                             	.LBB26:
 691                             	.LBB27:
 613:C:/Workspace/FW_Platform2_5/trunk/ProductModules/PM_Library\LIB_UTilities.c **** 		return BSLDR_ERR_INVALID_DISPL;
 692                             		.loc 1 613 0
 693 0034 FB 16 82                		mov	#0xffffff82, r1
 694                             	.LVL82:
 695 0037 2E 05                   		bra	.L64
 696                             	.LVL83:
 697                             	.L68:
 698                             	.LBE27:
 699                             	.LBE26:
 700                             	.LBB29:
 701                             	.LBB25:
1242:C:/Workspace/FW_Platform2_5/trunk/ProductModules/PM_Library\LIB_UTilities.c **** 			return SF_LDR_ERR_NO_MAPPINDEX;
 702                             		.loc 1 1242 0
 703 0039 66 81                   		mov	#8, r1
 704 003b 03                      		.balign 2,3,1
 705                             	.L64:
 706                             	.LVL84:
 707                             	.LBE25:
 708                             	.LBE29:
 714:C:/Workspace/FW_Platform2_5/trunk/ProductModules/PM_Library\LIB_UTilities.c **** 	return errorSFCode;
 709                             		.loc 1 714 0
 710 003c 5B 11                   		movu.B	r1, r1
 711 003e 02                      		rts
 712                             	.LVL85:
 713                             	.L63:
 714                             	.LBB30:
 715                             	.LBB28:
 606:C:/Workspace/FW_Platform2_5/trunk/ProductModules/PM_Library\LIB_UTilities.c **** 	if (0xFF == displacement)
 716                             		.loc 1 606 0
 717 003f 5B 3E                   		movu.B	r3, r14
 718 0041 75 5E FF                		cmp	#0xff, r14
 719 0044 21 EC                   		bne	.L70
 720 0046 2E EE                   		bra	.L65
 721                             	.LBE28:
 722                             	.LBE30:
 723                             	.LFE12:
 725                             		.section	.text.LIB_CAL_GetCalibData,"ax",@progbits
 726                             		.global	_LIB_CAL_GetCalibData
 728                             	_LIB_CAL_GetCalibData:
 729                             	.LFB13:
 760:C:/Workspace/FW_Platform2_5/trunk/ProductModules/PM_Library\LIB_UTilities.c **** {
 730                             		.loc 1 760 0
 731                             	.LVL86:
 836:C:/Workspace/FW_Platform2_5/trunk/ProductModules/PM_Library\LIB_UTilities.c **** }
 732                             		.loc 1 836 0
 733 0000 75 41 89                		mov.L	#0x89, r1
 734                             	.LVL87:
 735 0003 02                      		rts
 736                             	.LFE13:
 738                             		.section	.text.LIB_ChkComputation,"ax",@progbits
 739                             		.global	_LIB_ChkComputation
 741                             	_LIB_ChkComputation:
 742                             	.LFB14:
 858:C:/Workspace/FW_Platform2_5/trunk/ProductModules/PM_Library\LIB_UTilities.c **** {
 743                             		.loc 1 858 0
 744                             	.LVL88:
 863:C:/Workspace/FW_Platform2_5/trunk/ProductModules/PM_Library\LIB_UTilities.c **** 	chk = seed;
 745                             		.loc 1 863 0
 746 0000 5B 33                   		movu.B	r3, r3
 747                             	.LVL89:
 859:C:/Workspace/FW_Platform2_5/trunk/ProductModules/PM_Library\LIB_UTilities.c **** 	uint8_t  *_pdata=pdata;
 748                             		.loc 1 859 0
 749 0002 EF 2E                   		mov.L	r2, r14
 865:C:/Workspace/FW_Platform2_5/trunk/ProductModules/PM_Library\LIB_UTilities.c **** 	for(i=0; i<len; i++)
 750                             		.loc 1 865 0
 751 0004 5F 11                   		movu.W	r1, r1
 752 0006 2E 08                   		bra	.L73
 753                             	.LVL90:
 754                             	.L74:
 867:C:/Workspace/FW_Platform2_5/trunk/ProductModules/PM_Library\LIB_UTilities.c **** 		chk+=*_pdata;
 755                             		.loc 1 867 0 discriminator 2
 756 0008 FD 38 E4                		movu.B	[r14+], r4
 757                             	.LVL91:
 758 000b 4B 43                   		add	r4, r3
 759                             	.LVL92:
 760 000d 03                      		.balign 2,3,2
 761                             	.L73:
 865:C:/Workspace/FW_Platform2_5/trunk/ProductModules/PM_Library\LIB_UTilities.c **** 	for(i=0; i<len; i++)
 762                             		.loc 1 865 0 discriminator 1
 763 000e FF 04 2E                		sub	r2, r14, r4
 764 0011 5F 44                   		movu.W	r4, r4
 765 0013 47 41                   		cmp	r4, r1
 766 0015 24 F3                   		bgtu	.L74
 872:C:/Workspace/FW_Platform2_5/trunk/ProductModules/PM_Library\LIB_UTilities.c **** }
 767                             		.loc 1 872 0
 768 0017 5F 31                   		movu.W	r3, r1
 769                             	.LVL93:
 770 0019 02                      		rts
 771                             	.LFE14:
 773                             		.section	.text.SFBasicLoaderPointer,"ax",@progbits
 774                             		.global	_SFBasicLoaderPointer
 776                             	_SFBasicLoaderPointer:
 777                             	.LFB15:
 900:C:/Workspace/FW_Platform2_5/trunk/ProductModules/PM_Library\LIB_UTilities.c **** {
 778                             		.loc 1 900 0
 908:C:/Workspace/FW_Platform2_5/trunk/ProductModules/PM_Library\LIB_UTilities.c ****   if (0xFF == displacement)
 779                             		.loc 1 908 0
 780 0000 5B 2F                   		movu.B	r2, r15
 781 0002 75 5F FF                		cmp	#0xff, r15
 782 0005 20 7A                   		beq	.L81
 918:C:/Workspace/FW_Platform2_5/trunk/ProductModules/PM_Library\LIB_UTilities.c ****   if (((uint8_t*)NULL_POINTER == pPointerAddr) || ((uint8_t*)INVALID_POINTER == pPointerAddr))
 783                             		.loc 1 918 0
 784 0007 61 01                   		cmp	#0, r1
 785 0009 20 7C                   		beq	.L83
 918:C:/Workspace/FW_Platform2_5/trunk/ProductModules/PM_Library\LIB_UTilities.c ****   if (((uint8_t*)NULL_POINTER == pPointerAddr) || ((uint8_t*)INVALID_POINTER == pPointerAddr))
 786                             		.loc 1 918 0 is_stmt 0 discriminator 1
 787 000b 77 01 FF FF 00          		cmp	#0xffff, r1
 788 0010 20 75                   		beq	.L83
 900:C:/Workspace/FW_Platform2_5/trunk/ProductModules/PM_Library\LIB_UTilities.c **** {
 789                             		.loc 1 900 0 is_stmt 1
 790 0012 6E 7A                   		pushm	r7-r10
 791                             	.LCFI4:
 923:C:/Workspace/FW_Platform2_5/trunk/ProductModules/PM_Library\LIB_UTilities.c ****   nExtraPointerWords = *pPointerAddr;
 792                             		.loc 1 923 0
 793 0014 CC 15                   		mov.B	[r1], r5
 925:C:/Workspace/FW_Platform2_5/trunk/ProductModules/PM_Library\LIB_UTilities.c ****   if (nExtraPointerWords > N_MAX_EXTRAPTR_WORDS)
 794                             		.loc 1 925 0
 795 0016 CF 57                   		mov.B	r5, r7
 796 0018 61 07                   		cmp	#0, r7
 797 001a 29 6F                   		blt	.L84
 932:C:/Workspace/FW_Platform2_5/trunk/ProductModules/PM_Library\LIB_UTilities.c ****   for (i = 1; i < (2 * nExtraPointerWords); i++)
 798                             		.loc 1 932 0
 799 001c 5B 55                   		movu.B	r5, r5
 800 001e 4B 55                   		add	r5, r5
 801 0020 66 14                   		mov	#1, r4
 802 0022 66 0E                   		mov	#0, r14
 935:C:/Workspace/FW_Platform2_5/trunk/ProductModules/PM_Library\LIB_UTilities.c ****     if (displacement >= OFFS_B(pPointerAddr, i))
 803                             		.loc 1 935 0
 804 0024 EF F7                   		mov.L	r15, r7
 805 0026 2E 10                   		bra	.L77
 806                             	.L79:
 807 0028 FE CF 1A                		movu.B	[r15,r1], r10
 808 002b 47 A7                   		cmp	r10, r7
 809 002d 23 07                   		bltu	.L78
 937:C:/Workspace/FW_Platform2_5/trunk/ProductModules/PM_Library\LIB_UTilities.c ****       nPage += 0x0100U;
 810                             		.loc 1 937 0
 811 002f 72 EE 00 01             		add	#0x100, r14
 812 0033 03                      		.balign 2,3,1
 813                             	.L78:
 932:C:/Workspace/FW_Platform2_5/trunk/ProductModules/PM_Library\LIB_UTilities.c ****   for (i = 1; i < (2 * nExtraPointerWords); i++)
 814                             		.loc 1 932 0
 815 0034 62 14                   		add	#1, r4
 816                             		.balign 2,3,1
 817                             	.L77:
 932:C:/Workspace/FW_Platform2_5/trunk/ProductModules/PM_Library\LIB_UTilities.c ****   for (i = 1; i < (2 * nExtraPointerWords); i++)
 818                             		.loc 1 932 0 is_stmt 0 discriminator 1
 819 0036 5B 4F                   		movu.B	r4, r15
 820 0038 47 5F                   		cmp	r5, r15
 821 003a 29 EE                   		blt	.L79
 942:C:/Workspace/FW_Platform2_5/trunk/ProductModules/PM_Library\LIB_UTilities.c ****   pPointerAddr += (2 * nExtraPointerWords); 
 822                             		.loc 1 942 0 is_stmt 1
 823 003c 4B 51                   		add	r5, r1
 945:C:/Workspace/FW_Platform2_5/trunk/ProductModules/PM_Library\LIB_UTilities.c ****    ui16DisplNum = (uint16_t)((2*(uint8_t)(*pPointerAddr))-1);
 824                             		.loc 1 945 0
 825 003e 58 15                   		movu.B	[r1], r5
 826 0040 4B 55                   		add	r5, r5
 827 0042 71 54 FF                		add	#-1, r5, r4
 948:C:/Workspace/FW_Platform2_5/trunk/ProductModules/PM_Library\LIB_UTilities.c ****    pData2 =pPointerAddr+ui16DisplNum;
 828                             		.loc 1 948 0
 829 0045 5F 4F                   		movu.W	r4, r15
 830 0047 4B 1F                   		add	r1, r15
 949:C:/Workspace/FW_Platform2_5/trunk/ProductModules/PM_Library\LIB_UTilities.c ****    if (*pData2 == *(pData2-1)) 
 831                             		.loc 1 949 0
 832 0049 58 F7                   		movu.B	[r15], r7
 833 004b 71 FA FF                		add	#-1, r15, r10
 834 004e 44 A7                   		cmp	[r10].UB, r7
 835 0050 21 06                   		bne	.L80
 951:C:/Workspace/FW_Platform2_5/trunk/ProductModules/PM_Library\LIB_UTilities.c ****       ui16DisplNum -=1;
 836                             		.loc 1 951 0
 837 0052 71 54 FE                		add	#-2, r5, r4
 838 0055 03                      		.balign 2,3,1
 839                             	.L80:
 954:C:/Workspace/FW_Platform2_5/trunk/ProductModules/PM_Library\LIB_UTilities.c ****     if (displacement >= ui16DisplNum)
 840                             		.loc 1 954 0
 841 0056 5B 22                   		movu.B	r2, r2
 842 0058 5F 44                   		movu.W	r4, r4
 843 005a 47 42                   		cmp	r4, r2
 844 005c 22 31                   		bgeu	.L85
 964:C:/Workspace/FW_Platform2_5/trunk/ProductModules/PM_Library\LIB_UTilities.c ****   pDataOut->DataLenght = (uint8_t)( *( pPointerAddr + displacement + 1 ) - *( pPointerAddr + displa
 845                             		.loc 1 964 0
 846 005e 4B 12                   		add	r1, r2
 847 0060 88 2D                   		mov.B	1[r2], r5
 848 0062 CC 24                   		mov.B	[r2], r4
 965:C:/Workspace/FW_Platform2_5/trunk/ProductModules/PM_Library\LIB_UTilities.c ****   pDataOut->Data = pPointerAddr + (2 * (*(pPointerAddr + displacement) + nPage));
 849                             		.loc 1 965 0
 850 0064 5F EE                   		movu.W	r14, r14
 964:C:/Workspace/FW_Platform2_5/trunk/ProductModules/PM_Library\LIB_UTilities.c ****   pDataOut->DataLenght = (uint8_t)( *( pPointerAddr + displacement + 1 ) - *( pPointerAddr + displa
 851                             		.loc 1 964 0
 852 0066 FF 04 45                		sub	r4, r5, r4
 853 0069 81 34                   		mov.B	r4, 4[r3]
 965:C:/Workspace/FW_Platform2_5/trunk/ProductModules/PM_Library\LIB_UTilities.c ****   pDataOut->Data = pPointerAddr + (2 * (*(pPointerAddr + displacement) + nPage));
 854                             		.loc 1 965 0
 855 006b 58 22                   		movu.B	[r2], r2
 966:C:/Workspace/FW_Platform2_5/trunk/ProductModules/PM_Library\LIB_UTilities.c ****   if (0 == pDataOut->DataLenght)
 856                             		.loc 1 966 0
 857 006d 5B 44                   		movu.B	r4, r4
 965:C:/Workspace/FW_Platform2_5/trunk/ProductModules/PM_Library\LIB_UTilities.c ****   pDataOut->Data = pPointerAddr + (2 * (*(pPointerAddr + displacement) + nPage));
 858                             		.loc 1 965 0
 859 006f 4B 2E                   		add	r2, r14
 860 0071 4B EE                   		add	r14, r14
 861 0073 4B E1                   		add	r14, r1
 862 0075 E3 31                   		mov.L	r1, [r3]
 966:C:/Workspace/FW_Platform2_5/trunk/ProductModules/PM_Library\LIB_UTilities.c ****   if (0 == pDataOut->DataLenght)
 863                             		.loc 1 966 0
 864 0077 61 04                   		cmp	#0, r4
 865 0079 21 18                   		bne	.L86
 968:C:/Workspace/FW_Platform2_5/trunk/ProductModules/PM_Library\LIB_UTilities.c ****     return SF_LDR_WRN_LENGHT;
 866                             		.loc 1 968 0
 867 007b 66 71                   		mov	#7, r1
 868 007d 2E 17                   		bra	.L76
 869                             	.L81:
 870                             	.LCFI5:
 914:C:/Workspace/FW_Platform2_5/trunk/ProductModules/PM_Library\LIB_UTilities.c ****     return SF_LDR_ERR_INVALID_DISPL;
 871                             		.loc 1 914 0
 872 007f 66 11                   		mov	#1, r1
 873 0081 03                      		.balign 2,3,1
 874                             	.L88:
 973:C:/Workspace/FW_Platform2_5/trunk/ProductModules/PM_Library\LIB_UTilities.c **** }
 875                             		.loc 1 973 0
 876 0082 64 71                   		and	#7, r1
 877 0084 02                      		rts
 878                             	.L83:
 920:C:/Workspace/FW_Platform2_5/trunk/ProductModules/PM_Library\LIB_UTilities.c ****     return SF_LDR_ERR_INVALID_POINTER;
 879                             		.loc 1 920 0
 880 0085 66 21                   		mov	#2, r1
 881 0087 2E FB                   		bra	.L88
 882                             	.L84:
 883                             	.LCFI6:
 927:C:/Workspace/FW_Platform2_5/trunk/ProductModules/PM_Library\LIB_UTilities.c ****     return SF_LDR_ERR_OVFL_EXTRAPTR;
 884                             		.loc 1 927 0
 885 0089 66 31                   		mov	#3, r1
 886 008b 2E 09                   		bra	.L76
 887                             	.L85:
 956:C:/Workspace/FW_Platform2_5/trunk/ProductModules/PM_Library\LIB_UTilities.c ****       return SF_LDR_ERR_ENDOFPOINTER;
 888                             		.loc 1 956 0
 889 008d 66 51                   		mov	#5, r1
 890 008f 2E 05                   		bra	.L76
 891                             	.L86:
 971:C:/Workspace/FW_Platform2_5/trunk/ProductModules/PM_Library\LIB_UTilities.c ****   return SF_OK;
 892                             		.loc 1 971 0
 893 0091 66 01                   		mov	#0, r1
 894 0093 03                      		.balign 2,3,1
 895                             	.L76:
 973:C:/Workspace/FW_Platform2_5/trunk/ProductModules/PM_Library\LIB_UTilities.c **** }
 896                             		.loc 1 973 0
 897 0094 64 71                   		and	#7, r1
 898 0096 3F 7A 04                		rtsd	#16, r7-r10
 899                             	.LFE15:
 901 0099 03                      		.section	.text.SFGetDisplacementNumber,"ax",@progbits
 902                             		.global	_SFGetDisplacementNumber
 904                             	_SFGetDisplacementNumber:
 905                             	.LFB16:
 999:C:/Workspace/FW_Platform2_5/trunk/ProductModules/PM_Library\LIB_UTilities.c **** {
 906                             		.loc 1 999 0
 907                             	.LVL94:
1005:C:/Workspace/FW_Platform2_5/trunk/ProductModules/PM_Library\LIB_UTilities.c ****     if (((uint8_t*)NULL_POINTER == pPointerAddr))
 908                             		.loc 1 1005 0
 909 0000 61 01                   		cmp	#0, r1
 910 0002 20 3A                   		beq	.L93
1010:C:/Workspace/FW_Platform2_5/trunk/ProductModules/PM_Library\LIB_UTilities.c ****     nExtraPointerWords = *pPointerAddr;
 911                             		.loc 1 1010 0
 912 0004 CC 1E                   		mov.B	[r1], r14
 913                             	.LVL95:
1012:C:/Workspace/FW_Platform2_5/trunk/ProductModules/PM_Library\LIB_UTilities.c ****     if (nExtraPointerWords > N_MAX_EXTRAPTR_WORDS)
 914                             		.loc 1 1012 0
 915 0006 CF E4                   		mov.B	r14, r4
 916 0008 61 04                   		cmp	#0, r4
 917 000a 29 36                   		blt	.L94
1019:C:/Workspace/FW_Platform2_5/trunk/ProductModules/PM_Library\LIB_UTilities.c ****     pPointerAddr += (2 * nExtraPointerWords); 
 918                             		.loc 1 1019 0
 919 000c 5B EE                   		movu.B	r14, r14
 920 000e 4B EE                   		add	r14, r14
 921                             	.LVL96:
 922 0010 4B E1                   		add	r14, r1
 923                             	.LVL97:
1022:C:/Workspace/FW_Platform2_5/trunk/ProductModules/PM_Library\LIB_UTilities.c ****     ui16DisplNum = (uint16_t)((2*(uint8_t)(*pPointerAddr)) - 1);
 924                             		.loc 1 1022 0
 925 0012 58 14                   		movu.B	[r1], r4
 926                             	.LVL98:
 927 0014 4B 44                   		add	r4, r4
 928 0016 71 4E FF                		add	#-1, r4, r14
 929                             	.LVL99:
1025:C:/Workspace/FW_Platform2_5/trunk/ProductModules/PM_Library\LIB_UTilities.c ****     pData2 =pPointerAddr+ui16DisplNum;
 930                             		.loc 1 1025 0
 931 0019 5F E3                   		movu.W	r14, r3
 932 001b 4B 31                   		add	r3, r1
 933                             	.LVL100:
1026:C:/Workspace/FW_Platform2_5/trunk/ProductModules/PM_Library\LIB_UTilities.c ****     if (*pData2 == *(pData2-1)) 
 934                             		.loc 1 1026 0
 935 001d 71 13 FF                		add	#-1, r1, r3
 936 0020 58 11                   		movu.B	[r1], r1
 937                             	.LVL101:
 938 0022 44 31                   		cmp	[r3].UB, r1
 939 0024 21 06                   		bne	.L91
1028:C:/Workspace/FW_Platform2_5/trunk/ProductModules/PM_Library\LIB_UTilities.c ****         ui16DisplNum -=1;
 940                             		.loc 1 1028 0
 941 0026 71 4E FE                		add	#-2, r4, r14
 942                             	.LVL102:
 943 0029 03                      		.balign 2,3,1
 944                             	.L91:
1031:C:/Workspace/FW_Platform2_5/trunk/ProductModules/PM_Library\LIB_UTilities.c ****     if (ui16DisplNum < 256) {
 945                             		.loc 1 1031 0
 946 002a 5F E4                   		movu.W	r14, r4
 947 002c 75 54 FF                		cmp	#0xff, r4
 948 002f 24 06                   		bgtu	.L92
1032:C:/Workspace/FW_Platform2_5/trunk/ProductModules/PM_Library\LIB_UTilities.c ****         *pDisplNum = (uint8_t) ui16DisplNum;  
 949                             		.loc 1 1032 0
 950 0031 C3 2E                   		mov.B	r14, [r2]
 951 0033 2E 05                   		bra	.L95
 952                             	.L92:
1036:C:/Workspace/FW_Platform2_5/trunk/ProductModules/PM_Library\LIB_UTilities.c **** 		*pDisplNum = 255;
 953                             		.loc 1 1036 0
 954 0035 F8 24 FF                		mov.B	#-1, [r2]
 955                             		.balign 2,3,1
 956                             	.L95:
1039:C:/Workspace/FW_Platform2_5/trunk/ProductModules/PM_Library\LIB_UTilities.c ****     return SF_OK;
 957                             		.loc 1 1039 0
 958 0038 66 01                   		mov	#0, r1
 959 003a 2E 08                   		bra	.L90
 960                             	.LVL103:
 961                             	.L93:
1007:C:/Workspace/FW_Platform2_5/trunk/ProductModules/PM_Library\LIB_UTilities.c ****         return SF_LDR_ERR_INVALID_POINTER;
 962                             		.loc 1 1007 0
 963 003c 66 21                   		mov	#2, r1
 964                             	.LVL104:
 965 003e 2E 04                   		bra	.L90
 966                             	.LVL105:
 967                             	.L94:
1014:C:/Workspace/FW_Platform2_5/trunk/ProductModules/PM_Library\LIB_UTilities.c ****         return SF_LDR_ERR_OVFL_EXTRAPTR;
 968                             		.loc 1 1014 0
 969 0040 66 31                   		mov	#3, r1
 970                             	.LVL106:
 971                             		.balign 2,3,1
 972                             	.L90:
1040:C:/Workspace/FW_Platform2_5/trunk/ProductModules/PM_Library\LIB_UTilities.c **** }
 973                             		.loc 1 1040 0
 974 0042 64 31                   		and	#3, r1
 975 0044 02                      		rts
 976                             	.LFE16:
 978 0045 03                      		.section	.text.LIB_SEF_GetFaultPriority,"ax",@progbits
 979                             		.global	_LIB_SEF_GetFaultPriority
 981                             	_LIB_SEF_GetFaultPriority:
 982                             	.LFB17:
1067:C:/Workspace/FW_Platform2_5/trunk/ProductModules/PM_Library\LIB_UTilities.c **** {
 983                             		.loc 1 1067 0
 984                             	.LVL107:
1127:C:/Workspace/FW_Platform2_5/trunk/ProductModules/PM_Library\LIB_UTilities.c **** }
 985                             		.loc 1 1127 0
 986 0000 66 61                   		mov.L	#6, r1
 987                             	.LVL108:
 988 0002 02                      		rts
 989                             	.LFE17:
 991                             		.section	.text.LIB_SEF_FaultPriorityField,"ax",@progbits
 992                             		.global	_LIB_SEF_FaultPriorityField
 994                             	_LIB_SEF_FaultPriorityField:
 995                             	.LFB18:
1146:C:/Workspace/FW_Platform2_5/trunk/ProductModules/PM_Library\LIB_UTilities.c **** {
 996                             		.loc 1 1146 0
 997                             	.LVL109:
1148:C:/Workspace/FW_Platform2_5/trunk/ProductModules/PM_Library\LIB_UTilities.c **** }
 998                             		.loc 1 1148 0
 999 0000 75 21 7F                		and	#0x7f, r1
 1000                             	.LVL110:
 1001 0003 02                      		rts
 1002                             	.LFE18:
 1004                             		.section	.text.LIB_SEF_IsFaultToDisplayON,"ax",@progbits
 1005                             		.global	_LIB_SEF_IsFaultToDisplayON
 1007                             	_LIB_SEF_IsFaultToDisplayON:
 1008                             	.LFB19:
1171:C:/Workspace/FW_Platform2_5/trunk/ProductModules/PM_Library\LIB_UTilities.c **** {
 1009                             		.loc 1 1171 0
 1010                             	.LVL111:
1172:C:/Workspace/FW_Platform2_5/trunk/ProductModules/PM_Library\LIB_UTilities.c **** 	return (uint8_t) ((faultPrio & ((uint8_t) SF_FAULT_DISPL_MASK)) != 0);
 1011                             		.loc 1 1172 0
 1012 0000 CF 11                   		mov.B	r1, r1
1173:C:/Workspace/FW_Platform2_5/trunk/ProductModules/PM_Library\LIB_UTilities.c **** }
 1013                             		.loc 1 1173 0
 1014 0002 69 F1                   		shlr	#31, r1
 1015                             	.LVL112:
 1016 0004 02                      		rts
 1017                             	.LFE19:
 1019                             		.section	.text.LIB_SEF_GetFaultToDisplay,"ax",@progbits
 1020                             		.global	_LIB_SEF_GetFaultToDisplay
 1022                             	_LIB_SEF_GetFaultToDisplay:
 1023                             	.LFB20:
1198:C:/Workspace/FW_Platform2_5/trunk/ProductModules/PM_Library\LIB_UTilities.c **** {
 1024                             		.loc 1 1198 0
 1025                             	.LVL113:
1208:C:/Workspace/FW_Platform2_5/trunk/ProductModules/PM_Library\LIB_UTilities.c **** }
 1026                             		.loc 1 1208 0
 1027 0000 66 01                   		mov.L	#0, r1
 1028                             	.LVL114:
 1029 0002 02                      		rts
 1030                             	.LFE20:
 1032                             		.section	.bss.CompChkState.9353,"aw",@nobits
 1033                             		.balign 4
 1036                             	_CompChkState.9353:
 1037 0000 00 00 00 00             		.zero	4
 1038                             		.section	.bss.PartialChecksum.9348,"aw",@nobits
 1039                             		.balign 2
 1042                             	_PartialChecksum.9348:
 1043 0000 00 00                   		.zero	2
 1044                             		.section	.bss.pData.9354,"aw",@nobits
 1045                             		.balign 4
 1048                             	_pData.9354:
 1049 0000 00 00 00 00             		.zero	4
 1306                             	.Letext0:
 1307                             		.file 2 "C:\\Workspace\\FW_Platform2_5\\trunk\\HAL\\HAL_General/StandardTypes.h"
 1308                             		.file 3 "C:\\Workspace\\FW_Platform2_5\\trunk\\HAL\\RN_RX200/RN_RX200_cfg.h"
 1309                             		.file 4 "C:/Workspace/FW_Platform2_5/trunk/ProductModules/PM_Library/LIB_Utilities.h"
