   1                             		.file	"LIB_TaskMonitoring.c"
   2                             		.section P,"ax"
   3                             	.Ltext0:
   4                             		.section	.text.LIB_TaskMonitorInit,"ax",@progbits
   5                             		.global	_LIB_TaskMonitorInit
   7                             	_LIB_TaskMonitorInit:
   8                             	.LFB0:
   9                             		.file 1 "C:/Workspace/FW_Platform2_5/trunk/PlatformLibrary/LIB_SecurityCheck/LIB_TaskMonitoring.c"
   1:C:/Workspace/FW_Platform2_5/trunk/PlatformLibrary/LIB_SecurityCheck\LIB_TaskMonitoring.c **** /*
   2:C:/Workspace/FW_Platform2_5/trunk/PlatformLibrary/LIB_SecurityCheck\LIB_TaskMonitoring.c **** Copyright (c) 2004-2005, Indesit Company, I.D.D..
   3:C:/Workspace/FW_Platform2_5/trunk/PlatformLibrary/LIB_SecurityCheck\LIB_TaskMonitoring.c **** Tutti i diritti sono riservati. All rights reserved.
   4:C:/Workspace/FW_Platform2_5/trunk/PlatformLibrary/LIB_SecurityCheck\LIB_TaskMonitoring.c **** */
   5:C:/Workspace/FW_Platform2_5/trunk/PlatformLibrary/LIB_SecurityCheck\LIB_TaskMonitoring.c **** 
   6:C:/Workspace/FW_Platform2_5/trunk/PlatformLibrary/LIB_SecurityCheck\LIB_TaskMonitoring.c **** /**
   7:C:/Workspace/FW_Platform2_5/trunk/PlatformLibrary/LIB_SecurityCheck\LIB_TaskMonitoring.c **** \n
   8:C:/Workspace/FW_Platform2_5/trunk/PlatformLibrary/LIB_SecurityCheck\LIB_TaskMonitoring.c **** \par		LIB_TaskMonitoring.c
   9:C:/Workspace/FW_Platform2_5/trunk/PlatformLibrary/LIB_SecurityCheck\LIB_TaskMonitoring.c **** \n			Implementation of all functions necessary to achieve the aim.
  10:C:/Workspace/FW_Platform2_5/trunk/PlatformLibrary/LIB_SecurityCheck\LIB_TaskMonitoring.c **** \n
  11:C:/Workspace/FW_Platform2_5/trunk/PlatformLibrary/LIB_SecurityCheck\LIB_TaskMonitoring.c **** \file		LIB_TaskMonitoring.c
  12:C:/Workspace/FW_Platform2_5/trunk/PlatformLibrary/LIB_SecurityCheck\LIB_TaskMonitoring.c **** \ingroup	LIB_TaskMonitor
  13:C:/Workspace/FW_Platform2_5/trunk/PlatformLibrary/LIB_SecurityCheck\LIB_TaskMonitoring.c **** \date		Mar 28, 2011
  14:C:/Workspace/FW_Platform2_5/trunk/PlatformLibrary/LIB_SecurityCheck\LIB_TaskMonitoring.c **** \version	01.00.00
  15:C:/Workspace/FW_Platform2_5/trunk/PlatformLibrary/LIB_SecurityCheck\LIB_TaskMonitoring.c **** \author		stefano.ughi
  16:C:/Workspace/FW_Platform2_5/trunk/PlatformLibrary/LIB_SecurityCheck\LIB_TaskMonitoring.c **** \n
  17:C:/Workspace/FW_Platform2_5/trunk/PlatformLibrary/LIB_SecurityCheck\LIB_TaskMonitoring.c **** \n
  18:C:/Workspace/FW_Platform2_5/trunk/PlatformLibrary/LIB_SecurityCheck\LIB_TaskMonitoring.c **** \Par\b	History:
  19:C:/Workspace/FW_Platform2_5/trunk/PlatformLibrary/LIB_SecurityCheck\LIB_TaskMonitoring.c **** \n
  20:C:/Workspace/FW_Platform2_5/trunk/PlatformLibrary/LIB_SecurityCheck\LIB_TaskMonitoring.c **** \n 		01.00.00
  21:C:/Workspace/FW_Platform2_5/trunk/PlatformLibrary/LIB_SecurityCheck\LIB_TaskMonitoring.c **** \n		Mar 28, 2011
  22:C:/Workspace/FW_Platform2_5/trunk/PlatformLibrary/LIB_SecurityCheck\LIB_TaskMonitoring.c **** \n		stefano.ughi
  23:C:/Workspace/FW_Platform2_5/trunk/PlatformLibrary/LIB_SecurityCheck\LIB_TaskMonitoring.c **** \n		changes
  24:C:/Workspace/FW_Platform2_5/trunk/PlatformLibrary/LIB_SecurityCheck\LIB_TaskMonitoring.c **** \n 			Creation
  25:C:/Workspace/FW_Platform2_5/trunk/PlatformLibrary/LIB_SecurityCheck\LIB_TaskMonitoring.c **** \n
  26:C:/Workspace/FW_Platform2_5/trunk/PlatformLibrary/LIB_SecurityCheck\LIB_TaskMonitoring.c **** \n
  27:C:/Workspace/FW_Platform2_5/trunk/PlatformLibrary/LIB_SecurityCheck\LIB_TaskMonitoring.c **** */
  28:C:/Workspace/FW_Platform2_5/trunk/PlatformLibrary/LIB_SecurityCheck\LIB_TaskMonitoring.c **** #define LIB_TASKMONITORING_C
  29:C:/Workspace/FW_Platform2_5/trunk/PlatformLibrary/LIB_SecurityCheck\LIB_TaskMonitoring.c **** #define MODULE_BODY_CLASSBCHECK
  30:C:/Workspace/FW_Platform2_5/trunk/PlatformLibrary/LIB_SecurityCheck\LIB_TaskMonitoring.c **** /* ******** */
  31:C:/Workspace/FW_Platform2_5/trunk/PlatformLibrary/LIB_SecurityCheck\LIB_TaskMonitoring.c **** /* Includes */
  32:C:/Workspace/FW_Platform2_5/trunk/PlatformLibrary/LIB_SecurityCheck\LIB_TaskMonitoring.c **** /* ******** */
  33:C:/Workspace/FW_Platform2_5/trunk/PlatformLibrary/LIB_SecurityCheck\LIB_TaskMonitoring.c **** 
  34:C:/Workspace/FW_Platform2_5/trunk/PlatformLibrary/LIB_SecurityCheck\LIB_TaskMonitoring.c **** #include "Config.h"
  35:C:/Workspace/FW_Platform2_5/trunk/PlatformLibrary/LIB_SecurityCheck\LIB_TaskMonitoring.c **** #include "LIB_Error.h"
  36:C:/Workspace/FW_Platform2_5/trunk/PlatformLibrary/LIB_SecurityCheck\LIB_TaskMonitoring.c **** #include "MainConfig.h"
  37:C:/Workspace/FW_Platform2_5/trunk/PlatformLibrary/LIB_SecurityCheck\LIB_TaskMonitoring.c **** #include "LIB_TaskMonitoring.h"
  38:C:/Workspace/FW_Platform2_5/trunk/PlatformLibrary/LIB_SecurityCheck\LIB_TaskMonitoring.c **** #include "LIB_ClassBVar.h"
  39:C:/Workspace/FW_Platform2_5/trunk/PlatformLibrary/LIB_SecurityCheck\LIB_TaskMonitoring.c **** #include "LIB_Trace.h"
  40:C:/Workspace/FW_Platform2_5/trunk/PlatformLibrary/LIB_SecurityCheck\LIB_TaskMonitoring.c **** 
  41:C:/Workspace/FW_Platform2_5/trunk/PlatformLibrary/LIB_SecurityCheck\LIB_TaskMonitoring.c **** 
  42:C:/Workspace/FW_Platform2_5/trunk/PlatformLibrary/LIB_SecurityCheck\LIB_TaskMonitoring.c **** 
  43:C:/Workspace/FW_Platform2_5/trunk/PlatformLibrary/LIB_SecurityCheck\LIB_TaskMonitoring.c **** /* ****************** */
  44:C:/Workspace/FW_Platform2_5/trunk/PlatformLibrary/LIB_SecurityCheck\LIB_TaskMonitoring.c **** /* Defines and Macros */
  45:C:/Workspace/FW_Platform2_5/trunk/PlatformLibrary/LIB_SecurityCheck\LIB_TaskMonitoring.c **** /* ****************** */
  46:C:/Workspace/FW_Platform2_5/trunk/PlatformLibrary/LIB_SecurityCheck\LIB_TaskMonitoring.c **** 
  47:C:/Workspace/FW_Platform2_5/trunk/PlatformLibrary/LIB_SecurityCheck\LIB_TaskMonitoring.c **** /** define on checkActTaskError_t variables: task is not activated within the timeout */
  48:C:/Workspace/FW_Platform2_5/trunk/PlatformLibrary/LIB_SecurityCheck\LIB_TaskMonitoring.c **** #define TASK_NOT_ACTIVATED          0
  49:C:/Workspace/FW_Platform2_5/trunk/PlatformLibrary/LIB_SecurityCheck\LIB_TaskMonitoring.c **** /** define on checkActTaskError_t variables: control on task suspended */
  50:C:/Workspace/FW_Platform2_5/trunk/PlatformLibrary/LIB_SecurityCheck\LIB_TaskMonitoring.c **** #define TASK_SUSPENDED              1
  51:C:/Workspace/FW_Platform2_5/trunk/PlatformLibrary/LIB_SecurityCheck\LIB_TaskMonitoring.c **** /** define on checkActTaskError_t variables: task activated but timeout not expired */
  52:C:/Workspace/FW_Platform2_5/trunk/PlatformLibrary/LIB_SecurityCheck\LIB_TaskMonitoring.c **** #define TASK_TIMEOUT_NOT_ELAPSED    2
  53:C:/Workspace/FW_Platform2_5/trunk/PlatformLibrary/LIB_SecurityCheck\LIB_TaskMonitoring.c **** 
  54:C:/Workspace/FW_Platform2_5/trunk/PlatformLibrary/LIB_SecurityCheck\LIB_TaskMonitoring.c **** #if defined(CONFIG_LIB_CLASS_B_PERIODIC_CHECK_STATIC_CONF)
  55:C:/Workspace/FW_Platform2_5/trunk/PlatformLibrary/LIB_SecurityCheck\LIB_TaskMonitoring.c **** #define SET_TASK_TIMEOUT(taskID, value)
  56:C:/Workspace/FW_Platform2_5/trunk/PlatformLibrary/LIB_SecurityCheck\LIB_TaskMonitoring.c **** #define TASK_TIMEOUT(taskID) CheckTasksMaxTimeout[taskID]
  57:C:/Workspace/FW_Platform2_5/trunk/PlatformLibrary/LIB_SecurityCheck\LIB_TaskMonitoring.c **** #else
  58:C:/Workspace/FW_Platform2_5/trunk/PlatformLibrary/LIB_SecurityCheck\LIB_TaskMonitoring.c **** #define SET_TASK_TIMEOUT(taskID, value) CheckTasks[taskID].maxTimeout = (uint8_t)value
  59:C:/Workspace/FW_Platform2_5/trunk/PlatformLibrary/LIB_SecurityCheck\LIB_TaskMonitoring.c **** #define TASK_TIMEOUT(taskID) CheckTasks[taskID].maxTimeout
  60:C:/Workspace/FW_Platform2_5/trunk/PlatformLibrary/LIB_SecurityCheck\LIB_TaskMonitoring.c **** #endif
  61:C:/Workspace/FW_Platform2_5/trunk/PlatformLibrary/LIB_SecurityCheck\LIB_TaskMonitoring.c **** /* *************************** */
  62:C:/Workspace/FW_Platform2_5/trunk/PlatformLibrary/LIB_SecurityCheck\LIB_TaskMonitoring.c **** /* Typedef, Structs and Unions */
  63:C:/Workspace/FW_Platform2_5/trunk/PlatformLibrary/LIB_SecurityCheck\LIB_TaskMonitoring.c **** /* *************************** */
  64:C:/Workspace/FW_Platform2_5/trunk/PlatformLibrary/LIB_SecurityCheck\LIB_TaskMonitoring.c **** 
  65:C:/Workspace/FW_Platform2_5/trunk/PlatformLibrary/LIB_SecurityCheck\LIB_TaskMonitoring.c **** /** typedef returns values of CheckActTask function */
  66:C:/Workspace/FW_Platform2_5/trunk/PlatformLibrary/LIB_SecurityCheck\LIB_TaskMonitoring.c **** typedef uint8_t checkActTaskError_t;
  67:C:/Workspace/FW_Platform2_5/trunk/PlatformLibrary/LIB_SecurityCheck\LIB_TaskMonitoring.c **** 
  68:C:/Workspace/FW_Platform2_5/trunk/PlatformLibrary/LIB_SecurityCheck\LIB_TaskMonitoring.c **** /** structure for the control variables of the tasks subject to monitoring */
  69:C:/Workspace/FW_Platform2_5/trunk/PlatformLibrary/LIB_SecurityCheck\LIB_TaskMonitoring.c **** struct checkTasks_s
  70:C:/Workspace/FW_Platform2_5/trunk/PlatformLibrary/LIB_SecurityCheck\LIB_TaskMonitoring.c **** {
  71:C:/Workspace/FW_Platform2_5/trunk/PlatformLibrary/LIB_SecurityCheck\LIB_TaskMonitoring.c **** 	/** timeout counter */
  72:C:/Workspace/FW_Platform2_5/trunk/PlatformLibrary/LIB_SecurityCheck\LIB_TaskMonitoring.c **** 	uint8_t	timeoutCounter;
  73:C:/Workspace/FW_Platform2_5/trunk/PlatformLibrary/LIB_SecurityCheck\LIB_TaskMonitoring.c **** #if defined (CONFIG_PL_DEBUG)
  74:C:/Workspace/FW_Platform2_5/trunk/PlatformLibrary/LIB_SecurityCheck\LIB_TaskMonitoring.c **** 	uint8_t maxCounter;
  75:C:/Workspace/FW_Platform2_5/trunk/PlatformLibrary/LIB_SecurityCheck\LIB_TaskMonitoring.c **** #endif
  76:C:/Workspace/FW_Platform2_5/trunk/PlatformLibrary/LIB_SecurityCheck\LIB_TaskMonitoring.c **** #if !defined(CONFIG_LIB_CLASS_B_PERIODIC_CHECK_STATIC_CONF)
  77:C:/Workspace/FW_Platform2_5/trunk/PlatformLibrary/LIB_SecurityCheck\LIB_TaskMonitoring.c **** 	uint8_t	maxTimeout;
  78:C:/Workspace/FW_Platform2_5/trunk/PlatformLibrary/LIB_SecurityCheck\LIB_TaskMonitoring.c **** #endif /* #if defined(CONFIG_LIB_CLASS_B_PERIODIC_CHECK_STATIC_CONF) */
  79:C:/Workspace/FW_Platform2_5/trunk/PlatformLibrary/LIB_SecurityCheck\LIB_TaskMonitoring.c **** 	/** flag if '1' the task has been configured */
  80:C:/Workspace/FW_Platform2_5/trunk/PlatformLibrary/LIB_SecurityCheck\LIB_TaskMonitoring.c **** 	uint8_t configDone:1;
  81:C:/Workspace/FW_Platform2_5/trunk/PlatformLibrary/LIB_SecurityCheck\LIB_TaskMonitoring.c **** 	/** flag if '1' the task is active  */
  82:C:/Workspace/FW_Platform2_5/trunk/PlatformLibrary/LIB_SecurityCheck\LIB_TaskMonitoring.c **** 	uint8_t taskActive:1;
  83:C:/Workspace/FW_Platform2_5/trunk/PlatformLibrary/LIB_SecurityCheck\LIB_TaskMonitoring.c **** 	/** flag if '1' task executed before timeout elapsed  */
  84:C:/Workspace/FW_Platform2_5/trunk/PlatformLibrary/LIB_SecurityCheck\LIB_TaskMonitoring.c **** 	uint8_t taskEntered:1;
  85:C:/Workspace/FW_Platform2_5/trunk/PlatformLibrary/LIB_SecurityCheck\LIB_TaskMonitoring.c **** 	/** flag if '1' task executed before timeout elapsed  */
  86:C:/Workspace/FW_Platform2_5/trunk/PlatformLibrary/LIB_SecurityCheck\LIB_TaskMonitoring.c **** 	/* uint8_t	taskExecuted:1; */
  87:C:/Workspace/FW_Platform2_5/trunk/PlatformLibrary/LIB_SecurityCheck\LIB_TaskMonitoring.c **** 	/** flag if '1' task Configured  */
  88:C:/Workspace/FW_Platform2_5/trunk/PlatformLibrary/LIB_SecurityCheck\LIB_TaskMonitoring.c **** 	uint8_t taskConfigured:1;
  89:C:/Workspace/FW_Platform2_5/trunk/PlatformLibrary/LIB_SecurityCheck\LIB_TaskMonitoring.c **** };
  90:C:/Workspace/FW_Platform2_5/trunk/PlatformLibrary/LIB_SecurityCheck\LIB_TaskMonitoring.c **** 
  91:C:/Workspace/FW_Platform2_5/trunk/PlatformLibrary/LIB_SecurityCheck\LIB_TaskMonitoring.c **** typedef struct checkTasks_s checkTasks_t;
  92:C:/Workspace/FW_Platform2_5/trunk/PlatformLibrary/LIB_SecurityCheck\LIB_TaskMonitoring.c **** 
  93:C:/Workspace/FW_Platform2_5/trunk/PlatformLibrary/LIB_SecurityCheck\LIB_TaskMonitoring.c **** /* **************************** */
  94:C:/Workspace/FW_Platform2_5/trunk/PlatformLibrary/LIB_SecurityCheck\LIB_TaskMonitoring.c **** /* Prototype of local functions */
  95:C:/Workspace/FW_Platform2_5/trunk/PlatformLibrary/LIB_SecurityCheck\LIB_TaskMonitoring.c **** /* **************************** */
  96:C:/Workspace/FW_Platform2_5/trunk/PlatformLibrary/LIB_SecurityCheck\LIB_TaskMonitoring.c **** static void LIB_TaskMonitorErrorHandler( uint8_t err );
  97:C:/Workspace/FW_Platform2_5/trunk/PlatformLibrary/LIB_SecurityCheck\LIB_TaskMonitoring.c **** static checkActTaskError_t CheckActTask( uint8_t taskID );
  98:C:/Workspace/FW_Platform2_5/trunk/PlatformLibrary/LIB_SecurityCheck\LIB_TaskMonitoring.c **** 
  99:C:/Workspace/FW_Platform2_5/trunk/PlatformLibrary/LIB_SecurityCheck\LIB_TaskMonitoring.c **** /* ****************** */
 100:C:/Workspace/FW_Platform2_5/trunk/PlatformLibrary/LIB_SecurityCheck\LIB_TaskMonitoring.c **** /* Exported variables */
 101:C:/Workspace/FW_Platform2_5/trunk/PlatformLibrary/LIB_SecurityCheck\LIB_TaskMonitoring.c **** /* ****************** */
 102:C:/Workspace/FW_Platform2_5/trunk/PlatformLibrary/LIB_SecurityCheck\LIB_TaskMonitoring.c **** 
 103:C:/Workspace/FW_Platform2_5/trunk/PlatformLibrary/LIB_SecurityCheck\LIB_TaskMonitoring.c **** /* **************** */
 104:C:/Workspace/FW_Platform2_5/trunk/PlatformLibrary/LIB_SecurityCheck\LIB_TaskMonitoring.c **** /* Global variables */
 105:C:/Workspace/FW_Platform2_5/trunk/PlatformLibrary/LIB_SecurityCheck\LIB_TaskMonitoring.c **** /* **************** */
 106:C:/Workspace/FW_Platform2_5/trunk/PlatformLibrary/LIB_SecurityCheck\LIB_TaskMonitoring.c **** 
 107:C:/Workspace/FW_Platform2_5/trunk/PlatformLibrary/LIB_SecurityCheck\LIB_TaskMonitoring.c **** /** modul's variables */
 108:C:/Workspace/FW_Platform2_5/trunk/PlatformLibrary/LIB_SecurityCheck\LIB_TaskMonitoring.c **** static checkTasks_t CheckTasks[ NUM_TASKS_TO_MONITOR ];
 109:C:/Workspace/FW_Platform2_5/trunk/PlatformLibrary/LIB_SecurityCheck\LIB_TaskMonitoring.c **** static int LIB_TaskMonitorError;
 110:C:/Workspace/FW_Platform2_5/trunk/PlatformLibrary/LIB_SecurityCheck\LIB_TaskMonitoring.c **** 
 111:C:/Workspace/FW_Platform2_5/trunk/PlatformLibrary/LIB_SecurityCheck\LIB_TaskMonitoring.c **** #if defined(CONFIG_LIB_CLASS_B_IRQ_CHECK)
 112:C:/Workspace/FW_Platform2_5/trunk/PlatformLibrary/LIB_SecurityCheck\LIB_TaskMonitoring.c **** 
 113:C:/Workspace/FW_Platform2_5/trunk/PlatformLibrary/LIB_SecurityCheck\LIB_TaskMonitoring.c **** typedef struct irqMonitorStatus_s
 114:C:/Workspace/FW_Platform2_5/trunk/PlatformLibrary/LIB_SecurityCheck\LIB_TaskMonitoring.c **** {
 115:C:/Workspace/FW_Platform2_5/trunk/PlatformLibrary/LIB_SecurityCheck\LIB_TaskMonitoring.c **** 	uint16_t EnterCntr;
 116:C:/Workspace/FW_Platform2_5/trunk/PlatformLibrary/LIB_SecurityCheck\LIB_TaskMonitoring.c **** 	uint16_t ExitCntr;
 117:C:/Workspace/FW_Platform2_5/trunk/PlatformLibrary/LIB_SecurityCheck\LIB_TaskMonitoring.c **** 	uint16_t fltCntr;
 118:C:/Workspace/FW_Platform2_5/trunk/PlatformLibrary/LIB_SecurityCheck\LIB_TaskMonitoring.c **** 	uint16_t maxIntrCntr;
 119:C:/Workspace/FW_Platform2_5/trunk/PlatformLibrary/LIB_SecurityCheck\LIB_TaskMonitoring.c **** } irqMonitorStatus_t;
 120:C:/Workspace/FW_Platform2_5/trunk/PlatformLibrary/LIB_SecurityCheck\LIB_TaskMonitoring.c **** 
 121:C:/Workspace/FW_Platform2_5/trunk/PlatformLibrary/LIB_SecurityCheck\LIB_TaskMonitoring.c **** irqMonitorStatus_t IRQMonitorStatus;
 122:C:/Workspace/FW_Platform2_5/trunk/PlatformLibrary/LIB_SecurityCheck\LIB_TaskMonitoring.c **** 
 123:C:/Workspace/FW_Platform2_5/trunk/PlatformLibrary/LIB_SecurityCheck\LIB_TaskMonitoring.c **** #endif
 124:C:/Workspace/FW_Platform2_5/trunk/PlatformLibrary/LIB_SecurityCheck\LIB_TaskMonitoring.c **** 
 125:C:/Workspace/FW_Platform2_5/trunk/PlatformLibrary/LIB_SecurityCheck\LIB_TaskMonitoring.c **** /* DEBUG */
 126:C:/Workspace/FW_Platform2_5/trunk/PlatformLibrary/LIB_SecurityCheck\LIB_TaskMonitoring.c **** #if defined(CONFIG_LIB_CLASS_B_IRQ_CHECK_DEBUG)
 127:C:/Workspace/FW_Platform2_5/trunk/PlatformLibrary/LIB_SecurityCheck\LIB_TaskMonitoring.c **** uint16_t LIB_IRQMonitorMin;
 128:C:/Workspace/FW_Platform2_5/trunk/PlatformLibrary/LIB_SecurityCheck\LIB_TaskMonitoring.c **** uint16_t LIB_IRQMonitorZero;
 129:C:/Workspace/FW_Platform2_5/trunk/PlatformLibrary/LIB_SecurityCheck\LIB_TaskMonitoring.c **** uint16_t LIB_IRQMonitorMismatch;
 130:C:/Workspace/FW_Platform2_5/trunk/PlatformLibrary/LIB_SecurityCheck\LIB_TaskMonitoring.c **** OS_TIME LIB_IRQMonitorTimestamp;
 131:C:/Workspace/FW_Platform2_5/trunk/PlatformLibrary/LIB_SecurityCheck\LIB_TaskMonitoring.c **** #endif
 132:C:/Workspace/FW_Platform2_5/trunk/PlatformLibrary/LIB_SecurityCheck\LIB_TaskMonitoring.c **** 
 133:C:/Workspace/FW_Platform2_5/trunk/PlatformLibrary/LIB_SecurityCheck\LIB_TaskMonitoring.c **** /* ***************** */
 134:C:/Workspace/FW_Platform2_5/trunk/PlatformLibrary/LIB_SecurityCheck\LIB_TaskMonitoring.c **** /* Exported function */
 135:C:/Workspace/FW_Platform2_5/trunk/PlatformLibrary/LIB_SecurityCheck\LIB_TaskMonitoring.c **** /* ***************** */
 136:C:/Workspace/FW_Platform2_5/trunk/PlatformLibrary/LIB_SecurityCheck\LIB_TaskMonitoring.c **** 
 137:C:/Workspace/FW_Platform2_5/trunk/PlatformLibrary/LIB_SecurityCheck\LIB_TaskMonitoring.c **** void LIB_TaskMonitorInit( void )
 138:C:/Workspace/FW_Platform2_5/trunk/PlatformLibrary/LIB_SecurityCheck\LIB_TaskMonitoring.c **** {
  10                             		.loc 1 138 0
 139:C:/Workspace/FW_Platform2_5/trunk/PlatformLibrary/LIB_SecurityCheck\LIB_TaskMonitoring.c **** 	SAFETY_REGION_START();
 140:C:/Workspace/FW_Platform2_5/trunk/PlatformLibrary/LIB_SecurityCheck\LIB_TaskMonitoring.c **** 	memset(CheckTasks, 0, sizeof(CheckTasks));
  11                             		.loc 1 140 0
  12 0000 FB 12 00 00 00 00       		mov.L	#_CheckTasks, r1
  13 0006 66 A3                   		mov.L	#10, r3
  14 0008 66 02                   		mov	#0, r2
  15 000a 7F 88                   		sstr.b
 141:C:/Workspace/FW_Platform2_5/trunk/PlatformLibrary/LIB_SecurityCheck\LIB_TaskMonitoring.c **** 	LIB_TaskMonitorError = 0;
  16                             		.loc 1 141 0
  17 000c FB E2 00 00 00 00       		mov.L	#_LIB_TaskMonitorError, r14
  18 0012 F8 E6 00                		mov.L	#0, [r14]
  19 0015 02                      		rts
  20                             	.LFE0:
  22                             		.section	.text.LIB_TaskMonitor,"ax",@progbits
  23                             		.global	_LIB_TaskMonitor
  25                             	_LIB_TaskMonitor:
  26                             	.LFB1:
 142:C:/Workspace/FW_Platform2_5/trunk/PlatformLibrary/LIB_SecurityCheck\LIB_TaskMonitoring.c **** 
 143:C:/Workspace/FW_Platform2_5/trunk/PlatformLibrary/LIB_SecurityCheck\LIB_TaskMonitoring.c **** 	SAFETY_DATA_UPDATE(CheckTasks);
 144:C:/Workspace/FW_Platform2_5/trunk/PlatformLibrary/LIB_SecurityCheck\LIB_TaskMonitoring.c **** 	SAFETY_DATA_UPDATE(LIB_TaskMonitorError);
 145:C:/Workspace/FW_Platform2_5/trunk/PlatformLibrary/LIB_SecurityCheck\LIB_TaskMonitoring.c **** 	SAFETY_REGION_END();
 146:C:/Workspace/FW_Platform2_5/trunk/PlatformLibrary/LIB_SecurityCheck\LIB_TaskMonitoring.c **** 
 147:C:/Workspace/FW_Platform2_5/trunk/PlatformLibrary/LIB_SecurityCheck\LIB_TaskMonitoring.c **** }
 148:C:/Workspace/FW_Platform2_5/trunk/PlatformLibrary/LIB_SecurityCheck\LIB_TaskMonitoring.c **** 
 149:C:/Workspace/FW_Platform2_5/trunk/PlatformLibrary/LIB_SecurityCheck\LIB_TaskMonitoring.c **** /**
 150:C:/Workspace/FW_Platform2_5/trunk/PlatformLibrary/LIB_SecurityCheck\LIB_TaskMonitoring.c **** \n Monitorings the activation of selected tasks. This function must be called periodically
 151:C:/Workspace/FW_Platform2_5/trunk/PlatformLibrary/LIB_SecurityCheck\LIB_TaskMonitoring.c **** at Supervisor Task period time - timeouts are set depending on this value.
 152:C:/Workspace/FW_Platform2_5/trunk/PlatformLibrary/LIB_SecurityCheck\LIB_TaskMonitoring.c **** 
 153:C:/Workspace/FW_Platform2_5/trunk/PlatformLibrary/LIB_SecurityCheck\LIB_TaskMonitoring.c **** \return 	bool_t
 154:C:/Workspace/FW_Platform2_5/trunk/PlatformLibrary/LIB_SecurityCheck\LIB_TaskMonitoring.c **** 
 155:C:/Workspace/FW_Platform2_5/trunk/PlatformLibrary/LIB_SecurityCheck\LIB_TaskMonitoring.c **** \retval		TRUE all tasks submitted to the monitoring were activated within the prescribed time-out.
 156:C:/Workspace/FW_Platform2_5/trunk/PlatformLibrary/LIB_SecurityCheck\LIB_TaskMonitoring.c **** \retval		FALSE a task submitted to the monitoring was not activated within the prescribed time-out.
 157:C:/Workspace/FW_Platform2_5/trunk/PlatformLibrary/LIB_SecurityCheck\LIB_TaskMonitoring.c **** 
 158:C:/Workspace/FW_Platform2_5/trunk/PlatformLibrary/LIB_SecurityCheck\LIB_TaskMonitoring.c **** 
 159:C:/Workspace/FW_Platform2_5/trunk/PlatformLibrary/LIB_SecurityCheck\LIB_TaskMonitoring.c **** \author 	Stefano Ughi
 160:C:/Workspace/FW_Platform2_5/trunk/PlatformLibrary/LIB_SecurityCheck\LIB_TaskMonitoring.c **** \date		Mar 28, 2011
 161:C:/Workspace/FW_Platform2_5/trunk/PlatformLibrary/LIB_SecurityCheck\LIB_TaskMonitoring.c **** \version	1.0.0
 162:C:/Workspace/FW_Platform2_5/trunk/PlatformLibrary/LIB_SecurityCheck\LIB_TaskMonitoring.c **** 
 163:C:/Workspace/FW_Platform2_5/trunk/PlatformLibrary/LIB_SecurityCheck\LIB_TaskMonitoring.c **** \note		\par \b Nota 1:
 164:C:/Workspace/FW_Platform2_5/trunk/PlatformLibrary/LIB_SecurityCheck\LIB_TaskMonitoring.c **** 			documentation by Stefano Ughi
 165:C:/Workspace/FW_Platform2_5/trunk/PlatformLibrary/LIB_SecurityCheck\LIB_TaskMonitoring.c **** */
 166:C:/Workspace/FW_Platform2_5/trunk/PlatformLibrary/LIB_SecurityCheck\LIB_TaskMonitoring.c **** #ifdef CONFIG_PL_DEBUG 
 167:C:/Workspace/FW_Platform2_5/trunk/PlatformLibrary/LIB_SecurityCheck\LIB_TaskMonitoring.c **** uint8_t DBG_LIB_TM_idFailedTask=0;  
 168:C:/Workspace/FW_Platform2_5/trunk/PlatformLibrary/LIB_SecurityCheck\LIB_TaskMonitoring.c **** #endif /* CONFIG_PL_DEBUG*/
 169:C:/Workspace/FW_Platform2_5/trunk/PlatformLibrary/LIB_SecurityCheck\LIB_TaskMonitoring.c **** void LIB_TaskMonitor( void )
 170:C:/Workspace/FW_Platform2_5/trunk/PlatformLibrary/LIB_SecurityCheck\LIB_TaskMonitoring.c **** {
  27                             		.loc 1 170 0
  28                             	.LVL0:
 171:C:/Workspace/FW_Platform2_5/trunk/PlatformLibrary/LIB_SecurityCheck\LIB_TaskMonitoring.c **** 	bool_t retVal = TRUE;
 172:C:/Workspace/FW_Platform2_5/trunk/PlatformLibrary/LIB_SecurityCheck\LIB_TaskMonitoring.c **** 	uint8_t taskToCheck;
 173:C:/Workspace/FW_Platform2_5/trunk/PlatformLibrary/LIB_SecurityCheck\LIB_TaskMonitoring.c **** 
 174:C:/Workspace/FW_Platform2_5/trunk/PlatformLibrary/LIB_SecurityCheck\LIB_TaskMonitoring.c **** 	SAFETY_REGION_START();
 175:C:/Workspace/FW_Platform2_5/trunk/PlatformLibrary/LIB_SecurityCheck\LIB_TaskMonitoring.c **** 	SAFETY_DATA_CHECK(LIB_TaskMonitorError);
 176:C:/Workspace/FW_Platform2_5/trunk/PlatformLibrary/LIB_SecurityCheck\LIB_TaskMonitoring.c **** 	SAFETY_DATA_CHECK(CheckTasks);
 177:C:/Workspace/FW_Platform2_5/trunk/PlatformLibrary/LIB_SecurityCheck\LIB_TaskMonitoring.c **** 
 178:C:/Workspace/FW_Platform2_5/trunk/PlatformLibrary/LIB_SecurityCheck\LIB_TaskMonitoring.c **** 	if(LIB_TaskMonitorError != 0 )
  29                             		.loc 1 178 0
  30 0000 FB E2 00 00 00 00       		mov.L	#_LIB_TaskMonitorError, r14
  31 0006 EC EE                   		mov.L	[r14], r14
  32 0008 61 0E                   		cmp	#0, r14
  33 000a 20 09                   		beq	.L3
  34                             		.balign 2,3,2
  35                             	.L6:
  36                             	.LVL1:
 179:C:/Workspace/FW_Platform2_5/trunk/PlatformLibrary/LIB_SecurityCheck\LIB_TaskMonitoring.c **** 	{
 180:C:/Workspace/FW_Platform2_5/trunk/PlatformLibrary/LIB_SecurityCheck\LIB_TaskMonitoring.c **** 		retVal = FALSE;
 181:C:/Workspace/FW_Platform2_5/trunk/PlatformLibrary/LIB_SecurityCheck\LIB_TaskMonitoring.c **** 	}
 182:C:/Workspace/FW_Platform2_5/trunk/PlatformLibrary/LIB_SecurityCheck\LIB_TaskMonitoring.c **** 	else {
 183:C:/Workspace/FW_Platform2_5/trunk/PlatformLibrary/LIB_SecurityCheck\LIB_TaskMonitoring.c **** 
 184:C:/Workspace/FW_Platform2_5/trunk/PlatformLibrary/LIB_SecurityCheck\LIB_TaskMonitoring.c **** 		for ( taskToCheck = 0; taskToCheck < NUM_TASKS_TO_MONITOR; taskToCheck ++ )
 185:C:/Workspace/FW_Platform2_5/trunk/PlatformLibrary/LIB_SecurityCheck\LIB_TaskMonitoring.c **** 		{
 186:C:/Workspace/FW_Platform2_5/trunk/PlatformLibrary/LIB_SecurityCheck\LIB_TaskMonitoring.c **** 			if ( CheckActTask( taskToCheck ) == TASK_NOT_ACTIVATED )
 187:C:/Workspace/FW_Platform2_5/trunk/PlatformLibrary/LIB_SecurityCheck\LIB_TaskMonitoring.c **** 			{
 188:C:/Workspace/FW_Platform2_5/trunk/PlatformLibrary/LIB_SecurityCheck\LIB_TaskMonitoring.c **** 	#ifdef CONFIG_PL_DEBUG
 189:C:/Workspace/FW_Platform2_5/trunk/PlatformLibrary/LIB_SecurityCheck\LIB_TaskMonitoring.c **** 			  DBG_LIB_TM_idFailedTask = taskToCheck;
 190:C:/Workspace/FW_Platform2_5/trunk/PlatformLibrary/LIB_SecurityCheck\LIB_TaskMonitoring.c **** 	#endif
 191:C:/Workspace/FW_Platform2_5/trunk/PlatformLibrary/LIB_SecurityCheck\LIB_TaskMonitoring.c **** 			  retVal = FALSE;
 192:C:/Workspace/FW_Platform2_5/trunk/PlatformLibrary/LIB_SecurityCheck\LIB_TaskMonitoring.c **** 			  break;
 193:C:/Workspace/FW_Platform2_5/trunk/PlatformLibrary/LIB_SecurityCheck\LIB_TaskMonitoring.c **** 			}
 194:C:/Workspace/FW_Platform2_5/trunk/PlatformLibrary/LIB_SecurityCheck\LIB_TaskMonitoring.c **** 		}
 195:C:/Workspace/FW_Platform2_5/trunk/PlatformLibrary/LIB_SecurityCheck\LIB_TaskMonitoring.c **** 	}
 196:C:/Workspace/FW_Platform2_5/trunk/PlatformLibrary/LIB_SecurityCheck\LIB_TaskMonitoring.c **** 	SAFETY_DATA_UPDATE(CheckTasks);
 197:C:/Workspace/FW_Platform2_5/trunk/PlatformLibrary/LIB_SecurityCheck\LIB_TaskMonitoring.c **** 	SAFETY_REGION_END();
 198:C:/Workspace/FW_Platform2_5/trunk/PlatformLibrary/LIB_SecurityCheck\LIB_TaskMonitoring.c **** 
 199:C:/Workspace/FW_Platform2_5/trunk/PlatformLibrary/LIB_SecurityCheck\LIB_TaskMonitoring.c **** 	if(retVal == FALSE){
 200:C:/Workspace/FW_Platform2_5/trunk/PlatformLibrary/LIB_SecurityCheck\LIB_TaskMonitoring.c **** 		PLT_ERROR_FATAL(PLT_ERROR_CLASSBCHECK_TASKMONITORING);
  37                             		.loc 1 200 0
  38 000c 75 41 36                		mov.L	#54, r1
  39 000f 04 00 00 00             		bra	_LIB_Error_Fatal_Handler
  40                             	.LVL2:
  41                             	.L3:
  42 0013 FB 42 00 00 00 00       		mov.L	#_CheckTasks, r4
  43                             	.LBB10:
  44                             	.LBB11:
 201:C:/Workspace/FW_Platform2_5/trunk/PlatformLibrary/LIB_SecurityCheck\LIB_TaskMonitoring.c **** 	}
 202:C:/Workspace/FW_Platform2_5/trunk/PlatformLibrary/LIB_SecurityCheck\LIB_TaskMonitoring.c **** 
 203:C:/Workspace/FW_Platform2_5/trunk/PlatformLibrary/LIB_SecurityCheck\LIB_TaskMonitoring.c **** 	/* return retVal; */
 204:C:/Workspace/FW_Platform2_5/trunk/PlatformLibrary/LIB_SecurityCheck\LIB_TaskMonitoring.c **** }
 205:C:/Workspace/FW_Platform2_5/trunk/PlatformLibrary/LIB_SecurityCheck\LIB_TaskMonitoring.c **** 
 206:C:/Workspace/FW_Platform2_5/trunk/PlatformLibrary/LIB_SecurityCheck\LIB_TaskMonitoring.c **** /**
 207:C:/Workspace/FW_Platform2_5/trunk/PlatformLibrary/LIB_SecurityCheck\LIB_TaskMonitoring.c **** The function is called by the Tasks subject to monitoring.
 208:C:/Workspace/FW_Platform2_5/trunk/PlatformLibrary/LIB_SecurityCheck\LIB_TaskMonitoring.c **** 
 209:C:/Workspace/FW_Platform2_5/trunk/PlatformLibrary/LIB_SecurityCheck\LIB_TaskMonitoring.c **** \param  	[in], taskID ID calling task
 210:C:/Workspace/FW_Platform2_5/trunk/PlatformLibrary/LIB_SecurityCheck\LIB_TaskMonitoring.c **** 
 211:C:/Workspace/FW_Platform2_5/trunk/PlatformLibrary/LIB_SecurityCheck\LIB_TaskMonitoring.c **** 
 212:C:/Workspace/FW_Platform2_5/trunk/PlatformLibrary/LIB_SecurityCheck\LIB_TaskMonitoring.c **** \author 	Stefano Ughi
 213:C:/Workspace/FW_Platform2_5/trunk/PlatformLibrary/LIB_SecurityCheck\LIB_TaskMonitoring.c **** \date		25/06/2007
 214:C:/Workspace/FW_Platform2_5/trunk/PlatformLibrary/LIB_SecurityCheck\LIB_TaskMonitoring.c **** \version	1.0.0
 215:C:/Workspace/FW_Platform2_5/trunk/PlatformLibrary/LIB_SecurityCheck\LIB_TaskMonitoring.c **** 
 216:C:/Workspace/FW_Platform2_5/trunk/PlatformLibrary/LIB_SecurityCheck\LIB_TaskMonitoring.c **** \note		\par \b Nota 1:
 217:C:/Workspace/FW_Platform2_5/trunk/PlatformLibrary/LIB_SecurityCheck\LIB_TaskMonitoring.c **** 			documentation by Stefano Ughi
 218:C:/Workspace/FW_Platform2_5/trunk/PlatformLibrary/LIB_SecurityCheck\LIB_TaskMonitoring.c **** */
 219:C:/Workspace/FW_Platform2_5/trunk/PlatformLibrary/LIB_SecurityCheck\LIB_TaskMonitoring.c **** 
 220:C:/Workspace/FW_Platform2_5/trunk/PlatformLibrary/LIB_SecurityCheck\LIB_TaskMonitoring.c **** void LIB_HelloTaskMonitor( uint8_t taskID )
 221:C:/Workspace/FW_Platform2_5/trunk/PlatformLibrary/LIB_SecurityCheck\LIB_TaskMonitoring.c **** {
 222:C:/Workspace/FW_Platform2_5/trunk/PlatformLibrary/LIB_SecurityCheck\LIB_TaskMonitoring.c ****   LIB_TaskStartActivity(taskID);
 223:C:/Workspace/FW_Platform2_5/trunk/PlatformLibrary/LIB_SecurityCheck\LIB_TaskMonitoring.c ****   LIB_TaskEndActivity(taskID);
 224:C:/Workspace/FW_Platform2_5/trunk/PlatformLibrary/LIB_SecurityCheck\LIB_TaskMonitoring.c **** }
 225:C:/Workspace/FW_Platform2_5/trunk/PlatformLibrary/LIB_SecurityCheck\LIB_TaskMonitoring.c **** 
 226:C:/Workspace/FW_Platform2_5/trunk/PlatformLibrary/LIB_SecurityCheck\LIB_TaskMonitoring.c **** /**
 227:C:/Workspace/FW_Platform2_5/trunk/PlatformLibrary/LIB_SecurityCheck\LIB_TaskMonitoring.c **** Sets the check configuration  for the specific taskID.
 228:C:/Workspace/FW_Platform2_5/trunk/PlatformLibrary/LIB_SecurityCheck\LIB_TaskMonitoring.c **** 
 229:C:/Workspace/FW_Platform2_5/trunk/PlatformLibrary/LIB_SecurityCheck\LIB_TaskMonitoring.c **** \param  	[in] taskID task's ID (defined in enum  tm_id_enum)
 230:C:/Workspace/FW_Platform2_5/trunk/PlatformLibrary/LIB_SecurityCheck\LIB_TaskMonitoring.c **** \param  	[in] timeout (in ms)
 231:C:/Workspace/FW_Platform2_5/trunk/PlatformLibrary/LIB_SecurityCheck\LIB_TaskMonitoring.c **** \param  	[in] state  - TRUE/FALSE set task monitoring active/not active
 232:C:/Workspace/FW_Platform2_5/trunk/PlatformLibrary/LIB_SecurityCheck\LIB_TaskMonitoring.c **** */
 233:C:/Workspace/FW_Platform2_5/trunk/PlatformLibrary/LIB_SecurityCheck\LIB_TaskMonitoring.c **** void LIB_TaskMonitoringConfig( uint8_t taskID, uint16_t timeout, bool_t state )
 234:C:/Workspace/FW_Platform2_5/trunk/PlatformLibrary/LIB_SecurityCheck\LIB_TaskMonitoring.c **** {
 235:C:/Workspace/FW_Platform2_5/trunk/PlatformLibrary/LIB_SecurityCheck\LIB_TaskMonitoring.c ****   if( taskID < NUM_TASKS_TO_MONITOR )
 236:C:/Workspace/FW_Platform2_5/trunk/PlatformLibrary/LIB_SecurityCheck\LIB_TaskMonitoring.c ****   {
 237:C:/Workspace/FW_Platform2_5/trunk/PlatformLibrary/LIB_SecurityCheck\LIB_TaskMonitoring.c **** #if defined(CONFIG_LIB_CLASS_B_PERIODIC_CHECK_STATIC_CONF)
 238:C:/Workspace/FW_Platform2_5/trunk/PlatformLibrary/LIB_SecurityCheck\LIB_TaskMonitoring.c **** 	 if(CheckTasks[taskID].taskConfigured)
 239:C:/Workspace/FW_Platform2_5/trunk/PlatformLibrary/LIB_SecurityCheck\LIB_TaskMonitoring.c **** 		  return;
 240:C:/Workspace/FW_Platform2_5/trunk/PlatformLibrary/LIB_SecurityCheck\LIB_TaskMonitoring.c **** #endif /* defined(CONFIG_LIB_CLASS_B_PERIODIC_CHECK_STATIC_CONF) */
 241:C:/Workspace/FW_Platform2_5/trunk/PlatformLibrary/LIB_SecurityCheck\LIB_TaskMonitoring.c **** 
 242:C:/Workspace/FW_Platform2_5/trunk/PlatformLibrary/LIB_SecurityCheck\LIB_TaskMonitoring.c ****       SAFETY_REGION_START();
 243:C:/Workspace/FW_Platform2_5/trunk/PlatformLibrary/LIB_SecurityCheck\LIB_TaskMonitoring.c ****       SAFETY_DATA_CHECK(CheckTasks);
 244:C:/Workspace/FW_Platform2_5/trunk/PlatformLibrary/LIB_SecurityCheck\LIB_TaskMonitoring.c ****       SET_TASK_TIMEOUT(taskID, timeout);
 245:C:/Workspace/FW_Platform2_5/trunk/PlatformLibrary/LIB_SecurityCheck\LIB_TaskMonitoring.c ****       CheckTasks[taskID].timeoutCounter = 0;
 246:C:/Workspace/FW_Platform2_5/trunk/PlatformLibrary/LIB_SecurityCheck\LIB_TaskMonitoring.c ****       CheckTasks[taskID].configDone = 1;
 247:C:/Workspace/FW_Platform2_5/trunk/PlatformLibrary/LIB_SecurityCheck\LIB_TaskMonitoring.c ****     
 248:C:/Workspace/FW_Platform2_5/trunk/PlatformLibrary/LIB_SecurityCheck\LIB_TaskMonitoring.c ****       CheckTasks[taskID].taskActive = ( TRUE == state );
 249:C:/Workspace/FW_Platform2_5/trunk/PlatformLibrary/LIB_SecurityCheck\LIB_TaskMonitoring.c **** 
 250:C:/Workspace/FW_Platform2_5/trunk/PlatformLibrary/LIB_SecurityCheck\LIB_TaskMonitoring.c ****       CheckTasks[taskID].taskConfigured = 1;
 251:C:/Workspace/FW_Platform2_5/trunk/PlatformLibrary/LIB_SecurityCheck\LIB_TaskMonitoring.c **** 
 252:C:/Workspace/FW_Platform2_5/trunk/PlatformLibrary/LIB_SecurityCheck\LIB_TaskMonitoring.c ****       SAFETY_DATA_UPDATE(CheckTasks);
 253:C:/Workspace/FW_Platform2_5/trunk/PlatformLibrary/LIB_SecurityCheck\LIB_TaskMonitoring.c ****       SAFETY_REGION_END();
 254:C:/Workspace/FW_Platform2_5/trunk/PlatformLibrary/LIB_SecurityCheck\LIB_TaskMonitoring.c ****   }
 255:C:/Workspace/FW_Platform2_5/trunk/PlatformLibrary/LIB_SecurityCheck\LIB_TaskMonitoring.c ****   else{
 256:C:/Workspace/FW_Platform2_5/trunk/PlatformLibrary/LIB_SecurityCheck\LIB_TaskMonitoring.c **** #ifdef CONFIG_PL_DEBUG 
 257:C:/Workspace/FW_Platform2_5/trunk/PlatformLibrary/LIB_SecurityCheck\LIB_TaskMonitoring.c **** 	  DBG_LIB_TM_idFailedTask = taskID;
 258:C:/Workspace/FW_Platform2_5/trunk/PlatformLibrary/LIB_SecurityCheck\LIB_TaskMonitoring.c **** #endif
 259:C:/Workspace/FW_Platform2_5/trunk/PlatformLibrary/LIB_SecurityCheck\LIB_TaskMonitoring.c **** 	  LIB_TaskMonitorErrorHandler(3);
 260:C:/Workspace/FW_Platform2_5/trunk/PlatformLibrary/LIB_SecurityCheck\LIB_TaskMonitoring.c ****   }
 261:C:/Workspace/FW_Platform2_5/trunk/PlatformLibrary/LIB_SecurityCheck\LIB_TaskMonitoring.c **** }
 262:C:/Workspace/FW_Platform2_5/trunk/PlatformLibrary/LIB_SecurityCheck\LIB_TaskMonitoring.c **** 
 263:C:/Workspace/FW_Platform2_5/trunk/PlatformLibrary/LIB_SecurityCheck\LIB_TaskMonitoring.c **** void LIB_TaskStartActivity(  uint8_t taskID )
 264:C:/Workspace/FW_Platform2_5/trunk/PlatformLibrary/LIB_SecurityCheck\LIB_TaskMonitoring.c **** {
 265:C:/Workspace/FW_Platform2_5/trunk/PlatformLibrary/LIB_SecurityCheck\LIB_TaskMonitoring.c **** 
 266:C:/Workspace/FW_Platform2_5/trunk/PlatformLibrary/LIB_SecurityCheck\LIB_TaskMonitoring.c ****     /* Check if task is configured and activated */
 267:C:/Workspace/FW_Platform2_5/trunk/PlatformLibrary/LIB_SecurityCheck\LIB_TaskMonitoring.c ****   if ((CheckTasks[taskID].configDone) && (CheckTasks[taskID].taskActive)
 268:C:/Workspace/FW_Platform2_5/trunk/PlatformLibrary/LIB_SecurityCheck\LIB_TaskMonitoring.c **** 		  && (!CheckTasks[taskID].taskEntered))
 269:C:/Workspace/FW_Platform2_5/trunk/PlatformLibrary/LIB_SecurityCheck\LIB_TaskMonitoring.c ****   {
 270:C:/Workspace/FW_Platform2_5/trunk/PlatformLibrary/LIB_SecurityCheck\LIB_TaskMonitoring.c ****       SAFETY_REGION_START();
 271:C:/Workspace/FW_Platform2_5/trunk/PlatformLibrary/LIB_SecurityCheck\LIB_TaskMonitoring.c ****       SAFETY_DATA_CHECK(CheckTasks);
 272:C:/Workspace/FW_Platform2_5/trunk/PlatformLibrary/LIB_SecurityCheck\LIB_TaskMonitoring.c **** 
 273:C:/Workspace/FW_Platform2_5/trunk/PlatformLibrary/LIB_SecurityCheck\LIB_TaskMonitoring.c ****       CheckTasks[taskID].taskEntered = 1;
 274:C:/Workspace/FW_Platform2_5/trunk/PlatformLibrary/LIB_SecurityCheck\LIB_TaskMonitoring.c **** 
 275:C:/Workspace/FW_Platform2_5/trunk/PlatformLibrary/LIB_SecurityCheck\LIB_TaskMonitoring.c ****       SAFETY_DATA_UPDATE(CheckTasks);
 276:C:/Workspace/FW_Platform2_5/trunk/PlatformLibrary/LIB_SecurityCheck\LIB_TaskMonitoring.c ****       SAFETY_REGION_END();
 277:C:/Workspace/FW_Platform2_5/trunk/PlatformLibrary/LIB_SecurityCheck\LIB_TaskMonitoring.c ****   }
 278:C:/Workspace/FW_Platform2_5/trunk/PlatformLibrary/LIB_SecurityCheck\LIB_TaskMonitoring.c ****   else {
 279:C:/Workspace/FW_Platform2_5/trunk/PlatformLibrary/LIB_SecurityCheck\LIB_TaskMonitoring.c **** 	/* If called not active, raise an error condition */
 280:C:/Workspace/FW_Platform2_5/trunk/PlatformLibrary/LIB_SecurityCheck\LIB_TaskMonitoring.c **** #ifdef CONFIG_PL_DEBUG
 281:C:/Workspace/FW_Platform2_5/trunk/PlatformLibrary/LIB_SecurityCheck\LIB_TaskMonitoring.c **** 	DBG_LIB_TM_idFailedTask = taskID;
 282:C:/Workspace/FW_Platform2_5/trunk/PlatformLibrary/LIB_SecurityCheck\LIB_TaskMonitoring.c **** #endif	
 283:C:/Workspace/FW_Platform2_5/trunk/PlatformLibrary/LIB_SecurityCheck\LIB_TaskMonitoring.c ****         LIB_TaskMonitorErrorHandler(1);
 284:C:/Workspace/FW_Platform2_5/trunk/PlatformLibrary/LIB_SecurityCheck\LIB_TaskMonitoring.c ****   }
 285:C:/Workspace/FW_Platform2_5/trunk/PlatformLibrary/LIB_SecurityCheck\LIB_TaskMonitoring.c **** }
 286:C:/Workspace/FW_Platform2_5/trunk/PlatformLibrary/LIB_SecurityCheck\LIB_TaskMonitoring.c **** 
 287:C:/Workspace/FW_Platform2_5/trunk/PlatformLibrary/LIB_SecurityCheck\LIB_TaskMonitoring.c **** void LIB_TaskEndActivity(  uint8_t taskID )
 288:C:/Workspace/FW_Platform2_5/trunk/PlatformLibrary/LIB_SecurityCheck\LIB_TaskMonitoring.c **** {
 289:C:/Workspace/FW_Platform2_5/trunk/PlatformLibrary/LIB_SecurityCheck\LIB_TaskMonitoring.c **** 
 290:C:/Workspace/FW_Platform2_5/trunk/PlatformLibrary/LIB_SecurityCheck\LIB_TaskMonitoring.c ****     /* Check if task is configured and activated */
 291:C:/Workspace/FW_Platform2_5/trunk/PlatformLibrary/LIB_SecurityCheck\LIB_TaskMonitoring.c **** 	if ((CheckTasks[taskID].configDone) && (CheckTasks[taskID].taskEntered))
 292:C:/Workspace/FW_Platform2_5/trunk/PlatformLibrary/LIB_SecurityCheck\LIB_TaskMonitoring.c **** 	{
 293:C:/Workspace/FW_Platform2_5/trunk/PlatformLibrary/LIB_SecurityCheck\LIB_TaskMonitoring.c **** 		SAFETY_REGION_START();
 294:C:/Workspace/FW_Platform2_5/trunk/PlatformLibrary/LIB_SecurityCheck\LIB_TaskMonitoring.c **** 		SAFETY_DATA_CHECK(CheckTasks);
 295:C:/Workspace/FW_Platform2_5/trunk/PlatformLibrary/LIB_SecurityCheck\LIB_TaskMonitoring.c **** 		CheckTasks[taskID].taskEntered = 0;
 296:C:/Workspace/FW_Platform2_5/trunk/PlatformLibrary/LIB_SecurityCheck\LIB_TaskMonitoring.c **** 
 297:C:/Workspace/FW_Platform2_5/trunk/PlatformLibrary/LIB_SecurityCheck\LIB_TaskMonitoring.c **** #if defined (CONFIG_PL_DEBUG)
 298:C:/Workspace/FW_Platform2_5/trunk/PlatformLibrary/LIB_SecurityCheck\LIB_TaskMonitoring.c **** 		if (CheckTasks[taskID].timeoutCounter > CheckTasks[taskID].maxCounter) {
 299:C:/Workspace/FW_Platform2_5/trunk/PlatformLibrary/LIB_SecurityCheck\LIB_TaskMonitoring.c **** 				CheckTasks[taskID].maxCounter = CheckTasks[taskID].timeoutCounter;
 300:C:/Workspace/FW_Platform2_5/trunk/PlatformLibrary/LIB_SecurityCheck\LIB_TaskMonitoring.c **** 		}
 301:C:/Workspace/FW_Platform2_5/trunk/PlatformLibrary/LIB_SecurityCheck\LIB_TaskMonitoring.c **** #endif
 302:C:/Workspace/FW_Platform2_5/trunk/PlatformLibrary/LIB_SecurityCheck\LIB_TaskMonitoring.c **** 
 303:C:/Workspace/FW_Platform2_5/trunk/PlatformLibrary/LIB_SecurityCheck\LIB_TaskMonitoring.c **** 	/* Task activated before timeout */
 304:C:/Workspace/FW_Platform2_5/trunk/PlatformLibrary/LIB_SecurityCheck\LIB_TaskMonitoring.c **** 	/* Reset timeout counter - everything was going fine! */
 305:C:/Workspace/FW_Platform2_5/trunk/PlatformLibrary/LIB_SecurityCheck\LIB_TaskMonitoring.c ****       CheckTasks[taskID].timeoutCounter = 0;
 306:C:/Workspace/FW_Platform2_5/trunk/PlatformLibrary/LIB_SecurityCheck\LIB_TaskMonitoring.c **** 
 307:C:/Workspace/FW_Platform2_5/trunk/PlatformLibrary/LIB_SecurityCheck\LIB_TaskMonitoring.c ****       SAFETY_DATA_UPDATE(CheckTasks);
 308:C:/Workspace/FW_Platform2_5/trunk/PlatformLibrary/LIB_SecurityCheck\LIB_TaskMonitoring.c ****       SAFETY_REGION_END();
 309:C:/Workspace/FW_Platform2_5/trunk/PlatformLibrary/LIB_SecurityCheck\LIB_TaskMonitoring.c ****     }
 310:C:/Workspace/FW_Platform2_5/trunk/PlatformLibrary/LIB_SecurityCheck\LIB_TaskMonitoring.c **** 	else
 311:C:/Workspace/FW_Platform2_5/trunk/PlatformLibrary/LIB_SecurityCheck\LIB_TaskMonitoring.c **** 	{
 312:C:/Workspace/FW_Platform2_5/trunk/PlatformLibrary/LIB_SecurityCheck\LIB_TaskMonitoring.c ****         /* If called not active or before LIB_TaskStartActivity, raise an error condition */
 313:C:/Workspace/FW_Platform2_5/trunk/PlatformLibrary/LIB_SecurityCheck\LIB_TaskMonitoring.c **** #ifdef CONFIG_PL_DEBUG 		
 314:C:/Workspace/FW_Platform2_5/trunk/PlatformLibrary/LIB_SecurityCheck\LIB_TaskMonitoring.c **** 	  DBG_LIB_TM_idFailedTask = taskID;
 315:C:/Workspace/FW_Platform2_5/trunk/PlatformLibrary/LIB_SecurityCheck\LIB_TaskMonitoring.c **** #endif
 316:C:/Workspace/FW_Platform2_5/trunk/PlatformLibrary/LIB_SecurityCheck\LIB_TaskMonitoring.c ****           LIB_TaskMonitorErrorHandler(2);
 317:C:/Workspace/FW_Platform2_5/trunk/PlatformLibrary/LIB_SecurityCheck\LIB_TaskMonitoring.c **** 	}
 318:C:/Workspace/FW_Platform2_5/trunk/PlatformLibrary/LIB_SecurityCheck\LIB_TaskMonitoring.c **** 
 319:C:/Workspace/FW_Platform2_5/trunk/PlatformLibrary/LIB_SecurityCheck\LIB_TaskMonitoring.c **** }
 320:C:/Workspace/FW_Platform2_5/trunk/PlatformLibrary/LIB_SecurityCheck\LIB_TaskMonitoring.c **** 
 321:C:/Workspace/FW_Platform2_5/trunk/PlatformLibrary/LIB_SecurityCheck\LIB_TaskMonitoring.c **** 
 322:C:/Workspace/FW_Platform2_5/trunk/PlatformLibrary/LIB_SecurityCheck\LIB_TaskMonitoring.c **** /**
 323:C:/Workspace/FW_Platform2_5/trunk/PlatformLibrary/LIB_SecurityCheck\LIB_TaskMonitoring.c **** Sets the state of Task with ID taskID.
 324:C:/Workspace/FW_Platform2_5/trunk/PlatformLibrary/LIB_SecurityCheck\LIB_TaskMonitoring.c **** 
 325:C:/Workspace/FW_Platform2_5/trunk/PlatformLibrary/LIB_SecurityCheck\LIB_TaskMonitoring.c **** \param  	[in] taskID task's ID
 326:C:/Workspace/FW_Platform2_5/trunk/PlatformLibrary/LIB_SecurityCheck\LIB_TaskMonitoring.c **** \param  	[in] state if TRUE Task is active otherwise suspended
 327:C:/Workspace/FW_Platform2_5/trunk/PlatformLibrary/LIB_SecurityCheck\LIB_TaskMonitoring.c **** 
 328:C:/Workspace/FW_Platform2_5/trunk/PlatformLibrary/LIB_SecurityCheck\LIB_TaskMonitoring.c **** 
 329:C:/Workspace/FW_Platform2_5/trunk/PlatformLibrary/LIB_SecurityCheck\LIB_TaskMonitoring.c **** \author 	Stefano Ughi
 330:C:/Workspace/FW_Platform2_5/trunk/PlatformLibrary/LIB_SecurityCheck\LIB_TaskMonitoring.c **** \date		Mar 28,2011
 331:C:/Workspace/FW_Platform2_5/trunk/PlatformLibrary/LIB_SecurityCheck\LIB_TaskMonitoring.c **** \version	1.0.0
 332:C:/Workspace/FW_Platform2_5/trunk/PlatformLibrary/LIB_SecurityCheck\LIB_TaskMonitoring.c **** 
 333:C:/Workspace/FW_Platform2_5/trunk/PlatformLibrary/LIB_SecurityCheck\LIB_TaskMonitoring.c **** \note		\par \b Nota 1:
 334:C:/Workspace/FW_Platform2_5/trunk/PlatformLibrary/LIB_SecurityCheck\LIB_TaskMonitoring.c **** 			documentation by Stefano Ughi
 335:C:/Workspace/FW_Platform2_5/trunk/PlatformLibrary/LIB_SecurityCheck\LIB_TaskMonitoring.c **** */
 336:C:/Workspace/FW_Platform2_5/trunk/PlatformLibrary/LIB_SecurityCheck\LIB_TaskMonitoring.c **** void LIB_SetTask( uint8_t taskID, bool_t state )
 337:C:/Workspace/FW_Platform2_5/trunk/PlatformLibrary/LIB_SecurityCheck\LIB_TaskMonitoring.c **** {
 338:C:/Workspace/FW_Platform2_5/trunk/PlatformLibrary/LIB_SecurityCheck\LIB_TaskMonitoring.c **** 
 339:C:/Workspace/FW_Platform2_5/trunk/PlatformLibrary/LIB_SecurityCheck\LIB_TaskMonitoring.c ****   if (CheckTasks[taskID].configDone)
 340:C:/Workspace/FW_Platform2_5/trunk/PlatformLibrary/LIB_SecurityCheck\LIB_TaskMonitoring.c ****   {
 341:C:/Workspace/FW_Platform2_5/trunk/PlatformLibrary/LIB_SecurityCheck\LIB_TaskMonitoring.c **** 	  SAFETY_REGION_START();
 342:C:/Workspace/FW_Platform2_5/trunk/PlatformLibrary/LIB_SecurityCheck\LIB_TaskMonitoring.c **** 	  SAFETY_DATA_CHECK(CheckTasks);
 343:C:/Workspace/FW_Platform2_5/trunk/PlatformLibrary/LIB_SecurityCheck\LIB_TaskMonitoring.c **** 
 344:C:/Workspace/FW_Platform2_5/trunk/PlatformLibrary/LIB_SecurityCheck\LIB_TaskMonitoring.c ****       CheckTasks[taskID].taskActive = (state == TRUE);
 345:C:/Workspace/FW_Platform2_5/trunk/PlatformLibrary/LIB_SecurityCheck\LIB_TaskMonitoring.c **** 
 346:C:/Workspace/FW_Platform2_5/trunk/PlatformLibrary/LIB_SecurityCheck\LIB_TaskMonitoring.c ****       SAFETY_DATA_UPDATE(CheckTasks);
 347:C:/Workspace/FW_Platform2_5/trunk/PlatformLibrary/LIB_SecurityCheck\LIB_TaskMonitoring.c ****       SAFETY_REGION_END();
 348:C:/Workspace/FW_Platform2_5/trunk/PlatformLibrary/LIB_SecurityCheck\LIB_TaskMonitoring.c ****   }
 349:C:/Workspace/FW_Platform2_5/trunk/PlatformLibrary/LIB_SecurityCheck\LIB_TaskMonitoring.c **** 
 350:C:/Workspace/FW_Platform2_5/trunk/PlatformLibrary/LIB_SecurityCheck\LIB_TaskMonitoring.c **** }
 351:C:/Workspace/FW_Platform2_5/trunk/PlatformLibrary/LIB_SecurityCheck\LIB_TaskMonitoring.c **** 
 352:C:/Workspace/FW_Platform2_5/trunk/PlatformLibrary/LIB_SecurityCheck\LIB_TaskMonitoring.c **** #if defined(CONFIG_LIB_CLASS_B_IRQ_CHECK)
 353:C:/Workspace/FW_Platform2_5/trunk/PlatformLibrary/LIB_SecurityCheck\LIB_TaskMonitoring.c **** 
 354:C:/Workspace/FW_Platform2_5/trunk/PlatformLibrary/LIB_SecurityCheck\LIB_TaskMonitoring.c **** /**
 355:C:/Workspace/FW_Platform2_5/trunk/PlatformLibrary/LIB_SecurityCheck\LIB_TaskMonitoring.c **** Function called to mark entering an Interrupt routine.
 356:C:/Workspace/FW_Platform2_5/trunk/PlatformLibrary/LIB_SecurityCheck\LIB_TaskMonitoring.c **** This function checks if EnterCnt go higher than threshold value set
 357:C:/Workspace/FW_Platform2_5/trunk/PlatformLibrary/LIB_SecurityCheck\LIB_TaskMonitoring.c **** (CONFIG_LIB_CLASS_B_IRQ_CHECK_MAXVALUE): in case of interrupt overload it
 358:C:/Workspace/FW_Platform2_5/trunk/PlatformLibrary/LIB_SecurityCheck\LIB_TaskMonitoring.c **** may become impossible to check it in periodic monitor.
 359:C:/Workspace/FW_Platform2_5/trunk/PlatformLibrary/LIB_SecurityCheck\LIB_TaskMonitoring.c **** 
 360:C:/Workspace/FW_Platform2_5/trunk/PlatformLibrary/LIB_SecurityCheck\LIB_TaskMonitoring.c **** \param  	none
 361:C:/Workspace/FW_Platform2_5/trunk/PlatformLibrary/LIB_SecurityCheck\LIB_TaskMonitoring.c **** 
 362:C:/Workspace/FW_Platform2_5/trunk/PlatformLibrary/LIB_SecurityCheck\LIB_TaskMonitoring.c **** \return 	none
 363:C:/Workspace/FW_Platform2_5/trunk/PlatformLibrary/LIB_SecurityCheck\LIB_TaskMonitoring.c **** 
 364:C:/Workspace/FW_Platform2_5/trunk/PlatformLibrary/LIB_SecurityCheck\LIB_TaskMonitoring.c **** \author 	Alessandro Sabbatini
 365:C:/Workspace/FW_Platform2_5/trunk/PlatformLibrary/LIB_SecurityCheck\LIB_TaskMonitoring.c **** \date		17/07/2013
 366:C:/Workspace/FW_Platform2_5/trunk/PlatformLibrary/LIB_SecurityCheck\LIB_TaskMonitoring.c **** \version	1.0.0
 367:C:/Workspace/FW_Platform2_5/trunk/PlatformLibrary/LIB_SecurityCheck\LIB_TaskMonitoring.c **** 
 368:C:/Workspace/FW_Platform2_5/trunk/PlatformLibrary/LIB_SecurityCheck\LIB_TaskMonitoring.c **** \note		\par \b Nota 1:
 369:C:/Workspace/FW_Platform2_5/trunk/PlatformLibrary/LIB_SecurityCheck\LIB_TaskMonitoring.c **** 			documentation by Alessandro Sabbatini
 370:C:/Workspace/FW_Platform2_5/trunk/PlatformLibrary/LIB_SecurityCheck\LIB_TaskMonitoring.c **** */
 371:C:/Workspace/FW_Platform2_5/trunk/PlatformLibrary/LIB_SecurityCheck\LIB_TaskMonitoring.c **** 
 372:C:/Workspace/FW_Platform2_5/trunk/PlatformLibrary/LIB_SecurityCheck\LIB_TaskMonitoring.c **** void LIB_IRQMonitor_Enter(void)
 373:C:/Workspace/FW_Platform2_5/trunk/PlatformLibrary/LIB_SecurityCheck\LIB_TaskMonitoring.c **** {
 374:C:/Workspace/FW_Platform2_5/trunk/PlatformLibrary/LIB_SecurityCheck\LIB_TaskMonitoring.c **** 	SAFETY_DATA_CHECK(IRQMonitorStatus);
 375:C:/Workspace/FW_Platform2_5/trunk/PlatformLibrary/LIB_SecurityCheck\LIB_TaskMonitoring.c **** 
 376:C:/Workspace/FW_Platform2_5/trunk/PlatformLibrary/LIB_SecurityCheck\LIB_TaskMonitoring.c **** #if !defined(CONFIG_LIB_CLASS_B_IRQ_CHECK_DEBUG)
 377:C:/Workspace/FW_Platform2_5/trunk/PlatformLibrary/LIB_SecurityCheck\LIB_TaskMonitoring.c **** 
 378:C:/Workspace/FW_Platform2_5/trunk/PlatformLibrary/LIB_SecurityCheck\LIB_TaskMonitoring.c **** 	/* Check if EnterCnt is lower than minimum threshold - some of expected interrupts was broken */
 379:C:/Workspace/FW_Platform2_5/trunk/PlatformLibrary/LIB_SecurityCheck\LIB_TaskMonitoring.c **** 	PLT_ERROR_FATAL_IF(IRQMonitorStatus.EnterCntr > CONFIG_LIB_CLASS_B_IRQ_CHECK_MAXVALUE, PLT_ERROR_I
 380:C:/Workspace/FW_Platform2_5/trunk/PlatformLibrary/LIB_SecurityCheck\LIB_TaskMonitoring.c **** 
 381:C:/Workspace/FW_Platform2_5/trunk/PlatformLibrary/LIB_SecurityCheck\LIB_TaskMonitoring.c **** #endif
 382:C:/Workspace/FW_Platform2_5/trunk/PlatformLibrary/LIB_SecurityCheck\LIB_TaskMonitoring.c **** 
 383:C:/Workspace/FW_Platform2_5/trunk/PlatformLibrary/LIB_SecurityCheck\LIB_TaskMonitoring.c **** 	IRQMonitorStatus.EnterCntr++;
 384:C:/Workspace/FW_Platform2_5/trunk/PlatformLibrary/LIB_SecurityCheck\LIB_TaskMonitoring.c **** 	SAFETY_DATA_UPDATE(IRQMonitorStatus);
 385:C:/Workspace/FW_Platform2_5/trunk/PlatformLibrary/LIB_SecurityCheck\LIB_TaskMonitoring.c **** }
 386:C:/Workspace/FW_Platform2_5/trunk/PlatformLibrary/LIB_SecurityCheck\LIB_TaskMonitoring.c **** 
 387:C:/Workspace/FW_Platform2_5/trunk/PlatformLibrary/LIB_SecurityCheck\LIB_TaskMonitoring.c **** /**
 388:C:/Workspace/FW_Platform2_5/trunk/PlatformLibrary/LIB_SecurityCheck\LIB_TaskMonitoring.c **** Function called to mark leaving an Interrupt routine
 389:C:/Workspace/FW_Platform2_5/trunk/PlatformLibrary/LIB_SecurityCheck\LIB_TaskMonitoring.c **** 
 390:C:/Workspace/FW_Platform2_5/trunk/PlatformLibrary/LIB_SecurityCheck\LIB_TaskMonitoring.c **** \param  	none
 391:C:/Workspace/FW_Platform2_5/trunk/PlatformLibrary/LIB_SecurityCheck\LIB_TaskMonitoring.c **** 
 392:C:/Workspace/FW_Platform2_5/trunk/PlatformLibrary/LIB_SecurityCheck\LIB_TaskMonitoring.c **** \return 	none
 393:C:/Workspace/FW_Platform2_5/trunk/PlatformLibrary/LIB_SecurityCheck\LIB_TaskMonitoring.c **** 
 394:C:/Workspace/FW_Platform2_5/trunk/PlatformLibrary/LIB_SecurityCheck\LIB_TaskMonitoring.c **** \author 	Alessandro Sabbatini
 395:C:/Workspace/FW_Platform2_5/trunk/PlatformLibrary/LIB_SecurityCheck\LIB_TaskMonitoring.c **** \date		17/07/2013
 396:C:/Workspace/FW_Platform2_5/trunk/PlatformLibrary/LIB_SecurityCheck\LIB_TaskMonitoring.c **** \version	1.0.0
 397:C:/Workspace/FW_Platform2_5/trunk/PlatformLibrary/LIB_SecurityCheck\LIB_TaskMonitoring.c **** 
 398:C:/Workspace/FW_Platform2_5/trunk/PlatformLibrary/LIB_SecurityCheck\LIB_TaskMonitoring.c **** \note		\par \b Nota 1:
 399:C:/Workspace/FW_Platform2_5/trunk/PlatformLibrary/LIB_SecurityCheck\LIB_TaskMonitoring.c **** 			documentation by Alessandro Sabbatini
 400:C:/Workspace/FW_Platform2_5/trunk/PlatformLibrary/LIB_SecurityCheck\LIB_TaskMonitoring.c **** */
 401:C:/Workspace/FW_Platform2_5/trunk/PlatformLibrary/LIB_SecurityCheck\LIB_TaskMonitoring.c **** void LIB_IRQMonitor_Exit(void)
 402:C:/Workspace/FW_Platform2_5/trunk/PlatformLibrary/LIB_SecurityCheck\LIB_TaskMonitoring.c **** {
 403:C:/Workspace/FW_Platform2_5/trunk/PlatformLibrary/LIB_SecurityCheck\LIB_TaskMonitoring.c **** 	SAFETY_DATA_CHECK(IRQMonitorStatus);
 404:C:/Workspace/FW_Platform2_5/trunk/PlatformLibrary/LIB_SecurityCheck\LIB_TaskMonitoring.c **** 	IRQMonitorStatus.ExitCntr++;
 405:C:/Workspace/FW_Platform2_5/trunk/PlatformLibrary/LIB_SecurityCheck\LIB_TaskMonitoring.c **** 	SAFETY_DATA_UPDATE(IRQMonitorStatus);
 406:C:/Workspace/FW_Platform2_5/trunk/PlatformLibrary/LIB_SecurityCheck\LIB_TaskMonitoring.c **** 
 407:C:/Workspace/FW_Platform2_5/trunk/PlatformLibrary/LIB_SecurityCheck\LIB_TaskMonitoring.c **** }
 408:C:/Workspace/FW_Platform2_5/trunk/PlatformLibrary/LIB_SecurityCheck\LIB_TaskMonitoring.c **** 
 409:C:/Workspace/FW_Platform2_5/trunk/PlatformLibrary/LIB_SecurityCheck\LIB_TaskMonitoring.c **** /**
 410:C:/Workspace/FW_Platform2_5/trunk/PlatformLibrary/LIB_SecurityCheck\LIB_TaskMonitoring.c **** IRQ Monitoring initialization routine - it should be called on Supervisor initialization.
 411:C:/Workspace/FW_Platform2_5/trunk/PlatformLibrary/LIB_SecurityCheck\LIB_TaskMonitoring.c **** This function initializes Enter and Exit counter to minimum value acceptable
 412:C:/Workspace/FW_Platform2_5/trunk/PlatformLibrary/LIB_SecurityCheck\LIB_TaskMonitoring.c **** (CONFIG_LIB_CLASS_B_IRQ_CHECK_MINVALUE) because first time monitor is called
 413:C:/Workspace/FW_Platform2_5/trunk/PlatformLibrary/LIB_SecurityCheck\LIB_TaskMonitoring.c **** no interrupts could be raised so monitor may fail.
 414:C:/Workspace/FW_Platform2_5/trunk/PlatformLibrary/LIB_SecurityCheck\LIB_TaskMonitoring.c **** 
 415:C:/Workspace/FW_Platform2_5/trunk/PlatformLibrary/LIB_SecurityCheck\LIB_TaskMonitoring.c **** \param  	none
 416:C:/Workspace/FW_Platform2_5/trunk/PlatformLibrary/LIB_SecurityCheck\LIB_TaskMonitoring.c **** 
 417:C:/Workspace/FW_Platform2_5/trunk/PlatformLibrary/LIB_SecurityCheck\LIB_TaskMonitoring.c **** \return 	none
 418:C:/Workspace/FW_Platform2_5/trunk/PlatformLibrary/LIB_SecurityCheck\LIB_TaskMonitoring.c **** 
 419:C:/Workspace/FW_Platform2_5/trunk/PlatformLibrary/LIB_SecurityCheck\LIB_TaskMonitoring.c **** \author 	Alessandro Sabbatini
 420:C:/Workspace/FW_Platform2_5/trunk/PlatformLibrary/LIB_SecurityCheck\LIB_TaskMonitoring.c **** \date		17/07/2013
 421:C:/Workspace/FW_Platform2_5/trunk/PlatformLibrary/LIB_SecurityCheck\LIB_TaskMonitoring.c **** \version	1.0.0
 422:C:/Workspace/FW_Platform2_5/trunk/PlatformLibrary/LIB_SecurityCheck\LIB_TaskMonitoring.c **** 
 423:C:/Workspace/FW_Platform2_5/trunk/PlatformLibrary/LIB_SecurityCheck\LIB_TaskMonitoring.c **** \note		\par \b Nota 1:
 424:C:/Workspace/FW_Platform2_5/trunk/PlatformLibrary/LIB_SecurityCheck\LIB_TaskMonitoring.c **** 			documentation by Alessandro Sabbatini
 425:C:/Workspace/FW_Platform2_5/trunk/PlatformLibrary/LIB_SecurityCheck\LIB_TaskMonitoring.c **** */
 426:C:/Workspace/FW_Platform2_5/trunk/PlatformLibrary/LIB_SecurityCheck\LIB_TaskMonitoring.c **** 
 427:C:/Workspace/FW_Platform2_5/trunk/PlatformLibrary/LIB_SecurityCheck\LIB_TaskMonitoring.c **** void LIB_IRQMonitor_Init(void)
 428:C:/Workspace/FW_Platform2_5/trunk/PlatformLibrary/LIB_SecurityCheck\LIB_TaskMonitoring.c **** {
 429:C:/Workspace/FW_Platform2_5/trunk/PlatformLibrary/LIB_SecurityCheck\LIB_TaskMonitoring.c **** 	SAFETY_REGION_START();
 430:C:/Workspace/FW_Platform2_5/trunk/PlatformLibrary/LIB_SecurityCheck\LIB_TaskMonitoring.c **** 	IRQMonitorStatus.EnterCntr = CONFIG_LIB_CLASS_B_IRQ_CHECK_MINVALUE;
 431:C:/Workspace/FW_Platform2_5/trunk/PlatformLibrary/LIB_SecurityCheck\LIB_TaskMonitoring.c **** 	IRQMonitorStatus.ExitCntr = CONFIG_LIB_CLASS_B_IRQ_CHECK_MINVALUE;
 432:C:/Workspace/FW_Platform2_5/trunk/PlatformLibrary/LIB_SecurityCheck\LIB_TaskMonitoring.c **** 	IRQMonitorStatus.fltCntr = 0;
 433:C:/Workspace/FW_Platform2_5/trunk/PlatformLibrary/LIB_SecurityCheck\LIB_TaskMonitoring.c **** 	IRQMonitorStatus.maxIntrCntr = 0;
 434:C:/Workspace/FW_Platform2_5/trunk/PlatformLibrary/LIB_SecurityCheck\LIB_TaskMonitoring.c **** 	SAFETY_DATA_UPDATE(IRQMonitorStatus);
 435:C:/Workspace/FW_Platform2_5/trunk/PlatformLibrary/LIB_SecurityCheck\LIB_TaskMonitoring.c **** 	SAFETY_REGION_END();
 436:C:/Workspace/FW_Platform2_5/trunk/PlatformLibrary/LIB_SecurityCheck\LIB_TaskMonitoring.c **** }
 437:C:/Workspace/FW_Platform2_5/trunk/PlatformLibrary/LIB_SecurityCheck\LIB_TaskMonitoring.c **** 
 438:C:/Workspace/FW_Platform2_5/trunk/PlatformLibrary/LIB_SecurityCheck\LIB_TaskMonitoring.c **** /**
 439:C:/Workspace/FW_Platform2_5/trunk/PlatformLibrary/LIB_SecurityCheck\LIB_TaskMonitoring.c **** IRQ Monitoring function - it should be called periodically on Supervisor
 440:C:/Workspace/FW_Platform2_5/trunk/PlatformLibrary/LIB_SecurityCheck\LIB_TaskMonitoring.c **** This function checks if EnterCnt and ExitCnt are equal - all interrupt
 441:C:/Workspace/FW_Platform2_5/trunk/PlatformLibrary/LIB_SecurityCheck\LIB_TaskMonitoring.c **** entered an left properly - and EnterCnt is higher (or at least equal)
 442:C:/Workspace/FW_Platform2_5/trunk/PlatformLibrary/LIB_SecurityCheck\LIB_TaskMonitoring.c **** than minimum threshold set (CONFIG_LIB_CLASS_B_IRQ_CHECK_MINVALUE).
 443:C:/Workspace/FW_Platform2_5/trunk/PlatformLibrary/LIB_SecurityCheck\LIB_TaskMonitoring.c **** 
 444:C:/Workspace/FW_Platform2_5/trunk/PlatformLibrary/LIB_SecurityCheck\LIB_TaskMonitoring.c **** After that, EnterCnt and ExitCnt will be reset to restar monitor in next window
 445:C:/Workspace/FW_Platform2_5/trunk/PlatformLibrary/LIB_SecurityCheck\LIB_TaskMonitoring.c **** time.
 446:C:/Workspace/FW_Platform2_5/trunk/PlatformLibrary/LIB_SecurityCheck\LIB_TaskMonitoring.c **** 
 447:C:/Workspace/FW_Platform2_5/trunk/PlatformLibrary/LIB_SecurityCheck\LIB_TaskMonitoring.c **** \param  	none
 448:C:/Workspace/FW_Platform2_5/trunk/PlatformLibrary/LIB_SecurityCheck\LIB_TaskMonitoring.c **** 
 449:C:/Workspace/FW_Platform2_5/trunk/PlatformLibrary/LIB_SecurityCheck\LIB_TaskMonitoring.c **** \return 	none
 450:C:/Workspace/FW_Platform2_5/trunk/PlatformLibrary/LIB_SecurityCheck\LIB_TaskMonitoring.c **** 
 451:C:/Workspace/FW_Platform2_5/trunk/PlatformLibrary/LIB_SecurityCheck\LIB_TaskMonitoring.c **** \author 	Alessandro Sabbatini
 452:C:/Workspace/FW_Platform2_5/trunk/PlatformLibrary/LIB_SecurityCheck\LIB_TaskMonitoring.c **** \date		17/07/2013
 453:C:/Workspace/FW_Platform2_5/trunk/PlatformLibrary/LIB_SecurityCheck\LIB_TaskMonitoring.c **** \version	1.0.0
 454:C:/Workspace/FW_Platform2_5/trunk/PlatformLibrary/LIB_SecurityCheck\LIB_TaskMonitoring.c **** 
 455:C:/Workspace/FW_Platform2_5/trunk/PlatformLibrary/LIB_SecurityCheck\LIB_TaskMonitoring.c **** \note		\par \b Nota 1:
 456:C:/Workspace/FW_Platform2_5/trunk/PlatformLibrary/LIB_SecurityCheck\LIB_TaskMonitoring.c **** 			documentation by Alessandro Sabbatini
 457:C:/Workspace/FW_Platform2_5/trunk/PlatformLibrary/LIB_SecurityCheck\LIB_TaskMonitoring.c **** */
 458:C:/Workspace/FW_Platform2_5/trunk/PlatformLibrary/LIB_SecurityCheck\LIB_TaskMonitoring.c **** 
 459:C:/Workspace/FW_Platform2_5/trunk/PlatformLibrary/LIB_SecurityCheck\LIB_TaskMonitoring.c **** void LIB_IRQMonitor(void)
 460:C:/Workspace/FW_Platform2_5/trunk/PlatformLibrary/LIB_SecurityCheck\LIB_TaskMonitoring.c **** {
 461:C:/Workspace/FW_Platform2_5/trunk/PlatformLibrary/LIB_SecurityCheck\LIB_TaskMonitoring.c **** 	EnterCriticalSection();
 462:C:/Workspace/FW_Platform2_5/trunk/PlatformLibrary/LIB_SecurityCheck\LIB_TaskMonitoring.c **** 	SAFETY_DATA_CHECK(IRQMonitorStatus);
 463:C:/Workspace/FW_Platform2_5/trunk/PlatformLibrary/LIB_SecurityCheck\LIB_TaskMonitoring.c **** 
 464:C:/Workspace/FW_Platform2_5/trunk/PlatformLibrary/LIB_SecurityCheck\LIB_TaskMonitoring.c **** #if defined(CONFIG_LIB_CLASS_B_IRQ_CHECK_DEBUG)
 465:C:/Workspace/FW_Platform2_5/trunk/PlatformLibrary/LIB_SecurityCheck\LIB_TaskMonitoring.c **** 
 466:C:/Workspace/FW_Platform2_5/trunk/PlatformLibrary/LIB_SecurityCheck\LIB_TaskMonitoring.c **** 	if (IRQMonitorStatus.EnterCntr != IRQMonitorStatus.ExitCntr)
 467:C:/Workspace/FW_Platform2_5/trunk/PlatformLibrary/LIB_SecurityCheck\LIB_TaskMonitoring.c **** 	{
 468:C:/Workspace/FW_Platform2_5/trunk/PlatformLibrary/LIB_SecurityCheck\LIB_TaskMonitoring.c **** 		LIB_IRQMonitorMismatch++;
 469:C:/Workspace/FW_Platform2_5/trunk/PlatformLibrary/LIB_SecurityCheck\LIB_TaskMonitoring.c **** 		LIB_IRQMonitorTimestamp = OS_GetTime();
 470:C:/Workspace/FW_Platform2_5/trunk/PlatformLibrary/LIB_SecurityCheck\LIB_TaskMonitoring.c **** 	}
 471:C:/Workspace/FW_Platform2_5/trunk/PlatformLibrary/LIB_SecurityCheck\LIB_TaskMonitoring.c **** 
 472:C:/Workspace/FW_Platform2_5/trunk/PlatformLibrary/LIB_SecurityCheck\LIB_TaskMonitoring.c **** 	if (IRQMonitorStatus.EnterCntr == 0)
 473:C:/Workspace/FW_Platform2_5/trunk/PlatformLibrary/LIB_SecurityCheck\LIB_TaskMonitoring.c **** 	{
 474:C:/Workspace/FW_Platform2_5/trunk/PlatformLibrary/LIB_SecurityCheck\LIB_TaskMonitoring.c **** 		LIB_IRQMonitorZero++;
 475:C:/Workspace/FW_Platform2_5/trunk/PlatformLibrary/LIB_SecurityCheck\LIB_TaskMonitoring.c **** 		LIB_IRQMonitorTimestamp = OS_GetTime();
 476:C:/Workspace/FW_Platform2_5/trunk/PlatformLibrary/LIB_SecurityCheck\LIB_TaskMonitoring.c **** 	}
 477:C:/Workspace/FW_Platform2_5/trunk/PlatformLibrary/LIB_SecurityCheck\LIB_TaskMonitoring.c **** 	else if ((IRQMonitorStatus.EnterCntr < LIB_IRQMonitorMin) || (LIB_IRQMonitorMin == 0))
 478:C:/Workspace/FW_Platform2_5/trunk/PlatformLibrary/LIB_SecurityCheck\LIB_TaskMonitoring.c **** 	{
 479:C:/Workspace/FW_Platform2_5/trunk/PlatformLibrary/LIB_SecurityCheck\LIB_TaskMonitoring.c **** 		LIB_IRQMonitorMin = IRQMonitorStatus.EnterCntr;
 480:C:/Workspace/FW_Platform2_5/trunk/PlatformLibrary/LIB_SecurityCheck\LIB_TaskMonitoring.c **** 	}
 481:C:/Workspace/FW_Platform2_5/trunk/PlatformLibrary/LIB_SecurityCheck\LIB_TaskMonitoring.c **** 
 482:C:/Workspace/FW_Platform2_5/trunk/PlatformLibrary/LIB_SecurityCheck\LIB_TaskMonitoring.c **** #else
 483:C:/Workspace/FW_Platform2_5/trunk/PlatformLibrary/LIB_SecurityCheck\LIB_TaskMonitoring.c **** 
 484:C:/Workspace/FW_Platform2_5/trunk/PlatformLibrary/LIB_SecurityCheck\LIB_TaskMonitoring.c **** 	/* Check if EnterCnt equals ExitCnt - all interrupts entered and exited properly, no flow mistakes
 485:C:/Workspace/FW_Platform2_5/trunk/PlatformLibrary/LIB_SecurityCheck\LIB_TaskMonitoring.c **** 	PLT_ERROR_FATAL_IF(IRQMonitorStatus.EnterCntr != IRQMonitorStatus.ExitCntr, PLT_ERROR_IRQMON_EXEC_
 486:C:/Workspace/FW_Platform2_5/trunk/PlatformLibrary/LIB_SecurityCheck\LIB_TaskMonitoring.c **** 
 487:C:/Workspace/FW_Platform2_5/trunk/PlatformLibrary/LIB_SecurityCheck\LIB_TaskMonitoring.c **** #if defined(CONFIG_LIB_CLASS_B_IRQ_CHECK_MINVALUE) && (CONFIG_LIB_CLASS_B_IRQ_CHECK_MINVALUE > 0)
 488:C:/Workspace/FW_Platform2_5/trunk/PlatformLibrary/LIB_SecurityCheck\LIB_TaskMonitoring.c **** 	/* Check if EnterCnt is lower than minimum threshold - if so, some of expected interrupts were bro
 489:C:/Workspace/FW_Platform2_5/trunk/PlatformLibrary/LIB_SecurityCheck\LIB_TaskMonitoring.c **** 	 * increment filter counter to go toward failure state                                            
 490:C:/Workspace/FW_Platform2_5/trunk/PlatformLibrary/LIB_SecurityCheck\LIB_TaskMonitoring.c **** 	if (IRQMonitorStatus.EnterCntr < CONFIG_LIB_CLASS_B_IRQ_CHECK_MINVALUE)
 491:C:/Workspace/FW_Platform2_5/trunk/PlatformLibrary/LIB_SecurityCheck\LIB_TaskMonitoring.c **** 	{
 492:C:/Workspace/FW_Platform2_5/trunk/PlatformLibrary/LIB_SecurityCheck\LIB_TaskMonitoring.c **** 		IRQMonitorStatus.fltCntr += CONFIG_LIB_CLASS_B_IRQ_FLTR_INCR;
 493:C:/Workspace/FW_Platform2_5/trunk/PlatformLibrary/LIB_SecurityCheck\LIB_TaskMonitoring.c **** 	}
 494:C:/Workspace/FW_Platform2_5/trunk/PlatformLibrary/LIB_SecurityCheck\LIB_TaskMonitoring.c **** 	else if (IRQMonitorStatus.fltCntr > 0)
 495:C:/Workspace/FW_Platform2_5/trunk/PlatformLibrary/LIB_SecurityCheck\LIB_TaskMonitoring.c **** 	{
 496:C:/Workspace/FW_Platform2_5/trunk/PlatformLibrary/LIB_SecurityCheck\LIB_TaskMonitoring.c **** 		IRQMonitorStatus.fltCntr--;
 497:C:/Workspace/FW_Platform2_5/trunk/PlatformLibrary/LIB_SecurityCheck\LIB_TaskMonitoring.c **** 	}
 498:C:/Workspace/FW_Platform2_5/trunk/PlatformLibrary/LIB_SecurityCheck\LIB_TaskMonitoring.c **** 	else
 499:C:/Workspace/FW_Platform2_5/trunk/PlatformLibrary/LIB_SecurityCheck\LIB_TaskMonitoring.c **** 	{
 500:C:/Workspace/FW_Platform2_5/trunk/PlatformLibrary/LIB_SecurityCheck\LIB_TaskMonitoring.c **** 		/* Nothing else to do */
 501:C:/Workspace/FW_Platform2_5/trunk/PlatformLibrary/LIB_SecurityCheck\LIB_TaskMonitoring.c **** 	}
 502:C:/Workspace/FW_Platform2_5/trunk/PlatformLibrary/LIB_SecurityCheck\LIB_TaskMonitoring.c **** 
 503:C:/Workspace/FW_Platform2_5/trunk/PlatformLibrary/LIB_SecurityCheck\LIB_TaskMonitoring.c **** 	/* If maximum value raised...  give PLT Error! */
 504:C:/Workspace/FW_Platform2_5/trunk/PlatformLibrary/LIB_SecurityCheck\LIB_TaskMonitoring.c **** 	PLT_ERROR_FATAL_IF(IRQMonitorStatus.fltCntr > CONFIG_LIB_CLASS_B_IRQ_FLTR_MAXTH, PLT_ERROR_IRQMON_
 505:C:/Workspace/FW_Platform2_5/trunk/PlatformLibrary/LIB_SecurityCheck\LIB_TaskMonitoring.c **** #endif
 506:C:/Workspace/FW_Platform2_5/trunk/PlatformLibrary/LIB_SecurityCheck\LIB_TaskMonitoring.c **** 
 507:C:/Workspace/FW_Platform2_5/trunk/PlatformLibrary/LIB_SecurityCheck\LIB_TaskMonitoring.c **** #endif
 508:C:/Workspace/FW_Platform2_5/trunk/PlatformLibrary/LIB_SecurityCheck\LIB_TaskMonitoring.c **** 
 509:C:/Workspace/FW_Platform2_5/trunk/PlatformLibrary/LIB_SecurityCheck\LIB_TaskMonitoring.c **** 	if (IRQMonitorStatus.EnterCntr > IRQMonitorStatus.maxIntrCntr)
 510:C:/Workspace/FW_Platform2_5/trunk/PlatformLibrary/LIB_SecurityCheck\LIB_TaskMonitoring.c **** 	{
 511:C:/Workspace/FW_Platform2_5/trunk/PlatformLibrary/LIB_SecurityCheck\LIB_TaskMonitoring.c **** 		IRQMonitorStatus.maxIntrCntr = IRQMonitorStatus.EnterCntr;
 512:C:/Workspace/FW_Platform2_5/trunk/PlatformLibrary/LIB_SecurityCheck\LIB_TaskMonitoring.c **** 	}
 513:C:/Workspace/FW_Platform2_5/trunk/PlatformLibrary/LIB_SecurityCheck\LIB_TaskMonitoring.c **** 
 514:C:/Workspace/FW_Platform2_5/trunk/PlatformLibrary/LIB_SecurityCheck\LIB_TaskMonitoring.c **** 	/* Reset counters to check a new monitor window */
 515:C:/Workspace/FW_Platform2_5/trunk/PlatformLibrary/LIB_SecurityCheck\LIB_TaskMonitoring.c **** 	IRQMonitorStatus.EnterCntr = 0;
 516:C:/Workspace/FW_Platform2_5/trunk/PlatformLibrary/LIB_SecurityCheck\LIB_TaskMonitoring.c **** 	IRQMonitorStatus.ExitCntr = 0;
 517:C:/Workspace/FW_Platform2_5/trunk/PlatformLibrary/LIB_SecurityCheck\LIB_TaskMonitoring.c **** 
 518:C:/Workspace/FW_Platform2_5/trunk/PlatformLibrary/LIB_SecurityCheck\LIB_TaskMonitoring.c **** 	SAFETY_DATA_UPDATE(IRQMonitorStatus);
 519:C:/Workspace/FW_Platform2_5/trunk/PlatformLibrary/LIB_SecurityCheck\LIB_TaskMonitoring.c **** 	ExitCriticalSection();
 520:C:/Workspace/FW_Platform2_5/trunk/PlatformLibrary/LIB_SecurityCheck\LIB_TaskMonitoring.c **** 
 521:C:/Workspace/FW_Platform2_5/trunk/PlatformLibrary/LIB_SecurityCheck\LIB_TaskMonitoring.c **** }
 522:C:/Workspace/FW_Platform2_5/trunk/PlatformLibrary/LIB_SecurityCheck\LIB_TaskMonitoring.c **** 
 523:C:/Workspace/FW_Platform2_5/trunk/PlatformLibrary/LIB_SecurityCheck\LIB_TaskMonitoring.c **** #endif
 524:C:/Workspace/FW_Platform2_5/trunk/PlatformLibrary/LIB_SecurityCheck\LIB_TaskMonitoring.c **** 
 525:C:/Workspace/FW_Platform2_5/trunk/PlatformLibrary/LIB_SecurityCheck\LIB_TaskMonitoring.c **** /* ************** */
 526:C:/Workspace/FW_Platform2_5/trunk/PlatformLibrary/LIB_SecurityCheck\LIB_TaskMonitoring.c **** /* Local Function */
 527:C:/Workspace/FW_Platform2_5/trunk/PlatformLibrary/LIB_SecurityCheck\LIB_TaskMonitoring.c **** /* ************** */
 528:C:/Workspace/FW_Platform2_5/trunk/PlatformLibrary/LIB_SecurityCheck\LIB_TaskMonitoring.c **** 
 529:C:/Workspace/FW_Platform2_5/trunk/PlatformLibrary/LIB_SecurityCheck\LIB_TaskMonitoring.c **** /**
 530:C:/Workspace/FW_Platform2_5/trunk/PlatformLibrary/LIB_SecurityCheck\LIB_TaskMonitoring.c **** Task monitor error handler
 531:C:/Workspace/FW_Platform2_5/trunk/PlatformLibrary/LIB_SecurityCheck\LIB_TaskMonitoring.c **** 
 532:C:/Workspace/FW_Platform2_5/trunk/PlatformLibrary/LIB_SecurityCheck\LIB_TaskMonitoring.c **** \param  	[in], err	Error identificator raised
 533:C:/Workspace/FW_Platform2_5/trunk/PlatformLibrary/LIB_SecurityCheck\LIB_TaskMonitoring.c **** 
 534:C:/Workspace/FW_Platform2_5/trunk/PlatformLibrary/LIB_SecurityCheck\LIB_TaskMonitoring.c **** \return 	none
 535:C:/Workspace/FW_Platform2_5/trunk/PlatformLibrary/LIB_SecurityCheck\LIB_TaskMonitoring.c **** 
 536:C:/Workspace/FW_Platform2_5/trunk/PlatformLibrary/LIB_SecurityCheck\LIB_TaskMonitoring.c **** \author 	Stefano Ughi
 537:C:/Workspace/FW_Platform2_5/trunk/PlatformLibrary/LIB_SecurityCheck\LIB_TaskMonitoring.c **** \date		Mar 28,2011
 538:C:/Workspace/FW_Platform2_5/trunk/PlatformLibrary/LIB_SecurityCheck\LIB_TaskMonitoring.c **** \version	1.0.2
 539:C:/Workspace/FW_Platform2_5/trunk/PlatformLibrary/LIB_SecurityCheck\LIB_TaskMonitoring.c **** 
 540:C:/Workspace/FW_Platform2_5/trunk/PlatformLibrary/LIB_SecurityCheck\LIB_TaskMonitoring.c **** \note       \par \b Nota 1:
 541:C:/Workspace/FW_Platform2_5/trunk/PlatformLibrary/LIB_SecurityCheck\LIB_TaskMonitoring.c **** 			documentation by Stefano Ughi
 542:C:/Workspace/FW_Platform2_5/trunk/PlatformLibrary/LIB_SecurityCheck\LIB_TaskMonitoring.c **** 
 543:C:/Workspace/FW_Platform2_5/trunk/PlatformLibrary/LIB_SecurityCheck\LIB_TaskMonitoring.c **** */
 544:C:/Workspace/FW_Platform2_5/trunk/PlatformLibrary/LIB_SecurityCheck\LIB_TaskMonitoring.c **** static void LIB_TaskMonitorErrorHandler( uint8_t err )
 545:C:/Workspace/FW_Platform2_5/trunk/PlatformLibrary/LIB_SecurityCheck\LIB_TaskMonitoring.c **** {
 546:C:/Workspace/FW_Platform2_5/trunk/PlatformLibrary/LIB_SecurityCheck\LIB_TaskMonitoring.c **** 	SAFETY_REGION_START();
 547:C:/Workspace/FW_Platform2_5/trunk/PlatformLibrary/LIB_SecurityCheck\LIB_TaskMonitoring.c **** 	SAFETY_DATA_CHECK(LIB_TaskMonitorError);
 548:C:/Workspace/FW_Platform2_5/trunk/PlatformLibrary/LIB_SecurityCheck\LIB_TaskMonitoring.c **** 	LIB_TaskMonitorError = err;
 549:C:/Workspace/FW_Platform2_5/trunk/PlatformLibrary/LIB_SecurityCheck\LIB_TaskMonitoring.c **** 	SAFETY_DATA_UPDATE(LIB_TaskMonitorError);
 550:C:/Workspace/FW_Platform2_5/trunk/PlatformLibrary/LIB_SecurityCheck\LIB_TaskMonitoring.c **** 	SAFETY_REGION_END();
 551:C:/Workspace/FW_Platform2_5/trunk/PlatformLibrary/LIB_SecurityCheck\LIB_TaskMonitoring.c **** 
 552:C:/Workspace/FW_Platform2_5/trunk/PlatformLibrary/LIB_SecurityCheck\LIB_TaskMonitoring.c **** }
 553:C:/Workspace/FW_Platform2_5/trunk/PlatformLibrary/LIB_SecurityCheck\LIB_TaskMonitoring.c **** 
 554:C:/Workspace/FW_Platform2_5/trunk/PlatformLibrary/LIB_SecurityCheck\LIB_TaskMonitoring.c **** /**
 555:C:/Workspace/FW_Platform2_5/trunk/PlatformLibrary/LIB_SecurityCheck\LIB_TaskMonitoring.c **** Checks task's activation.
 556:C:/Workspace/FW_Platform2_5/trunk/PlatformLibrary/LIB_SecurityCheck\LIB_TaskMonitoring.c **** 
 557:C:/Workspace/FW_Platform2_5/trunk/PlatformLibrary/LIB_SecurityCheck\LIB_TaskMonitoring.c **** \param  	[in], taskID ID del task
 558:C:/Workspace/FW_Platform2_5/trunk/PlatformLibrary/LIB_SecurityCheck\LIB_TaskMonitoring.c **** 
 559:C:/Workspace/FW_Platform2_5/trunk/PlatformLibrary/LIB_SecurityCheck\LIB_TaskMonitoring.c **** \return 	checkActTaskError_t
 560:C:/Workspace/FW_Platform2_5/trunk/PlatformLibrary/LIB_SecurityCheck\LIB_TaskMonitoring.c **** 
 561:C:/Workspace/FW_Platform2_5/trunk/PlatformLibrary/LIB_SecurityCheck\LIB_TaskMonitoring.c **** \retval		TASK_SUSPENDED              task is suspended - no check is done
 562:C:/Workspace/FW_Platform2_5/trunk/PlatformLibrary/LIB_SecurityCheck\LIB_TaskMonitoring.c **** \retval		TASK_TIMEOUT_NOT_ELAPSED    task may be running but timeout isn't expired
 563:C:/Workspace/FW_Platform2_5/trunk/PlatformLibrary/LIB_SecurityCheck\LIB_TaskMonitoring.c **** \retval		TASK_NOT_ACTIVATED          task wasn't performed within timeout
 564:C:/Workspace/FW_Platform2_5/trunk/PlatformLibrary/LIB_SecurityCheck\LIB_TaskMonitoring.c **** 
 565:C:/Workspace/FW_Platform2_5/trunk/PlatformLibrary/LIB_SecurityCheck\LIB_TaskMonitoring.c **** \author 	Stefano Ughi
 566:C:/Workspace/FW_Platform2_5/trunk/PlatformLibrary/LIB_SecurityCheck\LIB_TaskMonitoring.c **** \date		Mar 28,2011
 567:C:/Workspace/FW_Platform2_5/trunk/PlatformLibrary/LIB_SecurityCheck\LIB_TaskMonitoring.c **** \version	1.0.2
 568:C:/Workspace/FW_Platform2_5/trunk/PlatformLibrary/LIB_SecurityCheck\LIB_TaskMonitoring.c **** 
 569:C:/Workspace/FW_Platform2_5/trunk/PlatformLibrary/LIB_SecurityCheck\LIB_TaskMonitoring.c **** \note       \par \b Nota 1:
 570:C:/Workspace/FW_Platform2_5/trunk/PlatformLibrary/LIB_SecurityCheck\LIB_TaskMonitoring.c **** 			documentation by Stefano Ughi
 571:C:/Workspace/FW_Platform2_5/trunk/PlatformLibrary/LIB_SecurityCheck\LIB_TaskMonitoring.c **** 
 572:C:/Workspace/FW_Platform2_5/trunk/PlatformLibrary/LIB_SecurityCheck\LIB_TaskMonitoring.c **** */
 573:C:/Workspace/FW_Platform2_5/trunk/PlatformLibrary/LIB_SecurityCheck\LIB_TaskMonitoring.c **** 
 574:C:/Workspace/FW_Platform2_5/trunk/PlatformLibrary/LIB_SecurityCheck\LIB_TaskMonitoring.c **** static checkActTaskError_t CheckActTask( uint8_t taskID )
 575:C:/Workspace/FW_Platform2_5/trunk/PlatformLibrary/LIB_SecurityCheck\LIB_TaskMonitoring.c **** {
 576:C:/Workspace/FW_Platform2_5/trunk/PlatformLibrary/LIB_SecurityCheck\LIB_TaskMonitoring.c **** 	checkActTaskError_t retValue = TASK_SUSPENDED;
 577:C:/Workspace/FW_Platform2_5/trunk/PlatformLibrary/LIB_SecurityCheck\LIB_TaskMonitoring.c **** 
 578:C:/Workspace/FW_Platform2_5/trunk/PlatformLibrary/LIB_SecurityCheck\LIB_TaskMonitoring.c **** 	if (CheckTasks[taskID].configDone)
 579:C:/Workspace/FW_Platform2_5/trunk/PlatformLibrary/LIB_SecurityCheck\LIB_TaskMonitoring.c **** 	{
 580:C:/Workspace/FW_Platform2_5/trunk/PlatformLibrary/LIB_SecurityCheck\LIB_TaskMonitoring.c **** 
 581:C:/Workspace/FW_Platform2_5/trunk/PlatformLibrary/LIB_SecurityCheck\LIB_TaskMonitoring.c **** 		if ( CheckTasks[taskID].taskActive ) /* activity started*/
 582:C:/Workspace/FW_Platform2_5/trunk/PlatformLibrary/LIB_SecurityCheck\LIB_TaskMonitoring.c **** 		{
 583:C:/Workspace/FW_Platform2_5/trunk/PlatformLibrary/LIB_SecurityCheck\LIB_TaskMonitoring.c **** 			if ( CheckTasks[taskID].timeoutCounter < TASK_TIMEOUT(taskID) )
  45                             		.loc 1 583 0
  46 0019 FB 52 00 00 00 00       		mov.L	#_CheckTasksMaxTimeout, r5
  47 001f 03                      		.balign 2,3,2
  48                             	.L5:
  49                             	.LVL3:
 578:C:/Workspace/FW_Platform2_5/trunk/PlatformLibrary/LIB_SecurityCheck\LIB_TaskMonitoring.c **** 	if (CheckTasks[taskID].configDone)
  50                             		.loc 1 578 0
  51 0020 FF 23 EE                		add	r14, r14, r3
  52 0023 70 33 00 00 00 00       		add	#_CheckTasks, r3
  53 0029 B0 3B                   		movu.B	1[r3], r3
  54 002b FD 87 32                		shlr	#7, r3, r2
  55 002e 20 21                   		beq	.L9
 581:C:/Workspace/FW_Platform2_5/trunk/PlatformLibrary/LIB_SecurityCheck\LIB_TaskMonitoring.c **** 		if ( CheckTasks[taskID].taskActive ) /* activity started*/
  56                             		.loc 1 581 0
  57 0030 FD 74 C3 40             		tst	#64, r3
  58 0034 20 1B                   		beq	.L9
  59                             		.loc 1 583 0
  60 0036 CC 43                   		mov.B	[r4], r3
  61 0038 FE CE 52                		movu.B	[r14,r5], r2
  62 003b 5B 31                   		movu.B	r3, r1
  63 003d 47 21                   		cmp	r2, r1
  64 003f 22 14                   		bgeu	.L10
 584:C:/Workspace/FW_Platform2_5/trunk/PlatformLibrary/LIB_SecurityCheck\LIB_TaskMonitoring.c **** 			{
 585:C:/Workspace/FW_Platform2_5/trunk/PlatformLibrary/LIB_SecurityCheck\LIB_TaskMonitoring.c **** 				/* Task not done but timeout not expired */
 586:C:/Workspace/FW_Platform2_5/trunk/PlatformLibrary/LIB_SecurityCheck\LIB_TaskMonitoring.c **** 				CheckTasks[taskID].timeoutCounter ++;
  65                             		.loc 1 586 0
  66 0041 62 13                   		add	#1, r3
  67 0043 C3 43                   		mov.B	r3, [r4]
  68                             	.LVL4:
  69 0045 03                      		.balign 2,3,1
  70                             	.L7:
  71 0046 62 1E                   		add	#1, r14
  72 0048 62 24                   		add	#2, r4
  73                             	.LBE11:
  74                             	.LBE10:
 184:C:/Workspace/FW_Platform2_5/trunk/PlatformLibrary/LIB_SecurityCheck\LIB_TaskMonitoring.c **** 		for ( taskToCheck = 0; taskToCheck < NUM_TASKS_TO_MONITOR; taskToCheck ++ )
  75                             		.loc 1 184 0
  76 004a 61 5E                   		cmp	#5, r14
  77 004c 21 D4                   		bne	.L5
  78 004e 02                      		rts
  79                             	.LVL5:
  80                             	.L9:
  81                             	.LBB14:
  82                             	.LBB12:
 576:C:/Workspace/FW_Platform2_5/trunk/PlatformLibrary/LIB_SecurityCheck\LIB_TaskMonitoring.c **** 	checkActTaskError_t retValue = TASK_SUSPENDED;
  83                             		.loc 1 576 0
  84 004f 66 13                   		mov	#1, r3
  85 0051 2E 05                   		bra	.L4
  86                             	.L10:
 587:C:/Workspace/FW_Platform2_5/trunk/PlatformLibrary/LIB_SecurityCheck\LIB_TaskMonitoring.c **** 				retValue = TASK_TIMEOUT_NOT_ELAPSED;
 588:C:/Workspace/FW_Platform2_5/trunk/PlatformLibrary/LIB_SecurityCheck\LIB_TaskMonitoring.c **** 			}
 589:C:/Workspace/FW_Platform2_5/trunk/PlatformLibrary/LIB_SecurityCheck\LIB_TaskMonitoring.c **** 			else {
 590:C:/Workspace/FW_Platform2_5/trunk/PlatformLibrary/LIB_SecurityCheck\LIB_TaskMonitoring.c **** 				retValue = TASK_NOT_ACTIVATED;
  87                             		.loc 1 590 0
  88 0053 66 03                   		mov	#0, r3
  89 0055 03                      		.balign 2,3,2
  90                             	.L4:
  91                             	.LVL6:
 591:C:/Workspace/FW_Platform2_5/trunk/PlatformLibrary/LIB_SecurityCheck\LIB_TaskMonitoring.c **** 			}
 592:C:/Workspace/FW_Platform2_5/trunk/PlatformLibrary/LIB_SecurityCheck\LIB_TaskMonitoring.c **** 		}
 593:C:/Workspace/FW_Platform2_5/trunk/PlatformLibrary/LIB_SecurityCheck\LIB_TaskMonitoring.c **** 		else
 594:C:/Workspace/FW_Platform2_5/trunk/PlatformLibrary/LIB_SecurityCheck\LIB_TaskMonitoring.c **** 		{
 595:C:/Workspace/FW_Platform2_5/trunk/PlatformLibrary/LIB_SecurityCheck\LIB_TaskMonitoring.c **** 			/* No action required */
 596:C:/Workspace/FW_Platform2_5/trunk/PlatformLibrary/LIB_SecurityCheck\LIB_TaskMonitoring.c **** 		}
 597:C:/Workspace/FW_Platform2_5/trunk/PlatformLibrary/LIB_SecurityCheck\LIB_TaskMonitoring.c **** 
 598:C:/Workspace/FW_Platform2_5/trunk/PlatformLibrary/LIB_SecurityCheck\LIB_TaskMonitoring.c **** 	}
 599:C:/Workspace/FW_Platform2_5/trunk/PlatformLibrary/LIB_SecurityCheck\LIB_TaskMonitoring.c **** 	else
 600:C:/Workspace/FW_Platform2_5/trunk/PlatformLibrary/LIB_SecurityCheck\LIB_TaskMonitoring.c **** 	{
 601:C:/Workspace/FW_Platform2_5/trunk/PlatformLibrary/LIB_SecurityCheck\LIB_TaskMonitoring.c **** 		/* No action required */
 602:C:/Workspace/FW_Platform2_5/trunk/PlatformLibrary/LIB_SecurityCheck\LIB_TaskMonitoring.c **** 	}
 603:C:/Workspace/FW_Platform2_5/trunk/PlatformLibrary/LIB_SecurityCheck\LIB_TaskMonitoring.c **** 
 604:C:/Workspace/FW_Platform2_5/trunk/PlatformLibrary/LIB_SecurityCheck\LIB_TaskMonitoring.c **** 	/* If waiting for timeout, skip reset flags */
 605:C:/Workspace/FW_Platform2_5/trunk/PlatformLibrary/LIB_SecurityCheck\LIB_TaskMonitoring.c **** 	if (retValue != TASK_TIMEOUT_NOT_ELAPSED) {
 606:C:/Workspace/FW_Platform2_5/trunk/PlatformLibrary/LIB_SecurityCheck\LIB_TaskMonitoring.c **** 		CheckTasks[taskID].taskEntered = 0;
  92                             		.loc 1 606 0
  93 0056 FF 22 EE                		add	r14, r14, r2
  94 0059 70 22 00 00 00 00       		add	#_CheckTasks, r2
  95 005f 88 29                   		mov.B	1[r2], r1
  96                             	.LBE12:
  97                             	.LBE14:
 186:C:/Workspace/FW_Platform2_5/trunk/PlatformLibrary/LIB_SecurityCheck\LIB_TaskMonitoring.c **** 			if ( CheckActTask( taskToCheck ) == TASK_NOT_ACTIVATED )
  98                             		.loc 1 186 0
  99 0061 5B 33                   		movu.B	r3, r3
 100                             	.LBB15:
 101                             	.LBB13:
 102                             		.loc 1 606 0
 103 0063 7A 51                   		bclr	#5, r1
 104 0065 80 29                   		mov.B	r1, 1[r2]
 105                             	.LBE13:
 106                             	.LBE15:
 186:C:/Workspace/FW_Platform2_5/trunk/PlatformLibrary/LIB_SecurityCheck\LIB_TaskMonitoring.c **** 			if ( CheckActTask( taskToCheck ) == TASK_NOT_ACTIVATED )
 107                             		.loc 1 186 0
 108 0067 61 03                   		cmp	#0, r3
 109 0069 21 DD                   		bne	.L7
 110 006b 2E A1                   		bra	.L6
 111                             	.LFE1:
 113 006d 03                      		.section	.text.LIB_TaskMonitoringConfig,"ax",@progbits
 114                             		.global	_LIB_TaskMonitoringConfig
 116                             	_LIB_TaskMonitoringConfig:
 117                             	.LFB3:
 234:C:/Workspace/FW_Platform2_5/trunk/PlatformLibrary/LIB_SecurityCheck\LIB_TaskMonitoring.c **** {
 118                             		.loc 1 234 0
 119                             	.LVL7:
 235:C:/Workspace/FW_Platform2_5/trunk/PlatformLibrary/LIB_SecurityCheck\LIB_TaskMonitoring.c ****   if( taskID < NUM_TASKS_TO_MONITOR )
 120                             		.loc 1 235 0
 121 0000 5B 11                   		movu.B	r1, r1
 122 0002 61 41                   		cmp	#4, r1
 123 0004 24 25                   		bgtu	.L17
 238:C:/Workspace/FW_Platform2_5/trunk/PlatformLibrary/LIB_SecurityCheck\LIB_TaskMonitoring.c **** 	 if(CheckTasks[taskID].taskConfigured)
 124                             		.loc 1 238 0
 125 0006 4B 11                   		add	r1, r1
 126                             	.LVL8:
 127 0008 70 1E 00 00 00 00       		add	#_CheckTasks, r1, r14
 128 000e 59 E4 01                		movu.B	1[r14], r4
 129 0011 68 44                   		shlr	#4, r4
 130 0013 64 14                   		and	#1, r4
 131 0015 21 1D                   		bne	.L16
 245:C:/Workspace/FW_Platform2_5/trunk/PlatformLibrary/LIB_SecurityCheck\LIB_TaskMonitoring.c ****       CheckTasks[taskID].timeoutCounter = 0;
 132                             		.loc 1 245 0
 133 0017 C3 E4                   		mov.B	r4, [r14]
 246:C:/Workspace/FW_Platform2_5/trunk/PlatformLibrary/LIB_SecurityCheck\LIB_TaskMonitoring.c ****       CheckTasks[taskID].configDone = 1;
 134                             		.loc 1 246 0
 135 0019 CD E4 01                		mov.B	1[r14], r4
 248:C:/Workspace/FW_Platform2_5/trunk/PlatformLibrary/LIB_SecurityCheck\LIB_TaskMonitoring.c ****       CheckTasks[taskID].taskActive = ( TRUE == state );
 136                             		.loc 1 248 0
 137 001c 61 13                   		cmp	#1, r3
 246:C:/Workspace/FW_Platform2_5/trunk/PlatformLibrary/LIB_SecurityCheck\LIB_TaskMonitoring.c ****       CheckTasks[taskID].configDone = 1;
 138                             		.loc 1 246 0
 139 001e 78 74                   		bset	#7, r4
 248:C:/Workspace/FW_Platform2_5/trunk/PlatformLibrary/LIB_SecurityCheck\LIB_TaskMonitoring.c ****       CheckTasks[taskID].taskActive = ( TRUE == state );
 140                             		.loc 1 248 0
 141 0020 FD E6 04                		bmeq	#6, r4
 250:C:/Workspace/FW_Platform2_5/trunk/PlatformLibrary/LIB_SecurityCheck\LIB_TaskMonitoring.c ****       CheckTasks[taskID].taskConfigured = 1;
 142                             		.loc 1 250 0
 143 0023 78 44                   		bset	#4, r4
 144 0025 C7 E4 01                		mov.B	r4, 1[r14]
 145 0028 02                      		rts
 146                             	.L17:
 147                             	.LVL9:
 148                             	.LBB16:
 149                             	.LBB17:
 548:C:/Workspace/FW_Platform2_5/trunk/PlatformLibrary/LIB_SecurityCheck\LIB_TaskMonitoring.c **** 	LIB_TaskMonitorError = err;
 150                             		.loc 1 548 0
 151 0029 FB E2 00 00 00 00       		mov.L	#_LIB_TaskMonitorError, r14
 152 002f F8 E6 03                		mov.L	#3, [r14]
 153                             	.LVL10:
 154                             	.L16:
 155 0032 02                      		rts
 156                             	.LBE17:
 157                             	.LBE16:
 158                             	.LFE3:
 160                             		.section	.text.LIB_TaskStartActivity,"ax",@progbits
 161                             		.global	_LIB_TaskStartActivity
 163                             	_LIB_TaskStartActivity:
 164                             	.LFB4:
 264:C:/Workspace/FW_Platform2_5/trunk/PlatformLibrary/LIB_SecurityCheck\LIB_TaskMonitoring.c **** {
 165                             		.loc 1 264 0
 166                             	.LVL11:
 267:C:/Workspace/FW_Platform2_5/trunk/PlatformLibrary/LIB_SecurityCheck\LIB_TaskMonitoring.c ****   if ((CheckTasks[taskID].configDone) && (CheckTasks[taskID].taskActive)
 167                             		.loc 1 267 0
 168 0000 5B 11                   		movu.B	r1, r1
 169 0002 4B 11                   		add	r1, r1
 170                             	.LVL12:
 171 0004 70 11 00 00 00 00       		add	#_CheckTasks, r1
 172 000a 59 1E 01                		movu.B	1[r1], r14
 173 000d FD 87 E4                		shlr	#7, r14, r4
 174 0010 20 17                   		beq	.L20
 267:C:/Workspace/FW_Platform2_5/trunk/PlatformLibrary/LIB_SecurityCheck\LIB_TaskMonitoring.c ****   if ((CheckTasks[taskID].configDone) && (CheckTasks[taskID].taskActive)
 175                             		.loc 1 267 0 is_stmt 0 discriminator 1
 176 0012 FD 74 CE 40             		tst	#64, r14
 177 0016 20 11                   		beq	.L20
 268:C:/Workspace/FW_Platform2_5/trunk/PlatformLibrary/LIB_SecurityCheck\LIB_TaskMonitoring.c **** 		  && (!CheckTasks[taskID].taskEntered))
 178                             		.loc 1 268 0 is_stmt 1
 179 0018 FD 74 CE 20             		tst	#32, r14
 180 001c 21 0B                   		bne	.L20
 273:C:/Workspace/FW_Platform2_5/trunk/PlatformLibrary/LIB_SecurityCheck\LIB_TaskMonitoring.c ****       CheckTasks[taskID].taskEntered = 1;
 181                             		.loc 1 273 0
 182 001e CD 1E 01                		mov.B	1[r1], r14
 183 0021 78 5E                   		bset	#5, r14
 184 0023 C7 1E 01                		mov.B	r14, 1[r1]
 185 0026 02                      		rts
 186                             	.L20:
 187                             	.LVL13:
 188                             	.LBB18:
 189                             	.LBB19:
 548:C:/Workspace/FW_Platform2_5/trunk/PlatformLibrary/LIB_SecurityCheck\LIB_TaskMonitoring.c **** 	LIB_TaskMonitorError = err;
 190                             		.loc 1 548 0
 191 0027 FB E2 00 00 00 00       		mov.L	#_LIB_TaskMonitorError, r14
 192 002d F8 E6 01                		mov.L	#1, [r14]
 193 0030 02                      		rts
 194                             	.LBE19:
 195                             	.LBE18:
 196                             	.LFE4:
 198                             		.section	.text.LIB_TaskEndActivity,"ax",@progbits
 199                             		.global	_LIB_TaskEndActivity
 201                             	_LIB_TaskEndActivity:
 202                             	.LFB5:
 288:C:/Workspace/FW_Platform2_5/trunk/PlatformLibrary/LIB_SecurityCheck\LIB_TaskMonitoring.c **** {
 203                             		.loc 1 288 0
 204                             	.LVL14:
 291:C:/Workspace/FW_Platform2_5/trunk/PlatformLibrary/LIB_SecurityCheck\LIB_TaskMonitoring.c **** 	if ((CheckTasks[taskID].configDone) && (CheckTasks[taskID].taskEntered))
 205                             		.loc 1 291 0
 206 0000 5B 11                   		movu.B	r1, r1
 207 0002 4B 11                   		add	r1, r1
 208                             	.LVL15:
 209 0004 70 11 00 00 00 00       		add	#_CheckTasks, r1
 210 000a 59 1E 01                		movu.B	1[r1], r14
 211 000d FD 87 E4                		shlr	#7, r14, r4
 212 0010 20 14                   		beq	.L29
 291:C:/Workspace/FW_Platform2_5/trunk/PlatformLibrary/LIB_SecurityCheck\LIB_TaskMonitoring.c **** 	if ((CheckTasks[taskID].configDone) && (CheckTasks[taskID].taskEntered))
 213                             		.loc 1 291 0 is_stmt 0 discriminator 1
 214 0012 FD 74 CE 20             		tst	#32, r14
 215 0016 20 0E                   		beq	.L29
 295:C:/Workspace/FW_Platform2_5/trunk/PlatformLibrary/LIB_SecurityCheck\LIB_TaskMonitoring.c **** 		CheckTasks[taskID].taskEntered = 0;
 216                             		.loc 1 295 0 is_stmt 1
 217 0018 CD 1E 01                		mov.B	1[r1], r14
 305:C:/Workspace/FW_Platform2_5/trunk/PlatformLibrary/LIB_SecurityCheck\LIB_TaskMonitoring.c ****       CheckTasks[taskID].timeoutCounter = 0;
 218                             		.loc 1 305 0
 219 001b 3C 10 00                		mov.B	#0, [r1]
 295:C:/Workspace/FW_Platform2_5/trunk/PlatformLibrary/LIB_SecurityCheck\LIB_TaskMonitoring.c **** 		CheckTasks[taskID].taskEntered = 0;
 220                             		.loc 1 295 0
 221 001e 7A 5E                   		bclr	#5, r14
 222 0020 C7 1E 01                		mov.B	r14, 1[r1]
 305:C:/Workspace/FW_Platform2_5/trunk/PlatformLibrary/LIB_SecurityCheck\LIB_TaskMonitoring.c ****       CheckTasks[taskID].timeoutCounter = 0;
 223                             		.loc 1 305 0
 224 0023 02                      		rts
 225                             	.L29:
 226                             	.LVL16:
 227                             	.LBB20:
 228                             	.LBB21:
 548:C:/Workspace/FW_Platform2_5/trunk/PlatformLibrary/LIB_SecurityCheck\LIB_TaskMonitoring.c **** 	LIB_TaskMonitorError = err;
 229                             		.loc 1 548 0
 230 0024 FB E2 00 00 00 00       		mov.L	#_LIB_TaskMonitorError, r14
 231 002a F8 E6 02                		mov.L	#2, [r14]
 232 002d 02                      		rts
 233                             	.LBE21:
 234                             	.LBE20:
 235                             	.LFE5:
 237                             		.section	.text.LIB_HelloTaskMonitor,"ax",@progbits
 238                             		.global	_LIB_HelloTaskMonitor
 240                             	_LIB_HelloTaskMonitor:
 241                             	.LFB2:
 221:C:/Workspace/FW_Platform2_5/trunk/PlatformLibrary/LIB_SecurityCheck\LIB_TaskMonitoring.c **** {
 242                             		.loc 1 221 0
 243                             	.LVL17:
 244 0000 7E A7                   		push.l	r7
 245                             	.LCFI0:
 221:C:/Workspace/FW_Platform2_5/trunk/PlatformLibrary/LIB_SecurityCheck\LIB_TaskMonitoring.c **** {
 246                             		.loc 1 221 0
 247 0002 CF 17                   		mov.B	r1, r7
 222:C:/Workspace/FW_Platform2_5/trunk/PlatformLibrary/LIB_SecurityCheck\LIB_TaskMonitoring.c ****   LIB_TaskStartActivity(taskID);
 248                             		.loc 1 222 0
 249 0004 05 00 00 00             		bsr	_LIB_TaskStartActivity
 250                             	.LVL18:
 223:C:/Workspace/FW_Platform2_5/trunk/PlatformLibrary/LIB_SecurityCheck\LIB_TaskMonitoring.c ****   LIB_TaskEndActivity(taskID);
 251                             		.loc 1 223 0
 252 0008 CF 71                   		mov.B	r7, r1
 224:C:/Workspace/FW_Platform2_5/trunk/PlatformLibrary/LIB_SecurityCheck\LIB_TaskMonitoring.c **** }
 253                             		.loc 1 224 0
 254 000a 7E B7                   		pop	r7
 255                             	.LVL19:
 223:C:/Workspace/FW_Platform2_5/trunk/PlatformLibrary/LIB_SecurityCheck\LIB_TaskMonitoring.c ****   LIB_TaskEndActivity(taskID);
 256                             		.loc 1 223 0
 257 000c 04 00 00 00             		bra	_LIB_TaskEndActivity
 258                             	.LVL20:
 259                             	.LFE2:
 261                             		.section	.text.LIB_SetTask,"ax",@progbits
 262                             		.global	_LIB_SetTask
 264                             	_LIB_SetTask:
 265                             	.LFB6:
 337:C:/Workspace/FW_Platform2_5/trunk/PlatformLibrary/LIB_SecurityCheck\LIB_TaskMonitoring.c **** {
 266                             		.loc 1 337 0
 267                             	.LVL21:
 339:C:/Workspace/FW_Platform2_5/trunk/PlatformLibrary/LIB_SecurityCheck\LIB_TaskMonitoring.c ****   if (CheckTasks[taskID].configDone)
 268                             		.loc 1 339 0
 269 0000 5B 11                   		movu.B	r1, r1
 270 0002 4B 11                   		add	r1, r1
 271                             	.LVL22:
 272 0004 70 11 00 00 00 00       		add	#_CheckTasks, r1
 273 000a 59 1E 01                		movu.B	1[r1], r14
 274 000d 68 7E                   		shlr	#7, r14
 275 000f 20 0D                   		beq	.L39
 344:C:/Workspace/FW_Platform2_5/trunk/PlatformLibrary/LIB_SecurityCheck\LIB_TaskMonitoring.c ****       CheckTasks[taskID].taskActive = (state == TRUE);
 276                             		.loc 1 344 0
 277 0011 CD 1E 01                		mov.B	1[r1], r14
 278 0014 61 12                   		cmp	#1, r2
 279 0016 FD E6 0E                		bmeq	#6, r14
 280 0019 C7 1E 01                		mov.B	r14, 1[r1]
 281                             	.L39:
 282 001c 02                      		rts
 283                             	.LFE6:
 285                             		.section	.text.LIB_IRQMonitor_Enter,"ax",@progbits
 286                             		.global	_LIB_IRQMonitor_Enter
 288                             	_LIB_IRQMonitor_Enter:
 289                             	.LFB7:
 373:C:/Workspace/FW_Platform2_5/trunk/PlatformLibrary/LIB_SecurityCheck\LIB_TaskMonitoring.c **** {
 290                             		.loc 1 373 0
 291 0000 7E A7                   		push.l	r7
 292                             	.LCFI1:
 379:C:/Workspace/FW_Platform2_5/trunk/PlatformLibrary/LIB_SecurityCheck\LIB_TaskMonitoring.c **** 	PLT_ERROR_FATAL_IF(IRQMonitorStatus.EnterCntr > CONFIG_LIB_CLASS_B_IRQ_CHECK_MAXVALUE, PLT_ERROR_I
 293                             		.loc 1 379 0
 294 0002 FB 72 00 00 00 00       		mov.L	#_IRQMonitorStatus, r7
 295 0008 5C 7E                   		movu.W	[r7], r14
 296 000a 75 5E 8C                		cmp	#0x8c, r14
 297 000d 25 09                   		bleu	.L45
 379:C:/Workspace/FW_Platform2_5/trunk/PlatformLibrary/LIB_SecurityCheck\LIB_TaskMonitoring.c **** 	PLT_ERROR_FATAL_IF(IRQMonitorStatus.EnterCntr > CONFIG_LIB_CLASS_B_IRQ_CHECK_MAXVALUE, PLT_ERROR_I
 298                             		.loc 1 379 0 is_stmt 0 discriminator 1
 299 000f 75 41 58                		mov.L	#0x58, r1
 300 0012 05 00 00 00             		bsr	_LIB_Error_Fatal_Handler
 301                             	.LVL23:
 302                             		.balign 2,3,5
 303                             	.L45:
 383:C:/Workspace/FW_Platform2_5/trunk/PlatformLibrary/LIB_SecurityCheck\LIB_TaskMonitoring.c **** 	IRQMonitorStatus.EnterCntr++;
 304                             		.loc 1 383 0 is_stmt 1
 305 0016 DC 7E                   		mov.W	[r7], r14
 306 0018 62 1E                   		add	#1, r14
 307 001a D3 7E                   		mov.W	r14, [r7]
 385:C:/Workspace/FW_Platform2_5/trunk/PlatformLibrary/LIB_SecurityCheck\LIB_TaskMonitoring.c **** }
 308                             		.loc 1 385 0
 309 001c 3F 77 01                		rtsd	#4, r7-r7
 310                             	.LFE7:
 312 001f 03                      		.section	.text.LIB_IRQMonitor_Exit,"ax",@progbits
 313                             		.global	_LIB_IRQMonitor_Exit
 315                             	_LIB_IRQMonitor_Exit:
 316                             	.LFB8:
 402:C:/Workspace/FW_Platform2_5/trunk/PlatformLibrary/LIB_SecurityCheck\LIB_TaskMonitoring.c **** {
 317                             		.loc 1 402 0
 404:C:/Workspace/FW_Platform2_5/trunk/PlatformLibrary/LIB_SecurityCheck\LIB_TaskMonitoring.c **** 	IRQMonitorStatus.ExitCntr++;
 318                             		.loc 1 404 0
 319 0000 FB E2 00 00 00 00       		mov.L	#_IRQMonitorStatus, r14
 320 0006 DD E4 01                		mov.W	2[r14], r4
 321 0009 62 14                   		add	#1, r4
 322 000b D7 E4 01                		mov.W	r4, 2[r14]
 323 000e 02                      		rts
 324                             	.LFE8:
 326                             		.section	.text.LIB_IRQMonitor_Init,"ax",@progbits
 327                             		.global	_LIB_IRQMonitor_Init
 329                             	_LIB_IRQMonitor_Init:
 330                             	.LFB9:
 428:C:/Workspace/FW_Platform2_5/trunk/PlatformLibrary/LIB_SecurityCheck\LIB_TaskMonitoring.c **** {
 331                             		.loc 1 428 0
 430:C:/Workspace/FW_Platform2_5/trunk/PlatformLibrary/LIB_SecurityCheck\LIB_TaskMonitoring.c **** 	IRQMonitorStatus.EnterCntr = CONFIG_LIB_CLASS_B_IRQ_CHECK_MINVALUE;
 332                             		.loc 1 430 0
 333 0000 FB E2 00 00 00 00       		mov.L	#_IRQMonitorStatus, r14
 334 0006 F8 E5 01                		mov.W	#1, [r14]
 431:C:/Workspace/FW_Platform2_5/trunk/PlatformLibrary/LIB_SecurityCheck\LIB_TaskMonitoring.c **** 	IRQMonitorStatus.ExitCntr = CONFIG_LIB_CLASS_B_IRQ_CHECK_MINVALUE;
 335                             		.loc 1 431 0
 336 0009 F9 E5 01 01             		mov.W	#1, 2[r14]
 432:C:/Workspace/FW_Platform2_5/trunk/PlatformLibrary/LIB_SecurityCheck\LIB_TaskMonitoring.c **** 	IRQMonitorStatus.fltCntr = 0;
 337                             		.loc 1 432 0
 338 000d F9 E5 02 00             		mov.W	#0, 4[r14]
 433:C:/Workspace/FW_Platform2_5/trunk/PlatformLibrary/LIB_SecurityCheck\LIB_TaskMonitoring.c **** 	IRQMonitorStatus.maxIntrCntr = 0;
 339                             		.loc 1 433 0
 340 0011 F9 E5 03 00             		mov.W	#0, 6[r14]
 341 0015 02                      		rts
 342                             	.LFE9:
 344                             		.section	.text.LIB_IRQMonitor,"ax",@progbits
 345                             		.global	_LIB_IRQMonitor
 347                             	_LIB_IRQMonitor:
 348                             	.LFB10:
 460:C:/Workspace/FW_Platform2_5/trunk/PlatformLibrary/LIB_SecurityCheck\LIB_TaskMonitoring.c **** {
 349                             		.loc 1 460 0
 350 0000 6E 7A                   		pushm	r7-r10
 351                             	.LCFI2:
 461:C:/Workspace/FW_Platform2_5/trunk/PlatformLibrary/LIB_SecurityCheck\LIB_TaskMonitoring.c **** 	EnterCriticalSection();
 352                             		.loc 1 461 0
 353 0002 05 00 00 00             		bsr	_OS_DisableInterrupt
 354 0006 FB 72 00 00 00 00       		mov.L	#_OS_Global, r7
 355 000c CD 7E 01                		mov.B	1[r7], r14
 356 000f 62 1E                   		add	#1, r14
 357 0011 C7 7E 01                		mov.B	r14, 1[r7]
 485:C:/Workspace/FW_Platform2_5/trunk/PlatformLibrary/LIB_SecurityCheck\LIB_TaskMonitoring.c **** 	PLT_ERROR_FATAL_IF(IRQMonitorStatus.EnterCntr != IRQMonitorStatus.ExitCntr, PLT_ERROR_IRQMON_EXEC_
 358                             		.loc 1 485 0
 359 0014 FB E2 00 00 00 00       		mov.L	#_IRQMonitorStatus, r14
 360 001a 5C E3                   		movu.W	[r14], r3
 361 001c 5D E4 01                		movu.W	2[r14], r4
 362 001f EF E7                   		mov.L	r14, r7
 363 0021 47 43                   		cmp	r4, r3
 364 0023 20 09                   		beq	.L50
 485:C:/Workspace/FW_Platform2_5/trunk/PlatformLibrary/LIB_SecurityCheck\LIB_TaskMonitoring.c **** 	PLT_ERROR_FATAL_IF(IRQMonitorStatus.EnterCntr != IRQMonitorStatus.ExitCntr, PLT_ERROR_IRQMON_EXEC_
 365                             		.loc 1 485 0 is_stmt 0 discriminator 1
 366 0025 75 41 5A                		mov.L	#0x5a, r1
 367 0028 05 00 00 00             		bsr	_LIB_Error_Fatal_Handler
 368                             		.balign 2,3,3
 369                             	.L50:
 490:C:/Workspace/FW_Platform2_5/trunk/PlatformLibrary/LIB_SecurityCheck\LIB_TaskMonitoring.c **** 	if (IRQMonitorStatus.EnterCntr < CONFIG_LIB_CLASS_B_IRQ_CHECK_MINVALUE)
 370                             		.loc 1 490 0 is_stmt 1
 371 002c 5C 77                   		movu.W	[r7], r7
 372 002e FB E2 00 00 00 00       		mov.L	#_IRQMonitorStatus, r14
 373 0034 61 07                   		cmp	#0, r7
 492:C:/Workspace/FW_Platform2_5/trunk/PlatformLibrary/LIB_SecurityCheck\LIB_TaskMonitoring.c **** 		IRQMonitorStatus.fltCntr += CONFIG_LIB_CLASS_B_IRQ_FLTR_INCR;
 374                             		.loc 1 492 0
 375 0036 DD E7 02                		mov.W	4[r14], r7
 490:C:/Workspace/FW_Platform2_5/trunk/PlatformLibrary/LIB_SecurityCheck\LIB_TaskMonitoring.c **** 	if (IRQMonitorStatus.EnterCntr < CONFIG_LIB_CLASS_B_IRQ_CHECK_MINVALUE)
 376                             		.loc 1 490 0
 377 0039 21 08                   		bne	.L51
 492:C:/Workspace/FW_Platform2_5/trunk/PlatformLibrary/LIB_SecurityCheck\LIB_TaskMonitoring.c **** 		IRQMonitorStatus.fltCntr += CONFIG_LIB_CLASS_B_IRQ_FLTR_INCR;
 378                             		.loc 1 492 0
 379 003b 72 77 E8 03             		add	#0x3e8, r7
 380 003f 2E 0B                   		bra	.L60
 381                             	.L51:
 494:C:/Workspace/FW_Platform2_5/trunk/PlatformLibrary/LIB_SecurityCheck\LIB_TaskMonitoring.c **** 	else if (IRQMonitorStatus.fltCntr > 0)
 382                             		.loc 1 494 0
 383 0041 5F 74                   		movu.W	r7, r4
 384 0043 61 04                   		cmp	#0, r4
 385 0045 20 09                   		beq	.L52
 496:C:/Workspace/FW_Platform2_5/trunk/PlatformLibrary/LIB_SecurityCheck\LIB_TaskMonitoring.c **** 		IRQMonitorStatus.fltCntr--;
 386                             		.loc 1 496 0
 387 0047 60 17                   		sub	#1, r7
 388 0049 03                      		.balign 2,3,5
 389                             	.L60:
 390 004a D7 E7 02                		mov.W	r7, 4[r14]
 391 004d 03                      		.balign 2,3,5
 392                             	.L52:
 504:C:/Workspace/FW_Platform2_5/trunk/PlatformLibrary/LIB_SecurityCheck\LIB_TaskMonitoring.c **** 	PLT_ERROR_FATAL_IF(IRQMonitorStatus.fltCntr > CONFIG_LIB_CLASS_B_IRQ_FLTR_MAXTH, PLT_ERROR_IRQMON_
 393                             		.loc 1 504 0
 394 004e FB 72 00 00 00 00       		mov.L	#_IRQMonitorStatus, r7
 395 0054 5D 7E 02                		movu.W	4[r7], r14
 396 0057 76 0E 88 13             		cmp	#0x1388, r14
 397 005b 25 09                   		bleu	.L53
 504:C:/Workspace/FW_Platform2_5/trunk/PlatformLibrary/LIB_SecurityCheck\LIB_TaskMonitoring.c **** 	PLT_ERROR_FATAL_IF(IRQMonitorStatus.fltCntr > CONFIG_LIB_CLASS_B_IRQ_FLTR_MAXTH, PLT_ERROR_IRQMON_
 398                             		.loc 1 504 0 is_stmt 0 discriminator 1
 399 005d 75 41 59                		mov.L	#0x59, r1
 400 0060 05 00 00 00             		bsr	_LIB_Error_Fatal_Handler
 401                             		.balign 2,3,5
 402                             	.L53:
 509:C:/Workspace/FW_Platform2_5/trunk/PlatformLibrary/LIB_SecurityCheck\LIB_TaskMonitoring.c **** 	if (IRQMonitorStatus.EnterCntr > IRQMonitorStatus.maxIntrCntr)
 403                             		.loc 1 509 0 is_stmt 1
 404 0064 DC 7E                   		mov.W	[r7], r14
 405 0066 5F E4                   		movu.W	r14, r4
 406 0068 06 C5 74 03             		cmp	6[r7].UW, r4
 407 006c 25 0C                   		bleu	.L54
 511:C:/Workspace/FW_Platform2_5/trunk/PlatformLibrary/LIB_SecurityCheck\LIB_TaskMonitoring.c **** 		IRQMonitorStatus.maxIntrCntr = IRQMonitorStatus.EnterCntr;
 408                             		.loc 1 511 0
 409 006e FB 72 00 00 00 00       		mov.L	#_IRQMonitorStatus, r7
 410 0074 D7 7E 03                		mov.W	r14, 6[r7]
 411 0077 03                      		.balign 2,3,5
 412                             	.L54:
 515:C:/Workspace/FW_Platform2_5/trunk/PlatformLibrary/LIB_SecurityCheck\LIB_TaskMonitoring.c **** 	IRQMonitorStatus.EnterCntr = 0;
 413                             		.loc 1 515 0
 414 0078 FB 72 00 00 00 00       		mov.L	#_IRQMonitorStatus, r7
 519:C:/Workspace/FW_Platform2_5/trunk/PlatformLibrary/LIB_SecurityCheck\LIB_TaskMonitoring.c **** 	ExitCriticalSection();
 415                             		.loc 1 519 0
 416 007e FB E2 00 00 00 00       		mov.L	#_OS_Global, r14
 515:C:/Workspace/FW_Platform2_5/trunk/PlatformLibrary/LIB_SecurityCheck\LIB_TaskMonitoring.c **** 	IRQMonitorStatus.EnterCntr = 0;
 417                             		.loc 1 515 0
 418 0084 3D 70 00                		mov.W	#0, [r7]
 516:C:/Workspace/FW_Platform2_5/trunk/PlatformLibrary/LIB_SecurityCheck\LIB_TaskMonitoring.c **** 	IRQMonitorStatus.ExitCntr = 0;
 419                             		.loc 1 516 0
 420 0087 3D 71 00                		mov.W	#0, 2[r7]
 519:C:/Workspace/FW_Platform2_5/trunk/PlatformLibrary/LIB_SecurityCheck\LIB_TaskMonitoring.c **** 	ExitCriticalSection();
 421                             		.loc 1 519 0
 422 008a CD E7 01                		mov.B	1[r14], r7
 423 008d 60 17                   		sub	#1, r7
 424 008f C7 E7 01                		mov.B	r7, 1[r14]
 425 0092 5B 77                   		movu.B	r7, r7
 426 0094 61 07                   		cmp	#0, r7
 427 0096 21 08                   		bne	.L49
 521:C:/Workspace/FW_Platform2_5/trunk/PlatformLibrary/LIB_SecurityCheck\LIB_TaskMonitoring.c **** }
 428                             		.loc 1 521 0 discriminator 1
 429 0098 6F 7A                   		popm	r7-r10
 519:C:/Workspace/FW_Platform2_5/trunk/PlatformLibrary/LIB_SecurityCheck\LIB_TaskMonitoring.c **** 	ExitCriticalSection();
 430                             		.loc 1 519 0 discriminator 1
 431 009a 04 00 00 00             		bra	_OS_EnableInterrupt
 432                             	.L49:
 521:C:/Workspace/FW_Platform2_5/trunk/PlatformLibrary/LIB_SecurityCheck\LIB_TaskMonitoring.c **** }
 433                             		.loc 1 521 0
 434 009e 3F 7A 04                		rtsd	#16, r7-r10
 435                             	.LFE10:
 437                             		.comm	_IRQMonitorStatus,8,2
 438 00a1 03                      		.section	.bss.CheckTasks,"aw",@nobits
 441                             	_CheckTasks:
 442 0000 00 00 00 00 00 00 00 00 		.zero	10
 442      00 00 
 443                             		.section	.bss.LIB_TaskMonitorError,"aw",@nobits
 444                             		.balign 4
 447                             	_LIB_TaskMonitorError:
 448 0000 00 00 00 00             		.zero	4
 449                             		.section	.rodata.CheckTasksMaxTimeout,"a",@progbits
 452                             	_CheckTasksMaxTimeout:
 453 0000 0F                      		.byte	15
 454 0001 1E                      		.byte	30
 455 0002 32                      		.byte	50
 456 0003 1E                      		.byte	30
 457 0004 1E                      		.byte	30
 588                             	.Letext0:
 589                             		.file 2 "C:\\Workspace\\FW_Platform2_5\\trunk\\HAL\\HAL_General/StandardTypes.h"
 590                             		.file 3 "C:\\Workspace\\FW_Platform2_5\\trunk\\OS\\EmbOS\\RX200_GNU\\V388\\Inc/RTOS.h"
 591                             		.file 4 "C:\\Workspace\\FW_Platform2_5\\trunk\\PlatformLibrary\\LIB_Error/LIB_Error.h"
 592                             		.file 5 "C:\\Workspace\\FW_Platform2_5\\trunk\\CFG_DishWasher\\CFG_Inertia/TaskMonitor_Cfg.h"
