   1                             		.file	"PM_Consistency.c"
   2                             		.section P,"ax"
   3                             	.Ltext0:
   4                             		.section	.text.PM_Consistency_ConfigureOutputArray,"ax",@progbits
   5                             		.global	_PM_Consistency_ConfigureOutputArray
   7                             	_PM_Consistency_ConfigureOutputArray:
   8                             	.LFB0:
   9                             		.file 1 "C:/Workspace/FW_Platform2_5/trunk/ProductModules/PM_Consistency/PM_Consistency.c"
   1:C:/Workspace/FW_Platform2_5/trunk/ProductModules/PM_Consistency\PM_Consistency.c **** /*
   2:C:/Workspace/FW_Platform2_5/trunk/ProductModules/PM_Consistency\PM_Consistency.c **** Copyright (c) 2004-2005, Indesit Company, I.D.D..
   3:C:/Workspace/FW_Platform2_5/trunk/ProductModules/PM_Consistency\PM_Consistency.c **** Tutti i diritti sono riservati. All rights reserved.
   4:C:/Workspace/FW_Platform2_5/trunk/ProductModules/PM_Consistency\PM_Consistency.c **** */
   5:C:/Workspace/FW_Platform2_5/trunk/ProductModules/PM_Consistency\PM_Consistency.c **** /**
   6:C:/Workspace/FW_Platform2_5/trunk/ProductModules/PM_Consistency\PM_Consistency.c ****  * \page pageConsistency
   7:C:/Workspace/FW_Platform2_5/trunk/ProductModules/PM_Consistency\PM_Consistency.c ****  * \ingroup	PM_Consistency
   8:C:/Workspace/FW_Platform2_5/trunk/ProductModules/PM_Consistency\PM_Consistency.c ****  */
   9:C:/Workspace/FW_Platform2_5/trunk/ProductModules/PM_Consistency\PM_Consistency.c **** 
  10:C:/Workspace/FW_Platform2_5/trunk/ProductModules/PM_Consistency\PM_Consistency.c **** /**
  11:C:/Workspace/FW_Platform2_5/trunk/ProductModules/PM_Consistency\PM_Consistency.c **** \par		PM_Consistency.c
  12:C:/Workspace/FW_Platform2_5/trunk/ProductModules/PM_Consistency\PM_Consistency.c **** \n			Implementation of all functions necessary to achieve the aim.
  13:C:/Workspace/FW_Platform2_5/trunk/ProductModules/PM_Consistency\PM_Consistency.c **** \n
  14:C:/Workspace/FW_Platform2_5/trunk/ProductModules/PM_Consistency\PM_Consistency.c **** \file		PM_Consistency.c
  15:C:/Workspace/FW_Platform2_5/trunk/ProductModules/PM_Consistency\PM_Consistency.c **** \ingroup	PM_Consistency
  16:C:/Workspace/FW_Platform2_5/trunk/ProductModules/PM_Consistency\PM_Consistency.c **** \date		July 13, 2005
  17:C:/Workspace/FW_Platform2_5/trunk/ProductModules/PM_Consistency\PM_Consistency.c **** \version	01.00.00
  18:C:/Workspace/FW_Platform2_5/trunk/ProductModules/PM_Consistency\PM_Consistency.c **** \author		Camerin ALberto
  19:C:/Workspace/FW_Platform2_5/trunk/ProductModules/PM_Consistency\PM_Consistency.c **** \n
  20:C:/Workspace/FW_Platform2_5/trunk/ProductModules/PM_Consistency\PM_Consistency.c **** \n
  21:C:/Workspace/FW_Platform2_5/trunk/ProductModules/PM_Consistency\PM_Consistency.c **** \par	History:
  22:C:/Workspace/FW_Platform2_5/trunk/ProductModules/PM_Consistency\PM_Consistency.c **** \n
  23:C:/Workspace/FW_Platform2_5/trunk/ProductModules/PM_Consistency\PM_Consistency.c **** \n 		01.00.00
  24:C:/Workspace/FW_Platform2_5/trunk/ProductModules/PM_Consistency\PM_Consistency.c **** \n		July 13, 2005
  25:C:/Workspace/FW_Platform2_5/trunk/ProductModules/PM_Consistency\PM_Consistency.c **** \n		Camerin ALberto
  26:C:/Workspace/FW_Platform2_5/trunk/ProductModules/PM_Consistency\PM_Consistency.c **** \n		changes
  27:C:/Workspace/FW_Platform2_5/trunk/ProductModules/PM_Consistency\PM_Consistency.c **** \n 			Creation
  28:C:/Workspace/FW_Platform2_5/trunk/ProductModules/PM_Consistency\PM_Consistency.c **** \n
  29:C:/Workspace/FW_Platform2_5/trunk/ProductModules/PM_Consistency\PM_Consistency.c **** \n 		01.00.01
  30:C:/Workspace/FW_Platform2_5/trunk/ProductModules/PM_Consistency\PM_Consistency.c **** \n		Dec 15, 2010
  31:C:/Workspace/FW_Platform2_5/trunk/ProductModules/PM_Consistency\PM_Consistency.c **** \n		Stefano Ughi
  32:C:/Workspace/FW_Platform2_5/trunk/ProductModules/PM_Consistency\PM_Consistency.c **** \n		changes
  33:C:/Workspace/FW_Platform2_5/trunk/ProductModules/PM_Consistency\PM_Consistency.c **** \n 			heavy modifications  check on V.C.S.
  34:C:/Workspace/FW_Platform2_5/trunk/ProductModules/PM_Consistency\PM_Consistency.c **** */
  35:C:/Workspace/FW_Platform2_5/trunk/ProductModules/PM_Consistency\PM_Consistency.c **** 
  36:C:/Workspace/FW_Platform2_5/trunk/ProductModules/PM_Consistency\PM_Consistency.c **** /* */
  37:C:/Workspace/FW_Platform2_5/trunk/ProductModules/PM_Consistency\PM_Consistency.c **** #define MODULE_BODY_CONSISTENCY
  38:C:/Workspace/FW_Platform2_5/trunk/ProductModules/PM_Consistency\PM_Consistency.c **** /* ******** */
  39:C:/Workspace/FW_Platform2_5/trunk/ProductModules/PM_Consistency\PM_Consistency.c **** /* Includes */
  40:C:/Workspace/FW_Platform2_5/trunk/ProductModules/PM_Consistency\PM_Consistency.c **** /* ******** */
  41:C:/Workspace/FW_Platform2_5/trunk/ProductModules/PM_Consistency\PM_Consistency.c **** #include "Config.h"
  42:C:/Workspace/FW_Platform2_5/trunk/ProductModules/PM_Consistency\PM_Consistency.c **** #include "LIB_Error.h"
  43:C:/Workspace/FW_Platform2_5/trunk/ProductModules/PM_Consistency\PM_Consistency.c **** #if defined(CONFIG_PM_CONSISTENCY)
  44:C:/Workspace/FW_Platform2_5/trunk/ProductModules/PM_Consistency\PM_Consistency.c **** 
  45:C:/Workspace/FW_Platform2_5/trunk/ProductModules/PM_Consistency\PM_Consistency.c **** #include <string.h>
  46:C:/Workspace/FW_Platform2_5/trunk/ProductModules/PM_Consistency\PM_Consistency.c **** #include "PM_Consistency.h"
  47:C:/Workspace/FW_Platform2_5/trunk/ProductModules/PM_Consistency\PM_Consistency.c **** 
  48:C:/Workspace/FW_Platform2_5/trunk/ProductModules/PM_Consistency\PM_Consistency.c **** #include "Lib_utilities.h"
  49:C:/Workspace/FW_Platform2_5/trunk/ProductModules/PM_Consistency\PM_Consistency.c **** #include "IO_driver.h"
  50:C:/Workspace/FW_Platform2_5/trunk/ProductModules/PM_Consistency\PM_Consistency.c **** 
  51:C:/Workspace/FW_Platform2_5/trunk/ProductModules/PM_Consistency\PM_Consistency.c **** #include "OutputManager.h"
  52:C:/Workspace/FW_Platform2_5/trunk/ProductModules/PM_Consistency\PM_Consistency.c **** #include "InputManagerExp.h"
  53:C:/Workspace/FW_Platform2_5/trunk/ProductModules/PM_Consistency\PM_Consistency.c **** 
  54:C:/Workspace/FW_Platform2_5/trunk/ProductModules/PM_Consistency\PM_Consistency.c **** #include "Feedbacks.h"
  55:C:/Workspace/FW_Platform2_5/trunk/ProductModules/PM_Consistency\PM_Consistency.c **** #include "DigitalInputsExp.h"
  56:C:/Workspace/FW_Platform2_5/trunk/ProductModules/PM_Consistency\PM_Consistency.c **** 
  57:C:/Workspace/FW_Platform2_5/trunk/ProductModules/PM_Consistency\PM_Consistency.c **** #if defined(CONFIG_PM_ANALOG_FEEDBACKS_SUPPORT)
  58:C:/Workspace/FW_Platform2_5/trunk/ProductModules/PM_Consistency\PM_Consistency.c **** #include "PM_AnalogFeedback.h"
  59:C:/Workspace/FW_Platform2_5/trunk/ProductModules/PM_Consistency\PM_Consistency.c **** #endif  /* CONFIG_PM_ANALOG_FEEDBACK*/
  60:C:/Workspace/FW_Platform2_5/trunk/ProductModules/PM_Consistency\PM_Consistency.c **** 
  61:C:/Workspace/FW_Platform2_5/trunk/ProductModules/PM_Consistency\PM_Consistency.c **** #if defined(CONFIG_PM_FREQUENCY_FEEDBACKS_SUPPORT)
  62:C:/Workspace/FW_Platform2_5/trunk/ProductModules/PM_Consistency\PM_Consistency.c **** #include "PM_FrequencyFeedbacks.h"
  63:C:/Workspace/FW_Platform2_5/trunk/ProductModules/PM_Consistency\PM_Consistency.c **** #endif
  64:C:/Workspace/FW_Platform2_5/trunk/ProductModules/PM_Consistency\PM_Consistency.c **** 
  65:C:/Workspace/FW_Platform2_5/trunk/ProductModules/PM_Consistency\PM_Consistency.c **** #if defined(CONFIG_PM_FIXEDSPEEDMOTOR)
  66:C:/Workspace/FW_Platform2_5/trunk/ProductModules/PM_Consistency\PM_Consistency.c **** #include "FixedSpeedMotor.h"
  67:C:/Workspace/FW_Platform2_5/trunk/ProductModules/PM_Consistency\PM_Consistency.c **** #endif
  68:C:/Workspace/FW_Platform2_5/trunk/ProductModules/PM_Consistency\PM_Consistency.c **** 
  69:C:/Workspace/FW_Platform2_5/trunk/ProductModules/PM_Consistency\PM_Consistency.c **** #if  defined(CONFIG_PM_LINKED_LOADS_SUPPORT)
  70:C:/Workspace/FW_Platform2_5/trunk/ProductModules/PM_Consistency\PM_Consistency.c **** #include "PM_LinkedLoads.h"
  71:C:/Workspace/FW_Platform2_5/trunk/ProductModules/PM_Consistency\PM_Consistency.c **** #if defined(CONFIG_PM_LINKED_LOADS__RELAY_LOAD_SUPPORT)
  72:C:/Workspace/FW_Platform2_5/trunk/ProductModules/PM_Consistency\PM_Consistency.c **** #include "PM_LinkedLoads_RelayLoadExp.h"
  73:C:/Workspace/FW_Platform2_5/trunk/ProductModules/PM_Consistency\PM_Consistency.c **** #endif /* defined(CONFIG_PM_LINKED_LOADS__RELAY_LOAD_SUPPORT)*/
  74:C:/Workspace/FW_Platform2_5/trunk/ProductModules/PM_Consistency\PM_Consistency.c **** #endif
  75:C:/Workspace/FW_Platform2_5/trunk/ProductModules/PM_Consistency\PM_Consistency.c **** 
  76:C:/Workspace/FW_Platform2_5/trunk/ProductModules/PM_Consistency\PM_Consistency.c **** /*#include "ProductModules_Cfg.h"*/
  77:C:/Workspace/FW_Platform2_5/trunk/ProductModules/PM_Consistency\PM_Consistency.c **** #include "LIB_ZeroCrossingExp.h"
  78:C:/Workspace/FW_Platform2_5/trunk/ProductModules/PM_Consistency\PM_Consistency.c **** 
  79:C:/Workspace/FW_Platform2_5/trunk/ProductModules/PM_Consistency\PM_Consistency.c **** #ifdef  CONFIG_PM_DOORLOCK
  80:C:/Workspace/FW_Platform2_5/trunk/ProductModules/PM_Consistency\PM_Consistency.c **** #include "PM_DoorLockExp.h"
  81:C:/Workspace/FW_Platform2_5/trunk/ProductModules/PM_Consistency\PM_Consistency.c **** #endif  /* CONFIG_PM_DOORLOCK*/
  82:C:/Workspace/FW_Platform2_5/trunk/ProductModules/PM_Consistency\PM_Consistency.c **** 
  83:C:/Workspace/FW_Platform2_5/trunk/ProductModules/PM_Consistency\PM_Consistency.c **** #ifdef  CONFIG_PM_DRUMLOCK
  84:C:/Workspace/FW_Platform2_5/trunk/ProductModules/PM_Consistency\PM_Consistency.c **** #include "PM_DrumLockExp.h"
  85:C:/Workspace/FW_Platform2_5/trunk/ProductModules/PM_Consistency\PM_Consistency.c **** #endif  /* CONFIG_PM_DRUMLOCK*/
  86:C:/Workspace/FW_Platform2_5/trunk/ProductModules/PM_Consistency\PM_Consistency.c **** 
  87:C:/Workspace/FW_Platform2_5/trunk/ProductModules/PM_Consistency\PM_Consistency.c **** #ifdef __MULTI_H
  88:C:/Workspace/FW_Platform2_5/trunk/ProductModules/PM_Consistency\PM_Consistency.c **** #include "Trash1000.h"  /* remove a.s.a.p.*/
  89:C:/Workspace/FW_Platform2_5/trunk/ProductModules/PM_Consistency\PM_Consistency.c **** #endif
  90:C:/Workspace/FW_Platform2_5/trunk/ProductModules/PM_Consistency\PM_Consistency.c **** 
  91:C:/Workspace/FW_Platform2_5/trunk/ProductModules/PM_Consistency\PM_Consistency.c **** #include "LIB_ClassBVar.h"
  92:C:/Workspace/FW_Platform2_5/trunk/ProductModules/PM_Consistency\PM_Consistency.c **** #if defined(CONFIG_LIB_LOADSREQUEST_SUPPORT)
  93:C:/Workspace/FW_Platform2_5/trunk/ProductModules/PM_Consistency\PM_Consistency.c **** #include "LoadsRequestExp.h"
  94:C:/Workspace/FW_Platform2_5/trunk/ProductModules/PM_Consistency\PM_Consistency.c **** #endif
  95:C:/Workspace/FW_Platform2_5/trunk/ProductModules/PM_Consistency\PM_Consistency.c **** 
  96:C:/Workspace/FW_Platform2_5/trunk/ProductModules/PM_Consistency\PM_Consistency.c **** /* ****************** */
  97:C:/Workspace/FW_Platform2_5/trunk/ProductModules/PM_Consistency\PM_Consistency.c **** /* Defines and Macros */
  98:C:/Workspace/FW_Platform2_5/trunk/ProductModules/PM_Consistency\PM_Consistency.c **** /* ****************** */
  99:C:/Workspace/FW_Platform2_5/trunk/ProductModules/PM_Consistency\PM_Consistency.c **** /** Load's state modified for consistency, state off  */
 100:C:/Workspace/FW_Platform2_5/trunk/ProductModules/PM_Consistency\PM_Consistency.c **** #define CS_LOAD_NOT_ACTIVE					0
 101:C:/Workspace/FW_Platform2_5/trunk/ProductModules/PM_Consistency\PM_Consistency.c **** /** Load's state modified for consistency, state on  */
 102:C:/Workspace/FW_Platform2_5/trunk/ProductModules/PM_Consistency\PM_Consistency.c **** #define CS_LOAD_ACTIVE						1
 103:C:/Workspace/FW_Platform2_5/trunk/ProductModules/PM_Consistency\PM_Consistency.c **** /** Load's state modified for consistency, only relay switched to the load but Triac is off */
 104:C:/Workspace/FW_Platform2_5/trunk/ProductModules/PM_Consistency\PM_Consistency.c **** #define CS_LOAD_FFC_ONLY_RELAY_ACTIVE		2
 105:C:/Workspace/FW_Platform2_5/trunk/ProductModules/PM_Consistency\PM_Consistency.c **** /** Load's state modified for consistency, relay not switched to the load
 106:C:/Workspace/FW_Platform2_5/trunk/ProductModules/PM_Consistency\PM_Consistency.c **** This define is used also to distinguish the OFF state of fan */
 107:C:/Workspace/FW_Platform2_5/trunk/ProductModules/PM_Consistency\PM_Consistency.c **** #define	CS_LOAD_FFC_NOT_ACTIVE				3
 108:C:/Workspace/FW_Platform2_5/trunk/ProductModules/PM_Consistency\PM_Consistency.c **** /** Load's state modified for consistency, High Speed fan */
 109:C:/Workspace/FW_Platform2_5/trunk/ProductModules/PM_Consistency\PM_Consistency.c **** #define	CS_LOAD_FAN_HIGH_SPEED				4
 110:C:/Workspace/FW_Platform2_5/trunk/ProductModules/PM_Consistency\PM_Consistency.c **** 
 111:C:/Workspace/FW_Platform2_5/trunk/ProductModules/PM_Consistency\PM_Consistency.c **** 
 112:C:/Workspace/FW_Platform2_5/trunk/ProductModules/PM_Consistency\PM_Consistency.c **** /** Diplacement vs consistency's table: load's state on */
 113:C:/Workspace/FW_Platform2_5/trunk/ProductModules/PM_Consistency\PM_Consistency.c **** #define CS_LOAD_STATUS_DISPLACEMENT_PILOT			0
 114:C:/Workspace/FW_Platform2_5/trunk/ProductModules/PM_Consistency\PM_Consistency.c **** /** Diplacement vs consistency's table: load's state off */
 115:C:/Workspace/FW_Platform2_5/trunk/ProductModules/PM_Consistency\PM_Consistency.c **** #define CS_LOAD_STATUS_DISPLACEMENT_NOT_PILOT		4
 116:C:/Workspace/FW_Platform2_5/trunk/ProductModules/PM_Consistency\PM_Consistency.c **** /** Diplacement vs consistency's table: relay not switched to the load */
 117:C:/Workspace/FW_Platform2_5/trunk/ProductModules/PM_Consistency\PM_Consistency.c **** #define CS_LOAD_STATUS_DISPLACEMENT_FFC_NOT_PILOT   8
 118:C:/Workspace/FW_Platform2_5/trunk/ProductModules/PM_Consistency\PM_Consistency.c **** 
 119:C:/Workspace/FW_Platform2_5/trunk/ProductModules/PM_Consistency\PM_Consistency.c **** /** Set CONFIG_CS_LINKEDLOADS_EXTRA_DELAY to original default 25 if not defined */
 120:C:/Workspace/FW_Platform2_5/trunk/ProductModules/PM_Consistency\PM_Consistency.c **** #if !defined(CONFIG_CS_LINKEDLOADS_EXTRA_DELAY)
 121:C:/Workspace/FW_Platform2_5/trunk/ProductModules/PM_Consistency\PM_Consistency.c **** #define CONFIG_CS_LINKEDLOADS_EXTRA_DELAY       25
 122:C:/Workspace/FW_Platform2_5/trunk/ProductModules/PM_Consistency\PM_Consistency.c **** #endif
 123:C:/Workspace/FW_Platform2_5/trunk/ProductModules/PM_Consistency\PM_Consistency.c **** 
 124:C:/Workspace/FW_Platform2_5/trunk/ProductModules/PM_Consistency\PM_Consistency.c **** /** Set CONFIG_CS_DOORLOCK_POWERON_DELAY to original default 500 if not defined */
 125:C:/Workspace/FW_Platform2_5/trunk/ProductModules/PM_Consistency\PM_Consistency.c **** #if !defined(CONFIG_CS_DOORLOCK_POWERON_DELAY)
 126:C:/Workspace/FW_Platform2_5/trunk/ProductModules/PM_Consistency\PM_Consistency.c **** #define CONFIG_CS_DOORLOCK_POWERON_DELAY       500
 127:C:/Workspace/FW_Platform2_5/trunk/ProductModules/PM_Consistency\PM_Consistency.c **** #endif
 128:C:/Workspace/FW_Platform2_5/trunk/ProductModules/PM_Consistency\PM_Consistency.c **** 
 129:C:/Workspace/FW_Platform2_5/trunk/ProductModules/PM_Consistency\PM_Consistency.c **** 
 130:C:/Workspace/FW_Platform2_5/trunk/ProductModules/PM_Consistency\PM_Consistency.c **** #ifdef __DAMPER_ONOFF_H
 131:C:/Workspace/FW_Platform2_5/trunk/ProductModules/PM_Consistency\PM_Consistency.c **** /** Non ci sono problemi sul pilotaggio del Damper On Off */
 132:C:/Workspace/FW_Platform2_5/trunk/ProductModules/PM_Consistency\PM_Consistency.c **** #define DAMPER_ONOFF_FEEDBACK_IS_OK   0
 133:C:/Workspace/FW_Platform2_5/trunk/ProductModules/PM_Consistency\PM_Consistency.c **** /** Ci sono problemi sul pilotaggio del Damper On Off */
 134:C:/Workspace/FW_Platform2_5/trunk/ProductModules/PM_Consistency\PM_Consistency.c **** #define DAMPER_ONOFF_FEEDBACK_IS_KO   1
 135:C:/Workspace/FW_Platform2_5/trunk/ProductModules/PM_Consistency\PM_Consistency.c **** #endif /* __DAMPER_ONOFF_H */
 136:C:/Workspace/FW_Platform2_5/trunk/ProductModules/PM_Consistency\PM_Consistency.c **** 
 137:C:/Workspace/FW_Platform2_5/trunk/ProductModules/PM_Consistency\PM_Consistency.c **** #ifdef __STEPPER_H
 138:C:/Workspace/FW_Platform2_5/trunk/ProductModules/PM_Consistency\PM_Consistency.c **** /** Non ci sono problemi sullo Stepper */
 139:C:/Workspace/FW_Platform2_5/trunk/ProductModules/PM_Consistency\PM_Consistency.c **** #define STEPPER_FEEDBACK_IS_OK   0
 140:C:/Workspace/FW_Platform2_5/trunk/ProductModules/PM_Consistency\PM_Consistency.c **** /** Ci sono problemi sullo Stepper */
 141:C:/Workspace/FW_Platform2_5/trunk/ProductModules/PM_Consistency\PM_Consistency.c **** #define STEPPER_FEEDBACK_IS_KO   1
 142:C:/Workspace/FW_Platform2_5/trunk/ProductModules/PM_Consistency\PM_Consistency.c **** #endif /* __STEPPER_H */
 143:C:/Workspace/FW_Platform2_5/trunk/ProductModules/PM_Consistency\PM_Consistency.c **** 
 144:C:/Workspace/FW_Platform2_5/trunk/ProductModules/PM_Consistency\PM_Consistency.c **** 
 145:C:/Workspace/FW_Platform2_5/trunk/ProductModules/PM_Consistency\PM_Consistency.c **** /* *************************** */
 146:C:/Workspace/FW_Platform2_5/trunk/ProductModules/PM_Consistency\PM_Consistency.c **** /* Typedef, Structs and Unions */
 147:C:/Workspace/FW_Platform2_5/trunk/ProductModules/PM_Consistency\PM_Consistency.c **** /* *************************** */
 148:C:/Workspace/FW_Platform2_5/trunk/ProductModules/PM_Consistency\PM_Consistency.c **** /** Struttura di ritorno da CS_ManageLoad e in input a CS_ManageRes */
 149:C:/Workspace/FW_Platform2_5/trunk/ProductModules/PM_Consistency\PM_Consistency.c **** typedef struct LoadStatusRes
 150:C:/Workspace/FW_Platform2_5/trunk/ProductModules/PM_Consistency\PM_Consistency.c **** {
 151:C:/Workspace/FW_Platform2_5/trunk/ProductModules/PM_Consistency\PM_Consistency.c **** 	/** status of the load */
 152:C:/Workspace/FW_Platform2_5/trunk/ProductModules/PM_Consistency\PM_Consistency.c **** 	uint8_t load_status;
 153:C:/Workspace/FW_Platform2_5/trunk/ProductModules/PM_Consistency\PM_Consistency.c **** 	/** code for the status */
 154:C:/Workspace/FW_Platform2_5/trunk/ProductModules/PM_Consistency\PM_Consistency.c **** 	uint8_t cs_code;
 155:C:/Workspace/FW_Platform2_5/trunk/ProductModules/PM_Consistency\PM_Consistency.c **** } LoadStatusRes_t;
 156:C:/Workspace/FW_Platform2_5/trunk/ProductModules/PM_Consistency\PM_Consistency.c **** 
 157:C:/Workspace/FW_Platform2_5/trunk/ProductModules/PM_Consistency\PM_Consistency.c **** #ifdef __DAMPER_ONOFF_H
 158:C:/Workspace/FW_Platform2_5/trunk/ProductModules/PM_Consistency\PM_Consistency.c **** /** Struttura di stato per il Damper ON OFF accesso a bit */
 159:C:/Workspace/FW_Platform2_5/trunk/ProductModules/PM_Consistency\PM_Consistency.c **** typedef struct
 160:C:/Workspace/FW_Platform2_5/trunk/ProductModules/PM_Consistency\PM_Consistency.c **** {
 161:C:/Workspace/FW_Platform2_5/trunk/ProductModules/PM_Consistency\PM_Consistency.c **** 	/** se '0' e' la prima volta che entro nel case Damper Pilotato */
 162:C:/Workspace/FW_Platform2_5/trunk/ProductModules/PM_Consistency\PM_Consistency.c **** 	uint8_t firstTimeDamperPylot    :1;
 163:C:/Workspace/FW_Platform2_5/trunk/ProductModules/PM_Consistency\PM_Consistency.c **** 	/** se '0' e' la prima volta che entro nel case Damper Non Pilotato */
 164:C:/Workspace/FW_Platform2_5/trunk/ProductModules/PM_Consistency\PM_Consistency.c **** 	uint8_t firstTimeDamperNotPylot :1;
 165:C:/Workspace/FW_Platform2_5/trunk/ProductModules/PM_Consistency\PM_Consistency.c **** 	/** se '1' posizione damper e feedback O.K.  */
 166:C:/Workspace/FW_Platform2_5/trunk/ProductModules/PM_Consistency\PM_Consistency.c **** 	uint8_t cameFromInputOK         :1;
 167:C:/Workspace/FW_Platform2_5/trunk/ProductModules/PM_Consistency\PM_Consistency.c **** 	/** se '1' stop monitoring su damper pilotato */
 168:C:/Workspace/FW_Platform2_5/trunk/ProductModules/PM_Consistency\PM_Consistency.c **** 	uint8_t stopMonitoring          :1;
 169:C:/Workspace/FW_Platform2_5/trunk/ProductModules/PM_Consistency\PM_Consistency.c **** } DamperOnOffState_s;
 170:C:/Workspace/FW_Platform2_5/trunk/ProductModules/PM_Consistency\PM_Consistency.c **** 
 171:C:/Workspace/FW_Platform2_5/trunk/ProductModules/PM_Consistency\PM_Consistency.c **** /** Struttura di stato per il Damper ON OFF accesso a byte e bit */
 172:C:/Workspace/FW_Platform2_5/trunk/ProductModules/PM_Consistency\PM_Consistency.c **** /*lint -esym(754,all)*/
 173:C:/Workspace/FW_Platform2_5/trunk/ProductModules/PM_Consistency\PM_Consistency.c **** typedef union
 174:C:/Workspace/FW_Platform2_5/trunk/ProductModules/PM_Consistency\PM_Consistency.c **** {
 175:C:/Workspace/FW_Platform2_5/trunk/ProductModules/PM_Consistency\PM_Consistency.c **** 	uint8_t all;
 176:C:/Workspace/FW_Platform2_5/trunk/ProductModules/PM_Consistency\PM_Consistency.c **** 	DamperOnOffState_s bit;
 177:C:/Workspace/FW_Platform2_5/trunk/ProductModules/PM_Consistency\PM_Consistency.c **** } DamperOnOffState_t;
 178:C:/Workspace/FW_Platform2_5/trunk/ProductModules/PM_Consistency\PM_Consistency.c **** 
 179:C:/Workspace/FW_Platform2_5/trunk/ProductModules/PM_Consistency\PM_Consistency.c **** #endif /* #ifdef __DAMPER_ONOFF_H */
 180:C:/Workspace/FW_Platform2_5/trunk/ProductModules/PM_Consistency\PM_Consistency.c **** 
 181:C:/Workspace/FW_Platform2_5/trunk/ProductModules/PM_Consistency\PM_Consistency.c **** 
 182:C:/Workspace/FW_Platform2_5/trunk/ProductModules/PM_Consistency\PM_Consistency.c **** /* ********* */
 183:C:/Workspace/FW_Platform2_5/trunk/ProductModules/PM_Consistency\PM_Consistency.c **** /* Variables */
 184:C:/Workspace/FW_Platform2_5/trunk/ProductModules/PM_Consistency\PM_Consistency.c **** /* ********* */
 185:C:/Workspace/FW_Platform2_5/trunk/ProductModules/PM_Consistency\PM_Consistency.c **** 
 186:C:/Workspace/FW_Platform2_5/trunk/ProductModules/PM_Consistency\PM_Consistency.c **** /* Global */
 187:C:/Workspace/FW_Platform2_5/trunk/ProductModules/PM_Consistency\PM_Consistency.c **** 
 188:C:/Workspace/FW_Platform2_5/trunk/ProductModules/PM_Consistency\PM_Consistency.c **** /* Static */
 189:C:/Workspace/FW_Platform2_5/trunk/ProductModules/PM_Consistency\PM_Consistency.c **** 
 190:C:/Workspace/FW_Platform2_5/trunk/ProductModules/PM_Consistency\PM_Consistency.c **** /**  Variables used to manage the module */
 191:C:/Workspace/FW_Platform2_5/trunk/ProductModules/PM_Consistency\PM_Consistency.c **** static struct
 192:C:/Workspace/FW_Platform2_5/trunk/ProductModules/PM_Consistency\PM_Consistency.c **** {
 193:C:/Workspace/FW_Platform2_5/trunk/ProductModules/PM_Consistency\PM_Consistency.c **** #if defined (CONFIG_PM_CONSISTENCY_APPL_BUFFER)
 194:C:/Workspace/FW_Platform2_5/trunk/ProductModules/PM_Consistency\PM_Consistency.c **** 	/** Pointer to the buffer, passed by Application, where the module will inserts consistency values
 195:C:/Workspace/FW_Platform2_5/trunk/ProductModules/PM_Consistency\PM_Consistency.c **** 	uint8_t  *pCS_Resource;
 196:C:/Workspace/FW_Platform2_5/trunk/ProductModules/PM_Consistency\PM_Consistency.c **** 	/** Status of the Consistency module */
 197:C:/Workspace/FW_Platform2_5/trunk/ProductModules/PM_Consistency\PM_Consistency.c **** 	uint8_t  Status;
 198:C:/Workspace/FW_Platform2_5/trunk/ProductModules/PM_Consistency\PM_Consistency.c **** #endif
 199:C:/Workspace/FW_Platform2_5/trunk/ProductModules/PM_Consistency\PM_Consistency.c **** 	/** vettore contatori con base tempi pari alla chiamata del manager */
 200:C:/Workspace/FW_Platform2_5/trunk/ProductModules/PM_Consistency\PM_Consistency.c **** 	uint8_t  CS_LoadCnt[N_MAXLOADS];
 201:C:/Workspace/FW_Platform2_5/trunk/ProductModules/PM_Consistency\PM_Consistency.c **** 	/** Time to wait until next evaluation of the feedback for Digital Delayed and Triac+Rele' */
 202:C:/Workspace/FW_Platform2_5/trunk/ProductModules/PM_Consistency\PM_Consistency.c **** 	uint8_t  CS_MaxDelay;
 203:C:/Workspace/FW_Platform2_5/trunk/ProductModules/PM_Consistency\PM_Consistency.c **** #ifdef __DAMPER_ONOFF_H
 204:C:/Workspace/FW_Platform2_5/trunk/ProductModules/PM_Consistency\PM_Consistency.c **** 	/** variabile utilizzata per l'inizializzazione dei timeouts \n
 205:C:/Workspace/FW_Platform2_5/trunk/ProductModules/PM_Consistency\PM_Consistency.c **** 	che servono a controllare il corretto comportamento del dispositivo */
 206:C:/Workspace/FW_Platform2_5/trunk/ProductModules/PM_Consistency\PM_Consistency.c **** 	DamperOnOffState_t damperOnOffState;
 207:C:/Workspace/FW_Platform2_5/trunk/ProductModules/PM_Consistency\PM_Consistency.c **** 	/** contatore per ottenere 1 sec */
 208:C:/Workspace/FW_Platform2_5/trunk/ProductModules/PM_Consistency\PM_Consistency.c **** 	uint8_t damperOnOffcntrOneSec;
 209:C:/Workspace/FW_Platform2_5/trunk/ProductModules/PM_Consistency\PM_Consistency.c **** 	damperONOFFPosition_t damperCurrentPos;
 210:C:/Workspace/FW_Platform2_5/trunk/ProductModules/PM_Consistency\PM_Consistency.c **** 	uint8_t damperFeedbackValue;
 211:C:/Workspace/FW_Platform2_5/trunk/ProductModules/PM_Consistency\PM_Consistency.c **** #endif
 212:C:/Workspace/FW_Platform2_5/trunk/ProductModules/PM_Consistency\PM_Consistency.c **** } CS_Status_Var;
 213:C:/Workspace/FW_Platform2_5/trunk/ProductModules/PM_Consistency\PM_Consistency.c **** 
 214:C:/Workspace/FW_Platform2_5/trunk/ProductModules/PM_Consistency\PM_Consistency.c **** 
 215:C:/Workspace/FW_Platform2_5/trunk/ProductModules/PM_Consistency\PM_Consistency.c **** /* Pointer used just to support Data Care operation */
 216:C:/Workspace/FW_Platform2_5/trunk/ProductModules/PM_Consistency\PM_Consistency.c **** static uint8_t PLT_Consistency[N_MAXLOADS];
 217:C:/Workspace/FW_Platform2_5/trunk/ProductModules/PM_Consistency\PM_Consistency.c **** 
 218:C:/Workspace/FW_Platform2_5/trunk/ProductModules/PM_Consistency\PM_Consistency.c **** /* ******************* */
 219:C:/Workspace/FW_Platform2_5/trunk/ProductModules/PM_Consistency\PM_Consistency.c **** /* Functions Prototype */
 220:C:/Workspace/FW_Platform2_5/trunk/ProductModules/PM_Consistency\PM_Consistency.c **** /* ******************* */
 221:C:/Workspace/FW_Platform2_5/trunk/ProductModules/PM_Consistency\PM_Consistency.c **** 
 222:C:/Workspace/FW_Platform2_5/trunk/ProductModules/PM_Consistency\PM_Consistency.c **** /* Exported function */
 223:C:/Workspace/FW_Platform2_5/trunk/ProductModules/PM_Consistency\PM_Consistency.c **** 
 224:C:/Workspace/FW_Platform2_5/trunk/ProductModules/PM_Consistency\PM_Consistency.c **** /* Local Function */
 225:C:/Workspace/FW_Platform2_5/trunk/ProductModules/PM_Consistency\PM_Consistency.c **** static uint8_t CS_GetValue(uint8_t *pFeedbackData);
 226:C:/Workspace/FW_Platform2_5/trunk/ProductModules/PM_Consistency\PM_Consistency.c **** 
 227:C:/Workspace/FW_Platform2_5/trunk/ProductModules/PM_Consistency\PM_Consistency.c **** static void CS_ManageLoad( uint8_t load_status, uint8_t feedback_val, LoadStatusRes_t *res);
 228:C:/Workspace/FW_Platform2_5/trunk/ProductModules/PM_Consistency\PM_Consistency.c **** 
 229:C:/Workspace/FW_Platform2_5/trunk/ProductModules/PM_Consistency\PM_Consistency.c **** static void CS_ManageRes( LoadStatusRes_t res, uint8_t *pFeedBackData, uint8_t loadPos );
 230:C:/Workspace/FW_Platform2_5/trunk/ProductModules/PM_Consistency\PM_Consistency.c **** 
 231:C:/Workspace/FW_Platform2_5/trunk/ProductModules/PM_Consistency\PM_Consistency.c **** static void CS_ElemNewConsistency( uint8_t array_ind, uint8_t new_CS_value );
 232:C:/Workspace/FW_Platform2_5/trunk/ProductModules/PM_Consistency\PM_Consistency.c **** 
 233:C:/Workspace/FW_Platform2_5/trunk/ProductModules/PM_Consistency\PM_Consistency.c **** /* *************** */
 234:C:/Workspace/FW_Platform2_5/trunk/ProductModules/PM_Consistency\PM_Consistency.c **** /* Function Bodies */
 235:C:/Workspace/FW_Platform2_5/trunk/ProductModules/PM_Consistency\PM_Consistency.c **** /* *************** */
 236:C:/Workspace/FW_Platform2_5/trunk/ProductModules/PM_Consistency\PM_Consistency.c **** 
 237:C:/Workspace/FW_Platform2_5/trunk/ProductModules/PM_Consistency\PM_Consistency.c **** /* Exported function */
 238:C:/Workspace/FW_Platform2_5/trunk/ProductModules/PM_Consistency\PM_Consistency.c **** /**
 239:C:/Workspace/FW_Platform2_5/trunk/ProductModules/PM_Consistency\PM_Consistency.c **** \n The function is called from the application and performs initialization of a vector
 240:C:/Workspace/FW_Platform2_5/trunk/ProductModules/PM_Consistency\PM_Consistency.c **** \n containing the output of the module.
 241:C:/Workspace/FW_Platform2_5/trunk/ProductModules/PM_Consistency\PM_Consistency.c **** 
 242:C:/Workspace/FW_Platform2_5/trunk/ProductModules/PM_Consistency\PM_Consistency.c **** \param  [in]	pLLConsistency pointer to the array where will be inserted the outputs of the module.
 243:C:/Workspace/FW_Platform2_5/trunk/ProductModules/PM_Consistency\PM_Consistency.c **** 
 244:C:/Workspace/FW_Platform2_5/trunk/ProductModules/PM_Consistency\PM_Consistency.c **** \attention \b We assume that vector's size passed through pLLConsistency is equal to N_MAXLOADS.
 245:C:/Workspace/FW_Platform2_5/trunk/ProductModules/PM_Consistency\PM_Consistency.c **** 
 246:C:/Workspace/FW_Platform2_5/trunk/ProductModules/PM_Consistency\PM_Consistency.c **** \author 	Stefano Ughi
 247:C:/Workspace/FW_Platform2_5/trunk/ProductModules/PM_Consistency\PM_Consistency.c **** \date		18/02/2008
 248:C:/Workspace/FW_Platform2_5/trunk/ProductModules/PM_Consistency\PM_Consistency.c **** \version	1.0.0
 249:C:/Workspace/FW_Platform2_5/trunk/ProductModules/PM_Consistency\PM_Consistency.c **** 
 250:C:/Workspace/FW_Platform2_5/trunk/ProductModules/PM_Consistency\PM_Consistency.c **** 
 251:C:/Workspace/FW_Platform2_5/trunk/ProductModules/PM_Consistency\PM_Consistency.c **** \note		\par \b Nota 1:
 252:C:/Workspace/FW_Platform2_5/trunk/ProductModules/PM_Consistency\PM_Consistency.c **** 			documentation by Stefano Ughi
 253:C:/Workspace/FW_Platform2_5/trunk/ProductModules/PM_Consistency\PM_Consistency.c **** 			\par \b Nota 2:
 254:C:/Workspace/FW_Platform2_5/trunk/ProductModules/PM_Consistency\PM_Consistency.c **** 			the function has been written in this way to maintain compatibility with the past
 255:C:/Workspace/FW_Platform2_5/trunk/ProductModules/PM_Consistency\PM_Consistency.c **** 
 256:C:/Workspace/FW_Platform2_5/trunk/ProductModules/PM_Consistency\PM_Consistency.c **** */
 257:C:/Workspace/FW_Platform2_5/trunk/ProductModules/PM_Consistency\PM_Consistency.c **** 
 258:C:/Workspace/FW_Platform2_5/trunk/ProductModules/PM_Consistency\PM_Consistency.c **** void PM_Consistency_ConfigureOutputArray(uint8_t *pLLConsistency)
 259:C:/Workspace/FW_Platform2_5/trunk/ProductModules/PM_Consistency\PM_Consistency.c **** {
  10                             		.loc 1 259 0
  11                             	.LVL0:
  12 0000 02                      		rts
  13                             	.LFE0:
  15                             		.section	.text.PM_Consistency_Init,"ax",@progbits
  16                             		.global	_PM_Consistency_Init
  18                             	_PM_Consistency_Init:
  19                             	.LFB1:
 260:C:/Workspace/FW_Platform2_5/trunk/ProductModules/PM_Consistency\PM_Consistency.c **** #if defined (CONFIG_PM_CONSISTENCY_APPL_BUFFER)
 261:C:/Workspace/FW_Platform2_5/trunk/ProductModules/PM_Consistency\PM_Consistency.c **** 	CS_Status_Var.pCS_Resource = pLLConsistency;
 262:C:/Workspace/FW_Platform2_5/trunk/ProductModules/PM_Consistency\PM_Consistency.c **** 	CS_Status_Var.Status |= (PM_CS_STATUS_INIT);
 263:C:/Workspace/FW_Platform2_5/trunk/ProductModules/PM_Consistency\PM_Consistency.c **** #endif
 264:C:/Workspace/FW_Platform2_5/trunk/ProductModules/PM_Consistency\PM_Consistency.c **** }
 265:C:/Workspace/FW_Platform2_5/trunk/ProductModules/PM_Consistency\PM_Consistency.c **** 
 266:C:/Workspace/FW_Platform2_5/trunk/ProductModules/PM_Consistency\PM_Consistency.c **** /**
 267:C:/Workspace/FW_Platform2_5/trunk/ProductModules/PM_Consistency\PM_Consistency.c **** Module's initialization, called if reset is cold and if SystemMode == SYSTEM_NORMAL_MODE.
 268:C:/Workspace/FW_Platform2_5/trunk/ProductModules/PM_Consistency\PM_Consistency.c **** 
 269:C:/Workspace/FW_Platform2_5/trunk/ProductModules/PM_Consistency\PM_Consistency.c **** \attention \b CS_Status_Var used as I/O
 270:C:/Workspace/FW_Platform2_5/trunk/ProductModules/PM_Consistency\PM_Consistency.c **** \attention \b CS_Status_Var.OutputTablePtr used as I/O type Loader
 271:C:/Workspace/FW_Platform2_5/trunk/ProductModules/PM_Consistency\PM_Consistency.c **** 
 272:C:/Workspace/FW_Platform2_5/trunk/ProductModules/PM_Consistency\PM_Consistency.c **** 
 273:C:/Workspace/FW_Platform2_5/trunk/ProductModules/PM_Consistency\PM_Consistency.c **** \author 	Stefano Ughi
 274:C:/Workspace/FW_Platform2_5/trunk/ProductModules/PM_Consistency\PM_Consistency.c **** \date		18/02/2008
 275:C:/Workspace/FW_Platform2_5/trunk/ProductModules/PM_Consistency\PM_Consistency.c **** \version	1.0.0
 276:C:/Workspace/FW_Platform2_5/trunk/ProductModules/PM_Consistency\PM_Consistency.c **** 
 277:C:/Workspace/FW_Platform2_5/trunk/ProductModules/PM_Consistency\PM_Consistency.c **** \note		\par \b Nota 1:
 278:C:/Workspace/FW_Platform2_5/trunk/ProductModules/PM_Consistency\PM_Consistency.c **** 			documentation by Stefano Ughi
 279:C:/Workspace/FW_Platform2_5/trunk/ProductModules/PM_Consistency\PM_Consistency.c **** 
 280:C:/Workspace/FW_Platform2_5/trunk/ProductModules/PM_Consistency\PM_Consistency.c **** 
 281:C:/Workspace/FW_Platform2_5/trunk/ProductModules/PM_Consistency\PM_Consistency.c **** */
 282:C:/Workspace/FW_Platform2_5/trunk/ProductModules/PM_Consistency\PM_Consistency.c **** 
 283:C:/Workspace/FW_Platform2_5/trunk/ProductModules/PM_Consistency\PM_Consistency.c **** void PM_Consistency_Init(void)
 284:C:/Workspace/FW_Platform2_5/trunk/ProductModules/PM_Consistency\PM_Consistency.c **** {
  20                             		.loc 1 284 0
 285:C:/Workspace/FW_Platform2_5/trunk/ProductModules/PM_Consistency\PM_Consistency.c **** 	uint8_t i;
 286:C:/Workspace/FW_Platform2_5/trunk/ProductModules/PM_Consistency\PM_Consistency.c **** 
 287:C:/Workspace/FW_Platform2_5/trunk/ProductModules/PM_Consistency\PM_Consistency.c **** 	SAFETY_REGION_START();
 288:C:/Workspace/FW_Platform2_5/trunk/ProductModules/PM_Consistency\PM_Consistency.c **** 	
 289:C:/Workspace/FW_Platform2_5/trunk/ProductModules/PM_Consistency\PM_Consistency.c **** 	(void)memset(&CS_Status_Var,0,sizeof(CS_Status_Var));
  21                             		.loc 1 289 0
  22 0000 FB 12 00 00 00 00       		mov.L	#_CS_Status_Var, r1
  23 0006 75 43 11                		mov.L	#17, r3
  24 0009 66 02                   		mov	#0, r2
  25 000b 7F 88                   		sstr.b
 290:C:/Workspace/FW_Platform2_5/trunk/ProductModules/PM_Consistency\PM_Consistency.c **** 	(void)memset(PLT_Consistency, PM_CS_NOT_VALID_CODE, N_MAXLOADS);
  26                             		.loc 1 290 0
  27 000d FB 12 00 00 00 00       		mov.L	#_PLT_Consistency, r1
  28 0013 75 43 10                		mov.L	#16, r3
  29 0016 FB 26 FF                		mov	#-1, r2
  30 0019 7F 88                   		sstr.b
  31                             	.LVL1:
  32 001b 02                      		rts
  33                             	.LFE1:
  35                             		.section	.text.PM_Consistency_Manager,"ax",@progbits
  36                             		.global	_PM_Consistency_Manager
  38                             	_PM_Consistency_Manager:
  39                             	.LFB2:
 291:C:/Workspace/FW_Platform2_5/trunk/ProductModules/PM_Consistency\PM_Consistency.c **** 
 292:C:/Workspace/FW_Platform2_5/trunk/ProductModules/PM_Consistency\PM_Consistency.c **** 	for ( i=0; i<N_MAXLOADS; i++)
 293:C:/Workspace/FW_Platform2_5/trunk/ProductModules/PM_Consistency\PM_Consistency.c **** 	{
 294:C:/Workspace/FW_Platform2_5/trunk/ProductModules/PM_Consistency\PM_Consistency.c **** 		SAFETY_DATA_ELEM_UPDATE( PLT_Consistency, i );
 295:C:/Workspace/FW_Platform2_5/trunk/ProductModules/PM_Consistency\PM_Consistency.c **** 	}
 296:C:/Workspace/FW_Platform2_5/trunk/ProductModules/PM_Consistency\PM_Consistency.c **** 	
 297:C:/Workspace/FW_Platform2_5/trunk/ProductModules/PM_Consistency\PM_Consistency.c **** 	SAFETY_REGION_END();
 298:C:/Workspace/FW_Platform2_5/trunk/ProductModules/PM_Consistency\PM_Consistency.c **** #if defined (CONFIG_PM_CONSISTENCY_APPL_BUFFER)
 299:C:/Workspace/FW_Platform2_5/trunk/ProductModules/PM_Consistency\PM_Consistency.c **** 	CS_Status_Var.Status |= (PM_CS_STATUS_CONFIGURED);
 300:C:/Workspace/FW_Platform2_5/trunk/ProductModules/PM_Consistency\PM_Consistency.c **** #endif
 301:C:/Workspace/FW_Platform2_5/trunk/ProductModules/PM_Consistency\PM_Consistency.c **** 
 302:C:/Workspace/FW_Platform2_5/trunk/ProductModules/PM_Consistency\PM_Consistency.c **** }
 303:C:/Workspace/FW_Platform2_5/trunk/ProductModules/PM_Consistency\PM_Consistency.c **** 
 304:C:/Workspace/FW_Platform2_5/trunk/ProductModules/PM_Consistency\PM_Consistency.c **** /**
 305:C:/Workspace/FW_Platform2_5/trunk/ProductModules/PM_Consistency\PM_Consistency.c **** Called inside periodic task if SystemMode == SYSTEM_NORMAL_MODE. \n
 306:C:/Workspace/FW_Platform2_5/trunk/ProductModules/PM_Consistency\PM_Consistency.c **** For all the loads present in the Output Map checks if there are feedbacks associated \n
 307:C:/Workspace/FW_Platform2_5/trunk/ProductModules/PM_Consistency\PM_Consistency.c **** with, if so check if there are data for Consistency and processes them.
 308:C:/Workspace/FW_Platform2_5/trunk/ProductModules/PM_Consistency\PM_Consistency.c **** 
 309:C:/Workspace/FW_Platform2_5/trunk/ProductModules/PM_Consistency\PM_Consistency.c **** \attention \b CS_Status_Var used as I/O
 310:C:/Workspace/FW_Platform2_5/trunk/ProductModules/PM_Consistency\PM_Consistency.c **** 
 311:C:/Workspace/FW_Platform2_5/trunk/ProductModules/PM_Consistency\PM_Consistency.c **** 
 312:C:/Workspace/FW_Platform2_5/trunk/ProductModules/PM_Consistency\PM_Consistency.c **** \author 	xyz
 313:C:/Workspace/FW_Platform2_5/trunk/ProductModules/PM_Consistency\PM_Consistency.c **** \date		gg/mm/aaaa
 314:C:/Workspace/FW_Platform2_5/trunk/ProductModules/PM_Consistency\PM_Consistency.c **** \version	1.0.1
 315:C:/Workspace/FW_Platform2_5/trunk/ProductModules/PM_Consistency\PM_Consistency.c **** 
 316:C:/Workspace/FW_Platform2_5/trunk/ProductModules/PM_Consistency\PM_Consistency.c **** 
 317:C:/Workspace/FW_Platform2_5/trunk/ProductModules/PM_Consistency\PM_Consistency.c **** \todo		CS_Status_Var.CS_MaxDelay deve essere un vettore !!
 318:C:/Workspace/FW_Platform2_5/trunk/ProductModules/PM_Consistency\PM_Consistency.c **** \todo       il valore di ritorno di CS_GetValue() dovrebbe essere testato e sollevata \n
 319:C:/Workspace/FW_Platform2_5/trunk/ProductModules/PM_Consistency\PM_Consistency.c ****             un'eccezione se maggiore di 3
 320:C:/Workspace/FW_Platform2_5/trunk/ProductModules/PM_Consistency\PM_Consistency.c **** 
 321:C:/Workspace/FW_Platform2_5/trunk/ProductModules/PM_Consistency\PM_Consistency.c **** \note		\par \b Nota 1:
 322:C:/Workspace/FW_Platform2_5/trunk/ProductModules/PM_Consistency\PM_Consistency.c **** 			documentation by Stefano Ughi
 323:C:/Workspace/FW_Platform2_5/trunk/ProductModules/PM_Consistency\PM_Consistency.c **** 			\par \b Nota 2:
 324:C:/Workspace/FW_Platform2_5/trunk/ProductModules/PM_Consistency\PM_Consistency.c **** 			version 1.0.1 extension to loads with more feedbacks linked
 325:C:/Workspace/FW_Platform2_5/trunk/ProductModules/PM_Consistency\PM_Consistency.c **** 
 326:C:/Workspace/FW_Platform2_5/trunk/ProductModules/PM_Consistency\PM_Consistency.c **** */
 327:C:/Workspace/FW_Platform2_5/trunk/ProductModules/PM_Consistency\PM_Consistency.c **** void PM_Consistency_Manager(void)
 328:C:/Workspace/FW_Platform2_5/trunk/ProductModules/PM_Consistency\PM_Consistency.c **** {
  40                             		.loc 1 328 0
  41 0000 6E 6D                   		pushm	r6-r13
  42                             	.LCFI0:
  43 0002 71 00 EC                		add	#-20, r0
  44                             	.LCFI1:
 329:C:/Workspace/FW_Platform2_5/trunk/ProductModules/PM_Consistency\PM_Consistency.c **** 	struct Loader feedbackData;
 330:C:/Workspace/FW_Platform2_5/trunk/ProductModules/PM_Consistency\PM_Consistency.c **** 	uint8_t *pByte;
 331:C:/Workspace/FW_Platform2_5/trunk/ProductModules/PM_Consistency\PM_Consistency.c **** 	LoadStatusRes_t res;
 332:C:/Workspace/FW_Platform2_5/trunk/ProductModules/PM_Consistency\PM_Consistency.c **** 	uint8_t loadPos;
 333:C:/Workspace/FW_Platform2_5/trunk/ProductModules/PM_Consistency\PM_Consistency.c **** 	uint8_t nLoads = LIB_IOM_NumberOfLoads();
  45                             		.loc 1 333 0
  46 0005 05 00 00 00             		bsr	_LIB_IOM_NumberOfLoads
  47                             	.LVL2:
  48 0009 FB A2 00 00 00 00       		mov.L	#_PLT_Consistency, r10
 334:C:/Workspace/FW_Platform2_5/trunk/ProductModules/PM_Consistency\PM_Consistency.c **** 	uint8_t pilotType;
 335:C:/Workspace/FW_Platform2_5/trunk/ProductModules/PM_Consistency\PM_Consistency.c **** 	uint8_t readType = 0;
 336:C:/Workspace/FW_Platform2_5/trunk/ProductModules/PM_Consistency\PM_Consistency.c **** 	uint8_t feedbackPos;
 337:C:/Workspace/FW_Platform2_5/trunk/ProductModules/PM_Consistency\PM_Consistency.c **** 	uint8_t load_status;
 338:C:/Workspace/FW_Platform2_5/trunk/ProductModules/PM_Consistency\PM_Consistency.c **** 	uint8_t feedback_value;
 339:C:/Workspace/FW_Platform2_5/trunk/ProductModules/PM_Consistency\PM_Consistency.c **** 	uint8_t numOfFeedbacksLinkedToLoad;
 340:C:/Workspace/FW_Platform2_5/trunk/ProductModules/PM_Consistency\PM_Consistency.c **** 	bool_t feedbacksReady;
 341:C:/Workspace/FW_Platform2_5/trunk/ProductModules/PM_Consistency\PM_Consistency.c **** 	uint8_t i;
 342:C:/Workspace/FW_Platform2_5/trunk/ProductModules/PM_Consistency\PM_Consistency.c **** 	uint8_t tmpNewMaxDelay = 0;
 343:C:/Workspace/FW_Platform2_5/trunk/ProductModules/PM_Consistency\PM_Consistency.c **** 
 344:C:/Workspace/FW_Platform2_5/trunk/ProductModules/PM_Consistency\PM_Consistency.c **** #if defined(CONFIG_PM_DOORLOCK)
 345:C:/Workspace/FW_Platform2_5/trunk/ProductModules/PM_Consistency\PM_Consistency.c ****         if( PM_DoorLock_isInstableCondition() )
 346:C:/Workspace/FW_Platform2_5/trunk/ProductModules/PM_Consistency\PM_Consistency.c ****         {
 347:C:/Workspace/FW_Platform2_5/trunk/ProductModules/PM_Consistency\PM_Consistency.c ****           for(i=0; i<N_MAXLOADS; i++) /* invalida tutti i consistency*/
 348:C:/Workspace/FW_Platform2_5/trunk/ProductModules/PM_Consistency\PM_Consistency.c ****           {
 349:C:/Workspace/FW_Platform2_5/trunk/ProductModules/PM_Consistency\PM_Consistency.c ****             CS_ElemNewConsistency( i, PM_CS_NOT_VALID_CODE );
 350:C:/Workspace/FW_Platform2_5/trunk/ProductModules/PM_Consistency\PM_Consistency.c ****           }
 351:C:/Workspace/FW_Platform2_5/trunk/ProductModules/PM_Consistency\PM_Consistency.c ****           return;
 352:C:/Workspace/FW_Platform2_5/trunk/ProductModules/PM_Consistency\PM_Consistency.c ****         }
 353:C:/Workspace/FW_Platform2_5/trunk/ProductModules/PM_Consistency\PM_Consistency.c **** #endif /* defined(CONFIG_PM_DOORLOCK) */
 354:C:/Workspace/FW_Platform2_5/trunk/ProductModules/PM_Consistency\PM_Consistency.c **** 
 355:C:/Workspace/FW_Platform2_5/trunk/ProductModules/PM_Consistency\PM_Consistency.c **** 	/* per tutti i carichi presenti nell'output map */
 356:C:/Workspace/FW_Platform2_5/trunk/ProductModules/PM_Consistency\PM_Consistency.c **** 	for ( loadPos = 0; loadPos < nLoads; loadPos++)
  49                             		.loc 1 356 0
  50 000f 66 07                   		mov.L	#0, r7
  51 0011 5B 18                   		movu.B	r1, r8
  52 0013 38 DB 01                		bra	.L4
  53                             	.LVL3:
  54                             	.L39:
  55                             	.LBB26:
 357:C:/Workspace/FW_Platform2_5/trunk/ProductModules/PM_Consistency\PM_Consistency.c **** 	{
 358:C:/Workspace/FW_Platform2_5/trunk/ProductModules/PM_Consistency\PM_Consistency.c **** #if defined(CONFIG_PM_LINKED_LOADS_SUPPORT)
 359:C:/Workspace/FW_Platform2_5/trunk/ProductModules/PM_Consistency\PM_Consistency.c **** 		uint8_t TRL_Status = 0; /*Variable to Chk the status of the R+T module*/
 360:C:/Workspace/FW_Platform2_5/trunk/ProductModules/PM_Consistency\PM_Consistency.c **** #endif
 361:C:/Workspace/FW_Platform2_5/trunk/ProductModules/PM_Consistency\PM_Consistency.c **** #if defined( CONFIG_PM_PROFILE_LOADS_PARTIALIZATION_SUPPORT )
 362:C:/Workspace/FW_Platform2_5/trunk/ProductModules/PM_Consistency\PM_Consistency.c **** 		uint8_t plpStatus = 0;  /*Variable to Chk the status of the PLP module*/
 363:C:/Workspace/FW_Platform2_5/trunk/ProductModules/PM_Consistency\PM_Consistency.c **** #endif
 364:C:/Workspace/FW_Platform2_5/trunk/ProductModules/PM_Consistency\PM_Consistency.c **** #if defined(CONFIG_PM_DOORLOCK)
 365:C:/Workspace/FW_Platform2_5/trunk/ProductModules/PM_Consistency\PM_Consistency.c ****         static uint16_t PowON_Delay = CONFIG_CS_DOORLOCK_POWERON_DELAY;
 366:C:/Workspace/FW_Platform2_5/trunk/ProductModules/PM_Consistency\PM_Consistency.c **** #endif /* CONFIG_PM_DOORLOCK */
 367:C:/Workspace/FW_Platform2_5/trunk/ProductModules/PM_Consistency\PM_Consistency.c **** 
 368:C:/Workspace/FW_Platform2_5/trunk/ProductModules/PM_Consistency\PM_Consistency.c **** 		(void) LIB_IOM_FindLoad(loadPos, &pByte);
  56                             		.loc 1 368 0
  57 0016 71 02 08                		add	#8, r0, r2
  58 0019 CF 71                   		mov.B	r7, r1
  59 001b 05 00 00 00             		bsr	_LIB_IOM_FindLoad
  60                             	.LVL4:
 369:C:/Workspace/FW_Platform2_5/trunk/ProductModules/PM_Consistency\PM_Consistency.c **** 
 370:C:/Workspace/FW_Platform2_5/trunk/ProductModules/PM_Consistency\PM_Consistency.c **** 		/* Tipo di pilotaggio del carico */
 371:C:/Workspace/FW_Platform2_5/trunk/ProductModules/PM_Consistency\PM_Consistency.c **** 		pilotType = LIB_IOM_GetPilotType(PILOT_TYPE_FIELD(pByte));
  61                             		.loc 1 371 0
  62 001f ED 0B 02                		mov.L	8[r0], r11
  63 0022 CD B1 02                		mov.B	2[r11], r1
  64 0025 05 00 00 00             		bsr	_LIB_IOM_GetPilotType
  65                             	.LVL5:
 372:C:/Workspace/FW_Platform2_5/trunk/ProductModules/PM_Consistency\PM_Consistency.c **** 
 373:C:/Workspace/FW_Platform2_5/trunk/ProductModules/PM_Consistency\PM_Consistency.c **** 		/* Per il carico in oggetto punto al campo iniziale dei parametri feedback linkati al carico stes
 374:C:/Workspace/FW_Platform2_5/trunk/ProductModules/PM_Consistency\PM_Consistency.c **** 		if ( BSLDR_OK != BasicLoader( SF_PTR_IO_DEVICE, LOAD_FEEDBACKS_OFFSET(pByte), &feedbackData))
  66                             		.loc 1 374 0
  67 0029 ED 0B 02                		mov.L	8[r0], r11
 371:C:/Workspace/FW_Platform2_5/trunk/ProductModules/PM_Consistency\PM_Consistency.c **** 		pilotType = LIB_IOM_GetPilotType(PILOT_TYPE_FIELD(pByte));
  68                             		.loc 1 371 0
  69 002c CF 1D                   		mov.B	r1, r13
  70                             	.LVL6:
  71                             		.loc 1 374 0
  72 002e CD B2 01                		mov.B	1[r11], r2
  73 0031 75 41 21                		mov	#33, r1
  74                             	.LVL7:
  75 0034 EF 03                   		mov.L	r0, r3
  76 0036 05 00 00 00             		bsr	_BasicLoader
  77                             	.LVL8:
  78 003a 5B 11                   		movu.B	r1, r1
  79 003c 61 01                   		cmp	#0, r1
  80 003e 3B AC 01                		bne	.L5
 375:C:/Workspace/FW_Platform2_5/trunk/ProductModules/PM_Consistency\PM_Consistency.c **** 		{
 376:C:/Workspace/FW_Platform2_5/trunk/ProductModules/PM_Consistency\PM_Consistency.c **** 			/* Parametri feedback non presenti */
 377:C:/Workspace/FW_Platform2_5/trunk/ProductModules/PM_Consistency\PM_Consistency.c **** 			continue;
 378:C:/Workspace/FW_Platform2_5/trunk/ProductModules/PM_Consistency\PM_Consistency.c **** 		}
 379:C:/Workspace/FW_Platform2_5/trunk/ProductModules/PM_Consistency\PM_Consistency.c **** 		/*lint +e826 Suspicious pointer-to-pointer */
 380:C:/Workspace/FW_Platform2_5/trunk/ProductModules/PM_Consistency\PM_Consistency.c **** 
 381:C:/Workspace/FW_Platform2_5/trunk/ProductModules/PM_Consistency\PM_Consistency.c **** 
 382:C:/Workspace/FW_Platform2_5/trunk/ProductModules/PM_Consistency\PM_Consistency.c **** 		numOfFeedbacksLinkedToLoad = NUM_FEEDBACKS_LINKED(feedbackData.Data);
  81                             		.loc 1 382 0
  82 0041 EC 0C                   		mov.L	[r0], r12
 383:C:/Workspace/FW_Platform2_5/trunk/ProductModules/PM_Consistency\PM_Consistency.c **** 
 384:C:/Workspace/FW_Platform2_5/trunk/ProductModules/PM_Consistency\PM_Consistency.c **** 
 385:C:/Workspace/FW_Platform2_5/trunk/ProductModules/PM_Consistency\PM_Consistency.c **** 		if ( feedbackData.DataLenght <= ( 1+numOfFeedbacksLinkedToLoad ) )
  83                             		.loc 1 385 0
  84 0043 B1 04                   		movu.B	4[r0], r4
 382:C:/Workspace/FW_Platform2_5/trunk/ProductModules/PM_Consistency\PM_Consistency.c **** 		numOfFeedbacksLinkedToLoad = NUM_FEEDBACKS_LINKED(feedbackData.Data);
  85                             		.loc 1 382 0
  86 0045 CD CE 01                		mov.B	1[r12], r14
  87                             	.LVL9:
  88                             		.loc 1 385 0
  89 0048 64 FE                   		and	#15, r14
  90                             	.LVL10:
  91 004a 71 EC 01                		add	#1, r14, r12
  92                             	.LVL11:
  93 004d 47 C4                   		cmp	r12, r4
  94 004f 2A 05 38 99 01          		ble	.L5
  95 0054 66 2C                   		mov.L	#2, r12
  96 0056 CF 1B                   		mov.B	r1, r11
 386:C:/Workspace/FW_Platform2_5/trunk/ProductModules/PM_Consistency\PM_Consistency.c **** 		{
 387:C:/Workspace/FW_Platform2_5/trunk/ProductModules/PM_Consistency\PM_Consistency.c **** 			/* There's no data for consistency chk !!! -> Skip this load !!! */
 388:C:/Workspace/FW_Platform2_5/trunk/ProductModules/PM_Consistency\PM_Consistency.c **** 			continue;
 389:C:/Workspace/FW_Platform2_5/trunk/ProductModules/PM_Consistency\PM_Consistency.c **** 		}
 390:C:/Workspace/FW_Platform2_5/trunk/ProductModules/PM_Consistency\PM_Consistency.c **** 
 391:C:/Workspace/FW_Platform2_5/trunk/ProductModules/PM_Consistency\PM_Consistency.c **** 		feedbacksReady = TRUE;
 392:C:/Workspace/FW_Platform2_5/trunk/ProductModules/PM_Consistency\PM_Consistency.c **** 		/*lint -e960 side effects on right hand of logical operator || */
 393:C:/Workspace/FW_Platform2_5/trunk/ProductModules/PM_Consistency\PM_Consistency.c **** 		for ( i = 0; (feedbacksReady == TRUE) && (i < numOfFeedbacksLinkedToLoad); i++ )
  97                             		.loc 1 393 0
  98 0058 E7 0E 04                		mov.L	r14, 16[r0]
 394:C:/Workspace/FW_Platform2_5/trunk/ProductModules/PM_Consistency\PM_Consistency.c **** 		{
 395:C:/Workspace/FW_Platform2_5/trunk/ProductModules/PM_Consistency\PM_Consistency.c **** 			/* Tipologia del feedback */
 396:C:/Workspace/FW_Platform2_5/trunk/ProductModules/PM_Consistency\PM_Consistency.c **** 			readType = FEEDBACK_READ_TYPE_VALUE(feedbackData.Data,i);
 397:C:/Workspace/FW_Platform2_5/trunk/ProductModules/PM_Consistency\PM_Consistency.c **** 			/* Posizione all'interno della variabile o vettore che ne contiene il risultato */
 398:C:/Workspace/FW_Platform2_5/trunk/ProductModules/PM_Consistency\PM_Consistency.c **** 			feedbackPos = FEEDBACK_POSITION_VALUE(feedbackData.Data,i);
 399:C:/Workspace/FW_Platform2_5/trunk/ProductModules/PM_Consistency\PM_Consistency.c **** 			/* Controlla se tutti i feedbacks linkati al carico sono pronti */
 400:C:/Workspace/FW_Platform2_5/trunk/ProductModules/PM_Consistency\PM_Consistency.c **** 			switch(readType)
  99                             		.loc 1 400 0
 100 005b FB 62 00 00 00 00       		mov.L	#.L12, r6
 101 0061 2E 3F                   		bra	.L6
 102                             	.LVL12:
 103                             	.L14:
 396:C:/Workspace/FW_Platform2_5/trunk/ProductModules/PM_Consistency\PM_Consistency.c **** 			readType = FEEDBACK_READ_TYPE_VALUE(feedbackData.Data,i);
 104                             		.loc 1 396 0
 105 0063 EC 0E                   		mov.L	[r0], r14
 106                             	.LVL13:
 398:C:/Workspace/FW_Platform2_5/trunk/ProductModules/PM_Consistency\PM_Consistency.c **** 			feedbackPos = FEEDBACK_POSITION_VALUE(feedbackData.Data,i);
 107                             		.loc 1 398 0
 108 0065 4B CE                   		add	r12, r14
 109                             	.LVL14:
 110 0067 CD E1 01                		mov.B	1[r14], r1
 111                             	.LVL15:
 112                             		.loc 1 400 0
 113 006a 58 EE                   		movu.B	[r14], r14
 114                             	.LVL16:
 115 006c 75 5E 12                		cmp	#18, r14
 116 006f 24 24                   		bgtu	.L42
 117 0071 FE 6E 6E                		mov.L	[r14,r6], r14
 118                             		
 119 0074 7F 0E                   	1:jmp	r14
 120                             		.section	.rodata.PM_Consistency_Manager,"a",@progbits
 121                             		.balign 4
 122                             		.balign 4
 123                             	.L12:
 124 0000 00 00 00 00             		.long .L8
 125 0004 00 00 00 00             		.long .L42
 126 0008 00 00 00 00             		.long .L9
 127 000c 00 00 00 00             		.long .L42
 128 0010 00 00 00 00             		.long .L42
 129 0014 00 00 00 00             		.long .L42
 130 0018 00 00 00 00             		.long .L42
 131 001c 00 00 00 00             		.long .L10
 132 0020 00 00 00 00             		.long .L42
 133 0024 00 00 00 00             		.long .L42
 134 0028 00 00 00 00             		.long .L42
 135 002c 00 00 00 00             		.long .L42
 136 0030 00 00 00 00             		.long .L42
 137 0034 00 00 00 00             		.long .L11
 138 0038 00 00 00 00             		.long .L42
 139 003c 00 00 00 00             		.long .L42
 140 0040 00 00 00 00             		.long .L8
 141 0044 00 00 00 00             		.long .L42
 142 0048 00 00 00 00             		.long .L9
 143                             		.section	.text.PM_Consistency_Manager
 144                             	.L9:
 401:C:/Workspace/FW_Platform2_5/trunk/ProductModules/PM_Consistency\PM_Consistency.c **** 			{
 402:C:/Workspace/FW_Platform2_5/trunk/ProductModules/PM_Consistency\PM_Consistency.c **** 			case FEEDBACK_I:
 403:C:/Workspace/FW_Platform2_5/trunk/ProductModules/PM_Consistency\PM_Consistency.c **** 			case FEEDMULT_I:
 404:C:/Workspace/FW_Platform2_5/trunk/ProductModules/PM_Consistency\PM_Consistency.c **** 			{
 405:C:/Workspace/FW_Platform2_5/trunk/ProductModules/PM_Consistency\PM_Consistency.c **** 				if ( FALSE == LIB_FDB_IsFeedbackReady( feedbackPos ) )
 145                             		.loc 1 405 0
 146 0076 05 00 00 00             		bsr	_LIB_FDB_IsFeedbackReady
 147                             	.LVL17:
 148 007a 2E 12                   		bra	.L82
 149                             	.LVL18:
 150                             	.L8:
 406:C:/Workspace/FW_Platform2_5/trunk/ProductModules/PM_Consistency\PM_Consistency.c **** 				{
 407:C:/Workspace/FW_Platform2_5/trunk/ProductModules/PM_Consistency\PM_Consistency.c **** 					feedbacksReady = FALSE;
 408:C:/Workspace/FW_Platform2_5/trunk/ProductModules/PM_Consistency\PM_Consistency.c **** 				}
 409:C:/Workspace/FW_Platform2_5/trunk/ProductModules/PM_Consistency\PM_Consistency.c **** 			}
 410:C:/Workspace/FW_Platform2_5/trunk/ProductModules/PM_Consistency\PM_Consistency.c **** 			break;
 411:C:/Workspace/FW_Platform2_5/trunk/ProductModules/PM_Consistency\PM_Consistency.c **** 
 412:C:/Workspace/FW_Platform2_5/trunk/ProductModules/PM_Consistency\PM_Consistency.c **** 			case DIGITAL_I:
 413:C:/Workspace/FW_Platform2_5/trunk/ProductModules/PM_Consistency\PM_Consistency.c **** 			case DIGMULT_I:
 414:C:/Workspace/FW_Platform2_5/trunk/ProductModules/PM_Consistency\PM_Consistency.c **** 			{
 415:C:/Workspace/FW_Platform2_5/trunk/ProductModules/PM_Consistency\PM_Consistency.c **** 				if (FALSE == LIB_DIO_IsDigitalReady( feedbackPos ))
 151                             		.loc 1 415 0
 152 007c 05 00 00 00             		bsr	_LIB_DIO_IsDigitalReady
 153                             	.LVL19:
 154 0080 2E 0C                   		bra	.L82
 155                             	.LVL20:
 156                             	.L10:
 416:C:/Workspace/FW_Platform2_5/trunk/ProductModules/PM_Consistency\PM_Consistency.c **** 				{
 417:C:/Workspace/FW_Platform2_5/trunk/ProductModules/PM_Consistency\PM_Consistency.c **** 					feedbacksReady = FALSE;
 418:C:/Workspace/FW_Platform2_5/trunk/ProductModules/PM_Consistency\PM_Consistency.c **** 				}
 419:C:/Workspace/FW_Platform2_5/trunk/ProductModules/PM_Consistency\PM_Consistency.c **** 			}
 420:C:/Workspace/FW_Platform2_5/trunk/ProductModules/PM_Consistency\PM_Consistency.c **** 			break;
 421:C:/Workspace/FW_Platform2_5/trunk/ProductModules/PM_Consistency\PM_Consistency.c **** 
 422:C:/Workspace/FW_Platform2_5/trunk/ProductModules/PM_Consistency\PM_Consistency.c **** #if (defined(CONFIG_CS_ZEROCROSSING_DELAY) && (CONFIG_CS_ZEROCROSSING_DELAY > 0))
 423:C:/Workspace/FW_Platform2_5/trunk/ProductModules/PM_Consistency\PM_Consistency.c **** 			case ZEROCROSSING_I:
 424:C:/Workspace/FW_Platform2_5/trunk/ProductModules/PM_Consistency\PM_Consistency.c **** 			{
 425:C:/Workspace/FW_Platform2_5/trunk/ProductModules/PM_Consistency\PM_Consistency.c **** 				tmpNewMaxDelay = CONFIG_CS_ZEROCROSSING_DELAY;
 426:C:/Workspace/FW_Platform2_5/trunk/ProductModules/PM_Consistency\PM_Consistency.c **** 			}
 427:C:/Workspace/FW_Platform2_5/trunk/ProductModules/PM_Consistency\PM_Consistency.c **** 			break;
 428:C:/Workspace/FW_Platform2_5/trunk/ProductModules/PM_Consistency\PM_Consistency.c **** #endif
 429:C:/Workspace/FW_Platform2_5/trunk/ProductModules/PM_Consistency\PM_Consistency.c **** 
 430:C:/Workspace/FW_Platform2_5/trunk/ProductModules/PM_Consistency\PM_Consistency.c **** #if defined(CONFIG_PM_FREQUENCY_FEEDBACKS_SUPPORT)
 431:C:/Workspace/FW_Platform2_5/trunk/ProductModules/PM_Consistency\PM_Consistency.c **** 			case FREQFEEDBACK_I:
 432:C:/Workspace/FW_Platform2_5/trunk/ProductModules/PM_Consistency\PM_Consistency.c **** 			{
 433:C:/Workspace/FW_Platform2_5/trunk/ProductModules/PM_Consistency\PM_Consistency.c **** 				if ( FALSE == PM_FrequencyFeedbacks_GetReadyByPosition(feedbackPos) )
 157                             		.loc 1 433 0
 158 0082 05 00 00 00             		bsr	_PM_FrequencyFeedbacks_GetReadyByPosition
 159                             	.LVL21:
 160 0086 2E 06                   		bra	.L82
 161                             	.LVL22:
 162                             	.L11:
 434:C:/Workspace/FW_Platform2_5/trunk/ProductModules/PM_Consistency\PM_Consistency.c **** 				{
 435:C:/Workspace/FW_Platform2_5/trunk/ProductModules/PM_Consistency\PM_Consistency.c **** 					feedbacksReady = FALSE;
 436:C:/Workspace/FW_Platform2_5/trunk/ProductModules/PM_Consistency\PM_Consistency.c **** 				}
 437:C:/Workspace/FW_Platform2_5/trunk/ProductModules/PM_Consistency\PM_Consistency.c **** 			}
 438:C:/Workspace/FW_Platform2_5/trunk/ProductModules/PM_Consistency\PM_Consistency.c **** 			break;
 439:C:/Workspace/FW_Platform2_5/trunk/ProductModules/PM_Consistency\PM_Consistency.c **** #endif
 440:C:/Workspace/FW_Platform2_5/trunk/ProductModules/PM_Consistency\PM_Consistency.c **** 
 441:C:/Workspace/FW_Platform2_5/trunk/ProductModules/PM_Consistency\PM_Consistency.c **** #if defined(CONFIG_PM_ANALOG_FEEDBACKS_SUPPORT)
 442:C:/Workspace/FW_Platform2_5/trunk/ProductModules/PM_Consistency\PM_Consistency.c **** 			case ANALOGFEEDBACK_I:
 443:C:/Workspace/FW_Platform2_5/trunk/ProductModules/PM_Consistency\PM_Consistency.c **** 			{
 444:C:/Workspace/FW_Platform2_5/trunk/ProductModules/PM_Consistency\PM_Consistency.c **** 				if (FALSE == PM_AnalogFeedbackIsReady( feedbackPos ))
 163                             		.loc 1 444 0
 164 0088 05 00 00 00             		bsr	_PM_AnalogFeedbackIsReady
 165                             	.LVL23:
 166                             		.balign 2,3,1
 167                             	.L82:
 407:C:/Workspace/FW_Platform2_5/trunk/ProductModules/PM_Consistency\PM_Consistency.c **** 					feedbacksReady = FALSE;
 168                             		.loc 1 407 0
 169 008c 61 01                   		cmp	#0, r1
 170 008e FC DB 11                		scne.L	r1
 171 0091 2E 05                   		bra	.L7
 172                             	.LVL24:
 173                             	.L42:
 400:C:/Workspace/FW_Platform2_5/trunk/ProductModules/PM_Consistency\PM_Consistency.c **** 			switch(readType)
 174                             		.loc 1 400 0
 175 0093 66 11                   		mov.L	#1, r1
 176                             	.LVL25:
 177 0095 03                      		.balign 2,3,1
 178                             	.L7:
 393:C:/Workspace/FW_Platform2_5/trunk/ProductModules/PM_Consistency\PM_Consistency.c **** 		for ( i = 0; (feedbacksReady == TRUE) && (i < numOfFeedbacksLinkedToLoad); i++ )
 179                             		.loc 1 393 0
 180 0096 62 1B                   		add	#1, r11
 181                             	.LVL26:
 182 0098 62 2C                   		add	#2, r12
 183 009a 61 11                   		cmp	#1, r1
 184 009c 3B 5F 01                		bne	.L13
 185                             	.LVL27:
 186 009f 03                      		.balign 2,3,1
 187                             	.L6:
 393:C:/Workspace/FW_Platform2_5/trunk/ProductModules/PM_Consistency\PM_Consistency.c **** 		for ( i = 0; (feedbacksReady == TRUE) && (i < numOfFeedbacksLinkedToLoad); i++ )
 188                             		.loc 1 393 0 is_stmt 0 discriminator 2
 189 00a0 A9 04                   		mov.L	16[r0], r4
 190 00a2 5B BE                   		movu.B	r11, r14
 191 00a4 47 4E                   		cmp	r4, r14
 192 00a6 21 BD                   		bne	.L14
 193 00a8 38 58 01                		bra	.L77
 194                             	.LVL28:
 195                             	.L80:
 362:C:/Workspace/FW_Platform2_5/trunk/ProductModules/PM_Consistency\PM_Consistency.c **** 		uint8_t plpStatus = 0;  /*Variable to Chk the status of the PLP module*/
 196                             		.loc 1 362 0 is_stmt 1
 197 00ab 66 09                   		mov	#0, r9
 198 00ad 2E 05                   		bra	.L40
 199                             	.L49:
 445:C:/Workspace/FW_Platform2_5/trunk/ProductModules/PM_Consistency\PM_Consistency.c **** 				{
 446:C:/Workspace/FW_Platform2_5/trunk/ProductModules/PM_Consistency\PM_Consistency.c **** 					feedbacksReady = FALSE;
 447:C:/Workspace/FW_Platform2_5/trunk/ProductModules/PM_Consistency\PM_Consistency.c **** 				}
 448:C:/Workspace/FW_Platform2_5/trunk/ProductModules/PM_Consistency\PM_Consistency.c **** 			}
 449:C:/Workspace/FW_Platform2_5/trunk/ProductModules/PM_Consistency\PM_Consistency.c **** 			break;
 450:C:/Workspace/FW_Platform2_5/trunk/ProductModules/PM_Consistency\PM_Consistency.c **** #endif
 451:C:/Workspace/FW_Platform2_5/trunk/ProductModules/PM_Consistency\PM_Consistency.c **** 
 452:C:/Workspace/FW_Platform2_5/trunk/ProductModules/PM_Consistency\PM_Consistency.c **** 			default:
 453:C:/Workspace/FW_Platform2_5/trunk/ProductModules/PM_Consistency\PM_Consistency.c **** 			break;
 454:C:/Workspace/FW_Platform2_5/trunk/ProductModules/PM_Consistency\PM_Consistency.c **** 
 455:C:/Workspace/FW_Platform2_5/trunk/ProductModules/PM_Consistency\PM_Consistency.c **** 			}
 456:C:/Workspace/FW_Platform2_5/trunk/ProductModules/PM_Consistency\PM_Consistency.c **** 
 457:C:/Workspace/FW_Platform2_5/trunk/ProductModules/PM_Consistency\PM_Consistency.c **** 		}
 458:C:/Workspace/FW_Platform2_5/trunk/ProductModules/PM_Consistency\PM_Consistency.c **** 
 459:C:/Workspace/FW_Platform2_5/trunk/ProductModules/PM_Consistency\PM_Consistency.c **** 		if ( FALSE == feedbacksReady )
 460:C:/Workspace/FW_Platform2_5/trunk/ProductModules/PM_Consistency\PM_Consistency.c **** 		{
 461:C:/Workspace/FW_Platform2_5/trunk/ProductModules/PM_Consistency\PM_Consistency.c **** 			/* per il carico in oggetto i feedbacks ad esso linkati non sono pronti */
 462:C:/Workspace/FW_Platform2_5/trunk/ProductModules/PM_Consistency\PM_Consistency.c **** 			CS_ElemNewConsistency( loadPos, PM_CS_NOT_VALID_CODE );
 463:C:/Workspace/FW_Platform2_5/trunk/ProductModules/PM_Consistency\PM_Consistency.c **** 			continue; /* Process next load */
 464:C:/Workspace/FW_Platform2_5/trunk/ProductModules/PM_Consistency\PM_Consistency.c **** 		}
 465:C:/Workspace/FW_Platform2_5/trunk/ProductModules/PM_Consistency\PM_Consistency.c **** 
 466:C:/Workspace/FW_Platform2_5/trunk/ProductModules/PM_Consistency\PM_Consistency.c **** 		/* Stato del carico (solo reg no config)
 467:C:/Workspace/FW_Platform2_5/trunk/ProductModules/PM_Consistency\PM_Consistency.c **** 		   attenzione questa variabile indica solo il valore delle regolazione
 468:C:/Workspace/FW_Platform2_5/trunk/ProductModules/PM_Consistency\PM_Consistency.c **** 		   applicata al carico ma non dice se il carico e' pilotato o meno in questo istante */
 469:C:/Workspace/FW_Platform2_5/trunk/ProductModules/PM_Consistency\PM_Consistency.c **** 
 470:C:/Workspace/FW_Platform2_5/trunk/ProductModules/PM_Consistency\PM_Consistency.c **** 		load_status = (uint8_t)(LIB_IOM_GetLoadStatus(loadPos)&LOAD_REG_MASK);
 200                             		.loc 1 470 0
 201 00af CF 19                   		mov.B	r1, r9
 202 00b1 03                      		.balign 2,3,5
 203                             	.L40:
 204                             	.LVL29:
 471:C:/Workspace/FW_Platform2_5/trunk/ProductModules/PM_Consistency\PM_Consistency.c **** 
 472:C:/Workspace/FW_Platform2_5/trunk/ProductModules/PM_Consistency\PM_Consistency.c **** #if defined( CONFIG_PM_PROFILE_LOADS_PARTIALIZATION_SUPPORT )
 473:C:/Workspace/FW_Platform2_5/trunk/ProductModules/PM_Consistency\PM_Consistency.c **** 		if (pilotType == PLP_L)
 474:C:/Workspace/FW_Platform2_5/trunk/ProductModules/PM_Consistency\PM_Consistency.c **** 		{
 475:C:/Workspace/FW_Platform2_5/trunk/ProductModules/PM_Consistency\PM_Consistency.c **** 			/* Store the state of PLP loads */
 476:C:/Workspace/FW_Platform2_5/trunk/ProductModules/PM_Consistency\PM_Consistency.c **** 			plpStatus = load_status;
 477:C:/Workspace/FW_Platform2_5/trunk/ProductModules/PM_Consistency\PM_Consistency.c **** 		}
 478:C:/Workspace/FW_Platform2_5/trunk/ProductModules/PM_Consistency\PM_Consistency.c **** #endif /* #if defined( CONFIG_PM_PROFILE_LOADS_PARTIALIZATION_SUPPORT ) */
 479:C:/Workspace/FW_Platform2_5/trunk/ProductModules/PM_Consistency\PM_Consistency.c **** 
 480:C:/Workspace/FW_Platform2_5/trunk/ProductModules/PM_Consistency\PM_Consistency.c **** 		/* Time to wait until next evaluation of the feedback */
 481:C:/Workspace/FW_Platform2_5/trunk/ProductModules/PM_Consistency\PM_Consistency.c **** 		CS_Status_Var.CS_MaxDelay = tmpNewMaxDelay;
 205                             		.loc 1 481 0
 206 00b2 FB E2 00 00 00 00       		mov.L	#_CS_Status_Var, r14
 207 00b8 F9 E4 10 00             		mov.B	#0, 16[r14]
 482:C:/Workspace/FW_Platform2_5/trunk/ProductModules/PM_Consistency\PM_Consistency.c **** 
 483:C:/Workspace/FW_Platform2_5/trunk/ProductModules/PM_Consistency\PM_Consistency.c **** 		/* A seconda del tipo di pilotaggio del carico */
 484:C:/Workspace/FW_Platform2_5/trunk/ProductModules/PM_Consistency\PM_Consistency.c **** 		switch (pilotType)
 208                             		.loc 1 484 0
 209 00bc 61 8B                   		cmp	#8, r11
 210 00be 3A 2C 01                		beq	.L5
 211 00c1 24 11                   		bgtu	.L18
 212 00c3 61 0B                   		cmp	#0, r11
 213 00c5 20 27                   		beq	.L17
 214 00c7 60 4B                   		sub	#4, r11
 215 00c9 61 1B                   		cmp	#1, r11
 216 00cb 25 05 38 15 01          		bgtu	.L16
 217 00d0 2E 1C                   		bra	.L17
 218                             	.L18:
 219 00d2 75 5B 13                		cmp	#19, r11
 220 00d5 20 17                   		beq	.L17
 221 00d7 24 0A                   		bgtu	.L19
 222 00d9 61 BB                   		cmp	#11, r11
 223 00db 3B 07 01                		bne	.L16
 224 00de 38 0C 01                		bra	.L5
 225                             	.L19:
 226 00e1 75 5B 1D                		cmp	#29, r11
 227 00e4 20 08                   		beq	.L17
 228 00e6 75 5B 29                		cmp	#41, r11
 229 00e9 3B F9 00                		bne	.L16
 230                             		.balign 2,3,1
 231                             	.L17:
 485:C:/Workspace/FW_Platform2_5/trunk/ProductModules/PM_Consistency\PM_Consistency.c **** 		{
 486:C:/Workspace/FW_Platform2_5/trunk/ProductModules/PM_Consistency\PM_Consistency.c **** 			/*========================================*/
 487:C:/Workspace/FW_Platform2_5/trunk/ProductModules/PM_Consistency\PM_Consistency.c **** 			/* Carichi con un solo feedback associato */
 488:C:/Workspace/FW_Platform2_5/trunk/ProductModules/PM_Consistency\PM_Consistency.c **** 			/*========================================*/
 489:C:/Workspace/FW_Platform2_5/trunk/ProductModules/PM_Consistency\PM_Consistency.c **** #if defined(CONFIG_PM_LINKED_LOADS_SUPPORT)
 490:C:/Workspace/FW_Platform2_5/trunk/ProductModules/PM_Consistency\PM_Consistency.c **** 
 491:C:/Workspace/FW_Platform2_5/trunk/ProductModules/PM_Consistency\PM_Consistency.c **** 		case DIGITALDELAYED_L:
 492:C:/Workspace/FW_Platform2_5/trunk/ProductModules/PM_Consistency\PM_Consistency.c **** 		case TRIACRELAY_L:
 493:C:/Workspace/FW_Platform2_5/trunk/ProductModules/PM_Consistency\PM_Consistency.c **** 
 494:C:/Workspace/FW_Platform2_5/trunk/ProductModules/PM_Consistency\PM_Consistency.c **** 			CS_Status_Var.CS_MaxDelay = PM_LinkedLoads_GetTiming(loadPos, load_status) + (uint8_t)CONFIG_CS_
 495:C:/Workspace/FW_Platform2_5/trunk/ProductModules/PM_Consistency\PM_Consistency.c **** 			/* -fallthrough */
 496:C:/Workspace/FW_Platform2_5/trunk/ProductModules/PM_Consistency\PM_Consistency.c **** 		case RELAY_TRIAC_L:
 497:C:/Workspace/FW_Platform2_5/trunk/ProductModules/PM_Consistency\PM_Consistency.c **** #if defined(CONFIG_PM_LINKED_LOADS__RELAY_LOAD_SUPPORT)
 498:C:/Workspace/FW_Platform2_5/trunk/ProductModules/PM_Consistency\PM_Consistency.c **** 		case RELAY_LOAD_L:
 499:C:/Workspace/FW_Platform2_5/trunk/ProductModules/PM_Consistency\PM_Consistency.c **** #endif  /* #if (CONFIG_PM_LINKED_LOADS__RELAY_LOAD_SUPPORT == 1) */
 500:C:/Workspace/FW_Platform2_5/trunk/ProductModules/PM_Consistency\PM_Consistency.c **** 
 501:C:/Workspace/FW_Platform2_5/trunk/ProductModules/PM_Consistency\PM_Consistency.c **** #endif /* __TRIAC_RELAY_MULTI_H */
 502:C:/Workspace/FW_Platform2_5/trunk/ProductModules/PM_Consistency\PM_Consistency.c **** 
 503:C:/Workspace/FW_Platform2_5/trunk/ProductModules/PM_Consistency\PM_Consistency.c **** 		case DIGITAL_L:
 504:C:/Workspace/FW_Platform2_5/trunk/ProductModules/PM_Consistency\PM_Consistency.c **** 
 505:C:/Workspace/FW_Platform2_5/trunk/ProductModules/PM_Consistency\PM_Consistency.c **** #if defined(__TRIAC_RELAY_H)
 506:C:/Workspace/FW_Platform2_5/trunk/ProductModules/PM_Consistency\PM_Consistency.c **** 		case COMPTR_L:
 507:C:/Workspace/FW_Platform2_5/trunk/ProductModules/PM_Consistency\PM_Consistency.c **** #endif /* __TRIAC_RELAY_H */
 508:C:/Workspace/FW_Platform2_5/trunk/ProductModules/PM_Consistency\PM_Consistency.c **** 
 509:C:/Workspace/FW_Platform2_5/trunk/ProductModules/PM_Consistency\PM_Consistency.c **** 		case ZC_L:
 510:C:/Workspace/FW_Platform2_5/trunk/ProductModules/PM_Consistency\PM_Consistency.c **** 		case RELEZC_L:
 511:C:/Workspace/FW_Platform2_5/trunk/ProductModules/PM_Consistency\PM_Consistency.c **** 
 512:C:/Workspace/FW_Platform2_5/trunk/ProductModules/PM_Consistency\PM_Consistency.c **** #if defined(CONFIG_PM_MOTORGATE) /* ex  __UNIVERSAL_MOTOR_H */
 513:C:/Workspace/FW_Platform2_5/trunk/ProductModules/PM_Consistency\PM_Consistency.c **** 		case COLLECTORMOTOR_L:
 514:C:/Workspace/FW_Platform2_5/trunk/ProductModules/PM_Consistency\PM_Consistency.c **** #endif
 515:C:/Workspace/FW_Platform2_5/trunk/ProductModules/PM_Consistency\PM_Consistency.c **** 
 516:C:/Workspace/FW_Platform2_5/trunk/ProductModules/PM_Consistency\PM_Consistency.c **** #if defined( CONFIG_PM_PROFILE_LOADS_PARTIALIZATION_SUPPORT )
 517:C:/Workspace/FW_Platform2_5/trunk/ProductModules/PM_Consistency\PM_Consistency.c **** 		case PLP_L:
 518:C:/Workspace/FW_Platform2_5/trunk/ProductModules/PM_Consistency\PM_Consistency.c **** #endif /*#if defined( CONFIG_PM_PROFILE_LOADS_PARTIALIZATION_SUPPORT ) */
 519:C:/Workspace/FW_Platform2_5/trunk/ProductModules/PM_Consistency\PM_Consistency.c **** 
 520:C:/Workspace/FW_Platform2_5/trunk/ProductModules/PM_Consistency\PM_Consistency.c **** #if defined(CONFIG_PM_DIGITAL_OUTPUT_MULTI)
 521:C:/Workspace/FW_Platform2_5/trunk/ProductModules/PM_Consistency\PM_Consistency.c **** 		case DIGITAL_OUTPUT_MULTI_L:
 522:C:/Workspace/FW_Platform2_5/trunk/ProductModules/PM_Consistency\PM_Consistency.c **** 		case DIGITALDELAYED_MULTI_L:
 523:C:/Workspace/FW_Platform2_5/trunk/ProductModules/PM_Consistency\PM_Consistency.c **** #endif
 524:C:/Workspace/FW_Platform2_5/trunk/ProductModules/PM_Consistency\PM_Consistency.c **** 
 525:C:/Workspace/FW_Platform2_5/trunk/ProductModules/PM_Consistency\PM_Consistency.c **** #ifdef __HOOD_MOTOR_4RELAY_H
 526:C:/Workspace/FW_Platform2_5/trunk/ProductModules/PM_Consistency\PM_Consistency.c **** 		case HOODMOTOR_4RELAY_L:
 527:C:/Workspace/FW_Platform2_5/trunk/ProductModules/PM_Consistency\PM_Consistency.c **** #endif
 528:C:/Workspace/FW_Platform2_5/trunk/ProductModules/PM_Consistency\PM_Consistency.c **** 
 529:C:/Workspace/FW_Platform2_5/trunk/ProductModules/PM_Consistency\PM_Consistency.c **** #if defined(CONFIG_PM_FIXEDSPEEDMOTOR)
 530:C:/Workspace/FW_Platform2_5/trunk/ProductModules/PM_Consistency\PM_Consistency.c ****             case FIXED_SPEED_MOTOR_L:
 531:C:/Workspace/FW_Platform2_5/trunk/ProductModules/PM_Consistency\PM_Consistency.c ****             
 532:C:/Workspace/FW_Platform2_5/trunk/ProductModules/PM_Consistency\PM_Consistency.c ****                 if ( pilotType == FIXED_SPEED_MOTOR_L )
 533:C:/Workspace/FW_Platform2_5/trunk/ProductModules/PM_Consistency\PM_Consistency.c ****                 {
 534:C:/Workspace/FW_Platform2_5/trunk/ProductModules/PM_Consistency\PM_Consistency.c **** 	              	/* Delay before next evaluation */
 535:C:/Workspace/FW_Platform2_5/trunk/ProductModules/PM_Consistency\PM_Consistency.c **** 	              	CS_Status_Var.CS_MaxDelay = CONFIG_CS_FIXEDSPEEDMOTOR_DELAY;
 536:C:/Workspace/FW_Platform2_5/trunk/ProductModules/PM_Consistency\PM_Consistency.c ****                 }
 537:C:/Workspace/FW_Platform2_5/trunk/ProductModules/PM_Consistency\PM_Consistency.c **** #endif
 538:C:/Workspace/FW_Platform2_5/trunk/ProductModules/PM_Consistency\PM_Consistency.c **** 
 539:C:/Workspace/FW_Platform2_5/trunk/ProductModules/PM_Consistency\PM_Consistency.c **** 			/* Valore del feedback */
 540:C:/Workspace/FW_Platform2_5/trunk/ProductModules/PM_Consistency\PM_Consistency.c **** 			feedback_value = CS_GetValue(FEEDBACK_READ_TYPE_PNTR(feedbackData.Data,0));
 232                             		.loc 1 540 0
 233 00ec EC 0B                   		mov.L	[r0], r11
 234                             	.LVL30:
 235                             	.LBB27:
 236                             	.LBB28:
 541:C:/Workspace/FW_Platform2_5/trunk/ProductModules/PM_Consistency\PM_Consistency.c **** 
 542:C:/Workspace/FW_Platform2_5/trunk/ProductModules/PM_Consistency\PM_Consistency.c **** 			if ( CS_Status_Var.CS_LoadCnt[loadPos] < CS_Status_Var.CS_MaxDelay )
 543:C:/Workspace/FW_Platform2_5/trunk/ProductModules/PM_Consistency\PM_Consistency.c **** 			{
 544:C:/Workspace/FW_Platform2_5/trunk/ProductModules/PM_Consistency\PM_Consistency.c **** 				CS_Status_Var.CS_LoadCnt[loadPos]++;
 545:C:/Workspace/FW_Platform2_5/trunk/ProductModules/PM_Consistency\PM_Consistency.c **** 				continue;
 546:C:/Workspace/FW_Platform2_5/trunk/ProductModules/PM_Consistency\PM_Consistency.c **** 			}
 547:C:/Workspace/FW_Platform2_5/trunk/ProductModules/PM_Consistency\PM_Consistency.c **** 
 548:C:/Workspace/FW_Platform2_5/trunk/ProductModules/PM_Consistency\PM_Consistency.c **** 			if ( (load_status & LOAD_REG_MASK) != LOAD_REG_OFF )
 549:C:/Workspace/FW_Platform2_5/trunk/ProductModules/PM_Consistency\PM_Consistency.c **** 			{
 550:C:/Workspace/FW_Platform2_5/trunk/ProductModules/PM_Consistency\PM_Consistency.c **** 				load_status = CS_LOAD_ACTIVE;
 551:C:/Workspace/FW_Platform2_5/trunk/ProductModules/PM_Consistency\PM_Consistency.c **** 			}
 552:C:/Workspace/FW_Platform2_5/trunk/ProductModules/PM_Consistency\PM_Consistency.c **** 
 553:C:/Workspace/FW_Platform2_5/trunk/ProductModules/PM_Consistency\PM_Consistency.c **** #if defined(CONFIG_LIB_LOADSREQUEST_SUPPORT) && defined(CONFIG_NUM_SR_LOADS)
 554:C:/Workspace/FW_Platform2_5/trunk/ProductModules/PM_Consistency\PM_Consistency.c **** 
 555:C:/Workspace/FW_Platform2_5/trunk/ProductModules/PM_Consistency\PM_Consistency.c **** 			/* Load is OFF and consistency table is for 3 load states */
 556:C:/Workspace/FW_Platform2_5/trunk/ProductModules/PM_Consistency\PM_Consistency.c **** 			if ( ((load_status & LOAD_REG_MASK) == LOAD_REG_OFF) &&
 557:C:/Workspace/FW_Platform2_5/trunk/ProductModules/PM_Consistency\PM_Consistency.c **** 					(feedbackData.DataLenght == (1 + 4*numOfFeedbacksLinkedToLoad)) )
 558:C:/Workspace/FW_Platform2_5/trunk/ProductModules/PM_Consistency\PM_Consistency.c **** 			{
 559:C:/Workspace/FW_Platform2_5/trunk/ProductModules/PM_Consistency\PM_Consistency.c **** 				uint8_t tmpFindLoadOnSR = LIB_IOM_FindLoadOnSwitchRelay(loadPos);
 560:C:/Workspace/FW_Platform2_5/trunk/ProductModules/PM_Consistency\PM_Consistency.c **** 				/* Check if load is on a switch relay */
 561:C:/Workspace/FW_Platform2_5/trunk/ProductModules/PM_Consistency\PM_Consistency.c **** 				if (tmpFindLoadOnSR & LOAD_SR_FOUND)
 562:C:/Workspace/FW_Platform2_5/trunk/ProductModules/PM_Consistency\PM_Consistency.c **** 				{
 563:C:/Workspace/FW_Platform2_5/trunk/ProductModules/PM_Consistency\PM_Consistency.c **** 					if (tmpFindLoadOnSR & LOAD_SR_SAME_POS)
 564:C:/Workspace/FW_Platform2_5/trunk/ProductModules/PM_Consistency\PM_Consistency.c **** 					{
 565:C:/Workspace/FW_Platform2_5/trunk/ProductModules/PM_Consistency\PM_Consistency.c **** 						 /* If switch relay status is selecting it, treat like it's a Relay-only relay+triac linked l
 566:C:/Workspace/FW_Platform2_5/trunk/ProductModules/PM_Consistency\PM_Consistency.c **** 						load_status = CS_LOAD_FFC_ONLY_RELAY_ACTIVE;
 567:C:/Workspace/FW_Platform2_5/trunk/ProductModules/PM_Consistency\PM_Consistency.c **** 					}
 568:C:/Workspace/FW_Platform2_5/trunk/ProductModules/PM_Consistency\PM_Consistency.c **** 					else
 569:C:/Workspace/FW_Platform2_5/trunk/ProductModules/PM_Consistency\PM_Consistency.c **** 					{
 570:C:/Workspace/FW_Platform2_5/trunk/ProductModules/PM_Consistency\PM_Consistency.c **** 						 /* If switch relay status is not selecting it, treat like it's an OFF relay+triac linked loa
 571:C:/Workspace/FW_Platform2_5/trunk/ProductModules/PM_Consistency\PM_Consistency.c **** 						load_status = CS_LOAD_FFC_NOT_ACTIVE;
 572:C:/Workspace/FW_Platform2_5/trunk/ProductModules/PM_Consistency\PM_Consistency.c **** 					}
 573:C:/Workspace/FW_Platform2_5/trunk/ProductModules/PM_Consistency\PM_Consistency.c **** 				}
 574:C:/Workspace/FW_Platform2_5/trunk/ProductModules/PM_Consistency\PM_Consistency.c **** 			}
 575:C:/Workspace/FW_Platform2_5/trunk/ProductModules/PM_Consistency\PM_Consistency.c **** 
 576:C:/Workspace/FW_Platform2_5/trunk/ProductModules/PM_Consistency\PM_Consistency.c **** #endif
 577:C:/Workspace/FW_Platform2_5/trunk/ProductModules/PM_Consistency\PM_Consistency.c **** 
 578:C:/Workspace/FW_Platform2_5/trunk/ProductModules/PM_Consistency\PM_Consistency.c **** 
 579:C:/Workspace/FW_Platform2_5/trunk/ProductModules/PM_Consistency\PM_Consistency.c **** #if defined(CONFIG_PM_FIXEDSPEEDMOTOR)
 580:C:/Workspace/FW_Platform2_5/trunk/ProductModules/PM_Consistency\PM_Consistency.c **** 
 581:C:/Workspace/FW_Platform2_5/trunk/ProductModules/PM_Consistency\PM_Consistency.c **** 			if ( pilotType == FIXED_SPEED_MOTOR_L )
 582:C:/Workspace/FW_Platform2_5/trunk/ProductModules/PM_Consistency\PM_Consistency.c ****                 {
 583:C:/Workspace/FW_Platform2_5/trunk/ProductModules/PM_Consistency\PM_Consistency.c ****                     /* During relays transition, Consistency shall not be considered valid */
 584:C:/Workspace/FW_Platform2_5/trunk/ProductModules/PM_Consistency\PM_Consistency.c ****                     if( FSM_GetCntStatus() )
 585:C:/Workspace/FW_Platform2_5/trunk/ProductModules/PM_Consistency\PM_Consistency.c ****                     {
 586:C:/Workspace/FW_Platform2_5/trunk/ProductModules/PM_Consistency\PM_Consistency.c ****                        CS_Status_Var.CS_LoadCnt[loadPos]=0;
 587:C:/Workspace/FW_Platform2_5/trunk/ProductModules/PM_Consistency\PM_Consistency.c ****                        CS_ElemNewConsistency( loadPos, PM_CS_NOT_VALID_CODE );
 588:C:/Workspace/FW_Platform2_5/trunk/ProductModules/PM_Consistency\PM_Consistency.c ****                        continue;
 589:C:/Workspace/FW_Platform2_5/trunk/ProductModules/PM_Consistency\PM_Consistency.c ****                     }
 590:C:/Workspace/FW_Platform2_5/trunk/ProductModules/PM_Consistency\PM_Consistency.c ****                 }
 591:C:/Workspace/FW_Platform2_5/trunk/ProductModules/PM_Consistency\PM_Consistency.c **** #endif  /* defined(CONFIG_PM_FIXEDSPEEDMOTOR) */
 592:C:/Workspace/FW_Platform2_5/trunk/ProductModules/PM_Consistency\PM_Consistency.c **** 
 593:C:/Workspace/FW_Platform2_5/trunk/ProductModules/PM_Consistency\PM_Consistency.c **** 
 594:C:/Workspace/FW_Platform2_5/trunk/ProductModules/PM_Consistency\PM_Consistency.c **** #if defined(CONFIG_PM_LINKED_LOADS_SUPPORT)
 595:C:/Workspace/FW_Platform2_5/trunk/ProductModules/PM_Consistency\PM_Consistency.c **** 			if ( ( pilotType == RELAY_TRIAC_L )
 596:C:/Workspace/FW_Platform2_5/trunk/ProductModules/PM_Consistency\PM_Consistency.c **** #if defined(CONFIG_PM_LINKED_LOADS__RELAY_LOAD_SUPPORT)
 597:C:/Workspace/FW_Platform2_5/trunk/ProductModules/PM_Consistency\PM_Consistency.c **** 			        || ( pilotType == RELAY_LOAD_L )
 598:C:/Workspace/FW_Platform2_5/trunk/ProductModules/PM_Consistency\PM_Consistency.c **** #endif  /* defined(CONFIG_PM_LINKED_LOADS__RELAY_LOAD_SUPPORT) */
 599:C:/Workspace/FW_Platform2_5/trunk/ProductModules/PM_Consistency\PM_Consistency.c **** 			   )
 600:C:/Workspace/FW_Platform2_5/trunk/ProductModules/PM_Consistency\PM_Consistency.c **** 			{
 601:C:/Workspace/FW_Platform2_5/trunk/ProductModules/PM_Consistency\PM_Consistency.c **** 
 602:C:/Workspace/FW_Platform2_5/trunk/ProductModules/PM_Consistency\PM_Consistency.c **** 				/*Chk if i'm piloting the Relay or Triac or both o none */
 603:C:/Workspace/FW_Platform2_5/trunk/ProductModules/PM_Consistency\PM_Consistency.c **** 				TRL_Status = PM_LinkedLoads_GetLoadState(loadPos);
 604:C:/Workspace/FW_Platform2_5/trunk/ProductModules/PM_Consistency\PM_Consistency.c **** #if defined(CONFIG_PM_LINKED_LOADS__RELAY_LOAD_SUPPORT)
 605:C:/Workspace/FW_Platform2_5/trunk/ProductModules/PM_Consistency\PM_Consistency.c **** 				if (pilotType == RELAY_LOAD_L)
 606:C:/Workspace/FW_Platform2_5/trunk/ProductModules/PM_Consistency\PM_Consistency.c **** 				{
 607:C:/Workspace/FW_Platform2_5/trunk/ProductModules/PM_Consistency\PM_Consistency.c **** 					if (TRL_Status == LL_1ON)
 608:C:/Workspace/FW_Platform2_5/trunk/ProductModules/PM_Consistency\PM_Consistency.c **** 					{
 609:C:/Workspace/FW_Platform2_5/trunk/ProductModules/PM_Consistency\PM_Consistency.c **** 						if (PM_LinkedLoads_RelayLoad_GetStatusLinkedLoad(loadPos))
 610:C:/Workspace/FW_Platform2_5/trunk/ProductModules/PM_Consistency\PM_Consistency.c **** 						{
 611:C:/Workspace/FW_Platform2_5/trunk/ProductModules/PM_Consistency\PM_Consistency.c **** 							TRL_Status = LL_1ON;
 612:C:/Workspace/FW_Platform2_5/trunk/ProductModules/PM_Consistency\PM_Consistency.c **** 						}
 613:C:/Workspace/FW_Platform2_5/trunk/ProductModules/PM_Consistency\PM_Consistency.c **** 					}
 614:C:/Workspace/FW_Platform2_5/trunk/ProductModules/PM_Consistency\PM_Consistency.c **** 				}
 615:C:/Workspace/FW_Platform2_5/trunk/ProductModules/PM_Consistency\PM_Consistency.c **** #endif /* defined(CONFIG_PM_LINKED_LOADS__RELAY_LOAD_SUPPORT) */
 616:C:/Workspace/FW_Platform2_5/trunk/ProductModules/PM_Consistency\PM_Consistency.c **** 
 617:C:/Workspace/FW_Platform2_5/trunk/ProductModules/PM_Consistency\PM_Consistency.c **** 				SAFETY_REGION_START();
 618:C:/Workspace/FW_Platform2_5/trunk/ProductModules/PM_Consistency\PM_Consistency.c **** 				SAFETY_DATA_ELEM_CHECK( PLT_Consistency, loadPos );
 619:C:/Workspace/FW_Platform2_5/trunk/ProductModules/PM_Consistency\PM_Consistency.c **** 				SAFETY_REGION_END();
 620:C:/Workspace/FW_Platform2_5/trunk/ProductModules/PM_Consistency\PM_Consistency.c **** 
 621:C:/Workspace/FW_Platform2_5/trunk/ProductModules/PM_Consistency\PM_Consistency.c **** 				if ((PLT_Consistency[loadPos] != PM_CS_NOT_VALID_CODE) && (TRL_Status != ((PLT_Consistency[load
 622:C:/Workspace/FW_Platform2_5/trunk/ProductModules/PM_Consistency\PM_Consistency.c **** 				{
 623:C:/Workspace/FW_Platform2_5/trunk/ProductModules/PM_Consistency\PM_Consistency.c **** #if defined(CONFIG_PM_FREQUENCY_FEEDBACKS_SUPPORT)
 624:C:/Workspace/FW_Platform2_5/trunk/ProductModules/PM_Consistency\PM_Consistency.c **** 
 625:C:/Workspace/FW_Platform2_5/trunk/ProductModules/PM_Consistency\PM_Consistency.c **** 					if ( FEEDBACK_READ_TYPE_VALUE(feedbackData.Data,0) == FREQFEEDBACK_I )
 626:C:/Workspace/FW_Platform2_5/trunk/ProductModules/PM_Consistency\PM_Consistency.c **** 					{
 627:C:/Workspace/FW_Platform2_5/trunk/ProductModules/PM_Consistency\PM_Consistency.c **** 					    PM_FrequencyFeedbacks_RestartFeedbackByPosition(FEEDBACK_POSITION_VALUE(feedbackData.Data,
 628:C:/Workspace/FW_Platform2_5/trunk/ProductModules/PM_Consistency\PM_Consistency.c **** 					}
 629:C:/Workspace/FW_Platform2_5/trunk/ProductModules/PM_Consistency\PM_Consistency.c **** 					else
 630:C:/Workspace/FW_Platform2_5/trunk/ProductModules/PM_Consistency\PM_Consistency.c **** 					{
 631:C:/Workspace/FW_Platform2_5/trunk/ProductModules/PM_Consistency\PM_Consistency.c **** #endif /*CONFIG_PM_FREQUENCY_FEEDBACKS_SUPPORT */
 632:C:/Workspace/FW_Platform2_5/trunk/ProductModules/PM_Consistency\PM_Consistency.c **** 
 633:C:/Workspace/FW_Platform2_5/trunk/ProductModules/PM_Consistency\PM_Consistency.c **** 						LIB_FDB_FeedbackInitMeasure(FEEDBACK_POSITION_VALUE(feedbackData.Data,0));
 634:C:/Workspace/FW_Platform2_5/trunk/ProductModules/PM_Consistency\PM_Consistency.c **** 
 635:C:/Workspace/FW_Platform2_5/trunk/ProductModules/PM_Consistency\PM_Consistency.c **** #if defined(CONFIG_PM_FREQUENCY_FEEDBACKS_SUPPORT)
 636:C:/Workspace/FW_Platform2_5/trunk/ProductModules/PM_Consistency\PM_Consistency.c **** 					}
 637:C:/Workspace/FW_Platform2_5/trunk/ProductModules/PM_Consistency\PM_Consistency.c **** #endif/* CONFIG_PM_FREQUENCY_FEEDBACKS_SUPPORT */
 638:C:/Workspace/FW_Platform2_5/trunk/ProductModules/PM_Consistency\PM_Consistency.c **** 
 639:C:/Workspace/FW_Platform2_5/trunk/ProductModules/PM_Consistency\PM_Consistency.c **** 					CS_ElemNewConsistency( loadPos, PM_CS_NOT_VALID_CODE );
 640:C:/Workspace/FW_Platform2_5/trunk/ProductModules/PM_Consistency\PM_Consistency.c **** 					continue;
 641:C:/Workspace/FW_Platform2_5/trunk/ProductModules/PM_Consistency\PM_Consistency.c **** 				}
 642:C:/Workspace/FW_Platform2_5/trunk/ProductModules/PM_Consistency\PM_Consistency.c **** 
 643:C:/Workspace/FW_Platform2_5/trunk/ProductModules/PM_Consistency\PM_Consistency.c **** 				if (TRL_Status == LL_2ON) /*Relay ON*/
 644:C:/Workspace/FW_Platform2_5/trunk/ProductModules/PM_Consistency\PM_Consistency.c **** 				{
 645:C:/Workspace/FW_Platform2_5/trunk/ProductModules/PM_Consistency\PM_Consistency.c **** 					load_status = CS_LOAD_FFC_ONLY_RELAY_ACTIVE; /*Assert that only the relay is ON */
 646:C:/Workspace/FW_Platform2_5/trunk/ProductModules/PM_Consistency\PM_Consistency.c **** 				}
 647:C:/Workspace/FW_Platform2_5/trunk/ProductModules/PM_Consistency\PM_Consistency.c **** 				else if (TRL_Status == LL_ALL_OFF)
 648:C:/Workspace/FW_Platform2_5/trunk/ProductModules/PM_Consistency\PM_Consistency.c **** 				{
 649:C:/Workspace/FW_Platform2_5/trunk/ProductModules/PM_Consistency\PM_Consistency.c **** 					load_status = CS_LOAD_FFC_NOT_ACTIVE;
 650:C:/Workspace/FW_Platform2_5/trunk/ProductModules/PM_Consistency\PM_Consistency.c **** 				}
 651:C:/Workspace/FW_Platform2_5/trunk/ProductModules/PM_Consistency\PM_Consistency.c **** 				else if (TRL_Status & LL_1ON)
 652:C:/Workspace/FW_Platform2_5/trunk/ProductModules/PM_Consistency\PM_Consistency.c **** 				{
 653:C:/Workspace/FW_Platform2_5/trunk/ProductModules/PM_Consistency\PM_Consistency.c **** 					load_status = CS_LOAD_ACTIVE;
 654:C:/Workspace/FW_Platform2_5/trunk/ProductModules/PM_Consistency\PM_Consistency.c **** 				}
 655:C:/Workspace/FW_Platform2_5/trunk/ProductModules/PM_Consistency\PM_Consistency.c **** 				else
 656:C:/Workspace/FW_Platform2_5/trunk/ProductModules/PM_Consistency\PM_Consistency.c **** 				{
 657:C:/Workspace/FW_Platform2_5/trunk/ProductModules/PM_Consistency\PM_Consistency.c **** 					/*All other cases*/
 658:C:/Workspace/FW_Platform2_5/trunk/ProductModules/PM_Consistency\PM_Consistency.c **** 				}
 659:C:/Workspace/FW_Platform2_5/trunk/ProductModules/PM_Consistency\PM_Consistency.c **** 			}
 660:C:/Workspace/FW_Platform2_5/trunk/ProductModules/PM_Consistency\PM_Consistency.c **** #endif /* __TRIAC_RELAY_MULTI_H */
 661:C:/Workspace/FW_Platform2_5/trunk/ProductModules/PM_Consistency\PM_Consistency.c **** 
 662:C:/Workspace/FW_Platform2_5/trunk/ProductModules/PM_Consistency\PM_Consistency.c **** 
 663:C:/Workspace/FW_Platform2_5/trunk/ProductModules/PM_Consistency\PM_Consistency.c **** #if defined( CONFIG_PM_PROFILE_LOADS_PARTIALIZATION_SUPPORT )
 664:C:/Workspace/FW_Platform2_5/trunk/ProductModules/PM_Consistency\PM_Consistency.c **** 			if ( pilotType == PLP_L )
 665:C:/Workspace/FW_Platform2_5/trunk/ProductModules/PM_Consistency\PM_Consistency.c **** 			{
 666:C:/Workspace/FW_Platform2_5/trunk/ProductModules/PM_Consistency\PM_Consistency.c **** 				/* During ZC synchronization, Consistency shall not be considered valid */
 667:C:/Workspace/FW_Platform2_5/trunk/ProductModules/PM_Consistency\PM_Consistency.c **** 				if( !goodZCSignal() && IsZCSyncOngoing() )
 668:C:/Workspace/FW_Platform2_5/trunk/ProductModules/PM_Consistency\PM_Consistency.c **** 				{
 669:C:/Workspace/FW_Platform2_5/trunk/ProductModules/PM_Consistency\PM_Consistency.c **** 					CS_ElemNewConsistency( loadPos, PM_CS_NOT_VALID_CODE );
 670:C:/Workspace/FW_Platform2_5/trunk/ProductModules/PM_Consistency\PM_Consistency.c **** 					continue;
 671:C:/Workspace/FW_Platform2_5/trunk/ProductModules/PM_Consistency\PM_Consistency.c **** 				}
 672:C:/Workspace/FW_Platform2_5/trunk/ProductModules/PM_Consistency\PM_Consistency.c **** 
 673:C:/Workspace/FW_Platform2_5/trunk/ProductModules/PM_Consistency\PM_Consistency.c **** 				if (plpStatus == 0) /* OFF State */
 674:C:/Workspace/FW_Platform2_5/trunk/ProductModules/PM_Consistency\PM_Consistency.c **** 				{
 675:C:/Workspace/FW_Platform2_5/trunk/ProductModules/PM_Consistency\PM_Consistency.c **** 					load_status = CS_LOAD_FFC_NOT_ACTIVE;
 676:C:/Workspace/FW_Platform2_5/trunk/ProductModules/PM_Consistency\PM_Consistency.c **** 				}
 677:C:/Workspace/FW_Platform2_5/trunk/ProductModules/PM_Consistency\PM_Consistency.c **** 				else if (plpStatus == 3) /* High Speed */
 678:C:/Workspace/FW_Platform2_5/trunk/ProductModules/PM_Consistency\PM_Consistency.c **** 				{
 679:C:/Workspace/FW_Platform2_5/trunk/ProductModules/PM_Consistency\PM_Consistency.c **** 					load_status = CS_LOAD_FAN_HIGH_SPEED;
 680:C:/Workspace/FW_Platform2_5/trunk/ProductModules/PM_Consistency\PM_Consistency.c **** 				}
 681:C:/Workspace/FW_Platform2_5/trunk/ProductModules/PM_Consistency\PM_Consistency.c **** 				else /* Low Speed */
 682:C:/Workspace/FW_Platform2_5/trunk/ProductModules/PM_Consistency\PM_Consistency.c **** 				{
 683:C:/Workspace/FW_Platform2_5/trunk/ProductModules/PM_Consistency\PM_Consistency.c **** 					load_status = CS_LOAD_ACTIVE;
 684:C:/Workspace/FW_Platform2_5/trunk/ProductModules/PM_Consistency\PM_Consistency.c **** 				}
 685:C:/Workspace/FW_Platform2_5/trunk/ProductModules/PM_Consistency\PM_Consistency.c **** 
 686:C:/Workspace/FW_Platform2_5/trunk/ProductModules/PM_Consistency\PM_Consistency.c **** 			}
 687:C:/Workspace/FW_Platform2_5/trunk/ProductModules/PM_Consistency\PM_Consistency.c **** #endif /* #if defined( CONFIG_PM_PROFILE_LOADS_PARTIALIZATION_SUPPORT ) */
 688:C:/Workspace/FW_Platform2_5/trunk/ProductModules/PM_Consistency\PM_Consistency.c **** 
 689:C:/Workspace/FW_Platform2_5/trunk/ProductModules/PM_Consistency\PM_Consistency.c **** 
 690:C:/Workspace/FW_Platform2_5/trunk/ProductModules/PM_Consistency\PM_Consistency.c **** 			CS_ManageLoad(load_status,feedback_value, &res);
 691:C:/Workspace/FW_Platform2_5/trunk/ProductModules/PM_Consistency\PM_Consistency.c **** 
 692:C:/Workspace/FW_Platform2_5/trunk/ProductModules/PM_Consistency\PM_Consistency.c **** 			CS_ManageRes(res,feedbackData.Data,loadPos);
 693:C:/Workspace/FW_Platform2_5/trunk/ProductModules/PM_Consistency\PM_Consistency.c **** 
 694:C:/Workspace/FW_Platform2_5/trunk/ProductModules/PM_Consistency\PM_Consistency.c **** 			break;
 695:C:/Workspace/FW_Platform2_5/trunk/ProductModules/PM_Consistency\PM_Consistency.c **** 
 696:C:/Workspace/FW_Platform2_5/trunk/ProductModules/PM_Consistency\PM_Consistency.c **** 
 697:C:/Workspace/FW_Platform2_5/trunk/ProductModules/PM_Consistency\PM_Consistency.c **** #ifdef  __STEPPER_H
 698:C:/Workspace/FW_Platform2_5/trunk/ProductModules/PM_Consistency\PM_Consistency.c **** 
 699:C:/Workspace/FW_Platform2_5/trunk/ProductModules/PM_Consistency\PM_Consistency.c **** 		case STEPPER_L:
 700:C:/Workspace/FW_Platform2_5/trunk/ProductModules/PM_Consistency\PM_Consistency.c **** 			/*===============================================*/
 701:C:/Workspace/FW_Platform2_5/trunk/ProductModules/PM_Consistency\PM_Consistency.c **** 			/* Dai feedbacks reali ricavo il feedback logico */
 702:C:/Workspace/FW_Platform2_5/trunk/ProductModules/PM_Consistency\PM_Consistency.c **** 			/*===============================================*/
 703:C:/Workspace/FW_Platform2_5/trunk/ProductModules/PM_Consistency\PM_Consistency.c **** 			if ( TRUE == PM_StepperIsMoving() )
 704:C:/Workspace/FW_Platform2_5/trunk/ProductModules/PM_Consistency\PM_Consistency.c **** 			{
 705:C:/Workspace/FW_Platform2_5/trunk/ProductModules/PM_Consistency\PM_Consistency.c **** 				/* Stepper in movimento non posso prendere decisioni */
 706:C:/Workspace/FW_Platform2_5/trunk/ProductModules/PM_Consistency\PM_Consistency.c **** 				CS_Status_Var.CS_LoadCnt[loadPos] = 0;
 707:C:/Workspace/FW_Platform2_5/trunk/ProductModules/PM_Consistency\PM_Consistency.c **** 				CS_ElemNewConsistency( loadPos, PM_CS_NOT_VALID_CODE );
 708:C:/Workspace/FW_Platform2_5/trunk/ProductModules/PM_Consistency\PM_Consistency.c **** 			}
 709:C:/Workspace/FW_Platform2_5/trunk/ProductModules/PM_Consistency\PM_Consistency.c **** #ifdef CONFIG_PM_ANALOG_FEEDBACKS_SUPPORT
 710:C:/Workspace/FW_Platform2_5/trunk/ProductModules/PM_Consistency\PM_Consistency.c **** 
 711:C:/Workspace/FW_Platform2_5/trunk/ProductModules/PM_Consistency\PM_Consistency.c **** 			else if( FEEDBACK_READ_TYPE_VALUE(feedbackData.Data,0) == ANALOGFEEDBACK_I )
 712:C:/Workspace/FW_Platform2_5/trunk/ProductModules/PM_Consistency\PM_Consistency.c **** 			{
 713:C:/Workspace/FW_Platform2_5/trunk/ProductModules/PM_Consistency\PM_Consistency.c **** 				if ( CS_Status_Var.CS_LoadCnt[loadPos] >= 100 )
 714:C:/Workspace/FW_Platform2_5/trunk/ProductModules/PM_Consistency\PM_Consistency.c **** 				{
 715:C:/Workspace/FW_Platform2_5/trunk/ProductModules/PM_Consistency\PM_Consistency.c **** 					load_status = CS_LOAD_NOT_ACTIVE;
 716:C:/Workspace/FW_Platform2_5/trunk/ProductModules/PM_Consistency\PM_Consistency.c **** 					feedback_value = STEPPER_FEEDBACK_IS_OK;
 717:C:/Workspace/FW_Platform2_5/trunk/ProductModules/PM_Consistency\PM_Consistency.c **** 
 718:C:/Workspace/FW_Platform2_5/trunk/ProductModules/PM_Consistency\PM_Consistency.c **** 					/* L'unico caso distinto e' quello di carico scablato, che viene    */
 719:C:/Workspace/FW_Platform2_5/trunk/ProductModules/PM_Consistency\PM_Consistency.c **** 					/* identificato col valore 0 nella tabella L.L.I. del Setting File */
 720:C:/Workspace/FW_Platform2_5/trunk/ProductModules/PM_Consistency\PM_Consistency.c **** 
 721:C:/Workspace/FW_Platform2_5/trunk/ProductModules/PM_Consistency\PM_Consistency.c **** 					if( CS_GetValue(FEEDBACK_READ_TYPE_PNTR(feedbackData.Data,0)) == 0 )
 722:C:/Workspace/FW_Platform2_5/trunk/ProductModules/PM_Consistency\PM_Consistency.c **** 					{
 723:C:/Workspace/FW_Platform2_5/trunk/ProductModules/PM_Consistency\PM_Consistency.c **** 						feedback_value = STEPPER_FEEDBACK_IS_KO;
 724:C:/Workspace/FW_Platform2_5/trunk/ProductModules/PM_Consistency\PM_Consistency.c **** 					}
 725:C:/Workspace/FW_Platform2_5/trunk/ProductModules/PM_Consistency\PM_Consistency.c **** 
 726:C:/Workspace/FW_Platform2_5/trunk/ProductModules/PM_Consistency\PM_Consistency.c **** 					CS_ManageLoad(load_status, feedback_value, &res);
 727:C:/Workspace/FW_Platform2_5/trunk/ProductModules/PM_Consistency\PM_Consistency.c **** 					CS_ManageRes(res, feedbackData.Data, loadPos);
 728:C:/Workspace/FW_Platform2_5/trunk/ProductModules/PM_Consistency\PM_Consistency.c **** 				}
 729:C:/Workspace/FW_Platform2_5/trunk/ProductModules/PM_Consistency\PM_Consistency.c **** 				else
 730:C:/Workspace/FW_Platform2_5/trunk/ProductModules/PM_Consistency\PM_Consistency.c **** 				{
 731:C:/Workspace/FW_Platform2_5/trunk/ProductModules/PM_Consistency\PM_Consistency.c **** 					/* attendo che il feedback sia consistente */
 732:C:/Workspace/FW_Platform2_5/trunk/ProductModules/PM_Consistency\PM_Consistency.c **** 					CS_Status_Var.CS_LoadCnt[loadPos]++;
 733:C:/Workspace/FW_Platform2_5/trunk/ProductModules/PM_Consistency\PM_Consistency.c **** 					CS_ElemNewConsistency( loadPos, PM_CS_NOT_VALID_CODE );
 734:C:/Workspace/FW_Platform2_5/trunk/ProductModules/PM_Consistency\PM_Consistency.c **** 				}
 735:C:/Workspace/FW_Platform2_5/trunk/ProductModules/PM_Consistency\PM_Consistency.c **** 			}
 736:C:/Workspace/FW_Platform2_5/trunk/ProductModules/PM_Consistency\PM_Consistency.c **** #endif /* CONFIG_PM_ANALOG_FEEDBACK */
 737:C:/Workspace/FW_Platform2_5/trunk/ProductModules/PM_Consistency\PM_Consistency.c **** 			else /* Digital Feedback */
 738:C:/Workspace/FW_Platform2_5/trunk/ProductModules/PM_Consistency\PM_Consistency.c **** 			{
 739:C:/Workspace/FW_Platform2_5/trunk/ProductModules/PM_Consistency\PM_Consistency.c **** 				if ( numOfFeedbacksLinkedToLoad == 4 )
 740:C:/Workspace/FW_Platform2_5/trunk/ProductModules/PM_Consistency\PM_Consistency.c **** 				{
 741:C:/Workspace/FW_Platform2_5/trunk/ProductModules/PM_Consistency\PM_Consistency.c **** 					if ( CS_Status_Var.CS_LoadCnt[loadPos] > (2*FEEDBACK_SAMPLES) )
 742:C:/Workspace/FW_Platform2_5/trunk/ProductModules/PM_Consistency\PM_Consistency.c **** 					{
 743:C:/Workspace/FW_Platform2_5/trunk/ProductModules/PM_Consistency\PM_Consistency.c **** 						load_status = CS_LOAD_NOT_ACTIVE;
 744:C:/Workspace/FW_Platform2_5/trunk/ProductModules/PM_Consistency\PM_Consistency.c **** 						feedback_value = 0;
 745:C:/Workspace/FW_Platform2_5/trunk/ProductModules/PM_Consistency\PM_Consistency.c **** 						for ( i = 0; i < 4; i++ )
 746:C:/Workspace/FW_Platform2_5/trunk/ProductModules/PM_Consistency\PM_Consistency.c **** 						{
 747:C:/Workspace/FW_Platform2_5/trunk/ProductModules/PM_Consistency\PM_Consistency.c **** 							feedback_value <<= 1;
 748:C:/Workspace/FW_Platform2_5/trunk/ProductModules/PM_Consistency\PM_Consistency.c **** 
 749:C:/Workspace/FW_Platform2_5/trunk/ProductModules/PM_Consistency\PM_Consistency.c **** 							feedback_value |= (CS_GetValue(FEEDBACK_READ_TYPE_PNTR(feedbackData.Data,i))?1:0);
 750:C:/Workspace/FW_Platform2_5/trunk/ProductModules/PM_Consistency\PM_Consistency.c **** 						}
 751:C:/Workspace/FW_Platform2_5/trunk/ProductModules/PM_Consistency\PM_Consistency.c **** 						if ( PM_Stepper_GetLastSeqApplied() == feedback_value )
 752:C:/Workspace/FW_Platform2_5/trunk/ProductModules/PM_Consistency\PM_Consistency.c **** 						{
 753:C:/Workspace/FW_Platform2_5/trunk/ProductModules/PM_Consistency\PM_Consistency.c **** 							feedback_value = STEPPER_FEEDBACK_IS_OK;
 754:C:/Workspace/FW_Platform2_5/trunk/ProductModules/PM_Consistency\PM_Consistency.c **** 						}
 755:C:/Workspace/FW_Platform2_5/trunk/ProductModules/PM_Consistency\PM_Consistency.c **** 						else
 756:C:/Workspace/FW_Platform2_5/trunk/ProductModules/PM_Consistency\PM_Consistency.c **** 						{
 757:C:/Workspace/FW_Platform2_5/trunk/ProductModules/PM_Consistency\PM_Consistency.c **** 							feedback_value = STEPPER_FEEDBACK_IS_KO;
 758:C:/Workspace/FW_Platform2_5/trunk/ProductModules/PM_Consistency\PM_Consistency.c **** 						}
 759:C:/Workspace/FW_Platform2_5/trunk/ProductModules/PM_Consistency\PM_Consistency.c **** 						CS_ManageLoad(load_status, feedback_value, &res);
 760:C:/Workspace/FW_Platform2_5/trunk/ProductModules/PM_Consistency\PM_Consistency.c **** 						CS_ManageRes(res, feedbackData.Data, loadPos);
 761:C:/Workspace/FW_Platform2_5/trunk/ProductModules/PM_Consistency\PM_Consistency.c **** 					}
 762:C:/Workspace/FW_Platform2_5/trunk/ProductModules/PM_Consistency\PM_Consistency.c **** 					else
 763:C:/Workspace/FW_Platform2_5/trunk/ProductModules/PM_Consistency\PM_Consistency.c **** 					{
 764:C:/Workspace/FW_Platform2_5/trunk/ProductModules/PM_Consistency\PM_Consistency.c **** 						/* attendo che il feedback sia consistente */
 765:C:/Workspace/FW_Platform2_5/trunk/ProductModules/PM_Consistency\PM_Consistency.c **** 						CS_Status_Var.CS_LoadCnt[loadPos]++;
 766:C:/Workspace/FW_Platform2_5/trunk/ProductModules/PM_Consistency\PM_Consistency.c **** 						CS_ElemNewConsistency( loadPos, PM_CS_NOT_VALID_CODE );
 767:C:/Workspace/FW_Platform2_5/trunk/ProductModules/PM_Consistency\PM_Consistency.c **** 					}
 768:C:/Workspace/FW_Platform2_5/trunk/ProductModules/PM_Consistency\PM_Consistency.c **** 				}
 769:C:/Workspace/FW_Platform2_5/trunk/ProductModules/PM_Consistency\PM_Consistency.c **** 				else if(numOfFeedbacksLinkedToLoad == 1)
 770:C:/Workspace/FW_Platform2_5/trunk/ProductModules/PM_Consistency\PM_Consistency.c **** 				{
 771:C:/Workspace/FW_Platform2_5/trunk/ProductModules/PM_Consistency\PM_Consistency.c **** 					if ( CS_Status_Var.CS_LoadCnt[loadPos] > (2*FEEDBACK_SAMPLES) )
 772:C:/Workspace/FW_Platform2_5/trunk/ProductModules/PM_Consistency\PM_Consistency.c **** 					{
 773:C:/Workspace/FW_Platform2_5/trunk/ProductModules/PM_Consistency\PM_Consistency.c **** 						load_status = CS_LOAD_NOT_ACTIVE;
 774:C:/Workspace/FW_Platform2_5/trunk/ProductModules/PM_Consistency\PM_Consistency.c **** 						feedback_value = STEPPER_FEEDBACK_IS_OK;
 775:C:/Workspace/FW_Platform2_5/trunk/ProductModules/PM_Consistency\PM_Consistency.c **** 
 776:C:/Workspace/FW_Platform2_5/trunk/ProductModules/PM_Consistency\PM_Consistency.c **** 						/* L'unico caso distinto e' quello di carico scablato */
 777:C:/Workspace/FW_Platform2_5/trunk/ProductModules/PM_Consistency\PM_Consistency.c **** 						/* che fornisce un valore di feedback digitale alto  */
 778:C:/Workspace/FW_Platform2_5/trunk/ProductModules/PM_Consistency\PM_Consistency.c **** 
 779:C:/Workspace/FW_Platform2_5/trunk/ProductModules/PM_Consistency\PM_Consistency.c **** 						if( CS_GetValue(FEEDBACK_READ_TYPE_PNTR(feedbackData.Data,0)) )
 780:C:/Workspace/FW_Platform2_5/trunk/ProductModules/PM_Consistency\PM_Consistency.c **** 						{
 781:C:/Workspace/FW_Platform2_5/trunk/ProductModules/PM_Consistency\PM_Consistency.c **** 							feedback_value = STEPPER_FEEDBACK_IS_KO;
 782:C:/Workspace/FW_Platform2_5/trunk/ProductModules/PM_Consistency\PM_Consistency.c **** 						}
 783:C:/Workspace/FW_Platform2_5/trunk/ProductModules/PM_Consistency\PM_Consistency.c **** 
 784:C:/Workspace/FW_Platform2_5/trunk/ProductModules/PM_Consistency\PM_Consistency.c **** 						CS_ManageLoad(load_status, feedback_value, &res);
 785:C:/Workspace/FW_Platform2_5/trunk/ProductModules/PM_Consistency\PM_Consistency.c **** 						CS_ManageRes(res, feedbackData.Data, loadPos);
 786:C:/Workspace/FW_Platform2_5/trunk/ProductModules/PM_Consistency\PM_Consistency.c **** 					}
 787:C:/Workspace/FW_Platform2_5/trunk/ProductModules/PM_Consistency\PM_Consistency.c **** 					else
 788:C:/Workspace/FW_Platform2_5/trunk/ProductModules/PM_Consistency\PM_Consistency.c **** 					{
 789:C:/Workspace/FW_Platform2_5/trunk/ProductModules/PM_Consistency\PM_Consistency.c **** 						/* attendo che il feedback sia consistente */
 790:C:/Workspace/FW_Platform2_5/trunk/ProductModules/PM_Consistency\PM_Consistency.c **** 						CS_Status_Var.CS_LoadCnt[loadPos]++;
 791:C:/Workspace/FW_Platform2_5/trunk/ProductModules/PM_Consistency\PM_Consistency.c **** 						CS_ElemNewConsistency( loadPos, PM_CS_NOT_VALID_CODE );
 792:C:/Workspace/FW_Platform2_5/trunk/ProductModules/PM_Consistency\PM_Consistency.c **** 					}
 793:C:/Workspace/FW_Platform2_5/trunk/ProductModules/PM_Consistency\PM_Consistency.c **** 				}
 794:C:/Workspace/FW_Platform2_5/trunk/ProductModules/PM_Consistency\PM_Consistency.c **** 				else
 795:C:/Workspace/FW_Platform2_5/trunk/ProductModules/PM_Consistency\PM_Consistency.c **** 				{
 796:C:/Workspace/FW_Platform2_5/trunk/ProductModules/PM_Consistency\PM_Consistency.c **** 					/* Non e' previsto un numero di feedback digitali diverso da 1 e 4 */
 797:C:/Workspace/FW_Platform2_5/trunk/ProductModules/PM_Consistency\PM_Consistency.c **** 				}
 798:C:/Workspace/FW_Platform2_5/trunk/ProductModules/PM_Consistency\PM_Consistency.c **** 			}
 799:C:/Workspace/FW_Platform2_5/trunk/ProductModules/PM_Consistency\PM_Consistency.c **** 			break;
 800:C:/Workspace/FW_Platform2_5/trunk/ProductModules/PM_Consistency\PM_Consistency.c **** 
 801:C:/Workspace/FW_Platform2_5/trunk/ProductModules/PM_Consistency\PM_Consistency.c **** #endif /*__STEPPER_H */
 802:C:/Workspace/FW_Platform2_5/trunk/ProductModules/PM_Consistency\PM_Consistency.c **** 
 803:C:/Workspace/FW_Platform2_5/trunk/ProductModules/PM_Consistency\PM_Consistency.c **** 
 804:C:/Workspace/FW_Platform2_5/trunk/ProductModules/PM_Consistency\PM_Consistency.c **** #ifdef __PROFILER_H
 805:C:/Workspace/FW_Platform2_5/trunk/ProductModules/PM_Consistency\PM_Consistency.c **** 			/*========================================*/
 806:C:/Workspace/FW_Platform2_5/trunk/ProductModules/PM_Consistency\PM_Consistency.c **** 			/* Carichi con un solo feedback associato */
 807:C:/Workspace/FW_Platform2_5/trunk/ProductModules/PM_Consistency\PM_Consistency.c **** 			/*========================================*/
 808:C:/Workspace/FW_Platform2_5/trunk/ProductModules/PM_Consistency\PM_Consistency.c **** 
 809:C:/Workspace/FW_Platform2_5/trunk/ProductModules/PM_Consistency\PM_Consistency.c **** 		case PROFILE_L:
 810:C:/Workspace/FW_Platform2_5/trunk/ProductModules/PM_Consistency\PM_Consistency.c **** 
 811:C:/Workspace/FW_Platform2_5/trunk/ProductModules/PM_Consistency\PM_Consistency.c **** 			/* Valore del feedback */
 812:C:/Workspace/FW_Platform2_5/trunk/ProductModules/PM_Consistency\PM_Consistency.c **** 			feedback_value = CS_GetValue(FEEDBACK_READ_TYPE_PNTR(feedbackData.Data,0));
 813:C:/Workspace/FW_Platform2_5/trunk/ProductModules/PM_Consistency\PM_Consistency.c **** 
 814:C:/Workspace/FW_Platform2_5/trunk/ProductModules/PM_Consistency\PM_Consistency.c **** 			/* Per il carico contraddistinto da loadPos
 815:C:/Workspace/FW_Platform2_5/trunk/ProductModules/PM_Consistency\PM_Consistency.c **** 			   controlla se e' un profilo in esecuzione.
 816:C:/Workspace/FW_Platform2_5/trunk/ProductModules/PM_Consistency\PM_Consistency.c **** 			   N.B.: la durata massima di un profilo e' di 320 msec a 50 Hz
 817:C:/Workspace/FW_Platform2_5/trunk/ProductModules/PM_Consistency\PM_Consistency.c **** 			   Cfr. Loads Profile Data in Platform Setting doc
 818:C:/Workspace/FW_Platform2_5/trunk/ProductModules/PM_Consistency\PM_Consistency.c **** 			   quindi avro' il primo dato utile per consistency dopo
 819:C:/Workspace/FW_Platform2_5/trunk/ProductModules/PM_Consistency\PM_Consistency.c **** 			   320 + 2*FEEDBACK_SAMPLES = 520 msec con FEEDBACK_SAMPLES=20 */
 820:C:/Workspace/FW_Platform2_5/trunk/ProductModules/PM_Consistency\PM_Consistency.c **** 
 821:C:/Workspace/FW_Platform2_5/trunk/ProductModules/PM_Consistency\PM_Consistency.c **** 			if ( TRUE == PM_IsProfileActiveInPos(loadPos) )
 822:C:/Workspace/FW_Platform2_5/trunk/ProductModules/PM_Consistency\PM_Consistency.c **** 			{
 823:C:/Workspace/FW_Platform2_5/trunk/ProductModules/PM_Consistency\PM_Consistency.c **** 				/* profilo in esecuzione non posso prendere decisioni */
 824:C:/Workspace/FW_Platform2_5/trunk/ProductModules/PM_Consistency\PM_Consistency.c **** 				CS_ElemNewConsistency( loadPos, PM_CS_NOT_VALID_CODE );
 825:C:/Workspace/FW_Platform2_5/trunk/ProductModules/PM_Consistency\PM_Consistency.c **** 			}
 826:C:/Workspace/FW_Platform2_5/trunk/ProductModules/PM_Consistency\PM_Consistency.c **** 			else
 827:C:/Workspace/FW_Platform2_5/trunk/ProductModules/PM_Consistency\PM_Consistency.c **** 			{
 828:C:/Workspace/FW_Platform2_5/trunk/ProductModules/PM_Consistency\PM_Consistency.c **** 				/* profilo non in esecuzione.
 829:C:/Workspace/FW_Platform2_5/trunk/ProductModules/PM_Consistency\PM_Consistency.c **** 				 N.B.:CS_Status_Var.CS_LoadCnt[loadPos] viene azzerato ogni
 830:C:/Workspace/FW_Platform2_5/trunk/ProductModules/PM_Consistency\PM_Consistency.c **** 				 volta che c'e' un cambiamento di profilo  */
 831:C:/Workspace/FW_Platform2_5/trunk/ProductModules/PM_Consistency\PM_Consistency.c **** 				if ( CS_Status_Var.CS_LoadCnt[loadPos] > (2*FEEDBACK_SAMPLES) )
 832:C:/Workspace/FW_Platform2_5/trunk/ProductModules/PM_Consistency\PM_Consistency.c **** 				{
 833:C:/Workspace/FW_Platform2_5/trunk/ProductModules/PM_Consistency\PM_Consistency.c **** 					/* il feedback e' consistente */
 834:C:/Workspace/FW_Platform2_5/trunk/ProductModules/PM_Consistency\PM_Consistency.c **** 					CS_ManageLoad(CS_LOAD_NOT_ACTIVE, feedback_value, &res);
 835:C:/Workspace/FW_Platform2_5/trunk/ProductModules/PM_Consistency\PM_Consistency.c **** 
 836:C:/Workspace/FW_Platform2_5/trunk/ProductModules/PM_Consistency\PM_Consistency.c **** 					CS_ManageRes(res, feedbackData.Data, loadPos);
 837:C:/Workspace/FW_Platform2_5/trunk/ProductModules/PM_Consistency\PM_Consistency.c **** 
 838:C:/Workspace/FW_Platform2_5/trunk/ProductModules/PM_Consistency\PM_Consistency.c **** 				}
 839:C:/Workspace/FW_Platform2_5/trunk/ProductModules/PM_Consistency\PM_Consistency.c **** 				else
 840:C:/Workspace/FW_Platform2_5/trunk/ProductModules/PM_Consistency\PM_Consistency.c **** 				{
 841:C:/Workspace/FW_Platform2_5/trunk/ProductModules/PM_Consistency\PM_Consistency.c **** 					/* attendo che il feedback sia consistente */
 842:C:/Workspace/FW_Platform2_5/trunk/ProductModules/PM_Consistency\PM_Consistency.c **** 					CS_Status_Var.CS_LoadCnt[loadPos]++;
 843:C:/Workspace/FW_Platform2_5/trunk/ProductModules/PM_Consistency\PM_Consistency.c **** 					CS_ElemNewConsistency( loadPos, PM_CS_NOT_VALID_CODE );
 844:C:/Workspace/FW_Platform2_5/trunk/ProductModules/PM_Consistency\PM_Consistency.c **** 				}
 845:C:/Workspace/FW_Platform2_5/trunk/ProductModules/PM_Consistency\PM_Consistency.c **** 			}
 846:C:/Workspace/FW_Platform2_5/trunk/ProductModules/PM_Consistency\PM_Consistency.c **** 			break;
 847:C:/Workspace/FW_Platform2_5/trunk/ProductModules/PM_Consistency\PM_Consistency.c **** 
 848:C:/Workspace/FW_Platform2_5/trunk/ProductModules/PM_Consistency\PM_Consistency.c **** #endif /*__PROFILER_H*/
 849:C:/Workspace/FW_Platform2_5/trunk/ProductModules/PM_Consistency\PM_Consistency.c **** 
 850:C:/Workspace/FW_Platform2_5/trunk/ProductModules/PM_Consistency\PM_Consistency.c **** #ifdef __BUZZER_H
 851:C:/Workspace/FW_Platform2_5/trunk/ProductModules/PM_Consistency\PM_Consistency.c **** 		case BUZZER_L:
 852:C:/Workspace/FW_Platform2_5/trunk/ProductModules/PM_Consistency\PM_Consistency.c **** 
 853:C:/Workspace/FW_Platform2_5/trunk/ProductModules/PM_Consistency\PM_Consistency.c **** 			/* To be complete ... */
 854:C:/Workspace/FW_Platform2_5/trunk/ProductModules/PM_Consistency\PM_Consistency.c **** 			continue;
 855:C:/Workspace/FW_Platform2_5/trunk/ProductModules/PM_Consistency\PM_Consistency.c **** #endif /* __BUZZER_H */
 856:C:/Workspace/FW_Platform2_5/trunk/ProductModules/PM_Consistency\PM_Consistency.c **** 
 857:C:/Workspace/FW_Platform2_5/trunk/ProductModules/PM_Consistency\PM_Consistency.c **** #ifdef __MULTI_H
 858:C:/Workspace/FW_Platform2_5/trunk/ProductModules/PM_Consistency\PM_Consistency.c **** 		case CHIPSEL_L:
 859:C:/Workspace/FW_Platform2_5/trunk/ProductModules/PM_Consistency\PM_Consistency.c **** 
 860:C:/Workspace/FW_Platform2_5/trunk/ProductModules/PM_Consistency\PM_Consistency.c **** 			/* [To be complete ...] */
 861:C:/Workspace/FW_Platform2_5/trunk/ProductModules/PM_Consistency\PM_Consistency.c **** 			continue;
 862:C:/Workspace/FW_Platform2_5/trunk/ProductModules/PM_Consistency\PM_Consistency.c **** 
 863:C:/Workspace/FW_Platform2_5/trunk/ProductModules/PM_Consistency\PM_Consistency.c **** 
 864:C:/Workspace/FW_Platform2_5/trunk/ProductModules/PM_Consistency\PM_Consistency.c **** #endif /*__MULTI_H*/
 865:C:/Workspace/FW_Platform2_5/trunk/ProductModules/PM_Consistency\PM_Consistency.c **** 
 866:C:/Workspace/FW_Platform2_5/trunk/ProductModules/PM_Consistency\PM_Consistency.c **** 
 867:C:/Workspace/FW_Platform2_5/trunk/ProductModules/PM_Consistency\PM_Consistency.c **** #ifdef __MULTI2_H
 868:C:/Workspace/FW_Platform2_5/trunk/ProductModules/PM_Consistency\PM_Consistency.c **** 		case CHIPSEL2_L:
 869:C:/Workspace/FW_Platform2_5/trunk/ProductModules/PM_Consistency\PM_Consistency.c **** 
 870:C:/Workspace/FW_Platform2_5/trunk/ProductModules/PM_Consistency\PM_Consistency.c **** 			/* [To be complete ...] */
 871:C:/Workspace/FW_Platform2_5/trunk/ProductModules/PM_Consistency\PM_Consistency.c **** 			continue;
 872:C:/Workspace/FW_Platform2_5/trunk/ProductModules/PM_Consistency\PM_Consistency.c **** 
 873:C:/Workspace/FW_Platform2_5/trunk/ProductModules/PM_Consistency\PM_Consistency.c **** 
 874:C:/Workspace/FW_Platform2_5/trunk/ProductModules/PM_Consistency\PM_Consistency.c **** #endif /*__MULTI2_H*/
 875:C:/Workspace/FW_Platform2_5/trunk/ProductModules/PM_Consistency\PM_Consistency.c **** 
 876:C:/Workspace/FW_Platform2_5/trunk/ProductModules/PM_Consistency\PM_Consistency.c **** #ifdef __MULTI_OUT_H
 877:C:/Workspace/FW_Platform2_5/trunk/ProductModules/PM_Consistency\PM_Consistency.c ****         case CHIPSEL_OUT_L:
 878:C:/Workspace/FW_Platform2_5/trunk/ProductModules/PM_Consistency\PM_Consistency.c **** 
 879:C:/Workspace/FW_Platform2_5/trunk/ProductModules/PM_Consistency\PM_Consistency.c ****             /* [To be completed ...] */
 880:C:/Workspace/FW_Platform2_5/trunk/ProductModules/PM_Consistency\PM_Consistency.c ****             continue;
 881:C:/Workspace/FW_Platform2_5/trunk/ProductModules/PM_Consistency\PM_Consistency.c **** 
 882:C:/Workspace/FW_Platform2_5/trunk/ProductModules/PM_Consistency\PM_Consistency.c **** 
 883:C:/Workspace/FW_Platform2_5/trunk/ProductModules/PM_Consistency\PM_Consistency.c **** #endif /*__MULTI_OUT_H*/
 884:C:/Workspace/FW_Platform2_5/trunk/ProductModules/PM_Consistency\PM_Consistency.c **** 
 885:C:/Workspace/FW_Platform2_5/trunk/ProductModules/PM_Consistency\PM_Consistency.c **** 		case ACQUACARE_L:
 886:C:/Workspace/FW_Platform2_5/trunk/ProductModules/PM_Consistency\PM_Consistency.c **** 
 887:C:/Workspace/FW_Platform2_5/trunk/ProductModules/PM_Consistency\PM_Consistency.c **** 			/* To be complete ...*/
 888:C:/Workspace/FW_Platform2_5/trunk/ProductModules/PM_Consistency\PM_Consistency.c **** 			continue;
 889:C:/Workspace/FW_Platform2_5/trunk/ProductModules/PM_Consistency\PM_Consistency.c **** 
 890:C:/Workspace/FW_Platform2_5/trunk/ProductModules/PM_Consistency\PM_Consistency.c **** #ifdef __DAMPER_ONOFF_H
 891:C:/Workspace/FW_Platform2_5/trunk/ProductModules/PM_Consistency\PM_Consistency.c **** 
 892:C:/Workspace/FW_Platform2_5/trunk/ProductModules/PM_Consistency\PM_Consistency.c **** 		case DUMPEROO_L:
 893:C:/Workspace/FW_Platform2_5/trunk/ProductModules/PM_Consistency\PM_Consistency.c **** 			/*=========================*/
 894:C:/Workspace/FW_Platform2_5/trunk/ProductModules/PM_Consistency\PM_Consistency.c **** 			/* Feedback di tipo logico */
 895:C:/Workspace/FW_Platform2_5/trunk/ProductModules/PM_Consistency\PM_Consistency.c **** 			/*=========================*/
 896:C:/Workspace/FW_Platform2_5/trunk/ProductModules/PM_Consistency\PM_Consistency.c **** 			if ( TRUE == PM_Damper_ONOFF_IsDriven() )
 897:C:/Workspace/FW_Platform2_5/trunk/ProductModules/PM_Consistency\PM_Consistency.c **** 			{
 898:C:/Workspace/FW_Platform2_5/trunk/ProductModules/PM_Consistency\PM_Consistency.c **** 				/*=============================*/
 899:C:/Workspace/FW_Platform2_5/trunk/ProductModules/PM_Consistency\PM_Consistency.c **** 				/* caso damper on off pilotato */
 900:C:/Workspace/FW_Platform2_5/trunk/ProductModules/PM_Consistency\PM_Consistency.c **** 				/*=============================*/
 901:C:/Workspace/FW_Platform2_5/trunk/ProductModules/PM_Consistency\PM_Consistency.c **** 				/* per quando il Damper risultera' non pilotato */
 902:C:/Workspace/FW_Platform2_5/trunk/ProductModules/PM_Consistency\PM_Consistency.c **** 				CS_Status_Var.damperOnOffState.bit.firstTimeDamperNotPylot = 0;
 903:C:/Workspace/FW_Platform2_5/trunk/ProductModules/PM_Consistency\PM_Consistency.c **** 				load_status = CS_LOAD_ACTIVE;
 904:C:/Workspace/FW_Platform2_5/trunk/ProductModules/PM_Consistency\PM_Consistency.c **** 
 905:C:/Workspace/FW_Platform2_5/trunk/ProductModules/PM_Consistency\PM_Consistency.c **** 				if ( CS_Status_Var.damperOnOffState.bit.firstTimeDamperPylot == 0 )
 906:C:/Workspace/FW_Platform2_5/trunk/ProductModules/PM_Consistency\PM_Consistency.c **** 				{
 907:C:/Workspace/FW_Platform2_5/trunk/ProductModules/PM_Consistency\PM_Consistency.c **** 					/* first time -> init */
 908:C:/Workspace/FW_Platform2_5/trunk/ProductModules/PM_Consistency\PM_Consistency.c **** 					CS_Status_Var.CS_LoadCnt[loadPos] = 0;
 909:C:/Workspace/FW_Platform2_5/trunk/ProductModules/PM_Consistency\PM_Consistency.c **** 					CS_Status_Var.damperOnOffcntrOneSec = 0;
 910:C:/Workspace/FW_Platform2_5/trunk/ProductModules/PM_Consistency\PM_Consistency.c **** 					CS_Status_Var.damperOnOffState.bit.stopMonitoring = 0;
 911:C:/Workspace/FW_Platform2_5/trunk/ProductModules/PM_Consistency\PM_Consistency.c **** 					CS_Status_Var.damperOnOffState.bit.firstTimeDamperPylot = 1;
 912:C:/Workspace/FW_Platform2_5/trunk/ProductModules/PM_Consistency\PM_Consistency.c **** 				}
 913:C:/Workspace/FW_Platform2_5/trunk/ProductModules/PM_Consistency\PM_Consistency.c **** 				if ( CS_Status_Var.damperOnOffState.bit.stopMonitoring == 1 )
 914:C:/Workspace/FW_Platform2_5/trunk/ProductModules/PM_Consistency\PM_Consistency.c **** 				{
 915:C:/Workspace/FW_Platform2_5/trunk/ProductModules/PM_Consistency\PM_Consistency.c **** 					/* Posizionamento non raggiunto entro il timeout */
 916:C:/Workspace/FW_Platform2_5/trunk/ProductModules/PM_Consistency\PM_Consistency.c **** 					feedback_value = DAMPER_ONOFF_FEEDBACK_IS_KO;
 917:C:/Workspace/FW_Platform2_5/trunk/ProductModules/PM_Consistency\PM_Consistency.c **** 				}
 918:C:/Workspace/FW_Platform2_5/trunk/ProductModules/PM_Consistency\PM_Consistency.c **** 				else
 919:C:/Workspace/FW_Platform2_5/trunk/ProductModules/PM_Consistency\PM_Consistency.c **** 				{
 920:C:/Workspace/FW_Platform2_5/trunk/ProductModules/PM_Consistency\PM_Consistency.c **** 					feedback_value = DAMPER_ONOFF_FEEDBACK_IS_OK;
 921:C:/Workspace/FW_Platform2_5/trunk/ProductModules/PM_Consistency\PM_Consistency.c **** 					CS_Status_Var.CS_LoadCnt[loadPos] ++;
 922:C:/Workspace/FW_Platform2_5/trunk/ProductModules/PM_Consistency\PM_Consistency.c **** 					if ( CS_Status_Var.CS_LoadCnt[loadPos] >= 100 )
 923:C:/Workspace/FW_Platform2_5/trunk/ProductModules/PM_Consistency\PM_Consistency.c **** 					{
 924:C:/Workspace/FW_Platform2_5/trunk/ProductModules/PM_Consistency\PM_Consistency.c **** 						/* one second elapsed */
 925:C:/Workspace/FW_Platform2_5/trunk/ProductModules/PM_Consistency\PM_Consistency.c **** 						CS_Status_Var.CS_LoadCnt[loadPos] = 0;
 926:C:/Workspace/FW_Platform2_5/trunk/ProductModules/PM_Consistency\PM_Consistency.c **** 
 927:C:/Workspace/FW_Platform2_5/trunk/ProductModules/PM_Consistency\PM_Consistency.c **** 						if ( CS_Status_Var.damperOnOffcntrOneSec >= PM_Damper_ONOFF_GetTmaxReachPos() )
 928:C:/Workspace/FW_Platform2_5/trunk/ProductModules/PM_Consistency\PM_Consistency.c **** 						{
 929:C:/Workspace/FW_Platform2_5/trunk/ProductModules/PM_Consistency\PM_Consistency.c **** 							CS_Status_Var.damperOnOffState.bit.stopMonitoring = 1;
 930:C:/Workspace/FW_Platform2_5/trunk/ProductModules/PM_Consistency\PM_Consistency.c **** 						}
 931:C:/Workspace/FW_Platform2_5/trunk/ProductModules/PM_Consistency\PM_Consistency.c **** 						else
 932:C:/Workspace/FW_Platform2_5/trunk/ProductModules/PM_Consistency\PM_Consistency.c **** 						{
 933:C:/Workspace/FW_Platform2_5/trunk/ProductModules/PM_Consistency\PM_Consistency.c **** 							CS_Status_Var.damperOnOffcntrOneSec ++;
 934:C:/Workspace/FW_Platform2_5/trunk/ProductModules/PM_Consistency\PM_Consistency.c **** 						}
 935:C:/Workspace/FW_Platform2_5/trunk/ProductModules/PM_Consistency\PM_Consistency.c **** 					}
 936:C:/Workspace/FW_Platform2_5/trunk/ProductModules/PM_Consistency\PM_Consistency.c **** 				}
 937:C:/Workspace/FW_Platform2_5/trunk/ProductModules/PM_Consistency\PM_Consistency.c **** 			}
 938:C:/Workspace/FW_Platform2_5/trunk/ProductModules/PM_Consistency\PM_Consistency.c **** 			else
 939:C:/Workspace/FW_Platform2_5/trunk/ProductModules/PM_Consistency\PM_Consistency.c **** 			{
 940:C:/Workspace/FW_Platform2_5/trunk/ProductModules/PM_Consistency\PM_Consistency.c **** 				/*=================================*/
 941:C:/Workspace/FW_Platform2_5/trunk/ProductModules/PM_Consistency\PM_Consistency.c **** 				/* caso damper on off NON pilotato */
 942:C:/Workspace/FW_Platform2_5/trunk/ProductModules/PM_Consistency\PM_Consistency.c **** 				/*=================================*/
 943:C:/Workspace/FW_Platform2_5/trunk/ProductModules/PM_Consistency\PM_Consistency.c **** 				/* per quando il Damper risultera' pilotato */
 944:C:/Workspace/FW_Platform2_5/trunk/ProductModules/PM_Consistency\PM_Consistency.c **** 				CS_Status_Var.damperOnOffState.bit.firstTimeDamperPylot = 0;
 945:C:/Workspace/FW_Platform2_5/trunk/ProductModules/PM_Consistency\PM_Consistency.c **** 				load_status = CS_LOAD_NOT_ACTIVE;
 946:C:/Workspace/FW_Platform2_5/trunk/ProductModules/PM_Consistency\PM_Consistency.c **** 				if ( CS_Status_Var.damperOnOffState.bit.firstTimeDamperNotPylot == 0 )
 947:C:/Workspace/FW_Platform2_5/trunk/ProductModules/PM_Consistency\PM_Consistency.c **** 				{
 948:C:/Workspace/FW_Platform2_5/trunk/ProductModules/PM_Consistency\PM_Consistency.c **** 					/* first time -> init */
 949:C:/Workspace/FW_Platform2_5/trunk/ProductModules/PM_Consistency\PM_Consistency.c **** 
 950:C:/Workspace/FW_Platform2_5/trunk/ProductModules/PM_Consistency\PM_Consistency.c **** 					/* Campiona la posizione corrente del damper */
 951:C:/Workspace/FW_Platform2_5/trunk/ProductModules/PM_Consistency\PM_Consistency.c **** 					CS_Status_Var.damperCurrentPos = PM_Damper_ONOFF_GetReedVal();
 952:C:/Workspace/FW_Platform2_5/trunk/ProductModules/PM_Consistency\PM_Consistency.c **** 					/* Clear filter for monitoring */
 953:C:/Workspace/FW_Platform2_5/trunk/ProductModules/PM_Consistency\PM_Consistency.c **** 					CS_Status_Var.CS_LoadCnt[loadPos] = 0;
 954:C:/Workspace/FW_Platform2_5/trunk/ProductModules/PM_Consistency\PM_Consistency.c **** 					/* Flag condizione corretta */
 955:C:/Workspace/FW_Platform2_5/trunk/ProductModules/PM_Consistency\PM_Consistency.c **** 					CS_Status_Var.damperOnOffState.bit.cameFromInputOK = 1;
 956:C:/Workspace/FW_Platform2_5/trunk/ProductModules/PM_Consistency\PM_Consistency.c **** 					/* Stato del feedback O.K. fino a quando non avra' eseguito il nuovo campionamento */
 957:C:/Workspace/FW_Platform2_5/trunk/ProductModules/PM_Consistency\PM_Consistency.c **** 					CS_Status_Var.damperFeedbackValue = DAMPER_ONOFF_FEEDBACK_IS_OK;
 958:C:/Workspace/FW_Platform2_5/trunk/ProductModules/PM_Consistency\PM_Consistency.c **** 					/* Inizializzazione eseguita */
 959:C:/Workspace/FW_Platform2_5/trunk/ProductModules/PM_Consistency\PM_Consistency.c **** 					CS_Status_Var.damperOnOffState.bit.firstTimeDamperNotPylot = 1;
 960:C:/Workspace/FW_Platform2_5/trunk/ProductModules/PM_Consistency\PM_Consistency.c **** 				}
 961:C:/Workspace/FW_Platform2_5/trunk/ProductModules/PM_Consistency\PM_Consistency.c **** 
 962:C:/Workspace/FW_Platform2_5/trunk/ProductModules/PM_Consistency\PM_Consistency.c **** 				if ( CS_Status_Var.damperCurrentPos != PM_Damper_ONOFF_GetReedVal() )
 963:C:/Workspace/FW_Platform2_5/trunk/ProductModules/PM_Consistency\PM_Consistency.c **** 				{
 964:C:/Workspace/FW_Platform2_5/trunk/ProductModules/PM_Consistency\PM_Consistency.c **** 					/* Controlla se la lettura precedente era O.K. */
 965:C:/Workspace/FW_Platform2_5/trunk/ProductModules/PM_Consistency\PM_Consistency.c **** 					if ( CS_Status_Var.damperOnOffState.bit.cameFromInputOK == 1 )
 966:C:/Workspace/FW_Platform2_5/trunk/ProductModules/PM_Consistency\PM_Consistency.c **** 					{
 967:C:/Workspace/FW_Platform2_5/trunk/ProductModules/PM_Consistency\PM_Consistency.c **** 						/* No -> Clear filter for monitoring */
 968:C:/Workspace/FW_Platform2_5/trunk/ProductModules/PM_Consistency\PM_Consistency.c **** 						CS_Status_Var.CS_LoadCnt[loadPos] = 0;
 969:C:/Workspace/FW_Platform2_5/trunk/ProductModules/PM_Consistency\PM_Consistency.c **** 					}
 970:C:/Workspace/FW_Platform2_5/trunk/ProductModules/PM_Consistency\PM_Consistency.c **** 					/* Flag condizione non corretta */
 971:C:/Workspace/FW_Platform2_5/trunk/ProductModules/PM_Consistency\PM_Consistency.c **** 					CS_Status_Var.damperOnOffState.bit.cameFromInputOK = 0;
 972:C:/Workspace/FW_Platform2_5/trunk/ProductModules/PM_Consistency\PM_Consistency.c **** 
 973:C:/Workspace/FW_Platform2_5/trunk/ProductModules/PM_Consistency\PM_Consistency.c **** 					/* filtro per eventuali disturbi */
 974:C:/Workspace/FW_Platform2_5/trunk/ProductModules/PM_Consistency\PM_Consistency.c **** 					if ( CS_Status_Var.CS_LoadCnt[loadPos] < 50 )
 975:C:/Workspace/FW_Platform2_5/trunk/ProductModules/PM_Consistency\PM_Consistency.c **** 					{
 976:C:/Workspace/FW_Platform2_5/trunk/ProductModules/PM_Consistency\PM_Consistency.c **** 						/* non prendo decisioni sul valore del feedback -> rimango con il vecchio valore */
 977:C:/Workspace/FW_Platform2_5/trunk/ProductModules/PM_Consistency\PM_Consistency.c **** 						CS_Status_Var.CS_LoadCnt[loadPos] ++;
 978:C:/Workspace/FW_Platform2_5/trunk/ProductModules/PM_Consistency\PM_Consistency.c **** 					}
 979:C:/Workspace/FW_Platform2_5/trunk/ProductModules/PM_Consistency\PM_Consistency.c **** 					else
 980:C:/Workspace/FW_Platform2_5/trunk/ProductModules/PM_Consistency\PM_Consistency.c **** 					{
 981:C:/Workspace/FW_Platform2_5/trunk/ProductModules/PM_Consistency\PM_Consistency.c **** 						/* il damper NON  pilotato e la posizione e' cambiata */
 982:C:/Workspace/FW_Platform2_5/trunk/ProductModules/PM_Consistency\PM_Consistency.c **** 						CS_Status_Var.damperFeedbackValue = DAMPER_ONOFF_FEEDBACK_IS_KO;
 983:C:/Workspace/FW_Platform2_5/trunk/ProductModules/PM_Consistency\PM_Consistency.c **** 					}
 984:C:/Workspace/FW_Platform2_5/trunk/ProductModules/PM_Consistency\PM_Consistency.c **** 				}
 985:C:/Workspace/FW_Platform2_5/trunk/ProductModules/PM_Consistency\PM_Consistency.c **** 				else
 986:C:/Workspace/FW_Platform2_5/trunk/ProductModules/PM_Consistency\PM_Consistency.c **** 				{
 987:C:/Workspace/FW_Platform2_5/trunk/ProductModules/PM_Consistency\PM_Consistency.c **** 					/* Controlla se la lettura precedente era O.K. */
 988:C:/Workspace/FW_Platform2_5/trunk/ProductModules/PM_Consistency\PM_Consistency.c **** 					if ( CS_Status_Var.damperOnOffState.bit.cameFromInputOK == 0 )
 989:C:/Workspace/FW_Platform2_5/trunk/ProductModules/PM_Consistency\PM_Consistency.c **** 					{
 990:C:/Workspace/FW_Platform2_5/trunk/ProductModules/PM_Consistency\PM_Consistency.c **** 						/* Clear filter for monitoring */
 991:C:/Workspace/FW_Platform2_5/trunk/ProductModules/PM_Consistency\PM_Consistency.c **** 						CS_Status_Var.CS_LoadCnt[loadPos] = 0;
 992:C:/Workspace/FW_Platform2_5/trunk/ProductModules/PM_Consistency\PM_Consistency.c **** 					}
 993:C:/Workspace/FW_Platform2_5/trunk/ProductModules/PM_Consistency\PM_Consistency.c **** 					/* Flag condizione corretta */
 994:C:/Workspace/FW_Platform2_5/trunk/ProductModules/PM_Consistency\PM_Consistency.c **** 					CS_Status_Var.damperOnOffState.bit.cameFromInputOK = 1;
 995:C:/Workspace/FW_Platform2_5/trunk/ProductModules/PM_Consistency\PM_Consistency.c **** 
 996:C:/Workspace/FW_Platform2_5/trunk/ProductModules/PM_Consistency\PM_Consistency.c **** 					/* filtro per eventuali disturbi */
 997:C:/Workspace/FW_Platform2_5/trunk/ProductModules/PM_Consistency\PM_Consistency.c **** 					if ( CS_Status_Var.CS_LoadCnt[loadPos] < 50 )
 998:C:/Workspace/FW_Platform2_5/trunk/ProductModules/PM_Consistency\PM_Consistency.c **** 					{
 999:C:/Workspace/FW_Platform2_5/trunk/ProductModules/PM_Consistency\PM_Consistency.c **** 						/* non prendo decisioni sul valore del feedback -> rimango con il vecchio valore */
1000:C:/Workspace/FW_Platform2_5/trunk/ProductModules/PM_Consistency\PM_Consistency.c **** 						CS_Status_Var.CS_LoadCnt[loadPos] ++;
1001:C:/Workspace/FW_Platform2_5/trunk/ProductModules/PM_Consistency\PM_Consistency.c **** 					}
1002:C:/Workspace/FW_Platform2_5/trunk/ProductModules/PM_Consistency\PM_Consistency.c **** 					else
1003:C:/Workspace/FW_Platform2_5/trunk/ProductModules/PM_Consistency\PM_Consistency.c **** 					{
1004:C:/Workspace/FW_Platform2_5/trunk/ProductModules/PM_Consistency\PM_Consistency.c **** 						CS_Status_Var.damperFeedbackValue = DAMPER_ONOFF_FEEDBACK_IS_OK;
1005:C:/Workspace/FW_Platform2_5/trunk/ProductModules/PM_Consistency\PM_Consistency.c **** 					}
1006:C:/Workspace/FW_Platform2_5/trunk/ProductModules/PM_Consistency\PM_Consistency.c **** 				}
1007:C:/Workspace/FW_Platform2_5/trunk/ProductModules/PM_Consistency\PM_Consistency.c **** 				feedback_value = CS_Status_Var.damperFeedbackValue;
1008:C:/Workspace/FW_Platform2_5/trunk/ProductModules/PM_Consistency\PM_Consistency.c **** 			}
1009:C:/Workspace/FW_Platform2_5/trunk/ProductModules/PM_Consistency\PM_Consistency.c **** 
1010:C:/Workspace/FW_Platform2_5/trunk/ProductModules/PM_Consistency\PM_Consistency.c **** 			CS_ManageLoad(load_status, feedback_value, &res);
1011:C:/Workspace/FW_Platform2_5/trunk/ProductModules/PM_Consistency\PM_Consistency.c **** 
1012:C:/Workspace/FW_Platform2_5/trunk/ProductModules/PM_Consistency\PM_Consistency.c **** 			CS_ManageRes(res, feedbackData.Data, loadPos);
1013:C:/Workspace/FW_Platform2_5/trunk/ProductModules/PM_Consistency\PM_Consistency.c **** 
1014:C:/Workspace/FW_Platform2_5/trunk/ProductModules/PM_Consistency\PM_Consistency.c **** 			break;
1015:C:/Workspace/FW_Platform2_5/trunk/ProductModules/PM_Consistency\PM_Consistency.c **** 
1016:C:/Workspace/FW_Platform2_5/trunk/ProductModules/PM_Consistency\PM_Consistency.c **** #endif /*__DAMPER_ONOFF_H*/
1017:C:/Workspace/FW_Platform2_5/trunk/ProductModules/PM_Consistency\PM_Consistency.c **** 
1018:C:/Workspace/FW_Platform2_5/trunk/ProductModules/PM_Consistency\PM_Consistency.c **** #ifdef CONFIG_PM_DOORLOCK
1019:C:/Workspace/FW_Platform2_5/trunk/ProductModules/PM_Consistency\PM_Consistency.c **** 
1020:C:/Workspace/FW_Platform2_5/trunk/ProductModules/PM_Consistency\PM_Consistency.c **** 		case BLOCCO_PORTA_IMPULSI:
1021:C:/Workspace/FW_Platform2_5/trunk/ProductModules/PM_Consistency\PM_Consistency.c **** 		case BLOCCO_PORTA_CERA:
1022:C:/Workspace/FW_Platform2_5/trunk/ProductModules/PM_Consistency\PM_Consistency.c **** 		case BLOCCO_PORTA_CERA_2PIN:
1023:C:/Workspace/FW_Platform2_5/trunk/ProductModules/PM_Consistency\PM_Consistency.c **** 
1024:C:/Workspace/FW_Platform2_5/trunk/ProductModules/PM_Consistency\PM_Consistency.c **** 			if ( PM_DoorLock_GetStatus() == BPGEN_DEVICE_RUNNING )
1025:C:/Workspace/FW_Platform2_5/trunk/ProductModules/PM_Consistency\PM_Consistency.c **** 			{
1026:C:/Workspace/FW_Platform2_5/trunk/ProductModules/PM_Consistency\PM_Consistency.c **** 				CS_ElemNewConsistency( loadPos, PM_CS_NOT_VALID_CODE );
1027:C:/Workspace/FW_Platform2_5/trunk/ProductModules/PM_Consistency\PM_Consistency.c **** 				continue; /* Exit From switch(pilotType) process next Load */
1028:C:/Workspace/FW_Platform2_5/trunk/ProductModules/PM_Consistency\PM_Consistency.c **** 			}
1029:C:/Workspace/FW_Platform2_5/trunk/ProductModules/PM_Consistency\PM_Consistency.c **** 
1030:C:/Workspace/FW_Platform2_5/trunk/ProductModules/PM_Consistency\PM_Consistency.c **** 			/* Filtraggio degli impulsi spuri e del Fault F6.01: allo   */
1031:C:/Workspace/FW_Platform2_5/trunk/ProductModules/PM_Consistency\PM_Consistency.c **** 			/* startup si aspettano 5s prima di valutare il Consistency */
1032:C:/Workspace/FW_Platform2_5/trunk/ProductModules/PM_Consistency\PM_Consistency.c **** 			if ( PowON_Delay )
1033:C:/Workspace/FW_Platform2_5/trunk/ProductModules/PM_Consistency\PM_Consistency.c **** 			{
1034:C:/Workspace/FW_Platform2_5/trunk/ProductModules/PM_Consistency\PM_Consistency.c **** 				PowON_Delay--;
1035:C:/Workspace/FW_Platform2_5/trunk/ProductModules/PM_Consistency\PM_Consistency.c **** 				CS_ElemNewConsistency( loadPos, PM_CS_NOT_VALID_CODE );
1036:C:/Workspace/FW_Platform2_5/trunk/ProductModules/PM_Consistency\PM_Consistency.c **** 				continue;
1037:C:/Workspace/FW_Platform2_5/trunk/ProductModules/PM_Consistency\PM_Consistency.c **** 			}
1038:C:/Workspace/FW_Platform2_5/trunk/ProductModules/PM_Consistency\PM_Consistency.c **** 
1039:C:/Workspace/FW_Platform2_5/trunk/ProductModules/PM_Consistency\PM_Consistency.c **** 			/*The mask to avoid the control of the config field*/
1040:C:/Workspace/FW_Platform2_5/trunk/ProductModules/PM_Consistency\PM_Consistency.c **** 
1041:C:/Workspace/FW_Platform2_5/trunk/ProductModules/PM_Consistency\PM_Consistency.c **** 			/*NB:
1042:C:/Workspace/FW_Platform2_5/trunk/ProductModules/PM_Consistency\PM_Consistency.c **** 			  When the define BLOCCOPORTA_ENABLE_ZC_FEEDBACK_CONTROL == 1 the
1043:C:/Workspace/FW_Platform2_5/trunk/ProductModules/PM_Consistency\PM_Consistency.c **** 			  the fields of the Consistency table that must be filled are
1044:C:/Workspace/FW_Platform2_5/trunk/ProductModules/PM_Consistency\PM_Consistency.c **** 			  0 (NOT SYNC) 1 (SYNC)
1045:C:/Workspace/FW_Platform2_5/trunk/ProductModules/PM_Consistency\PM_Consistency.c **** 			*/
1046:C:/Workspace/FW_Platform2_5/trunk/ProductModules/PM_Consistency\PM_Consistency.c **** 			/* Valore del feedback */
1047:C:/Workspace/FW_Platform2_5/trunk/ProductModules/PM_Consistency\PM_Consistency.c **** 			feedback_value = CS_GetValue(FEEDBACK_READ_TYPE_PNTR(feedbackData.Data,0));
1048:C:/Workspace/FW_Platform2_5/trunk/ProductModules/PM_Consistency\PM_Consistency.c **** 
1049:C:/Workspace/FW_Platform2_5/trunk/ProductModules/PM_Consistency\PM_Consistency.c **** 			CS_ManageLoad(load_status, feedback_value, &res);
1050:C:/Workspace/FW_Platform2_5/trunk/ProductModules/PM_Consistency\PM_Consistency.c **** 
1051:C:/Workspace/FW_Platform2_5/trunk/ProductModules/PM_Consistency\PM_Consistency.c **** 			/*gets consistency value from PM_DoorLock module */
1052:C:/Workspace/FW_Platform2_5/trunk/ProductModules/PM_Consistency\PM_Consistency.c **** #if defined(CONFIG_PM_CS_RES_PLUS_STATUS)
1053:C:/Workspace/FW_Platform2_5/trunk/ProductModules/PM_Consistency\PM_Consistency.c ****                 CS_ElemNewConsistency( loadPos, (uint8_t)(PM_DoorLock_InternalConsistency() | (uint
1054:C:/Workspace/FW_Platform2_5/trunk/ProductModules/PM_Consistency\PM_Consistency.c **** #else
1055:C:/Workspace/FW_Platform2_5/trunk/ProductModules/PM_Consistency\PM_Consistency.c ****                 CS_ElemNewConsistency( loadPos, PM_DoorLock_InternalConsistency() );
1056:C:/Workspace/FW_Platform2_5/trunk/ProductModules/PM_Consistency\PM_Consistency.c **** #endif
1057:C:/Workspace/FW_Platform2_5/trunk/ProductModules/PM_Consistency\PM_Consistency.c **** 			break;
1058:C:/Workspace/FW_Platform2_5/trunk/ProductModules/PM_Consistency\PM_Consistency.c **** 
1059:C:/Workspace/FW_Platform2_5/trunk/ProductModules/PM_Consistency\PM_Consistency.c **** #endif /* CONFIG_PM_DOORLOCK */
1060:C:/Workspace/FW_Platform2_5/trunk/ProductModules/PM_Consistency\PM_Consistency.c **** 
1061:C:/Workspace/FW_Platform2_5/trunk/ProductModules/PM_Consistency\PM_Consistency.c **** #ifdef CONFIG_PM_DRUMLOCK
1062:C:/Workspace/FW_Platform2_5/trunk/ProductModules/PM_Consistency\PM_Consistency.c **** 
1063:C:/Workspace/FW_Platform2_5/trunk/ProductModules/PM_Consistency\PM_Consistency.c **** 		case DRUM_LOCK:
1064:C:/Workspace/FW_Platform2_5/trunk/ProductModules/PM_Consistency\PM_Consistency.c **** 
1065:C:/Workspace/FW_Platform2_5/trunk/ProductModules/PM_Consistency\PM_Consistency.c **** 			if ( PM_DrumLock_DriverStatus() == DMLGEN_DEVICE_RUNNING )
1066:C:/Workspace/FW_Platform2_5/trunk/ProductModules/PM_Consistency\PM_Consistency.c **** 			{
1067:C:/Workspace/FW_Platform2_5/trunk/ProductModules/PM_Consistency\PM_Consistency.c **** 				CS_ElemNewConsistency( loadPos, PM_CS_NOT_VALID_CODE );
1068:C:/Workspace/FW_Platform2_5/trunk/ProductModules/PM_Consistency\PM_Consistency.c **** 				continue; /* Exit From switch(pilotType) process next Load */
1069:C:/Workspace/FW_Platform2_5/trunk/ProductModules/PM_Consistency\PM_Consistency.c **** 			}
1070:C:/Workspace/FW_Platform2_5/trunk/ProductModules/PM_Consistency\PM_Consistency.c **** 
1071:C:/Workspace/FW_Platform2_5/trunk/ProductModules/PM_Consistency\PM_Consistency.c **** 			/* Valore del feedback */
1072:C:/Workspace/FW_Platform2_5/trunk/ProductModules/PM_Consistency\PM_Consistency.c **** 			feedback_value = CS_GetValue(FEEDBACK_READ_TYPE_PNTR(feedbackData.Data,0));
1073:C:/Workspace/FW_Platform2_5/trunk/ProductModules/PM_Consistency\PM_Consistency.c **** 
1074:C:/Workspace/FW_Platform2_5/trunk/ProductModules/PM_Consistency\PM_Consistency.c **** 			CS_ManageLoad(load_status, feedback_value, &res);
1075:C:/Workspace/FW_Platform2_5/trunk/ProductModules/PM_Consistency\PM_Consistency.c **** 
1076:C:/Workspace/FW_Platform2_5/trunk/ProductModules/PM_Consistency\PM_Consistency.c **** 			CS_ManageRes(res,feedbackData.Data,loadPos);
1077:C:/Workspace/FW_Platform2_5/trunk/ProductModules/PM_Consistency\PM_Consistency.c **** 
1078:C:/Workspace/FW_Platform2_5/trunk/ProductModules/PM_Consistency\PM_Consistency.c **** 			break;
1079:C:/Workspace/FW_Platform2_5/trunk/ProductModules/PM_Consistency\PM_Consistency.c **** 
1080:C:/Workspace/FW_Platform2_5/trunk/ProductModules/PM_Consistency\PM_Consistency.c **** #endif /* CONFIG_PM_DRUMLOCK */
1081:C:/Workspace/FW_Platform2_5/trunk/ProductModules/PM_Consistency\PM_Consistency.c **** 
1082:C:/Workspace/FW_Platform2_5/trunk/ProductModules/PM_Consistency\PM_Consistency.c **** #if defined(PWM_LOAD_ENABLE) && (PWM_LOAD_ENABLE == 1)
1083:C:/Workspace/FW_Platform2_5/trunk/ProductModules/PM_Consistency\PM_Consistency.c **** 		case PWM_L:
1084:C:/Workspace/FW_Platform2_5/trunk/ProductModules/PM_Consistency\PM_Consistency.c **** 
1085:C:/Workspace/FW_Platform2_5/trunk/ProductModules/PM_Consistency\PM_Consistency.c **** 			/* [To be complete ...] */
1086:C:/Workspace/FW_Platform2_5/trunk/ProductModules/PM_Consistency\PM_Consistency.c **** 			continue;
1087:C:/Workspace/FW_Platform2_5/trunk/ProductModules/PM_Consistency\PM_Consistency.c **** 
1088:C:/Workspace/FW_Platform2_5/trunk/ProductModules/PM_Consistency\PM_Consistency.c **** #endif /*(PWM_LOAD_ENABLE == 1)*/
1089:C:/Workspace/FW_Platform2_5/trunk/ProductModules/PM_Consistency\PM_Consistency.c **** 
1090:C:/Workspace/FW_Platform2_5/trunk/ProductModules/PM_Consistency\PM_Consistency.c **** 		case I2C_L:
1091:C:/Workspace/FW_Platform2_5/trunk/ProductModules/PM_Consistency\PM_Consistency.c **** 
1092:C:/Workspace/FW_Platform2_5/trunk/ProductModules/PM_Consistency\PM_Consistency.c **** 			continue;
1093:C:/Workspace/FW_Platform2_5/trunk/ProductModules/PM_Consistency\PM_Consistency.c **** 
1094:C:/Workspace/FW_Platform2_5/trunk/ProductModules/PM_Consistency\PM_Consistency.c **** 		default:
1095:C:/Workspace/FW_Platform2_5/trunk/ProductModules/PM_Consistency\PM_Consistency.c **** 			PLT_ERROR_WARNING(PLT_ERROR_CONSISTENCY_NOT_SUPPORTED);
1096:C:/Workspace/FW_Platform2_5/trunk/ProductModules/PM_Consistency\PM_Consistency.c **** 			continue;
1097:C:/Workspace/FW_Platform2_5/trunk/ProductModules/PM_Consistency\PM_Consistency.c **** 		}
1098:C:/Workspace/FW_Platform2_5/trunk/ProductModules/PM_Consistency\PM_Consistency.c **** 
1099:C:/Workspace/FW_Platform2_5/trunk/ProductModules/PM_Consistency\PM_Consistency.c **** 	}
1100:C:/Workspace/FW_Platform2_5/trunk/ProductModules/PM_Consistency\PM_Consistency.c **** 
1101:C:/Workspace/FW_Platform2_5/trunk/ProductModules/PM_Consistency\PM_Consistency.c **** #if defined (CONFIG_PM_CONSISTENCY_APPL_BUFFER)
1102:C:/Workspace/FW_Platform2_5/trunk/ProductModules/PM_Consistency\PM_Consistency.c **** 	if ( CS_Status_Var.pCS_Resource != NULL )
1103:C:/Workspace/FW_Platform2_5/trunk/ProductModules/PM_Consistency\PM_Consistency.c **** 	{
1104:C:/Workspace/FW_Platform2_5/trunk/ProductModules/PM_Consistency\PM_Consistency.c **** 		PM_Consistency_GetAllCsValues(CS_Status_Var.pCS_Resource);
1105:C:/Workspace/FW_Platform2_5/trunk/ProductModules/PM_Consistency\PM_Consistency.c **** 	}
1106:C:/Workspace/FW_Platform2_5/trunk/ProductModules/PM_Consistency\PM_Consistency.c **** #endif
1107:C:/Workspace/FW_Platform2_5/trunk/ProductModules/PM_Consistency\PM_Consistency.c **** }
1108:C:/Workspace/FW_Platform2_5/trunk/ProductModules/PM_Consistency\PM_Consistency.c **** 
1109:C:/Workspace/FW_Platform2_5/trunk/ProductModules/PM_Consistency\PM_Consistency.c **** /**
1110:C:/Workspace/FW_Platform2_5/trunk/ProductModules/PM_Consistency\PM_Consistency.c **** Enables/Disables Consistency's work.
1111:C:/Workspace/FW_Platform2_5/trunk/ProductModules/PM_Consistency\PM_Consistency.c **** 
1112:C:/Workspace/FW_Platform2_5/trunk/ProductModules/PM_Consistency\PM_Consistency.c **** \param  [in]		status
1113:C:/Workspace/FW_Platform2_5/trunk/ProductModules/PM_Consistency\PM_Consistency.c **** 
1114:C:/Workspace/FW_Platform2_5/trunk/ProductModules/PM_Consistency\PM_Consistency.c **** \author 	xyz
1115:C:/Workspace/FW_Platform2_5/trunk/ProductModules/PM_Consistency\PM_Consistency.c **** \date		gg/mm/aaaa
1116:C:/Workspace/FW_Platform2_5/trunk/ProductModules/PM_Consistency\PM_Consistency.c **** \version	1.0.0
1117:C:/Workspace/FW_Platform2_5/trunk/ProductModules/PM_Consistency\PM_Consistency.c **** 
1118:C:/Workspace/FW_Platform2_5/trunk/ProductModules/PM_Consistency\PM_Consistency.c **** 
1119:C:/Workspace/FW_Platform2_5/trunk/ProductModules/PM_Consistency\PM_Consistency.c **** 
1120:C:/Workspace/FW_Platform2_5/trunk/ProductModules/PM_Consistency\PM_Consistency.c **** \note		\par \b Nota 1:
1121:C:/Workspace/FW_Platform2_5/trunk/ProductModules/PM_Consistency\PM_Consistency.c **** 			documentation by Stefano Ughi
1122:C:/Workspace/FW_Platform2_5/trunk/ProductModules/PM_Consistency\PM_Consistency.c **** 
1123:C:/Workspace/FW_Platform2_5/trunk/ProductModules/PM_Consistency\PM_Consistency.c **** 
1124:C:/Workspace/FW_Platform2_5/trunk/ProductModules/PM_Consistency\PM_Consistency.c **** */
1125:C:/Workspace/FW_Platform2_5/trunk/ProductModules/PM_Consistency\PM_Consistency.c **** void PM_Consistency_SetModuleStatus(uint8_t status)
1126:C:/Workspace/FW_Platform2_5/trunk/ProductModules/PM_Consistency\PM_Consistency.c **** {
1127:C:/Workspace/FW_Platform2_5/trunk/ProductModules/PM_Consistency\PM_Consistency.c **** #if defined (CONFIG_PM_CONSISTENCY_APPL_BUFFER)
1128:C:/Workspace/FW_Platform2_5/trunk/ProductModules/PM_Consistency\PM_Consistency.c **** 
1129:C:/Workspace/FW_Platform2_5/trunk/ProductModules/PM_Consistency\PM_Consistency.c **** 	if (status == PM_CS_STATUS_ENABLE)
1130:C:/Workspace/FW_Platform2_5/trunk/ProductModules/PM_Consistency\PM_Consistency.c **** 	{
1131:C:/Workspace/FW_Platform2_5/trunk/ProductModules/PM_Consistency\PM_Consistency.c **** 		CS_Status_Var.Status |= PM_CS_STATUS_ENABLE;
1132:C:/Workspace/FW_Platform2_5/trunk/ProductModules/PM_Consistency\PM_Consistency.c **** 	}
1133:C:/Workspace/FW_Platform2_5/trunk/ProductModules/PM_Consistency\PM_Consistency.c **** 	else
1134:C:/Workspace/FW_Platform2_5/trunk/ProductModules/PM_Consistency\PM_Consistency.c **** 	{
1135:C:/Workspace/FW_Platform2_5/trunk/ProductModules/PM_Consistency\PM_Consistency.c **** 		CS_Status_Var.Status &= ~(PM_CS_STATUS_ENABLE);
1136:C:/Workspace/FW_Platform2_5/trunk/ProductModules/PM_Consistency\PM_Consistency.c **** 	}
1137:C:/Workspace/FW_Platform2_5/trunk/ProductModules/PM_Consistency\PM_Consistency.c **** #endif
1138:C:/Workspace/FW_Platform2_5/trunk/ProductModules/PM_Consistency\PM_Consistency.c **** }
1139:C:/Workspace/FW_Platform2_5/trunk/ProductModules/PM_Consistency\PM_Consistency.c **** 
1140:C:/Workspace/FW_Platform2_5/trunk/ProductModules/PM_Consistency\PM_Consistency.c **** /**
1141:C:/Workspace/FW_Platform2_5/trunk/ProductModules/PM_Consistency\PM_Consistency.c **** Returns CS_Status_Var.Status.
1142:C:/Workspace/FW_Platform2_5/trunk/ProductModules/PM_Consistency\PM_Consistency.c **** 
1143:C:/Workspace/FW_Platform2_5/trunk/ProductModules/PM_Consistency\PM_Consistency.c **** 
1144:C:/Workspace/FW_Platform2_5/trunk/ProductModules/PM_Consistency\PM_Consistency.c **** \attention \b CS_Status_Var.Status used as I
1145:C:/Workspace/FW_Platform2_5/trunk/ProductModules/PM_Consistency\PM_Consistency.c **** 
1146:C:/Workspace/FW_Platform2_5/trunk/ProductModules/PM_Consistency\PM_Consistency.c **** \return 	uint8_t
1147:C:/Workspace/FW_Platform2_5/trunk/ProductModules/PM_Consistency\PM_Consistency.c **** 
1148:C:/Workspace/FW_Platform2_5/trunk/ProductModules/PM_Consistency\PM_Consistency.c **** 
1149:C:/Workspace/FW_Platform2_5/trunk/ProductModules/PM_Consistency\PM_Consistency.c **** \author 	xyz
1150:C:/Workspace/FW_Platform2_5/trunk/ProductModules/PM_Consistency\PM_Consistency.c **** \date		gg/mm/aaaa
1151:C:/Workspace/FW_Platform2_5/trunk/ProductModules/PM_Consistency\PM_Consistency.c **** \version	1.0.0
1152:C:/Workspace/FW_Platform2_5/trunk/ProductModules/PM_Consistency\PM_Consistency.c **** 
1153:C:/Workspace/FW_Platform2_5/trunk/ProductModules/PM_Consistency\PM_Consistency.c **** 
1154:C:/Workspace/FW_Platform2_5/trunk/ProductModules/PM_Consistency\PM_Consistency.c **** \note		\par \b Nota 1:
1155:C:/Workspace/FW_Platform2_5/trunk/ProductModules/PM_Consistency\PM_Consistency.c **** 			documentation by Stefano Ughi
1156:C:/Workspace/FW_Platform2_5/trunk/ProductModules/PM_Consistency\PM_Consistency.c **** 
1157:C:/Workspace/FW_Platform2_5/trunk/ProductModules/PM_Consistency\PM_Consistency.c **** */
1158:C:/Workspace/FW_Platform2_5/trunk/ProductModules/PM_Consistency\PM_Consistency.c **** uint8_t PM_Consistency_GetModuleStatus(void)
1159:C:/Workspace/FW_Platform2_5/trunk/ProductModules/PM_Consistency\PM_Consistency.c **** {
1160:C:/Workspace/FW_Platform2_5/trunk/ProductModules/PM_Consistency\PM_Consistency.c **** #if defined (CONFIG_PM_CONSISTENCY_APPL_BUFFER)
1161:C:/Workspace/FW_Platform2_5/trunk/ProductModules/PM_Consistency\PM_Consistency.c **** 	return (CS_Status_Var.Status);
1162:C:/Workspace/FW_Platform2_5/trunk/ProductModules/PM_Consistency\PM_Consistency.c **** #else
1163:C:/Workspace/FW_Platform2_5/trunk/ProductModules/PM_Consistency\PM_Consistency.c **** 	return 0;
1164:C:/Workspace/FW_Platform2_5/trunk/ProductModules/PM_Consistency\PM_Consistency.c **** #endif
1165:C:/Workspace/FW_Platform2_5/trunk/ProductModules/PM_Consistency\PM_Consistency.c **** }
1166:C:/Workspace/FW_Platform2_5/trunk/ProductModules/PM_Consistency\PM_Consistency.c **** /**
1167:C:/Workspace/FW_Platform2_5/trunk/ProductModules/PM_Consistency\PM_Consistency.c **** Returns consistency's value for the load identified by loadID.
1168:C:/Workspace/FW_Platform2_5/trunk/ProductModules/PM_Consistency\PM_Consistency.c **** 
1169:C:/Workspace/FW_Platform2_5/trunk/ProductModules/PM_Consistency\PM_Consistency.c **** \param  [in]	loadPos load's position inside Output Map
1170:C:/Workspace/FW_Platform2_5/trunk/ProductModules/PM_Consistency\PM_Consistency.c **** \param  [out]	*pCS_Value consistency's value
1171:C:/Workspace/FW_Platform2_5/trunk/ProductModules/PM_Consistency\PM_Consistency.c **** 
1172:C:/Workspace/FW_Platform2_5/trunk/ProductModules/PM_Consistency\PM_Consistency.c **** \attention \b CS_Status_Var used as I
1173:C:/Workspace/FW_Platform2_5/trunk/ProductModules/PM_Consistency\PM_Consistency.c **** 
1174:C:/Workspace/FW_Platform2_5/trunk/ProductModules/PM_Consistency\PM_Consistency.c **** \return 	uint8_t
1175:C:/Workspace/FW_Platform2_5/trunk/ProductModules/PM_Consistency\PM_Consistency.c **** 
1176:C:/Workspace/FW_Platform2_5/trunk/ProductModules/PM_Consistency\PM_Consistency.c **** \retval	    PM_CS_ERROR load not found
1177:C:/Workspace/FW_Platform2_5/trunk/ProductModules/PM_Consistency\PM_Consistency.c **** \retval     PM_CS_NO_ERROR load found and consistency's value in *pCS_Value
1178:C:/Workspace/FW_Platform2_5/trunk/ProductModules/PM_Consistency\PM_Consistency.c **** 
1179:C:/Workspace/FW_Platform2_5/trunk/ProductModules/PM_Consistency\PM_Consistency.c **** \author 	Alberto Camerin
1180:C:/Workspace/FW_Platform2_5/trunk/ProductModules/PM_Consistency\PM_Consistency.c **** \date		gg/mm/aaaa
1181:C:/Workspace/FW_Platform2_5/trunk/ProductModules/PM_Consistency\PM_Consistency.c **** \version	1.0.0
1182:C:/Workspace/FW_Platform2_5/trunk/ProductModules/PM_Consistency\PM_Consistency.c **** 
1183:C:/Workspace/FW_Platform2_5/trunk/ProductModules/PM_Consistency\PM_Consistency.c **** \note		\par \b Nota 1:
1184:C:/Workspace/FW_Platform2_5/trunk/ProductModules/PM_Consistency\PM_Consistency.c **** 			documentation by Stefano Ughi
1185:C:/Workspace/FW_Platform2_5/trunk/ProductModules/PM_Consistency\PM_Consistency.c **** 			\par \b Nota 2:
1186:C:/Workspace/FW_Platform2_5/trunk/ProductModules/PM_Consistency\PM_Consistency.c **** 			*pCS_Value=PM_CS_NOT_VALID_CODE -> consistency not ready or load not found
1187:C:/Workspace/FW_Platform2_5/trunk/ProductModules/PM_Consistency\PM_Consistency.c **** 
1188:C:/Workspace/FW_Platform2_5/trunk/ProductModules/PM_Consistency\PM_Consistency.c **** 
1189:C:/Workspace/FW_Platform2_5/trunk/ProductModules/PM_Consistency\PM_Consistency.c **** */
1190:C:/Workspace/FW_Platform2_5/trunk/ProductModules/PM_Consistency\PM_Consistency.c **** uint8_t PM_Consistency_IsValueReady( uint8_t loadPos, uint8_t *pCS_Value )
1191:C:/Workspace/FW_Platform2_5/trunk/ProductModules/PM_Consistency\PM_Consistency.c **** {
1192:C:/Workspace/FW_Platform2_5/trunk/ProductModules/PM_Consistency\PM_Consistency.c **** 
1193:C:/Workspace/FW_Platform2_5/trunk/ProductModules/PM_Consistency\PM_Consistency.c **** 	uint8_t loadIndex;
1194:C:/Workspace/FW_Platform2_5/trunk/ProductModules/PM_Consistency\PM_Consistency.c **** 	uint8_t *pByte;
1195:C:/Workspace/FW_Platform2_5/trunk/ProductModules/PM_Consistency\PM_Consistency.c **** 
1196:C:/Workspace/FW_Platform2_5/trunk/ProductModules/PM_Consistency\PM_Consistency.c **** 	/* defaul value */
1197:C:/Workspace/FW_Platform2_5/trunk/ProductModules/PM_Consistency\PM_Consistency.c **** 	*pCS_Value = PM_CS_NOT_VALID_CODE;
1198:C:/Workspace/FW_Platform2_5/trunk/ProductModules/PM_Consistency\PM_Consistency.c **** 
1199:C:/Workspace/FW_Platform2_5/trunk/ProductModules/PM_Consistency\PM_Consistency.c **** 	loadIndex = LIB_IOM_FindLoad(loadPos,&pByte);
1200:C:/Workspace/FW_Platform2_5/trunk/ProductModules/PM_Consistency\PM_Consistency.c **** 	if ( loadIndex == 0xFF )
1201:C:/Workspace/FW_Platform2_5/trunk/ProductModules/PM_Consistency\PM_Consistency.c **** 	{
1202:C:/Workspace/FW_Platform2_5/trunk/ProductModules/PM_Consistency\PM_Consistency.c **** 		return PM_CS_ERROR;
1203:C:/Workspace/FW_Platform2_5/trunk/ProductModules/PM_Consistency\PM_Consistency.c **** 	}
1204:C:/Workspace/FW_Platform2_5/trunk/ProductModules/PM_Consistency\PM_Consistency.c **** 	
1205:C:/Workspace/FW_Platform2_5/trunk/ProductModules/PM_Consistency\PM_Consistency.c **** 	SAFETY_REGION_START();
1206:C:/Workspace/FW_Platform2_5/trunk/ProductModules/PM_Consistency\PM_Consistency.c **** 	SAFETY_DATA_ELEM_CHECK( PLT_Consistency, loadIndex );
1207:C:/Workspace/FW_Platform2_5/trunk/ProductModules/PM_Consistency\PM_Consistency.c **** 	*pCS_Value = PLT_Consistency[loadIndex];
1208:C:/Workspace/FW_Platform2_5/trunk/ProductModules/PM_Consistency\PM_Consistency.c **** 	SAFETY_REGION_END();	
1209:C:/Workspace/FW_Platform2_5/trunk/ProductModules/PM_Consistency\PM_Consistency.c **** 
1210:C:/Workspace/FW_Platform2_5/trunk/ProductModules/PM_Consistency\PM_Consistency.c **** 	return PM_CS_NO_ERROR;
1211:C:/Workspace/FW_Platform2_5/trunk/ProductModules/PM_Consistency\PM_Consistency.c **** 
1212:C:/Workspace/FW_Platform2_5/trunk/ProductModules/PM_Consistency\PM_Consistency.c **** }
1213:C:/Workspace/FW_Platform2_5/trunk/ProductModules/PM_Consistency\PM_Consistency.c **** /**
1214:C:/Workspace/FW_Platform2_5/trunk/ProductModules/PM_Consistency\PM_Consistency.c **** The function when find a change in the state of the load, resets reading of \n
1215:C:/Workspace/FW_Platform2_5/trunk/ProductModules/PM_Consistency\PM_Consistency.c **** feedback coupled to the load and raises the value of consistency to undefined.
1216:C:/Workspace/FW_Platform2_5/trunk/ProductModules/PM_Consistency\PM_Consistency.c **** Not for all types of loads!.
1217:C:/Workspace/FW_Platform2_5/trunk/ProductModules/PM_Consistency\PM_Consistency.c **** 
1218:C:/Workspace/FW_Platform2_5/trunk/ProductModules/PM_Consistency\PM_Consistency.c **** \param  [in]	loadPos load's position inside Output Map
1219:C:/Workspace/FW_Platform2_5/trunk/ProductModules/PM_Consistency\PM_Consistency.c **** \param  [in]    oldloadstatus current load's state.
1220:C:/Workspace/FW_Platform2_5/trunk/ProductModules/PM_Consistency\PM_Consistency.c **** \param  [in]    newloadstatus new load's state
1221:C:/Workspace/FW_Platform2_5/trunk/ProductModules/PM_Consistency\PM_Consistency.c **** \param  [in]	pWord pointer to the beginning of the field that describes the load
1222:C:/Workspace/FW_Platform2_5/trunk/ProductModules/PM_Consistency\PM_Consistency.c **** \param  [in]	pilottype type of pilot load
1223:C:/Workspace/FW_Platform2_5/trunk/ProductModules/PM_Consistency\PM_Consistency.c **** 
1224:C:/Workspace/FW_Platform2_5/trunk/ProductModules/PM_Consistency\PM_Consistency.c **** \attention \b CS_Status_Var used as I/O
1225:C:/Workspace/FW_Platform2_5/trunk/ProductModules/PM_Consistency\PM_Consistency.c **** 
1226:C:/Workspace/FW_Platform2_5/trunk/ProductModules/PM_Consistency\PM_Consistency.c **** 
1227:C:/Workspace/FW_Platform2_5/trunk/ProductModules/PM_Consistency\PM_Consistency.c **** \author 	xyz
1228:C:/Workspace/FW_Platform2_5/trunk/ProductModules/PM_Consistency\PM_Consistency.c **** \date		gg/mm/aaaa
1229:C:/Workspace/FW_Platform2_5/trunk/ProductModules/PM_Consistency\PM_Consistency.c **** \version	1.0.0
1230:C:/Workspace/FW_Platform2_5/trunk/ProductModules/PM_Consistency\PM_Consistency.c **** 
1231:C:/Workspace/FW_Platform2_5/trunk/ProductModules/PM_Consistency\PM_Consistency.c **** 
1232:C:/Workspace/FW_Platform2_5/trunk/ProductModules/PM_Consistency\PM_Consistency.c **** \todo		questa funzione ha troppi parametri in input, parametri che potrebbero essere\n
1233:C:/Workspace/FW_Platform2_5/trunk/ProductModules/PM_Consistency\PM_Consistency.c ****             ricavati internamente.
1234:C:/Workspace/FW_Platform2_5/trunk/ProductModules/PM_Consistency\PM_Consistency.c **** 
1235:C:/Workspace/FW_Platform2_5/trunk/ProductModules/PM_Consistency\PM_Consistency.c **** 
1236:C:/Workspace/FW_Platform2_5/trunk/ProductModules/PM_Consistency\PM_Consistency.c **** \note		\par \b Nota 1:
1237:C:/Workspace/FW_Platform2_5/trunk/ProductModules/PM_Consistency\PM_Consistency.c **** 			documentation by Stefano Ughi
1238:C:/Workspace/FW_Platform2_5/trunk/ProductModules/PM_Consistency\PM_Consistency.c **** 			\par \b Nota 2:
1239:C:/Workspace/FW_Platform2_5/trunk/ProductModules/PM_Consistency\PM_Consistency.c ****             Non e' stato possibile rinominare questa funzione perche' utilizzata da prodotti ibridi
1240:C:/Workspace/FW_Platform2_5/trunk/ProductModules/PM_Consistency\PM_Consistency.c ****             come Dryer e DEA700
1241:C:/Workspace/FW_Platform2_5/trunk/ProductModules/PM_Consistency\PM_Consistency.c **** 
1242:C:/Workspace/FW_Platform2_5/trunk/ProductModules/PM_Consistency\PM_Consistency.c **** */
1243:C:/Workspace/FW_Platform2_5/trunk/ProductModules/PM_Consistency\PM_Consistency.c **** void PM_Consistency_LoadChangedStatus( uint8_t loadPos, uint8_t oldloadstatus, uint8_t newloadstatu
1244:C:/Workspace/FW_Platform2_5/trunk/ProductModules/PM_Consistency\PM_Consistency.c **** {
1245:C:/Workspace/FW_Platform2_5/trunk/ProductModules/PM_Consistency\PM_Consistency.c **** 
1246:C:/Workspace/FW_Platform2_5/trunk/ProductModules/PM_Consistency\PM_Consistency.c **** 
1247:C:/Workspace/FW_Platform2_5/trunk/ProductModules/PM_Consistency\PM_Consistency.c **** 	if (oldloadstatus != newloadstatus)
1248:C:/Workspace/FW_Platform2_5/trunk/ProductModules/PM_Consistency\PM_Consistency.c **** 	{
1249:C:/Workspace/FW_Platform2_5/trunk/ProductModules/PM_Consistency\PM_Consistency.c **** 
1250:C:/Workspace/FW_Platform2_5/trunk/ProductModules/PM_Consistency\PM_Consistency.c **** 		struct Loader RamData;
1251:C:/Workspace/FW_Platform2_5/trunk/ProductModules/PM_Consistency\PM_Consistency.c **** 
1252:C:/Workspace/FW_Platform2_5/trunk/ProductModules/PM_Consistency\PM_Consistency.c **** 		CS_Status_Var.CS_LoadCnt[loadPos] = 0;
1253:C:/Workspace/FW_Platform2_5/trunk/ProductModules/PM_Consistency\PM_Consistency.c **** 
1254:C:/Workspace/FW_Platform2_5/trunk/ProductModules/PM_Consistency\PM_Consistency.c **** 		switch (pilottype)
1255:C:/Workspace/FW_Platform2_5/trunk/ProductModules/PM_Consistency\PM_Consistency.c **** 		{
1256:C:/Workspace/FW_Platform2_5/trunk/ProductModules/PM_Consistency\PM_Consistency.c **** 
1257:C:/Workspace/FW_Platform2_5/trunk/ProductModules/PM_Consistency\PM_Consistency.c **** #if defined(CONFIG_PM_LINKED_LOADS_SUPPORT)
1258:C:/Workspace/FW_Platform2_5/trunk/ProductModules/PM_Consistency\PM_Consistency.c **** 		case RELAY_TRIAC_L:
1259:C:/Workspace/FW_Platform2_5/trunk/ProductModules/PM_Consistency\PM_Consistency.c **** #if defined(CONFIG_PM_LINKED_LOADS__RELAY_LOAD_SUPPORT)
1260:C:/Workspace/FW_Platform2_5/trunk/ProductModules/PM_Consistency\PM_Consistency.c **** 		case RELAY_LOAD_L:
1261:C:/Workspace/FW_Platform2_5/trunk/ProductModules/PM_Consistency\PM_Consistency.c **** #endif
1262:C:/Workspace/FW_Platform2_5/trunk/ProductModules/PM_Consistency\PM_Consistency.c **** 			break;
1263:C:/Workspace/FW_Platform2_5/trunk/ProductModules/PM_Consistency\PM_Consistency.c **** 		case TRIACRELAY_L:
1264:C:/Workspace/FW_Platform2_5/trunk/ProductModules/PM_Consistency\PM_Consistency.c **** 		case DIGITALDELAYED_L:
1265:C:/Workspace/FW_Platform2_5/trunk/ProductModules/PM_Consistency\PM_Consistency.c **** 
1266:C:/Workspace/FW_Platform2_5/trunk/ProductModules/PM_Consistency\PM_Consistency.c **** #endif /* __TRIAC_RELAY_MULTI_H */
1267:C:/Workspace/FW_Platform2_5/trunk/ProductModules/PM_Consistency\PM_Consistency.c **** 		case DIGITAL_L:
1268:C:/Workspace/FW_Platform2_5/trunk/ProductModules/PM_Consistency\PM_Consistency.c **** 
1269:C:/Workspace/FW_Platform2_5/trunk/ProductModules/PM_Consistency\PM_Consistency.c **** #ifdef __TRIAC_RELAY_H
1270:C:/Workspace/FW_Platform2_5/trunk/ProductModules/PM_Consistency\PM_Consistency.c **** 		case COMPTR_L:
1271:C:/Workspace/FW_Platform2_5/trunk/ProductModules/PM_Consistency\PM_Consistency.c **** #endif /*__TRIAC_RELAY_H */
1272:C:/Workspace/FW_Platform2_5/trunk/ProductModules/PM_Consistency\PM_Consistency.c **** 
1273:C:/Workspace/FW_Platform2_5/trunk/ProductModules/PM_Consistency\PM_Consistency.c **** 		case ZC_L:
1274:C:/Workspace/FW_Platform2_5/trunk/ProductModules/PM_Consistency\PM_Consistency.c **** 		case RELEZC_L:
1275:C:/Workspace/FW_Platform2_5/trunk/ProductModules/PM_Consistency\PM_Consistency.c **** 
1276:C:/Workspace/FW_Platform2_5/trunk/ProductModules/PM_Consistency\PM_Consistency.c **** #if defined(CONFIG_PM_MOTORGATE) /* ex  __UNIVERSAL_MOTOR_H */
1277:C:/Workspace/FW_Platform2_5/trunk/ProductModules/PM_Consistency\PM_Consistency.c **** 		case COLLECTORMOTOR_L:
1278:C:/Workspace/FW_Platform2_5/trunk/ProductModules/PM_Consistency\PM_Consistency.c **** #endif
1279:C:/Workspace/FW_Platform2_5/trunk/ProductModules/PM_Consistency\PM_Consistency.c **** #ifdef CONFIG_PM_DIGITAL_OUTPUT_MULTI
1280:C:/Workspace/FW_Platform2_5/trunk/ProductModules/PM_Consistency\PM_Consistency.c **** 		case DIGITAL_OUTPUT_MULTI_L:
1281:C:/Workspace/FW_Platform2_5/trunk/ProductModules/PM_Consistency\PM_Consistency.c **** #endif /* CONFIG_PM_DIGITAL_OUTPUT_MULTI */
1282:C:/Workspace/FW_Platform2_5/trunk/ProductModules/PM_Consistency\PM_Consistency.c **** #ifdef __PROFILER_H
1283:C:/Workspace/FW_Platform2_5/trunk/ProductModules/PM_Consistency\PM_Consistency.c **** 		case PROFILE_L:
1284:C:/Workspace/FW_Platform2_5/trunk/ProductModules/PM_Consistency\PM_Consistency.c **** #endif /* __PROFILER_H */
1285:C:/Workspace/FW_Platform2_5/trunk/ProductModules/PM_Consistency\PM_Consistency.c **** 
1286:C:/Workspace/FW_Platform2_5/trunk/ProductModules/PM_Consistency\PM_Consistency.c **** #if defined( CONFIG_PM_PROFILE_LOADS_PARTIALIZATION_SUPPORT )
1287:C:/Workspace/FW_Platform2_5/trunk/ProductModules/PM_Consistency\PM_Consistency.c **** 		case PLP_L:
1288:C:/Workspace/FW_Platform2_5/trunk/ProductModules/PM_Consistency\PM_Consistency.c **** #endif /* #if defined( CONFIG_PM_PROFILE_LOADS_PARTIALIZATION_SUPPORT ) */
1289:C:/Workspace/FW_Platform2_5/trunk/ProductModules/PM_Consistency\PM_Consistency.c **** 
1290:C:/Workspace/FW_Platform2_5/trunk/ProductModules/PM_Consistency\PM_Consistency.c **** 
1291:C:/Workspace/FW_Platform2_5/trunk/ProductModules/PM_Consistency\PM_Consistency.c **** #if defined(CONFIG_PM_FIXEDSPEEDMOTOR)
1292:C:/Workspace/FW_Platform2_5/trunk/ProductModules/PM_Consistency\PM_Consistency.c ****             case FIXED_SPEED_MOTOR_L:
1293:C:/Workspace/FW_Platform2_5/trunk/ProductModules/PM_Consistency\PM_Consistency.c **** #endif
1294:C:/Workspace/FW_Platform2_5/trunk/ProductModules/PM_Consistency\PM_Consistency.c **** 			/*
1295:C:/Workspace/FW_Platform2_5/trunk/ProductModules/PM_Consistency\PM_Consistency.c **** 			    get puntatore ai parametri consistency
1296:C:/Workspace/FW_Platform2_5/trunk/ProductModules/PM_Consistency\PM_Consistency.c **** 			    -*(RamData.Data+2) = Feedback ReadType
1297:C:/Workspace/FW_Platform2_5/trunk/ProductModules/PM_Consistency\PM_Consistency.c **** 			    -*(RamData.Data+3) = Feedback Position all'interno del proprio vettore d'appartenenza
1298:C:/Workspace/FW_Platform2_5/trunk/ProductModules/PM_Consistency\PM_Consistency.c **** 			*/
1299:C:/Workspace/FW_Platform2_5/trunk/ProductModules/PM_Consistency\PM_Consistency.c **** 
1300:C:/Workspace/FW_Platform2_5/trunk/ProductModules/PM_Consistency\PM_Consistency.c **** 			if ( BSLDR_OK != BasicLoader( SF_PTR_IO_DEVICE, LOAD_FEEDBACKS_OFFSET(pByte), &RamData) )
1301:C:/Workspace/FW_Platform2_5/trunk/ProductModules/PM_Consistency\PM_Consistency.c **** 			{
1302:C:/Workspace/FW_Platform2_5/trunk/ProductModules/PM_Consistency\PM_Consistency.c **** 				/* No Consistency configuration present */
1303:C:/Workspace/FW_Platform2_5/trunk/ProductModules/PM_Consistency\PM_Consistency.c **** 				return;
1304:C:/Workspace/FW_Platform2_5/trunk/ProductModules/PM_Consistency\PM_Consistency.c **** 			}
1305:C:/Workspace/FW_Platform2_5/trunk/ProductModules/PM_Consistency\PM_Consistency.c **** 
1306:C:/Workspace/FW_Platform2_5/trunk/ProductModules/PM_Consistency\PM_Consistency.c **** 			switch ( FEEDBACK_READ_TYPE_VALUE(RamData.Data,0) )
1307:C:/Workspace/FW_Platform2_5/trunk/ProductModules/PM_Consistency\PM_Consistency.c **** 			{
1308:C:/Workspace/FW_Platform2_5/trunk/ProductModules/PM_Consistency\PM_Consistency.c **** #ifdef CONFIG_PM_FREQUENCY_FEEDBACKS_SUPPORT
1309:C:/Workspace/FW_Platform2_5/trunk/ProductModules/PM_Consistency\PM_Consistency.c **** 			case FREQFEEDBACK_I:
1310:C:/Workspace/FW_Platform2_5/trunk/ProductModules/PM_Consistency\PM_Consistency.c **** 				PM_FrequencyFeedbacks_RestartFeedbackByPosition( FEEDBACK_POSITION_VALUE(RamData.Data,0) );
1311:C:/Workspace/FW_Platform2_5/trunk/ProductModules/PM_Consistency\PM_Consistency.c **** 				break;
1312:C:/Workspace/FW_Platform2_5/trunk/ProductModules/PM_Consistency\PM_Consistency.c **** #endif
1313:C:/Workspace/FW_Platform2_5/trunk/ProductModules/PM_Consistency\PM_Consistency.c **** #ifdef CONFIG_PM_ANALOG_FEEDBACKS_SUPPORT
1314:C:/Workspace/FW_Platform2_5/trunk/ProductModules/PM_Consistency\PM_Consistency.c **** 			case ANALOGFEEDBACK_I:
1315:C:/Workspace/FW_Platform2_5/trunk/ProductModules/PM_Consistency\PM_Consistency.c **** 				PM_AnalogFeedbackResetMeasure( FEEDBACK_POSITION_VALUE(RamData.Data,0) );
1316:C:/Workspace/FW_Platform2_5/trunk/ProductModules/PM_Consistency\PM_Consistency.c **** 				break;
1317:C:/Workspace/FW_Platform2_5/trunk/ProductModules/PM_Consistency\PM_Consistency.c **** #endif /* CONFIG_PM_ANALOG_FEEDBACK */
1318:C:/Workspace/FW_Platform2_5/trunk/ProductModules/PM_Consistency\PM_Consistency.c **** 			default:
1319:C:/Workspace/FW_Platform2_5/trunk/ProductModules/PM_Consistency\PM_Consistency.c **** 				LIB_FDB_FeedbackInitMeasure( FEEDBACK_POSITION_VALUE(RamData.Data,0) );
1320:C:/Workspace/FW_Platform2_5/trunk/ProductModules/PM_Consistency\PM_Consistency.c **** 				break;
1321:C:/Workspace/FW_Platform2_5/trunk/ProductModules/PM_Consistency\PM_Consistency.c **** 			}
1322:C:/Workspace/FW_Platform2_5/trunk/ProductModules/PM_Consistency\PM_Consistency.c **** 
1323:C:/Workspace/FW_Platform2_5/trunk/ProductModules/PM_Consistency\PM_Consistency.c **** 			CS_ElemNewConsistency( loadPos, PM_CS_NOT_VALID_CODE );
1324:C:/Workspace/FW_Platform2_5/trunk/ProductModules/PM_Consistency\PM_Consistency.c **** 
1325:C:/Workspace/FW_Platform2_5/trunk/ProductModules/PM_Consistency\PM_Consistency.c **** 			break;
1326:C:/Workspace/FW_Platform2_5/trunk/ProductModules/PM_Consistency\PM_Consistency.c **** 		default:
1327:C:/Workspace/FW_Platform2_5/trunk/ProductModules/PM_Consistency\PM_Consistency.c **** 			break;
1328:C:/Workspace/FW_Platform2_5/trunk/ProductModules/PM_Consistency\PM_Consistency.c **** 		}
1329:C:/Workspace/FW_Platform2_5/trunk/ProductModules/PM_Consistency\PM_Consistency.c **** 	}
1330:C:/Workspace/FW_Platform2_5/trunk/ProductModules/PM_Consistency\PM_Consistency.c **** }
1331:C:/Workspace/FW_Platform2_5/trunk/ProductModules/PM_Consistency\PM_Consistency.c **** 
1332:C:/Workspace/FW_Platform2_5/trunk/ProductModules/PM_Consistency\PM_Consistency.c **** 
1333:C:/Workspace/FW_Platform2_5/trunk/ProductModules/PM_Consistency\PM_Consistency.c **** 
1334:C:/Workspace/FW_Platform2_5/trunk/ProductModules/PM_Consistency\PM_Consistency.c **** /* Local Function */
1335:C:/Workspace/FW_Platform2_5/trunk/ProductModules/PM_Consistency\PM_Consistency.c **** /**
1336:C:/Workspace/FW_Platform2_5/trunk/ProductModules/PM_Consistency\PM_Consistency.c **** Depending on the type of feedback and its position within the variables
1337:C:/Workspace/FW_Platform2_5/trunk/ProductModules/PM_Consistency\PM_Consistency.c **** that contain its value returns the value of the feedback itself.
1338:C:/Workspace/FW_Platform2_5/trunk/ProductModules/PM_Consistency\PM_Consistency.c **** 
1339:C:/Workspace/FW_Platform2_5/trunk/ProductModules/PM_Consistency\PM_Consistency.c **** \param  [in]    pFeedbackData pointer to the word that describes the Feedback's ReadType \n
1340:C:/Workspace/FW_Platform2_5/trunk/ProductModules/PM_Consistency\PM_Consistency.c ****                 and its position within the variables that contain the read value. \n
1341:C:/Workspace/FW_Platform2_5/trunk/ProductModules/PM_Consistency\PM_Consistency.c **** 
1342:C:/Workspace/FW_Platform2_5/trunk/ProductModules/PM_Consistency\PM_Consistency.c **** \return 	uint8_t
1343:C:/Workspace/FW_Platform2_5/trunk/ProductModules/PM_Consistency\PM_Consistency.c **** 
1344:C:/Workspace/FW_Platform2_5/trunk/ProductModules/PM_Consistency\PM_Consistency.c **** \retval		feedback's value
1345:C:/Workspace/FW_Platform2_5/trunk/ProductModules/PM_Consistency\PM_Consistency.c **** 
1346:C:/Workspace/FW_Platform2_5/trunk/ProductModules/PM_Consistency\PM_Consistency.c **** \author 	Stefano Ughi
1347:C:/Workspace/FW_Platform2_5/trunk/ProductModules/PM_Consistency\PM_Consistency.c **** \date		28/02/2008
1348:C:/Workspace/FW_Platform2_5/trunk/ProductModules/PM_Consistency\PM_Consistency.c **** \version	1.0.0
1349:C:/Workspace/FW_Platform2_5/trunk/ProductModules/PM_Consistency\PM_Consistency.c **** 
1350:C:/Workspace/FW_Platform2_5/trunk/ProductModules/PM_Consistency\PM_Consistency.c **** 
1351:C:/Workspace/FW_Platform2_5/trunk/ProductModules/PM_Consistency\PM_Consistency.c **** \todo		nel caso di feedback non contemplato la funzione dovrebbe ritornare un valore \n
1352:C:/Workspace/FW_Platform2_5/trunk/ProductModules/PM_Consistency\PM_Consistency.c ****             superiore al valore massimo consentito per il feedback che, per come e' \n
1353:C:/Workspace/FW_Platform2_5/trunk/ProductModules/PM_Consistency\PM_Consistency.c ****             strutturata la tabella del consistency e' 3 e tale valore deve essere testato dalla \n
1354:C:/Workspace/FW_Platform2_5/trunk/ProductModules/PM_Consistency\PM_Consistency.c ****             chiamante per individuare eventuali condizioni errate.
1355:C:/Workspace/FW_Platform2_5/trunk/ProductModules/PM_Consistency\PM_Consistency.c **** 
1356:C:/Workspace/FW_Platform2_5/trunk/ProductModules/PM_Consistency\PM_Consistency.c **** \note		\par \b Nota 1:
1357:C:/Workspace/FW_Platform2_5/trunk/ProductModules/PM_Consistency\PM_Consistency.c **** 			documentation by Stefano Ughi
1358:C:/Workspace/FW_Platform2_5/trunk/ProductModules/PM_Consistency\PM_Consistency.c **** 
1359:C:/Workspace/FW_Platform2_5/trunk/ProductModules/PM_Consistency\PM_Consistency.c **** 
1360:C:/Workspace/FW_Platform2_5/trunk/ProductModules/PM_Consistency\PM_Consistency.c **** */
1361:C:/Workspace/FW_Platform2_5/trunk/ProductModules/PM_Consistency\PM_Consistency.c **** 
1362:C:/Workspace/FW_Platform2_5/trunk/ProductModules/PM_Consistency\PM_Consistency.c **** static uint8_t CS_GetValue(uint8_t *pFeedbackData)
1363:C:/Workspace/FW_Platform2_5/trunk/ProductModules/PM_Consistency\PM_Consistency.c **** {
1364:C:/Workspace/FW_Platform2_5/trunk/ProductModules/PM_Consistency\PM_Consistency.c **** 	uint8_t feedbackType;
1365:C:/Workspace/FW_Platform2_5/trunk/ProductModules/PM_Consistency\PM_Consistency.c **** 	uint8_t feedbackPos;
1366:C:/Workspace/FW_Platform2_5/trunk/ProductModules/PM_Consistency\PM_Consistency.c **** 	uint8_t retVal = PM_CS_NOT_VALID_CODE;
1367:C:/Workspace/FW_Platform2_5/trunk/ProductModules/PM_Consistency\PM_Consistency.c **** 
1368:C:/Workspace/FW_Platform2_5/trunk/ProductModules/PM_Consistency\PM_Consistency.c **** 	feedbackType = *pFeedbackData;
1369:C:/Workspace/FW_Platform2_5/trunk/ProductModules/PM_Consistency\PM_Consistency.c **** 	feedbackPos = *(pFeedbackData + 1);
 237                             		.loc 1 1369 0
 238 00ee CD B1 03                		mov.B	3[r11], r1
 239                             	.LVL31:
1370:C:/Workspace/FW_Platform2_5/trunk/ProductModules/PM_Consistency\PM_Consistency.c **** 
1371:C:/Workspace/FW_Platform2_5/trunk/ProductModules/PM_Consistency\PM_Consistency.c **** 	switch (feedbackType){
 240                             		.loc 1 1371 0
 241 00f1 59 BB 02                		movu.B	2[r11], r11
 242                             	.LVL32:
 243 00f4 75 5B 12                		cmp	#18, r11
 244 00f7 24 43                   		bgtu	.L20
 245 00f9 FB E2 00 00 00 00       		mov.L	#.L27, r14
 246 00ff FE 6B EB                		mov.L	[r11,r14], r11
 247                             		
 248 0102 7F 0B                   	1:jmp	r11
 249                             		.section	.rodata.PM_Consistency_Manager
 250                             		.balign 4
 251                             		.balign 4
 252                             	.L27:
 253 004c 00 00 00 00             		.long .L21
 254 0050 00 00 00 00             		.long .L43
 255 0054 00 00 00 00             		.long .L23
 256 0058 00 00 00 00             		.long .L20
 257 005c 00 00 00 00             		.long .L20
 258 0060 00 00 00 00             		.long .L20
 259 0064 00 00 00 00             		.long .L20
 260 0068 00 00 00 00             		.long .L24
 261 006c 00 00 00 00             		.long .L20
 262 0070 00 00 00 00             		.long .L20
 263 0074 00 00 00 00             		.long .L25
 264 0078 00 00 00 00             		.long .L20
 265 007c 00 00 00 00             		.long .L20
 266 0080 00 00 00 00             		.long .L26
 267 0084 00 00 00 00             		.long .L20
 268 0088 00 00 00 00             		.long .L20
 269 008c 00 00 00 00             		.long .L21
 270 0090 00 00 00 00             		.long .L20
 271 0094 00 00 00 00             		.long .L23
 272                             		.section	.text.PM_Consistency_Manager
 273                             	.L21:
1372:C:/Workspace/FW_Platform2_5/trunk/ProductModules/PM_Consistency\PM_Consistency.c **** 	case DIGITAL_I:
1373:C:/Workspace/FW_Platform2_5/trunk/ProductModules/PM_Consistency\PM_Consistency.c **** 	case DIGMULT_I:
1374:C:/Workspace/FW_Platform2_5/trunk/ProductModules/PM_Consistency\PM_Consistency.c **** 		retVal = (uint8_t) ((DigInputs & ((dig_input_t) 1 << feedbackPos)) ? 1 : 0);
 274                             		.loc 1 1374 0
 275 0104 FB B2 00 00 00 00       		mov.L	#_DigInputs, r11
 276 010a 58 BB                   		movu.B	[r11], r11
 277 010c 5B 11                   		movu.B	r1, r1
 278 010e FD 61 1B                		shar	r1, r11
 279 0111 64 1B                   		and	#1, r11
 280                             	.LVL33:
 281 0113 2E 33                   		bra	.L22
 282                             	.LVL34:
 283                             	.L23:
1375:C:/Workspace/FW_Platform2_5/trunk/ProductModules/PM_Consistency\PM_Consistency.c **** 		break;
1376:C:/Workspace/FW_Platform2_5/trunk/ProductModules/PM_Consistency\PM_Consistency.c **** 
1377:C:/Workspace/FW_Platform2_5/trunk/ProductModules/PM_Consistency\PM_Consistency.c **** 	case ANALOG_I:
1378:C:/Workspace/FW_Platform2_5/trunk/ProductModules/PM_Consistency\PM_Consistency.c **** 		/*TODO: da implementare !! */
1379:C:/Workspace/FW_Platform2_5/trunk/ProductModules/PM_Consistency\PM_Consistency.c **** 		retVal = PM_CS_NOT_VALID_CODE;
1380:C:/Workspace/FW_Platform2_5/trunk/ProductModules/PM_Consistency\PM_Consistency.c **** 		break;
1381:C:/Workspace/FW_Platform2_5/trunk/ProductModules/PM_Consistency\PM_Consistency.c **** 
1382:C:/Workspace/FW_Platform2_5/trunk/ProductModules/PM_Consistency\PM_Consistency.c **** 	case FEEDBACK_I:
1383:C:/Workspace/FW_Platform2_5/trunk/ProductModules/PM_Consistency\PM_Consistency.c **** 	case FEEDMULT_I:
1384:C:/Workspace/FW_Platform2_5/trunk/ProductModules/PM_Consistency\PM_Consistency.c **** 		retVal = (LIB_FDB_GetFeedbackVal(feedbackPos));
 284                             		.loc 1 1384 0
 285 0115 05 00 00 00             		bsr	_LIB_FDB_GetFeedbackVal
 286                             	.LVL35:
 287 0119 2E 1D                   		bra	.L83
 288                             	.LVL36:
 289                             	.L24:
 290                             	.LBB29:
1385:C:/Workspace/FW_Platform2_5/trunk/ProductModules/PM_Consistency\PM_Consistency.c **** 		break;
1386:C:/Workspace/FW_Platform2_5/trunk/ProductModules/PM_Consistency\PM_Consistency.c **** 
1387:C:/Workspace/FW_Platform2_5/trunk/ProductModules/PM_Consistency\PM_Consistency.c **** #ifdef CONFIG_PM_FREQUENCY_FEEDBACKS_SUPPORT
1388:C:/Workspace/FW_Platform2_5/trunk/ProductModules/PM_Consistency\PM_Consistency.c **** 	case FREQFEEDBACK_I:
1389:C:/Workspace/FW_Platform2_5/trunk/ProductModules/PM_Consistency\PM_Consistency.c **** 	{
1390:C:/Workspace/FW_Platform2_5/trunk/ProductModules/PM_Consistency\PM_Consistency.c **** 		PM_FrequencyFeedbacks_ValueType feedbackVal;
1391:C:/Workspace/FW_Platform2_5/trunk/ProductModules/PM_Consistency\PM_Consistency.c **** 		if (PM_FrequencyFeedbacks_GetValueByPosition(feedbackPos, &feedbackVal) == FREQFB_OK)
 291                             		.loc 1 1391 0
 292 011b 71 02 0C                		add	#12, r0, r2
 293 011e 05 00 00 00             		bsr	_PM_FrequencyFeedbacks_GetValueByPosition
 294                             	.LVL37:
 295 0122 61 01                   		cmp	#0, r1
 296 0124 21 1E                   		bne	.L43
1392:C:/Workspace/FW_Platform2_5/trunk/ProductModules/PM_Consistency\PM_Consistency.c **** 		{
1393:C:/Workspace/FW_Platform2_5/trunk/ProductModules/PM_Consistency\PM_Consistency.c **** 			return feedbackVal;
 297                             		.loc 1 1393 0
 298 0126 CD 0B 0C                		mov.B	12[r0], r11
 299 0129 2E 1D                   		bra	.L22
 300                             	.LVL38:
 301                             	.L26:
 302                             	.LBE29:
1394:C:/Workspace/FW_Platform2_5/trunk/ProductModules/PM_Consistency\PM_Consistency.c **** 		}
1395:C:/Workspace/FW_Platform2_5/trunk/ProductModules/PM_Consistency\PM_Consistency.c **** 	}
1396:C:/Workspace/FW_Platform2_5/trunk/ProductModules/PM_Consistency\PM_Consistency.c **** 		break;
1397:C:/Workspace/FW_Platform2_5/trunk/ProductModules/PM_Consistency\PM_Consistency.c **** #endif /* CONFIG_PM_FREQUENCY_FEEDBACKS_SUPPORT */
1398:C:/Workspace/FW_Platform2_5/trunk/ProductModules/PM_Consistency\PM_Consistency.c **** 
1399:C:/Workspace/FW_Platform2_5/trunk/ProductModules/PM_Consistency\PM_Consistency.c **** #ifdef CONFIG_PM_ANALOG_FEEDBACKS_SUPPORT
1400:C:/Workspace/FW_Platform2_5/trunk/ProductModules/PM_Consistency\PM_Consistency.c **** 		case ANALOGFEEDBACK_I:
1401:C:/Workspace/FW_Platform2_5/trunk/ProductModules/PM_Consistency\PM_Consistency.c **** 		retVal = ( PM_AnalogFeedbackGetValue( feedbackPos ) );
 303                             		.loc 1 1401 0
 304 012b 05 00 00 00             		bsr	_PM_AnalogFeedbackGetValue
 305                             	.LVL39:
 306 012f 2E 07                   		bra	.L83
 307                             	.LVL40:
 308                             	.L25:
1402:C:/Workspace/FW_Platform2_5/trunk/ProductModules/PM_Consistency\PM_Consistency.c **** 		break;
1403:C:/Workspace/FW_Platform2_5/trunk/ProductModules/PM_Consistency\PM_Consistency.c **** #endif /* CONFIG_PM_ANALOG_FEEDBACK */
1404:C:/Workspace/FW_Platform2_5/trunk/ProductModules/PM_Consistency\PM_Consistency.c **** 
1405:C:/Workspace/FW_Platform2_5/trunk/ProductModules/PM_Consistency\PM_Consistency.c **** 	case ZEROCROSSING_I:
1406:C:/Workspace/FW_Platform2_5/trunk/ProductModules/PM_Consistency\PM_Consistency.c **** 		retVal = goodZCSignal();
 309                             		.loc 1 1406 0
 310 0131 05 00 00 00             		bsr	_goodZCSignal
 311                             	.LVL41:
 312 0135 03                      		.balign 2,3,1
 313                             	.L83:
 314 0136 CF 1B                   		mov.B	r1, r11
 315                             	.LVL42:
 316 0138 2E 0E                   		bra	.L22
 317                             	.LVL43:
 318                             	.L20:
1407:C:/Workspace/FW_Platform2_5/trunk/ProductModules/PM_Consistency\PM_Consistency.c **** 		break;
1408:C:/Workspace/FW_Platform2_5/trunk/ProductModules/PM_Consistency\PM_Consistency.c **** 
1409:C:/Workspace/FW_Platform2_5/trunk/ProductModules/PM_Consistency\PM_Consistency.c **** 	default:
1410:C:/Workspace/FW_Platform2_5/trunk/ProductModules/PM_Consistency\PM_Consistency.c **** 		PLT_ERROR_FATAL(PLT_ERROR_CONSISTENCY_NOT_SUPPORTED);
 319                             		.loc 1 1410 0
 320 013a 75 41 39                		mov.L	#57, r1
 321                             	.LVL44:
 322 013d 05 00 00 00             		bsr	_LIB_Error_Fatal_Handler
 323                             	.LVL45:
 324 0141 03                      		.balign 2,3,2
 325                             	.L43:
1379:C:/Workspace/FW_Platform2_5/trunk/ProductModules/PM_Consistency\PM_Consistency.c **** 		retVal = PM_CS_NOT_VALID_CODE;
 326                             		.loc 1 1379 0
 327 0142 FB B6 FF                		mov	#-1, r11
 328                             	.LVL46:
 329 0145 03                      		.balign 2,3,5
 330                             	.L22:
 331                             	.LBE28:
 332                             	.LBE27:
 542:C:/Workspace/FW_Platform2_5/trunk/ProductModules/PM_Consistency\PM_Consistency.c **** 			if ( CS_Status_Var.CS_LoadCnt[loadPos] < CS_Status_Var.CS_MaxDelay )
 333                             		.loc 1 542 0
 334 0146 FB E2 00 00 00 00       		mov.L	#_CS_Status_Var, r14
 335 014c FE 47 E4                		mov.B	[r7,r14], r4
 336 014f 5B 42                   		movu.B	r4, r2
 337 0151 45 E2 10                		cmp	16[r14].UB, r2
 338 0154 22 0A                   		bgeu	.L29
 544:C:/Workspace/FW_Platform2_5/trunk/ProductModules/PM_Consistency\PM_Consistency.c **** 				CS_Status_Var.CS_LoadCnt[loadPos]++;
 339                             		.loc 1 544 0
 340 0156 62 14                   		add	#1, r4
 341 0158 FE 07 E4                		mov.B	r4, [r7,r14]
 545:C:/Workspace/FW_Platform2_5/trunk/ProductModules/PM_Consistency\PM_Consistency.c **** 				continue;
 342                             		.loc 1 545 0
 343 015b 38 8F 00                		bra	.L5
 344                             	.L29:
 345                             	.LVL47:
 664:C:/Workspace/FW_Platform2_5/trunk/ProductModules/PM_Consistency\PM_Consistency.c **** 			if ( pilotType == PLP_L )
 346                             		.loc 1 664 0
 347 015e 5B DD                   		movu.B	r13, r13
 348 0160 75 5D 13                		cmp	#19, r13
 349 0163 20 11                   		beq	.L30
 548:C:/Workspace/FW_Platform2_5/trunk/ProductModules/PM_Consistency\PM_Consistency.c **** 			if ( (load_status & LOAD_REG_MASK) != LOAD_REG_OFF )
 350                             		.loc 1 548 0
 351 0165 5B CC                   		movu.B	r12, r12
 352 0167 61 0C                   		cmp	#0, r12
 353 0169 FC DB C1                		scne.L	r12
 354                             	.LVL48:
 355                             	.LBB30:
 356                             	.LBB31:
1411:C:/Workspace/FW_Platform2_5/trunk/ProductModules/PM_Consistency\PM_Consistency.c **** 		break;
1412:C:/Workspace/FW_Platform2_5/trunk/ProductModules/PM_Consistency\PM_Consistency.c **** 	}
1413:C:/Workspace/FW_Platform2_5/trunk/ProductModules/PM_Consistency\PM_Consistency.c **** 
1414:C:/Workspace/FW_Platform2_5/trunk/ProductModules/PM_Consistency\PM_Consistency.c **** 	return retVal;
1415:C:/Workspace/FW_Platform2_5/trunk/ProductModules/PM_Consistency\PM_Consistency.c **** }
1416:C:/Workspace/FW_Platform2_5/trunk/ProductModules/PM_Consistency\PM_Consistency.c **** 
1417:C:/Workspace/FW_Platform2_5/trunk/ProductModules/PM_Consistency\PM_Consistency.c **** 
1418:C:/Workspace/FW_Platform2_5/trunk/ProductModules/PM_Consistency\PM_Consistency.c **** /**
1419:C:/Workspace/FW_Platform2_5/trunk/ProductModules/PM_Consistency\PM_Consistency.c **** Depending on the load status and feedback's value prepares the "res" variable \n
1420:C:/Workspace/FW_Platform2_5/trunk/ProductModules/PM_Consistency\PM_Consistency.c **** in order to access to consistency's table.
1421:C:/Workspace/FW_Platform2_5/trunk/ProductModules/PM_Consistency\PM_Consistency.c **** 
1422:C:/Workspace/FW_Platform2_5/trunk/ProductModules/PM_Consistency\PM_Consistency.c **** \param  [in]		load_status modified load's status
1423:C:/Workspace/FW_Platform2_5/trunk/ProductModules/PM_Consistency\PM_Consistency.c **** \param  [in]		feedback_val feedback's value (max. value is 3)
1424:C:/Workspace/FW_Platform2_5/trunk/ProductModules/PM_Consistency\PM_Consistency.c **** 
1425:C:/Workspace/FW_Platform2_5/trunk/ProductModules/PM_Consistency\PM_Consistency.c **** 
1426:C:/Workspace/FW_Platform2_5/trunk/ProductModules/PM_Consistency\PM_Consistency.c **** \return 	LoadStatusRes_t
1427:C:/Workspace/FW_Platform2_5/trunk/ProductModules/PM_Consistency\PM_Consistency.c **** 
1428:C:/Workspace/FW_Platform2_5/trunk/ProductModules/PM_Consistency\PM_Consistency.c **** 
1429:C:/Workspace/FW_Platform2_5/trunk/ProductModules/PM_Consistency\PM_Consistency.c **** \author 	xyz
1430:C:/Workspace/FW_Platform2_5/trunk/ProductModules/PM_Consistency\PM_Consistency.c **** \date		gg/mm/aaaa
1431:C:/Workspace/FW_Platform2_5/trunk/ProductModules/PM_Consistency\PM_Consistency.c **** \version	1.0.0
1432:C:/Workspace/FW_Platform2_5/trunk/ProductModules/PM_Consistency\PM_Consistency.c **** 
1433:C:/Workspace/FW_Platform2_5/trunk/ProductModules/PM_Consistency\PM_Consistency.c **** \note		\par \b Nota 1:
1434:C:/Workspace/FW_Platform2_5/trunk/ProductModules/PM_Consistency\PM_Consistency.c **** 			documentation by Stefano Ughi
1435:C:/Workspace/FW_Platform2_5/trunk/ProductModules/PM_Consistency\PM_Consistency.c **** 
1436:C:/Workspace/FW_Platform2_5/trunk/ProductModules/PM_Consistency\PM_Consistency.c **** 
1437:C:/Workspace/FW_Platform2_5/trunk/ProductModules/PM_Consistency\PM_Consistency.c **** */
1438:C:/Workspace/FW_Platform2_5/trunk/ProductModules/PM_Consistency\PM_Consistency.c **** 
1439:C:/Workspace/FW_Platform2_5/trunk/ProductModules/PM_Consistency\PM_Consistency.c **** static void CS_ManageLoad( uint8_t load_status, uint8_t feedback_val, LoadStatusRes_t *res )
1440:C:/Workspace/FW_Platform2_5/trunk/ProductModules/PM_Consistency\PM_Consistency.c **** {
1441:C:/Workspace/FW_Platform2_5/trunk/ProductModules/PM_Consistency\PM_Consistency.c **** 
1442:C:/Workspace/FW_Platform2_5/trunk/ProductModules/PM_Consistency\PM_Consistency.c **** 	res->load_status = load_status;
1443:C:/Workspace/FW_Platform2_5/trunk/ProductModules/PM_Consistency\PM_Consistency.c **** 
1444:C:/Workspace/FW_Platform2_5/trunk/ProductModules/PM_Consistency\PM_Consistency.c **** 	if (load_status == CS_LOAD_ACTIVE)
 357                             		.loc 1 1444 0
 358 016c 5B CD                   		movu.B	r12, r13
 359                             	.LVL49:
 360 016e 61 1D                   		cmp	#1, r13
 361 0170 21 26                   		bne	.L78
 362 0172 2E 36                   		bra	.L31
 363                             	.LVL50:
 364                             	.L30:
 365                             	.LBE31:
 366                             	.LBE30:
 667:C:/Workspace/FW_Platform2_5/trunk/ProductModules/PM_Consistency\PM_Consistency.c **** 				if( !goodZCSignal() && IsZCSyncOngoing() )
 367                             		.loc 1 667 0
 368 0174 05 00 00 00             		bsr	_goodZCSignal
 369                             	.LVL51:
 370 0178 61 01                   		cmp	#0, r1
 371 017a 21 0C                   		bne	.L33
 667:C:/Workspace/FW_Platform2_5/trunk/ProductModules/PM_Consistency\PM_Consistency.c **** 				if( !goodZCSignal() && IsZCSyncOngoing() )
 372                             		.loc 1 667 0 is_stmt 0 discriminator 1
 373 017c 05 00 00 00             		bsr	_IsZCSyncOngoing
 374                             	.LVL52:
 375 0180 61 01                   		cmp	#0, r1
 376 0182 20 04                   		beq	.L33
 377                             	.LVL53:
 378 0184 2E 77                   		bra	.L13
 379                             	.LVL54:
 380                             	.L33:
 673:C:/Workspace/FW_Platform2_5/trunk/ProductModules/PM_Consistency\PM_Consistency.c **** 				if (plpStatus == 0) /* OFF State */
 381                             		.loc 1 673 0 is_stmt 1
 382 0186 5B 99                   		movu.B	r9, r9
 383 0188 61 09                   		cmp	#0, r9
 384 018a 3A 8B 00                		beq	.L45
 677:C:/Workspace/FW_Platform2_5/trunk/ProductModules/PM_Consistency\PM_Consistency.c **** 				else if (plpStatus == 3) /* High Speed */
 385                             		.loc 1 677 0
 386 018d 61 39                   		cmp	#3, r9
 387 018f 3A 8A 00                		beq	.L46
 683:C:/Workspace/FW_Platform2_5/trunk/ProductModules/PM_Consistency\PM_Consistency.c **** 					load_status = CS_LOAD_ACTIVE;
 388                             		.loc 1 683 0
 389 0192 66 1C                   		mov	#1, r12
 390                             	.LVL55:
 391 0194 2E 14                   		bra	.L31
 392                             	.LVL56:
 393                             	.L78:
 394                             	.LBB33:
 395                             	.LBB32:
1445:C:/Workspace/FW_Platform2_5/trunk/ProductModules/PM_Consistency\PM_Consistency.c **** 	{
1446:C:/Workspace/FW_Platform2_5/trunk/ProductModules/PM_Consistency\PM_Consistency.c **** 		res->cs_code = (uint8_t)(CS_LOAD_STATUS_DISPLACEMENT_PILOT+feedback_val);
1447:C:/Workspace/FW_Platform2_5/trunk/ProductModules/PM_Consistency\PM_Consistency.c **** 	}
1448:C:/Workspace/FW_Platform2_5/trunk/ProductModules/PM_Consistency\PM_Consistency.c **** 	else if ( ( load_status == CS_LOAD_NOT_ACTIVE ) || ( load_status == CS_LOAD_FFC_ONLY_RELAY_ACTIVE)
 396                             		.loc 1 1448 0
 397 0196 61 0D                   		cmp	#0, r13
 398 0198 20 0A                   		beq	.L35
 399 019a 61 2D                   		cmp	#2, r13
 400 019c 20 06                   		beq	.L35
 401 019e 61 4D                   		cmp	#4, r13
 402 01a0 21 06                   		bne	.L36
 403                             	.LVL57:
 404                             		.balign 2,3,1
 405                             	.L35:
1449:C:/Workspace/FW_Platform2_5/trunk/ProductModules/PM_Consistency\PM_Consistency.c **** 	{
1450:C:/Workspace/FW_Platform2_5/trunk/ProductModules/PM_Consistency\PM_Consistency.c **** 		res->cs_code = (uint8_t)(CS_LOAD_STATUS_DISPLACEMENT_NOT_PILOT+feedback_val);
 406                             		.loc 1 1450 0
 407 01a2 62 4B                   		add	#4, r11
 408                             	.LVL58:
 409 01a4 2E 04                   		bra	.L31
 410                             	.LVL59:
 411                             	.L36:
1451:C:/Workspace/FW_Platform2_5/trunk/ProductModules/PM_Consistency\PM_Consistency.c **** 	}
1452:C:/Workspace/FW_Platform2_5/trunk/ProductModules/PM_Consistency\PM_Consistency.c **** 	else
1453:C:/Workspace/FW_Platform2_5/trunk/ProductModules/PM_Consistency\PM_Consistency.c **** 	{
1454:C:/Workspace/FW_Platform2_5/trunk/ProductModules/PM_Consistency\PM_Consistency.c **** 		res->cs_code = (uint8_t)(CS_LOAD_STATUS_DISPLACEMENT_FFC_NOT_PILOT+feedback_val);
 412                             		.loc 1 1454 0
 413 01a6 62 8B                   		add	#8, r11
 414                             	.LVL60:
 415                             		.balign 2,3,1
 416                             	.L31:
 417                             	.LBE32:
 418                             	.LBE33:
 692:C:/Workspace/FW_Platform2_5/trunk/ProductModules/PM_Consistency\PM_Consistency.c **** 			CS_ManageRes(res,feedbackData.Data,loadPos);
 419                             		.loc 1 692 0
 420 01a8 EC 0E                   		mov.L	[r0], r14
 421                             	.LVL61:
 422                             	.LBB34:
 423                             	.LBB35:
1455:C:/Workspace/FW_Platform2_5/trunk/ProductModules/PM_Consistency\PM_Consistency.c **** 	}
1456:C:/Workspace/FW_Platform2_5/trunk/ProductModules/PM_Consistency\PM_Consistency.c **** 
1457:C:/Workspace/FW_Platform2_5/trunk/ProductModules/PM_Consistency\PM_Consistency.c **** }
1458:C:/Workspace/FW_Platform2_5/trunk/ProductModules/PM_Consistency\PM_Consistency.c **** 
1459:C:/Workspace/FW_Platform2_5/trunk/ProductModules/PM_Consistency\PM_Consistency.c **** /**
1460:C:/Workspace/FW_Platform2_5/trunk/ProductModules/PM_Consistency\PM_Consistency.c **** Depending from load's status and feedback's value returns a code inside consistency's table.
1461:C:/Workspace/FW_Platform2_5/trunk/ProductModules/PM_Consistency\PM_Consistency.c **** \n\n\n
1462:C:/Workspace/FW_Platform2_5/trunk/ProductModules/PM_Consistency\PM_Consistency.c **** 
1463:C:/Workspace/FW_Platform2_5/trunk/ProductModules/PM_Consistency\PM_Consistency.c **** case CONFIG_PM_CS_RES_PLUS_STATUS = TRUE
1464:C:/Workspace/FW_Platform2_5/trunk/ProductModules/PM_Consistency\PM_Consistency.c **** <TABLE>
1465:C:/Workspace/FW_Platform2_5/trunk/ProductModules/PM_Consistency\PM_Consistency.c **** 
1466:C:/Workspace/FW_Platform2_5/trunk/ProductModules/PM_Consistency\PM_Consistency.c **** 	<TR>
1467:C:/Workspace/FW_Platform2_5/trunk/ProductModules/PM_Consistency\PM_Consistency.c **** 		<th> 15  	</th>
1468:C:/Workspace/FW_Platform2_5/trunk/ProductModules/PM_Consistency\PM_Consistency.c **** 		<th> 14-12  </th>
1469:C:/Workspace/FW_Platform2_5/trunk/ProductModules/PM_Consistency\PM_Consistency.c **** 		<th> 11   	</th>
1470:C:/Workspace/FW_Platform2_5/trunk/ProductModules/PM_Consistency\PM_Consistency.c **** 		<th> 10-8 	</th>
1471:C:/Workspace/FW_Platform2_5/trunk/ProductModules/PM_Consistency\PM_Consistency.c **** 		<th> 7  	</th>
1472:C:/Workspace/FW_Platform2_5/trunk/ProductModules/PM_Consistency\PM_Consistency.c **** 		<th> 6-4 	</th>
1473:C:/Workspace/FW_Platform2_5/trunk/ProductModules/PM_Consistency\PM_Consistency.c **** 		<th> 3 		</th>
1474:C:/Workspace/FW_Platform2_5/trunk/ProductModules/PM_Consistency\PM_Consistency.c **** 		<th> 2-0 	</th>
1475:C:/Workspace/FW_Platform2_5/trunk/ProductModules/PM_Consistency\PM_Consistency.c **** 	</TR>
1476:C:/Workspace/FW_Platform2_5/trunk/ProductModules/PM_Consistency\PM_Consistency.c **** 
1477:C:/Workspace/FW_Platform2_5/trunk/ProductModules/PM_Consistency\PM_Consistency.c **** 	<TR>
1478:C:/Workspace/FW_Platform2_5/trunk/ProductModules/PM_Consistency\PM_Consistency.c **** 		<TD> 0 			</TD>
1479:C:/Workspace/FW_Platform2_5/trunk/ProductModules/PM_Consistency\PM_Consistency.c **** 		<TD> P_CODE_1	</TD>
1480:C:/Workspace/FW_Platform2_5/trunk/ProductModules/PM_Consistency\PM_Consistency.c **** 		<td> 0  		</td>
1481:C:/Workspace/FW_Platform2_5/trunk/ProductModules/PM_Consistency\PM_Consistency.c **** 		<td> P_CODE_2	</td>
1482:C:/Workspace/FW_Platform2_5/trunk/ProductModules/PM_Consistency\PM_Consistency.c **** 		<td> 0  		</td>
1483:C:/Workspace/FW_Platform2_5/trunk/ProductModules/PM_Consistency\PM_Consistency.c **** 		<td> P_CODE_3 	</td>
1484:C:/Workspace/FW_Platform2_5/trunk/ProductModules/PM_Consistency\PM_Consistency.c **** 		<td> 0  		</td>
1485:C:/Workspace/FW_Platform2_5/trunk/ProductModules/PM_Consistency\PM_Consistency.c **** 		<td> P_CODE_4   </td>
1486:C:/Workspace/FW_Platform2_5/trunk/ProductModules/PM_Consistency\PM_Consistency.c **** 	</TR>
1487:C:/Workspace/FW_Platform2_5/trunk/ProductModules/PM_Consistency\PM_Consistency.c **** 
1488:C:/Workspace/FW_Platform2_5/trunk/ProductModules/PM_Consistency\PM_Consistency.c **** 	<TR>
1489:C:/Workspace/FW_Platform2_5/trunk/ProductModules/PM_Consistency\PM_Consistency.c **** 		<td> 0 			</td>
1490:C:/Workspace/FW_Platform2_5/trunk/ProductModules/PM_Consistency\PM_Consistency.c **** 		<td> NP_CODE_1 	</td>
1491:C:/Workspace/FW_Platform2_5/trunk/ProductModules/PM_Consistency\PM_Consistency.c **** 		<td> 0 			</td>
1492:C:/Workspace/FW_Platform2_5/trunk/ProductModules/PM_Consistency\PM_Consistency.c **** 		<td> NP_CODE_2	</td>
1493:C:/Workspace/FW_Platform2_5/trunk/ProductModules/PM_Consistency\PM_Consistency.c **** 		<td> 0 			</td>
1494:C:/Workspace/FW_Platform2_5/trunk/ProductModules/PM_Consistency\PM_Consistency.c **** 		<td> NP_CODE_3	</td>
1495:C:/Workspace/FW_Platform2_5/trunk/ProductModules/PM_Consistency\PM_Consistency.c **** 		<td> 0 			</td>
1496:C:/Workspace/FW_Platform2_5/trunk/ProductModules/PM_Consistency\PM_Consistency.c **** 		<td> NP_CODE_4	</td>
1497:C:/Workspace/FW_Platform2_5/trunk/ProductModules/PM_Consistency\PM_Consistency.c **** 	</TR>
1498:C:/Workspace/FW_Platform2_5/trunk/ProductModules/PM_Consistency\PM_Consistency.c **** 	<tr>
1499:C:/Workspace/FW_Platform2_5/trunk/ProductModules/PM_Consistency\PM_Consistency.c **** 		<td> -	</td>
1500:C:/Workspace/FW_Platform2_5/trunk/ProductModules/PM_Consistency\PM_Consistency.c **** 		<td> 0 	</td>
1501:C:/Workspace/FW_Platform2_5/trunk/ProductModules/PM_Consistency\PM_Consistency.c **** 		<td> -	</td>
1502:C:/Workspace/FW_Platform2_5/trunk/ProductModules/PM_Consistency\PM_Consistency.c **** 		<td> 1	</td>
1503:C:/Workspace/FW_Platform2_5/trunk/ProductModules/PM_Consistency\PM_Consistency.c **** 		<td> -	</td>
1504:C:/Workspace/FW_Platform2_5/trunk/ProductModules/PM_Consistency\PM_Consistency.c **** 		<td> 2 	</td>
1505:C:/Workspace/FW_Platform2_5/trunk/ProductModules/PM_Consistency\PM_Consistency.c **** 		<td> -	</td>
1506:C:/Workspace/FW_Platform2_5/trunk/ProductModules/PM_Consistency\PM_Consistency.c **** 		<td> 3 	</td>
1507:C:/Workspace/FW_Platform2_5/trunk/ProductModules/PM_Consistency\PM_Consistency.c **** 	</tr>
1508:C:/Workspace/FW_Platform2_5/trunk/ProductModules/PM_Consistency\PM_Consistency.c **** </TABLE>
1509:C:/Workspace/FW_Platform2_5/trunk/ProductModules/PM_Consistency\PM_Consistency.c **** \n\n\n\n
1510:C:/Workspace/FW_Platform2_5/trunk/ProductModules/PM_Consistency\PM_Consistency.c **** case CONFIG_PM_CS_RES_PLUS_STATUS undefined
1511:C:/Workspace/FW_Platform2_5/trunk/ProductModules/PM_Consistency\PM_Consistency.c **** 
1512:C:/Workspace/FW_Platform2_5/trunk/ProductModules/PM_Consistency\PM_Consistency.c **** <TABLE>
1513:C:/Workspace/FW_Platform2_5/trunk/ProductModules/PM_Consistency\PM_Consistency.c **** 	<tr>
1514:C:/Workspace/FW_Platform2_5/trunk/ProductModules/PM_Consistency\PM_Consistency.c **** 		<th> 15-12 </th>
1515:C:/Workspace/FW_Platform2_5/trunk/ProductModules/PM_Consistency\PM_Consistency.c **** 		<th> 11-8 </th>
1516:C:/Workspace/FW_Platform2_5/trunk/ProductModules/PM_Consistency\PM_Consistency.c **** 		<th> 7-4 </th>
1517:C:/Workspace/FW_Platform2_5/trunk/ProductModules/PM_Consistency\PM_Consistency.c **** 		<th> 3-0 </th>
1518:C:/Workspace/FW_Platform2_5/trunk/ProductModules/PM_Consistency\PM_Consistency.c **** 	</tr>
1519:C:/Workspace/FW_Platform2_5/trunk/ProductModules/PM_Consistency\PM_Consistency.c **** 	<tr>
1520:C:/Workspace/FW_Platform2_5/trunk/ProductModules/PM_Consistency\PM_Consistency.c **** 		<td> P_CODE_1 </td>
1521:C:/Workspace/FW_Platform2_5/trunk/ProductModules/PM_Consistency\PM_Consistency.c **** 		<td> P_CODE_2 </td>
1522:C:/Workspace/FW_Platform2_5/trunk/ProductModules/PM_Consistency\PM_Consistency.c **** 		<td> P_CODE_3 </td>
1523:C:/Workspace/FW_Platform2_5/trunk/ProductModules/PM_Consistency\PM_Consistency.c **** 		<td> P_CODE_4 </td>
1524:C:/Workspace/FW_Platform2_5/trunk/ProductModules/PM_Consistency\PM_Consistency.c **** 	</tr>
1525:C:/Workspace/FW_Platform2_5/trunk/ProductModules/PM_Consistency\PM_Consistency.c **** 	<tr>
1526:C:/Workspace/FW_Platform2_5/trunk/ProductModules/PM_Consistency\PM_Consistency.c **** 		<td> NP_CODE_1 </td>
1527:C:/Workspace/FW_Platform2_5/trunk/ProductModules/PM_Consistency\PM_Consistency.c **** 		<td> NP_CODE_2 </td>
1528:C:/Workspace/FW_Platform2_5/trunk/ProductModules/PM_Consistency\PM_Consistency.c **** 		<td> NP_CODE_3 </td>
1529:C:/Workspace/FW_Platform2_5/trunk/ProductModules/PM_Consistency\PM_Consistency.c **** 		<td> NP_CODE_4 </td>
1530:C:/Workspace/FW_Platform2_5/trunk/ProductModules/PM_Consistency\PM_Consistency.c **** 	</tr>
1531:C:/Workspace/FW_Platform2_5/trunk/ProductModules/PM_Consistency\PM_Consistency.c **** 	<tr>
1532:C:/Workspace/FW_Platform2_5/trunk/ProductModules/PM_Consistency\PM_Consistency.c **** 		<td> 0	</td>
1533:C:/Workspace/FW_Platform2_5/trunk/ProductModules/PM_Consistency\PM_Consistency.c **** 		<td> 1	</td>
1534:C:/Workspace/FW_Platform2_5/trunk/ProductModules/PM_Consistency\PM_Consistency.c **** 		<td> 2	</td>
1535:C:/Workspace/FW_Platform2_5/trunk/ProductModules/PM_Consistency\PM_Consistency.c **** 		<td> 3	</td>
1536:C:/Workspace/FW_Platform2_5/trunk/ProductModules/PM_Consistency\PM_Consistency.c **** 	</tr>
1537:C:/Workspace/FW_Platform2_5/trunk/ProductModules/PM_Consistency\PM_Consistency.c **** </TABLE>
1538:C:/Workspace/FW_Platform2_5/trunk/ProductModules/PM_Consistency\PM_Consistency.c **** 
1539:C:/Workspace/FW_Platform2_5/trunk/ProductModules/PM_Consistency\PM_Consistency.c **** 
1540:C:/Workspace/FW_Platform2_5/trunk/ProductModules/PM_Consistency\PM_Consistency.c **** \n P_CODE_X:  table for the load piloted
1541:C:/Workspace/FW_Platform2_5/trunk/ProductModules/PM_Consistency\PM_Consistency.c **** \n NP_CODE_X: table for the load not piloted
1542:C:/Workspace/FW_Platform2_5/trunk/ProductModules/PM_Consistency\PM_Consistency.c **** 
1543:C:/Workspace/FW_Platform2_5/trunk/ProductModules/PM_Consistency\PM_Consistency.c **** \param  [in]		res structure of LoadStatusRes_t type
1544:C:/Workspace/FW_Platform2_5/trunk/ProductModules/PM_Consistency\PM_Consistency.c **** \param  [in]		pFeedBackData pointer to consistency's table
1545:C:/Workspace/FW_Platform2_5/trunk/ProductModules/PM_Consistency\PM_Consistency.c **** \param  [in]	    loadPos load's position inside output map
1546:C:/Workspace/FW_Platform2_5/trunk/ProductModules/PM_Consistency\PM_Consistency.c **** 
1547:C:/Workspace/FW_Platform2_5/trunk/ProductModules/PM_Consistency\PM_Consistency.c **** \attention \b CS_Status_Var.pCS_Resource used as I/O
1548:C:/Workspace/FW_Platform2_5/trunk/ProductModules/PM_Consistency\PM_Consistency.c **** 
1549:C:/Workspace/FW_Platform2_5/trunk/ProductModules/PM_Consistency\PM_Consistency.c **** 
1550:C:/Workspace/FW_Platform2_5/trunk/ProductModules/PM_Consistency\PM_Consistency.c **** */
1551:C:/Workspace/FW_Platform2_5/trunk/ProductModules/PM_Consistency\PM_Consistency.c **** 
1552:C:/Workspace/FW_Platform2_5/trunk/ProductModules/PM_Consistency\PM_Consistency.c **** static void CS_ManageRes( LoadStatusRes_t res, uint8_t *pFeedBackData, uint8_t loadPos )
1553:C:/Workspace/FW_Platform2_5/trunk/ProductModules/PM_Consistency\PM_Consistency.c **** {
1554:C:/Workspace/FW_Platform2_5/trunk/ProductModules/PM_Consistency\PM_Consistency.c **** 	uint8_t retcode;
1555:C:/Workspace/FW_Platform2_5/trunk/ProductModules/PM_Consistency\PM_Consistency.c **** 	uint8_t *auxptr;
1556:C:/Workspace/FW_Platform2_5/trunk/ProductModules/PM_Consistency\PM_Consistency.c **** 
1557:C:/Workspace/FW_Platform2_5/trunk/ProductModules/PM_Consistency\PM_Consistency.c **** 	/* Punto all'inizio della struttura NP_CODE_X */
1558:C:/Workspace/FW_Platform2_5/trunk/ProductModules/PM_Consistency\PM_Consistency.c **** 	auxptr = (uint8_t*)((uint16_t*)((void*)pFeedBackData) + *(pFeedBackData+1) + 1);
 424                             		.loc 1 1558 0
 425 01aa 59 ED 01                		movu.B	1[r14], r13
 426 01ad 62 1D                   		add	#1, r13
 427 01af 4B DD                   		add	r13, r13
 428 01b1 FF 24 DE                		add	r13, r14, r4
 429                             	.LVL62:
1559:C:/Workspace/FW_Platform2_5/trunk/ProductModules/PM_Consistency\PM_Consistency.c **** 	/* A seconda dello stato carico: CS_LOAD_ACTIVE,CS_LOAD_NOT_ACTIVE or CS_LOAD_FFC_NOT_ACTIVE
1560:C:/Workspace/FW_Platform2_5/trunk/ProductModules/PM_Consistency\PM_Consistency.c **** 	   punto alla word contenente i codici di ritorno per i diversi valori di feedback */
1561:C:/Workspace/FW_Platform2_5/trunk/ProductModules/PM_Consistency\PM_Consistency.c **** 	auxptr += 2*((res.cs_code>>2)&0x03);
 430                             		.loc 1 1561 0
 431 01b4 5B BE                   		movu.B	r11, r14
 432                             	.LVL63:
 433 01b6 FD 82 ED                		shlr	#2, r14, r13
 434 01b9 64 3D                   		and	#3, r13
 435 01bb 4B DD                   		add	r13, r13
1562:C:/Workspace/FW_Platform2_5/trunk/ProductModules/PM_Consistency\PM_Consistency.c **** 	/* A seconda del valore del feedback 0,1,2,3 punto al byte alto o al byte basso */
1563:C:/Workspace/FW_Platform2_5/trunk/ProductModules/PM_Consistency\PM_Consistency.c **** 	auxptr += ((res.cs_code>>1) & 0x01);
 436                             		.loc 1 1563 0
 437 01bd 68 1E                   		shlr	#1, r14
1561:C:/Workspace/FW_Platform2_5/trunk/ProductModules/PM_Consistency\PM_Consistency.c **** 	auxptr += 2*((res.cs_code>>2)&0x03);
 438                             		.loc 1 1561 0
 439 01bf 4B 4D                   		add	r4, r13
 440                             	.LVL64:
 441                             		.loc 1 1563 0
 442 01c1 64 1E                   		and	#1, r14
1564:C:/Workspace/FW_Platform2_5/trunk/ProductModules/PM_Consistency\PM_Consistency.c **** 	/* A seconda del valore del feedback 0,1,2,3 ricavo il nibble contenente il codice operativo
1565:C:/Workspace/FW_Platform2_5/trunk/ProductModules/PM_Consistency\PM_Consistency.c **** 	   da ritornare */
1566:C:/Workspace/FW_Platform2_5/trunk/ProductModules/PM_Consistency\PM_Consistency.c **** 	/*lint -e504 shift verificato */
1567:C:/Workspace/FW_Platform2_5/trunk/ProductModules/PM_Consistency\PM_Consistency.c **** 	retcode = (uint8_t)(((*(auxptr)) >> (4*((res.cs_code&0x01)^1))) & 0x0F);
 443                             		.loc 1 1567 0
 444 01c3 64 1B                   		and	#1, r11
 445                             	.LVL65:
 446 01c5 FC DB B0                		sceq.L	r11
 447 01c8 FE CE DD                		movu.B	[r14,r13], r13
 448 01cb 6C 2B                   		shll	#2, r11
 449 01cd FD 61 BD                		shar	r11, r13
 450                             	.LBE35:
 451 01d0 64 FD                   		and	#15, r13
 452                             	.LVL66:
 453                             	.LBB38:
1568:C:/Workspace/FW_Platform2_5/trunk/ProductModules/PM_Consistency\PM_Consistency.c **** 	/*lint +e504 */
1569:C:/Workspace/FW_Platform2_5/trunk/ProductModules/PM_Consistency\PM_Consistency.c **** 
1570:C:/Workspace/FW_Platform2_5/trunk/ProductModules/PM_Consistency\PM_Consistency.c **** #if defined(CONFIG_PM_CS_RES_PLUS_STATUS)
1571:C:/Workspace/FW_Platform2_5/trunk/ProductModules/PM_Consistency\PM_Consistency.c **** 
1572:C:/Workspace/FW_Platform2_5/trunk/ProductModules/PM_Consistency\PM_Consistency.c **** 	if (res.load_status == CS_LOAD_FFC_NOT_ACTIVE)
 454                             		.loc 1 1572 0
 455 01d2 5B CB                   		movu.B	r12, r11
 456 01d4 61 3B                   		cmp	#3, r11
 457 01d6 21 04                   		bne	.L38
1573:C:/Workspace/FW_Platform2_5/trunk/ProductModules/PM_Consistency\PM_Consistency.c **** 	{
1574:C:/Workspace/FW_Platform2_5/trunk/ProductModules/PM_Consistency\PM_Consistency.c **** 		res.load_status = CS_LOAD_NOT_ACTIVE;
 458                             		.loc 1 1574 0
 459 01d8 66 0C                   		mov	#0, r12
 460                             	.LVL67:
 461                             		.balign 2,3,1
 462                             	.L38:
1575:C:/Workspace/FW_Platform2_5/trunk/ProductModules/PM_Consistency\PM_Consistency.c **** 	}
1576:C:/Workspace/FW_Platform2_5/trunk/ProductModules/PM_Consistency\PM_Consistency.c **** 	CS_ElemNewConsistency( loadPos, (uint8_t)(retcode | (uint8_t)(res.load_status<<3)) );
 463                             		.loc 1 1576 0
 464 01da 6C 3C                   		shll	#3, r12
 465                             	.LVL68:
 466 01dc 57 CD                   		or	r12, r13
 467                             	.LVL69:
 468                             	.LBB36:
 469                             	.LBB37:
1577:C:/Workspace/FW_Platform2_5/trunk/ProductModules/PM_Consistency\PM_Consistency.c **** 
1578:C:/Workspace/FW_Platform2_5/trunk/ProductModules/PM_Consistency\PM_Consistency.c **** #else
1579:C:/Workspace/FW_Platform2_5/trunk/ProductModules/PM_Consistency\PM_Consistency.c **** 
1580:C:/Workspace/FW_Platform2_5/trunk/ProductModules/PM_Consistency\PM_Consistency.c **** 	CS_ElemNewConsistency( loadPos, retcode );
1581:C:/Workspace/FW_Platform2_5/trunk/ProductModules/PM_Consistency\PM_Consistency.c **** 
1582:C:/Workspace/FW_Platform2_5/trunk/ProductModules/PM_Consistency\PM_Consistency.c **** #endif
1583:C:/Workspace/FW_Platform2_5/trunk/ProductModules/PM_Consistency\PM_Consistency.c **** 
1584:C:/Workspace/FW_Platform2_5/trunk/ProductModules/PM_Consistency\PM_Consistency.c **** }
1585:C:/Workspace/FW_Platform2_5/trunk/ProductModules/PM_Consistency\PM_Consistency.c **** 
1586:C:/Workspace/FW_Platform2_5/trunk/ProductModules/PM_Consistency\PM_Consistency.c **** /**
1587:C:/Workspace/FW_Platform2_5/trunk/ProductModules/PM_Consistency\PM_Consistency.c **** Store the new consistency value of the selected load in the related element \n
1588:C:/Workspace/FW_Platform2_5/trunk/ProductModules/PM_Consistency\PM_Consistency.c **** of pCS_Resource array
1589:C:/Workspace/FW_Platform2_5/trunk/ProductModules/PM_Consistency\PM_Consistency.c **** 
1590:C:/Workspace/FW_Platform2_5/trunk/ProductModules/PM_Consistency\PM_Consistency.c **** \param  [in]		array_ind: index of element into pCS_Resource array
1591:C:/Workspace/FW_Platform2_5/trunk/ProductModules/PM_Consistency\PM_Consistency.c **** \param  [in]		new_CS_value: new consistency value of array_ind-th element
1592:C:/Workspace/FW_Platform2_5/trunk/ProductModules/PM_Consistency\PM_Consistency.c **** 
1593:C:/Workspace/FW_Platform2_5/trunk/ProductModules/PM_Consistency\PM_Consistency.c **** 
1594:C:/Workspace/FW_Platform2_5/trunk/ProductModules/PM_Consistency\PM_Consistency.c **** \return 	none
1595:C:/Workspace/FW_Platform2_5/trunk/ProductModules/PM_Consistency\PM_Consistency.c **** 
1596:C:/Workspace/FW_Platform2_5/trunk/ProductModules/PM_Consistency\PM_Consistency.c **** 
1597:C:/Workspace/FW_Platform2_5/trunk/ProductModules/PM_Consistency\PM_Consistency.c **** \author 	xyz
1598:C:/Workspace/FW_Platform2_5/trunk/ProductModules/PM_Consistency\PM_Consistency.c **** \date		gg/mm/aaaa
1599:C:/Workspace/FW_Platform2_5/trunk/ProductModules/PM_Consistency\PM_Consistency.c **** \version	1.0.0
1600:C:/Workspace/FW_Platform2_5/trunk/ProductModules/PM_Consistency\PM_Consistency.c **** 
1601:C:/Workspace/FW_Platform2_5/trunk/ProductModules/PM_Consistency\PM_Consistency.c **** \note		\par \b Nota 1:
1602:C:/Workspace/FW_Platform2_5/trunk/ProductModules/PM_Consistency\PM_Consistency.c **** 			documentation by xyz
1603:C:/Workspace/FW_Platform2_5/trunk/ProductModules/PM_Consistency\PM_Consistency.c **** 
1604:C:/Workspace/FW_Platform2_5/trunk/ProductModules/PM_Consistency\PM_Consistency.c **** 
1605:C:/Workspace/FW_Platform2_5/trunk/ProductModules/PM_Consistency\PM_Consistency.c **** */
1606:C:/Workspace/FW_Platform2_5/trunk/ProductModules/PM_Consistency\PM_Consistency.c **** 
1607:C:/Workspace/FW_Platform2_5/trunk/ProductModules/PM_Consistency\PM_Consistency.c **** static void CS_ElemNewConsistency( uint8_t array_ind, uint8_t new_CS_value )
1608:C:/Workspace/FW_Platform2_5/trunk/ProductModules/PM_Consistency\PM_Consistency.c **** {
1609:C:/Workspace/FW_Platform2_5/trunk/ProductModules/PM_Consistency\PM_Consistency.c ****   SAFETY_REGION_START();
1610:C:/Workspace/FW_Platform2_5/trunk/ProductModules/PM_Consistency\PM_Consistency.c ****   SAFETY_DATA_ELEM_CHECK( PLT_Consistency, array_ind );
1611:C:/Workspace/FW_Platform2_5/trunk/ProductModules/PM_Consistency\PM_Consistency.c **** 
1612:C:/Workspace/FW_Platform2_5/trunk/ProductModules/PM_Consistency\PM_Consistency.c ****   PLT_Consistency[array_ind] = new_CS_value;
 470                             		.loc 1 1612 0
 471 01de C3 AD                   		mov.B	r13, [r10]
 472 01e0 2E 0A                   		bra	.L5
 473                             	.LVL70:
 474                             	.L16:
 475                             	.LBE37:
 476                             	.LBE36:
 477                             	.LBE38:
 478                             	.LBE34:
1095:C:/Workspace/FW_Platform2_5/trunk/ProductModules/PM_Consistency\PM_Consistency.c **** 			PLT_ERROR_WARNING(PLT_ERROR_CONSISTENCY_NOT_SUPPORTED);
 479                             		.loc 1 1095 0
 480 01e2 75 41 39                		mov.L	#57, r1
 481                             	.LVL71:
 482 01e5 05 00 00 00             		bsr	_LIB_Error_Warning_Handler
 483                             	.LVL72:
 484 01e9 03                      		.balign 2,3,1
 485                             	.L5:
 486 01ea 62 17                   		add	#1, r7
 487 01ec 62 1A                   		add	#1, r10
 488                             		.balign 2,3,1
 489                             	.L4:
 490                             	.LBE26:
 356:C:/Workspace/FW_Platform2_5/trunk/ProductModules/PM_Consistency\PM_Consistency.c **** 	for ( loadPos = 0; loadPos < nLoads; loadPos++)
 491                             		.loc 1 356 0 discriminator 1
 492 01ee 5B 7B                   		movu.B	r7, r11
 493 01f0 47 8B                   		cmp	r8, r11
 494 01f2 CF 79                   		mov.B	r7, r9
 495                             	.LVL73:
 496 01f4 22 05 38 20 FE          		bltu	.L39
 497 01f9 2E 24                   		bra	.L79
 498                             	.L13:
 499                             	.LVL74:
 500                             	.LBB41:
 501                             	.LBB39:
 502                             	.LBB40:
 503                             		.loc 1 1612 0
 504 01fb F8 A4 FF                		mov.B	#-1, [r10]
 505                             	.LBE40:
 506                             	.LBE39:
 463:C:/Workspace/FW_Platform2_5/trunk/ProductModules/PM_Consistency\PM_Consistency.c **** 			continue; /* Process next load */
 507                             		.loc 1 463 0
 508 01fe 2E EC                   		bra	.L5
 509                             	.LVL75:
 510                             	.L77:
 470:C:/Workspace/FW_Platform2_5/trunk/ProductModules/PM_Consistency\PM_Consistency.c **** 		load_status = (uint8_t)(LIB_IOM_GetLoadStatus(loadPos)&LOAD_REG_MASK);
 511                             		.loc 1 470 0
 512 0200 CF 91                   		mov.B	r9, r1
 513 0202 05 00 00 00             		bsr	_LIB_IOM_GetLoadStatus
 514                             	.LVL76:
 515 0206 64 F1                   		and	#15, r1
 473:C:/Workspace/FW_Platform2_5/trunk/ProductModules/PM_Consistency\PM_Consistency.c **** 		if (pilotType == PLP_L)
 516                             		.loc 1 473 0
 517 0208 5B DB                   		movu.B	r13, r11
 518 020a 75 5B 13                		cmp	#19, r11
 470:C:/Workspace/FW_Platform2_5/trunk/ProductModules/PM_Consistency\PM_Consistency.c **** 		load_status = (uint8_t)(LIB_IOM_GetLoadStatus(loadPos)&LOAD_REG_MASK);
 519                             		.loc 1 470 0
 520 020d CF 1C                   		mov.B	r1, r12
 521                             	.LVL77:
 473:C:/Workspace/FW_Platform2_5/trunk/ProductModules/PM_Consistency\PM_Consistency.c **** 		if (pilotType == PLP_L)
 522                             		.loc 1 473 0
 523 020f 3B 9C FE                		bne	.L80
 524 0212 38 9D FE                		bra	.L49
 525                             	.LVL78:
 526                             	.L45:
 675:C:/Workspace/FW_Platform2_5/trunk/ProductModules/PM_Consistency\PM_Consistency.c **** 					load_status = CS_LOAD_FFC_NOT_ACTIVE;
 527                             		.loc 1 675 0
 528 0215 66 3C                   		mov	#3, r12
 529                             	.LVL79:
 530 0217 2E 8F                   		bra	.L36
 531                             	.LVL80:
 532                             	.L46:
 679:C:/Workspace/FW_Platform2_5/trunk/ProductModules/PM_Consistency\PM_Consistency.c **** 					load_status = CS_LOAD_FAN_HIGH_SPEED;
 533                             		.loc 1 679 0
 534 0219 66 4C                   		mov	#4, r12
 535                             	.LVL81:
 536 021b 2E 87                   		bra	.L35
 537                             	.LVL82:
 538                             	.L79:
 539                             	.LBE41:
1107:C:/Workspace/FW_Platform2_5/trunk/ProductModules/PM_Consistency\PM_Consistency.c **** }
 540                             		.loc 1 1107 0
 541 021d 3F 6D 0D                		rtsd	#52, r6-r13
 542                             	.LFE2:
 544                             		.section	.text.PM_Consistency_SetModuleStatus,"ax",@progbits
 545                             		.global	_PM_Consistency_SetModuleStatus
 547                             	_PM_Consistency_SetModuleStatus:
 548                             	.LFB3:
1126:C:/Workspace/FW_Platform2_5/trunk/ProductModules/PM_Consistency\PM_Consistency.c **** {
 549                             		.loc 1 1126 0
 550                             	.LVL83:
 551 0000 02                      		rts
 552                             	.LFE3:
 554                             		.section	.text.PM_Consistency_GetModuleStatus,"ax",@progbits
 555                             		.global	_PM_Consistency_GetModuleStatus
 557                             	_PM_Consistency_GetModuleStatus:
 558                             	.LFB4:
1159:C:/Workspace/FW_Platform2_5/trunk/ProductModules/PM_Consistency\PM_Consistency.c **** {
 559                             		.loc 1 1159 0
1165:C:/Workspace/FW_Platform2_5/trunk/ProductModules/PM_Consistency\PM_Consistency.c **** }
 560                             		.loc 1 1165 0
 561 0000 66 01                   		mov.L	#0, r1
 562 0002 02                      		rts
 563                             	.LFE4:
 565                             		.section	.text.PM_Consistency_IsValueReady,"ax",@progbits
 566                             		.global	_PM_Consistency_IsValueReady
 568                             	_PM_Consistency_IsValueReady:
 569                             	.LFB5:
1191:C:/Workspace/FW_Platform2_5/trunk/ProductModules/PM_Consistency\PM_Consistency.c **** {
 570                             		.loc 1 1191 0
 571                             	.LVL84:
 572 0000 7E A7                   		push.l	r7
 573                             	.LCFI2:
 574 0002 60 40                   		sub	#4, r0
 575                             	.LCFI3:
1197:C:/Workspace/FW_Platform2_5/trunk/ProductModules/PM_Consistency\PM_Consistency.c **** 	*pCS_Value = PM_CS_NOT_VALID_CODE;
 576                             		.loc 1 1197 0
 577 0004 F8 24 FF                		mov.B	#-1, [r2]
1191:C:/Workspace/FW_Platform2_5/trunk/ProductModules/PM_Consistency\PM_Consistency.c **** {
 578                             		.loc 1 1191 0
 579 0007 EF 27                   		mov.L	r2, r7
1199:C:/Workspace/FW_Platform2_5/trunk/ProductModules/PM_Consistency\PM_Consistency.c **** 	loadIndex = LIB_IOM_FindLoad(loadPos,&pByte);
 580                             		.loc 1 1199 0
 581 0009 EF 02                   		mov.L	r0, r2
 582                             	.LVL85:
 583 000b 05 00 00 00             		bsr	_LIB_IOM_FindLoad
 584                             	.LVL86:
1200:C:/Workspace/FW_Platform2_5/trunk/ProductModules/PM_Consistency\PM_Consistency.c **** 	if ( loadIndex == 0xFF )
 585                             		.loc 1 1200 0
 586 000f 5B 11                   		movu.B	r1, r1
 587 0011 75 51 FF                		cmp	#0xff, r1
 588 0014 20 11                   		beq	.L88
1207:C:/Workspace/FW_Platform2_5/trunk/ProductModules/PM_Consistency\PM_Consistency.c **** 	*pCS_Value = PLT_Consistency[loadIndex];
 589                             		.loc 1 1207 0
 590 0016 FB E2 00 00 00 00       		mov.L	#_PLT_Consistency, r14
 591 001c FE 41 EE                		mov.B	[r1,r14], r14
1210:C:/Workspace/FW_Platform2_5/trunk/ProductModules/PM_Consistency\PM_Consistency.c **** 	return PM_CS_NO_ERROR;
 592                             		.loc 1 1210 0
 593 001f 66 01                   		mov	#0, r1
 594                             	.LVL87:
1207:C:/Workspace/FW_Platform2_5/trunk/ProductModules/PM_Consistency\PM_Consistency.c **** 	*pCS_Value = PLT_Consistency[loadIndex];
 595                             		.loc 1 1207 0
 596 0021 C3 7E                   		mov.B	r14, [r7]
 597 0023 2E 05                   		bra	.L87
 598                             	.LVL88:
 599                             	.L88:
1202:C:/Workspace/FW_Platform2_5/trunk/ProductModules/PM_Consistency\PM_Consistency.c **** 		return PM_CS_ERROR;
 600                             		.loc 1 1202 0
 601 0025 66 11                   		mov	#1, r1
 602                             	.LVL89:
 603 0027 03                      		.balign 2,3,1
 604                             	.L87:
1212:C:/Workspace/FW_Platform2_5/trunk/ProductModules/PM_Consistency\PM_Consistency.c **** }
 605                             		.loc 1 1212 0
 606 0028 64 11                   		and	#1, r1
 607 002a 3F 77 02                		rtsd	#8, r7-r7
 608                             	.LFE5:
 610 002d 03                      		.section	.text.PM_Consistency_LoadChangedStatus,"ax",@progbits
 611                             		.global	_PM_Consistency_LoadChangedStatus
 613                             	_PM_Consistency_LoadChangedStatus:
 614                             	.LFB6:
1244:C:/Workspace/FW_Platform2_5/trunk/ProductModules/PM_Consistency\PM_Consistency.c **** {
 615                             		.loc 1 1244 0
 616                             	.LVL90:
 617 0000 6E 7A                   		pushm	r7-r10
 618                             	.LCFI4:
 619 0002 60 C0                   		sub	#12, r0
 620                             	.LCFI5:
1247:C:/Workspace/FW_Platform2_5/trunk/ProductModules/PM_Consistency\PM_Consistency.c **** 	if (oldloadstatus != newloadstatus)
 621                             		.loc 1 1247 0
 622 0004 5B 22                   		movu.B	r2, r2
 623 0006 5B 33                   		movu.B	r3, r3
 624 0008 47 32                   		cmp	r3, r2
1244:C:/Workspace/FW_Platform2_5/trunk/ProductModules/PM_Consistency\PM_Consistency.c **** {
 625                             		.loc 1 1244 0
 626 000a CD 0E 20                		mov.B	32[r0], r14
1247:C:/Workspace/FW_Platform2_5/trunk/ProductModules/PM_Consistency\PM_Consistency.c **** 	if (oldloadstatus != newloadstatus)
 627                             		.loc 1 1247 0
 628 000d 20 65                   		beq	.L90
 629                             	.LBB42:
1252:C:/Workspace/FW_Platform2_5/trunk/ProductModules/PM_Consistency\PM_Consistency.c **** 		CS_Status_Var.CS_LoadCnt[loadPos] = 0;
 630                             		.loc 1 1252 0
 631 000f FB 32 00 00 00 00       		mov.L	#_CS_Status_Var, r3
 632                             	.LVL91:
 633 0015 5B 17                   		movu.B	r1, r7
 634 0017 66 0A                   		mov	#0, r10
 635 0019 FE 07 3A                		mov.B	r10, [r7,r3]
1254:C:/Workspace/FW_Platform2_5/trunk/ProductModules/PM_Consistency\PM_Consistency.c **** 		switch (pilottype)
 636                             		.loc 1 1254 0
 637 001c 5B E3                   		movu.B	r14, r3
 638 001e 75 53 1D                		cmp	#29, r3
 639 0021 24 51                   		bgtu	.L90
 640 0023 CF E3                   		mov.B	r14, r3
 641 0025 66 1E                   		mov.L	#1, r14
 642 0027 FD 62 3E                		shll	r3, r14
 643 002a FD 70 CE 31 00 08 20    		tst	#0x20080031, r14
 644 0031 20 41                   		beq	.L90
1300:C:/Workspace/FW_Platform2_5/trunk/ProductModules/PM_Consistency\PM_Consistency.c **** 			if ( BSLDR_OK != BasicLoader( SF_PTR_IO_DEVICE, LOAD_FEEDBACKS_OFFSET(pByte), &RamData) )
 645                             		.loc 1 1300 0
 646 0033 88 4A                   		mov.B	1[r4], r2
 647                             	.LVL92:
 648 0035 75 41 21                		mov	#33, r1
 649                             	.LVL93:
 650 0038 EF 03                   		mov.L	r0, r3
 651 003a 05 00 00 00             		bsr	_BasicLoader
 652                             	.LVL94:
 653 003e 5B 11                   		movu.B	r1, r1
 654 0040 61 01                   		cmp	#0, r1
 655 0042 21 30                   		bne	.L90
1306:C:/Workspace/FW_Platform2_5/trunk/ProductModules/PM_Consistency\PM_Consistency.c **** 			switch ( FEEDBACK_READ_TYPE_VALUE(RamData.Data,0) )
 656                             		.loc 1 1306 0
 657 0044 EC 04                   		mov.L	[r0], r4
 658 0046 59 4E 02                		movu.B	2[r4], r14
 659 0049 88 C9                   		mov.B	3[r4], r1
 660 004b 61 7E                   		cmp	#7, r14
 661 004d 20 08                   		beq	.L96
 662 004f 61 DE                   		cmp	#13, r14
 663 0051 21 10                   		bne	.L99
 664 0053 2E 08                   		bra	.L97
 665                             	.L96:
1310:C:/Workspace/FW_Platform2_5/trunk/ProductModules/PM_Consistency\PM_Consistency.c **** 				PM_FrequencyFeedbacks_RestartFeedbackByPosition( FEEDBACK_POSITION_VALUE(RamData.Data,0) );
 666                             		.loc 1 1310 0
 667 0055 05 00 00 00             		bsr	_PM_FrequencyFeedbacks_RestartFeedbackByPosition
 668                             	.LVL95:
1311:C:/Workspace/FW_Platform2_5/trunk/ProductModules/PM_Consistency\PM_Consistency.c **** 				break;
 669                             		.loc 1 1311 0
 670 0059 2E 0D                   		bra	.L98
 671                             	.L97:
1315:C:/Workspace/FW_Platform2_5/trunk/ProductModules/PM_Consistency\PM_Consistency.c **** 				PM_AnalogFeedbackResetMeasure( FEEDBACK_POSITION_VALUE(RamData.Data,0) );
 672                             		.loc 1 1315 0
 673 005b 05 00 00 00             		bsr	_PM_AnalogFeedbackResetMeasure
 674                             	.LVL96:
1316:C:/Workspace/FW_Platform2_5/trunk/ProductModules/PM_Consistency\PM_Consistency.c **** 				break;
 675                             		.loc 1 1316 0
 676 005f 2E 07                   		bra	.L98
 677                             	.L99:
1319:C:/Workspace/FW_Platform2_5/trunk/ProductModules/PM_Consistency\PM_Consistency.c **** 				LIB_FDB_FeedbackInitMeasure( FEEDBACK_POSITION_VALUE(RamData.Data,0) );
 678                             		.loc 1 1319 0
 679 0061 05 00 00 00             		bsr	_LIB_FDB_FeedbackInitMeasure
 680                             	.LVL97:
 681 0065 03                      		.balign 2,3,5
 682                             	.L98:
 683                             	.LBB43:
 684                             	.LBB44:
 685                             		.loc 1 1612 0
 686 0066 FB E2 00 00 00 00       		mov.L	#_PLT_Consistency, r14
 687 006c FB A6 FF                		mov	#-1, r10
 688 006f FE 07 EA                		mov.B	r10, [r7,r14]
 689                             	.LVL98:
 690                             		.balign 2,3,2
 691                             	.L90:
 692                             	.LBE44:
 693                             	.LBE43:
 694                             	.LBE42:
1330:C:/Workspace/FW_Platform2_5/trunk/ProductModules/PM_Consistency\PM_Consistency.c **** }
 695                             		.loc 1 1330 0
 696 0072 3F 7A 07                		rtsd	#28, r7-r10
 697                             	.LFE6:
 699 0075 03                      		.section	.text.PM_Consistency_GetAllCsValues,"ax",@progbits
 700                             		.global	_PM_Consistency_GetAllCsValues
 702                             	_PM_Consistency_GetAllCsValues:
 703                             	.LFB11:
1613:C:/Workspace/FW_Platform2_5/trunk/ProductModules/PM_Consistency\PM_Consistency.c **** 
1614:C:/Workspace/FW_Platform2_5/trunk/ProductModules/PM_Consistency\PM_Consistency.c ****   SAFETY_DATA_ELEM_UPDATE( PLT_Consistency, array_ind );
1615:C:/Workspace/FW_Platform2_5/trunk/ProductModules/PM_Consistency\PM_Consistency.c ****   SAFETY_REGION_END();
1616:C:/Workspace/FW_Platform2_5/trunk/ProductModules/PM_Consistency\PM_Consistency.c **** }
1617:C:/Workspace/FW_Platform2_5/trunk/ProductModules/PM_Consistency\PM_Consistency.c **** 
1618:C:/Workspace/FW_Platform2_5/trunk/ProductModules/PM_Consistency\PM_Consistency.c **** /**
1619:C:/Workspace/FW_Platform2_5/trunk/ProductModules/PM_Consistency\PM_Consistency.c **** Returns all consistency values in pConsistency array
1620:C:/Workspace/FW_Platform2_5/trunk/ProductModules/PM_Consistency\PM_Consistency.c **** 
1621:C:/Workspace/FW_Platform2_5/trunk/ProductModules/PM_Consistency\PM_Consistency.c **** \param  [out]		pConsistency: array to store consistency value, its size has to be N_MAXLOADS bytes.
1622:C:/Workspace/FW_Platform2_5/trunk/ProductModules/PM_Consistency\PM_Consistency.c **** 
1623:C:/Workspace/FW_Platform2_5/trunk/ProductModules/PM_Consistency\PM_Consistency.c **** \return 	none
1624:C:/Workspace/FW_Platform2_5/trunk/ProductModules/PM_Consistency\PM_Consistency.c **** 
1625:C:/Workspace/FW_Platform2_5/trunk/ProductModules/PM_Consistency\PM_Consistency.c **** 
1626:C:/Workspace/FW_Platform2_5/trunk/ProductModules/PM_Consistency\PM_Consistency.c **** \author 	Alessandro Sabbatini
1627:C:/Workspace/FW_Platform2_5/trunk/ProductModules/PM_Consistency\PM_Consistency.c **** \date		07/03/2013
1628:C:/Workspace/FW_Platform2_5/trunk/ProductModules/PM_Consistency\PM_Consistency.c **** \version	1.0.0
1629:C:/Workspace/FW_Platform2_5/trunk/ProductModules/PM_Consistency\PM_Consistency.c **** 
1630:C:/Workspace/FW_Platform2_5/trunk/ProductModules/PM_Consistency\PM_Consistency.c **** \note		\par \b Nota 1:
1631:C:/Workspace/FW_Platform2_5/trunk/ProductModules/PM_Consistency\PM_Consistency.c **** 			documentation by Alessandro Sabbatini
1632:C:/Workspace/FW_Platform2_5/trunk/ProductModules/PM_Consistency\PM_Consistency.c **** 
1633:C:/Workspace/FW_Platform2_5/trunk/ProductModules/PM_Consistency\PM_Consistency.c **** */
1634:C:/Workspace/FW_Platform2_5/trunk/ProductModules/PM_Consistency\PM_Consistency.c **** 
1635:C:/Workspace/FW_Platform2_5/trunk/ProductModules/PM_Consistency\PM_Consistency.c **** void PM_Consistency_GetAllCsValues(uint8_t *pConsistency)
1636:C:/Workspace/FW_Platform2_5/trunk/ProductModules/PM_Consistency\PM_Consistency.c **** {
 704                             		.loc 1 1636 0
 705                             	.LVL99:
1637:C:/Workspace/FW_Platform2_5/trunk/ProductModules/PM_Consistency\PM_Consistency.c **** 	memcpy(pConsistency, PLT_Consistency, sizeof(PLT_Consistency));
 706                             		.loc 1 1637 0
 707 0000 FB 22 00 00 00 00       		mov.L	#_PLT_Consistency, r2
 708 0006 75 43 10                		mov.L	#16, r3
 709 0009 7F 8F                   		smovf
 710                             	.LVL100:
 711 000b 02                      		rts
 712                             	.LFE11:
 714                             		.section	.bss.CS_Status_Var,"aw",@nobits
 717                             	_CS_Status_Var:
 718 0000 00 00 00 00 00 00 00 00 		.zero	17
 718      00 00 00 00 00 00 00 00 
 718      00 
 719                             		.section	.bss.PLT_Consistency,"aw",@nobits
 722                             	_PLT_Consistency:
 723 0000 00 00 00 00 00 00 00 00 		.zero	16
 723      00 00 00 00 00 00 00 00 
 856                             	.Letext0:
 857                             		.file 2 "C:\\Workspace\\FW_Platform2_5\\trunk\\HAL\\HAL_General/StandardTypes.h"
 858                             		.file 3 "C:\\Workspace\\FW_Platform2_5\\trunk\\CFG_DishWasher\\CFG_Inertia/DIO_cfg.h"
 859                             		.file 4 "C:\\Workspace\\FW_Platform2_5\\trunk\\PlatformLibrary\\LIB_Error/LIB_Error.h"
 860                             		.file 5 "C:\\Workspace\\FW_Platform2_5\\trunk\\ProductModules\\PM_Library/Lib_utilities.h"
 861                             		.file 6 "C:\\Workspace\\FW_Platform2_5\\trunk\\Drivers/IO_driver.h"
 862                             		.file 7 "C:\\Workspace\\FW_Platform2_5\\trunk\\ProductModules\\PM_AnalogFeedbacks/PM_AnalogFeedbac
 863                             		.file 8 "C:\\Workspace\\FW_Platform2_5\\trunk\\ProductModules\\PM_FreqFeedbacks/PM_FrequencyFeedba
 864                             		.file 9 "C:\\Workspace\\FW_Platform2_5\\trunk\\PlatformLibrary\\LIB_Feedbacks/FeedbacksExp.h"
 865                             		.file 10 "C:\\Workspace\\FW_Platform2_5\\trunk\\PlatformLibrary\\LIB_IOManager/OutputManager.h"
 866                             		.file 11 "C:\\Workspace\\FW_Platform2_5\\trunk\\PlatformLibrary\\LIB_DigitalIO/DigitalInputsExp.h"
 867                             		.file 12 "C:\\Workspace\\FW_Platform2_5\\trunk\\ProductModules\\PM_AnalogFeedbacks/PM_AnalogFeedba
 868                             		.file 13 "C:\\Workspace\\FW_Platform2_5\\trunk\\PlatformLibrary\\LIB_ZeroCrossing/LIB_ZeroCrossing
 869                             		.file 14 "C:\\Workspace\\FW_Platform2_5\\trunk\\PlatformLibrary\\LIB_IOManager/OutputManagerExp.h"
 870                             		.file 15 "C:\\Workspace\\FW_Platform2_5\\trunk\\ProductModules\\PM_FreqFeedbacks/PM_FrequencyFeedb
 871                             		.file 16 "C:\\Workspace\\FW_Platform2_5\\trunk\\PlatformLibrary\\LIB_Feedbacks/Feedbacks.h"
