   1                             		.file	"PM_EnergyMeterSwTable.c"
   2                             		.section P,"ax"
   3                             	.Ltext0:
   4                             		.section	.text.TableInit,"ax",@progbits
   5                             		.global	_TableInit
   7                             	_TableInit:
   8                             	.LFB0:
   9                             		.file 1 "C:/Workspace/FW_Platform2_5/trunk/ProductModules/PM_EnergyMeterSw/PM_EnergyMeterSwTable.c
   1:C:/Workspace/FW_Platform2_5/trunk/ProductModules/PM_EnergyMeterSw\PM_EnergyMeterSwTable.c **** 
   2:C:/Workspace/FW_Platform2_5/trunk/ProductModules/PM_EnergyMeterSw\PM_EnergyMeterSwTable.c **** #include "PM_EnergyMeterSwTable.h"
   3:C:/Workspace/FW_Platform2_5/trunk/ProductModules/PM_EnergyMeterSw\PM_EnergyMeterSwTable.c **** #include "Config.h"
   4:C:/Workspace/FW_Platform2_5/trunk/ProductModules/PM_EnergyMeterSw\PM_EnergyMeterSwTable.c **** 
   5:C:/Workspace/FW_Platform2_5/trunk/ProductModules/PM_EnergyMeterSw\PM_EnergyMeterSwTable.c **** #if defined(CONFIG_EMS_TLOAD_ITEMS_MAX)
   6:C:/Workspace/FW_Platform2_5/trunk/ProductModules/PM_EnergyMeterSw\PM_EnergyMeterSwTable.c **** #include "PM_EnergyMeterSwTable_pri.h"
   7:C:/Workspace/FW_Platform2_5/trunk/ProductModules/PM_EnergyMeterSw\PM_EnergyMeterSwTable.c **** 
   8:C:/Workspace/FW_Platform2_5/trunk/ProductModules/PM_EnergyMeterSw\PM_EnergyMeterSwTable.c **** #include <string.h> /* memset */
   9:C:/Workspace/FW_Platform2_5/trunk/ProductModules/PM_EnergyMeterSw\PM_EnergyMeterSwTable.c **** 
  10:C:/Workspace/FW_Platform2_5/trunk/ProductModules/PM_EnergyMeterSw\PM_EnergyMeterSwTable.c **** 
  11:C:/Workspace/FW_Platform2_5/trunk/ProductModules/PM_EnergyMeterSw\PM_EnergyMeterSwTable.c **** 
  12:C:/Workspace/FW_Platform2_5/trunk/ProductModules/PM_EnergyMeterSw\PM_EnergyMeterSwTable.c **** /* ******************* */
  13:C:/Workspace/FW_Platform2_5/trunk/ProductModules/PM_EnergyMeterSw\PM_EnergyMeterSwTable.c **** /* Function prototypes */
  14:C:/Workspace/FW_Platform2_5/trunk/ProductModules/PM_EnergyMeterSw\PM_EnergyMeterSwTable.c **** /* ******************* */
  15:C:/Workspace/FW_Platform2_5/trunk/ProductModules/PM_EnergyMeterSw\PM_EnergyMeterSwTable.c **** 
  16:C:/Workspace/FW_Platform2_5/trunk/ProductModules/PM_EnergyMeterSw\PM_EnergyMeterSwTable.c **** 
  17:C:/Workspace/FW_Platform2_5/trunk/ProductModules/PM_EnergyMeterSw\PM_EnergyMeterSwTable.c **** /**
  18:C:/Workspace/FW_Platform2_5/trunk/ProductModules/PM_EnergyMeterSw\PM_EnergyMeterSwTable.c ****   This function find, in the table, the Y (Temperature) curves including the Yx value
  19:C:/Workspace/FW_Platform2_5/trunk/ProductModules/PM_EnergyMeterSw\PM_EnergyMeterSwTable.c **** 
  20:C:/Workspace/FW_Platform2_5/trunk/ProductModules/PM_EnergyMeterSw\PM_EnergyMeterSwTable.c **** \param  [in]      stTable_t*          psTable     [pointer to data table struct]
  21:C:/Workspace/FW_Platform2_5/trunk/ProductModules/PM_EnergyMeterSw\PM_EnergyMeterSwTable.c **** \param  [in]      uint16_t            ui16Yx      [the value of temperature]
  22:C:/Workspace/FW_Platform2_5/trunk/ProductModules/PM_EnergyMeterSw\PM_EnergyMeterSwTable.c **** \param  [out]     stTableSurfaceY_t*  psSurfaceY  [pointer to Y surface]
  23:C:/Workspace/FW_Platform2_5/trunk/ProductModules/PM_EnergyMeterSw\PM_EnergyMeterSwTable.c **** \param  [in,out]  none
  24:C:/Workspace/FW_Platform2_5/trunk/ProductModules/PM_EnergyMeterSw\PM_EnergyMeterSwTable.c **** 
  25:C:/Workspace/FW_Platform2_5/trunk/ProductModules/PM_EnergyMeterSw\PM_EnergyMeterSwTable.c **** \attention \b
  26:C:/Workspace/FW_Platform2_5/trunk/ProductModules/PM_EnergyMeterSw\PM_EnergyMeterSwTable.c **** 
  27:C:/Workspace/FW_Platform2_5/trunk/ProductModules/PM_EnergyMeterSw\PM_EnergyMeterSwTable.c **** \return   eEMS_Err - error code
  28:C:/Workspace/FW_Platform2_5/trunk/ProductModules/PM_EnergyMeterSw\PM_EnergyMeterSwTable.c **** 
  29:C:/Workspace/FW_Platform2_5/trunk/ProductModules/PM_EnergyMeterSw\PM_EnergyMeterSwTable.c **** \retval   [none]
  30:C:/Workspace/FW_Platform2_5/trunk/ProductModules/PM_EnergyMeterSw\PM_EnergyMeterSwTable.c **** 
  31:C:/Workspace/FW_Platform2_5/trunk/ProductModules/PM_EnergyMeterSw\PM_EnergyMeterSwTable.c **** \warning  [none]
  32:C:/Workspace/FW_Platform2_5/trunk/ProductModules/PM_EnergyMeterSw\PM_EnergyMeterSwTable.c **** 
  33:C:/Workspace/FW_Platform2_5/trunk/ProductModules/PM_EnergyMeterSw\PM_EnergyMeterSwTable.c **** \author   Intecs
  34:C:/Workspace/FW_Platform2_5/trunk/ProductModules/PM_EnergyMeterSw\PM_EnergyMeterSwTable.c **** \date     08-09-2011
  35:C:/Workspace/FW_Platform2_5/trunk/ProductModules/PM_EnergyMeterSw\PM_EnergyMeterSwTable.c **** \version  1.0.0
  36:C:/Workspace/FW_Platform2_5/trunk/ProductModules/PM_EnergyMeterSw\PM_EnergyMeterSwTable.c **** 
  37:C:/Workspace/FW_Platform2_5/trunk/ProductModules/PM_EnergyMeterSw\PM_EnergyMeterSwTable.c **** \bug    [none]
  38:C:/Workspace/FW_Platform2_5/trunk/ProductModules/PM_EnergyMeterSw\PM_EnergyMeterSwTable.c **** 
  39:C:/Workspace/FW_Platform2_5/trunk/ProductModules/PM_EnergyMeterSw\PM_EnergyMeterSwTable.c **** 
  40:C:/Workspace/FW_Platform2_5/trunk/ProductModules/PM_EnergyMeterSw\PM_EnergyMeterSwTable.c **** 
  41:C:/Workspace/FW_Platform2_5/trunk/ProductModules/PM_EnergyMeterSw\PM_EnergyMeterSwTable.c **** \note   \par \b Nota 1:
  42:C:/Workspace/FW_Platform2_5/trunk/ProductModules/PM_EnergyMeterSw\PM_EnergyMeterSwTable.c ****       documentation by ${Intecs}
  43:C:/Workspace/FW_Platform2_5/trunk/ProductModules/PM_EnergyMeterSw\PM_EnergyMeterSwTable.c **** */
  44:C:/Workspace/FW_Platform2_5/trunk/ProductModules/PM_EnergyMeterSw\PM_EnergyMeterSwTable.c **** STATIC eEMS_Err TableFindYCurves (const stTable_t* psTable, uint16_t ui16Yx,
  45:C:/Workspace/FW_Platform2_5/trunk/ProductModules/PM_EnergyMeterSw\PM_EnergyMeterSwTable.c ****                                   stTableSurfaceY_t* psSurfaceY);
  46:C:/Workspace/FW_Platform2_5/trunk/ProductModules/PM_EnergyMeterSw\PM_EnergyMeterSwTable.c **** 
  47:C:/Workspace/FW_Platform2_5/trunk/ProductModules/PM_EnergyMeterSw\PM_EnergyMeterSwTable.c **** 
  48:C:/Workspace/FW_Platform2_5/trunk/ProductModules/PM_EnergyMeterSw\PM_EnergyMeterSwTable.c **** /**
  49:C:/Workspace/FW_Platform2_5/trunk/ProductModules/PM_EnergyMeterSw\PM_EnergyMeterSwTable.c ****   This function computes the power based on Vin and a Y curve
  50:C:/Workspace/FW_Platform2_5/trunk/ProductModules/PM_EnergyMeterSw\PM_EnergyMeterSwTable.c **** 
  51:C:/Workspace/FW_Platform2_5/trunk/ProductModules/PM_EnergyMeterSw\PM_EnergyMeterSwTable.c **** \param  [in]      stTable_t*        psTable     [pointer to data table struct]
  52:C:/Workspace/FW_Platform2_5/trunk/ProductModules/PM_EnergyMeterSw\PM_EnergyMeterSwTable.c **** \param  [in]      uint16_t          ui16Vin     [the value of Vin]
  53:C:/Workspace/FW_Platform2_5/trunk/ProductModules/PM_EnergyMeterSw\PM_EnergyMeterSwTable.c **** \param  [in]      stTableCurveY_t*  psCurveY    [pointer to Y curve]
  54:C:/Workspace/FW_Platform2_5/trunk/ProductModules/PM_EnergyMeterSw\PM_EnergyMeterSwTable.c **** \param  [out]     uint16_t*         pui16Power  [pointer to the power calculated]
  55:C:/Workspace/FW_Platform2_5/trunk/ProductModules/PM_EnergyMeterSw\PM_EnergyMeterSwTable.c **** \param  [in,out]  none
  56:C:/Workspace/FW_Platform2_5/trunk/ProductModules/PM_EnergyMeterSw\PM_EnergyMeterSwTable.c **** 
  57:C:/Workspace/FW_Platform2_5/trunk/ProductModules/PM_EnergyMeterSw\PM_EnergyMeterSwTable.c **** \attention \b
  58:C:/Workspace/FW_Platform2_5/trunk/ProductModules/PM_EnergyMeterSw\PM_EnergyMeterSwTable.c **** 
  59:C:/Workspace/FW_Platform2_5/trunk/ProductModules/PM_EnergyMeterSw\PM_EnergyMeterSwTable.c **** \return   eEMS_Err - error code
  60:C:/Workspace/FW_Platform2_5/trunk/ProductModules/PM_EnergyMeterSw\PM_EnergyMeterSwTable.c **** 
  61:C:/Workspace/FW_Platform2_5/trunk/ProductModules/PM_EnergyMeterSw\PM_EnergyMeterSwTable.c **** \retval   [none]
  62:C:/Workspace/FW_Platform2_5/trunk/ProductModules/PM_EnergyMeterSw\PM_EnergyMeterSwTable.c **** 
  63:C:/Workspace/FW_Platform2_5/trunk/ProductModules/PM_EnergyMeterSw\PM_EnergyMeterSwTable.c **** \warning  [none]
  64:C:/Workspace/FW_Platform2_5/trunk/ProductModules/PM_EnergyMeterSw\PM_EnergyMeterSwTable.c **** 
  65:C:/Workspace/FW_Platform2_5/trunk/ProductModules/PM_EnergyMeterSw\PM_EnergyMeterSwTable.c **** \author   Intecs
  66:C:/Workspace/FW_Platform2_5/trunk/ProductModules/PM_EnergyMeterSw\PM_EnergyMeterSwTable.c **** \date     08-09-2011
  67:C:/Workspace/FW_Platform2_5/trunk/ProductModules/PM_EnergyMeterSw\PM_EnergyMeterSwTable.c **** \version  1.0.0
  68:C:/Workspace/FW_Platform2_5/trunk/ProductModules/PM_EnergyMeterSw\PM_EnergyMeterSwTable.c **** 
  69:C:/Workspace/FW_Platform2_5/trunk/ProductModules/PM_EnergyMeterSw\PM_EnergyMeterSwTable.c **** \bug    [none]
  70:C:/Workspace/FW_Platform2_5/trunk/ProductModules/PM_EnergyMeterSw\PM_EnergyMeterSwTable.c **** 
  71:C:/Workspace/FW_Platform2_5/trunk/ProductModules/PM_EnergyMeterSw\PM_EnergyMeterSwTable.c **** 
  72:C:/Workspace/FW_Platform2_5/trunk/ProductModules/PM_EnergyMeterSw\PM_EnergyMeterSwTable.c **** 
  73:C:/Workspace/FW_Platform2_5/trunk/ProductModules/PM_EnergyMeterSw\PM_EnergyMeterSwTable.c **** \note   \par \b Nota 1:
  74:C:/Workspace/FW_Platform2_5/trunk/ProductModules/PM_EnergyMeterSw\PM_EnergyMeterSwTable.c ****       documentation by ${Intecs}
  75:C:/Workspace/FW_Platform2_5/trunk/ProductModules/PM_EnergyMeterSw\PM_EnergyMeterSwTable.c **** */
  76:C:/Workspace/FW_Platform2_5/trunk/ProductModules/PM_EnergyMeterSw\PM_EnergyMeterSwTable.c **** STATIC eEMS_Err TableCalibSingola (const stTable_t* psTable, uint16_t ui16Vin,
  77:C:/Workspace/FW_Platform2_5/trunk/ProductModules/PM_EnergyMeterSw\PM_EnergyMeterSwTable.c ****                                    const stTableCurveY_t* psCurveY, uint16_t* pui16Power);
  78:C:/Workspace/FW_Platform2_5/trunk/ProductModules/PM_EnergyMeterSw\PM_EnergyMeterSwTable.c **** 
  79:C:/Workspace/FW_Platform2_5/trunk/ProductModules/PM_EnergyMeterSw\PM_EnergyMeterSwTable.c **** 
  80:C:/Workspace/FW_Platform2_5/trunk/ProductModules/PM_EnergyMeterSw\PM_EnergyMeterSwTable.c **** /**
  81:C:/Workspace/FW_Platform2_5/trunk/ProductModules/PM_EnergyMeterSw\PM_EnergyMeterSwTable.c ****   This function computes the power based on Yx, Vin and the curves Y1 and Y2
  82:C:/Workspace/FW_Platform2_5/trunk/ProductModules/PM_EnergyMeterSw\PM_EnergyMeterSwTable.c **** 
  83:C:/Workspace/FW_Platform2_5/trunk/ProductModules/PM_EnergyMeterSw\PM_EnergyMeterSwTable.c **** \param  [in]      stTable_t*          psTable     [pointer to data table struct]
  84:C:/Workspace/FW_Platform2_5/trunk/ProductModules/PM_EnergyMeterSw\PM_EnergyMeterSwTable.c **** \param  [in]      uint16_t            ui16Yx      [the value of temperature]
  85:C:/Workspace/FW_Platform2_5/trunk/ProductModules/PM_EnergyMeterSw\PM_EnergyMeterSwTable.c **** \param  [in]      uint16_t            ui16Vin     [the value of Vin]
  86:C:/Workspace/FW_Platform2_5/trunk/ProductModules/PM_EnergyMeterSw\PM_EnergyMeterSwTable.c **** \param  [in]      stTableSurfaceY_t*  psSurfaceY  [pointer to Y surface]
  87:C:/Workspace/FW_Platform2_5/trunk/ProductModules/PM_EnergyMeterSw\PM_EnergyMeterSwTable.c **** \param  [out]     uint16_t*           pui16Power  [pointer to the power calculated]
  88:C:/Workspace/FW_Platform2_5/trunk/ProductModules/PM_EnergyMeterSw\PM_EnergyMeterSwTable.c **** \param  [in,out]  none
  89:C:/Workspace/FW_Platform2_5/trunk/ProductModules/PM_EnergyMeterSw\PM_EnergyMeterSwTable.c **** 
  90:C:/Workspace/FW_Platform2_5/trunk/ProductModules/PM_EnergyMeterSw\PM_EnergyMeterSwTable.c **** \attention \b
  91:C:/Workspace/FW_Platform2_5/trunk/ProductModules/PM_EnergyMeterSw\PM_EnergyMeterSwTable.c **** 
  92:C:/Workspace/FW_Platform2_5/trunk/ProductModules/PM_EnergyMeterSw\PM_EnergyMeterSwTable.c **** \return   eEMS_Err - error code
  93:C:/Workspace/FW_Platform2_5/trunk/ProductModules/PM_EnergyMeterSw\PM_EnergyMeterSwTable.c **** 
  94:C:/Workspace/FW_Platform2_5/trunk/ProductModules/PM_EnergyMeterSw\PM_EnergyMeterSwTable.c **** \retval   [none]
  95:C:/Workspace/FW_Platform2_5/trunk/ProductModules/PM_EnergyMeterSw\PM_EnergyMeterSwTable.c **** 
  96:C:/Workspace/FW_Platform2_5/trunk/ProductModules/PM_EnergyMeterSw\PM_EnergyMeterSwTable.c **** \warning  [none]
  97:C:/Workspace/FW_Platform2_5/trunk/ProductModules/PM_EnergyMeterSw\PM_EnergyMeterSwTable.c **** 
  98:C:/Workspace/FW_Platform2_5/trunk/ProductModules/PM_EnergyMeterSw\PM_EnergyMeterSwTable.c **** \author   Intecs
  99:C:/Workspace/FW_Platform2_5/trunk/ProductModules/PM_EnergyMeterSw\PM_EnergyMeterSwTable.c **** \date     08-09-2011
 100:C:/Workspace/FW_Platform2_5/trunk/ProductModules/PM_EnergyMeterSw\PM_EnergyMeterSwTable.c **** \version  1.0.0
 101:C:/Workspace/FW_Platform2_5/trunk/ProductModules/PM_EnergyMeterSw\PM_EnergyMeterSwTable.c **** 
 102:C:/Workspace/FW_Platform2_5/trunk/ProductModules/PM_EnergyMeterSw\PM_EnergyMeterSwTable.c **** \bug    [none]
 103:C:/Workspace/FW_Platform2_5/trunk/ProductModules/PM_EnergyMeterSw\PM_EnergyMeterSwTable.c **** 
 104:C:/Workspace/FW_Platform2_5/trunk/ProductModules/PM_EnergyMeterSw\PM_EnergyMeterSwTable.c **** 
 105:C:/Workspace/FW_Platform2_5/trunk/ProductModules/PM_EnergyMeterSw\PM_EnergyMeterSwTable.c **** 
 106:C:/Workspace/FW_Platform2_5/trunk/ProductModules/PM_EnergyMeterSw\PM_EnergyMeterSwTable.c **** \note   \par \b Nota 1:
 107:C:/Workspace/FW_Platform2_5/trunk/ProductModules/PM_EnergyMeterSw\PM_EnergyMeterSwTable.c ****       documentation by ${Intecs}
 108:C:/Workspace/FW_Platform2_5/trunk/ProductModules/PM_EnergyMeterSw\PM_EnergyMeterSwTable.c **** */
 109:C:/Workspace/FW_Platform2_5/trunk/ProductModules/PM_EnergyMeterSw\PM_EnergyMeterSwTable.c **** STATIC eEMS_Err TableCalibDoppia (const stTable_t* psTable, uint16_t ui16Yx, uint16_t ui16Vin,
 110:C:/Workspace/FW_Platform2_5/trunk/ProductModules/PM_EnergyMeterSw\PM_EnergyMeterSwTable.c ****                                   const stTableSurfaceY_t* psSurfaceY, uint16_t* pui16Power);
 111:C:/Workspace/FW_Platform2_5/trunk/ProductModules/PM_EnergyMeterSw\PM_EnergyMeterSwTable.c **** 
 112:C:/Workspace/FW_Platform2_5/trunk/ProductModules/PM_EnergyMeterSw\PM_EnergyMeterSwTable.c **** 
 113:C:/Workspace/FW_Platform2_5/trunk/ProductModules/PM_EnergyMeterSw\PM_EnergyMeterSwTable.c **** /**
 114:C:/Workspace/FW_Platform2_5/trunk/ProductModules/PM_EnergyMeterSw\PM_EnergyMeterSwTable.c ****   This function Init/Reset a Y curve
 115:C:/Workspace/FW_Platform2_5/trunk/ProductModules/PM_EnergyMeterSw\PM_EnergyMeterSwTable.c **** 
 116:C:/Workspace/FW_Platform2_5/trunk/ProductModules/PM_EnergyMeterSw\PM_EnergyMeterSwTable.c **** \param  [in]      none
 117:C:/Workspace/FW_Platform2_5/trunk/ProductModules/PM_EnergyMeterSw\PM_EnergyMeterSwTable.c **** \param  [out]     stTableCurveY_t*  psCurveY    [pointer to Y curve]
 118:C:/Workspace/FW_Platform2_5/trunk/ProductModules/PM_EnergyMeterSw\PM_EnergyMeterSwTable.c **** \param  [in,out]  none
 119:C:/Workspace/FW_Platform2_5/trunk/ProductModules/PM_EnergyMeterSw\PM_EnergyMeterSwTable.c **** 
 120:C:/Workspace/FW_Platform2_5/trunk/ProductModules/PM_EnergyMeterSw\PM_EnergyMeterSwTable.c **** \attention \b
 121:C:/Workspace/FW_Platform2_5/trunk/ProductModules/PM_EnergyMeterSw\PM_EnergyMeterSwTable.c **** 
 122:C:/Workspace/FW_Platform2_5/trunk/ProductModules/PM_EnergyMeterSw\PM_EnergyMeterSwTable.c **** \return   eEMS_Err - error code
 123:C:/Workspace/FW_Platform2_5/trunk/ProductModules/PM_EnergyMeterSw\PM_EnergyMeterSwTable.c **** 
 124:C:/Workspace/FW_Platform2_5/trunk/ProductModules/PM_EnergyMeterSw\PM_EnergyMeterSwTable.c **** \retval   [none]
 125:C:/Workspace/FW_Platform2_5/trunk/ProductModules/PM_EnergyMeterSw\PM_EnergyMeterSwTable.c **** 
 126:C:/Workspace/FW_Platform2_5/trunk/ProductModules/PM_EnergyMeterSw\PM_EnergyMeterSwTable.c **** \warning  [none]
 127:C:/Workspace/FW_Platform2_5/trunk/ProductModules/PM_EnergyMeterSw\PM_EnergyMeterSwTable.c **** 
 128:C:/Workspace/FW_Platform2_5/trunk/ProductModules/PM_EnergyMeterSw\PM_EnergyMeterSwTable.c **** \author   Intecs
 129:C:/Workspace/FW_Platform2_5/trunk/ProductModules/PM_EnergyMeterSw\PM_EnergyMeterSwTable.c **** \date     08-09-2011
 130:C:/Workspace/FW_Platform2_5/trunk/ProductModules/PM_EnergyMeterSw\PM_EnergyMeterSwTable.c **** \version  1.0.0
 131:C:/Workspace/FW_Platform2_5/trunk/ProductModules/PM_EnergyMeterSw\PM_EnergyMeterSwTable.c **** 
 132:C:/Workspace/FW_Platform2_5/trunk/ProductModules/PM_EnergyMeterSw\PM_EnergyMeterSwTable.c **** \note   \par \b Nota 1:
 133:C:/Workspace/FW_Platform2_5/trunk/ProductModules/PM_EnergyMeterSw\PM_EnergyMeterSwTable.c ****       documentation by ${Intecs}
 134:C:/Workspace/FW_Platform2_5/trunk/ProductModules/PM_EnergyMeterSw\PM_EnergyMeterSwTable.c **** */
 135:C:/Workspace/FW_Platform2_5/trunk/ProductModules/PM_EnergyMeterSw\PM_EnergyMeterSwTable.c **** STATIC void CurveInit (stTableCurveY_t* psCurveY);
 136:C:/Workspace/FW_Platform2_5/trunk/ProductModules/PM_EnergyMeterSw\PM_EnergyMeterSwTable.c **** 
 137:C:/Workspace/FW_Platform2_5/trunk/ProductModules/PM_EnergyMeterSw\PM_EnergyMeterSwTable.c **** 
 138:C:/Workspace/FW_Platform2_5/trunk/ProductModules/PM_EnergyMeterSw\PM_EnergyMeterSwTable.c **** STATIC void LineInit (stCurveYLine_t* psYLine);
 139:C:/Workspace/FW_Platform2_5/trunk/ProductModules/PM_EnergyMeterSw\PM_EnergyMeterSwTable.c **** 
 140:C:/Workspace/FW_Platform2_5/trunk/ProductModules/PM_EnergyMeterSw\PM_EnergyMeterSwTable.c **** STATIC void PointInit (stCurveYPoint_t* psYPoint);
 141:C:/Workspace/FW_Platform2_5/trunk/ProductModules/PM_EnergyMeterSw\PM_EnergyMeterSwTable.c **** 
 142:C:/Workspace/FW_Platform2_5/trunk/ProductModules/PM_EnergyMeterSw\PM_EnergyMeterSwTable.c **** STATIC void PointSet (uint16_t ui16V, uint16_t ui16Pw,
 143:C:/Workspace/FW_Platform2_5/trunk/ProductModules/PM_EnergyMeterSw\PM_EnergyMeterSwTable.c ****                       stCurveYPoint_t* psYPoint);
 144:C:/Workspace/FW_Platform2_5/trunk/ProductModules/PM_EnergyMeterSw\PM_EnergyMeterSwTable.c **** 
 145:C:/Workspace/FW_Platform2_5/trunk/ProductModules/PM_EnergyMeterSw\PM_EnergyMeterSwTable.c **** 
 146:C:/Workspace/FW_Platform2_5/trunk/ProductModules/PM_EnergyMeterSw\PM_EnergyMeterSwTable.c **** STATIC eEMS_Err TableCalibDoppia_Punti (uint16_t ui16Yx,
 147:C:/Workspace/FW_Platform2_5/trunk/ProductModules/PM_EnergyMeterSw\PM_EnergyMeterSwTable.c ****                                         uint16_t ui16Y1, uint16_t ui16P1,
 148:C:/Workspace/FW_Platform2_5/trunk/ProductModules/PM_EnergyMeterSw\PM_EnergyMeterSwTable.c ****                                         uint16_t ui16Y2, uint16_t ui16P2,
 149:C:/Workspace/FW_Platform2_5/trunk/ProductModules/PM_EnergyMeterSw\PM_EnergyMeterSwTable.c ****                                         uint16_t* pui16Power);
 150:C:/Workspace/FW_Platform2_5/trunk/ProductModules/PM_EnergyMeterSw\PM_EnergyMeterSwTable.c **** 
 151:C:/Workspace/FW_Platform2_5/trunk/ProductModules/PM_EnergyMeterSw\PM_EnergyMeterSwTable.c **** STATIC eEMS_Err TableCalibDoppia_PuntoRetta (uint16_t ui16Yx, uint16_t ui16Vin,
 152:C:/Workspace/FW_Platform2_5/trunk/ProductModules/PM_EnergyMeterSw\PM_EnergyMeterSwTable.c ****                                              uint16_t ui16Y1, uint16_t ui16P1,
 153:C:/Workspace/FW_Platform2_5/trunk/ProductModules/PM_EnergyMeterSw\PM_EnergyMeterSwTable.c ****                                              uint16_t ui16Y2, const stCurveYLine_t* psY2Line,
 154:C:/Workspace/FW_Platform2_5/trunk/ProductModules/PM_EnergyMeterSw\PM_EnergyMeterSwTable.c ****                                              uint16_t* pui16Power);
 155:C:/Workspace/FW_Platform2_5/trunk/ProductModules/PM_EnergyMeterSw\PM_EnergyMeterSwTable.c **** 
 156:C:/Workspace/FW_Platform2_5/trunk/ProductModules/PM_EnergyMeterSw\PM_EnergyMeterSwTable.c **** STATIC eEMS_Err TableCalibDoppia_Rette (uint16_t ui16Yx, uint16_t ui16Vin,
 157:C:/Workspace/FW_Platform2_5/trunk/ProductModules/PM_EnergyMeterSw\PM_EnergyMeterSwTable.c ****                                         uint16_t ui16Y1, const stCurveYLine_t* psY1Line,
 158:C:/Workspace/FW_Platform2_5/trunk/ProductModules/PM_EnergyMeterSw\PM_EnergyMeterSwTable.c ****                                         uint16_t ui16Y2, const stCurveYLine_t* psY2Line,
 159:C:/Workspace/FW_Platform2_5/trunk/ProductModules/PM_EnergyMeterSw\PM_EnergyMeterSwTable.c ****                                         uint16_t* pui16Power);
 160:C:/Workspace/FW_Platform2_5/trunk/ProductModules/PM_EnergyMeterSw\PM_EnergyMeterSwTable.c **** 
 161:C:/Workspace/FW_Platform2_5/trunk/ProductModules/PM_EnergyMeterSw\PM_EnergyMeterSwTable.c **** STATIC eEMS_Err CalcoloPuntoSuRetta (uint16_t ui16X,
 162:C:/Workspace/FW_Platform2_5/trunk/ProductModules/PM_EnergyMeterSw\PM_EnergyMeterSwTable.c ****                                      uint16_t ui16X1, uint16_t ui16Z1,
 163:C:/Workspace/FW_Platform2_5/trunk/ProductModules/PM_EnergyMeterSw\PM_EnergyMeterSwTable.c ****                                      uint16_t ui16X2, uint16_t ui16Z2,
 164:C:/Workspace/FW_Platform2_5/trunk/ProductModules/PM_EnergyMeterSw\PM_EnergyMeterSwTable.c ****                                      uint16_t* pui16Z);
 165:C:/Workspace/FW_Platform2_5/trunk/ProductModules/PM_EnergyMeterSw\PM_EnergyMeterSwTable.c **** 
 166:C:/Workspace/FW_Platform2_5/trunk/ProductModules/PM_EnergyMeterSw\PM_EnergyMeterSwTable.c **** STATIC void CurveSet (uint16_t ui16Y, const uint8_t* pui8Curves, uint8_t ui8CurveNItems,
 167:C:/Workspace/FW_Platform2_5/trunk/ProductModules/PM_EnergyMeterSw\PM_EnergyMeterSwTable.c ****                       stTableCurveY_t* psCurveY);
 168:C:/Workspace/FW_Platform2_5/trunk/ProductModules/PM_EnergyMeterSw\PM_EnergyMeterSwTable.c **** 
 169:C:/Workspace/FW_Platform2_5/trunk/ProductModules/PM_EnergyMeterSw\PM_EnergyMeterSwTable.c **** 
 170:C:/Workspace/FW_Platform2_5/trunk/ProductModules/PM_EnergyMeterSw\PM_EnergyMeterSwTable.c **** STATIC eEMS_Err CurveYFindPoints (const stTable_t* psTable, const stTableCurveY_t* psCurveY,
 171:C:/Workspace/FW_Platform2_5/trunk/ProductModules/PM_EnergyMeterSw\PM_EnergyMeterSwTable.c ****                                   uint16_t ui16Vin, stCurveYLine_t* psYLine);
 172:C:/Workspace/FW_Platform2_5/trunk/ProductModules/PM_EnergyMeterSw\PM_EnergyMeterSwTable.c **** 
 173:C:/Workspace/FW_Platform2_5/trunk/ProductModules/PM_EnergyMeterSw\PM_EnergyMeterSwTable.c **** 
 174:C:/Workspace/FW_Platform2_5/trunk/ProductModules/PM_EnergyMeterSw\PM_EnergyMeterSwTable.c **** 
 175:C:/Workspace/FW_Platform2_5/trunk/ProductModules/PM_EnergyMeterSw\PM_EnergyMeterSwTable.c **** /* ****************** */
 176:C:/Workspace/FW_Platform2_5/trunk/ProductModules/PM_EnergyMeterSw\PM_EnergyMeterSwTable.c **** /* Exported functions */
 177:C:/Workspace/FW_Platform2_5/trunk/ProductModules/PM_EnergyMeterSw\PM_EnergyMeterSwTable.c **** /* ****************** */
 178:C:/Workspace/FW_Platform2_5/trunk/ProductModules/PM_EnergyMeterSw\PM_EnergyMeterSwTable.c **** 
 179:C:/Workspace/FW_Platform2_5/trunk/ProductModules/PM_EnergyMeterSw\PM_EnergyMeterSwTable.c **** 
 180:C:/Workspace/FW_Platform2_5/trunk/ProductModules/PM_EnergyMeterSw\PM_EnergyMeterSwTable.c **** /*---------------------------------------------
 181:C:/Workspace/FW_Platform2_5/trunk/ProductModules/PM_EnergyMeterSw\PM_EnergyMeterSwTable.c ****  This function init a Table
 182:C:/Workspace/FW_Platform2_5/trunk/ProductModules/PM_EnergyMeterSw\PM_EnergyMeterSwTable.c ****  ----------------------------------------------*/
 183:C:/Workspace/FW_Platform2_5/trunk/ProductModules/PM_EnergyMeterSw\PM_EnergyMeterSwTable.c **** eEMS_Err TableInit (const uint8_t* pui8Table, uint8_t ui8TableWLen, stTable_t* psTable)
 184:C:/Workspace/FW_Platform2_5/trunk/ProductModules/PM_EnergyMeterSw\PM_EnergyMeterSwTable.c **** {
  10                             		.loc 1 184 0
  11                             	.LVL0:
 185:C:/Workspace/FW_Platform2_5/trunk/ProductModules/PM_EnergyMeterSw\PM_EnergyMeterSwTable.c **** 
 186:C:/Workspace/FW_Platform2_5/trunk/ProductModules/PM_EnergyMeterSw\PM_EnergyMeterSwTable.c **** 
 187:C:/Workspace/FW_Platform2_5/trunk/ProductModules/PM_EnergyMeterSw\PM_EnergyMeterSwTable.c **** #if CHECK_TABLE
 188:C:/Workspace/FW_Platform2_5/trunk/ProductModules/PM_EnergyMeterSw\PM_EnergyMeterSwTable.c ****   if ((pui8Table == NULL) || (ui8TableWLen < EM_DATA_TABLE_HEADER_WLEN) || (psTable == NULL))
  12                             		.loc 1 188 0
  13 0000 61 01                   		cmp	#0, r1
  14 0002 20 31                   		beq	.L7
  15                             		.loc 1 188 0 is_stmt 0 discriminator 1
  16 0004 5B 2E                   		movu.B	r2, r14
  17 0006 61 0E                   		cmp	#0, r14
  18 0008 20 2B                   		beq	.L7
  19 000a 61 03                   		cmp	#0, r3
  20 000c 20 27                   		beq	.L7
 189:C:/Workspace/FW_Platform2_5/trunk/ProductModules/PM_EnergyMeterSw\PM_EnergyMeterSwTable.c ****   {
 190:C:/Workspace/FW_Platform2_5/trunk/ProductModules/PM_EnergyMeterSw\PM_EnergyMeterSwTable.c ****     return EMS_E_INVALID_VALUE;
 191:C:/Workspace/FW_Platform2_5/trunk/ProductModules/PM_EnergyMeterSw\PM_EnergyMeterSwTable.c ****   }
 192:C:/Workspace/FW_Platform2_5/trunk/ProductModules/PM_EnergyMeterSw\PM_EnergyMeterSwTable.c **** #endif
 193:C:/Workspace/FW_Platform2_5/trunk/ProductModules/PM_EnergyMeterSw\PM_EnergyMeterSwTable.c **** 
 194:C:/Workspace/FW_Platform2_5/trunk/ProductModules/PM_EnergyMeterSw\PM_EnergyMeterSwTable.c ****   /* parse N curves */
 195:C:/Workspace/FW_Platform2_5/trunk/ProductModules/PM_EnergyMeterSw\PM_EnergyMeterSwTable.c ****   psTable->ui8NCurves = pui8Table[EM_DATA_TABLE_NUM_TABLES_OFFSET];
  21                             		.loc 1 195 0 is_stmt 1
  22 000e 58 1E                   		movu.B	[r1], r14
  23 0010 C3 3E                   		mov.B	r14, [r3]
  24                             	.LVL1:
 196:C:/Workspace/FW_Platform2_5/trunk/ProductModules/PM_EnergyMeterSw\PM_EnergyMeterSwTable.c **** 
 197:C:/Workspace/FW_Platform2_5/trunk/ProductModules/PM_EnergyMeterSw\PM_EnergyMeterSwTable.c ****   ui8TableWLen -= EM_DATA_TABLE_HEADER_WLEN;
 198:C:/Workspace/FW_Platform2_5/trunk/ProductModules/PM_EnergyMeterSw\PM_EnergyMeterSwTable.c **** 
 199:C:/Workspace/FW_Platform2_5/trunk/ProductModules/PM_EnergyMeterSw\PM_EnergyMeterSwTable.c ****   /*
 200:C:/Workspace/FW_Platform2_5/trunk/ProductModules/PM_EnergyMeterSw\PM_EnergyMeterSwTable.c ****    * Imposta gli estremi delle curve
 201:C:/Workspace/FW_Platform2_5/trunk/ProductModules/PM_EnergyMeterSw\PM_EnergyMeterSwTable.c ****    */
 202:C:/Workspace/FW_Platform2_5/trunk/ProductModules/PM_EnergyMeterSw\PM_EnergyMeterSwTable.c **** 
 203:C:/Workspace/FW_Platform2_5/trunk/ProductModules/PM_EnergyMeterSw\PM_EnergyMeterSwTable.c ****   if ((psTable->ui8NCurves == 0) || (ui8TableWLen == 0))
  25                             		.loc 1 203 0
  26 0012 61 0E                   		cmp	#0, r14
  27 0014 20 0A                   		beq	.L3
 197:C:/Workspace/FW_Platform2_5/trunk/ProductModules/PM_EnergyMeterSw\PM_EnergyMeterSwTable.c ****   ui8TableWLen -= EM_DATA_TABLE_HEADER_WLEN;
  28                             		.loc 1 197 0 discriminator 1
  29 0016 60 12                   		sub	#1, r2
  30                             	.LVL2:
  31                             		.loc 1 203 0 discriminator 1
  32 0018 5B 2E                   		movu.B	r2, r14
  33 001a 61 0E                   		cmp	#0, r14
  34 001c 21 0D                   		bne	.L4
  35                             		.balign 2,3,4
  36                             	.L3:
 204:C:/Workspace/FW_Platform2_5/trunk/ProductModules/PM_EnergyMeterSw\PM_EnergyMeterSwTable.c ****   {
 205:C:/Workspace/FW_Platform2_5/trunk/ProductModules/PM_EnergyMeterSw\PM_EnergyMeterSwTable.c ****     psTable->ui8NCurves     = 0;
  37                             		.loc 1 205 0
  38 001e 3C 30 00                		mov.B	#0, [r3]
 206:C:/Workspace/FW_Platform2_5/trunk/ProductModules/PM_EnergyMeterSw\PM_EnergyMeterSwTable.c ****     /*lint -epp*/
 207:C:/Workspace/FW_Platform2_5/trunk/ProductModules/PM_EnergyMeterSw\PM_EnergyMeterSwTable.c ****     psTable->pui8Curves     = NULL;
  39                             		.loc 1 207 0
  40 0021 3E 31 00                		mov.L	#0, 4[r3]
 208:C:/Workspace/FW_Platform2_5/trunk/ProductModules/PM_EnergyMeterSw\PM_EnergyMeterSwTable.c ****     /*lint +epp*/
 209:C:/Workspace/FW_Platform2_5/trunk/ProductModules/PM_EnergyMeterSw\PM_EnergyMeterSwTable.c ****     psTable->ui8CurvesWLen  = 0;
  41                             		.loc 1 209 0
  42 0024 3C 38 00                		mov.B	#0, 8[r3]
  43 0027 2E 09                   		bra	.L11
  44                             	.L4:
 210:C:/Workspace/FW_Platform2_5/trunk/ProductModules/PM_EnergyMeterSw\PM_EnergyMeterSwTable.c ****   }
 211:C:/Workspace/FW_Platform2_5/trunk/ProductModules/PM_EnergyMeterSw\PM_EnergyMeterSwTable.c ****   else
 212:C:/Workspace/FW_Platform2_5/trunk/ProductModules/PM_EnergyMeterSw\PM_EnergyMeterSwTable.c ****   { /* (psTable->ui8NCurves > 0) && (ui8TableWLen > 0) */
 213:C:/Workspace/FW_Platform2_5/trunk/ProductModules/PM_EnergyMeterSw\PM_EnergyMeterSwTable.c ****     psTable->pui8Curves     = (uint8_t*)&pui8Table[2 * EM_DATA_TABLE_HEADER_WLEN];
  45                             		.loc 1 213 0
  46 0029 62 21                   		add	#2, r1
  47                             	.LVL3:
  48 002b A0 39                   		mov.L	r1, 4[r3]
 214:C:/Workspace/FW_Platform2_5/trunk/ProductModules/PM_EnergyMeterSw\PM_EnergyMeterSwTable.c ****     psTable->ui8CurvesWLen  = ui8TableWLen;
  49                             		.loc 1 214 0
  50 002d 82 32                   		mov.B	r2, 8[r3]
  51                             	.LVL4:
  52 002f 03                      		.balign 2,3,1
  53                             	.L11:
 215:C:/Workspace/FW_Platform2_5/trunk/ProductModules/PM_EnergyMeterSw\PM_EnergyMeterSwTable.c **** 
 216:C:/Workspace/FW_Platform2_5/trunk/ProductModules/PM_EnergyMeterSw\PM_EnergyMeterSwTable.c **** 
 217:C:/Workspace/FW_Platform2_5/trunk/ProductModules/PM_EnergyMeterSw\PM_EnergyMeterSwTable.c ****   }
 218:C:/Workspace/FW_Platform2_5/trunk/ProductModules/PM_EnergyMeterSw\PM_EnergyMeterSwTable.c **** 
 219:C:/Workspace/FW_Platform2_5/trunk/ProductModules/PM_EnergyMeterSw\PM_EnergyMeterSwTable.c ****   return EMS_E_OK;
  54                             		.loc 1 219 0
  55 0030 66 01                   		mov.L	#0, r1
  56 0032 02                      		rts
  57                             	.LVL5:
  58                             	.L7:
 190:C:/Workspace/FW_Platform2_5/trunk/ProductModules/PM_EnergyMeterSw\PM_EnergyMeterSwTable.c ****     return EMS_E_INVALID_VALUE;
  59                             		.loc 1 190 0
  60 0033 66 31                   		mov.L	#3, r1
  61                             	.LVL6:
 220:C:/Workspace/FW_Platform2_5/trunk/ProductModules/PM_EnergyMeterSw\PM_EnergyMeterSwTable.c **** }
  62                             		.loc 1 220 0
  63 0035 02                      		rts
  64                             	.LFE0:
  66                             		.section	.text.CurveInit,"ax",@progbits
  67                             		.global	_CurveInit
  69                             	_CurveInit:
  70                             	.LFB2:
 221:C:/Workspace/FW_Platform2_5/trunk/ProductModules/PM_EnergyMeterSw\PM_EnergyMeterSwTable.c **** 
 222:C:/Workspace/FW_Platform2_5/trunk/ProductModules/PM_EnergyMeterSw\PM_EnergyMeterSwTable.c **** 
 223:C:/Workspace/FW_Platform2_5/trunk/ProductModules/PM_EnergyMeterSw\PM_EnergyMeterSwTable.c **** /*---------------------------------------------
 224:C:/Workspace/FW_Platform2_5/trunk/ProductModules/PM_EnergyMeterSw\PM_EnergyMeterSwTable.c ****  This function calculates the power consumption
 225:C:/Workspace/FW_Platform2_5/trunk/ProductModules/PM_EnergyMeterSw\PM_EnergyMeterSwTable.c ****  with Tables.
 226:C:/Workspace/FW_Platform2_5/trunk/ProductModules/PM_EnergyMeterSw\PM_EnergyMeterSwTable.c ****  ----------------------------------------------*/
 227:C:/Workspace/FW_Platform2_5/trunk/ProductModules/PM_EnergyMeterSw\PM_EnergyMeterSwTable.c **** eEMS_Err TablePower (const stTable_t* psTable, uint16_t ui16Yx, uint16_t ui16Vin, uint16_t* pui16Po
 228:C:/Workspace/FW_Platform2_5/trunk/ProductModules/PM_EnergyMeterSw\PM_EnergyMeterSwTable.c **** {
 229:C:/Workspace/FW_Platform2_5/trunk/ProductModules/PM_EnergyMeterSw\PM_EnergyMeterSwTable.c ****   stTableSurfaceY_t sSurface;
 230:C:/Workspace/FW_Platform2_5/trunk/ProductModules/PM_EnergyMeterSw\PM_EnergyMeterSwTable.c ****   uint8_t ui8Result;
 231:C:/Workspace/FW_Platform2_5/trunk/ProductModules/PM_EnergyMeterSw\PM_EnergyMeterSwTable.c **** 
 232:C:/Workspace/FW_Platform2_5/trunk/ProductModules/PM_EnergyMeterSw\PM_EnergyMeterSwTable.c **** 
 233:C:/Workspace/FW_Platform2_5/trunk/ProductModules/PM_EnergyMeterSw\PM_EnergyMeterSwTable.c **** #if CHECK_TABLE
 234:C:/Workspace/FW_Platform2_5/trunk/ProductModules/PM_EnergyMeterSw\PM_EnergyMeterSwTable.c ****   if ((psTable == NULL) || (pui16Power == NULL))
 235:C:/Workspace/FW_Platform2_5/trunk/ProductModules/PM_EnergyMeterSw\PM_EnergyMeterSwTable.c ****   {
 236:C:/Workspace/FW_Platform2_5/trunk/ProductModules/PM_EnergyMeterSw\PM_EnergyMeterSwTable.c ****     return EMS_E_INVALID_VALUE;
 237:C:/Workspace/FW_Platform2_5/trunk/ProductModules/PM_EnergyMeterSw\PM_EnergyMeterSwTable.c ****   }
 238:C:/Workspace/FW_Platform2_5/trunk/ProductModules/PM_EnergyMeterSw\PM_EnergyMeterSwTable.c **** #endif
 239:C:/Workspace/FW_Platform2_5/trunk/ProductModules/PM_EnergyMeterSw\PM_EnergyMeterSwTable.c **** 
 240:C:/Workspace/FW_Platform2_5/trunk/ProductModules/PM_EnergyMeterSw\PM_EnergyMeterSwTable.c ****  #if TABLE_APPROX_VIN
 241:C:/Workspace/FW_Platform2_5/trunk/ProductModules/PM_EnergyMeterSw\PM_EnergyMeterSwTable.c ****   ui16Vin >>= 8;
 242:C:/Workspace/FW_Platform2_5/trunk/ProductModules/PM_EnergyMeterSw\PM_EnergyMeterSwTable.c ****  #endif
 243:C:/Workspace/FW_Platform2_5/trunk/ProductModules/PM_EnergyMeterSw\PM_EnergyMeterSwTable.c **** 
 244:C:/Workspace/FW_Platform2_5/trunk/ProductModules/PM_EnergyMeterSw\PM_EnergyMeterSwTable.c ****   /* init curves */
 245:C:/Workspace/FW_Platform2_5/trunk/ProductModules/PM_EnergyMeterSw\PM_EnergyMeterSwTable.c ****   CurveInit(&sSurface.sCurveY1);
 246:C:/Workspace/FW_Platform2_5/trunk/ProductModules/PM_EnergyMeterSw\PM_EnergyMeterSwTable.c ****   CurveInit(&sSurface.sCurveY2);
 247:C:/Workspace/FW_Platform2_5/trunk/ProductModules/PM_EnergyMeterSw\PM_EnergyMeterSwTable.c **** 
 248:C:/Workspace/FW_Platform2_5/trunk/ProductModules/PM_EnergyMeterSw\PM_EnergyMeterSwTable.c ****   /* cerca le curve che includono Yx */
 249:C:/Workspace/FW_Platform2_5/trunk/ProductModules/PM_EnergyMeterSw\PM_EnergyMeterSwTable.c ****   ui8Result = TableFindYCurves(psTable, ui16Yx, &sSurface);
 250:C:/Workspace/FW_Platform2_5/trunk/ProductModules/PM_EnergyMeterSw\PM_EnergyMeterSwTable.c ****   if ((ui8Result != EMS_E_OK) || (sSurface.sCurveY1.ui8Valid == 0))
 251:C:/Workspace/FW_Platform2_5/trunk/ProductModules/PM_EnergyMeterSw\PM_EnergyMeterSwTable.c ****   {
 252:C:/Workspace/FW_Platform2_5/trunk/ProductModules/PM_EnergyMeterSw\PM_EnergyMeterSwTable.c ****     return EMS_E_INVALID_VALUE;
 253:C:/Workspace/FW_Platform2_5/trunk/ProductModules/PM_EnergyMeterSw\PM_EnergyMeterSwTable.c ****   }
 254:C:/Workspace/FW_Platform2_5/trunk/ProductModules/PM_EnergyMeterSw\PM_EnergyMeterSwTable.c **** 
 255:C:/Workspace/FW_Platform2_5/trunk/ProductModules/PM_EnergyMeterSw\PM_EnergyMeterSwTable.c ****   /* curva Y1 valida */
 256:C:/Workspace/FW_Platform2_5/trunk/ProductModules/PM_EnergyMeterSw\PM_EnergyMeterSwTable.c **** 
 257:C:/Workspace/FW_Platform2_5/trunk/ProductModules/PM_EnergyMeterSw\PM_EnergyMeterSwTable.c ****   /* effettua le calibrazioni */
 258:C:/Workspace/FW_Platform2_5/trunk/ProductModules/PM_EnergyMeterSw\PM_EnergyMeterSwTable.c ****   if (sSurface.sCurveY2.ui8Valid == 0)
 259:C:/Workspace/FW_Platform2_5/trunk/ProductModules/PM_EnergyMeterSw\PM_EnergyMeterSwTable.c ****   { /* curva Y2 non valida: calibrazione singola con Vin e curva Y1 */
 260:C:/Workspace/FW_Platform2_5/trunk/ProductModules/PM_EnergyMeterSw\PM_EnergyMeterSwTable.c ****     return TableCalibSingola(psTable, ui16Vin, &sSurface.sCurveY1, pui16Power);
 261:C:/Workspace/FW_Platform2_5/trunk/ProductModules/PM_EnergyMeterSw\PM_EnergyMeterSwTable.c ****   }
 262:C:/Workspace/FW_Platform2_5/trunk/ProductModules/PM_EnergyMeterSw\PM_EnergyMeterSwTable.c ****   else
 263:C:/Workspace/FW_Platform2_5/trunk/ProductModules/PM_EnergyMeterSw\PM_EnergyMeterSwTable.c ****   { /* curva Y2 valida: calibrazione doppia con Vin, Yx e le curve Y1 e Y2 */
 264:C:/Workspace/FW_Platform2_5/trunk/ProductModules/PM_EnergyMeterSw\PM_EnergyMeterSwTable.c ****     return TableCalibDoppia(psTable, ui16Yx, ui16Vin, &sSurface, pui16Power);
 265:C:/Workspace/FW_Platform2_5/trunk/ProductModules/PM_EnergyMeterSw\PM_EnergyMeterSwTable.c ****   }
 266:C:/Workspace/FW_Platform2_5/trunk/ProductModules/PM_EnergyMeterSw\PM_EnergyMeterSwTable.c **** }
 267:C:/Workspace/FW_Platform2_5/trunk/ProductModules/PM_EnergyMeterSw\PM_EnergyMeterSwTable.c **** 
 268:C:/Workspace/FW_Platform2_5/trunk/ProductModules/PM_EnergyMeterSw\PM_EnergyMeterSwTable.c **** 
 269:C:/Workspace/FW_Platform2_5/trunk/ProductModules/PM_EnergyMeterSw\PM_EnergyMeterSwTable.c **** /* ****************** */
 270:C:/Workspace/FW_Platform2_5/trunk/ProductModules/PM_EnergyMeterSw\PM_EnergyMeterSwTable.c **** /* Static functions */
 271:C:/Workspace/FW_Platform2_5/trunk/ProductModules/PM_EnergyMeterSw\PM_EnergyMeterSwTable.c **** /* ****************** */
 272:C:/Workspace/FW_Platform2_5/trunk/ProductModules/PM_EnergyMeterSw\PM_EnergyMeterSwTable.c **** 
 273:C:/Workspace/FW_Platform2_5/trunk/ProductModules/PM_EnergyMeterSw\PM_EnergyMeterSwTable.c **** 
 274:C:/Workspace/FW_Platform2_5/trunk/ProductModules/PM_EnergyMeterSw\PM_EnergyMeterSwTable.c **** /*------------------------------------
 275:C:/Workspace/FW_Platform2_5/trunk/ProductModules/PM_EnergyMeterSw\PM_EnergyMeterSwTable.c ****  Init/Reset a Y curve.
 276:C:/Workspace/FW_Platform2_5/trunk/ProductModules/PM_EnergyMeterSw\PM_EnergyMeterSwTable.c ****  -------------------------------------*/
 277:C:/Workspace/FW_Platform2_5/trunk/ProductModules/PM_EnergyMeterSw\PM_EnergyMeterSwTable.c **** void CurveInit (stTableCurveY_t* psCurveY)
 278:C:/Workspace/FW_Platform2_5/trunk/ProductModules/PM_EnergyMeterSw\PM_EnergyMeterSwTable.c **** {
  71                             		.loc 1 278 0
  72                             	.LVL7:
 279:C:/Workspace/FW_Platform2_5/trunk/ProductModules/PM_EnergyMeterSw\PM_EnergyMeterSwTable.c **** #if CHECK_TABLE
 280:C:/Workspace/FW_Platform2_5/trunk/ProductModules/PM_EnergyMeterSw\PM_EnergyMeterSwTable.c ****   if (psCurveY == NULL)
  73                             		.loc 1 280 0
  74 0000 61 01                   		cmp	#0, r1
  75 0002 20 08                   		beq	.L12
 281:C:/Workspace/FW_Platform2_5/trunk/ProductModules/PM_EnergyMeterSw\PM_EnergyMeterSwTable.c ****   {
 282:C:/Workspace/FW_Platform2_5/trunk/ProductModules/PM_EnergyMeterSw\PM_EnergyMeterSwTable.c ****     return;
 283:C:/Workspace/FW_Platform2_5/trunk/ProductModules/PM_EnergyMeterSw\PM_EnergyMeterSwTable.c ****   }
 284:C:/Workspace/FW_Platform2_5/trunk/ProductModules/PM_EnergyMeterSw\PM_EnergyMeterSwTable.c **** #endif
 285:C:/Workspace/FW_Platform2_5/trunk/ProductModules/PM_EnergyMeterSw\PM_EnergyMeterSwTable.c **** 
 286:C:/Workspace/FW_Platform2_5/trunk/ProductModules/PM_EnergyMeterSw\PM_EnergyMeterSwTable.c ****   memset(psCurveY, 0, sizeof(stTableCurveY_t));
  76                             		.loc 1 286 0
  77 0004 66 C3                   		mov.L	#12, r3
  78 0006 66 02                   		mov	#0, r2
  79 0008 7F 88                   		sstr.b
  80                             	.LVL8:
  81                             	.L12:
  82 000a 02                      		rts
  83                             	.LFE2:
  85                             		.section	.text.CurveSet,"ax",@progbits
  86                             		.global	_CurveSet
  88                             	_CurveSet:
  89                             	.LFB3:
 287:C:/Workspace/FW_Platform2_5/trunk/ProductModules/PM_EnergyMeterSw\PM_EnergyMeterSwTable.c **** }
 288:C:/Workspace/FW_Platform2_5/trunk/ProductModules/PM_EnergyMeterSw\PM_EnergyMeterSwTable.c **** 
 289:C:/Workspace/FW_Platform2_5/trunk/ProductModules/PM_EnergyMeterSw\PM_EnergyMeterSwTable.c **** 
 290:C:/Workspace/FW_Platform2_5/trunk/ProductModules/PM_EnergyMeterSw\PM_EnergyMeterSwTable.c **** /**
 291:C:/Workspace/FW_Platform2_5/trunk/ProductModules/PM_EnergyMeterSw\PM_EnergyMeterSwTable.c ****   This function set a Y curve
 292:C:/Workspace/FW_Platform2_5/trunk/ProductModules/PM_EnergyMeterSw\PM_EnergyMeterSwTable.c **** 
 293:C:/Workspace/FW_Platform2_5/trunk/ProductModules/PM_EnergyMeterSw\PM_EnergyMeterSwTable.c **** \param  [in]      uint16_t          ui16Y         [value of Y]
 294:C:/Workspace/FW_Platform2_5/trunk/ProductModules/PM_EnergyMeterSw\PM_EnergyMeterSwTable.c **** \param  [in]      uint8_t*          pui8Curves    [pointer to current Y curve data area]
 295:C:/Workspace/FW_Platform2_5/trunk/ProductModules/PM_EnergyMeterSw\PM_EnergyMeterSwTable.c **** \param  [in]      uint8_t           ui8CurveBytes [size of current Y curve data area]
 296:C:/Workspace/FW_Platform2_5/trunk/ProductModules/PM_EnergyMeterSw\PM_EnergyMeterSwTable.c **** \param  [out]     stTableCurveY_t*  psCurveY      [pointer to Y curve]
 297:C:/Workspace/FW_Platform2_5/trunk/ProductModules/PM_EnergyMeterSw\PM_EnergyMeterSwTable.c **** \param  [in,out]  none
 298:C:/Workspace/FW_Platform2_5/trunk/ProductModules/PM_EnergyMeterSw\PM_EnergyMeterSwTable.c **** 
 299:C:/Workspace/FW_Platform2_5/trunk/ProductModules/PM_EnergyMeterSw\PM_EnergyMeterSwTable.c **** \attention \b
 300:C:/Workspace/FW_Platform2_5/trunk/ProductModules/PM_EnergyMeterSw\PM_EnergyMeterSwTable.c **** 
 301:C:/Workspace/FW_Platform2_5/trunk/ProductModules/PM_EnergyMeterSw\PM_EnergyMeterSwTable.c **** \return   eEMS_Err - error code
 302:C:/Workspace/FW_Platform2_5/trunk/ProductModules/PM_EnergyMeterSw\PM_EnergyMeterSwTable.c **** 
 303:C:/Workspace/FW_Platform2_5/trunk/ProductModules/PM_EnergyMeterSw\PM_EnergyMeterSwTable.c **** \retval   [none]
 304:C:/Workspace/FW_Platform2_5/trunk/ProductModules/PM_EnergyMeterSw\PM_EnergyMeterSwTable.c **** 
 305:C:/Workspace/FW_Platform2_5/trunk/ProductModules/PM_EnergyMeterSw\PM_EnergyMeterSwTable.c **** \warning  [none]
 306:C:/Workspace/FW_Platform2_5/trunk/ProductModules/PM_EnergyMeterSw\PM_EnergyMeterSwTable.c **** 
 307:C:/Workspace/FW_Platform2_5/trunk/ProductModules/PM_EnergyMeterSw\PM_EnergyMeterSwTable.c **** \author   Intecs
 308:C:/Workspace/FW_Platform2_5/trunk/ProductModules/PM_EnergyMeterSw\PM_EnergyMeterSwTable.c **** \date     08-09-2011
 309:C:/Workspace/FW_Platform2_5/trunk/ProductModules/PM_EnergyMeterSw\PM_EnergyMeterSwTable.c **** \version  1.0.0
 310:C:/Workspace/FW_Platform2_5/trunk/ProductModules/PM_EnergyMeterSw\PM_EnergyMeterSwTable.c **** 
 311:C:/Workspace/FW_Platform2_5/trunk/ProductModules/PM_EnergyMeterSw\PM_EnergyMeterSwTable.c **** \note   \par \b Nota 1:
 312:C:/Workspace/FW_Platform2_5/trunk/ProductModules/PM_EnergyMeterSw\PM_EnergyMeterSwTable.c ****       documentation by ${Intecs}
 313:C:/Workspace/FW_Platform2_5/trunk/ProductModules/PM_EnergyMeterSw\PM_EnergyMeterSwTable.c **** */
 314:C:/Workspace/FW_Platform2_5/trunk/ProductModules/PM_EnergyMeterSw\PM_EnergyMeterSwTable.c **** STATIC void CurveSet (uint16_t ui16Y, const uint8_t* pui8Curves, uint8_t ui8CurveNItems,
 315:C:/Workspace/FW_Platform2_5/trunk/ProductModules/PM_EnergyMeterSw\PM_EnergyMeterSwTable.c ****                       stTableCurveY_t* psCurveY)
 316:C:/Workspace/FW_Platform2_5/trunk/ProductModules/PM_EnergyMeterSw\PM_EnergyMeterSwTable.c **** {
  90                             		.loc 1 316 0
  91                             	.LVL9:
 317:C:/Workspace/FW_Platform2_5/trunk/ProductModules/PM_EnergyMeterSw\PM_EnergyMeterSwTable.c **** #if CHECK_TABLE
 318:C:/Workspace/FW_Platform2_5/trunk/ProductModules/PM_EnergyMeterSw\PM_EnergyMeterSwTable.c ****   if ((psCurveY == NULL) || (pui8Curves == NULL))
  92                             		.loc 1 318 0
  93 0000 61 04                   		cmp	#0, r4
  94 0002 20 18                   		beq	.L17
  95                             		.loc 1 318 0 is_stmt 0 discriminator 1
  96 0004 61 02                   		cmp	#0, r2
  97 0006 20 14                   		beq	.L17
 319:C:/Workspace/FW_Platform2_5/trunk/ProductModules/PM_EnergyMeterSw\PM_EnergyMeterSwTable.c ****   {
 320:C:/Workspace/FW_Platform2_5/trunk/ProductModules/PM_EnergyMeterSw\PM_EnergyMeterSwTable.c ****     return;
 321:C:/Workspace/FW_Platform2_5/trunk/ProductModules/PM_EnergyMeterSw\PM_EnergyMeterSwTable.c ****   }
 322:C:/Workspace/FW_Platform2_5/trunk/ProductModules/PM_EnergyMeterSw\PM_EnergyMeterSwTable.c **** #endif
 323:C:/Workspace/FW_Platform2_5/trunk/ProductModules/PM_EnergyMeterSw\PM_EnergyMeterSwTable.c **** 
 324:C:/Workspace/FW_Platform2_5/trunk/ProductModules/PM_EnergyMeterSw\PM_EnergyMeterSwTable.c ****   psCurveY->ui8Valid   = 1;
 325:C:/Workspace/FW_Platform2_5/trunk/ProductModules/PM_EnergyMeterSw\PM_EnergyMeterSwTable.c ****   psCurveY->ui16Yvalue = ui16Y;
 326:C:/Workspace/FW_Platform2_5/trunk/ProductModules/PM_EnergyMeterSw\PM_EnergyMeterSwTable.c ****   psCurveY->ui8NItems  = ui8CurveNItems;
  98                             		.loc 1 326 0 is_stmt 1
  99 0008 81 43                   		mov.B	r3, 4[r4]
 327:C:/Workspace/FW_Platform2_5/trunk/ProductModules/PM_EnergyMeterSw\PM_EnergyMeterSwTable.c ****   /*lint -epp*/
 328:C:/Workspace/FW_Platform2_5/trunk/ProductModules/PM_EnergyMeterSw\PM_EnergyMeterSwTable.c ****   psCurveY->pui8Item   = ((psCurveY->ui8NItems > 0) ? ((uint8_t*)pui8Curves + 2) : NULL);
 100                             		.loc 1 328 0
 101 000a 5B 33                   		movu.B	r3, r3
 102                             	.LVL10:
 324:C:/Workspace/FW_Platform2_5/trunk/ProductModules/PM_EnergyMeterSw\PM_EnergyMeterSwTable.c ****   psCurveY->ui8Valid   = 1;
 103                             		.loc 1 324 0
 104 000c 3C 40 01                		mov.B	#1, [r4]
 325:C:/Workspace/FW_Platform2_5/trunk/ProductModules/PM_EnergyMeterSw\PM_EnergyMeterSwTable.c ****   psCurveY->ui16Yvalue = ui16Y;
 105                             		.loc 1 325 0
 106 000f 90 49                   		mov.W	r1, 2[r4]
 107                             		.loc 1 328 0
 108 0011 61 03                   		cmp	#0, r3
 109 0013 20 05                   		beq	.L19
 110                             		.loc 1 328 0 is_stmt 0 discriminator 1
 111 0015 71 23 02                		add	#2, r2, r3
 112                             		.balign 2,3,5
 113                             	.L19:
 114                             		.loc 1 328 0 discriminator 3
 115 0018 A0 C3                   		mov.L	r3, 8[r4]
 116                             	.LVL11:
 117                             	.L17:
 118 001a 02                      		rts
 119                             	.LFE3:
 121 001b 03                      		.section	.text.TableFindYCurves,"ax",@progbits
 122                             		.global	_TableFindYCurves
 124                             	_TableFindYCurves:
 125                             	.LFB4:
 329:C:/Workspace/FW_Platform2_5/trunk/ProductModules/PM_EnergyMeterSw\PM_EnergyMeterSwTable.c ****   /*lint -epp*/
 330:C:/Workspace/FW_Platform2_5/trunk/ProductModules/PM_EnergyMeterSw\PM_EnergyMeterSwTable.c **** }
 331:C:/Workspace/FW_Platform2_5/trunk/ProductModules/PM_EnergyMeterSw\PM_EnergyMeterSwTable.c **** 
 332:C:/Workspace/FW_Platform2_5/trunk/ProductModules/PM_EnergyMeterSw\PM_EnergyMeterSwTable.c **** 
 333:C:/Workspace/FW_Platform2_5/trunk/ProductModules/PM_EnergyMeterSw\PM_EnergyMeterSwTable.c **** /*--------------------------------------
 334:C:/Workspace/FW_Platform2_5/trunk/ProductModules/PM_EnergyMeterSw\PM_EnergyMeterSwTable.c ****  Find, in the table, the Y (Temperature)
 335:C:/Workspace/FW_Platform2_5/trunk/ProductModules/PM_EnergyMeterSw\PM_EnergyMeterSwTable.c ****  curves including the Yx value.
 336:C:/Workspace/FW_Platform2_5/trunk/ProductModules/PM_EnergyMeterSw\PM_EnergyMeterSwTable.c ****  -------------------------------------*/
 337:C:/Workspace/FW_Platform2_5/trunk/ProductModules/PM_EnergyMeterSw\PM_EnergyMeterSwTable.c **** eEMS_Err TableFindYCurves (const stTable_t* psTable, uint16_t ui16Yx, stTableSurfaceY_t* psSurfaceY
 338:C:/Workspace/FW_Platform2_5/trunk/ProductModules/PM_EnergyMeterSw\PM_EnergyMeterSwTable.c **** {
 126                             		.loc 1 338 0 is_stmt 1
 127                             	.LVL12:
 128 0000 6E 6D                   		pushm	r6-r13
 129                             	.LCFI0:
 130 0002 60 40                   		sub	#4, r0
 131                             	.LCFI1:
 339:C:/Workspace/FW_Platform2_5/trunk/ProductModules/PM_EnergyMeterSw\PM_EnergyMeterSwTable.c ****   uint16_t ui16CurvesLen;     /* dimensione (byte) corrente dell'area dati contenente le curve */
 340:C:/Workspace/FW_Platform2_5/trunk/ProductModules/PM_EnergyMeterSw\PM_EnergyMeterSwTable.c ****   uint8_t ui8CurveIdx;        /* indice della curva corrente */
 341:C:/Workspace/FW_Platform2_5/trunk/ProductModules/PM_EnergyMeterSw\PM_EnergyMeterSwTable.c ****   const uint8_t* pui8Curves;  /* puntatore all'area dati della curva corrente */
 342:C:/Workspace/FW_Platform2_5/trunk/ProductModules/PM_EnergyMeterSw\PM_EnergyMeterSwTable.c ****   uint8_t ui8CurveNItems;     /* numero di elementi nella curva corrente */
 343:C:/Workspace/FW_Platform2_5/trunk/ProductModules/PM_EnergyMeterSw\PM_EnergyMeterSwTable.c ****   uint8_t ui8CurveBytes;      /* dimensione dell'area dati contenente gli elementi Y e (P,V)i della
 344:C:/Workspace/FW_Platform2_5/trunk/ProductModules/PM_EnergyMeterSw\PM_EnergyMeterSwTable.c ****   uint16_t ui16CurrentY;      /* valore di Y per la curva corrente "Curva in funzione del dato dk" 
 345:C:/Workspace/FW_Platform2_5/trunk/ProductModules/PM_EnergyMeterSw\PM_EnergyMeterSwTable.c **** 
 346:C:/Workspace/FW_Platform2_5/trunk/ProductModules/PM_EnergyMeterSw\PM_EnergyMeterSwTable.c **** #if CHECK_TABLE
 347:C:/Workspace/FW_Platform2_5/trunk/ProductModules/PM_EnergyMeterSw\PM_EnergyMeterSwTable.c ****   if ((psTable == NULL) || (psSurfaceY == NULL))
 132                             		.loc 1 347 0
 133 0004 71 1B 00                		add	#0, r1, r11
 134 0007 21 08                   		bne	.L28
 135                             	.LVL13:
 136 0009 03                      		.balign 2,3,1
 137                             	.L30:
 348:C:/Workspace/FW_Platform2_5/trunk/ProductModules/PM_EnergyMeterSw\PM_EnergyMeterSwTable.c ****   {
 349:C:/Workspace/FW_Platform2_5/trunk/ProductModules/PM_EnergyMeterSw\PM_EnergyMeterSwTable.c ****     return EMS_E_INVALID_VALUE;
 138                             		.loc 1 349 0
 139 000a 66 31                   		mov.L	#3, r1
 140 000c 38 84 00                		bra	.L29
 141                             	.LVL14:
 142                             	.L28:
 347:C:/Workspace/FW_Platform2_5/trunk/ProductModules/PM_EnergyMeterSw\PM_EnergyMeterSwTable.c ****   if ((psTable == NULL) || (psSurfaceY == NULL))
 143                             		.loc 1 347 0 discriminator 1
 144 000f 71 37 00                		add	#0, r3, r7
 145 0012 20 F8                   		beq	.L30
 350:C:/Workspace/FW_Platform2_5/trunk/ProductModules/PM_EnergyMeterSw\PM_EnergyMeterSwTable.c ****   }
 351:C:/Workspace/FW_Platform2_5/trunk/ProductModules/PM_EnergyMeterSw\PM_EnergyMeterSwTable.c **** #endif
 352:C:/Workspace/FW_Platform2_5/trunk/ProductModules/PM_EnergyMeterSw\PM_EnergyMeterSwTable.c **** 
 353:C:/Workspace/FW_Platform2_5/trunk/ProductModules/PM_EnergyMeterSw\PM_EnergyMeterSwTable.c ****   /* Recupera il puntatore alle curve */
 354:C:/Workspace/FW_Platform2_5/trunk/ProductModules/PM_EnergyMeterSw\PM_EnergyMeterSwTable.c ****   pui8Curves = psTable->pui8Curves;
 146                             		.loc 1 354 0
 147 0014 ED BE 01                		mov.L	4[r11], r14
 148                             	.LVL15:
 355:C:/Workspace/FW_Platform2_5/trunk/ProductModules/PM_EnergyMeterSw\PM_EnergyMeterSwTable.c **** #if CHECK_TABLE
 356:C:/Workspace/FW_Platform2_5/trunk/ProductModules/PM_EnergyMeterSw\PM_EnergyMeterSwTable.c ****   if (pui8Curves == NULL)
 149                             		.loc 1 356 0
 150 0017 61 0E                   		cmp	#0, r14
 151 0019 20 F1                   		beq	.L30
 357:C:/Workspace/FW_Platform2_5/trunk/ProductModules/PM_EnergyMeterSw\PM_EnergyMeterSwTable.c ****   {
 358:C:/Workspace/FW_Platform2_5/trunk/ProductModules/PM_EnergyMeterSw\PM_EnergyMeterSwTable.c ****     return EMS_E_INVALID_VALUE;
 359:C:/Workspace/FW_Platform2_5/trunk/ProductModules/PM_EnergyMeterSw\PM_EnergyMeterSwTable.c ****   }
 360:C:/Workspace/FW_Platform2_5/trunk/ProductModules/PM_EnergyMeterSw\PM_EnergyMeterSwTable.c **** #endif
 361:C:/Workspace/FW_Platform2_5/trunk/ProductModules/PM_EnergyMeterSw\PM_EnergyMeterSwTable.c **** 
 362:C:/Workspace/FW_Platform2_5/trunk/ProductModules/PM_EnergyMeterSw\PM_EnergyMeterSwTable.c ****   /* Recupera la dimensione totale dell'area contenente le curve */
 363:C:/Workspace/FW_Platform2_5/trunk/ProductModules/PM_EnergyMeterSw\PM_EnergyMeterSwTable.c ****   ui16CurvesLen = 2 * ((uint16_t)(psTable->ui8CurvesWLen));
 152                             		.loc 1 363 0
 153 001b 59 B5 08                		movu.B	8[r11], r5
 154 001e DF 28                   		mov.W	r2, r8
 155 0020 4B 55                   		add	r5, r5
 156                             	.LVL16:
 364:C:/Workspace/FW_Platform2_5/trunk/ProductModules/PM_EnergyMeterSw\PM_EnergyMeterSwTable.c **** 
 365:C:/Workspace/FW_Platform2_5/trunk/ProductModules/PM_EnergyMeterSw\PM_EnergyMeterSwTable.c ****   /* ciclo su tutte le curve: si suppone che le curve siano memorizzate per valori di Y crescenti. 
 366:C:/Workspace/FW_Platform2_5/trunk/ProductModules/PM_EnergyMeterSw\PM_EnergyMeterSwTable.c ****   for (ui8CurveIdx = 0; ((ui16CurvesLen > 0) && (ui8CurveIdx < psTable->ui8NCurves)); ++ui8CurveIdx
 157                             		.loc 1 366 0
 158 0022 66 0D                   		mov	#0, r13
 367:C:/Workspace/FW_Platform2_5/trunk/ProductModules/PM_EnergyMeterSw\PM_EnergyMeterSwTable.c ****   {
 368:C:/Workspace/FW_Platform2_5/trunk/ProductModules/PM_EnergyMeterSw\PM_EnergyMeterSwTable.c ****     /* recupera il numero di elementi della curva corrente "N = num elementi tabella dk". */
 369:C:/Workspace/FW_Platform2_5/trunk/ProductModules/PM_EnergyMeterSw\PM_EnergyMeterSwTable.c ****     ui8CurveNItems = pui8Curves[EM_DATA_TABLE_NUM_ITEMS_OFFSET];
 370:C:/Workspace/FW_Platform2_5/trunk/ProductModules/PM_EnergyMeterSw\PM_EnergyMeterSwTable.c **** 
 371:C:/Workspace/FW_Platform2_5/trunk/ProductModules/PM_EnergyMeterSw\PM_EnergyMeterSwTable.c ****     /* pui8Curves punta a Y */
 372:C:/Workspace/FW_Platform2_5/trunk/ProductModules/PM_EnergyMeterSw\PM_EnergyMeterSwTable.c ****     pui8Curves += EM_DATA_TABLE_CURVE_MIN_LEN;
 373:C:/Workspace/FW_Platform2_5/trunk/ProductModules/PM_EnergyMeterSw\PM_EnergyMeterSwTable.c **** 
 374:C:/Workspace/FW_Platform2_5/trunk/ProductModules/PM_EnergyMeterSw\PM_EnergyMeterSwTable.c ****     ui16CurvesLen -= EM_DATA_TABLE_CURVE_MIN_LEN;
 375:C:/Workspace/FW_Platform2_5/trunk/ProductModules/PM_EnergyMeterSw\PM_EnergyMeterSwTable.c **** 
 376:C:/Workspace/FW_Platform2_5/trunk/ProductModules/PM_EnergyMeterSw\PM_EnergyMeterSwTable.c ****     /* calcola la dimensione (bytes) dell'area contenente gli elementi Y e (P,V)i della curva.
 377:C:/Workspace/FW_Platform2_5/trunk/ProductModules/PM_EnergyMeterSw\PM_EnergyMeterSwTable.c ****      * Una curva  composta da 1 word per il valore di Y, N word per i valori di potenza,
 378:C:/Workspace/FW_Platform2_5/trunk/ProductModules/PM_EnergyMeterSw\PM_EnergyMeterSwTable.c ****      * N byte per i valori di tensione (+ un evetuale byte unused se N  dispari). */
 379:C:/Workspace/FW_Platform2_5/trunk/ProductModules/PM_EnergyMeterSw\PM_EnergyMeterSwTable.c ****     ui8CurveBytes = 2 + (3 * ui8CurveNItems) + (ui8CurveNItems % 2);
 380:C:/Workspace/FW_Platform2_5/trunk/ProductModules/PM_EnergyMeterSw\PM_EnergyMeterSwTable.c **** 
 381:C:/Workspace/FW_Platform2_5/trunk/ProductModules/PM_EnergyMeterSw\PM_EnergyMeterSwTable.c **** #if CHECK_TABLE
 382:C:/Workspace/FW_Platform2_5/trunk/ProductModules/PM_EnergyMeterSw\PM_EnergyMeterSwTable.c ****     /*
 383:C:/Workspace/FW_Platform2_5/trunk/ProductModules/PM_EnergyMeterSw\PM_EnergyMeterSwTable.c ****      * Verifica la dimensione dell'area contenente la curva corrente:
 384:C:/Workspace/FW_Platform2_5/trunk/ProductModules/PM_EnergyMeterSw\PM_EnergyMeterSwTable.c ****      * - non deve essere superiore alla dimensione corrente dell'area contenente le curve
 385:C:/Workspace/FW_Platform2_5/trunk/ProductModules/PM_EnergyMeterSw\PM_EnergyMeterSwTable.c ****      * - deve essere multiplo di 2
 386:C:/Workspace/FW_Platform2_5/trunk/ProductModules/PM_EnergyMeterSw\PM_EnergyMeterSwTable.c ****      */
 387:C:/Workspace/FW_Platform2_5/trunk/ProductModules/PM_EnergyMeterSw\PM_EnergyMeterSwTable.c ****     if ((ui8CurveBytes > ui16CurvesLen) || ((ui8CurveBytes % 2) != 0))
 388:C:/Workspace/FW_Platform2_5/trunk/ProductModules/PM_EnergyMeterSw\PM_EnergyMeterSwTable.c ****     {
 389:C:/Workspace/FW_Platform2_5/trunk/ProductModules/PM_EnergyMeterSw\PM_EnergyMeterSwTable.c ****       return EMS_E_INVALID_VALUE;
 390:C:/Workspace/FW_Platform2_5/trunk/ProductModules/PM_EnergyMeterSw\PM_EnergyMeterSwTable.c ****     }
 391:C:/Workspace/FW_Platform2_5/trunk/ProductModules/PM_EnergyMeterSw\PM_EnergyMeterSwTable.c **** #endif
 392:C:/Workspace/FW_Platform2_5/trunk/ProductModules/PM_EnergyMeterSw\PM_EnergyMeterSwTable.c **** 
 393:C:/Workspace/FW_Platform2_5/trunk/ProductModules/PM_EnergyMeterSw\PM_EnergyMeterSwTable.c ****     /* Recupera il valore di Y per la curva corrente */
 394:C:/Workspace/FW_Platform2_5/trunk/ProductModules/PM_EnergyMeterSw\PM_EnergyMeterSwTable.c ****     ui16CurrentY = *((uint16_t *)pui8Curves);
 395:C:/Workspace/FW_Platform2_5/trunk/ProductModules/PM_EnergyMeterSw\PM_EnergyMeterSwTable.c **** 
 396:C:/Workspace/FW_Platform2_5/trunk/ProductModules/PM_EnergyMeterSw\PM_EnergyMeterSwTable.c ****     /*
 397:C:/Workspace/FW_Platform2_5/trunk/ProductModules/PM_EnergyMeterSw\PM_EnergyMeterSwTable.c ****      * Confronta Yx con il valore di Y della curva corrente
 398:C:/Workspace/FW_Platform2_5/trunk/ProductModules/PM_EnergyMeterSw\PM_EnergyMeterSwTable.c ****      */
 399:C:/Workspace/FW_Platform2_5/trunk/ProductModules/PM_EnergyMeterSw\PM_EnergyMeterSwTable.c **** 
 400:C:/Workspace/FW_Platform2_5/trunk/ProductModules/PM_EnergyMeterSw\PM_EnergyMeterSwTable.c ****     if (ui16Yx == ui16CurrentY)
 159                             		.loc 1 400 0
 160 0024 5F 26                   		movu.W	r2, r6
 366:C:/Workspace/FW_Platform2_5/trunk/ProductModules/PM_EnergyMeterSw\PM_EnergyMeterSwTable.c ****   for (ui8CurveIdx = 0; ((ui16CurvesLen > 0) && (ui8CurveIdx < psTable->ui8NCurves)); ++ui8CurveIdx
 161                             		.loc 1 366 0
 162 0026 2E 5C                   		bra	.L31
 163                             	.LVL17:
 164                             	.L35:
 369:C:/Workspace/FW_Platform2_5/trunk/ProductModules/PM_EnergyMeterSw\PM_EnergyMeterSwTable.c ****     ui8CurveNItems = pui8Curves[EM_DATA_TABLE_NUM_ITEMS_OFFSET];
 165                             		.loc 1 369 0
 166 0028 CC E3                   		mov.B	[r14], r3
 167                             	.LVL18:
 374:C:/Workspace/FW_Platform2_5/trunk/ProductModules/PM_EnergyMeterSw\PM_EnergyMeterSwTable.c ****     ui16CurvesLen -= EM_DATA_TABLE_CURVE_MIN_LEN;
 168                             		.loc 1 374 0
 169 002a 60 25                   		sub	#2, r5
 170                             	.LVL19:
 379:C:/Workspace/FW_Platform2_5/trunk/ProductModules/PM_EnergyMeterSw\PM_EnergyMeterSwTable.c ****     ui8CurveBytes = 2 + (3 * ui8CurveNItems) + (ui8CurveNItems % 2);
 171                             		.loc 1 379 0
 172 002c EF 31                   		mov.L	r3, r1
 173                             	.LVL20:
 174 002e EF 3C                   		mov.L	r3, r12
 175 0030 64 1C                   		and	#1, r12
 176 0032 63 31                   		mul	#3, r1
 177 0034 4B 1C                   		add	r1, r12
 178 0036 62 2C                   		add	#2, r12
 372:C:/Workspace/FW_Platform2_5/trunk/ProductModules/PM_EnergyMeterSw\PM_EnergyMeterSwTable.c ****     pui8Curves += EM_DATA_TABLE_CURVE_MIN_LEN;
 179                             		.loc 1 372 0
 180 0038 71 EA 02                		add	#2, r14, r10
 181                             	.LVL21:
 387:C:/Workspace/FW_Platform2_5/trunk/ProductModules/PM_EnergyMeterSw\PM_EnergyMeterSwTable.c ****     if ((ui8CurveBytes > ui16CurvesLen) || ((ui8CurveBytes % 2) != 0))
 182                             		.loc 1 387 0
 183 003b 5B C9                   		movu.B	r12, r9
 184 003d 5F 54                   		movu.W	r5, r4
 185 003f 47 49                   		cmp	r4, r9
 186 0041 24 C9                   		bgtu	.L30
 387:C:/Workspace/FW_Platform2_5/trunk/ProductModules/PM_EnergyMeterSw\PM_EnergyMeterSwTable.c ****     if ((ui8CurveBytes > ui16CurvesLen) || ((ui8CurveBytes % 2) != 0))
 187                             		.loc 1 387 0 is_stmt 0 discriminator 1
 188 0043 64 1C                   		and	#1, r12
 189                             	.LVL22:
 190 0045 21 C5                   		bne	.L30
 394:C:/Workspace/FW_Platform2_5/trunk/ProductModules/PM_EnergyMeterSw\PM_EnergyMeterSwTable.c ****     ui16CurrentY = *((uint16_t *)pui8Curves);
 191                             		.loc 1 394 0 is_stmt 1
 192 0047 DD E1 01                		mov.W	2[r14], r1
 193                             	.LVL23:
 194                             		.loc 1 400 0
 195 004a 5F 1E                   		movu.W	r1, r14
 196 004c 47 E6                   		cmp	r14, r6
 197 004e 21 08                   		bne	.L32
 401:C:/Workspace/FW_Platform2_5/trunk/ProductModules/PM_EnergyMeterSw\PM_EnergyMeterSwTable.c ****     {
 402:C:/Workspace/FW_Platform2_5/trunk/ProductModules/PM_EnergyMeterSw\PM_EnergyMeterSwTable.c ****       /* Trovato il valore esatto: imposta la curva Y1 ed esci */
 403:C:/Workspace/FW_Platform2_5/trunk/ProductModules/PM_EnergyMeterSw\PM_EnergyMeterSwTable.c ****       CurveSet(ui16Yx, pui8Curves, ui8CurveNItems, &(psSurfaceY->sCurveY1));
 198                             		.loc 1 403 0
 199 0050 DF 81                   		mov.W	r8, r1
 200                             	.LVL24:
 201 0052 EF A2                   		mov.L	r10, r2
 202 0054 2E 16                   		bra	.L34
 203                             	.LVL25:
 204                             	.L32:
 404:C:/Workspace/FW_Platform2_5/trunk/ProductModules/PM_EnergyMeterSw\PM_EnergyMeterSwTable.c **** 
 405:C:/Workspace/FW_Platform2_5/trunk/ProductModules/PM_EnergyMeterSw\PM_EnergyMeterSwTable.c ****       break;
 406:C:/Workspace/FW_Platform2_5/trunk/ProductModules/PM_EnergyMeterSw\PM_EnergyMeterSwTable.c ****     }
 407:C:/Workspace/FW_Platform2_5/trunk/ProductModules/PM_EnergyMeterSw\PM_EnergyMeterSwTable.c **** 
 408:C:/Workspace/FW_Platform2_5/trunk/ProductModules/PM_EnergyMeterSw\PM_EnergyMeterSwTable.c ****     if (ui16Yx < ui16CurrentY)
 205                             		.loc 1 408 0
 206 0056 22 18                   		bgeu	.L33
 409:C:/Workspace/FW_Platform2_5/trunk/ProductModules/PM_EnergyMeterSw\PM_EnergyMeterSwTable.c ****     {
 410:C:/Workspace/FW_Platform2_5/trunk/ProductModules/PM_EnergyMeterSw\PM_EnergyMeterSwTable.c ****       /* Il valore Yx  inferiore al valore di Y della curva corrente: fa le opportune impostazio
 411:C:/Workspace/FW_Platform2_5/trunk/ProductModules/PM_EnergyMeterSw\PM_EnergyMeterSwTable.c **** 
 412:C:/Workspace/FW_Platform2_5/trunk/ProductModules/PM_EnergyMeterSw\PM_EnergyMeterSwTable.c ****       if (psSurfaceY->sCurveY1.ui8Valid == 1)
 207                             		.loc 1 412 0
 208 0058 58 7B                   		movu.B	[r7], r11
 209                             	.LVL26:
 413:C:/Workspace/FW_Platform2_5/trunk/ProductModules/PM_EnergyMeterSw\PM_EnergyMeterSwTable.c ****       {
 414:C:/Workspace/FW_Platform2_5/trunk/ProductModules/PM_EnergyMeterSw\PM_EnergyMeterSwTable.c ****         /* E' gia' stata impostata la curva Y1: imposta la curva Y2 */
 415:C:/Workspace/FW_Platform2_5/trunk/ProductModules/PM_EnergyMeterSw\PM_EnergyMeterSwTable.c ****         CurveSet(ui16CurrentY, pui8Curves, ui8CurveNItems, &(psSurfaceY->sCurveY2));
 210                             		.loc 1 415 0
 211 005a EF A2                   		mov.L	r10, r2
 412:C:/Workspace/FW_Platform2_5/trunk/ProductModules/PM_EnergyMeterSw\PM_EnergyMeterSwTable.c ****       if (psSurfaceY->sCurveY1.ui8Valid == 1)
 212                             		.loc 1 412 0
 213 005c 61 1B                   		cmp	#1, r11
 214 005e 21 0C                   		bne	.L34
 215                             	.LVL27:
 216                             		.loc 1 415 0
 217 0060 71 74 0C                		add	#12, r7, r4
 218                             	.LVL28:
 219 0063 03                      		.balign 2,3,3
 220                             	.L45:
 221 0064 05 00 00 00             		bsr	_CurveSet
 222                             	.LVL29:
 223 0068 2E 26                   		bra	.L44
 224                             	.LVL30:
 225                             	.L34:
 416:C:/Workspace/FW_Platform2_5/trunk/ProductModules/PM_EnergyMeterSw\PM_EnergyMeterSwTable.c ****       }
 417:C:/Workspace/FW_Platform2_5/trunk/ProductModules/PM_EnergyMeterSw\PM_EnergyMeterSwTable.c ****       else
 418:C:/Workspace/FW_Platform2_5/trunk/ProductModules/PM_EnergyMeterSw\PM_EnergyMeterSwTable.c ****       {
 419:C:/Workspace/FW_Platform2_5/trunk/ProductModules/PM_EnergyMeterSw\PM_EnergyMeterSwTable.c ****         /* Non e' stata ancora impostata la curva Y1: impostala */
 420:C:/Workspace/FW_Platform2_5/trunk/ProductModules/PM_EnergyMeterSw\PM_EnergyMeterSwTable.c ****         CurveSet(ui16CurrentY, pui8Curves, ui8CurveNItems, &(psSurfaceY->sCurveY1));
 226                             		.loc 1 420 0
 227 006a EF 74                   		mov.L	r7, r4
 228 006c 2E F8                   		bra	.L45
 229                             	.LVL31:
 230                             	.L33:
 421:C:/Workspace/FW_Platform2_5/trunk/ProductModules/PM_EnergyMeterSw\PM_EnergyMeterSwTable.c ****       }
 422:C:/Workspace/FW_Platform2_5/trunk/ProductModules/PM_EnergyMeterSw\PM_EnergyMeterSwTable.c **** 
 423:C:/Workspace/FW_Platform2_5/trunk/ProductModules/PM_EnergyMeterSw\PM_EnergyMeterSwTable.c ****       break;
 424:C:/Workspace/FW_Platform2_5/trunk/ProductModules/PM_EnergyMeterSw\PM_EnergyMeterSwTable.c ****     }
 425:C:/Workspace/FW_Platform2_5/trunk/ProductModules/PM_EnergyMeterSw\PM_EnergyMeterSwTable.c **** 
 426:C:/Workspace/FW_Platform2_5/trunk/ProductModules/PM_EnergyMeterSw\PM_EnergyMeterSwTable.c ****     /* ui16Yx > ui16CurrentY */
 427:C:/Workspace/FW_Platform2_5/trunk/ProductModules/PM_EnergyMeterSw\PM_EnergyMeterSwTable.c **** 
 428:C:/Workspace/FW_Platform2_5/trunk/ProductModules/PM_EnergyMeterSw\PM_EnergyMeterSwTable.c ****     /* Il valore Yx  superiore al valore di Y della curva corrente: imposta la curva Y1 */
 429:C:/Workspace/FW_Platform2_5/trunk/ProductModules/PM_EnergyMeterSw\PM_EnergyMeterSwTable.c ****     CurveSet(ui16CurrentY, pui8Curves, ui8CurveNItems, &(psSurfaceY->sCurveY1));
 231                             		.loc 1 429 0
 232 006e EF A2                   		mov.L	r10, r2
 233 0070 EF 74                   		mov.L	r7, r4
 234 0072 E3 05                   		mov.L	r5, [r0]
 235 0074 05 00 00 00             		bsr	_CurveSet
 236                             	.LVL32:
 430:C:/Workspace/FW_Platform2_5/trunk/ProductModules/PM_EnergyMeterSw\PM_EnergyMeterSwTable.c **** 
 431:C:/Workspace/FW_Platform2_5/trunk/ProductModules/PM_EnergyMeterSw\PM_EnergyMeterSwTable.c ****     /* Aggiorna gli estremi della curva successiva */
 432:C:/Workspace/FW_Platform2_5/trunk/ProductModules/PM_EnergyMeterSw\PM_EnergyMeterSwTable.c ****     pui8Curves += ui8CurveBytes;
 433:C:/Workspace/FW_Platform2_5/trunk/ProductModules/PM_EnergyMeterSw\PM_EnergyMeterSwTable.c ****     ui16CurvesLen -= (uint16_t)ui8CurveBytes;
 237                             		.loc 1 433 0
 238 0078 EC 05                   		mov.L	[r0], r5
 432:C:/Workspace/FW_Platform2_5/trunk/ProductModules/PM_EnergyMeterSw\PM_EnergyMeterSwTable.c ****     pui8Curves += ui8CurveBytes;
 239                             		.loc 1 432 0
 240 007a FF 2E 9A                		add	r9, r10, r14
 241                             	.LVL33:
 242                             		.loc 1 433 0
 243 007d 43 95                   		sub	r9, r5
 244                             	.LVL34:
 366:C:/Workspace/FW_Platform2_5/trunk/ProductModules/PM_EnergyMeterSw\PM_EnergyMeterSwTable.c ****   for (ui8CurveIdx = 0; ((ui16CurvesLen > 0) && (ui8CurveIdx < psTable->ui8NCurves)); ++ui8CurveIdx
 245                             		.loc 1 366 0
 246 007f 62 1D                   		add	#1, r13
 247                             	.LVL35:
 248 0081 03                      		.balign 2,3,1
 249                             	.L31:
 366:C:/Workspace/FW_Platform2_5/trunk/ProductModules/PM_EnergyMeterSw\PM_EnergyMeterSwTable.c ****   for (ui8CurveIdx = 0; ((ui16CurvesLen > 0) && (ui8CurveIdx < psTable->ui8NCurves)); ++ui8CurveIdx
 250                             		.loc 1 366 0 is_stmt 0 discriminator 1
 251 0082 5F 51                   		movu.W	r5, r1
 252 0084 61 01                   		cmp	#0, r1
 253 0086 20 0A                   		beq	.L29
 366:C:/Workspace/FW_Platform2_5/trunk/ProductModules/PM_EnergyMeterSw\PM_EnergyMeterSwTable.c ****   for (ui8CurveIdx = 0; ((ui16CurvesLen > 0) && (ui8CurveIdx < psTable->ui8NCurves)); ++ui8CurveIdx
 254                             		.loc 1 366 0 discriminator 2
 255 0088 5B DC                   		movu.B	r13, r12
 256 008a 44 BC                   		cmp	[r11].UB, r12
 257 008c 23 9C                   		bltu	.L35
 258                             	.LVL36:
 259                             		.balign 2,3,1
 260                             	.L44:
 434:C:/Workspace/FW_Platform2_5/trunk/ProductModules/PM_EnergyMeterSw\PM_EnergyMeterSwTable.c ****   }
 435:C:/Workspace/FW_Platform2_5/trunk/ProductModules/PM_EnergyMeterSw\PM_EnergyMeterSwTable.c **** 
 436:C:/Workspace/FW_Platform2_5/trunk/ProductModules/PM_EnergyMeterSw\PM_EnergyMeterSwTable.c ****   return EMS_E_OK;
 261                             		.loc 1 436 0 is_stmt 1
 262 008e 66 01                   		mov.L	#0, r1
 263                             	.LVL37:
 264                             		.balign 2,3,2
 265                             	.L29:
 437:C:/Workspace/FW_Platform2_5/trunk/ProductModules/PM_EnergyMeterSw\PM_EnergyMeterSwTable.c **** }
 266                             		.loc 1 437 0
 267 0090 3F 6D 09                		rtsd	#36, r6-r13
 268                             	.LFE4:
 270 0093 03                      		.section	.text.PointInit,"ax",@progbits
 271                             		.global	_PointInit
 273                             	_PointInit:
 274                             	.LFB5:
 438:C:/Workspace/FW_Platform2_5/trunk/ProductModules/PM_EnergyMeterSw\PM_EnergyMeterSwTable.c **** 
 439:C:/Workspace/FW_Platform2_5/trunk/ProductModules/PM_EnergyMeterSw\PM_EnergyMeterSwTable.c **** 
 440:C:/Workspace/FW_Platform2_5/trunk/ProductModules/PM_EnergyMeterSw\PM_EnergyMeterSwTable.c **** /**
 441:C:/Workspace/FW_Platform2_5/trunk/ProductModules/PM_EnergyMeterSw\PM_EnergyMeterSwTable.c ****   This function Init/Reset a Y point
 442:C:/Workspace/FW_Platform2_5/trunk/ProductModules/PM_EnergyMeterSw\PM_EnergyMeterSwTable.c **** 
 443:C:/Workspace/FW_Platform2_5/trunk/ProductModules/PM_EnergyMeterSw\PM_EnergyMeterSwTable.c **** \param  [in]      none
 444:C:/Workspace/FW_Platform2_5/trunk/ProductModules/PM_EnergyMeterSw\PM_EnergyMeterSwTable.c **** \param  [out]     stCurveYPoint_t* psYPoint   [pointer to Y point]
 445:C:/Workspace/FW_Platform2_5/trunk/ProductModules/PM_EnergyMeterSw\PM_EnergyMeterSwTable.c **** \param  [in,out]  none
 446:C:/Workspace/FW_Platform2_5/trunk/ProductModules/PM_EnergyMeterSw\PM_EnergyMeterSwTable.c **** 
 447:C:/Workspace/FW_Platform2_5/trunk/ProductModules/PM_EnergyMeterSw\PM_EnergyMeterSwTable.c **** \attention \b
 448:C:/Workspace/FW_Platform2_5/trunk/ProductModules/PM_EnergyMeterSw\PM_EnergyMeterSwTable.c **** 
 449:C:/Workspace/FW_Platform2_5/trunk/ProductModules/PM_EnergyMeterSw\PM_EnergyMeterSwTable.c **** \return   eEMS_Err - error code
 450:C:/Workspace/FW_Platform2_5/trunk/ProductModules/PM_EnergyMeterSw\PM_EnergyMeterSwTable.c **** 
 451:C:/Workspace/FW_Platform2_5/trunk/ProductModules/PM_EnergyMeterSw\PM_EnergyMeterSwTable.c **** \retval   [none]
 452:C:/Workspace/FW_Platform2_5/trunk/ProductModules/PM_EnergyMeterSw\PM_EnergyMeterSwTable.c **** 
 453:C:/Workspace/FW_Platform2_5/trunk/ProductModules/PM_EnergyMeterSw\PM_EnergyMeterSwTable.c **** \warning  [none]
 454:C:/Workspace/FW_Platform2_5/trunk/ProductModules/PM_EnergyMeterSw\PM_EnergyMeterSwTable.c **** 
 455:C:/Workspace/FW_Platform2_5/trunk/ProductModules/PM_EnergyMeterSw\PM_EnergyMeterSwTable.c **** \author   Intecs
 456:C:/Workspace/FW_Platform2_5/trunk/ProductModules/PM_EnergyMeterSw\PM_EnergyMeterSwTable.c **** \date     08-09-2011
 457:C:/Workspace/FW_Platform2_5/trunk/ProductModules/PM_EnergyMeterSw\PM_EnergyMeterSwTable.c **** \version  1.0.0
 458:C:/Workspace/FW_Platform2_5/trunk/ProductModules/PM_EnergyMeterSw\PM_EnergyMeterSwTable.c **** 
 459:C:/Workspace/FW_Platform2_5/trunk/ProductModules/PM_EnergyMeterSw\PM_EnergyMeterSwTable.c **** \bug    [none]
 460:C:/Workspace/FW_Platform2_5/trunk/ProductModules/PM_EnergyMeterSw\PM_EnergyMeterSwTable.c **** 
 461:C:/Workspace/FW_Platform2_5/trunk/ProductModules/PM_EnergyMeterSw\PM_EnergyMeterSwTable.c **** \note   \par \b Nota 1:
 462:C:/Workspace/FW_Platform2_5/trunk/ProductModules/PM_EnergyMeterSw\PM_EnergyMeterSwTable.c ****       documentation by ${Intecs}
 463:C:/Workspace/FW_Platform2_5/trunk/ProductModules/PM_EnergyMeterSw\PM_EnergyMeterSwTable.c **** */
 464:C:/Workspace/FW_Platform2_5/trunk/ProductModules/PM_EnergyMeterSw\PM_EnergyMeterSwTable.c **** STATIC void PointInit (stCurveYPoint_t* psYPoint)
 465:C:/Workspace/FW_Platform2_5/trunk/ProductModules/PM_EnergyMeterSw\PM_EnergyMeterSwTable.c **** {
 275                             		.loc 1 465 0
 276                             	.LVL38:
 466:C:/Workspace/FW_Platform2_5/trunk/ProductModules/PM_EnergyMeterSw\PM_EnergyMeterSwTable.c **** #if CHECK_TABLE
 467:C:/Workspace/FW_Platform2_5/trunk/ProductModules/PM_EnergyMeterSw\PM_EnergyMeterSwTable.c ****   if (psYPoint == NULL)
 277                             		.loc 1 467 0
 278 0000 61 01                   		cmp	#0, r1
 279 0002 20 08                   		beq	.L46
 468:C:/Workspace/FW_Platform2_5/trunk/ProductModules/PM_EnergyMeterSw\PM_EnergyMeterSwTable.c ****   {
 469:C:/Workspace/FW_Platform2_5/trunk/ProductModules/PM_EnergyMeterSw\PM_EnergyMeterSwTable.c ****     return;
 470:C:/Workspace/FW_Platform2_5/trunk/ProductModules/PM_EnergyMeterSw\PM_EnergyMeterSwTable.c ****   }
 471:C:/Workspace/FW_Platform2_5/trunk/ProductModules/PM_EnergyMeterSw\PM_EnergyMeterSwTable.c **** #endif
 472:C:/Workspace/FW_Platform2_5/trunk/ProductModules/PM_EnergyMeterSw\PM_EnergyMeterSwTable.c **** 
 473:C:/Workspace/FW_Platform2_5/trunk/ProductModules/PM_EnergyMeterSw\PM_EnergyMeterSwTable.c ****   memset(psYPoint, 0, sizeof(stCurveYPoint_t));
 280                             		.loc 1 473 0
 281 0004 66 63                   		mov.L	#6, r3
 282 0006 66 02                   		mov	#0, r2
 283 0008 7F 88                   		sstr.b
 284                             	.LVL39:
 285                             	.L46:
 286 000a 02                      		rts
 287                             	.LFE5:
 289                             		.section	.text.PointSet,"ax",@progbits
 290                             		.global	_PointSet
 292                             	_PointSet:
 293                             	.LFB6:
 474:C:/Workspace/FW_Platform2_5/trunk/ProductModules/PM_EnergyMeterSw\PM_EnergyMeterSwTable.c **** }
 475:C:/Workspace/FW_Platform2_5/trunk/ProductModules/PM_EnergyMeterSw\PM_EnergyMeterSwTable.c **** 
 476:C:/Workspace/FW_Platform2_5/trunk/ProductModules/PM_EnergyMeterSw\PM_EnergyMeterSwTable.c **** 
 477:C:/Workspace/FW_Platform2_5/trunk/ProductModules/PM_EnergyMeterSw\PM_EnergyMeterSwTable.c **** /**
 478:C:/Workspace/FW_Platform2_5/trunk/ProductModules/PM_EnergyMeterSw\PM_EnergyMeterSwTable.c ****   This function set a Y point
 479:C:/Workspace/FW_Platform2_5/trunk/ProductModules/PM_EnergyMeterSw\PM_EnergyMeterSwTable.c **** 
 480:C:/Workspace/FW_Platform2_5/trunk/ProductModules/PM_EnergyMeterSw\PM_EnergyMeterSwTable.c **** \param  [in]      uint16_t          ui16V      [value of V]
 481:C:/Workspace/FW_Platform2_5/trunk/ProductModules/PM_EnergyMeterSw\PM_EnergyMeterSwTable.c **** \param  [in]      uint16_t          ui16Pw     [value of P]
 482:C:/Workspace/FW_Platform2_5/trunk/ProductModules/PM_EnergyMeterSw\PM_EnergyMeterSwTable.c **** \param  [out]     stCurveYPoint_t*  psYPoint   [pointer to Y point]
 483:C:/Workspace/FW_Platform2_5/trunk/ProductModules/PM_EnergyMeterSw\PM_EnergyMeterSwTable.c **** \param  [in,out]  none
 484:C:/Workspace/FW_Platform2_5/trunk/ProductModules/PM_EnergyMeterSw\PM_EnergyMeterSwTable.c **** 
 485:C:/Workspace/FW_Platform2_5/trunk/ProductModules/PM_EnergyMeterSw\PM_EnergyMeterSwTable.c **** \attention \b
 486:C:/Workspace/FW_Platform2_5/trunk/ProductModules/PM_EnergyMeterSw\PM_EnergyMeterSwTable.c **** 
 487:C:/Workspace/FW_Platform2_5/trunk/ProductModules/PM_EnergyMeterSw\PM_EnergyMeterSwTable.c **** \return   eEMS_Err - error code
 488:C:/Workspace/FW_Platform2_5/trunk/ProductModules/PM_EnergyMeterSw\PM_EnergyMeterSwTable.c **** 
 489:C:/Workspace/FW_Platform2_5/trunk/ProductModules/PM_EnergyMeterSw\PM_EnergyMeterSwTable.c **** \retval   [none]
 490:C:/Workspace/FW_Platform2_5/trunk/ProductModules/PM_EnergyMeterSw\PM_EnergyMeterSwTable.c **** 
 491:C:/Workspace/FW_Platform2_5/trunk/ProductModules/PM_EnergyMeterSw\PM_EnergyMeterSwTable.c **** \warning  [none]
 492:C:/Workspace/FW_Platform2_5/trunk/ProductModules/PM_EnergyMeterSw\PM_EnergyMeterSwTable.c **** 
 493:C:/Workspace/FW_Platform2_5/trunk/ProductModules/PM_EnergyMeterSw\PM_EnergyMeterSwTable.c **** \author   Intecs
 494:C:/Workspace/FW_Platform2_5/trunk/ProductModules/PM_EnergyMeterSw\PM_EnergyMeterSwTable.c **** \date     08-09-2011
 495:C:/Workspace/FW_Platform2_5/trunk/ProductModules/PM_EnergyMeterSw\PM_EnergyMeterSwTable.c **** \version  1.0.0
 496:C:/Workspace/FW_Platform2_5/trunk/ProductModules/PM_EnergyMeterSw\PM_EnergyMeterSwTable.c **** 
 497:C:/Workspace/FW_Platform2_5/trunk/ProductModules/PM_EnergyMeterSw\PM_EnergyMeterSwTable.c **** \bug    [none]
 498:C:/Workspace/FW_Platform2_5/trunk/ProductModules/PM_EnergyMeterSw\PM_EnergyMeterSwTable.c **** 
 499:C:/Workspace/FW_Platform2_5/trunk/ProductModules/PM_EnergyMeterSw\PM_EnergyMeterSwTable.c **** 
 500:C:/Workspace/FW_Platform2_5/trunk/ProductModules/PM_EnergyMeterSw\PM_EnergyMeterSwTable.c **** 
 501:C:/Workspace/FW_Platform2_5/trunk/ProductModules/PM_EnergyMeterSw\PM_EnergyMeterSwTable.c **** \note   \par \b Nota 1:
 502:C:/Workspace/FW_Platform2_5/trunk/ProductModules/PM_EnergyMeterSw\PM_EnergyMeterSwTable.c ****       documentation by ${Intecs}
 503:C:/Workspace/FW_Platform2_5/trunk/ProductModules/PM_EnergyMeterSw\PM_EnergyMeterSwTable.c **** */
 504:C:/Workspace/FW_Platform2_5/trunk/ProductModules/PM_EnergyMeterSw\PM_EnergyMeterSwTable.c **** STATIC void PointSet (uint16_t ui16V, uint16_t ui16Pw,
 505:C:/Workspace/FW_Platform2_5/trunk/ProductModules/PM_EnergyMeterSw\PM_EnergyMeterSwTable.c ****                       stCurveYPoint_t* psYPoint)
 506:C:/Workspace/FW_Platform2_5/trunk/ProductModules/PM_EnergyMeterSw\PM_EnergyMeterSwTable.c **** {
 294                             		.loc 1 506 0
 295                             	.LVL40:
 507:C:/Workspace/FW_Platform2_5/trunk/ProductModules/PM_EnergyMeterSw\PM_EnergyMeterSwTable.c **** #if CHECK_TABLE
 508:C:/Workspace/FW_Platform2_5/trunk/ProductModules/PM_EnergyMeterSw\PM_EnergyMeterSwTable.c ****   if (psYPoint == NULL)
 296                             		.loc 1 508 0
 297 0000 61 03                   		cmp	#0, r3
 298 0002 20 09                   		beq	.L51
 509:C:/Workspace/FW_Platform2_5/trunk/ProductModules/PM_EnergyMeterSw\PM_EnergyMeterSwTable.c ****   {
 510:C:/Workspace/FW_Platform2_5/trunk/ProductModules/PM_EnergyMeterSw\PM_EnergyMeterSwTable.c ****     return;
 511:C:/Workspace/FW_Platform2_5/trunk/ProductModules/PM_EnergyMeterSw\PM_EnergyMeterSwTable.c ****   }
 512:C:/Workspace/FW_Platform2_5/trunk/ProductModules/PM_EnergyMeterSw\PM_EnergyMeterSwTable.c **** #endif
 513:C:/Workspace/FW_Platform2_5/trunk/ProductModules/PM_EnergyMeterSw\PM_EnergyMeterSwTable.c **** 
 514:C:/Workspace/FW_Platform2_5/trunk/ProductModules/PM_EnergyMeterSw\PM_EnergyMeterSwTable.c ****   psYPoint->ui8Valid  = 1;
 299                             		.loc 1 514 0
 300 0004 3C 30 01                		mov.B	#1, [r3]
 515:C:/Workspace/FW_Platform2_5/trunk/ProductModules/PM_EnergyMeterSw\PM_EnergyMeterSwTable.c ****   psYPoint->ui16V     = ui16V;
 301                             		.loc 1 515 0
 302 0007 90 39                   		mov.W	r1, 2[r3]
 516:C:/Workspace/FW_Platform2_5/trunk/ProductModules/PM_EnergyMeterSw\PM_EnergyMeterSwTable.c ****   psYPoint->ui16Pw    = ui16Pw;
 303                             		.loc 1 516 0
 304 0009 90 B2                   		mov.W	r2, 4[r3]
 305                             	.L51:
 306 000b 02                      		rts
 307                             	.LFE6:
 309                             		.section	.text.LineInit,"ax",@progbits
 310                             		.global	_LineInit
 312                             	_LineInit:
 313                             	.LFB7:
 517:C:/Workspace/FW_Platform2_5/trunk/ProductModules/PM_EnergyMeterSw\PM_EnergyMeterSwTable.c **** }
 518:C:/Workspace/FW_Platform2_5/trunk/ProductModules/PM_EnergyMeterSw\PM_EnergyMeterSwTable.c **** 
 519:C:/Workspace/FW_Platform2_5/trunk/ProductModules/PM_EnergyMeterSw\PM_EnergyMeterSwTable.c **** 
 520:C:/Workspace/FW_Platform2_5/trunk/ProductModules/PM_EnergyMeterSw\PM_EnergyMeterSwTable.c **** /**
 521:C:/Workspace/FW_Platform2_5/trunk/ProductModules/PM_EnergyMeterSw\PM_EnergyMeterSwTable.c ****   This function Init/Reset a Y line
 522:C:/Workspace/FW_Platform2_5/trunk/ProductModules/PM_EnergyMeterSw\PM_EnergyMeterSwTable.c **** 
 523:C:/Workspace/FW_Platform2_5/trunk/ProductModules/PM_EnergyMeterSw\PM_EnergyMeterSwTable.c **** \param  [in]      none
 524:C:/Workspace/FW_Platform2_5/trunk/ProductModules/PM_EnergyMeterSw\PM_EnergyMeterSwTable.c **** \param  [out]     stCurveYLine_t* psYLine   [pointer to Y line]
 525:C:/Workspace/FW_Platform2_5/trunk/ProductModules/PM_EnergyMeterSw\PM_EnergyMeterSwTable.c **** \param  [in,out]  none
 526:C:/Workspace/FW_Platform2_5/trunk/ProductModules/PM_EnergyMeterSw\PM_EnergyMeterSwTable.c **** 
 527:C:/Workspace/FW_Platform2_5/trunk/ProductModules/PM_EnergyMeterSw\PM_EnergyMeterSwTable.c **** \attention \b
 528:C:/Workspace/FW_Platform2_5/trunk/ProductModules/PM_EnergyMeterSw\PM_EnergyMeterSwTable.c **** 
 529:C:/Workspace/FW_Platform2_5/trunk/ProductModules/PM_EnergyMeterSw\PM_EnergyMeterSwTable.c **** \return   eEMS_Err - error code
 530:C:/Workspace/FW_Platform2_5/trunk/ProductModules/PM_EnergyMeterSw\PM_EnergyMeterSwTable.c **** 
 531:C:/Workspace/FW_Platform2_5/trunk/ProductModules/PM_EnergyMeterSw\PM_EnergyMeterSwTable.c **** \retval   [none]
 532:C:/Workspace/FW_Platform2_5/trunk/ProductModules/PM_EnergyMeterSw\PM_EnergyMeterSwTable.c **** 
 533:C:/Workspace/FW_Platform2_5/trunk/ProductModules/PM_EnergyMeterSw\PM_EnergyMeterSwTable.c **** \warning  [none]
 534:C:/Workspace/FW_Platform2_5/trunk/ProductModules/PM_EnergyMeterSw\PM_EnergyMeterSwTable.c **** 
 535:C:/Workspace/FW_Platform2_5/trunk/ProductModules/PM_EnergyMeterSw\PM_EnergyMeterSwTable.c **** \author   Intecs
 536:C:/Workspace/FW_Platform2_5/trunk/ProductModules/PM_EnergyMeterSw\PM_EnergyMeterSwTable.c **** \date     08-09-2011
 537:C:/Workspace/FW_Platform2_5/trunk/ProductModules/PM_EnergyMeterSw\PM_EnergyMeterSwTable.c **** \version  1.0.0
 538:C:/Workspace/FW_Platform2_5/trunk/ProductModules/PM_EnergyMeterSw\PM_EnergyMeterSwTable.c **** 
 539:C:/Workspace/FW_Platform2_5/trunk/ProductModules/PM_EnergyMeterSw\PM_EnergyMeterSwTable.c **** \bug    [none]
 540:C:/Workspace/FW_Platform2_5/trunk/ProductModules/PM_EnergyMeterSw\PM_EnergyMeterSwTable.c **** 
 541:C:/Workspace/FW_Platform2_5/trunk/ProductModules/PM_EnergyMeterSw\PM_EnergyMeterSwTable.c **** 
 542:C:/Workspace/FW_Platform2_5/trunk/ProductModules/PM_EnergyMeterSw\PM_EnergyMeterSwTable.c **** 
 543:C:/Workspace/FW_Platform2_5/trunk/ProductModules/PM_EnergyMeterSw\PM_EnergyMeterSwTable.c **** \note   \par \b Nota 1:
 544:C:/Workspace/FW_Platform2_5/trunk/ProductModules/PM_EnergyMeterSw\PM_EnergyMeterSwTable.c ****       documentation by ${Intecs}
 545:C:/Workspace/FW_Platform2_5/trunk/ProductModules/PM_EnergyMeterSw\PM_EnergyMeterSwTable.c **** */
 546:C:/Workspace/FW_Platform2_5/trunk/ProductModules/PM_EnergyMeterSw\PM_EnergyMeterSwTable.c **** STATIC void LineInit (stCurveYLine_t* psYLine)
 547:C:/Workspace/FW_Platform2_5/trunk/ProductModules/PM_EnergyMeterSw\PM_EnergyMeterSwTable.c **** {
 314                             		.loc 1 547 0
 315 0000 7E A7                   		push.l	r7
 316                             	.LCFI2:
 548:C:/Workspace/FW_Platform2_5/trunk/ProductModules/PM_EnergyMeterSw\PM_EnergyMeterSwTable.c **** #if CHECK_TABLE
 549:C:/Workspace/FW_Platform2_5/trunk/ProductModules/PM_EnergyMeterSw\PM_EnergyMeterSwTable.c ****   if (psYLine == NULL)
 317                             		.loc 1 549 0
 318 0002 71 17 00                		add	#0, r1, r7
 319 0005 20 0F                   		beq	.L56
 550:C:/Workspace/FW_Platform2_5/trunk/ProductModules/PM_EnergyMeterSw\PM_EnergyMeterSwTable.c ****   {
 551:C:/Workspace/FW_Platform2_5/trunk/ProductModules/PM_EnergyMeterSw\PM_EnergyMeterSwTable.c ****     return;
 552:C:/Workspace/FW_Platform2_5/trunk/ProductModules/PM_EnergyMeterSw\PM_EnergyMeterSwTable.c ****   }
 553:C:/Workspace/FW_Platform2_5/trunk/ProductModules/PM_EnergyMeterSw\PM_EnergyMeterSwTable.c **** #endif
 554:C:/Workspace/FW_Platform2_5/trunk/ProductModules/PM_EnergyMeterSw\PM_EnergyMeterSwTable.c **** 
 555:C:/Workspace/FW_Platform2_5/trunk/ProductModules/PM_EnergyMeterSw\PM_EnergyMeterSwTable.c ****   /* init points */
 556:C:/Workspace/FW_Platform2_5/trunk/ProductModules/PM_EnergyMeterSw\PM_EnergyMeterSwTable.c ****   PointInit(&(psYLine->sPoint1));
 320                             		.loc 1 556 0
 321 0007 05 00 00 00             		bsr	_PointInit
 557:C:/Workspace/FW_Platform2_5/trunk/ProductModules/PM_EnergyMeterSw\PM_EnergyMeterSwTable.c ****   PointInit(&(psYLine->sPoint2));
 322                             		.loc 1 557 0
 323 000b 71 71 06                		add	#6, r7, r1
 558:C:/Workspace/FW_Platform2_5/trunk/ProductModules/PM_EnergyMeterSw\PM_EnergyMeterSwTable.c **** }
 324                             		.loc 1 558 0
 325 000e 7E B7                   		pop	r7
 557:C:/Workspace/FW_Platform2_5/trunk/ProductModules/PM_EnergyMeterSw\PM_EnergyMeterSwTable.c ****   PointInit(&(psYLine->sPoint2));
 326                             		.loc 1 557 0
 327 0010 04 00 00 00             		bra	_PointInit
 328                             	.L56:
 329                             		.loc 1 558 0
 330 0014 3F 77 01                		rtsd	#4, r7-r7
 331                             	.LFE7:
 333                             		.section	.text.CurveYFindPoints,"ax",@progbits
 334                             		.global	_CurveYFindPoints
 336                             	_CurveYFindPoints:
 337                             	.LFB8:
 559:C:/Workspace/FW_Platform2_5/trunk/ProductModules/PM_EnergyMeterSw\PM_EnergyMeterSwTable.c **** 
 560:C:/Workspace/FW_Platform2_5/trunk/ProductModules/PM_EnergyMeterSw\PM_EnergyMeterSwTable.c **** 
 561:C:/Workspace/FW_Platform2_5/trunk/ProductModules/PM_EnergyMeterSw\PM_EnergyMeterSwTable.c **** /**
 562:C:/Workspace/FW_Platform2_5/trunk/ProductModules/PM_EnergyMeterSw\PM_EnergyMeterSwTable.c ****   This function find, in the Y (Temperature) curve, the line including the Vin value
 563:C:/Workspace/FW_Platform2_5/trunk/ProductModules/PM_EnergyMeterSw\PM_EnergyMeterSwTable.c **** 
 564:C:/Workspace/FW_Platform2_5/trunk/ProductModules/PM_EnergyMeterSw\PM_EnergyMeterSwTable.c **** \param  [in]      stTable_t*        psTable   [pointer to data table struct]
 565:C:/Workspace/FW_Platform2_5/trunk/ProductModules/PM_EnergyMeterSw\PM_EnergyMeterSwTable.c **** \param  [in]      stTableCurveY_t*  psCurveY  [pointer to Y curve]
 566:C:/Workspace/FW_Platform2_5/trunk/ProductModules/PM_EnergyMeterSw\PM_EnergyMeterSwTable.c **** \param  [in]      uint16_t          ui16Vin   [the value of Vin]
 567:C:/Workspace/FW_Platform2_5/trunk/ProductModules/PM_EnergyMeterSw\PM_EnergyMeterSwTable.c **** \param  [out]     stCurveYLine_t*   psYLine   [pointer to Y line]
 568:C:/Workspace/FW_Platform2_5/trunk/ProductModules/PM_EnergyMeterSw\PM_EnergyMeterSwTable.c **** \param  [in,out]  none
 569:C:/Workspace/FW_Platform2_5/trunk/ProductModules/PM_EnergyMeterSw\PM_EnergyMeterSwTable.c **** 
 570:C:/Workspace/FW_Platform2_5/trunk/ProductModules/PM_EnergyMeterSw\PM_EnergyMeterSwTable.c **** \attention \b
 571:C:/Workspace/FW_Platform2_5/trunk/ProductModules/PM_EnergyMeterSw\PM_EnergyMeterSwTable.c **** 
 572:C:/Workspace/FW_Platform2_5/trunk/ProductModules/PM_EnergyMeterSw\PM_EnergyMeterSwTable.c **** \return   eEMS_Err - error code
 573:C:/Workspace/FW_Platform2_5/trunk/ProductModules/PM_EnergyMeterSw\PM_EnergyMeterSwTable.c **** 
 574:C:/Workspace/FW_Platform2_5/trunk/ProductModules/PM_EnergyMeterSw\PM_EnergyMeterSwTable.c **** \retval   [none]
 575:C:/Workspace/FW_Platform2_5/trunk/ProductModules/PM_EnergyMeterSw\PM_EnergyMeterSwTable.c **** 
 576:C:/Workspace/FW_Platform2_5/trunk/ProductModules/PM_EnergyMeterSw\PM_EnergyMeterSwTable.c **** \warning  [none]
 577:C:/Workspace/FW_Platform2_5/trunk/ProductModules/PM_EnergyMeterSw\PM_EnergyMeterSwTable.c **** 
 578:C:/Workspace/FW_Platform2_5/trunk/ProductModules/PM_EnergyMeterSw\PM_EnergyMeterSwTable.c **** \author   Intecs
 579:C:/Workspace/FW_Platform2_5/trunk/ProductModules/PM_EnergyMeterSw\PM_EnergyMeterSwTable.c **** \date     08-09-2011
 580:C:/Workspace/FW_Platform2_5/trunk/ProductModules/PM_EnergyMeterSw\PM_EnergyMeterSwTable.c **** \version  1.0.0
 581:C:/Workspace/FW_Platform2_5/trunk/ProductModules/PM_EnergyMeterSw\PM_EnergyMeterSwTable.c **** 
 582:C:/Workspace/FW_Platform2_5/trunk/ProductModules/PM_EnergyMeterSw\PM_EnergyMeterSwTable.c **** \bug    [none]
 583:C:/Workspace/FW_Platform2_5/trunk/ProductModules/PM_EnergyMeterSw\PM_EnergyMeterSwTable.c **** 
 584:C:/Workspace/FW_Platform2_5/trunk/ProductModules/PM_EnergyMeterSw\PM_EnergyMeterSwTable.c **** 
 585:C:/Workspace/FW_Platform2_5/trunk/ProductModules/PM_EnergyMeterSw\PM_EnergyMeterSwTable.c **** 
 586:C:/Workspace/FW_Platform2_5/trunk/ProductModules/PM_EnergyMeterSw\PM_EnergyMeterSwTable.c **** \note   \par \b Nota 1:
 587:C:/Workspace/FW_Platform2_5/trunk/ProductModules/PM_EnergyMeterSw\PM_EnergyMeterSwTable.c ****       documentation by ${Intecs}
 588:C:/Workspace/FW_Platform2_5/trunk/ProductModules/PM_EnergyMeterSw\PM_EnergyMeterSwTable.c **** */
 589:C:/Workspace/FW_Platform2_5/trunk/ProductModules/PM_EnergyMeterSw\PM_EnergyMeterSwTable.c **** STATIC eEMS_Err CurveYFindPoints (const stTable_t* psTable, const stTableCurveY_t* psCurveY,
 590:C:/Workspace/FW_Platform2_5/trunk/ProductModules/PM_EnergyMeterSw\PM_EnergyMeterSwTable.c ****                                   uint16_t ui16Vin, stCurveYLine_t* psYLine)
 591:C:/Workspace/FW_Platform2_5/trunk/ProductModules/PM_EnergyMeterSw\PM_EnergyMeterSwTable.c **** {
 338                             		.loc 1 591 0
 592:C:/Workspace/FW_Platform2_5/trunk/ProductModules/PM_EnergyMeterSw\PM_EnergyMeterSwTable.c ****   uint16_t* pui16PwItem;    /* punta al primo campione P della curva (nel file di setting) */
 593:C:/Workspace/FW_Platform2_5/trunk/ProductModules/PM_EnergyMeterSw\PM_EnergyMeterSwTable.c ****   uint8_t*  pui8VItem;      /* punta al primo campione V della curva (nel file di setting) */
 594:C:/Workspace/FW_Platform2_5/trunk/ProductModules/PM_EnergyMeterSw\PM_EnergyMeterSwTable.c ****   uint8_t   ui8ItemIdx;     /* indice del campione corrente nella curva */
 595:C:/Workspace/FW_Platform2_5/trunk/ProductModules/PM_EnergyMeterSw\PM_EnergyMeterSwTable.c ****   uint16_t  ui16CurrentV;   /* valore di V per la curva corrente */
 596:C:/Workspace/FW_Platform2_5/trunk/ProductModules/PM_EnergyMeterSw\PM_EnergyMeterSwTable.c ****   uint16_t  ui16CurrentPw;  /* valore di P per la V corrente */
 597:C:/Workspace/FW_Platform2_5/trunk/ProductModules/PM_EnergyMeterSw\PM_EnergyMeterSwTable.c **** 
 598:C:/Workspace/FW_Platform2_5/trunk/ProductModules/PM_EnergyMeterSw\PM_EnergyMeterSwTable.c **** 
 599:C:/Workspace/FW_Platform2_5/trunk/ProductModules/PM_EnergyMeterSw\PM_EnergyMeterSwTable.c **** #if CHECK_TABLE
 600:C:/Workspace/FW_Platform2_5/trunk/ProductModules/PM_EnergyMeterSw\PM_EnergyMeterSwTable.c ****   if ((psTable == NULL) || (psCurveY == NULL) || (psYLine == NULL))
 339                             		.loc 1 600 0
 340 0000 61 01                   		cmp	#0, r1
 341 0002 20 6B                   		beq	.L69
 342                             		.loc 1 600 0 discriminator 1
 343 0004 61 02                   		cmp	#0, r2
 344 0006 20 67                   		beq	.L69
 345 0008 61 04                   		cmp	#0, r4
 346 000a 20 63                   		beq	.L69
 591:C:/Workspace/FW_Platform2_5/trunk/ProductModules/PM_EnergyMeterSw\PM_EnergyMeterSwTable.c **** {
 347                             		.loc 1 591 0
 348 000c 6E 7B                   		pushm	r7-r11
 349                             	.LCFI3:
 601:C:/Workspace/FW_Platform2_5/trunk/ProductModules/PM_EnergyMeterSw\PM_EnergyMeterSwTable.c ****   {
 602:C:/Workspace/FW_Platform2_5/trunk/ProductModules/PM_EnergyMeterSw\PM_EnergyMeterSwTable.c ****     return EMS_E_INVALID_VALUE;
 603:C:/Workspace/FW_Platform2_5/trunk/ProductModules/PM_EnergyMeterSw\PM_EnergyMeterSwTable.c ****   }
 604:C:/Workspace/FW_Platform2_5/trunk/ProductModules/PM_EnergyMeterSw\PM_EnergyMeterSwTable.c **** 
 605:C:/Workspace/FW_Platform2_5/trunk/ProductModules/PM_EnergyMeterSw\PM_EnergyMeterSwTable.c ****   if (psCurveY->ui8Valid == 0)
 350                             		.loc 1 605 0
 351 000e 58 27                   		movu.B	[r2], r7
 352 0010 61 07                   		cmp	#0, r7
 353 0012 20 5E                   		beq	.L70
 354                             	.LBB34:
 355                             	.LBB35:
 606:C:/Workspace/FW_Platform2_5/trunk/ProductModules/PM_EnergyMeterSw\PM_EnergyMeterSwTable.c ****   {
 607:C:/Workspace/FW_Platform2_5/trunk/ProductModules/PM_EnergyMeterSw\PM_EnergyMeterSwTable.c ****     return EMS_E_INVALID_VALUE;
 608:C:/Workspace/FW_Platform2_5/trunk/ProductModules/PM_EnergyMeterSw\PM_EnergyMeterSwTable.c ****   }
 609:C:/Workspace/FW_Platform2_5/trunk/ProductModules/PM_EnergyMeterSw\PM_EnergyMeterSwTable.c **** 
 610:C:/Workspace/FW_Platform2_5/trunk/ProductModules/PM_EnergyMeterSw\PM_EnergyMeterSwTable.c ****   if (psCurveY->pui8Item == NULL)
 356                             		.loc 1 610 0
 357 0014 ED 2F 02                		mov.L	8[r2], r15
 358 0017 61 0F                   		cmp	#0, r15
 359 0019 20 57                   		beq	.L70
 611:C:/Workspace/FW_Platform2_5/trunk/ProductModules/PM_EnergyMeterSw\PM_EnergyMeterSwTable.c ****   {
 612:C:/Workspace/FW_Platform2_5/trunk/ProductModules/PM_EnergyMeterSw\PM_EnergyMeterSwTable.c ****     return EMS_E_INVALID_VALUE;
 613:C:/Workspace/FW_Platform2_5/trunk/ProductModules/PM_EnergyMeterSw\PM_EnergyMeterSwTable.c ****   }
 614:C:/Workspace/FW_Platform2_5/trunk/ProductModules/PM_EnergyMeterSw\PM_EnergyMeterSwTable.c **** #endif
 615:C:/Workspace/FW_Platform2_5/trunk/ProductModules/PM_EnergyMeterSw\PM_EnergyMeterSwTable.c **** 
 616:C:/Workspace/FW_Platform2_5/trunk/ProductModules/PM_EnergyMeterSw\PM_EnergyMeterSwTable.c **** 
 617:C:/Workspace/FW_Platform2_5/trunk/ProductModules/PM_EnergyMeterSw\PM_EnergyMeterSwTable.c ****   /* Imposta i puntatori ai campioni della curva */
 618:C:/Workspace/FW_Platform2_5/trunk/ProductModules/PM_EnergyMeterSw\PM_EnergyMeterSwTable.c ****   pui16PwItem = (uint16_t*)(psCurveY->pui8Item);
 619:C:/Workspace/FW_Platform2_5/trunk/ProductModules/PM_EnergyMeterSw\PM_EnergyMeterSwTable.c ****   pui8VItem = (uint8_t*)(&(pui16PwItem[psCurveY->ui8NItems]));
 360                             		.loc 1 619 0
 361 001b B1 27                   		movu.B	4[r2], r7
 620:C:/Workspace/FW_Platform2_5/trunk/ProductModules/PM_EnergyMeterSw\PM_EnergyMeterSwTable.c **** 
 621:C:/Workspace/FW_Platform2_5/trunk/ProductModules/PM_EnergyMeterSw\PM_EnergyMeterSwTable.c ****   /*
 622:C:/Workspace/FW_Platform2_5/trunk/ProductModules/PM_EnergyMeterSw\PM_EnergyMeterSwTable.c ****    * ciclo su tutti i campioni: si suppone che i campioni siano memorizzati per valori di V crescen
 623:C:/Workspace/FW_Platform2_5/trunk/ProductModules/PM_EnergyMeterSw\PM_EnergyMeterSwTable.c ****   for (ui8ItemIdx = 0; ui8ItemIdx < psCurveY->ui8NItems; ++ui8ItemIdx)
 362                             		.loc 1 623 0
 363 001d 66 05                   		mov	#0, r5
 619:C:/Workspace/FW_Platform2_5/trunk/ProductModules/PM_EnergyMeterSw\PM_EnergyMeterSwTable.c ****   pui8VItem = (uint8_t*)(&(pui16PwItem[psCurveY->ui8NItems]));
 364                             		.loc 1 619 0
 365 001f 4B 77                   		add	r7, r7
 366 0021 FF 2B 7F                		add	r7, r15, r11
 624:C:/Workspace/FW_Platform2_5/trunk/ProductModules/PM_EnergyMeterSw\PM_EnergyMeterSwTable.c ****   {
 625:C:/Workspace/FW_Platform2_5/trunk/ProductModules/PM_EnergyMeterSw\PM_EnergyMeterSwTable.c ****     /* Recupera la potenza per il campione corrente */
 626:C:/Workspace/FW_Platform2_5/trunk/ProductModules/PM_EnergyMeterSw\PM_EnergyMeterSwTable.c ****     ui16CurrentPw = pui16PwItem[ui8ItemIdx];
 627:C:/Workspace/FW_Platform2_5/trunk/ProductModules/PM_EnergyMeterSw\PM_EnergyMeterSwTable.c **** 
 628:C:/Workspace/FW_Platform2_5/trunk/ProductModules/PM_EnergyMeterSw\PM_EnergyMeterSwTable.c ****     /* Recupera la tensione per il campione corrente */
 629:C:/Workspace/FW_Platform2_5/trunk/ProductModules/PM_EnergyMeterSw\PM_EnergyMeterSwTable.c ****    #if TABLE_APPROX_VIN
 630:C:/Workspace/FW_Platform2_5/trunk/ProductModules/PM_EnergyMeterSw\PM_EnergyMeterSwTable.c ****     /* ui16Vin  espressa su 8 bit */
 631:C:/Workspace/FW_Platform2_5/trunk/ProductModules/PM_EnergyMeterSw\PM_EnergyMeterSwTable.c ****     ui16CurrentV = (uint16_t)(pui8VItem[ui8ItemIdx]);
 632:C:/Workspace/FW_Platform2_5/trunk/ProductModules/PM_EnergyMeterSw\PM_EnergyMeterSwTable.c ****    #else
 633:C:/Workspace/FW_Platform2_5/trunk/ProductModules/PM_EnergyMeterSw\PM_EnergyMeterSwTable.c ****     /* ui16Vin  espressa su 16 bit mentre il valore di V  espresso su 8 bit, moltiplico quest
 634:C:/Workspace/FW_Platform2_5/trunk/ProductModules/PM_EnergyMeterSw\PM_EnergyMeterSwTable.c ****     ui16CurrentV = ((uint16_t)(pui8VItem[ui8ItemIdx])) << 8;
 635:C:/Workspace/FW_Platform2_5/trunk/ProductModules/PM_EnergyMeterSw\PM_EnergyMeterSwTable.c ****    #endif
 636:C:/Workspace/FW_Platform2_5/trunk/ProductModules/PM_EnergyMeterSw\PM_EnergyMeterSwTable.c **** 
 637:C:/Workspace/FW_Platform2_5/trunk/ProductModules/PM_EnergyMeterSw\PM_EnergyMeterSwTable.c **** 
 638:C:/Workspace/FW_Platform2_5/trunk/ProductModules/PM_EnergyMeterSw\PM_EnergyMeterSwTable.c **** 
 639:C:/Workspace/FW_Platform2_5/trunk/ProductModules/PM_EnergyMeterSw\PM_EnergyMeterSwTable.c **** 
 640:C:/Workspace/FW_Platform2_5/trunk/ProductModules/PM_EnergyMeterSw\PM_EnergyMeterSwTable.c ****     /*
 641:C:/Workspace/FW_Platform2_5/trunk/ProductModules/PM_EnergyMeterSw\PM_EnergyMeterSwTable.c ****      * Confronta Vin con il valore di V corrente
 642:C:/Workspace/FW_Platform2_5/trunk/ProductModules/PM_EnergyMeterSw\PM_EnergyMeterSwTable.c ****      */
 643:C:/Workspace/FW_Platform2_5/trunk/ProductModules/PM_EnergyMeterSw\PM_EnergyMeterSwTable.c **** 
 644:C:/Workspace/FW_Platform2_5/trunk/ProductModules/PM_EnergyMeterSw\PM_EnergyMeterSwTable.c ****     if (ui16Vin == ui16CurrentV)
 367                             		.loc 1 644 0
 368 0024 5F 37                   		movu.W	r3, r7
 369 0026 2E 3E                   		bra	.L62
 370                             	.L66:
 626:C:/Workspace/FW_Platform2_5/trunk/ProductModules/PM_EnergyMeterSw\PM_EnergyMeterSwTable.c ****     ui16CurrentPw = pui16PwItem[ui8ItemIdx];
 371                             		.loc 1 626 0
 372 0028 FF 2A EE                		add	r14, r14, r10
 631:C:/Workspace/FW_Platform2_5/trunk/ProductModules/PM_EnergyMeterSw\PM_EnergyMeterSwTable.c ****     ui16CurrentV = (uint16_t)(pui8VItem[ui8ItemIdx]);
 373                             		.loc 1 631 0
 374 002b FE CE BE                		movu.B	[r14,r11], r14
 626:C:/Workspace/FW_Platform2_5/trunk/ProductModules/PM_EnergyMeterSw\PM_EnergyMeterSwTable.c ****     ui16CurrentPw = pui16PwItem[ui8ItemIdx];
 375                             		.loc 1 626 0
 376 002e 4B FA                   		add	r15, r10
 377                             		.loc 1 644 0
 378 0030 47 E7                   		cmp	r14, r7
 626:C:/Workspace/FW_Platform2_5/trunk/ProductModules/PM_EnergyMeterSw\PM_EnergyMeterSwTable.c ****     ui16CurrentPw = pui16PwItem[ui8ItemIdx];
 379                             		.loc 1 626 0
 380 0032 DC A1                   		mov.W	[r10], r1
 381                             		.loc 1 644 0
 382 0034 21 09                   		bne	.L63
 383                             	.LBB36:
 384                             	.LBB37:
 514:C:/Workspace/FW_Platform2_5/trunk/ProductModules/PM_EnergyMeterSw\PM_EnergyMeterSwTable.c ****   psYPoint->ui8Valid  = 1;
 385                             		.loc 1 514 0
 386 0036 3C 40 01                		mov.B	#1, [r4]
 515:C:/Workspace/FW_Platform2_5/trunk/ProductModules/PM_EnergyMeterSw\PM_EnergyMeterSwTable.c ****   psYPoint->ui16V     = ui16V;
 387                             		.loc 1 515 0
 388 0039 90 4B                   		mov.W	r3, 2[r4]
 389 003b 2E 1B                   		bra	.L76
 390                             	.L63:
 391                             	.LBE37:
 392                             	.LBE36:
 645:C:/Workspace/FW_Platform2_5/trunk/ProductModules/PM_EnergyMeterSw\PM_EnergyMeterSwTable.c ****     {
 646:C:/Workspace/FW_Platform2_5/trunk/ProductModules/PM_EnergyMeterSw\PM_EnergyMeterSwTable.c ****       /* Trovato il valore esatto: imposta il punto P1 della retta ed esci */
 647:C:/Workspace/FW_Platform2_5/trunk/ProductModules/PM_EnergyMeterSw\PM_EnergyMeterSwTable.c ****       PointSet(ui16Vin, ui16CurrentPw, &(psYLine->sPoint1));
 648:C:/Workspace/FW_Platform2_5/trunk/ProductModules/PM_EnergyMeterSw\PM_EnergyMeterSwTable.c **** 
 649:C:/Workspace/FW_Platform2_5/trunk/ProductModules/PM_EnergyMeterSw\PM_EnergyMeterSwTable.c **** 
 650:C:/Workspace/FW_Platform2_5/trunk/ProductModules/PM_EnergyMeterSw\PM_EnergyMeterSwTable.c **** 
 651:C:/Workspace/FW_Platform2_5/trunk/ProductModules/PM_EnergyMeterSw\PM_EnergyMeterSwTable.c ****       break;
 652:C:/Workspace/FW_Platform2_5/trunk/ProductModules/PM_EnergyMeterSw\PM_EnergyMeterSwTable.c ****     }
 653:C:/Workspace/FW_Platform2_5/trunk/ProductModules/PM_EnergyMeterSw\PM_EnergyMeterSwTable.c **** 
 654:C:/Workspace/FW_Platform2_5/trunk/ProductModules/PM_EnergyMeterSw\PM_EnergyMeterSwTable.c ****     if (ui16Vin < ui16CurrentV)
 393                             		.loc 1 654 0
 394 003d 22 1D                   		bgeu	.L64
 655:C:/Workspace/FW_Platform2_5/trunk/ProductModules/PM_EnergyMeterSw\PM_EnergyMeterSwTable.c ****     {
 656:C:/Workspace/FW_Platform2_5/trunk/ProductModules/PM_EnergyMeterSw\PM_EnergyMeterSwTable.c ****       /* Il valore Vin  inferiore al valore di V corrente: fa le opportune impostazioni ed esci 
 657:C:/Workspace/FW_Platform2_5/trunk/ProductModules/PM_EnergyMeterSw\PM_EnergyMeterSwTable.c **** 
 658:C:/Workspace/FW_Platform2_5/trunk/ProductModules/PM_EnergyMeterSw\PM_EnergyMeterSwTable.c ****       if (psYLine->sPoint1.ui8Valid == 1)
 395                             		.loc 1 658 0
 396 003f 58 43                   		movu.B	[r4], r3
 397 0041 61 13                   		cmp	#1, r3
 398 0043 21 0D                   		bne	.L65
 399                             	.LBB38:
 400                             	.LBB39:
 514:C:/Workspace/FW_Platform2_5/trunk/ProductModules/PM_EnergyMeterSw\PM_EnergyMeterSwTable.c ****   psYPoint->ui8Valid  = 1;
 401                             		.loc 1 514 0
 402 0045 81 C3                   		mov.B	r3, 6[r4]
 515:C:/Workspace/FW_Platform2_5/trunk/ProductModules/PM_EnergyMeterSw\PM_EnergyMeterSwTable.c ****   psYPoint->ui16V     = ui16V;
 403                             		.loc 1 515 0
 404 0047 D7 4E 04                		mov.W	r14, 8[r4]
 516:C:/Workspace/FW_Platform2_5/trunk/ProductModules/PM_EnergyMeterSw\PM_EnergyMeterSwTable.c ****   psYPoint->ui16Pw    = ui16Pw;
 405                             		.loc 1 516 0
 406 004a 91 49                   		mov.W	r1, 10[r4]
 407                             		.balign 2,3,1
 408                             	.L75:
 659:C:/Workspace/FW_Platform2_5/trunk/ProductModules/PM_EnergyMeterSw\PM_EnergyMeterSwTable.c ****       {
 660:C:/Workspace/FW_Platform2_5/trunk/ProductModules/PM_EnergyMeterSw\PM_EnergyMeterSwTable.c ****         /* E' gia' stato impostato il punto P1 della retta: imposta il punto P2 */
 661:C:/Workspace/FW_Platform2_5/trunk/ProductModules/PM_EnergyMeterSw\PM_EnergyMeterSwTable.c ****         PointSet(ui16CurrentV, ui16CurrentPw, &(psYLine->sPoint2));
 662:C:/Workspace/FW_Platform2_5/trunk/ProductModules/PM_EnergyMeterSw\PM_EnergyMeterSwTable.c **** 
 663:C:/Workspace/FW_Platform2_5/trunk/ProductModules/PM_EnergyMeterSw\PM_EnergyMeterSwTable.c **** 
 664:C:/Workspace/FW_Platform2_5/trunk/ProductModules/PM_EnergyMeterSw\PM_EnergyMeterSwTable.c ****       }
 665:C:/Workspace/FW_Platform2_5/trunk/ProductModules/PM_EnergyMeterSw\PM_EnergyMeterSwTable.c ****       else
 666:C:/Workspace/FW_Platform2_5/trunk/ProductModules/PM_EnergyMeterSw\PM_EnergyMeterSwTable.c ****       {
 667:C:/Workspace/FW_Platform2_5/trunk/ProductModules/PM_EnergyMeterSw\PM_EnergyMeterSwTable.c ****         /* Non e' stata ancora impostato il punto P1 della retta: impostalo */
 668:C:/Workspace/FW_Platform2_5/trunk/ProductModules/PM_EnergyMeterSw\PM_EnergyMeterSwTable.c ****         PointSet(ui16CurrentV, ui16CurrentPw, &(psYLine->sPoint1));
 669:C:/Workspace/FW_Platform2_5/trunk/ProductModules/PM_EnergyMeterSw\PM_EnergyMeterSwTable.c **** 
 670:C:/Workspace/FW_Platform2_5/trunk/ProductModules/PM_EnergyMeterSw\PM_EnergyMeterSwTable.c **** 
 671:C:/Workspace/FW_Platform2_5/trunk/ProductModules/PM_EnergyMeterSw\PM_EnergyMeterSwTable.c ****       }
 672:C:/Workspace/FW_Platform2_5/trunk/ProductModules/PM_EnergyMeterSw\PM_EnergyMeterSwTable.c **** 
 673:C:/Workspace/FW_Platform2_5/trunk/ProductModules/PM_EnergyMeterSw\PM_EnergyMeterSwTable.c ****       break;
 674:C:/Workspace/FW_Platform2_5/trunk/ProductModules/PM_EnergyMeterSw\PM_EnergyMeterSwTable.c ****     }
 675:C:/Workspace/FW_Platform2_5/trunk/ProductModules/PM_EnergyMeterSw\PM_EnergyMeterSwTable.c **** 
 676:C:/Workspace/FW_Platform2_5/trunk/ProductModules/PM_EnergyMeterSw\PM_EnergyMeterSwTable.c ****     /* ui16Vin > ui16CurrentV */
 677:C:/Workspace/FW_Platform2_5/trunk/ProductModules/PM_EnergyMeterSw\PM_EnergyMeterSwTable.c **** 
 678:C:/Workspace/FW_Platform2_5/trunk/ProductModules/PM_EnergyMeterSw\PM_EnergyMeterSwTable.c ****     /* Il valore Vin  superiore al valore di V corrente: imposta il punto P1 */
 679:C:/Workspace/FW_Platform2_5/trunk/ProductModules/PM_EnergyMeterSw\PM_EnergyMeterSwTable.c ****     PointSet(ui16CurrentV, ui16CurrentPw, &(psYLine->sPoint1));
 680:C:/Workspace/FW_Platform2_5/trunk/ProductModules/PM_EnergyMeterSw\PM_EnergyMeterSwTable.c **** 
 681:C:/Workspace/FW_Platform2_5/trunk/ProductModules/PM_EnergyMeterSw\PM_EnergyMeterSwTable.c **** 
 682:C:/Workspace/FW_Platform2_5/trunk/ProductModules/PM_EnergyMeterSw\PM_EnergyMeterSwTable.c ****     /* confronta il campione successivo */
 683:C:/Workspace/FW_Platform2_5/trunk/ProductModules/PM_EnergyMeterSw\PM_EnergyMeterSwTable.c ****   }
 684:C:/Workspace/FW_Platform2_5/trunk/ProductModules/PM_EnergyMeterSw\PM_EnergyMeterSwTable.c **** 
 685:C:/Workspace/FW_Platform2_5/trunk/ProductModules/PM_EnergyMeterSw\PM_EnergyMeterSwTable.c ****   return EMS_E_OK;
 409                             		.loc 1 685 0
 410 004c 66 01                   		mov.L	#0, r1
 411 004e 2E 24                   		bra	.L60
 412                             	.L65:
 413                             	.LBE39:
 414                             	.LBE38:
 415                             	.LBB40:
 416                             	.LBB41:
 514:C:/Workspace/FW_Platform2_5/trunk/ProductModules/PM_EnergyMeterSw\PM_EnergyMeterSwTable.c ****   psYPoint->ui8Valid  = 1;
 417                             		.loc 1 514 0
 418 0050 3C 40 01                		mov.B	#1, [r4]
 515:C:/Workspace/FW_Platform2_5/trunk/ProductModules/PM_EnergyMeterSw\PM_EnergyMeterSwTable.c ****   psYPoint->ui16V     = ui16V;
 419                             		.loc 1 515 0
 420 0053 D7 4E 01                		mov.W	r14, 2[r4]
 421                             		.balign 2,3,5
 422                             	.L76:
 516:C:/Workspace/FW_Platform2_5/trunk/ProductModules/PM_EnergyMeterSw\PM_EnergyMeterSwTable.c ****   psYPoint->ui16Pw    = ui16Pw;
 423                             		.loc 1 516 0
 424 0056 90 C1                   		mov.W	r1, 4[r4]
 425 0058 2E F4                   		bra	.L75
 426                             	.L64:
 427                             	.LBE41:
 428                             	.LBE40:
 429                             	.LBB42:
 430                             	.LBB43:
 514:C:/Workspace/FW_Platform2_5/trunk/ProductModules/PM_EnergyMeterSw\PM_EnergyMeterSwTable.c ****   psYPoint->ui8Valid  = 1;
 431                             		.loc 1 514 0
 432 005a 3C 40 01                		mov.B	#1, [r4]
 515:C:/Workspace/FW_Platform2_5/trunk/ProductModules/PM_EnergyMeterSw\PM_EnergyMeterSwTable.c ****   psYPoint->ui16V     = ui16V;
 433                             		.loc 1 515 0
 434 005d D7 4E 01                		mov.W	r14, 2[r4]
 516:C:/Workspace/FW_Platform2_5/trunk/ProductModules/PM_EnergyMeterSw\PM_EnergyMeterSwTable.c ****   psYPoint->ui16Pw    = ui16Pw;
 435                             		.loc 1 516 0
 436 0060 90 C1                   		mov.W	r1, 4[r4]
 437                             	.LBE43:
 438                             	.LBE42:
 623:C:/Workspace/FW_Platform2_5/trunk/ProductModules/PM_EnergyMeterSw\PM_EnergyMeterSwTable.c ****   for (ui8ItemIdx = 0; ui8ItemIdx < psCurveY->ui8NItems; ++ui8ItemIdx)
 439                             		.loc 1 623 0
 440 0062 62 15                   		add	#1, r5
 441                             		.balign 2,3,1
 442                             	.L62:
 443 0064 5B 5E                   		movu.B	r5, r14
 444 0066 45 2E 04                		cmp	4[r2].UB, r14
 445 0069 23 BF                   		bltu	.L66
 446 006b 2E E1                   		bra	.L75
 447                             	.L69:
 448                             	.LCFI4:
 449                             	.LBE35:
 450                             	.LBE34:
 602:C:/Workspace/FW_Platform2_5/trunk/ProductModules/PM_EnergyMeterSw\PM_EnergyMeterSwTable.c ****     return EMS_E_INVALID_VALUE;
 451                             		.loc 1 602 0
 452 006d 66 31                   		mov.L	#3, r1
 453 006f 02                      		rts
 454                             	.L70:
 455                             	.LCFI5:
 456 0070 66 31                   		mov.L	#3, r1
 457                             		.balign 2,3,2
 458                             	.L60:
 686:C:/Workspace/FW_Platform2_5/trunk/ProductModules/PM_EnergyMeterSw\PM_EnergyMeterSwTable.c **** }
 459                             		.loc 1 686 0
 460 0072 3F 7B 05                		rtsd	#20, r7-r11
 461                             	.LFE8:
 463 0075 03                      		.section	.text.CalcoloPuntoSuRetta,"ax",@progbits
 464                             		.global	_CalcoloPuntoSuRetta
 466                             	_CalcoloPuntoSuRetta:
 467                             	.LFB9:
 687:C:/Workspace/FW_Platform2_5/trunk/ProductModules/PM_EnergyMeterSw\PM_EnergyMeterSwTable.c **** 
 688:C:/Workspace/FW_Platform2_5/trunk/ProductModules/PM_EnergyMeterSw\PM_EnergyMeterSwTable.c **** 
 689:C:/Workspace/FW_Platform2_5/trunk/ProductModules/PM_EnergyMeterSw\PM_EnergyMeterSwTable.c **** /**
 690:C:/Workspace/FW_Platform2_5/trunk/ProductModules/PM_EnergyMeterSw\PM_EnergyMeterSwTable.c ****   This function computes the value of Z for a line, based on X, one point (X1,Z) and one point (X2,
 691:C:/Workspace/FW_Platform2_5/trunk/ProductModules/PM_EnergyMeterSw\PM_EnergyMeterSwTable.c ****                                           (where X1 < X < X2)
 692:C:/Workspace/FW_Platform2_5/trunk/ProductModules/PM_EnergyMeterSw\PM_EnergyMeterSwTable.c **** 
 693:C:/Workspace/FW_Platform2_5/trunk/ProductModules/PM_EnergyMeterSw\PM_EnergyMeterSwTable.c **** \param  [in]      uint16_t    ui16X
 694:C:/Workspace/FW_Platform2_5/trunk/ProductModules/PM_EnergyMeterSw\PM_EnergyMeterSwTable.c **** \param  [in]      uint16_t    ui16X1
 695:C:/Workspace/FW_Platform2_5/trunk/ProductModules/PM_EnergyMeterSw\PM_EnergyMeterSwTable.c **** \param  [in]      uint16_t    ui16Z1
 696:C:/Workspace/FW_Platform2_5/trunk/ProductModules/PM_EnergyMeterSw\PM_EnergyMeterSwTable.c **** \param  [in]      uint16_t    ui16X2
 697:C:/Workspace/FW_Platform2_5/trunk/ProductModules/PM_EnergyMeterSw\PM_EnergyMeterSwTable.c **** \param  [in]      uint16_t    ui16Z2
 698:C:/Workspace/FW_Platform2_5/trunk/ProductModules/PM_EnergyMeterSw\PM_EnergyMeterSwTable.c **** \param  [out]     uint16_t*   pui16Z
 699:C:/Workspace/FW_Platform2_5/trunk/ProductModules/PM_EnergyMeterSw\PM_EnergyMeterSwTable.c **** \param  [in,out]  none
 700:C:/Workspace/FW_Platform2_5/trunk/ProductModules/PM_EnergyMeterSw\PM_EnergyMeterSwTable.c **** 
 701:C:/Workspace/FW_Platform2_5/trunk/ProductModules/PM_EnergyMeterSw\PM_EnergyMeterSwTable.c **** \attention \b
 702:C:/Workspace/FW_Platform2_5/trunk/ProductModules/PM_EnergyMeterSw\PM_EnergyMeterSwTable.c **** 
 703:C:/Workspace/FW_Platform2_5/trunk/ProductModules/PM_EnergyMeterSw\PM_EnergyMeterSwTable.c **** \return   eEMS_Err - error code
 704:C:/Workspace/FW_Platform2_5/trunk/ProductModules/PM_EnergyMeterSw\PM_EnergyMeterSwTable.c **** 
 705:C:/Workspace/FW_Platform2_5/trunk/ProductModules/PM_EnergyMeterSw\PM_EnergyMeterSwTable.c **** \retval   [none]
 706:C:/Workspace/FW_Platform2_5/trunk/ProductModules/PM_EnergyMeterSw\PM_EnergyMeterSwTable.c **** 
 707:C:/Workspace/FW_Platform2_5/trunk/ProductModules/PM_EnergyMeterSw\PM_EnergyMeterSwTable.c **** \warning  [none]
 708:C:/Workspace/FW_Platform2_5/trunk/ProductModules/PM_EnergyMeterSw\PM_EnergyMeterSwTable.c **** 
 709:C:/Workspace/FW_Platform2_5/trunk/ProductModules/PM_EnergyMeterSw\PM_EnergyMeterSwTable.c **** \author   Intecs
 710:C:/Workspace/FW_Platform2_5/trunk/ProductModules/PM_EnergyMeterSw\PM_EnergyMeterSwTable.c **** \date     08-09-2011
 711:C:/Workspace/FW_Platform2_5/trunk/ProductModules/PM_EnergyMeterSw\PM_EnergyMeterSwTable.c **** \version  1.0.0
 712:C:/Workspace/FW_Platform2_5/trunk/ProductModules/PM_EnergyMeterSw\PM_EnergyMeterSwTable.c **** 
 713:C:/Workspace/FW_Platform2_5/trunk/ProductModules/PM_EnergyMeterSw\PM_EnergyMeterSwTable.c **** \bug    [none]
 714:C:/Workspace/FW_Platform2_5/trunk/ProductModules/PM_EnergyMeterSw\PM_EnergyMeterSwTable.c **** 
 715:C:/Workspace/FW_Platform2_5/trunk/ProductModules/PM_EnergyMeterSw\PM_EnergyMeterSwTable.c **** 
 716:C:/Workspace/FW_Platform2_5/trunk/ProductModules/PM_EnergyMeterSw\PM_EnergyMeterSwTable.c **** 
 717:C:/Workspace/FW_Platform2_5/trunk/ProductModules/PM_EnergyMeterSw\PM_EnergyMeterSwTable.c **** \note   \par \b Nota 1:
 718:C:/Workspace/FW_Platform2_5/trunk/ProductModules/PM_EnergyMeterSw\PM_EnergyMeterSwTable.c ****       documentation by ${Intecs}
 719:C:/Workspace/FW_Platform2_5/trunk/ProductModules/PM_EnergyMeterSw\PM_EnergyMeterSwTable.c **** */
 720:C:/Workspace/FW_Platform2_5/trunk/ProductModules/PM_EnergyMeterSw\PM_EnergyMeterSwTable.c **** STATIC eEMS_Err CalcoloPuntoSuRetta (uint16_t ui16X,
 721:C:/Workspace/FW_Platform2_5/trunk/ProductModules/PM_EnergyMeterSw\PM_EnergyMeterSwTable.c ****                                      uint16_t ui16X1, uint16_t ui16Z1,
 722:C:/Workspace/FW_Platform2_5/trunk/ProductModules/PM_EnergyMeterSw\PM_EnergyMeterSwTable.c ****                                      uint16_t ui16X2, uint16_t ui16Z2,
 723:C:/Workspace/FW_Platform2_5/trunk/ProductModules/PM_EnergyMeterSw\PM_EnergyMeterSwTable.c ****                                      uint16_t* pui16Z)
 724:C:/Workspace/FW_Platform2_5/trunk/ProductModules/PM_EnergyMeterSw\PM_EnergyMeterSwTable.c **** {
 468                             		.loc 1 724 0
 469                             	.LVL41:
 470 0000 7E A7                   		push.l	r7
 471                             	.LCFI6:
 472 0002 60 80                   		sub	#8, r0
 473                             	.LCFI7:
 474                             		.loc 1 724 0
 475 0004 75 47 10                		mov.L	#16, r7
 476 0007 4B 07                   		add	r0, r7
 477 0009 ED 7E 01                		mov.L	4[r7], r14
 478 000c DC 7F                   		mov.W	[r7], r15
 725:C:/Workspace/FW_Platform2_5/trunk/ProductModules/PM_EnergyMeterSw\PM_EnergyMeterSwTable.c ****   int32_t i32Z;
 726:C:/Workspace/FW_Platform2_5/trunk/ProductModules/PM_EnergyMeterSw\PM_EnergyMeterSwTable.c **** 
 727:C:/Workspace/FW_Platform2_5/trunk/ProductModules/PM_EnergyMeterSw\PM_EnergyMeterSwTable.c **** 
 728:C:/Workspace/FW_Platform2_5/trunk/ProductModules/PM_EnergyMeterSw\PM_EnergyMeterSwTable.c **** #if CHECK_TABLE
 729:C:/Workspace/FW_Platform2_5/trunk/ProductModules/PM_EnergyMeterSw\PM_EnergyMeterSwTable.c ****   if (pui16Z == NULL)
 479                             		.loc 1 729 0
 480 000e 61 0E                   		cmp	#0, r14
 481 0010 20 32                   		beq	.L82
 730:C:/Workspace/FW_Platform2_5/trunk/ProductModules/PM_EnergyMeterSw\PM_EnergyMeterSwTable.c ****   {
 731:C:/Workspace/FW_Platform2_5/trunk/ProductModules/PM_EnergyMeterSw\PM_EnergyMeterSwTable.c ****     return EMS_E_INVALID_VALUE;
 732:C:/Workspace/FW_Platform2_5/trunk/ProductModules/PM_EnergyMeterSw\PM_EnergyMeterSwTable.c ****   }
 733:C:/Workspace/FW_Platform2_5/trunk/ProductModules/PM_EnergyMeterSw\PM_EnergyMeterSwTable.c **** 
 734:C:/Workspace/FW_Platform2_5/trunk/ProductModules/PM_EnergyMeterSw\PM_EnergyMeterSwTable.c ****   /* Verifica che i valori di X, X1 e X2 siano validi */
 735:C:/Workspace/FW_Platform2_5/trunk/ProductModules/PM_EnergyMeterSw\PM_EnergyMeterSwTable.c ****   if ((ui16X <= ui16X1) || (ui16X >= ui16X2))
 482                             		.loc 1 735 0
 483 0012 5F 11                   		movu.W	r1, r1
 484 0014 5F 22                   		movu.W	r2, r2
 485 0016 47 21                   		cmp	r2, r1
 486 0018 25 2A                   		bleu	.L82
 487                             		.loc 1 735 0 is_stmt 0 discriminator 1
 488 001a 5F 44                   		movu.W	r4, r4
 489 001c 47 41                   		cmp	r4, r1
 490 001e 22 24                   		bgeu	.L82
 491                             	.LVL42:
 492                             	.LBB46:
 493                             	.LBB47:
 736:C:/Workspace/FW_Platform2_5/trunk/ProductModules/PM_EnergyMeterSw\PM_EnergyMeterSwTable.c ****   {
 737:C:/Workspace/FW_Platform2_5/trunk/ProductModules/PM_EnergyMeterSw\PM_EnergyMeterSwTable.c ****     return EMS_E_INVALID_VALUE;
 738:C:/Workspace/FW_Platform2_5/trunk/ProductModules/PM_EnergyMeterSw\PM_EnergyMeterSwTable.c ****   }
 739:C:/Workspace/FW_Platform2_5/trunk/ProductModules/PM_EnergyMeterSw\PM_EnergyMeterSwTable.c **** #endif
 740:C:/Workspace/FW_Platform2_5/trunk/ProductModules/PM_EnergyMeterSw\PM_EnergyMeterSwTable.c **** 
 741:C:/Workspace/FW_Platform2_5/trunk/ProductModules/PM_EnergyMeterSw\PM_EnergyMeterSwTable.c ****   /* X1 < X < X2 */
 742:C:/Workspace/FW_Platform2_5/trunk/ProductModules/PM_EnergyMeterSw\PM_EnergyMeterSwTable.c **** 
 743:C:/Workspace/FW_Platform2_5/trunk/ProductModules/PM_EnergyMeterSw\PM_EnergyMeterSwTable.c ****   if (ui16Z1 == ui16Z2)
 494                             		.loc 1 743 0 is_stmt 1
 495 0020 5F 35                   		movu.W	r3, r5
 496 0022 5F F7                   		movu.W	r15, r7
 497 0024 47 75                   		cmp	r7, r5
 498 0026 21 06                   		bne	.L79
 744:C:/Workspace/FW_Platform2_5/trunk/ProductModules/PM_EnergyMeterSw\PM_EnergyMeterSwTable.c ****   {
 745:C:/Workspace/FW_Platform2_5/trunk/ProductModules/PM_EnergyMeterSw\PM_EnergyMeterSwTable.c ****     /*  una retta a Z costante */
 746:C:/Workspace/FW_Platform2_5/trunk/ProductModules/PM_EnergyMeterSw\PM_EnergyMeterSwTable.c ****     *pui16Z = ui16Z1;
 499                             		.loc 1 746 0
 500 0028 D3 E3                   		mov.W	r3, [r14]
 501 002a 2E 14                   		bra	.L84
 502                             	.L79:
 747:C:/Workspace/FW_Platform2_5/trunk/ProductModules/PM_EnergyMeterSw\PM_EnergyMeterSwTable.c **** 
 748:C:/Workspace/FW_Platform2_5/trunk/ProductModules/PM_EnergyMeterSw\PM_EnergyMeterSwTable.c ****     /* Z == Z1 == Z2 */
 749:C:/Workspace/FW_Platform2_5/trunk/ProductModules/PM_EnergyMeterSw\PM_EnergyMeterSwTable.c ****   }
 750:C:/Workspace/FW_Platform2_5/trunk/ProductModules/PM_EnergyMeterSw\PM_EnergyMeterSwTable.c ****   else
 751:C:/Workspace/FW_Platform2_5/trunk/ProductModules/PM_EnergyMeterSw\PM_EnergyMeterSwTable.c ****   {
 752:C:/Workspace/FW_Platform2_5/trunk/ProductModules/PM_EnergyMeterSw\PM_EnergyMeterSwTable.c ****     /* Z1 != Z2 */
 753:C:/Workspace/FW_Platform2_5/trunk/ProductModules/PM_EnergyMeterSw\PM_EnergyMeterSwTable.c **** #if 0
 754:C:/Workspace/FW_Platform2_5/trunk/ProductModules/PM_EnergyMeterSw\PM_EnergyMeterSwTable.c ****     *pui16Z = ui16Z1 + ((ui16Z2 - ui16Z1) * (ui16X - ui16X1) / (ui16X2 - ui16X1));
 755:C:/Workspace/FW_Platform2_5/trunk/ProductModules/PM_EnergyMeterSw\PM_EnergyMeterSwTable.c **** #else
 756:C:/Workspace/FW_Platform2_5/trunk/ProductModules/PM_EnergyMeterSw\PM_EnergyMeterSwTable.c ****     i32Z     = (int32_t)ui16Z2 - (int32_t)ui16Z1;
 503                             		.loc 1 756 0
 504 002c FF 03 57                		sub	r5, r7, r3
 505                             	.LVL43:
 757:C:/Workspace/FW_Platform2_5/trunk/ProductModules/PM_EnergyMeterSw\PM_EnergyMeterSwTable.c ****     i32Z    *= (int32_t)ui16X  - (int32_t)ui16X1;
 506                             		.loc 1 757 0
 507 002f 43 21                   		sub	r2, r1
 508                             	.LVL44:
 509 0031 4F 13                   		mul	r1, r3
 510                             	.LVL45:
 758:C:/Workspace/FW_Platform2_5/trunk/ProductModules/PM_EnergyMeterSw\PM_EnergyMeterSwTable.c ****     i32Z    /= (int32_t)ui16X2 - (int32_t)ui16X1;
 511                             		.loc 1 758 0
 512 0033 FF 02 24                		sub	r2, r4, r2
 513                             	.LVL46:
 514 0036 FC 23 23                		div	r2, r3
 515                             	.LVL47:
 759:C:/Workspace/FW_Platform2_5/trunk/ProductModules/PM_EnergyMeterSw\PM_EnergyMeterSwTable.c ****     i32Z    += (int32_t)ui16Z1;
 516                             		.loc 1 759 0
 517 0039 4B 35                   		add	r3, r5
 518                             	.LVL48:
 760:C:/Workspace/FW_Platform2_5/trunk/ProductModules/PM_EnergyMeterSw\PM_EnergyMeterSwTable.c ****     *pui16Z  = (uint16_t)i32Z;
 519                             		.loc 1 760 0
 520 003b D3 E5                   		mov.W	r5, [r14]
 521                             	.LVL49:
 522 003d 03                      		.balign 2,3,1
 523                             	.L84:
 524 003e 66 01                   		mov.L	#0, r1
 525 0040 2E 04                   		bra	.L78
 526                             	.LVL50:
 527                             	.L82:
 528                             	.LBE47:
 529                             	.LBE46:
 731:C:/Workspace/FW_Platform2_5/trunk/ProductModules/PM_EnergyMeterSw\PM_EnergyMeterSwTable.c ****     return EMS_E_INVALID_VALUE;
 530                             		.loc 1 731 0
 531 0042 66 31                   		mov.L	#3, r1
 532                             	.LVL51:
 533                             		.balign 2,3,2
 534                             	.L78:
 761:C:/Workspace/FW_Platform2_5/trunk/ProductModules/PM_EnergyMeterSw\PM_EnergyMeterSwTable.c **** 
 762:C:/Workspace/FW_Platform2_5/trunk/ProductModules/PM_EnergyMeterSw\PM_EnergyMeterSwTable.c ****     /* min(Z1,Z2) < Z < max(Z1,Z2) */
 763:C:/Workspace/FW_Platform2_5/trunk/ProductModules/PM_EnergyMeterSw\PM_EnergyMeterSwTable.c **** #endif
 764:C:/Workspace/FW_Platform2_5/trunk/ProductModules/PM_EnergyMeterSw\PM_EnergyMeterSwTable.c **** 
 765:C:/Workspace/FW_Platform2_5/trunk/ProductModules/PM_EnergyMeterSw\PM_EnergyMeterSwTable.c **** 
 766:C:/Workspace/FW_Platform2_5/trunk/ProductModules/PM_EnergyMeterSw\PM_EnergyMeterSwTable.c ****   }
 767:C:/Workspace/FW_Platform2_5/trunk/ProductModules/PM_EnergyMeterSw\PM_EnergyMeterSwTable.c **** 
 768:C:/Workspace/FW_Platform2_5/trunk/ProductModules/PM_EnergyMeterSw\PM_EnergyMeterSwTable.c ****   return EMS_E_OK;
 769:C:/Workspace/FW_Platform2_5/trunk/ProductModules/PM_EnergyMeterSw\PM_EnergyMeterSwTable.c **** }
 535                             		.loc 1 769 0
 536 0044 3F 77 03                		rtsd	#12, r7-r7
 537                             	.LFE9:
 539 0047 03                      		.section	.text.TableCalibSingola,"ax",@progbits
 540                             		.global	_TableCalibSingola
 542                             	_TableCalibSingola:
 543                             	.LFB10:
 770:C:/Workspace/FW_Platform2_5/trunk/ProductModules/PM_EnergyMeterSw\PM_EnergyMeterSwTable.c **** 
 771:C:/Workspace/FW_Platform2_5/trunk/ProductModules/PM_EnergyMeterSw\PM_EnergyMeterSwTable.c **** 
 772:C:/Workspace/FW_Platform2_5/trunk/ProductModules/PM_EnergyMeterSw\PM_EnergyMeterSwTable.c **** /*------------------------------------
 773:C:/Workspace/FW_Platform2_5/trunk/ProductModules/PM_EnergyMeterSw\PM_EnergyMeterSwTable.c ****  computes the power based on Vin and
 774:C:/Workspace/FW_Platform2_5/trunk/ProductModules/PM_EnergyMeterSw\PM_EnergyMeterSwTable.c ****  a Y curve
 775:C:/Workspace/FW_Platform2_5/trunk/ProductModules/PM_EnergyMeterSw\PM_EnergyMeterSwTable.c ****  -------------------------------------*/
 776:C:/Workspace/FW_Platform2_5/trunk/ProductModules/PM_EnergyMeterSw\PM_EnergyMeterSwTable.c **** eEMS_Err TableCalibSingola (const stTable_t* psTable, uint16_t ui16Vin,
 777:C:/Workspace/FW_Platform2_5/trunk/ProductModules/PM_EnergyMeterSw\PM_EnergyMeterSwTable.c ****                             const stTableCurveY_t* psCurveY, uint16_t* pui16Power)
 778:C:/Workspace/FW_Platform2_5/trunk/ProductModules/PM_EnergyMeterSw\PM_EnergyMeterSwTable.c **** {
 544                             		.loc 1 778 0
 545                             	.LVL52:
 546 0000 6E 7C                   		pushm	r7-r12
 547                             	.LCFI8:
 548 0002 71 00 EC                		add	#-20, r0
 549                             	.LCFI9:
 779:C:/Workspace/FW_Platform2_5/trunk/ProductModules/PM_EnergyMeterSw\PM_EnergyMeterSwTable.c ****   stCurveYLine_t sLineY; /* retta su Y */
 780:C:/Workspace/FW_Platform2_5/trunk/ProductModules/PM_EnergyMeterSw\PM_EnergyMeterSwTable.c ****   uint8_t aui8Result;
 781:C:/Workspace/FW_Platform2_5/trunk/ProductModules/PM_EnergyMeterSw\PM_EnergyMeterSwTable.c **** 
 782:C:/Workspace/FW_Platform2_5/trunk/ProductModules/PM_EnergyMeterSw\PM_EnergyMeterSwTable.c **** 
 783:C:/Workspace/FW_Platform2_5/trunk/ProductModules/PM_EnergyMeterSw\PM_EnergyMeterSwTable.c **** #if CHECK_TABLE
 784:C:/Workspace/FW_Platform2_5/trunk/ProductModules/PM_EnergyMeterSw\PM_EnergyMeterSwTable.c ****   if (pui16Power == NULL)
 550                             		.loc 1 784 0
 551 0005 71 47 00                		add	#0, r4, r7
 552 0008 21 06                   		bne	.L86
 553                             	.LVL53:
 554                             		.balign 2,3,1
 555                             	.L88:
 785:C:/Workspace/FW_Platform2_5/trunk/ProductModules/PM_EnergyMeterSw\PM_EnergyMeterSwTable.c ****   {
 786:C:/Workspace/FW_Platform2_5/trunk/ProductModules/PM_EnergyMeterSw\PM_EnergyMeterSwTable.c ****     return EMS_E_INVALID_VALUE;
 556                             		.loc 1 786 0
 557 000a 66 31                   		mov.L	#3, r1
 558 000c 2E 48                   		bra	.L87
 559                             	.LVL54:
 560                             	.L86:
 561 000e EF 1B                   		mov.L	r1, r11
 787:C:/Workspace/FW_Platform2_5/trunk/ProductModules/PM_EnergyMeterSw\PM_EnergyMeterSwTable.c ****   }
 788:C:/Workspace/FW_Platform2_5/trunk/ProductModules/PM_EnergyMeterSw\PM_EnergyMeterSwTable.c **** #endif
 789:C:/Workspace/FW_Platform2_5/trunk/ProductModules/PM_EnergyMeterSw\PM_EnergyMeterSwTable.c **** 
 790:C:/Workspace/FW_Platform2_5/trunk/ProductModules/PM_EnergyMeterSw\PM_EnergyMeterSwTable.c ****   /* init lines*/
 791:C:/Workspace/FW_Platform2_5/trunk/ProductModules/PM_EnergyMeterSw\PM_EnergyMeterSwTable.c ****   LineInit(&sLineY);
 562                             		.loc 1 791 0
 563 0010 66 81                   		mov.L	#8, r1
 564                             	.LVL55:
 565 0012 4B 01                   		add	r0, r1
 566 0014 DF 2A                   		mov.W	r2, r10
 567 0016 EF 3C                   		mov.L	r3, r12
 568 0018 05 00 00 00             		bsr	_LineInit
 569                             	.LVL56:
 792:C:/Workspace/FW_Platform2_5/trunk/ProductModules/PM_EnergyMeterSw\PM_EnergyMeterSwTable.c **** 
 793:C:/Workspace/FW_Platform2_5/trunk/ProductModules/PM_EnergyMeterSw\PM_EnergyMeterSwTable.c ****   /* cerca sulla curva Y la retta che include Vin */
 794:C:/Workspace/FW_Platform2_5/trunk/ProductModules/PM_EnergyMeterSw\PM_EnergyMeterSwTable.c ****   aui8Result = CurveYFindPoints(psTable, psCurveY, ui16Vin, &sLineY);
 570                             		.loc 1 794 0
 571 001c 66 84                   		mov.L	#8, r4
 572 001e 4B 04                   		add	r0, r4
 573 0020 EF B1                   		mov.L	r11, r1
 574 0022 EF C2                   		mov.L	r12, r2
 575 0024 DF A3                   		mov.W	r10, r3
 576 0026 05 00 00 00             		bsr	_CurveYFindPoints
 577                             	.LVL57:
 795:C:/Workspace/FW_Platform2_5/trunk/ProductModules/PM_EnergyMeterSw\PM_EnergyMeterSwTable.c ****   if ((aui8Result != EMS_E_OK) || (sLineY.sPoint1.ui8Valid == 0))
 578                             		.loc 1 795 0
 579 002a 5B 11                   		movu.B	r1, r1
 580 002c 61 01                   		cmp	#0, r1
 581 002e 21 DC                   		bne	.L88
 582                             		.loc 1 795 0 is_stmt 0 discriminator 1
 583 0030 59 0B 08                		movu.B	8[r0], r11
 584                             	.LVL58:
 585 0033 61 0B                   		cmp	#0, r11
 586 0035 20 D5                   		beq	.L88
 796:C:/Workspace/FW_Platform2_5/trunk/ProductModules/PM_EnergyMeterSw\PM_EnergyMeterSwTable.c ****   {
 797:C:/Workspace/FW_Platform2_5/trunk/ProductModules/PM_EnergyMeterSw\PM_EnergyMeterSwTable.c ****     return EMS_E_INVALID_VALUE;
 798:C:/Workspace/FW_Platform2_5/trunk/ProductModules/PM_EnergyMeterSw\PM_EnergyMeterSwTable.c ****   }
 799:C:/Workspace/FW_Platform2_5/trunk/ProductModules/PM_EnergyMeterSw\PM_EnergyMeterSwTable.c **** 
 800:C:/Workspace/FW_Platform2_5/trunk/ProductModules/PM_EnergyMeterSw\PM_EnergyMeterSwTable.c ****   /* trovato almeno un punto sulla curva Y */
 801:C:/Workspace/FW_Platform2_5/trunk/ProductModules/PM_EnergyMeterSw\PM_EnergyMeterSwTable.c **** 
 802:C:/Workspace/FW_Platform2_5/trunk/ProductModules/PM_EnergyMeterSw\PM_EnergyMeterSwTable.c ****   if (sLineY.sPoint2.ui8Valid == 0)
 587                             		.loc 1 802 0 is_stmt 1
 588 0037 B3 81                   		movu.B	14[r0], r1
 589                             	.LVL59:
 590 0039 99 83                   		mov.W	12[r0], r3
 591 003b 61 01                   		cmp	#0, r1
 592 003d 21 06                   		bne	.L89
 803:C:/Workspace/FW_Platform2_5/trunk/ProductModules/PM_EnergyMeterSw\PM_EnergyMeterSwTable.c ****   {
 804:C:/Workspace/FW_Platform2_5/trunk/ProductModules/PM_EnergyMeterSw\PM_EnergyMeterSwTable.c ****     /* trovato un punto sulla curva Y */
 805:C:/Workspace/FW_Platform2_5/trunk/ProductModules/PM_EnergyMeterSw\PM_EnergyMeterSwTable.c ****     *pui16Power = sLineY.sPoint1.ui16Pw;
 593                             		.loc 1 805 0
 594 003f D3 73                   		mov.W	r3, [r7]
 595 0041 2E 13                   		bra	.L87
 596                             	.L89:
 806:C:/Workspace/FW_Platform2_5/trunk/ProductModules/PM_EnergyMeterSw\PM_EnergyMeterSwTable.c **** 
 807:C:/Workspace/FW_Platform2_5/trunk/ProductModules/PM_EnergyMeterSw\PM_EnergyMeterSwTable.c ****     return EMS_E_OK;
 808:C:/Workspace/FW_Platform2_5/trunk/ProductModules/PM_EnergyMeterSw\PM_EnergyMeterSwTable.c ****   }
 809:C:/Workspace/FW_Platform2_5/trunk/ProductModules/PM_EnergyMeterSw\PM_EnergyMeterSwTable.c ****   else
 810:C:/Workspace/FW_Platform2_5/trunk/ProductModules/PM_EnergyMeterSw\PM_EnergyMeterSwTable.c ****   {
 811:C:/Workspace/FW_Platform2_5/trunk/ProductModules/PM_EnergyMeterSw\PM_EnergyMeterSwTable.c ****     /* trovata una retta sulla curva Y */
 812:C:/Workspace/FW_Platform2_5/trunk/ProductModules/PM_EnergyMeterSw\PM_EnergyMeterSwTable.c ****     return CalcoloPuntoSuRetta(ui16Vin,
 597                             		.loc 1 812 0
 598 0043 DD 0B 09                		mov.W	18[r0], r11
 599 0046 99 0A                   		mov.W	10[r0], r2
 600 0048 9A 04                   		mov.W	16[r0], r4
 601 004a D3 0B                   		mov.W	r11, [r0]
 602 004c A0 0F                   		mov.L	r7, 4[r0]
 603 004e DF A1                   		mov.W	r10, r1
 604 0050 05 00 00 00             		bsr	_CalcoloPuntoSuRetta
 605                             	.LVL60:
 606                             		.balign 2,3,2
 607                             	.L87:
 813:C:/Workspace/FW_Platform2_5/trunk/ProductModules/PM_EnergyMeterSw\PM_EnergyMeterSwTable.c ****                                sLineY.sPoint1.ui16V, sLineY.sPoint1.ui16Pw,
 814:C:/Workspace/FW_Platform2_5/trunk/ProductModules/PM_EnergyMeterSw\PM_EnergyMeterSwTable.c ****                                sLineY.sPoint2.ui16V, sLineY.sPoint2.ui16Pw,
 815:C:/Workspace/FW_Platform2_5/trunk/ProductModules/PM_EnergyMeterSw\PM_EnergyMeterSwTable.c ****                                pui16Power);
 816:C:/Workspace/FW_Platform2_5/trunk/ProductModules/PM_EnergyMeterSw\PM_EnergyMeterSwTable.c ****   }
 817:C:/Workspace/FW_Platform2_5/trunk/ProductModules/PM_EnergyMeterSw\PM_EnergyMeterSwTable.c **** }
 608                             		.loc 1 817 0
 609 0054 3F 7C 0B                		rtsd	#44, r7-r12
 610                             	.LFE10:
 612 0057 03                      		.section	.text.TableCalibDoppia_Punti,"ax",@progbits
 613                             		.global	_TableCalibDoppia_Punti
 615                             	_TableCalibDoppia_Punti:
 616                             	.LFB11:
 818:C:/Workspace/FW_Platform2_5/trunk/ProductModules/PM_EnergyMeterSw\PM_EnergyMeterSwTable.c **** 
 819:C:/Workspace/FW_Platform2_5/trunk/ProductModules/PM_EnergyMeterSw\PM_EnergyMeterSwTable.c **** 
 820:C:/Workspace/FW_Platform2_5/trunk/ProductModules/PM_EnergyMeterSw\PM_EnergyMeterSwTable.c **** /**
 821:C:/Workspace/FW_Platform2_5/trunk/ProductModules/PM_EnergyMeterSw\PM_EnergyMeterSwTable.c ****   This function computes the power based on Yx, one power (P1) on the curve Y1 and one power (P1) o
 822:C:/Workspace/FW_Platform2_5/trunk/ProductModules/PM_EnergyMeterSw\PM_EnergyMeterSwTable.c **** 
 823:C:/Workspace/FW_Platform2_5/trunk/ProductModules/PM_EnergyMeterSw\PM_EnergyMeterSwTable.c **** \param  [in]      uint16_t    ui16Yx      [the value of Yx]
 824:C:/Workspace/FW_Platform2_5/trunk/ProductModules/PM_EnergyMeterSw\PM_EnergyMeterSwTable.c **** \param  [in]      uint16_t    ui16Y1      [the value of Y1]
 825:C:/Workspace/FW_Platform2_5/trunk/ProductModules/PM_EnergyMeterSw\PM_EnergyMeterSwTable.c **** \param  [in]      uint16_t    ui16P1      [the value of power on Y1]
 826:C:/Workspace/FW_Platform2_5/trunk/ProductModules/PM_EnergyMeterSw\PM_EnergyMeterSwTable.c **** \param  [in]      uint16_t    ui16Y2      [the value of Y2]
 827:C:/Workspace/FW_Platform2_5/trunk/ProductModules/PM_EnergyMeterSw\PM_EnergyMeterSwTable.c **** \param  [in]      uint16_t    ui16P2      [the value of power on Y2]
 828:C:/Workspace/FW_Platform2_5/trunk/ProductModules/PM_EnergyMeterSw\PM_EnergyMeterSwTable.c **** \param  [out]     uint16_t*   pui16Power  [pointer to the power calculated]
 829:C:/Workspace/FW_Platform2_5/trunk/ProductModules/PM_EnergyMeterSw\PM_EnergyMeterSwTable.c **** \param  [in,out]  none
 830:C:/Workspace/FW_Platform2_5/trunk/ProductModules/PM_EnergyMeterSw\PM_EnergyMeterSwTable.c **** 
 831:C:/Workspace/FW_Platform2_5/trunk/ProductModules/PM_EnergyMeterSw\PM_EnergyMeterSwTable.c **** \attention \b
 832:C:/Workspace/FW_Platform2_5/trunk/ProductModules/PM_EnergyMeterSw\PM_EnergyMeterSwTable.c **** 
 833:C:/Workspace/FW_Platform2_5/trunk/ProductModules/PM_EnergyMeterSw\PM_EnergyMeterSwTable.c **** \return   eEMS_Err - error code
 834:C:/Workspace/FW_Platform2_5/trunk/ProductModules/PM_EnergyMeterSw\PM_EnergyMeterSwTable.c **** 
 835:C:/Workspace/FW_Platform2_5/trunk/ProductModules/PM_EnergyMeterSw\PM_EnergyMeterSwTable.c **** \retval   [none]
 836:C:/Workspace/FW_Platform2_5/trunk/ProductModules/PM_EnergyMeterSw\PM_EnergyMeterSwTable.c **** 
 837:C:/Workspace/FW_Platform2_5/trunk/ProductModules/PM_EnergyMeterSw\PM_EnergyMeterSwTable.c **** \warning  [none]
 838:C:/Workspace/FW_Platform2_5/trunk/ProductModules/PM_EnergyMeterSw\PM_EnergyMeterSwTable.c **** 
 839:C:/Workspace/FW_Platform2_5/trunk/ProductModules/PM_EnergyMeterSw\PM_EnergyMeterSwTable.c **** \author   Intecs
 840:C:/Workspace/FW_Platform2_5/trunk/ProductModules/PM_EnergyMeterSw\PM_EnergyMeterSwTable.c **** \date     08-09-2011
 841:C:/Workspace/FW_Platform2_5/trunk/ProductModules/PM_EnergyMeterSw\PM_EnergyMeterSwTable.c **** \version  1.0.0
 842:C:/Workspace/FW_Platform2_5/trunk/ProductModules/PM_EnergyMeterSw\PM_EnergyMeterSwTable.c **** 
 843:C:/Workspace/FW_Platform2_5/trunk/ProductModules/PM_EnergyMeterSw\PM_EnergyMeterSwTable.c **** \bug    [none]
 844:C:/Workspace/FW_Platform2_5/trunk/ProductModules/PM_EnergyMeterSw\PM_EnergyMeterSwTable.c **** 
 845:C:/Workspace/FW_Platform2_5/trunk/ProductModules/PM_EnergyMeterSw\PM_EnergyMeterSwTable.c **** 
 846:C:/Workspace/FW_Platform2_5/trunk/ProductModules/PM_EnergyMeterSw\PM_EnergyMeterSwTable.c **** 
 847:C:/Workspace/FW_Platform2_5/trunk/ProductModules/PM_EnergyMeterSw\PM_EnergyMeterSwTable.c **** \note   \par \b Nota 1:
 848:C:/Workspace/FW_Platform2_5/trunk/ProductModules/PM_EnergyMeterSw\PM_EnergyMeterSwTable.c ****       documentation by ${Intecs}
 849:C:/Workspace/FW_Platform2_5/trunk/ProductModules/PM_EnergyMeterSw\PM_EnergyMeterSwTable.c **** */
 850:C:/Workspace/FW_Platform2_5/trunk/ProductModules/PM_EnergyMeterSw\PM_EnergyMeterSwTable.c **** STATIC eEMS_Err TableCalibDoppia_Punti (uint16_t ui16Yx,
 851:C:/Workspace/FW_Platform2_5/trunk/ProductModules/PM_EnergyMeterSw\PM_EnergyMeterSwTable.c ****                                         uint16_t ui16Y1, uint16_t ui16P1,
 852:C:/Workspace/FW_Platform2_5/trunk/ProductModules/PM_EnergyMeterSw\PM_EnergyMeterSwTable.c ****                                         uint16_t ui16Y2, uint16_t ui16P2,
 853:C:/Workspace/FW_Platform2_5/trunk/ProductModules/PM_EnergyMeterSw\PM_EnergyMeterSwTable.c ****                                         uint16_t* pui16Power)
 854:C:/Workspace/FW_Platform2_5/trunk/ProductModules/PM_EnergyMeterSw\PM_EnergyMeterSwTable.c **** {
 617                             		.loc 1 854 0
 618                             	.LVL61:
 619 0000 7E A7                   		push.l	r7
 620                             	.LCFI10:
 621 0002 60 80                   		sub	#8, r0
 622                             	.LCFI11:
 855:C:/Workspace/FW_Platform2_5/trunk/ProductModules/PM_EnergyMeterSw\PM_EnergyMeterSwTable.c **** 
 856:C:/Workspace/FW_Platform2_5/trunk/ProductModules/PM_EnergyMeterSw\PM_EnergyMeterSwTable.c **** 
 857:C:/Workspace/FW_Platform2_5/trunk/ProductModules/PM_EnergyMeterSw\PM_EnergyMeterSwTable.c ****   return CalcoloPuntoSuRetta(ui16Yx,
 858:C:/Workspace/FW_Platform2_5/trunk/ProductModules/PM_EnergyMeterSw\PM_EnergyMeterSwTable.c ****                              ui16Y1, ui16P1,
 859:C:/Workspace/FW_Platform2_5/trunk/ProductModules/PM_EnergyMeterSw\PM_EnergyMeterSwTable.c ****                              ui16Y2, ui16P2,
 860:C:/Workspace/FW_Platform2_5/trunk/ProductModules/PM_EnergyMeterSw\PM_EnergyMeterSwTable.c ****                              pui16Power);
 861:C:/Workspace/FW_Platform2_5/trunk/ProductModules/PM_EnergyMeterSw\PM_EnergyMeterSwTable.c **** }
 623                             		.loc 1 861 0
 624 0004 62 80                   		add	#8, r0
 625 0006 7E B7                   		pop	r7
 857:C:/Workspace/FW_Platform2_5/trunk/ProductModules/PM_EnergyMeterSw\PM_EnergyMeterSwTable.c ****   return CalcoloPuntoSuRetta(ui16Yx,
 626                             		.loc 1 857 0
 627 0008 04 00 00 00             		bra	_CalcoloPuntoSuRetta
 628                             	.LVL62:
 629                             	.LFE11:
 631                             		.section	.text.TableCalibDoppia_PuntoRetta,"ax",@progbits
 632                             		.global	_TableCalibDoppia_PuntoRetta
 634                             	_TableCalibDoppia_PuntoRetta:
 635                             	.LFB12:
 862:C:/Workspace/FW_Platform2_5/trunk/ProductModules/PM_EnergyMeterSw\PM_EnergyMeterSwTable.c **** 
 863:C:/Workspace/FW_Platform2_5/trunk/ProductModules/PM_EnergyMeterSw\PM_EnergyMeterSwTable.c **** 
 864:C:/Workspace/FW_Platform2_5/trunk/ProductModules/PM_EnergyMeterSw\PM_EnergyMeterSwTable.c **** /**
 865:C:/Workspace/FW_Platform2_5/trunk/ProductModules/PM_EnergyMeterSw\PM_EnergyMeterSwTable.c ****   This function computes the power based on Yx, Vin, one power (P1) on the curve Y1 and one line on
 866:C:/Workspace/FW_Platform2_5/trunk/ProductModules/PM_EnergyMeterSw\PM_EnergyMeterSwTable.c **** 
 867:C:/Workspace/FW_Platform2_5/trunk/ProductModules/PM_EnergyMeterSw\PM_EnergyMeterSwTable.c **** \param  [in]      uint16_t          ui16Yx      [the value of Yx]
 868:C:/Workspace/FW_Platform2_5/trunk/ProductModules/PM_EnergyMeterSw\PM_EnergyMeterSwTable.c **** \param  [in]      uint16_t          ui16Vin     [the value of Vin]
 869:C:/Workspace/FW_Platform2_5/trunk/ProductModules/PM_EnergyMeterSw\PM_EnergyMeterSwTable.c **** \param  [in]      uint16_t          ui16Y1      [the value of Y1]
 870:C:/Workspace/FW_Platform2_5/trunk/ProductModules/PM_EnergyMeterSw\PM_EnergyMeterSwTable.c **** \param  [in]      uint16_t          ui16P1      [the value of power on Y1]
 871:C:/Workspace/FW_Platform2_5/trunk/ProductModules/PM_EnergyMeterSw\PM_EnergyMeterSwTable.c **** \param  [in]      uint16_t          ui16Y2      [the value of Y2]
 872:C:/Workspace/FW_Platform2_5/trunk/ProductModules/PM_EnergyMeterSw\PM_EnergyMeterSwTable.c **** \param  [out]     stCurveYLine_t*   psYL2ine    [pointer to Y2 line]
 873:C:/Workspace/FW_Platform2_5/trunk/ProductModules/PM_EnergyMeterSw\PM_EnergyMeterSwTable.c **** \param  [out]     uint16_t*         pui16Power  [pointer to the power calculated]
 874:C:/Workspace/FW_Platform2_5/trunk/ProductModules/PM_EnergyMeterSw\PM_EnergyMeterSwTable.c **** \param  [in,out]  none
 875:C:/Workspace/FW_Platform2_5/trunk/ProductModules/PM_EnergyMeterSw\PM_EnergyMeterSwTable.c **** 
 876:C:/Workspace/FW_Platform2_5/trunk/ProductModules/PM_EnergyMeterSw\PM_EnergyMeterSwTable.c **** \attention \b
 877:C:/Workspace/FW_Platform2_5/trunk/ProductModules/PM_EnergyMeterSw\PM_EnergyMeterSwTable.c **** 
 878:C:/Workspace/FW_Platform2_5/trunk/ProductModules/PM_EnergyMeterSw\PM_EnergyMeterSwTable.c **** \return   eEMS_Err - error code
 879:C:/Workspace/FW_Platform2_5/trunk/ProductModules/PM_EnergyMeterSw\PM_EnergyMeterSwTable.c **** 
 880:C:/Workspace/FW_Platform2_5/trunk/ProductModules/PM_EnergyMeterSw\PM_EnergyMeterSwTable.c **** \retval   [none]
 881:C:/Workspace/FW_Platform2_5/trunk/ProductModules/PM_EnergyMeterSw\PM_EnergyMeterSwTable.c **** 
 882:C:/Workspace/FW_Platform2_5/trunk/ProductModules/PM_EnergyMeterSw\PM_EnergyMeterSwTable.c **** \warning  [none]
 883:C:/Workspace/FW_Platform2_5/trunk/ProductModules/PM_EnergyMeterSw\PM_EnergyMeterSwTable.c **** 
 884:C:/Workspace/FW_Platform2_5/trunk/ProductModules/PM_EnergyMeterSw\PM_EnergyMeterSwTable.c **** \author   Intecs
 885:C:/Workspace/FW_Platform2_5/trunk/ProductModules/PM_EnergyMeterSw\PM_EnergyMeterSwTable.c **** \date     08-09-2011
 886:C:/Workspace/FW_Platform2_5/trunk/ProductModules/PM_EnergyMeterSw\PM_EnergyMeterSwTable.c **** \version  1.0.0
 887:C:/Workspace/FW_Platform2_5/trunk/ProductModules/PM_EnergyMeterSw\PM_EnergyMeterSwTable.c **** 
 888:C:/Workspace/FW_Platform2_5/trunk/ProductModules/PM_EnergyMeterSw\PM_EnergyMeterSwTable.c **** \note   \par \b Nota 1:
 889:C:/Workspace/FW_Platform2_5/trunk/ProductModules/PM_EnergyMeterSw\PM_EnergyMeterSwTable.c ****       documentation by ${Intecs}
 890:C:/Workspace/FW_Platform2_5/trunk/ProductModules/PM_EnergyMeterSw\PM_EnergyMeterSwTable.c **** */
 891:C:/Workspace/FW_Platform2_5/trunk/ProductModules/PM_EnergyMeterSw\PM_EnergyMeterSwTable.c **** STATIC eEMS_Err TableCalibDoppia_PuntoRetta (uint16_t ui16Yx, uint16_t ui16Vin,
 892:C:/Workspace/FW_Platform2_5/trunk/ProductModules/PM_EnergyMeterSw\PM_EnergyMeterSwTable.c ****                                              uint16_t ui16Y1, uint16_t ui16P1,
 893:C:/Workspace/FW_Platform2_5/trunk/ProductModules/PM_EnergyMeterSw\PM_EnergyMeterSwTable.c ****                                              uint16_t ui16Y2, const stCurveYLine_t* psY2Line,
 894:C:/Workspace/FW_Platform2_5/trunk/ProductModules/PM_EnergyMeterSw\PM_EnergyMeterSwTable.c ****                                              uint16_t* pui16Power)
 895:C:/Workspace/FW_Platform2_5/trunk/ProductModules/PM_EnergyMeterSw\PM_EnergyMeterSwTable.c **** {
 636                             		.loc 1 895 0
 637                             	.LVL63:
 638 0000 6E 7D                   		pushm	r7-r13
 639                             	.LCFI12:
 640 0002 71 00 E8                		add	#-24, r0
 641                             	.LCFI13:
 642                             		.loc 1 895 0
 643 0005 75 47 38                		mov.L	#56, r7
 644 0008 4B 07                   		add	r0, r7
 645 000a ED 7E 01                		mov.L	4[r7], r14
 646 000d DC 7A                   		mov.W	[r7], r10
 896:C:/Workspace/FW_Platform2_5/trunk/ProductModules/PM_EnergyMeterSw\PM_EnergyMeterSwTable.c ****   uint16_t ui16P2x;   /* punto sulla retta Y2 */
 897:C:/Workspace/FW_Platform2_5/trunk/ProductModules/PM_EnergyMeterSw\PM_EnergyMeterSwTable.c **** 
 898:C:/Workspace/FW_Platform2_5/trunk/ProductModules/PM_EnergyMeterSw\PM_EnergyMeterSwTable.c **** 
 899:C:/Workspace/FW_Platform2_5/trunk/ProductModules/PM_EnergyMeterSw\PM_EnergyMeterSwTable.c **** 
 900:C:/Workspace/FW_Platform2_5/trunk/ProductModules/PM_EnergyMeterSw\PM_EnergyMeterSwTable.c **** #if CHECK_TABLE
 901:C:/Workspace/FW_Platform2_5/trunk/ProductModules/PM_EnergyMeterSw\PM_EnergyMeterSwTable.c ****   if (psY2Line == NULL)
 647                             		.loc 1 901 0
 648 000f 61 0E                   		cmp	#0, r14
 895:C:/Workspace/FW_Platform2_5/trunk/ProductModules/PM_EnergyMeterSw\PM_EnergyMeterSwTable.c **** {
 649                             		.loc 1 895 0
 650 0011 A8 F7                   		mov.L	8[r7], r7
 651                             		.loc 1 901 0
 652 0013 20 49                   		beq	.L101
 653 0015 DF 4B                   		mov.W	r4, r11
 902:C:/Workspace/FW_Platform2_5/trunk/ProductModules/PM_EnergyMeterSw\PM_EnergyMeterSwTable.c ****   {
 903:C:/Workspace/FW_Platform2_5/trunk/ProductModules/PM_EnergyMeterSw\PM_EnergyMeterSwTable.c ****     return EMS_E_INVALID_VALUE;
 904:C:/Workspace/FW_Platform2_5/trunk/ProductModules/PM_EnergyMeterSw\PM_EnergyMeterSwTable.c ****   }
 905:C:/Workspace/FW_Platform2_5/trunk/ProductModules/PM_EnergyMeterSw\PM_EnergyMeterSwTable.c **** 
 906:C:/Workspace/FW_Platform2_5/trunk/ProductModules/PM_EnergyMeterSw\PM_EnergyMeterSwTable.c ****   if ((psY2Line->sPoint1.ui8Valid == 0) || (psY2Line->sPoint2.ui8Valid == 0))
 654                             		.loc 1 906 0
 655 0017 58 E4                   		movu.B	[r14], r4
 656                             	.LVL64:
 657 0019 61 04                   		cmp	#0, r4
 658 001b 20 41                   		beq	.L101
 659                             		.loc 1 906 0 is_stmt 0 discriminator 1
 660 001d 59 E4 06                		movu.B	6[r14], r4
 661 0020 61 04                   		cmp	#0, r4
 662 0022 20 3A                   		beq	.L101
 663                             	.LBB52:
 664                             	.LBB53:
 907:C:/Workspace/FW_Platform2_5/trunk/ProductModules/PM_EnergyMeterSw\PM_EnergyMeterSwTable.c ****   {
 908:C:/Workspace/FW_Platform2_5/trunk/ProductModules/PM_EnergyMeterSw\PM_EnergyMeterSwTable.c ****     return EMS_E_INVALID_VALUE;
 909:C:/Workspace/FW_Platform2_5/trunk/ProductModules/PM_EnergyMeterSw\PM_EnergyMeterSwTable.c ****   }
 910:C:/Workspace/FW_Platform2_5/trunk/ProductModules/PM_EnergyMeterSw\PM_EnergyMeterSwTable.c **** #endif
 911:C:/Workspace/FW_Platform2_5/trunk/ProductModules/PM_EnergyMeterSw\PM_EnergyMeterSwTable.c **** 
 912:C:/Workspace/FW_Platform2_5/trunk/ProductModules/PM_EnergyMeterSw\PM_EnergyMeterSwTable.c ****   /* calcola il valore di potenza Px2, sulla retta Y2, corrispondente a Vin */
 913:C:/Workspace/FW_Platform2_5/trunk/ProductModules/PM_EnergyMeterSw\PM_EnergyMeterSwTable.c ****   if (EMS_E_OK != CalcoloPuntoSuRetta(ui16Vin,
 665                             		.loc 1 913 0 is_stmt 1
 666 0024 DD E4 04                		mov.W	8[r14], r4
 667 0027 DF 1D                   		mov.W	r1, r13
 668 0029 DF 3C                   		mov.W	r3, r12
 669                             	.LVL65:
 670 002b DF 21                   		mov.W	r2, r1
 671                             	.LVL66:
 672 002d DD E3 02                		mov.W	4[r14], r3
 673                             	.LVL67:
 674 0030 DD E2 01                		mov.W	2[r14], r2
 675                             	.LVL68:
 676 0033 DD EE 05                		mov.W	10[r14], r14
 677                             	.LVL69:
 678 0036 D3 0E                   		mov.W	r14, [r0]
 679 0038 66 8E                   		mov.L	#8, r14
 680 003a 4B 0E                   		add	r0, r14
 681 003c E7 0E 01                		mov.L	r14, 4[r0]
 682 003f 05 00 00 00             		bsr	_CalcoloPuntoSuRetta
 683                             	.LVL70:
 684 0043 61 01                   		cmp	#0, r1
 685 0045 21 17                   		bne	.L101
 686                             	.LVL71:
 687                             	.LBB54:
 688                             	.LBB55:
 857:C:/Workspace/FW_Platform2_5/trunk/ProductModules/PM_EnergyMeterSw\PM_EnergyMeterSwTable.c ****   return CalcoloPuntoSuRetta(ui16Yx,
 689                             		.loc 1 857 0
 690 0047 DD 0E 04                		mov.W	8[r0], r14
 691 004a A0 0F                   		mov.L	r7, 4[r0]
 692 004c D3 0E                   		mov.W	r14, [r0]
 693 004e DF D1                   		mov.W	r13, r1
 694 0050 DF C2                   		mov.W	r12, r2
 695 0052 DF B3                   		mov.W	r11, r3
 696 0054 DF A4                   		mov.W	r10, r4
 697 0056 05 00 00 00             		bsr	_CalcoloPuntoSuRetta
 698                             	.LVL72:
 699 005a 2E 04                   		bra	.L97
 700                             	.LVL73:
 701                             	.L101:
 702                             	.LBE55:
 703                             	.LBE54:
 704                             	.LBE53:
 705                             	.LBE52:
 903:C:/Workspace/FW_Platform2_5/trunk/ProductModules/PM_EnergyMeterSw\PM_EnergyMeterSwTable.c ****     return EMS_E_INVALID_VALUE;
 706                             		.loc 1 903 0
 707 005c 66 31                   		mov.L	#3, r1
 708                             	.LVL74:
 709                             		.balign 2,3,2
 710                             	.L97:
 914:C:/Workspace/FW_Platform2_5/trunk/ProductModules/PM_EnergyMeterSw\PM_EnergyMeterSwTable.c ****                                       psY2Line->sPoint1.ui16V, psY2Line->sPoint1.ui16Pw,
 915:C:/Workspace/FW_Platform2_5/trunk/ProductModules/PM_EnergyMeterSw\PM_EnergyMeterSwTable.c ****                                       psY2Line->sPoint2.ui16V, psY2Line->sPoint2.ui16Pw,
 916:C:/Workspace/FW_Platform2_5/trunk/ProductModules/PM_EnergyMeterSw\PM_EnergyMeterSwTable.c ****                                       &ui16P2x))
 917:C:/Workspace/FW_Platform2_5/trunk/ProductModules/PM_EnergyMeterSw\PM_EnergyMeterSwTable.c ****   {
 918:C:/Workspace/FW_Platform2_5/trunk/ProductModules/PM_EnergyMeterSw\PM_EnergyMeterSwTable.c ****     return EMS_E_INVALID_VALUE;
 919:C:/Workspace/FW_Platform2_5/trunk/ProductModules/PM_EnergyMeterSw\PM_EnergyMeterSwTable.c ****   }
 920:C:/Workspace/FW_Platform2_5/trunk/ProductModules/PM_EnergyMeterSw\PM_EnergyMeterSwTable.c **** 
 921:C:/Workspace/FW_Platform2_5/trunk/ProductModules/PM_EnergyMeterSw\PM_EnergyMeterSwTable.c ****   /* calcola il valore di potenza basato su Yx e sui punti (Y1,P1) e (Y2,P2x) */
 922:C:/Workspace/FW_Platform2_5/trunk/ProductModules/PM_EnergyMeterSw\PM_EnergyMeterSwTable.c ****   return TableCalibDoppia_Punti(ui16Yx,
 923:C:/Workspace/FW_Platform2_5/trunk/ProductModules/PM_EnergyMeterSw\PM_EnergyMeterSwTable.c ****                                 ui16Y1, ui16P1,
 924:C:/Workspace/FW_Platform2_5/trunk/ProductModules/PM_EnergyMeterSw\PM_EnergyMeterSwTable.c ****                                 ui16Y2, ui16P2x,
 925:C:/Workspace/FW_Platform2_5/trunk/ProductModules/PM_EnergyMeterSw\PM_EnergyMeterSwTable.c ****                                 pui16Power);
 926:C:/Workspace/FW_Platform2_5/trunk/ProductModules/PM_EnergyMeterSw\PM_EnergyMeterSwTable.c **** }
 711                             		.loc 1 926 0
 712 005e 3F 7D 0D                		rtsd	#52, r7-r13
 713                             	.LFE12:
 715 0061 03                      		.section	.text.TableCalibDoppia_Rette,"ax",@progbits
 716                             		.global	_TableCalibDoppia_Rette
 718                             	_TableCalibDoppia_Rette:
 719                             	.LFB13:
 927:C:/Workspace/FW_Platform2_5/trunk/ProductModules/PM_EnergyMeterSw\PM_EnergyMeterSwTable.c **** 
 928:C:/Workspace/FW_Platform2_5/trunk/ProductModules/PM_EnergyMeterSw\PM_EnergyMeterSwTable.c **** 
 929:C:/Workspace/FW_Platform2_5/trunk/ProductModules/PM_EnergyMeterSw\PM_EnergyMeterSwTable.c **** /**
 930:C:/Workspace/FW_Platform2_5/trunk/ProductModules/PM_EnergyMeterSw\PM_EnergyMeterSwTable.c ****   This function computes the power based on Yx, Vin, one line on the curve Y1 and one line on the c
 931:C:/Workspace/FW_Platform2_5/trunk/ProductModules/PM_EnergyMeterSw\PM_EnergyMeterSwTable.c **** 
 932:C:/Workspace/FW_Platform2_5/trunk/ProductModules/PM_EnergyMeterSw\PM_EnergyMeterSwTable.c **** \param  [in]      uint16_t          ui16Yx      [the value of Yx]
 933:C:/Workspace/FW_Platform2_5/trunk/ProductModules/PM_EnergyMeterSw\PM_EnergyMeterSwTable.c **** \param  [in]      uint16_t          ui16Vin     [the value of Vin]
 934:C:/Workspace/FW_Platform2_5/trunk/ProductModules/PM_EnergyMeterSw\PM_EnergyMeterSwTable.c **** \param  [in]      uint16_t          ui16Y1      [the value of Y1]
 935:C:/Workspace/FW_Platform2_5/trunk/ProductModules/PM_EnergyMeterSw\PM_EnergyMeterSwTable.c **** \param  [out]     stCurveYLine_t*   psYL1ine    [pointer to Y1 line]
 936:C:/Workspace/FW_Platform2_5/trunk/ProductModules/PM_EnergyMeterSw\PM_EnergyMeterSwTable.c **** \param  [in]      uint16_t          ui16Y2      [the value of Y2]
 937:C:/Workspace/FW_Platform2_5/trunk/ProductModules/PM_EnergyMeterSw\PM_EnergyMeterSwTable.c **** \param  [out]     stCurveYLine_t*   psYL2ine    [pointer to Y2 line]
 938:C:/Workspace/FW_Platform2_5/trunk/ProductModules/PM_EnergyMeterSw\PM_EnergyMeterSwTable.c **** \param  [out]     uint16_t*         pui16Power  [pointer to the power calculated]
 939:C:/Workspace/FW_Platform2_5/trunk/ProductModules/PM_EnergyMeterSw\PM_EnergyMeterSwTable.c **** \param  [in,out]  none
 940:C:/Workspace/FW_Platform2_5/trunk/ProductModules/PM_EnergyMeterSw\PM_EnergyMeterSwTable.c **** 
 941:C:/Workspace/FW_Platform2_5/trunk/ProductModules/PM_EnergyMeterSw\PM_EnergyMeterSwTable.c **** \attention \b
 942:C:/Workspace/FW_Platform2_5/trunk/ProductModules/PM_EnergyMeterSw\PM_EnergyMeterSwTable.c **** 
 943:C:/Workspace/FW_Platform2_5/trunk/ProductModules/PM_EnergyMeterSw\PM_EnergyMeterSwTable.c **** \return   eEMS_Err - error code
 944:C:/Workspace/FW_Platform2_5/trunk/ProductModules/PM_EnergyMeterSw\PM_EnergyMeterSwTable.c **** 
 945:C:/Workspace/FW_Platform2_5/trunk/ProductModules/PM_EnergyMeterSw\PM_EnergyMeterSwTable.c **** \retval   [none]
 946:C:/Workspace/FW_Platform2_5/trunk/ProductModules/PM_EnergyMeterSw\PM_EnergyMeterSwTable.c **** 
 947:C:/Workspace/FW_Platform2_5/trunk/ProductModules/PM_EnergyMeterSw\PM_EnergyMeterSwTable.c **** \warning  [none]
 948:C:/Workspace/FW_Platform2_5/trunk/ProductModules/PM_EnergyMeterSw\PM_EnergyMeterSwTable.c **** 
 949:C:/Workspace/FW_Platform2_5/trunk/ProductModules/PM_EnergyMeterSw\PM_EnergyMeterSwTable.c **** \author   Intecs
 950:C:/Workspace/FW_Platform2_5/trunk/ProductModules/PM_EnergyMeterSw\PM_EnergyMeterSwTable.c **** \date     08-09-2011
 951:C:/Workspace/FW_Platform2_5/trunk/ProductModules/PM_EnergyMeterSw\PM_EnergyMeterSwTable.c **** \version  1.0.0
 952:C:/Workspace/FW_Platform2_5/trunk/ProductModules/PM_EnergyMeterSw\PM_EnergyMeterSwTable.c **** 
 953:C:/Workspace/FW_Platform2_5/trunk/ProductModules/PM_EnergyMeterSw\PM_EnergyMeterSwTable.c **** \bug    [none]
 954:C:/Workspace/FW_Platform2_5/trunk/ProductModules/PM_EnergyMeterSw\PM_EnergyMeterSwTable.c **** 
 955:C:/Workspace/FW_Platform2_5/trunk/ProductModules/PM_EnergyMeterSw\PM_EnergyMeterSwTable.c **** \note   \par \b Nota 1:
 956:C:/Workspace/FW_Platform2_5/trunk/ProductModules/PM_EnergyMeterSw\PM_EnergyMeterSwTable.c ****       documentation by ${Intecs}
 957:C:/Workspace/FW_Platform2_5/trunk/ProductModules/PM_EnergyMeterSw\PM_EnergyMeterSwTable.c **** */
 958:C:/Workspace/FW_Platform2_5/trunk/ProductModules/PM_EnergyMeterSw\PM_EnergyMeterSwTable.c **** STATIC eEMS_Err TableCalibDoppia_Rette (uint16_t ui16Yx, uint16_t ui16Vin,
 959:C:/Workspace/FW_Platform2_5/trunk/ProductModules/PM_EnergyMeterSw\PM_EnergyMeterSwTable.c ****                                         uint16_t ui16Y1, const stCurveYLine_t* psY1Line,
 960:C:/Workspace/FW_Platform2_5/trunk/ProductModules/PM_EnergyMeterSw\PM_EnergyMeterSwTable.c ****                                         uint16_t ui16Y2, const stCurveYLine_t* psY2Line,
 961:C:/Workspace/FW_Platform2_5/trunk/ProductModules/PM_EnergyMeterSw\PM_EnergyMeterSwTable.c ****                                         uint16_t* pui16Power)
 962:C:/Workspace/FW_Platform2_5/trunk/ProductModules/PM_EnergyMeterSw\PM_EnergyMeterSwTable.c **** {
 720                             		.loc 1 962 0
 721                             	.LVL75:
 722 0000 6E 7D                   		pushm	r7-r13
 723                             	.LCFI14:
 724 0002 71 00 E4                		add	#-28, r0
 725                             	.LCFI15:
 726                             		.loc 1 962 0
 727 0005 75 47 3C                		mov.L	#60, r7
 728 0008 4B 07                   		add	r0, r7
 963:C:/Workspace/FW_Platform2_5/trunk/ProductModules/PM_EnergyMeterSw\PM_EnergyMeterSwTable.c ****   uint16_t ui16P1x;   /* punto sulla retta Y1 */
 964:C:/Workspace/FW_Platform2_5/trunk/ProductModules/PM_EnergyMeterSw\PM_EnergyMeterSwTable.c **** 
 965:C:/Workspace/FW_Platform2_5/trunk/ProductModules/PM_EnergyMeterSw\PM_EnergyMeterSwTable.c **** 
 966:C:/Workspace/FW_Platform2_5/trunk/ProductModules/PM_EnergyMeterSw\PM_EnergyMeterSwTable.c **** 
 967:C:/Workspace/FW_Platform2_5/trunk/ProductModules/PM_EnergyMeterSw\PM_EnergyMeterSwTable.c **** #if CHECK_TABLE
 968:C:/Workspace/FW_Platform2_5/trunk/ProductModules/PM_EnergyMeterSw\PM_EnergyMeterSwTable.c ****   if (psY1Line == NULL)
 729                             		.loc 1 968 0
 730 000a 61 04                   		cmp	#0, r4
 962:C:/Workspace/FW_Platform2_5/trunk/ProductModules/PM_EnergyMeterSw\PM_EnergyMeterSwTable.c **** {
 731                             		.loc 1 962 0
 732 000c DC 79                   		mov.W	[r7], r9
 733 000e ED 7D 01                		mov.L	4[r7], r13
 734 0011 EF 4E                   		mov.L	r4, r14
 735 0013 A8 F7                   		mov.L	8[r7], r7
 736                             		.loc 1 968 0
 737 0015 21 07                   		bne	.L105
 738                             	.LVL76:
 739 0017 03                      		.balign 2,3,1
 740                             	.L107:
 969:C:/Workspace/FW_Platform2_5/trunk/ProductModules/PM_EnergyMeterSw\PM_EnergyMeterSwTable.c ****   {
 970:C:/Workspace/FW_Platform2_5/trunk/ProductModules/PM_EnergyMeterSw\PM_EnergyMeterSwTable.c ****     return EMS_E_INVALID_VALUE;
 741                             		.loc 1 970 0
 742 0018 66 31                   		mov.L	#3, r1
 743 001a 2E 48                   		bra	.L106
 744                             	.LVL77:
 745                             	.L105:
 971:C:/Workspace/FW_Platform2_5/trunk/ProductModules/PM_EnergyMeterSw\PM_EnergyMeterSwTable.c ****   }
 972:C:/Workspace/FW_Platform2_5/trunk/ProductModules/PM_EnergyMeterSw\PM_EnergyMeterSwTable.c **** 
 973:C:/Workspace/FW_Platform2_5/trunk/ProductModules/PM_EnergyMeterSw\PM_EnergyMeterSwTable.c ****   if ((psY1Line->sPoint1.ui8Valid == 0) || (psY1Line->sPoint2.ui8Valid == 0))
 746                             		.loc 1 973 0
 747 001c 58 44                   		movu.B	[r4], r4
 748                             	.LVL78:
 749 001e 61 04                   		cmp	#0, r4
 750 0020 20 F8                   		beq	.L107
 751                             		.loc 1 973 0 is_stmt 0 discriminator 1
 752 0022 59 E4 06                		movu.B	6[r14], r4
 753 0025 61 04                   		cmp	#0, r4
 754 0027 20 F1                   		beq	.L107
 974:C:/Workspace/FW_Platform2_5/trunk/ProductModules/PM_EnergyMeterSw\PM_EnergyMeterSwTable.c ****   {
 975:C:/Workspace/FW_Platform2_5/trunk/ProductModules/PM_EnergyMeterSw\PM_EnergyMeterSwTable.c ****     return EMS_E_INVALID_VALUE;
 976:C:/Workspace/FW_Platform2_5/trunk/ProductModules/PM_EnergyMeterSw\PM_EnergyMeterSwTable.c ****   }
 977:C:/Workspace/FW_Platform2_5/trunk/ProductModules/PM_EnergyMeterSw\PM_EnergyMeterSwTable.c **** #endif
 978:C:/Workspace/FW_Platform2_5/trunk/ProductModules/PM_EnergyMeterSw\PM_EnergyMeterSwTable.c **** 
 979:C:/Workspace/FW_Platform2_5/trunk/ProductModules/PM_EnergyMeterSw\PM_EnergyMeterSwTable.c ****   /* calcola il valore di potenza P1x, sulla retta Y1, corrispondente a Vin */
 980:C:/Workspace/FW_Platform2_5/trunk/ProductModules/PM_EnergyMeterSw\PM_EnergyMeterSwTable.c ****   if (EMS_E_OK != CalcoloPuntoSuRetta(ui16Vin,
 755                             		.loc 1 980 0 is_stmt 1
 756 0029 DD E4 04                		mov.W	8[r14], r4
 757 002c DF 2A                   		mov.W	r2, r10
 758 002e DF 3B                   		mov.W	r3, r11
 759 0030 DD E2 01                		mov.W	2[r14], r2
 760                             	.LVL79:
 761 0033 DD E3 02                		mov.W	4[r14], r3
 762                             	.LVL80:
 763 0036 DD EE 05                		mov.W	10[r14], r14
 764                             	.LVL81:
 765 0039 DF 1C                   		mov.W	r1, r12
 766 003b D3 0E                   		mov.W	r14, [r0]
 767 003d 66 CE                   		mov.L	#12, r14
 768 003f 4B 0E                   		add	r0, r14
 769 0041 E7 0E 01                		mov.L	r14, 4[r0]
 770 0044 DF A1                   		mov.W	r10, r1
 771                             	.LVL82:
 772 0046 05 00 00 00             		bsr	_CalcoloPuntoSuRetta
 773                             	.LVL83:
 774 004a 61 01                   		cmp	#0, r1
 775 004c 21 CC                   		bne	.L107
 776                             	.LVL84:
 981:C:/Workspace/FW_Platform2_5/trunk/ProductModules/PM_EnergyMeterSw\PM_EnergyMeterSwTable.c ****                                       psY1Line->sPoint1.ui16V, psY1Line->sPoint1.ui16Pw,
 982:C:/Workspace/FW_Platform2_5/trunk/ProductModules/PM_EnergyMeterSw\PM_EnergyMeterSwTable.c ****                                       psY1Line->sPoint2.ui16V, psY1Line->sPoint2.ui16Pw,
 983:C:/Workspace/FW_Platform2_5/trunk/ProductModules/PM_EnergyMeterSw\PM_EnergyMeterSwTable.c ****                                       &ui16P1x))
 984:C:/Workspace/FW_Platform2_5/trunk/ProductModules/PM_EnergyMeterSw\PM_EnergyMeterSwTable.c ****   {
 985:C:/Workspace/FW_Platform2_5/trunk/ProductModules/PM_EnergyMeterSw\PM_EnergyMeterSwTable.c ****     return EMS_E_INVALID_VALUE;
 986:C:/Workspace/FW_Platform2_5/trunk/ProductModules/PM_EnergyMeterSw\PM_EnergyMeterSwTable.c ****   }
 987:C:/Workspace/FW_Platform2_5/trunk/ProductModules/PM_EnergyMeterSw\PM_EnergyMeterSwTable.c **** 
 988:C:/Workspace/FW_Platform2_5/trunk/ProductModules/PM_EnergyMeterSw\PM_EnergyMeterSwTable.c ****   /* calcola il valore di potenza basato su Yx, Vin sul punto (Y1,P1) e sulla retta Y2 */
 989:C:/Workspace/FW_Platform2_5/trunk/ProductModules/PM_EnergyMeterSw\PM_EnergyMeterSwTable.c ****   return TableCalibDoppia_PuntoRetta(ui16Yx, ui16Vin,
 777                             		.loc 1 989 0
 778 004e 99 84                   		mov.W	12[r0], r4
 779 0050 D3 09                   		mov.W	r9, [r0]
 780 0052 E7 0D 01                		mov.L	r13, 4[r0]
 781 0055 A0 87                   		mov.L	r7, 8[r0]
 782 0057 DF C1                   		mov.W	r12, r1
 783 0059 DF A2                   		mov.W	r10, r2
 784 005b DF B3                   		mov.W	r11, r3
 785 005d 05 00 00 00             		bsr	_TableCalibDoppia_PuntoRetta
 786                             	.LVL85:
 787 0061 03                      		.balign 2,3,2
 788                             	.L106:
 990:C:/Workspace/FW_Platform2_5/trunk/ProductModules/PM_EnergyMeterSw\PM_EnergyMeterSwTable.c ****                                      ui16Y1, ui16P1x,
 991:C:/Workspace/FW_Platform2_5/trunk/ProductModules/PM_EnergyMeterSw\PM_EnergyMeterSwTable.c ****                                      ui16Y2, psY2Line,
 992:C:/Workspace/FW_Platform2_5/trunk/ProductModules/PM_EnergyMeterSw\PM_EnergyMeterSwTable.c ****                                      pui16Power);
 993:C:/Workspace/FW_Platform2_5/trunk/ProductModules/PM_EnergyMeterSw\PM_EnergyMeterSwTable.c **** }
 789                             		.loc 1 993 0
 790 0062 3F 7D 0E                		rtsd	#56, r7-r13
 791                             	.LFE13:
 793 0065 03                      		.section	.text.TableCalibDoppia,"ax",@progbits
 794                             		.global	_TableCalibDoppia
 796                             	_TableCalibDoppia:
 797                             	.LFB14:
 994:C:/Workspace/FW_Platform2_5/trunk/ProductModules/PM_EnergyMeterSw\PM_EnergyMeterSwTable.c **** 
 995:C:/Workspace/FW_Platform2_5/trunk/ProductModules/PM_EnergyMeterSw\PM_EnergyMeterSwTable.c **** 
 996:C:/Workspace/FW_Platform2_5/trunk/ProductModules/PM_EnergyMeterSw\PM_EnergyMeterSwTable.c **** /*--------------------------------------
 997:C:/Workspace/FW_Platform2_5/trunk/ProductModules/PM_EnergyMeterSw\PM_EnergyMeterSwTable.c ****  Computes the power based on Yx, Vin
 998:C:/Workspace/FW_Platform2_5/trunk/ProductModules/PM_EnergyMeterSw\PM_EnergyMeterSwTable.c ****  and the curves Y1 and Y2.
 999:C:/Workspace/FW_Platform2_5/trunk/ProductModules/PM_EnergyMeterSw\PM_EnergyMeterSwTable.c ****  -------------------------------------*/
1000:C:/Workspace/FW_Platform2_5/trunk/ProductModules/PM_EnergyMeterSw\PM_EnergyMeterSwTable.c **** eEMS_Err TableCalibDoppia (const stTable_t* psTable, uint16_t ui16Yx, uint16_t ui16Vin,
1001:C:/Workspace/FW_Platform2_5/trunk/ProductModules/PM_EnergyMeterSw\PM_EnergyMeterSwTable.c ****                            const stTableSurfaceY_t* psSurfaceY, uint16_t* pui16Power)
1002:C:/Workspace/FW_Platform2_5/trunk/ProductModules/PM_EnergyMeterSw\PM_EnergyMeterSwTable.c **** {
 798                             		.loc 1 1002 0
 799                             	.LVL86:
 800 0000 6E 7D                   		pushm	r7-r13
 801                             	.LCFI16:
 802 0002 71 00 D8                		add	#-40, r0
 803                             	.LCFI17:
1003:C:/Workspace/FW_Platform2_5/trunk/ProductModules/PM_EnergyMeterSw\PM_EnergyMeterSwTable.c ****   stCurveYLine_t sLineY1; /* retta su Y1 */
1004:C:/Workspace/FW_Platform2_5/trunk/ProductModules/PM_EnergyMeterSw\PM_EnergyMeterSwTable.c ****   stCurveYLine_t sLineY2; /* retta su Y2 */
1005:C:/Workspace/FW_Platform2_5/trunk/ProductModules/PM_EnergyMeterSw\PM_EnergyMeterSwTable.c ****   uint8_t aui8Result[2];
1006:C:/Workspace/FW_Platform2_5/trunk/ProductModules/PM_EnergyMeterSw\PM_EnergyMeterSwTable.c **** 
1007:C:/Workspace/FW_Platform2_5/trunk/ProductModules/PM_EnergyMeterSw\PM_EnergyMeterSwTable.c **** 
1008:C:/Workspace/FW_Platform2_5/trunk/ProductModules/PM_EnergyMeterSw\PM_EnergyMeterSwTable.c **** #if CHECK_TABLE
1009:C:/Workspace/FW_Platform2_5/trunk/ProductModules/PM_EnergyMeterSw\PM_EnergyMeterSwTable.c ****   if (psSurfaceY == NULL)
 804                             		.loc 1 1009 0
 805 0005 61 04                   		cmp	#0, r4
1002:C:/Workspace/FW_Platform2_5/trunk/ProductModules/PM_EnergyMeterSw\PM_EnergyMeterSwTable.c **** {
 806                             		.loc 1 1002 0
 807 0007 EF 4A                   		mov.L	r4, r10
 808 0009 ED 0D 12                		mov.L	72[r0], r13
 809                             		.loc 1 1009 0
 810 000c 21 07                   		bne	.L116
 811                             	.LVL87:
 812                             		.balign 2,3,1
 813                             	.L118:
1010:C:/Workspace/FW_Platform2_5/trunk/ProductModules/PM_EnergyMeterSw\PM_EnergyMeterSwTable.c ****   {
1011:C:/Workspace/FW_Platform2_5/trunk/ProductModules/PM_EnergyMeterSw\PM_EnergyMeterSwTable.c ****     return EMS_E_INVALID_VALUE;
 814                             		.loc 1 1011 0
 815 000e 66 31                   		mov.L	#3, r1
 816 0010 38 BC 00                		bra	.L117
 817                             	.LVL88:
 818                             	.L116:
1012:C:/Workspace/FW_Platform2_5/trunk/ProductModules/PM_EnergyMeterSw\PM_EnergyMeterSwTable.c ****   }
1013:C:/Workspace/FW_Platform2_5/trunk/ProductModules/PM_EnergyMeterSw\PM_EnergyMeterSwTable.c **** #endif
1014:C:/Workspace/FW_Platform2_5/trunk/ProductModules/PM_EnergyMeterSw\PM_EnergyMeterSwTable.c **** 
1015:C:/Workspace/FW_Platform2_5/trunk/ProductModules/PM_EnergyMeterSw\PM_EnergyMeterSwTable.c ****   /* Y1 < Yx < Y2 */
1016:C:/Workspace/FW_Platform2_5/trunk/ProductModules/PM_EnergyMeterSw\PM_EnergyMeterSwTable.c **** 
1017:C:/Workspace/FW_Platform2_5/trunk/ProductModules/PM_EnergyMeterSw\PM_EnergyMeterSwTable.c ****   /* init lines */
1018:C:/Workspace/FW_Platform2_5/trunk/ProductModules/PM_EnergyMeterSw\PM_EnergyMeterSwTable.c ****   LineInit(&sLineY1);
 819                             		.loc 1 1018 0
 820 0013 71 0B 18                		add	#24, r0, r11
 821 0016 EF 19                   		mov.L	r1, r9
 822 0018 EF B1                   		mov.L	r11, r1
 823                             	.LVL89:
 824 001a DF 2C                   		mov.W	r2, r12
 825 001c DF 37                   		mov.W	r3, r7
 826 001e 05 00 00 00             		bsr	_LineInit
 827                             	.LVL90:
1019:C:/Workspace/FW_Platform2_5/trunk/ProductModules/PM_EnergyMeterSw\PM_EnergyMeterSwTable.c ****   LineInit(&sLineY2);
 828                             		.loc 1 1019 0
 829 0022 66 C1                   		mov.L	#12, r1
 830 0024 4B 01                   		add	r0, r1
 831 0026 05 00 00 00             		bsr	_LineInit
 832                             	.LVL91:
1020:C:/Workspace/FW_Platform2_5/trunk/ProductModules/PM_EnergyMeterSw\PM_EnergyMeterSwTable.c **** 
1021:C:/Workspace/FW_Platform2_5/trunk/ProductModules/PM_EnergyMeterSw\PM_EnergyMeterSwTable.c ****   /* cerca sulla curva Y1 la retta che include Vin */
1022:C:/Workspace/FW_Platform2_5/trunk/ProductModules/PM_EnergyMeterSw\PM_EnergyMeterSwTable.c ****   aui8Result[0] = CurveYFindPoints(psTable, &(psSurfaceY->sCurveY1), ui16Vin, &sLineY1);
 833                             		.loc 1 1022 0
 834 002a EF 91                   		mov.L	r9, r1
 835 002c EF A2                   		mov.L	r10, r2
 836 002e DF 73                   		mov.W	r7, r3
 837 0030 EF B4                   		mov.L	r11, r4
 838 0032 05 00 00 00             		bsr	_CurveYFindPoints
 839                             	.LVL92:
1023:C:/Workspace/FW_Platform2_5/trunk/ProductModules/PM_EnergyMeterSw\PM_EnergyMeterSwTable.c ****   if ((aui8Result[0] != EMS_E_OK) || (sLineY1.sPoint1.ui8Valid == 0))
 840                             		.loc 1 1023 0
 841 0036 5B 11                   		movu.B	r1, r1
 842 0038 61 01                   		cmp	#0, r1
 843 003a 21 D4                   		bne	.L118
 844                             		.loc 1 1023 0 is_stmt 0 discriminator 1
 845 003c 59 0E 18                		movu.B	24[r0], r14
 846 003f 61 0E                   		cmp	#0, r14
 847 0041 20 CD                   		beq	.L118
1024:C:/Workspace/FW_Platform2_5/trunk/ProductModules/PM_EnergyMeterSw\PM_EnergyMeterSwTable.c ****   {
1025:C:/Workspace/FW_Platform2_5/trunk/ProductModules/PM_EnergyMeterSw\PM_EnergyMeterSwTable.c ****     return EMS_E_INVALID_VALUE;
1026:C:/Workspace/FW_Platform2_5/trunk/ProductModules/PM_EnergyMeterSw\PM_EnergyMeterSwTable.c ****   }
1027:C:/Workspace/FW_Platform2_5/trunk/ProductModules/PM_EnergyMeterSw\PM_EnergyMeterSwTable.c **** 
1028:C:/Workspace/FW_Platform2_5/trunk/ProductModules/PM_EnergyMeterSw\PM_EnergyMeterSwTable.c ****   /* cerca sulla curva Y2 la retta che include Vin */
1029:C:/Workspace/FW_Platform2_5/trunk/ProductModules/PM_EnergyMeterSw\PM_EnergyMeterSwTable.c ****   aui8Result[1] = CurveYFindPoints(psTable, &(psSurfaceY->sCurveY2), ui16Vin, &sLineY2);
 848                             		.loc 1 1029 0 is_stmt 1
 849 0043 66 C4                   		mov.L	#12, r4
 850 0045 71 A2 0C                		add	#12, r10, r2
 851 0048 4B 04                   		add	r0, r4
 852 004a EF 91                   		mov.L	r9, r1
 853                             	.LVL93:
 854 004c DF 73                   		mov.W	r7, r3
 855 004e 05 00 00 00             		bsr	_CurveYFindPoints
 856                             	.LVL94:
1030:C:/Workspace/FW_Platform2_5/trunk/ProductModules/PM_EnergyMeterSw\PM_EnergyMeterSwTable.c ****   if ((aui8Result[1] != EMS_E_OK) || (sLineY2.sPoint1.ui8Valid == 0))
 857                             		.loc 1 1030 0
 858 0052 5B 11                   		movu.B	r1, r1
 859 0054 61 01                   		cmp	#0, r1
 860 0056 21 B8                   		bne	.L118
 861                             		.loc 1 1030 0 is_stmt 0 discriminator 1
 862 0058 59 0E 0C                		movu.B	12[r0], r14
 863 005b 61 0E                   		cmp	#0, r14
 864 005d 20 B1                   		beq	.L118
1031:C:/Workspace/FW_Platform2_5/trunk/ProductModules/PM_EnergyMeterSw\PM_EnergyMeterSwTable.c ****   {
1032:C:/Workspace/FW_Platform2_5/trunk/ProductModules/PM_EnergyMeterSw\PM_EnergyMeterSwTable.c ****     return EMS_E_INVALID_VALUE;
1033:C:/Workspace/FW_Platform2_5/trunk/ProductModules/PM_EnergyMeterSw\PM_EnergyMeterSwTable.c ****   }
1034:C:/Workspace/FW_Platform2_5/trunk/ProductModules/PM_EnergyMeterSw\PM_EnergyMeterSwTable.c **** 
1035:C:/Workspace/FW_Platform2_5/trunk/ProductModules/PM_EnergyMeterSw\PM_EnergyMeterSwTable.c ****   /* trovato almeno un valore su Y1 (sLineY1.sPoint1) e un valore su Y2 (sLineY2.sPoint1) */
1036:C:/Workspace/FW_Platform2_5/trunk/ProductModules/PM_EnergyMeterSw\PM_EnergyMeterSwTable.c **** 
1037:C:/Workspace/FW_Platform2_5/trunk/ProductModules/PM_EnergyMeterSw\PM_EnergyMeterSwTable.c ****   if ((sLineY1.sPoint2.ui8Valid == 0) && (sLineY2.sPoint2.ui8Valid == 0))
 865                             		.loc 1 1037 0 is_stmt 1
 866 005f B7 84                   		movu.B	30[r0], r4
 867 0061 DD A3 01                		mov.W	2[r10], r3
 868 0064 61 04                   		cmp	#0, r4
 869 0066 59 0E 12                		movu.B	18[r0], r14
 870 0069 DD AA 07                		mov.W	14[r10], r10
 871                             	.LVL95:
 872 006c 21 1D                   		bne	.L119
 873                             		.loc 1 1037 0 is_stmt 0 discriminator 1
 874 006e 61 0E                   		cmp	#0, r14
 875 0070 9B 84                   		mov.W	28[r0], r4
 876 0072 21 2D                   		bne	.L120
 877                             	.LVL96:
 878                             	.LBB56:
 879                             	.LBB57:
 857:C:/Workspace/FW_Platform2_5/trunk/ProductModules/PM_EnergyMeterSw\PM_EnergyMeterSwTable.c ****   return CalcoloPuntoSuRetta(ui16Yx,
 880                             		.loc 1 857 0 is_stmt 1
 881 0074 9A 07                   		mov.W	16[r0], r7
 882                             	.LVL97:
 883 0076 DF 32                   		mov.W	r3, r2
 884 0078 D3 07                   		mov.W	r7, [r0]
 885 007a DF 43                   		mov.W	r4, r3
 886 007c E7 0D 01                		mov.L	r13, 4[r0]
 887 007f DF C1                   		mov.W	r12, r1
 888                             	.LVL98:
 889 0081 DF A4                   		mov.W	r10, r4
 890 0083 05 00 00 00             		bsr	_CalcoloPuntoSuRetta
 891                             	.LVL99:
 892 0087 2E 45                   		bra	.L117
 893                             	.LVL100:
 894                             	.L119:
 895                             	.LBE57:
 896                             	.LBE56:
1038:C:/Workspace/FW_Platform2_5/trunk/ProductModules/PM_EnergyMeterSw\PM_EnergyMeterSwTable.c ****   {
1039:C:/Workspace/FW_Platform2_5/trunk/ProductModules/PM_EnergyMeterSw\PM_EnergyMeterSwTable.c ****     /* trovato un solo valore su Y1 e un solo valore su Y2 */
1040:C:/Workspace/FW_Platform2_5/trunk/ProductModules/PM_EnergyMeterSw\PM_EnergyMeterSwTable.c ****     return TableCalibDoppia_Punti(ui16Yx,
1041:C:/Workspace/FW_Platform2_5/trunk/ProductModules/PM_EnergyMeterSw\PM_EnergyMeterSwTable.c ****                                   psSurfaceY->sCurveY1.ui16Yvalue, sLineY1.sPoint1.ui16Pw,
1042:C:/Workspace/FW_Platform2_5/trunk/ProductModules/PM_EnergyMeterSw\PM_EnergyMeterSwTable.c ****                                   psSurfaceY->sCurveY2.ui16Yvalue, sLineY2.sPoint1.ui16Pw,
1043:C:/Workspace/FW_Platform2_5/trunk/ProductModules/PM_EnergyMeterSw\PM_EnergyMeterSwTable.c ****                                   pui16Power);
1044:C:/Workspace/FW_Platform2_5/trunk/ProductModules/PM_EnergyMeterSw\PM_EnergyMeterSwTable.c ****   }
1045:C:/Workspace/FW_Platform2_5/trunk/ProductModules/PM_EnergyMeterSw\PM_EnergyMeterSwTable.c ****   else if ((sLineY1.sPoint2.ui8Valid != 0) && (sLineY2.sPoint2.ui8Valid == 0))
 897                             		.loc 1 1045 0 discriminator 1
 898 0089 61 0E                   		cmp	#0, r14
 899 008b 21 2B                   		bne	.L121
1046:C:/Workspace/FW_Platform2_5/trunk/ProductModules/PM_EnergyMeterSw\PM_EnergyMeterSwTable.c ****   {
1047:C:/Workspace/FW_Platform2_5/trunk/ProductModules/PM_EnergyMeterSw\PM_EnergyMeterSwTable.c ****     /* trovati due valori su Y1 e un solo valore su Y2 */
1048:C:/Workspace/FW_Platform2_5/trunk/ProductModules/PM_EnergyMeterSw\PM_EnergyMeterSwTable.c ****     return TableCalibDoppia_PuntoRetta(ui16Yx, ui16Vin,
 900                             		.loc 1 1048 0
 901 008d D3 03                   		mov.W	r3, [r0]
 902 008f E7 0B 01                		mov.L	r11, 4[r0]
 903 0092 E7 0D 02                		mov.L	r13, 8[r0]
 904 0095 DF C1                   		mov.W	r12, r1
 905                             	.LVL101:
 906 0097 DF 72                   		mov.W	r7, r2
 907 0099 DF A3                   		mov.W	r10, r3
 908 009b 9A 04                   		mov.W	16[r0], r4
 909 009d 2E 13                   		bra	.L129
 910                             	.LVL102:
 911                             	.L120:
1049:C:/Workspace/FW_Platform2_5/trunk/ProductModules/PM_EnergyMeterSw\PM_EnergyMeterSwTable.c ****                                        psSurfaceY->sCurveY2.ui16Yvalue, sLineY2.sPoint1.ui16Pw,
1050:C:/Workspace/FW_Platform2_5/trunk/ProductModules/PM_EnergyMeterSw\PM_EnergyMeterSwTable.c ****                                        psSurfaceY->sCurveY1.ui16Yvalue, &sLineY1,
1051:C:/Workspace/FW_Platform2_5/trunk/ProductModules/PM_EnergyMeterSw\PM_EnergyMeterSwTable.c ****                                        pui16Power);
1052:C:/Workspace/FW_Platform2_5/trunk/ProductModules/PM_EnergyMeterSw\PM_EnergyMeterSwTable.c ****   }
1053:C:/Workspace/FW_Platform2_5/trunk/ProductModules/PM_EnergyMeterSw\PM_EnergyMeterSwTable.c ****   else if ((sLineY1.sPoint2.ui8Valid == 0) && (sLineY2.sPoint2.ui8Valid != 0))
1054:C:/Workspace/FW_Platform2_5/trunk/ProductModules/PM_EnergyMeterSw\PM_EnergyMeterSwTable.c ****   {
1055:C:/Workspace/FW_Platform2_5/trunk/ProductModules/PM_EnergyMeterSw\PM_EnergyMeterSwTable.c ****     /* trovato un solo valore su Y1 e due valori su Y2 */
1056:C:/Workspace/FW_Platform2_5/trunk/ProductModules/PM_EnergyMeterSw\PM_EnergyMeterSwTable.c ****     return TableCalibDoppia_PuntoRetta(ui16Yx, ui16Vin,
 912                             		.loc 1 1056 0 discriminator 1
 913 009f D3 0A                   		mov.W	r10, [r0]
 914 00a1 66 CA                   		mov.L	#12, r10
 915 00a3 4B 0A                   		add	r0, r10
 916 00a5 E7 0A 01                		mov.L	r10, 4[r0]
 917 00a8 E7 0D 02                		mov.L	r13, 8[r0]
 918 00ab DF C1                   		mov.W	r12, r1
 919                             	.LVL103:
 920 00ad DF 72                   		mov.W	r7, r2
 921                             	.LVL104:
 922 00af 03                      		.balign 2,3,3
 923                             	.L129:
 924 00b0 05 00 00 00             		bsr	_TableCalibDoppia_PuntoRetta
 925                             	.LVL105:
 926 00b4 2E 18                   		bra	.L117
 927                             	.LVL106:
 928                             	.L121:
1057:C:/Workspace/FW_Platform2_5/trunk/ProductModules/PM_EnergyMeterSw\PM_EnergyMeterSwTable.c ****                                        psSurfaceY->sCurveY1.ui16Yvalue, sLineY1.sPoint1.ui16Pw,
1058:C:/Workspace/FW_Platform2_5/trunk/ProductModules/PM_EnergyMeterSw\PM_EnergyMeterSwTable.c ****                                        psSurfaceY->sCurveY2.ui16Yvalue, &sLineY2,
1059:C:/Workspace/FW_Platform2_5/trunk/ProductModules/PM_EnergyMeterSw\PM_EnergyMeterSwTable.c ****                                        pui16Power);
1060:C:/Workspace/FW_Platform2_5/trunk/ProductModules/PM_EnergyMeterSw\PM_EnergyMeterSwTable.c ****   }
1061:C:/Workspace/FW_Platform2_5/trunk/ProductModules/PM_EnergyMeterSw\PM_EnergyMeterSwTable.c ****   else /* if ((sLineY1.sPoint2.ui8Valid != 0) && (sLineY2.sPoint2.ui8Valid != 0)) */
1062:C:/Workspace/FW_Platform2_5/trunk/ProductModules/PM_EnergyMeterSw\PM_EnergyMeterSwTable.c ****   {
1063:C:/Workspace/FW_Platform2_5/trunk/ProductModules/PM_EnergyMeterSw\PM_EnergyMeterSwTable.c ****     /* trovati due valori su Y1 e due valori su Y2 */
1064:C:/Workspace/FW_Platform2_5/trunk/ProductModules/PM_EnergyMeterSw\PM_EnergyMeterSwTable.c ****     return TableCalibDoppia_Rette(ui16Yx, ui16Vin,
 929                             		.loc 1 1064 0
 930 00b6 D3 0A                   		mov.W	r10, [r0]
 931 00b8 66 CA                   		mov.L	#12, r10
 932 00ba 4B 0A                   		add	r0, r10
 933 00bc E7 0A 01                		mov.L	r10, 4[r0]
 934 00bf E7 0D 02                		mov.L	r13, 8[r0]
 935 00c2 DF C1                   		mov.W	r12, r1
 936                             	.LVL107:
 937 00c4 DF 72                   		mov.W	r7, r2
 938 00c6 EF B4                   		mov.L	r11, r4
 939 00c8 05 00 00 00             		bsr	_TableCalibDoppia_Rette
 940                             	.LVL108:
 941                             		.balign 2,3,2
 942                             	.L117:
1065:C:/Workspace/FW_Platform2_5/trunk/ProductModules/PM_EnergyMeterSw\PM_EnergyMeterSwTable.c ****                                   psSurfaceY->sCurveY1.ui16Yvalue, &sLineY1,
1066:C:/Workspace/FW_Platform2_5/trunk/ProductModules/PM_EnergyMeterSw\PM_EnergyMeterSwTable.c ****                                   psSurfaceY->sCurveY2.ui16Yvalue, &sLineY2,
1067:C:/Workspace/FW_Platform2_5/trunk/ProductModules/PM_EnergyMeterSw\PM_EnergyMeterSwTable.c ****                                   pui16Power);
1068:C:/Workspace/FW_Platform2_5/trunk/ProductModules/PM_EnergyMeterSw\PM_EnergyMeterSwTable.c ****   }
1069:C:/Workspace/FW_Platform2_5/trunk/ProductModules/PM_EnergyMeterSw\PM_EnergyMeterSwTable.c **** }
 943                             		.loc 1 1069 0
 944 00cc 3F 7D 11                		rtsd	#68, r7-r13
 945                             	.LFE14:
 947 00cf 03                      		.section	.text.TablePower,"ax",@progbits
 948                             		.global	_TablePower
 950                             	_TablePower:
 951                             	.LFB1:
 228:C:/Workspace/FW_Platform2_5/trunk/ProductModules/PM_EnergyMeterSw\PM_EnergyMeterSwTable.c **** {
 952                             		.loc 1 228 0
 953                             	.LVL109:
 954 0000 6E 7B                   		pushm	r7-r11
 955                             	.LCFI18:
 956 0002 71 00 E0                		add	#-32, r0
 957                             	.LCFI19:
 234:C:/Workspace/FW_Platform2_5/trunk/ProductModules/PM_EnergyMeterSw\PM_EnergyMeterSwTable.c ****   if ((psTable == NULL) || (pui16Power == NULL))
 958                             		.loc 1 234 0
 959 0005 71 17 00                		add	#0, r1, r7
 960 0008 21 06                   		bne	.L131
 961                             	.LVL110:
 962                             		.balign 2,3,1
 963                             	.L133:
 236:C:/Workspace/FW_Platform2_5/trunk/ProductModules/PM_EnergyMeterSw\PM_EnergyMeterSwTable.c ****     return EMS_E_INVALID_VALUE;
 964                             		.loc 1 236 0
 965 000a 66 31                   		mov.L	#3, r1
 966 000c 2E 5E                   		bra	.L132
 967                             	.LVL111:
 968                             	.L131:
 234:C:/Workspace/FW_Platform2_5/trunk/ProductModules/PM_EnergyMeterSw\PM_EnergyMeterSwTable.c ****   if ((psTable == NULL) || (pui16Power == NULL))
 969                             		.loc 1 234 0 discriminator 1
 970 000e 61 04                   		cmp	#0, r4
 971 0010 20 FA                   		beq	.L133
 245:C:/Workspace/FW_Platform2_5/trunk/ProductModules/PM_EnergyMeterSw\PM_EnergyMeterSwTable.c ****   CurveInit(&sSurface.sCurveY1);
 972                             		.loc 1 245 0
 973 0012 66 41                   		mov.L	#4, r1
 974                             	.LVL112:
 975 0014 4B 01                   		add	r0, r1
 976 0016 A1 8C                   		mov.L	r4, 28[r0]
 977 0018 DF 2A                   		mov.W	r2, r10
 978 001a DF 3B                   		mov.W	r3, r11
 979                             	.LVL113:
 980 001c 05 00 00 00             		bsr	_CurveInit
 981                             	.LVL114:
 246:C:/Workspace/FW_Platform2_5/trunk/ProductModules/PM_EnergyMeterSw\PM_EnergyMeterSwTable.c ****   CurveInit(&sSurface.sCurveY2);
 982                             		.loc 1 246 0
 983 0020 71 01 10                		add	#16, r0, r1
 984 0023 05 00 00 00             		bsr	_CurveInit
 985                             	.LVL115:
 249:C:/Workspace/FW_Platform2_5/trunk/ProductModules/PM_EnergyMeterSw\PM_EnergyMeterSwTable.c ****   ui8Result = TableFindYCurves(psTable, ui16Yx, &sSurface);
 986                             		.loc 1 249 0
 987 0027 66 43                   		mov.L	#4, r3
 988 0029 4B 03                   		add	r0, r3
 989 002b EF 71                   		mov.L	r7, r1
 990 002d DF A2                   		mov.W	r10, r2
 991 002f 05 00 00 00             		bsr	_TableFindYCurves
 992                             	.LVL116:
 250:C:/Workspace/FW_Platform2_5/trunk/ProductModules/PM_EnergyMeterSw\PM_EnergyMeterSwTable.c ****   if ((ui8Result != EMS_E_OK) || (sSurface.sCurveY1.ui8Valid == 0))
 993                             		.loc 1 250 0
 994 0033 5B 11                   		movu.B	r1, r1
 995 0035 61 01                   		cmp	#0, r1
 996 0037 A9 8C                   		mov.L	28[r0], r4
 997 0039 21 D1                   		bne	.L133
 250:C:/Workspace/FW_Platform2_5/trunk/ProductModules/PM_EnergyMeterSw\PM_EnergyMeterSwTable.c ****   if ((ui8Result != EMS_E_OK) || (sSurface.sCurveY1.ui8Valid == 0))
 998                             		.loc 1 250 0 is_stmt 0 discriminator 1
 999 003b 59 0E 04                		movu.B	4[r0], r14
 1000 003e 61 0E                   		cmp	#0, r14
 1001 0040 20 CA                   		beq	.L133
 241:C:/Workspace/FW_Platform2_5/trunk/ProductModules/PM_EnergyMeterSw\PM_EnergyMeterSwTable.c ****   ui16Vin >>= 8;
 1002                             		.loc 1 241 0 is_stmt 1
 1003 0042 5F B3                   		movu.W	r11, r3
 258:C:/Workspace/FW_Platform2_5/trunk/ProductModules/PM_EnergyMeterSw\PM_EnergyMeterSwTable.c ****   if (sSurface.sCurveY2.ui8Valid == 0)
 1004                             		.loc 1 258 0
 1005 0044 59 0B 10                		movu.B	16[r0], r11
 1006                             	.LVL117:
 241:C:/Workspace/FW_Platform2_5/trunk/ProductModules/PM_EnergyMeterSw\PM_EnergyMeterSwTable.c ****   ui16Vin >>= 8;
 1007                             		.loc 1 241 0
 1008 0047 68 83                   		shlr	#8, r3
 258:C:/Workspace/FW_Platform2_5/trunk/ProductModules/PM_EnergyMeterSw\PM_EnergyMeterSwTable.c ****   if (sSurface.sCurveY2.ui8Valid == 0)
 1009                             		.loc 1 258 0
 1010 0049 61 0B                   		cmp	#0, r11
 1011 004b 21 10                   		bne	.L134
 260:C:/Workspace/FW_Platform2_5/trunk/ProductModules/PM_EnergyMeterSw\PM_EnergyMeterSwTable.c ****     return TableCalibSingola(psTable, ui16Vin, &sSurface.sCurveY1, pui16Power);
 1012                             		.loc 1 260 0
 1013 004d DF 32                   		mov.W	r3, r2
 1014 004f 66 43                   		mov.L	#4, r3
 1015 0051 EF 71                   		mov.L	r7, r1
 1016                             	.LVL118:
 1017 0053 4B 03                   		add	r0, r3
 1018 0055 05 00 00 00             		bsr	_TableCalibSingola
 1019                             	.LVL119:
 1020 0059 2E 11                   		bra	.L132
 1021                             	.LVL120:
 1022                             	.L134:
 264:C:/Workspace/FW_Platform2_5/trunk/ProductModules/PM_EnergyMeterSw\PM_EnergyMeterSwTable.c ****     return TableCalibDoppia(psTable, ui16Yx, ui16Vin, &sSurface, pui16Power);
 1023                             		.loc 1 264 0
 1024 005b E3 04                   		mov.L	r4, [r0]
 1025 005d 66 44                   		mov.L	#4, r4
 1026 005f EF 71                   		mov.L	r7, r1
 1027                             	.LVL121:
 1028 0061 DF A2                   		mov.W	r10, r2
 1029 0063 4B 04                   		add	r0, r4
 1030 0065 05 00 00 00             		bsr	_TableCalibDoppia
 1031                             	.LVL122:
 1032 0069 03                      		.balign 2,3,2
 1033                             	.L132:
 266:C:/Workspace/FW_Platform2_5/trunk/ProductModules/PM_EnergyMeterSw\PM_EnergyMeterSwTable.c **** }
 1034                             		.loc 1 266 0
 1035 006a 3F 7B 0D                		rtsd	#52, r7-r11
 1036                             	.LFE1:
 1367                             	.Letext0:
 1368                             		.file 2 "C:\\Workspace\\FW_Platform2_5\\trunk\\HAL\\HAL_General/StandardTypes.h"
 1369                             		.file 3 "C:/Workspace/FW_Platform2_5/trunk/ProductModules/PM_EnergyMeterSw/PM_EnergyMeterSwExp.h"
 1370                             		.file 4 "C:/Workspace/FW_Platform2_5/trunk/ProductModules/PM_EnergyMeterSw/PM_EnergyMeterSwTable.h
 1371                             		.file 5 "C:/Workspace/FW_Platform2_5/trunk/ProductModules/PM_EnergyMeterSw/PM_EnergyMeterSwTable_p
