   1                             		.file	"PM_FrequencyFeedbacks.c"
   2                             		.section P,"ax"
   3                             	.Ltext0:
   4                             		.section	.text.PM_FrequencyFeedbacks_GetIndexByPosition,"ax",@progbits
   6                             	_PM_FrequencyFeedbacks_GetIndexByPosition:
   7                             	.LFB19:
   8                             		.file 1 "C:/Workspace/FW_Platform2_5/trunk/ProductModules/PM_FreqFeedbacks/PM_FrequencyFeedbacks.c
   1:C:/Workspace/FW_Platform2_5/trunk/ProductModules/PM_FreqFeedbacks\PM_FrequencyFeedbacks.c **** /*
   2:C:/Workspace/FW_Platform2_5/trunk/ProductModules/PM_FreqFeedbacks\PM_FrequencyFeedbacks.c **** Copyright (c) 2004-2005, Indesit Company, I.D.D..
   3:C:/Workspace/FW_Platform2_5/trunk/ProductModules/PM_FreqFeedbacks\PM_FrequencyFeedbacks.c **** Tutti i diritti sono riservati. All rights reserved.
   4:C:/Workspace/FW_Platform2_5/trunk/ProductModules/PM_FreqFeedbacks\PM_FrequencyFeedbacks.c **** */
   5:C:/Workspace/FW_Platform2_5/trunk/ProductModules/PM_FreqFeedbacks\PM_FrequencyFeedbacks.c **** /**
   6:C:/Workspace/FW_Platform2_5/trunk/ProductModules/PM_FreqFeedbacks\PM_FrequencyFeedbacks.c ****  * \page pageFreqFeedb
   7:C:/Workspace/FW_Platform2_5/trunk/ProductModules/PM_FreqFeedbacks\PM_FrequencyFeedbacks.c ****  *\ingroup	PM_FrequencyFeedbacks
   8:C:/Workspace/FW_Platform2_5/trunk/ProductModules/PM_FreqFeedbacks\PM_FrequencyFeedbacks.c ****  */
   9:C:/Workspace/FW_Platform2_5/trunk/ProductModules/PM_FreqFeedbacks\PM_FrequencyFeedbacks.c **** /**
  10:C:/Workspace/FW_Platform2_5/trunk/ProductModules/PM_FreqFeedbacks\PM_FrequencyFeedbacks.c **** \n
  11:C:/Workspace/FW_Platform2_5/trunk/ProductModules/PM_FreqFeedbacks\PM_FrequencyFeedbacks.c **** \par		Frequency Feedbacks
  12:C:/Workspace/FW_Platform2_5/trunk/ProductModules/PM_FreqFeedbacks\PM_FrequencyFeedbacks.c **** \n			TODO
  13:C:/Workspace/FW_Platform2_5/trunk/ProductModules/PM_FreqFeedbacks\PM_FrequencyFeedbacks.c **** \n
  14:C:/Workspace/FW_Platform2_5/trunk/ProductModules/PM_FreqFeedbacks\PM_FrequencyFeedbacks.c **** \file		PM_FrequencyFeedbacks.c
  15:C:/Workspace/FW_Platform2_5/trunk/ProductModules/PM_FreqFeedbacks\PM_FrequencyFeedbacks.c **** \ingroup	PM_FrequencyFeedbacks
  16:C:/Workspace/FW_Platform2_5/trunk/ProductModules/PM_FreqFeedbacks\PM_FrequencyFeedbacks.c **** \date		12/06/2012
  17:C:/Workspace/FW_Platform2_5/trunk/ProductModules/PM_FreqFeedbacks\PM_FrequencyFeedbacks.c **** \author		Roberto Fioravanti
  18:C:/Workspace/FW_Platform2_5/trunk/ProductModules/PM_FreqFeedbacks\PM_FrequencyFeedbacks.c **** \n
  19:C:/Workspace/FW_Platform2_5/trunk/ProductModules/PM_FreqFeedbacks\PM_FrequencyFeedbacks.c **** \n
  20:C:/Workspace/FW_Platform2_5/trunk/ProductModules/PM_FreqFeedbacks\PM_FrequencyFeedbacks.c **** \n
  21:C:/Workspace/FW_Platform2_5/trunk/ProductModules/PM_FreqFeedbacks\PM_FrequencyFeedbacks.c **** \n etc.
  22:C:/Workspace/FW_Platform2_5/trunk/ProductModules/PM_FreqFeedbacks\PM_FrequencyFeedbacks.c **** */
  23:C:/Workspace/FW_Platform2_5/trunk/ProductModules/PM_FreqFeedbacks\PM_FrequencyFeedbacks.c **** #define MODULE_BODY_FREQFB
  24:C:/Workspace/FW_Platform2_5/trunk/ProductModules/PM_FreqFeedbacks\PM_FrequencyFeedbacks.c **** /* ******** */
  25:C:/Workspace/FW_Platform2_5/trunk/ProductModules/PM_FreqFeedbacks\PM_FrequencyFeedbacks.c **** /* Includes */
  26:C:/Workspace/FW_Platform2_5/trunk/ProductModules/PM_FreqFeedbacks\PM_FrequencyFeedbacks.c **** /* ******** */
  27:C:/Workspace/FW_Platform2_5/trunk/ProductModules/PM_FreqFeedbacks\PM_FrequencyFeedbacks.c **** #define __PM_FREQUENCY_FEEDBACKS
  28:C:/Workspace/FW_Platform2_5/trunk/ProductModules/PM_FreqFeedbacks\PM_FrequencyFeedbacks.c **** 
  29:C:/Workspace/FW_Platform2_5/trunk/ProductModules/PM_FreqFeedbacks\PM_FrequencyFeedbacks.c **** #include "string.h"
  30:C:/Workspace/FW_Platform2_5/trunk/ProductModules/PM_FreqFeedbacks\PM_FrequencyFeedbacks.c **** #include "OCDIO_drv.h"
  31:C:/Workspace/FW_Platform2_5/trunk/ProductModules/PM_FreqFeedbacks\PM_FrequencyFeedbacks.c **** #include "OCTPM_drv.h"
  32:C:/Workspace/FW_Platform2_5/trunk/ProductModules/PM_FreqFeedbacks\PM_FrequencyFeedbacks.c **** #include "PM_FrequencyFeedbacks.h"
  33:C:/Workspace/FW_Platform2_5/trunk/ProductModules/PM_FreqFeedbacks\PM_FrequencyFeedbacks.c **** #include "LIB_ZeroCrossing.h"
  34:C:/Workspace/FW_Platform2_5/trunk/ProductModules/PM_FreqFeedbacks\PM_FrequencyFeedbacks.c **** #include "IOSharing.h"
  35:C:/Workspace/FW_Platform2_5/trunk/ProductModules/PM_FreqFeedbacks\PM_FrequencyFeedbacks.c **** #include "DigitalInputs.h"
  36:C:/Workspace/FW_Platform2_5/trunk/ProductModules/PM_FreqFeedbacks\PM_FrequencyFeedbacks.c **** #include "LIB_Trace.h"
  37:C:/Workspace/FW_Platform2_5/trunk/ProductModules/PM_FreqFeedbacks\PM_FrequencyFeedbacks.c **** #include "Lib_ClassBVar.h"
  38:C:/Workspace/FW_Platform2_5/trunk/ProductModules/PM_FreqFeedbacks\PM_FrequencyFeedbacks.c **** #include "LIB_Error.h"
  39:C:/Workspace/FW_Platform2_5/trunk/ProductModules/PM_FreqFeedbacks\PM_FrequencyFeedbacks.c **** 
  40:C:/Workspace/FW_Platform2_5/trunk/ProductModules/PM_FreqFeedbacks\PM_FrequencyFeedbacks.c **** /* ****************** */
  41:C:/Workspace/FW_Platform2_5/trunk/ProductModules/PM_FreqFeedbacks\PM_FrequencyFeedbacks.c **** /* Defines and Macros */
  42:C:/Workspace/FW_Platform2_5/trunk/ProductModules/PM_FreqFeedbacks\PM_FrequencyFeedbacks.c **** /* ****************** */
  43:C:/Workspace/FW_Platform2_5/trunk/ProductModules/PM_FreqFeedbacks\PM_FrequencyFeedbacks.c **** 
  44:C:/Workspace/FW_Platform2_5/trunk/ProductModules/PM_FreqFeedbacks\PM_FrequencyFeedbacks.c **** #ifndef CONFIG_FREQUENCY_FEEDBACKS_DISABLE_MODULE
  45:C:/Workspace/FW_Platform2_5/trunk/ProductModules/PM_FreqFeedbacks\PM_FrequencyFeedbacks.c **** #define CONFIG_FREQUENCY_FEEDBACKS_DISABLE_MODULE 		(0)
  46:C:/Workspace/FW_Platform2_5/trunk/ProductModules/PM_FreqFeedbacks\PM_FrequencyFeedbacks.c **** #endif
  47:C:/Workspace/FW_Platform2_5/trunk/ProductModules/PM_FreqFeedbacks\PM_FrequencyFeedbacks.c **** 
  48:C:/Workspace/FW_Platform2_5/trunk/ProductModules/PM_FreqFeedbacks\PM_FrequencyFeedbacks.c **** #ifndef CONFIG_FREQUENCY_FEEDBACKS_MAX_ITEMS_NUMBER
  49:C:/Workspace/FW_Platform2_5/trunk/ProductModules/PM_FreqFeedbacks\PM_FrequencyFeedbacks.c **** #define CONFIG_FREQUENCY_FEEDBACKS_MAX_ITEMS_NUMBER		(1)
  50:C:/Workspace/FW_Platform2_5/trunk/ProductModules/PM_FreqFeedbacks\PM_FrequencyFeedbacks.c **** #endif
  51:C:/Workspace/FW_Platform2_5/trunk/ProductModules/PM_FreqFeedbacks\PM_FrequencyFeedbacks.c **** 
  52:C:/Workspace/FW_Platform2_5/trunk/ProductModules/PM_FreqFeedbacks\PM_FrequencyFeedbacks.c **** /** Key for global static structure of the module.*/
  53:C:/Workspace/FW_Platform2_5/trunk/ProductModules/PM_FreqFeedbacks\PM_FrequencyFeedbacks.c **** #define PM_FREQUENCY_FEEDBACKS_KEY						( ((uint8_t)CONFIG_FREQUENCY_FEEDBACKS_MAX_ITEMS_NUMBER<<8)
  54:C:/Workspace/FW_Platform2_5/trunk/ProductModules/PM_FreqFeedbacks\PM_FrequencyFeedbacks.c **** /** Type ID for frequency feedback local structure. use to validate the type of the structure*/
  55:C:/Workspace/FW_Platform2_5/trunk/ProductModules/PM_FreqFeedbacks\PM_FrequencyFeedbacks.c **** #define PM_FREQUENCY_FEEDBACK_ID						((uint8_t)(CONFIG_FREQUENCY_FEEDBACKS_MAX_ITEMS_NUMBER))
  56:C:/Workspace/FW_Platform2_5/trunk/ProductModules/PM_FreqFeedbacks\PM_FrequencyFeedbacks.c **** 
  57:C:/Workspace/FW_Platform2_5/trunk/ProductModules/PM_FreqFeedbacks\PM_FrequencyFeedbacks.c **** 
  58:C:/Workspace/FW_Platform2_5/trunk/ProductModules/PM_FreqFeedbacks\PM_FrequencyFeedbacks.c **** #define PM_FREQUENCY_FEEDBACKS_ASSERT_LOCAL(Exp, ErrVar, ErrCode)		\
  59:C:/Workspace/FW_Platform2_5/trunk/ProductModules/PM_FreqFeedbacks\PM_FrequencyFeedbacks.c **** 															if (!(Exp)) \
  60:C:/Workspace/FW_Platform2_5/trunk/ProductModules/PM_FreqFeedbacks\PM_FrequencyFeedbacks.c **** 																{ErrVar = (ErrCode); }
  61:C:/Workspace/FW_Platform2_5/trunk/ProductModules/PM_FreqFeedbacks\PM_FrequencyFeedbacks.c **** 
  62:C:/Workspace/FW_Platform2_5/trunk/ProductModules/PM_FreqFeedbacks\PM_FrequencyFeedbacks.c **** /** Frequency feedback sampling flag */
  63:C:/Workspace/FW_Platform2_5/trunk/ProductModules/PM_FreqFeedbacks\PM_FrequencyFeedbacks.c **** #define PM_FF_ITEM_CTRL_SAMPLE_ENABLED					(1<<0)
  64:C:/Workspace/FW_Platform2_5/trunk/ProductModules/PM_FreqFeedbacks\PM_FrequencyFeedbacks.c **** /** Frequency feedback availability flag*/
  65:C:/Workspace/FW_Platform2_5/trunk/ProductModules/PM_FreqFeedbacks\PM_FrequencyFeedbacks.c **** #define PM_FF_ITEM_CTRL_UNAVAILABLE						(1<<1)
  66:C:/Workspace/FW_Platform2_5/trunk/ProductModules/PM_FreqFeedbacks\PM_FrequencyFeedbacks.c **** 
  67:C:/Workspace/FW_Platform2_5/trunk/ProductModules/PM_FreqFeedbacks\PM_FrequencyFeedbacks.c **** /** If set the result of the sampling is available */
  68:C:/Workspace/FW_Platform2_5/trunk/ProductModules/PM_FreqFeedbacks\PM_FrequencyFeedbacks.c **** #define PM_FF_ITEM_STATUS_SAMPLES_READY					(1<<0)
  69:C:/Workspace/FW_Platform2_5/trunk/ProductModules/PM_FreqFeedbacks\PM_FrequencyFeedbacks.c **** /** If set end of frequency detection reached */
  70:C:/Workspace/FW_Platform2_5/trunk/ProductModules/PM_FreqFeedbacks\PM_FrequencyFeedbacks.c **** #define PM_FF_ITEM_STATUS_END_OF_FREQ					(1<<1)
  71:C:/Workspace/FW_Platform2_5/trunk/ProductModules/PM_FreqFeedbacks\PM_FrequencyFeedbacks.c **** /** If set the result of the frequency detection is available */
  72:C:/Workspace/FW_Platform2_5/trunk/ProductModules/PM_FreqFeedbacks\PM_FrequencyFeedbacks.c **** #define PM_FF_ITEM_STATUS_FREQ_READY					(1<<2)
  73:C:/Workspace/FW_Platform2_5/trunk/ProductModules/PM_FreqFeedbacks\PM_FrequencyFeedbacks.c **** /** periodic signal notification, raised by PWD */
  74:C:/Workspace/FW_Platform2_5/trunk/ProductModules/PM_FreqFeedbacks\PM_FrequencyFeedbacks.c **** #define PM_FF_ITEM_STATUS_PERIODIC						(1<<3)
  75:C:/Workspace/FW_Platform2_5/trunk/ProductModules/PM_FreqFeedbacks\PM_FrequencyFeedbacks.c **** /** If set frequency detection is on going */
  76:C:/Workspace/FW_Platform2_5/trunk/ProductModules/PM_FreqFeedbacks\PM_FrequencyFeedbacks.c **** #define PM_FF_ITEM_STATUS_PULSE							(1<<4)
  77:C:/Workspace/FW_Platform2_5/trunk/ProductModules/PM_FreqFeedbacks\PM_FrequencyFeedbacks.c **** 
  78:C:/Workspace/FW_Platform2_5/trunk/ProductModules/PM_FreqFeedbacks\PM_FrequencyFeedbacks.c **** 
  79:C:/Workspace/FW_Platform2_5/trunk/ProductModules/PM_FreqFeedbacks\PM_FrequencyFeedbacks.c **** /**/
  80:C:/Workspace/FW_Platform2_5/trunk/ProductModules/PM_FreqFeedbacks\PM_FrequencyFeedbacks.c **** #define PM_FF_50HZ_MAX_PULSES_NUM            			(9)
  81:C:/Workspace/FW_Platform2_5/trunk/ProductModules/PM_FreqFeedbacks\PM_FrequencyFeedbacks.c **** #define PM_FF_60HZ_MAX_PULSES_NUM            			(11)
  82:C:/Workspace/FW_Platform2_5/trunk/ProductModules/PM_FreqFeedbacks\PM_FrequencyFeedbacks.c **** #define PM_FF_HILO_FREQ_MAX_PULSES_NUM       			(8)
  83:C:/Workspace/FW_Platform2_5/trunk/ProductModules/PM_FreqFeedbacks\PM_FrequencyFeedbacks.c **** 
  84:C:/Workspace/FW_Platform2_5/trunk/ProductModules/PM_FreqFeedbacks\PM_FrequencyFeedbacks.c **** /* *************************** */
  85:C:/Workspace/FW_Platform2_5/trunk/ProductModules/PM_FreqFeedbacks\PM_FrequencyFeedbacks.c **** /* Typedef, Structs and Unions */
  86:C:/Workspace/FW_Platform2_5/trunk/ProductModules/PM_FreqFeedbacks\PM_FrequencyFeedbacks.c **** /* *************************** */
  87:C:/Workspace/FW_Platform2_5/trunk/ProductModules/PM_FreqFeedbacks\PM_FrequencyFeedbacks.c **** 
  88:C:/Workspace/FW_Platform2_5/trunk/ProductModules/PM_FreqFeedbacks\PM_FrequencyFeedbacks.c **** /**
  89:C:/Workspace/FW_Platform2_5/trunk/ProductModules/PM_FreqFeedbacks\PM_FrequencyFeedbacks.c **** @name General types
  90:C:/Workspace/FW_Platform2_5/trunk/ProductModules/PM_FreqFeedbacks\PM_FrequencyFeedbacks.c **** @{
  91:C:/Workspace/FW_Platform2_5/trunk/ProductModules/PM_FreqFeedbacks\PM_FrequencyFeedbacks.c **** */
  92:C:/Workspace/FW_Platform2_5/trunk/ProductModules/PM_FreqFeedbacks\PM_FrequencyFeedbacks.c **** 
  93:C:/Workspace/FW_Platform2_5/trunk/ProductModules/PM_FreqFeedbacks\PM_FrequencyFeedbacks.c **** /**
  94:C:/Workspace/FW_Platform2_5/trunk/ProductModules/PM_FreqFeedbacks\PM_FrequencyFeedbacks.c **** Processing status
  95:C:/Workspace/FW_Platform2_5/trunk/ProductModules/PM_FreqFeedbacks\PM_FrequencyFeedbacks.c **** */
  96:C:/Workspace/FW_Platform2_5/trunk/ProductModules/PM_FreqFeedbacks\PM_FrequencyFeedbacks.c **** typedef enum ePM_FrequencyFeedbackProcessStatus
  97:C:/Workspace/FW_Platform2_5/trunk/ProductModules/PM_FreqFeedbacks\PM_FrequencyFeedbacks.c **** {
  98:C:/Workspace/FW_Platform2_5/trunk/ProductModules/PM_FreqFeedbacks\PM_FrequencyFeedbacks.c **** 	/** Processing terminated */
  99:C:/Workspace/FW_Platform2_5/trunk/ProductModules/PM_FreqFeedbacks\PM_FrequencyFeedbacks.c **** 	PM_FREQUENCY_FEEDBACK_PROCESS_END = 0,
 100:C:/Workspace/FW_Platform2_5/trunk/ProductModules/PM_FreqFeedbacks\PM_FrequencyFeedbacks.c **** 	/** Processing ongoing */
 101:C:/Workspace/FW_Platform2_5/trunk/ProductModules/PM_FreqFeedbacks\PM_FrequencyFeedbacks.c **** 	PM_FREQUENCY_FEEDBACK_PROCESS_WORKING,
 102:C:/Workspace/FW_Platform2_5/trunk/ProductModules/PM_FreqFeedbacks\PM_FrequencyFeedbacks.c **** 	/** Error */
 103:C:/Workspace/FW_Platform2_5/trunk/ProductModules/PM_FreqFeedbacks\PM_FrequencyFeedbacks.c **** 	PM_FREQUENCY_FEEDBACK_PROCESS_ERROR
 104:C:/Workspace/FW_Platform2_5/trunk/ProductModules/PM_FreqFeedbacks\PM_FrequencyFeedbacks.c **** }PM_FrequencyFeedbacks_ProcessStatusType;
 105:C:/Workspace/FW_Platform2_5/trunk/ProductModules/PM_FreqFeedbacks\PM_FrequencyFeedbacks.c **** 
 106:C:/Workspace/FW_Platform2_5/trunk/ProductModules/PM_FreqFeedbacks\PM_FrequencyFeedbacks.c **** 
 107:C:/Workspace/FW_Platform2_5/trunk/ProductModules/PM_FreqFeedbacks\PM_FrequencyFeedbacks.c **** 
 108:C:/Workspace/FW_Platform2_5/trunk/ProductModules/PM_FreqFeedbacks\PM_FrequencyFeedbacks.c **** /**
 109:C:/Workspace/FW_Platform2_5/trunk/ProductModules/PM_FreqFeedbacks\PM_FrequencyFeedbacks.c ****  *	mask
 110:C:/Workspace/FW_Platform2_5/trunk/ProductModules/PM_FreqFeedbacks\PM_FrequencyFeedbacks.c ****  */
 111:C:/Workspace/FW_Platform2_5/trunk/ProductModules/PM_FreqFeedbacks\PM_FrequencyFeedbacks.c **** typedef PM_FrequencyFeedbacks_BitmapType	PM_FrequencyFeedbacks_MaskType;
 112:C:/Workspace/FW_Platform2_5/trunk/ProductModules/PM_FreqFeedbacks\PM_FrequencyFeedbacks.c **** 
 113:C:/Workspace/FW_Platform2_5/trunk/ProductModules/PM_FreqFeedbacks\PM_FrequencyFeedbacks.c **** /**
 114:C:/Workspace/FW_Platform2_5/trunk/ProductModules/PM_FreqFeedbacks\PM_FrequencyFeedbacks.c ****  *	index
 115:C:/Workspace/FW_Platform2_5/trunk/ProductModules/PM_FreqFeedbacks\PM_FrequencyFeedbacks.c ****  */
 116:C:/Workspace/FW_Platform2_5/trunk/ProductModules/PM_FreqFeedbacks\PM_FrequencyFeedbacks.c **** typedef int8_t	PM_FrequencyFeedbacks_IndexType;
 117:C:/Workspace/FW_Platform2_5/trunk/ProductModules/PM_FreqFeedbacks\PM_FrequencyFeedbacks.c **** /* @} */
 118:C:/Workspace/FW_Platform2_5/trunk/ProductModules/PM_FreqFeedbacks\PM_FrequencyFeedbacks.c **** 
 119:C:/Workspace/FW_Platform2_5/trunk/ProductModules/PM_FreqFeedbacks\PM_FrequencyFeedbacks.c **** 
 120:C:/Workspace/FW_Platform2_5/trunk/ProductModules/PM_FreqFeedbacks\PM_FrequencyFeedbacks.c **** /**
 121:C:/Workspace/FW_Platform2_5/trunk/ProductModules/PM_FreqFeedbacks\PM_FrequencyFeedbacks.c **** @name Module descriptor types used for variables common to the whole module
 122:C:/Workspace/FW_Platform2_5/trunk/ProductModules/PM_FreqFeedbacks\PM_FrequencyFeedbacks.c **** @{
 123:C:/Workspace/FW_Platform2_5/trunk/ProductModules/PM_FreqFeedbacks\PM_FrequencyFeedbacks.c **** */
 124:C:/Workspace/FW_Platform2_5/trunk/ProductModules/PM_FreqFeedbacks\PM_FrequencyFeedbacks.c **** /**
 125:C:/Workspace/FW_Platform2_5/trunk/ProductModules/PM_FreqFeedbacks\PM_FrequencyFeedbacks.c ****  * Number of items
 126:C:/Workspace/FW_Platform2_5/trunk/ProductModules/PM_FreqFeedbacks\PM_FrequencyFeedbacks.c ****  */
 127:C:/Workspace/FW_Platform2_5/trunk/ProductModules/PM_FreqFeedbacks\PM_FrequencyFeedbacks.c **** typedef uint8_t PM_FrequencyFeedbacks_NumberType;
 128:C:/Workspace/FW_Platform2_5/trunk/ProductModules/PM_FreqFeedbacks\PM_FrequencyFeedbacks.c **** /**
 129:C:/Workspace/FW_Platform2_5/trunk/ProductModules/PM_FreqFeedbacks\PM_FrequencyFeedbacks.c ****  * Grid Frequency
 130:C:/Workspace/FW_Platform2_5/trunk/ProductModules/PM_FreqFeedbacks\PM_FrequencyFeedbacks.c ****  */
 131:C:/Workspace/FW_Platform2_5/trunk/ProductModules/PM_FreqFeedbacks\PM_FrequencyFeedbacks.c **** typedef uint8_t PM_FrequencyFeedbacks_GridFrequencyType;
 132:C:/Workspace/FW_Platform2_5/trunk/ProductModules/PM_FreqFeedbacks\PM_FrequencyFeedbacks.c **** /**
 133:C:/Workspace/FW_Platform2_5/trunk/ProductModules/PM_FreqFeedbacks\PM_FrequencyFeedbacks.c ****  * Key
 134:C:/Workspace/FW_Platform2_5/trunk/ProductModules/PM_FreqFeedbacks\PM_FrequencyFeedbacks.c ****  */
 135:C:/Workspace/FW_Platform2_5/trunk/ProductModules/PM_FreqFeedbacks\PM_FrequencyFeedbacks.c **** typedef uint16_t PM_FrequencyFeedbacks_InitKeyType;
 136:C:/Workspace/FW_Platform2_5/trunk/ProductModules/PM_FreqFeedbacks\PM_FrequencyFeedbacks.c **** /* @} */
 137:C:/Workspace/FW_Platform2_5/trunk/ProductModules/PM_FreqFeedbacks\PM_FrequencyFeedbacks.c **** 
 138:C:/Workspace/FW_Platform2_5/trunk/ProductModules/PM_FreqFeedbacks\PM_FrequencyFeedbacks.c **** 
 139:C:/Workspace/FW_Platform2_5/trunk/ProductModules/PM_FreqFeedbacks\PM_FrequencyFeedbacks.c **** /**
 140:C:/Workspace/FW_Platform2_5/trunk/ProductModules/PM_FreqFeedbacks\PM_FrequencyFeedbacks.c **** @name Feedback descriptor
 141:C:/Workspace/FW_Platform2_5/trunk/ProductModules/PM_FreqFeedbacks\PM_FrequencyFeedbacks.c **** Variables common to the whole module
 142:C:/Workspace/FW_Platform2_5/trunk/ProductModules/PM_FreqFeedbacks\PM_FrequencyFeedbacks.c **** @{
 143:C:/Workspace/FW_Platform2_5/trunk/ProductModules/PM_FreqFeedbacks\PM_FrequencyFeedbacks.c **** */
 144:C:/Workspace/FW_Platform2_5/trunk/ProductModules/PM_FreqFeedbacks\PM_FrequencyFeedbacks.c **** 
 145:C:/Workspace/FW_Platform2_5/trunk/ProductModules/PM_FreqFeedbacks\PM_FrequencyFeedbacks.c **** /**
 146:C:/Workspace/FW_Platform2_5/trunk/ProductModules/PM_FreqFeedbacks\PM_FrequencyFeedbacks.c **** pin
 147:C:/Workspace/FW_Platform2_5/trunk/ProductModules/PM_FreqFeedbacks\PM_FrequencyFeedbacks.c ****  */
 148:C:/Workspace/FW_Platform2_5/trunk/ProductModules/PM_FreqFeedbacks\PM_FrequencyFeedbacks.c **** typedef uint8_t 		PM_FreqFeedback_PinType;
 149:C:/Workspace/FW_Platform2_5/trunk/ProductModules/PM_FreqFeedbacks\PM_FrequencyFeedbacks.c **** /**
 150:C:/Workspace/FW_Platform2_5/trunk/ProductModules/PM_FreqFeedbacks\PM_FrequencyFeedbacks.c **** channel
 151:C:/Workspace/FW_Platform2_5/trunk/ProductModules/PM_FreqFeedbacks\PM_FrequencyFeedbacks.c ****  */
 152:C:/Workspace/FW_Platform2_5/trunk/ProductModules/PM_FreqFeedbacks\PM_FrequencyFeedbacks.c **** typedef IO_ChannelType	PM_FreqFeedback_TpmChannelType;
 153:C:/Workspace/FW_Platform2_5/trunk/ProductModules/PM_FreqFeedbacks\PM_FrequencyFeedbacks.c **** /**
 154:C:/Workspace/FW_Platform2_5/trunk/ProductModules/PM_FreqFeedbacks\PM_FrequencyFeedbacks.c **** Number of samples
 155:C:/Workspace/FW_Platform2_5/trunk/ProductModules/PM_FreqFeedbacks\PM_FrequencyFeedbacks.c ****  */
 156:C:/Workspace/FW_Platform2_5/trunk/ProductModules/PM_FreqFeedbacks\PM_FrequencyFeedbacks.c **** typedef uint8_t 		PM_FreqFeedback_SamplesNumberType;
 157:C:/Workspace/FW_Platform2_5/trunk/ProductModules/PM_FreqFeedbacks\PM_FrequencyFeedbacks.c **** /**
 158:C:/Workspace/FW_Platform2_5/trunk/ProductModules/PM_FreqFeedbacks\PM_FrequencyFeedbacks.c ****  * Number of samples
 159:C:/Workspace/FW_Platform2_5/trunk/ProductModules/PM_FreqFeedbacks\PM_FrequencyFeedbacks.c ****  */
 160:C:/Workspace/FW_Platform2_5/trunk/ProductModules/PM_FreqFeedbacks\PM_FrequencyFeedbacks.c **** typedef int16_t			PM_FreqFeedback_SamplingRestartTimerType;
 161:C:/Workspace/FW_Platform2_5/trunk/ProductModules/PM_FreqFeedbacks\PM_FrequencyFeedbacks.c **** /**
 162:C:/Workspace/FW_Platform2_5/trunk/ProductModules/PM_FreqFeedbacks\PM_FrequencyFeedbacks.c ****  * Polling value
 163:C:/Workspace/FW_Platform2_5/trunk/ProductModules/PM_FreqFeedbacks\PM_FrequencyFeedbacks.c ****  */
 164:C:/Workspace/FW_Platform2_5/trunk/ProductModules/PM_FreqFeedbacks\PM_FrequencyFeedbacks.c **** typedef uint8_t			PM_FreqFeedback_PollingValueType;
 165:C:/Workspace/FW_Platform2_5/trunk/ProductModules/PM_FreqFeedbacks\PM_FrequencyFeedbacks.c **** /**
 166:C:/Workspace/FW_Platform2_5/trunk/ProductModules/PM_FreqFeedbacks\PM_FrequencyFeedbacks.c ****  * window
 167:C:/Workspace/FW_Platform2_5/trunk/ProductModules/PM_FreqFeedbacks\PM_FrequencyFeedbacks.c ****  */
 168:C:/Workspace/FW_Platform2_5/trunk/ProductModules/PM_FreqFeedbacks\PM_FrequencyFeedbacks.c **** typedef uint8_t			PM_FreqFeedback_ProgressType;
 169:C:/Workspace/FW_Platform2_5/trunk/ProductModules/PM_FreqFeedbacks\PM_FrequencyFeedbacks.c **** 
 170:C:/Workspace/FW_Platform2_5/trunk/ProductModules/PM_FreqFeedbacks\PM_FrequencyFeedbacks.c **** /**
 171:C:/Workspace/FW_Platform2_5/trunk/ProductModules/PM_FreqFeedbacks\PM_FrequencyFeedbacks.c ****  *	control
 172:C:/Workspace/FW_Platform2_5/trunk/ProductModules/PM_FreqFeedbacks\PM_FrequencyFeedbacks.c ****  */
 173:C:/Workspace/FW_Platform2_5/trunk/ProductModules/PM_FreqFeedbacks\PM_FrequencyFeedbacks.c **** typedef uint8_t			PM_FreqFeedback_ControlType;
 174:C:/Workspace/FW_Platform2_5/trunk/ProductModules/PM_FreqFeedbacks\PM_FrequencyFeedbacks.c **** /**
 175:C:/Workspace/FW_Platform2_5/trunk/ProductModules/PM_FreqFeedbacks\PM_FrequencyFeedbacks.c ****  *	status
 176:C:/Workspace/FW_Platform2_5/trunk/ProductModules/PM_FreqFeedbacks\PM_FrequencyFeedbacks.c ****  */
 177:C:/Workspace/FW_Platform2_5/trunk/ProductModules/PM_FreqFeedbacks\PM_FrequencyFeedbacks.c **** typedef uint8_t			PM_FreqFeedback_StatusType;
 178:C:/Workspace/FW_Platform2_5/trunk/ProductModules/PM_FreqFeedbacks\PM_FrequencyFeedbacks.c **** /**
 179:C:/Workspace/FW_Platform2_5/trunk/ProductModules/PM_FreqFeedbacks\PM_FrequencyFeedbacks.c ****  *	status
 180:C:/Workspace/FW_Platform2_5/trunk/ProductModules/PM_FreqFeedbacks\PM_FrequencyFeedbacks.c ****  */
 181:C:/Workspace/FW_Platform2_5/trunk/ProductModules/PM_FreqFeedbacks\PM_FrequencyFeedbacks.c **** typedef uint8_t			PM_FreqFeedback_MaxPeriodCounterType;
 182:C:/Workspace/FW_Platform2_5/trunk/ProductModules/PM_FreqFeedbacks\PM_FrequencyFeedbacks.c **** /**
 183:C:/Workspace/FW_Platform2_5/trunk/ProductModules/PM_FreqFeedbacks\PM_FrequencyFeedbacks.c ****  * Structure ID
 184:C:/Workspace/FW_Platform2_5/trunk/ProductModules/PM_FreqFeedbacks\PM_FrequencyFeedbacks.c ****  */
 185:C:/Workspace/FW_Platform2_5/trunk/ProductModules/PM_FreqFeedbacks\PM_FrequencyFeedbacks.c **** typedef uint8_t 		PM_FreqFeedback_StructIDType;
 186:C:/Workspace/FW_Platform2_5/trunk/ProductModules/PM_FreqFeedbacks\PM_FrequencyFeedbacks.c **** /* @} */
 187:C:/Workspace/FW_Platform2_5/trunk/ProductModules/PM_FreqFeedbacks\PM_FrequencyFeedbacks.c **** 
 188:C:/Workspace/FW_Platform2_5/trunk/ProductModules/PM_FreqFeedbacks\PM_FrequencyFeedbacks.c **** 
 189:C:/Workspace/FW_Platform2_5/trunk/ProductModules/PM_FreqFeedbacks\PM_FrequencyFeedbacks.c **** 
 190:C:/Workspace/FW_Platform2_5/trunk/ProductModules/PM_FreqFeedbacks\PM_FrequencyFeedbacks.c **** /**
 191:C:/Workspace/FW_Platform2_5/trunk/ProductModules/PM_FreqFeedbacks\PM_FrequencyFeedbacks.c ****  * Item's descriptor
 192:C:/Workspace/FW_Platform2_5/trunk/ProductModules/PM_FreqFeedbacks\PM_FrequencyFeedbacks.c ****  */
 193:C:/Workspace/FW_Platform2_5/trunk/ProductModules/PM_FreqFeedbacks\PM_FrequencyFeedbacks.c **** typedef struct PM_FrequencyFeedback_s
 194:C:/Workspace/FW_Platform2_5/trunk/ProductModules/PM_FreqFeedbacks\PM_FrequencyFeedbacks.c **** {
 195:C:/Workspace/FW_Platform2_5/trunk/ProductModules/PM_FreqFeedbacks\PM_FrequencyFeedbacks.c **** 	/** */
 196:C:/Workspace/FW_Platform2_5/trunk/ProductModules/PM_FreqFeedbacks\PM_FrequencyFeedbacks.c **** 	PM_FreqFeedback_PinType						pin;
 197:C:/Workspace/FW_Platform2_5/trunk/ProductModules/PM_FreqFeedbacks\PM_FrequencyFeedbacks.c **** 	/** */
 198:C:/Workspace/FW_Platform2_5/trunk/ProductModules/PM_FreqFeedbacks\PM_FrequencyFeedbacks.c **** 	PM_FreqFeedback_TpmChannelType				tpmchannel;
 199:C:/Workspace/FW_Platform2_5/trunk/ProductModules/PM_FreqFeedbacks\PM_FrequencyFeedbacks.c **** 	/** number of requested samples */
 200:C:/Workspace/FW_Platform2_5/trunk/ProductModules/PM_FreqFeedbacks\PM_FrequencyFeedbacks.c **** 	PM_FreqFeedback_SamplesNumberType			requested_samples;
 201:C:/Workspace/FW_Platform2_5/trunk/ProductModules/PM_FreqFeedbacks\PM_FrequencyFeedbacks.c **** 	/** number of current samples */
 202:C:/Workspace/FW_Platform2_5/trunk/ProductModules/PM_FreqFeedbacks\PM_FrequencyFeedbacks.c **** 	PM_FreqFeedback_SamplesNumberType			samples;
 203:C:/Workspace/FW_Platform2_5/trunk/ProductModules/PM_FreqFeedbacks\PM_FrequencyFeedbacks.c **** 	/** number of samples @high level*/
 204:C:/Workspace/FW_Platform2_5/trunk/ProductModules/PM_FreqFeedbacks\PM_FrequencyFeedbacks.c **** 	PM_FreqFeedback_SamplesNumberType			hlsamples;
 205:C:/Workspace/FW_Platform2_5/trunk/ProductModules/PM_FreqFeedbacks\PM_FrequencyFeedbacks.c **** 	/** */
 206:C:/Workspace/FW_Platform2_5/trunk/ProductModules/PM_FreqFeedbacks\PM_FrequencyFeedbacks.c **** 	PM_FreqFeedback_PollingValueType			polling;
 207:C:/Workspace/FW_Platform2_5/trunk/ProductModules/PM_FreqFeedbacks\PM_FrequencyFeedbacks.c **** 	/** */
 208:C:/Workspace/FW_Platform2_5/trunk/ProductModules/PM_FreqFeedbacks\PM_FrequencyFeedbacks.c **** 	PM_FreqFeedback_SamplingRestartTimerType	timetorestart;
 209:C:/Workspace/FW_Platform2_5/trunk/ProductModules/PM_FreqFeedbacks\PM_FrequencyFeedbacks.c **** 	/** */
 210:C:/Workspace/FW_Platform2_5/trunk/ProductModules/PM_FreqFeedbacks\PM_FrequencyFeedbacks.c **** 	PM_FreqFeedback_ProgressType				progress;
 211:C:/Workspace/FW_Platform2_5/trunk/ProductModules/PM_FreqFeedbacks\PM_FrequencyFeedbacks.c **** 	/** position in ram */
 212:C:/Workspace/FW_Platform2_5/trunk/ProductModules/PM_FreqFeedbacks\PM_FrequencyFeedbacks.c **** 	PM_FrequencyFeedback_PositionType			position;
 213:C:/Workspace/FW_Platform2_5/trunk/ProductModules/PM_FreqFeedbacks\PM_FrequencyFeedbacks.c **** 	/** control */
 214:C:/Workspace/FW_Platform2_5/trunk/ProductModules/PM_FreqFeedbacks\PM_FrequencyFeedbacks.c **** 	PM_FreqFeedback_ControlType					control;
 215:C:/Workspace/FW_Platform2_5/trunk/ProductModules/PM_FreqFeedbacks\PM_FrequencyFeedbacks.c **** 	/** control */
 216:C:/Workspace/FW_Platform2_5/trunk/ProductModules/PM_FreqFeedbacks\PM_FrequencyFeedbacks.c **** 	PM_FreqFeedback_StatusType					status;
 217:C:/Workspace/FW_Platform2_5/trunk/ProductModules/PM_FreqFeedbacks\PM_FrequencyFeedbacks.c **** 	/** */
 218:C:/Workspace/FW_Platform2_5/trunk/ProductModules/PM_FreqFeedbacks\PM_FrequencyFeedbacks.c **** 	PM_FreqFeedback_MaxPeriodCounterType		maxperiod;
 219:C:/Workspace/FW_Platform2_5/trunk/ProductModules/PM_FreqFeedbacks\PM_FrequencyFeedbacks.c **** 	/** */
 220:C:/Workspace/FW_Platform2_5/trunk/ProductModules/PM_FreqFeedbacks\PM_FrequencyFeedbacks.c **** 	PM_FreqFeedback_StructIDType				ID;
 221:C:/Workspace/FW_Platform2_5/trunk/ProductModules/PM_FreqFeedbacks\PM_FrequencyFeedbacks.c **** }PM_FrequencyFeedbackType;
 222:C:/Workspace/FW_Platform2_5/trunk/ProductModules/PM_FreqFeedbacks\PM_FrequencyFeedbacks.c **** 
 223:C:/Workspace/FW_Platform2_5/trunk/ProductModules/PM_FreqFeedbacks\PM_FrequencyFeedbacks.c **** /**
 224:C:/Workspace/FW_Platform2_5/trunk/ProductModules/PM_FreqFeedbacks\PM_FrequencyFeedbacks.c **** Global module descriptor
 225:C:/Workspace/FW_Platform2_5/trunk/ProductModules/PM_FreqFeedbacks\PM_FrequencyFeedbacks.c **** This structure is not an interface as it could be changed without notice.
 226:C:/Workspace/FW_Platform2_5/trunk/ProductModules/PM_FreqFeedbacks\PM_FrequencyFeedbacks.c **** DO NOT export variables with this structure.
 227:C:/Workspace/FW_Platform2_5/trunk/ProductModules/PM_FreqFeedbacks\PM_FrequencyFeedbacks.c **** */
 228:C:/Workspace/FW_Platform2_5/trunk/ProductModules/PM_FreqFeedbacks\PM_FrequencyFeedbacks.c **** typedef struct PM_FrequencyFeedbacks_s
 229:C:/Workspace/FW_Platform2_5/trunk/ProductModules/PM_FreqFeedbacks\PM_FrequencyFeedbacks.c **** {
 230:C:/Workspace/FW_Platform2_5/trunk/ProductModules/PM_FreqFeedbacks\PM_FrequencyFeedbacks.c **** 	/** currently configured items */
 231:C:/Workspace/FW_Platform2_5/trunk/ProductModules/PM_FreqFeedbacks\PM_FrequencyFeedbacks.c **** 	PM_FrequencyFeedbacks_NumberType			number;
 232:C:/Workspace/FW_Platform2_5/trunk/ProductModules/PM_FreqFeedbacks\PM_FrequencyFeedbacks.c **** 	/** current error */
 233:C:/Workspace/FW_Platform2_5/trunk/ProductModules/PM_FreqFeedbacks\PM_FrequencyFeedbacks.c **** 	/** key */
 234:C:/Workspace/FW_Platform2_5/trunk/ProductModules/PM_FreqFeedbacks\PM_FrequencyFeedbacks.c **** 	PM_FrequencyFeedbacks_InitKeyType			key;
 235:C:/Workspace/FW_Platform2_5/trunk/ProductModules/PM_FreqFeedbacks\PM_FrequencyFeedbacks.c **** 	/** */
 236:C:/Workspace/FW_Platform2_5/trunk/ProductModules/PM_FreqFeedbacks\PM_FrequencyFeedbacks.c **** 	PM_FrequencyFeedbacks_GridFrequencyType		gridfrequency;
 237:C:/Workspace/FW_Platform2_5/trunk/ProductModules/PM_FreqFeedbacks\PM_FrequencyFeedbacks.c **** 	/** Bitmap indicating if ready. Each bit corresponds to the position */
 238:C:/Workspace/FW_Platform2_5/trunk/ProductModules/PM_FreqFeedbacks\PM_FrequencyFeedbacks.c **** 	PM_FrequencyFeedbacks_BitmapType			ready;
 239:C:/Workspace/FW_Platform2_5/trunk/ProductModules/PM_FreqFeedbacks\PM_FrequencyFeedbacks.c **** 	/** Bitmap indicating if all values are reliable that is all feedback has been acquired at least o
 240:C:/Workspace/FW_Platform2_5/trunk/ProductModules/PM_FreqFeedbacks\PM_FrequencyFeedbacks.c **** 	PM_FrequencyFeedbacks_BitmapType			reliable;
 241:C:/Workspace/FW_Platform2_5/trunk/ProductModules/PM_FreqFeedbacks\PM_FrequencyFeedbacks.c **** 	/** Bitmap indicating all existing frequency feedbacks */
 242:C:/Workspace/FW_Platform2_5/trunk/ProductModules/PM_FreqFeedbacks\PM_FrequencyFeedbacks.c **** 	PM_FrequencyFeedbacks_BitmapType			positionmask;
 243:C:/Workspace/FW_Platform2_5/trunk/ProductModules/PM_FreqFeedbacks\PM_FrequencyFeedbacks.c **** 	/** */
 244:C:/Workspace/FW_Platform2_5/trunk/ProductModules/PM_FreqFeedbacks\PM_FrequencyFeedbacks.c **** 	PM_FrequencyFeedbackType 					item[CONFIG_FREQUENCY_FEEDBACKS_MAX_ITEMS_NUMBER];
 245:C:/Workspace/FW_Platform2_5/trunk/ProductModules/PM_FreqFeedbacks\PM_FrequencyFeedbacks.c **** }PM_FrequencyFeedbacksType;
 246:C:/Workspace/FW_Platform2_5/trunk/ProductModules/PM_FreqFeedbacks\PM_FrequencyFeedbacks.c **** 
 247:C:/Workspace/FW_Platform2_5/trunk/ProductModules/PM_FreqFeedbacks\PM_FrequencyFeedbacks.c **** /**
 248:C:/Workspace/FW_Platform2_5/trunk/ProductModules/PM_FreqFeedbacks\PM_FrequencyFeedbacks.c **** Period in ns
 249:C:/Workspace/FW_Platform2_5/trunk/ProductModules/PM_FreqFeedbacks\PM_FrequencyFeedbacks.c **** */
 250:C:/Workspace/FW_Platform2_5/trunk/ProductModules/PM_FreqFeedbacks\PM_FrequencyFeedbacks.c **** typedef unsigned long PM_FrequencyFeedbacks_PeriodFilterType;
 251:C:/Workspace/FW_Platform2_5/trunk/ProductModules/PM_FreqFeedbacks\PM_FrequencyFeedbacks.c **** /**
 252:C:/Workspace/FW_Platform2_5/trunk/ProductModules/PM_FreqFeedbacks\PM_FrequencyFeedbacks.c **** T-On in ns
 253:C:/Workspace/FW_Platform2_5/trunk/ProductModules/PM_FreqFeedbacks\PM_FrequencyFeedbacks.c **** */
 254:C:/Workspace/FW_Platform2_5/trunk/ProductModules/PM_FreqFeedbacks\PM_FrequencyFeedbacks.c **** typedef unsigned long PM_FrequencyFeedbacks_TOnFilterType;
 255:C:/Workspace/FW_Platform2_5/trunk/ProductModules/PM_FreqFeedbacks\PM_FrequencyFeedbacks.c **** 
 256:C:/Workspace/FW_Platform2_5/trunk/ProductModules/PM_FreqFeedbacks\PM_FrequencyFeedbacks.c **** /* ********* */
 257:C:/Workspace/FW_Platform2_5/trunk/ProductModules/PM_FreqFeedbacks\PM_FrequencyFeedbacks.c **** /* Variables */
 258:C:/Workspace/FW_Platform2_5/trunk/ProductModules/PM_FreqFeedbacks\PM_FrequencyFeedbacks.c **** /* ********* */
 259:C:/Workspace/FW_Platform2_5/trunk/ProductModules/PM_FreqFeedbacks\PM_FrequencyFeedbacks.c **** 
 260:C:/Workspace/FW_Platform2_5/trunk/ProductModules/PM_FreqFeedbacks\PM_FrequencyFeedbacks.c **** /* Global */
 261:C:/Workspace/FW_Platform2_5/trunk/ProductModules/PM_FreqFeedbacks\PM_FrequencyFeedbacks.c **** /* global variable for the application*/
 262:C:/Workspace/FW_Platform2_5/trunk/ProductModules/PM_FreqFeedbacks\PM_FrequencyFeedbacks.c **** PM_FrequencyFeedbacks_InterfaceType	PM_FrequencyFeedbacks_Interface;
 263:C:/Workspace/FW_Platform2_5/trunk/ProductModules/PM_FreqFeedbacks\PM_FrequencyFeedbacks.c **** /* Static */
 264:C:/Workspace/FW_Platform2_5/trunk/ProductModules/PM_FreqFeedbacks\PM_FrequencyFeedbacks.c **** static PM_FrequencyFeedbacksType PM_FrequencyFeedbacks;
 265:C:/Workspace/FW_Platform2_5/trunk/ProductModules/PM_FreqFeedbacks\PM_FrequencyFeedbacks.c **** 
 266:C:/Workspace/FW_Platform2_5/trunk/ProductModules/PM_FreqFeedbacks\PM_FrequencyFeedbacks.c **** /**
 267:C:/Workspace/FW_Platform2_5/trunk/ProductModules/PM_FreqFeedbacks\PM_FrequencyFeedbacks.c **** Period for supported grid frequencies [ns]
 268:C:/Workspace/FW_Platform2_5/trunk/ProductModules/PM_FreqFeedbacks\PM_FrequencyFeedbacks.c ****  */
 269:C:/Workspace/FW_Platform2_5/trunk/ProductModules/PM_FreqFeedbacks\PM_FrequencyFeedbacks.c **** static const  PM_FrequencyFeedbacks_PeriodFilterType PM_FrequencyFeedbacks_PeriodFilter[2]=
 270:C:/Workspace/FW_Platform2_5/trunk/ProductModules/PM_FreqFeedbacks\PM_FrequencyFeedbacks.c **** {
 271:C:/Workspace/FW_Platform2_5/trunk/ProductModules/PM_FreqFeedbacks\PM_FrequencyFeedbacks.c **** 	2*MIN_HALF_PERIOD_60HZ*1000,
 272:C:/Workspace/FW_Platform2_5/trunk/ProductModules/PM_FreqFeedbacks\PM_FrequencyFeedbacks.c **** 	2*MIN_HALF_PERIOD_50HZ*1000
 273:C:/Workspace/FW_Platform2_5/trunk/ProductModules/PM_FreqFeedbacks\PM_FrequencyFeedbacks.c **** };
 274:C:/Workspace/FW_Platform2_5/trunk/ProductModules/PM_FreqFeedbacks\PM_FrequencyFeedbacks.c **** /**
 275:C:/Workspace/FW_Platform2_5/trunk/ProductModules/PM_FreqFeedbacks\PM_FrequencyFeedbacks.c **** T-On for supported grid frequencies [ns].
 276:C:/Workspace/FW_Platform2_5/trunk/ProductModules/PM_FreqFeedbacks\PM_FrequencyFeedbacks.c ****  */
 277:C:/Workspace/FW_Platform2_5/trunk/ProductModules/PM_FreqFeedbacks\PM_FrequencyFeedbacks.c **** static const  PM_FrequencyFeedbacks_TOnFilterType PM_FrequencyFeedbacks_TOnFilter[2]=
 278:C:/Workspace/FW_Platform2_5/trunk/ProductModules/PM_FreqFeedbacks\PM_FrequencyFeedbacks.c **** {
 279:C:/Workspace/FW_Platform2_5/trunk/ProductModules/PM_FreqFeedbacks\PM_FrequencyFeedbacks.c **** 	((MIN_HALF_PERIOD_60HZ*CONFIG_FREQUENCY_FEEDBACKS_TON_TH)/100)*1000,
 280:C:/Workspace/FW_Platform2_5/trunk/ProductModules/PM_FreqFeedbacks\PM_FrequencyFeedbacks.c **** 	((MIN_HALF_PERIOD_50HZ*CONFIG_FREQUENCY_FEEDBACKS_TON_TH)/100)*1000
 281:C:/Workspace/FW_Platform2_5/trunk/ProductModules/PM_FreqFeedbacks\PM_FrequencyFeedbacks.c **** };
 282:C:/Workspace/FW_Platform2_5/trunk/ProductModules/PM_FreqFeedbacks\PM_FrequencyFeedbacks.c **** /* ******************* */
 283:C:/Workspace/FW_Platform2_5/trunk/ProductModules/PM_FreqFeedbacks\PM_FrequencyFeedbacks.c **** /* Functions Prototype */
 284:C:/Workspace/FW_Platform2_5/trunk/ProductModules/PM_FreqFeedbacks\PM_FrequencyFeedbacks.c **** /* ******************* */
 285:C:/Workspace/FW_Platform2_5/trunk/ProductModules/PM_FreqFeedbacks\PM_FrequencyFeedbacks.c **** 
 286:C:/Workspace/FW_Platform2_5/trunk/ProductModules/PM_FreqFeedbacks\PM_FrequencyFeedbacks.c **** /* Local Function */
 287:C:/Workspace/FW_Platform2_5/trunk/ProductModules/PM_FreqFeedbacks\PM_FrequencyFeedbacks.c **** static void PM_FrequencyFeedbacks_Populate(PM_FrequencyFeedbackType* _pFrequencyFeedback, PM_FreqFe
 288:C:/Workspace/FW_Platform2_5/trunk/ProductModules/PM_FreqFeedbacks\PM_FrequencyFeedbacks.c **** static IO_ErrorType PM_FrequencyFeedbacks_PWDCallback ( IO_NotificationType notifVal, IO_ChannelTyp
 289:C:/Workspace/FW_Platform2_5/trunk/ProductModules/PM_FreqFeedbacks\PM_FrequencyFeedbacks.c **** static PM_FrequencyFeedbacks_IndexType PM_FrequencyFeedbacks_GetIndexByTimerCh(IO_ChannelType _TpmC
 290:C:/Workspace/FW_Platform2_5/trunk/ProductModules/PM_FreqFeedbacks\PM_FrequencyFeedbacks.c **** static void PM_FrequencyFeedbacks_SamplesCollector(PM_FrequencyFeedbackType* _pItem);
 291:C:/Workspace/FW_Platform2_5/trunk/ProductModules/PM_FreqFeedbacks\PM_FrequencyFeedbacks.c **** static void PM_FrequencyFeedbacks_PulsesCollector(PM_FrequencyFeedbackType* _pItem);
 292:C:/Workspace/FW_Platform2_5/trunk/ProductModules/PM_FreqFeedbacks\PM_FrequencyFeedbacks.c **** static PM_FrequencyFeedbacks_ProcessStatusType PM_FrequencyFeedbacks_Process(PM_FrequencyFeedbackTy
 293:C:/Workspace/FW_Platform2_5/trunk/ProductModules/PM_FreqFeedbacks\PM_FrequencyFeedbacks.c **** static PM_FrequencyFeedbacks_TOnFilterType PM_FrequencyFeedbacks_GetMaxTOnFilterValue (void);
 294:C:/Workspace/FW_Platform2_5/trunk/ProductModules/PM_FreqFeedbacks\PM_FrequencyFeedbacks.c **** static PM_FrequencyFeedbacks_PeriodFilterType PM_FrequencyFeedbacks_GetMaxPeriodFilterValue (void);
 295:C:/Workspace/FW_Platform2_5/trunk/ProductModules/PM_FreqFeedbacks\PM_FrequencyFeedbacks.c **** static PM_FrequencyFeedbacks_IndexType PM_FrequencyFeedbacks_GetIndexByPosition(PM_FrequencyFeedbac
 296:C:/Workspace/FW_Platform2_5/trunk/ProductModules/PM_FreqFeedbacks\PM_FrequencyFeedbacks.c **** static void PM_FrequencyFeedbacks_RestartFeedbackSampling(PM_FrequencyFeedbackType * _pItem);
 297:C:/Workspace/FW_Platform2_5/trunk/ProductModules/PM_FreqFeedbacks\PM_FrequencyFeedbacks.c **** static void PM_FrequencyFeedbacks_RestartFeedbackPulse(PM_FrequencyFeedbackType * _pItem);
 298:C:/Workspace/FW_Platform2_5/trunk/ProductModules/PM_FreqFeedbacks\PM_FrequencyFeedbacks.c **** static void PM_FrequencyFeedbacks_RestartFeedback(PM_FrequencyFeedbackType * _pItem);
 299:C:/Workspace/FW_Platform2_5/trunk/ProductModules/PM_FreqFeedbacks\PM_FrequencyFeedbacks.c **** /* *************** */
 300:C:/Workspace/FW_Platform2_5/trunk/ProductModules/PM_FreqFeedbacks\PM_FrequencyFeedbacks.c **** /* Function Bodies */
 301:C:/Workspace/FW_Platform2_5/trunk/ProductModules/PM_FreqFeedbacks\PM_FrequencyFeedbacks.c **** /* *************** */
 302:C:/Workspace/FW_Platform2_5/trunk/ProductModules/PM_FreqFeedbacks\PM_FrequencyFeedbacks.c **** 
 303:C:/Workspace/FW_Platform2_5/trunk/ProductModules/PM_FreqFeedbacks\PM_FrequencyFeedbacks.c **** /* Exported function */
 304:C:/Workspace/FW_Platform2_5/trunk/ProductModules/PM_FreqFeedbacks\PM_FrequencyFeedbacks.c **** /**
 305:C:/Workspace/FW_Platform2_5/trunk/ProductModules/PM_FreqFeedbacks\PM_FrequencyFeedbacks.c **** Initialization.
 306:C:/Workspace/FW_Platform2_5/trunk/ProductModules/PM_FreqFeedbacks\PM_FrequencyFeedbacks.c **** Called Once
 307:C:/Workspace/FW_Platform2_5/trunk/ProductModules/PM_FreqFeedbacks\PM_FrequencyFeedbacks.c **** 
 308:C:/Workspace/FW_Platform2_5/trunk/ProductModules/PM_FreqFeedbacks\PM_FrequencyFeedbacks.c **** \author 	Roberto Fioravanti
 309:C:/Workspace/FW_Platform2_5/trunk/ProductModules/PM_FreqFeedbacks\PM_FrequencyFeedbacks.c **** \date		12/06/2012
 310:C:/Workspace/FW_Platform2_5/trunk/ProductModules/PM_FreqFeedbacks\PM_FrequencyFeedbacks.c **** \version	1.0.0
 311:C:/Workspace/FW_Platform2_5/trunk/ProductModules/PM_FreqFeedbacks\PM_FrequencyFeedbacks.c **** 
 312:C:/Workspace/FW_Platform2_5/trunk/ProductModules/PM_FreqFeedbacks\PM_FrequencyFeedbacks.c **** \note		\par \b Note 1:
 313:C:/Workspace/FW_Platform2_5/trunk/ProductModules/PM_FreqFeedbacks\PM_FrequencyFeedbacks.c **** 			documentation by Roberto Fioravanti
 314:C:/Workspace/FW_Platform2_5/trunk/ProductModules/PM_FreqFeedbacks\PM_FrequencyFeedbacks.c **** */
 315:C:/Workspace/FW_Platform2_5/trunk/ProductModules/PM_FreqFeedbacks\PM_FrequencyFeedbacks.c **** void PM_FrequencyFeedbacks_Init(void)
 316:C:/Workspace/FW_Platform2_5/trunk/ProductModules/PM_FreqFeedbacks\PM_FrequencyFeedbacks.c **** {
 317:C:/Workspace/FW_Platform2_5/trunk/ProductModules/PM_FreqFeedbacks\PM_FrequencyFeedbacks.c **** 	int i = 0;
 318:C:/Workspace/FW_Platform2_5/trunk/ProductModules/PM_FreqFeedbacks\PM_FrequencyFeedbacks.c **** #if (CONFIG_FREQUENCY_FEEDBACKS_DISABLE_MODULE)
 319:C:/Workspace/FW_Platform2_5/trunk/ProductModules/PM_FreqFeedbacks\PM_FrequencyFeedbacks.c **** 	/* do nothing */
 320:C:/Workspace/FW_Platform2_5/trunk/ProductModules/PM_FreqFeedbacks\PM_FrequencyFeedbacks.c **** #else
 321:C:/Workspace/FW_Platform2_5/trunk/ProductModules/PM_FreqFeedbacks\PM_FrequencyFeedbacks.c **** 	SAFETY_REGION_START();
 322:C:/Workspace/FW_Platform2_5/trunk/ProductModules/PM_FreqFeedbacks\PM_FrequencyFeedbacks.c **** 	/* init current number of items */
 323:C:/Workspace/FW_Platform2_5/trunk/ProductModules/PM_FreqFeedbacks\PM_FrequencyFeedbacks.c **** 	PM_FrequencyFeedbacks.number = 0;
 324:C:/Workspace/FW_Platform2_5/trunk/ProductModules/PM_FreqFeedbacks\PM_FrequencyFeedbacks.c **** 	/* init key */
 325:C:/Workspace/FW_Platform2_5/trunk/ProductModules/PM_FreqFeedbacks\PM_FrequencyFeedbacks.c **** 	PM_FrequencyFeedbacks.key = PM_FREQUENCY_FEEDBACKS_KEY;
 326:C:/Workspace/FW_Platform2_5/trunk/ProductModules/PM_FreqFeedbacks\PM_FrequencyFeedbacks.c **** 	/* init current grid frequency */
 327:C:/Workspace/FW_Platform2_5/trunk/ProductModules/PM_FreqFeedbacks\PM_FrequencyFeedbacks.c **** 	PM_FrequencyFeedbacks.gridfrequency = NOM_FREQ_IS_UNDEFINED;
 328:C:/Workspace/FW_Platform2_5/trunk/ProductModules/PM_FreqFeedbacks\PM_FrequencyFeedbacks.c **** 	/* init items */
 329:C:/Workspace/FW_Platform2_5/trunk/ProductModules/PM_FreqFeedbacks\PM_FrequencyFeedbacks.c **** 	for(i=0; i<CONFIG_FREQUENCY_FEEDBACKS_MAX_ITEMS_NUMBER; i++)
 330:C:/Workspace/FW_Platform2_5/trunk/ProductModules/PM_FreqFeedbacks\PM_FrequencyFeedbacks.c **** 	{
 331:C:/Workspace/FW_Platform2_5/trunk/ProductModules/PM_FreqFeedbacks\PM_FrequencyFeedbacks.c **** 		memset(&(PM_FrequencyFeedbacks.item[i]), 0, sizeof(PM_FrequencyFeedbackType));
 332:C:/Workspace/FW_Platform2_5/trunk/ProductModules/PM_FreqFeedbacks\PM_FrequencyFeedbacks.c **** 		/* force plausibility check on 'ID' to fail */
 333:C:/Workspace/FW_Platform2_5/trunk/ProductModules/PM_FreqFeedbacks\PM_FrequencyFeedbacks.c **** 		PM_FrequencyFeedbacks.item[i].ID = ~PM_FREQUENCY_FEEDBACK_ID;
 334:C:/Workspace/FW_Platform2_5/trunk/ProductModules/PM_FreqFeedbacks\PM_FrequencyFeedbacks.c **** 	}
 335:C:/Workspace/FW_Platform2_5/trunk/ProductModules/PM_FreqFeedbacks\PM_FrequencyFeedbacks.c **** 
 336:C:/Workspace/FW_Platform2_5/trunk/ProductModules/PM_FreqFeedbacks\PM_FrequencyFeedbacks.c **** 	/* Variable interface  initialization */
 337:C:/Workspace/FW_Platform2_5/trunk/ProductModules/PM_FreqFeedbacks\PM_FrequencyFeedbacks.c **** 	memset(&PM_FrequencyFeedbacks_Interface, 0, sizeof(PM_FrequencyFeedbacks_Interface));
 338:C:/Workspace/FW_Platform2_5/trunk/ProductModules/PM_FreqFeedbacks\PM_FrequencyFeedbacks.c **** 
 339:C:/Workspace/FW_Platform2_5/trunk/ProductModules/PM_FreqFeedbacks\PM_FrequencyFeedbacks.c **** 	for(i=0; i<CONFIG_FREQUENCY_FEEDBACKS_MAX_ITEMS_NUMBER; i++)
 340:C:/Workspace/FW_Platform2_5/trunk/ProductModules/PM_FreqFeedbacks\PM_FrequencyFeedbacks.c **** 	{
 341:C:/Workspace/FW_Platform2_5/trunk/ProductModules/PM_FreqFeedbacks\PM_FrequencyFeedbacks.c **** 		/* init feedback to 'unreliable value' */
 342:C:/Workspace/FW_Platform2_5/trunk/ProductModules/PM_FreqFeedbacks\PM_FrequencyFeedbacks.c **** 		PM_FrequencyFeedbacks_Interface.feedback[i] = (PM_FrequencyFeedbacks_ValueType)PM_FREQUENCY_FEEDB
 343:C:/Workspace/FW_Platform2_5/trunk/ProductModules/PM_FreqFeedbacks\PM_FrequencyFeedbacks.c **** 	}
 344:C:/Workspace/FW_Platform2_5/trunk/ProductModules/PM_FreqFeedbacks\PM_FrequencyFeedbacks.c **** 	SAFETY_DATA_UPDATE( PM_FrequencyFeedbacks_Interface );
 345:C:/Workspace/FW_Platform2_5/trunk/ProductModules/PM_FreqFeedbacks\PM_FrequencyFeedbacks.c **** 	SAFETY_REGION_END();
 346:C:/Workspace/FW_Platform2_5/trunk/ProductModules/PM_FreqFeedbacks\PM_FrequencyFeedbacks.c **** #endif /* CONFIG_FREQUENCY_FEEDBACKS_DISABLE_MODULE) */
 347:C:/Workspace/FW_Platform2_5/trunk/ProductModules/PM_FreqFeedbacks\PM_FrequencyFeedbacks.c **** }
 348:C:/Workspace/FW_Platform2_5/trunk/ProductModules/PM_FreqFeedbacks\PM_FrequencyFeedbacks.c **** 
 349:C:/Workspace/FW_Platform2_5/trunk/ProductModules/PM_FreqFeedbacks\PM_FrequencyFeedbacks.c **** /**
 350:C:/Workspace/FW_Platform2_5/trunk/ProductModules/PM_FreqFeedbacks\PM_FrequencyFeedbacks.c **** Configuration
 351:C:/Workspace/FW_Platform2_5/trunk/ProductModules/PM_FreqFeedbacks\PM_FrequencyFeedbacks.c **** \param [in]	_Position position from 0 to sizeof(PM_FrequencyFeedbacks_BitmapType)*8-1
 352:C:/Workspace/FW_Platform2_5/trunk/ProductModules/PM_FreqFeedbacks\PM_FrequencyFeedbacks.c **** 
 353:C:/Workspace/FW_Platform2_5/trunk/ProductModules/PM_FreqFeedbacks\PM_FrequencyFeedbacks.c **** 
 354:C:/Workspace/FW_Platform2_5/trunk/ProductModules/PM_FreqFeedbacks\PM_FrequencyFeedbacks.c **** \author 	Roberto Fioravanti
 355:C:/Workspace/FW_Platform2_5/trunk/ProductModules/PM_FreqFeedbacks\PM_FrequencyFeedbacks.c **** \date		12/06/2012
 356:C:/Workspace/FW_Platform2_5/trunk/ProductModules/PM_FreqFeedbacks\PM_FrequencyFeedbacks.c **** \version	1.0.0
 357:C:/Workspace/FW_Platform2_5/trunk/ProductModules/PM_FreqFeedbacks\PM_FrequencyFeedbacks.c **** 
 358:C:/Workspace/FW_Platform2_5/trunk/ProductModules/PM_FreqFeedbacks\PM_FrequencyFeedbacks.c **** \note		\par \b Note 1:
 359:C:/Workspace/FW_Platform2_5/trunk/ProductModules/PM_FreqFeedbacks\PM_FrequencyFeedbacks.c **** 			documentation by Roberto Fioravanti
 360:C:/Workspace/FW_Platform2_5/trunk/ProductModules/PM_FreqFeedbacks\PM_FrequencyFeedbacks.c **** */
 361:C:/Workspace/FW_Platform2_5/trunk/ProductModules/PM_FreqFeedbacks\PM_FrequencyFeedbacks.c **** IO_ErrorType PM_FrequencyFeedbacks_Configure(uint8_t _Pin, const freqFeedbackLLIparams_t* _CfgParam
 362:C:/Workspace/FW_Platform2_5/trunk/ProductModules/PM_FreqFeedbacks\PM_FrequencyFeedbacks.c **** {
 363:C:/Workspace/FW_Platform2_5/trunk/ProductModules/PM_FreqFeedbacks\PM_FrequencyFeedbacks.c **** 	IO_ErrorType 	result 	= IO_E_INVALID_CHANNEL_ID;
 364:C:/Workspace/FW_Platform2_5/trunk/ProductModules/PM_FreqFeedbacks\PM_FrequencyFeedbacks.c **** 	IO_ChannelType 	tpmCh	= 0xFF /* invalid */;
 365:C:/Workspace/FW_Platform2_5/trunk/ProductModules/PM_FreqFeedbacks\PM_FrequencyFeedbacks.c **** 	IO_PWD_CfgType  pwdcfg	= {0,0};
 366:C:/Workspace/FW_Platform2_5/trunk/ProductModules/PM_FreqFeedbacks\PM_FrequencyFeedbacks.c **** 	uint8_t 		activeSense = 0;
 367:C:/Workspace/FW_Platform2_5/trunk/ProductModules/PM_FreqFeedbacks\PM_FrequencyFeedbacks.c **** 	PM_FreqFeedback_SamplesNumberType samples = 0;
 368:C:/Workspace/FW_Platform2_5/trunk/ProductModules/PM_FreqFeedbacks\PM_FrequencyFeedbacks.c **** 
 369:C:/Workspace/FW_Platform2_5/trunk/ProductModules/PM_FreqFeedbacks\PM_FrequencyFeedbacks.c **** #if (CONFIG_FREQUENCY_FEEDBACKS_DISABLE_MODULE)
 370:C:/Workspace/FW_Platform2_5/trunk/ProductModules/PM_FreqFeedbacks\PM_FrequencyFeedbacks.c **** 	return IO_E_PARAM_IGNORED;
 371:C:/Workspace/FW_Platform2_5/trunk/ProductModules/PM_FreqFeedbacks\PM_FrequencyFeedbacks.c **** #else
 372:C:/Workspace/FW_Platform2_5/trunk/ProductModules/PM_FreqFeedbacks\PM_FrequencyFeedbacks.c **** 	/**/
 373:C:/Workspace/FW_Platform2_5/trunk/ProductModules/PM_FreqFeedbacks\PM_FrequencyFeedbacks.c **** 
 374:C:/Workspace/FW_Platform2_5/trunk/ProductModules/PM_FreqFeedbacks\PM_FrequencyFeedbacks.c **** 	/*plausibility check on 'key' */
 375:C:/Workspace/FW_Platform2_5/trunk/ProductModules/PM_FreqFeedbacks\PM_FrequencyFeedbacks.c **** 	/*lint -e514*/
 376:C:/Workspace/FW_Platform2_5/trunk/ProductModules/PM_FreqFeedbacks\PM_FrequencyFeedbacks.c **** 	PLT_ERROR_FATAL_IF((PM_FrequencyFeedbacks.key != (PM_FrequencyFeedbacks_InitKeyType)PM_FREQUENCY_F
 377:C:/Workspace/FW_Platform2_5/trunk/ProductModules/PM_FreqFeedbacks\PM_FrequencyFeedbacks.c **** 	/*lint +e514*/
 378:C:/Workspace/FW_Platform2_5/trunk/ProductModules/PM_FreqFeedbacks\PM_FrequencyFeedbacks.c **** 
 379:C:/Workspace/FW_Platform2_5/trunk/ProductModules/PM_FreqFeedbacks\PM_FrequencyFeedbacks.c **** 	/*plausibility check on 'number'*/
 380:C:/Workspace/FW_Platform2_5/trunk/ProductModules/PM_FreqFeedbacks\PM_FrequencyFeedbacks.c **** 	PLT_ERROR_FATAL_IF(!(PM_FrequencyFeedbacks.number < CONFIG_FREQUENCY_FEEDBACKS_MAX_ITEMS_NUMBER), 
 381:C:/Workspace/FW_Platform2_5/trunk/ProductModules/PM_FreqFeedbacks\PM_FrequencyFeedbacks.c **** 
 382:C:/Workspace/FW_Platform2_5/trunk/ProductModules/PM_FreqFeedbacks\PM_FrequencyFeedbacks.c **** 	/* validate pin */
 383:C:/Workspace/FW_Platform2_5/trunk/ProductModules/PM_FreqFeedbacks\PM_FrequencyFeedbacks.c **** 	if(OCDIO_IsValidPin(_Pin) != ( IO_ErrorType )IO_E_OK)
 384:C:/Workspace/FW_Platform2_5/trunk/ProductModules/PM_FreqFeedbacks\PM_FrequencyFeedbacks.c **** 	{
 385:C:/Workspace/FW_Platform2_5/trunk/ProductModules/PM_FreqFeedbacks\PM_FrequencyFeedbacks.c **** 		return IO_E_FAIL;
 386:C:/Workspace/FW_Platform2_5/trunk/ProductModules/PM_FreqFeedbacks\PM_FrequencyFeedbacks.c **** 	}
 387:C:/Workspace/FW_Platform2_5/trunk/ProductModules/PM_FreqFeedbacks\PM_FrequencyFeedbacks.c **** 	/* settings */
 388:C:/Workspace/FW_Platform2_5/trunk/ProductModules/PM_FreqFeedbacks\PM_FrequencyFeedbacks.c **** 	if (_CfgParams->bit.pullUp )
 389:C:/Workspace/FW_Platform2_5/trunk/ProductModules/PM_FreqFeedbacks\PM_FrequencyFeedbacks.c **** 	{
 390:C:/Workspace/FW_Platform2_5/trunk/ProductModules/PM_FreqFeedbacks\PM_FrequencyFeedbacks.c **** 		(void)OCDIO_SetPinPullUpSync(_Pin);
 391:C:/Workspace/FW_Platform2_5/trunk/ProductModules/PM_FreqFeedbacks\PM_FrequencyFeedbacks.c **** 	}
 392:C:/Workspace/FW_Platform2_5/trunk/ProductModules/PM_FreqFeedbacks\PM_FrequencyFeedbacks.c **** 	activeSense = ((_CfgParams->bit.inverted)?1:0);
 393:C:/Workspace/FW_Platform2_5/trunk/ProductModules/PM_FreqFeedbacks\PM_FrequencyFeedbacks.c **** 	LIB_IOM_Set_IODir_ActiveSense(activeSense,_Pin);
 394:C:/Workspace/FW_Platform2_5/trunk/ProductModules/PM_FreqFeedbacks\PM_FrequencyFeedbacks.c **** 
 395:C:/Workspace/FW_Platform2_5/trunk/ProductModules/PM_FreqFeedbacks\PM_FrequencyFeedbacks.c **** 	/* retrieving PWD channel*/
 396:C:/Workspace/FW_Platform2_5/trunk/ProductModules/PM_FreqFeedbacks\PM_FrequencyFeedbacks.c **** 	if ( OCTPM_GetChannelSync ( OCDIO_GetIOMapItem(_Pin), &tpmCh ) != ( IO_ErrorType ) IO_E_OK )
 397:C:/Workspace/FW_Platform2_5/trunk/ProductModules/PM_FreqFeedbacks\PM_FrequencyFeedbacks.c **** 	{
 398:C:/Workspace/FW_Platform2_5/trunk/ProductModules/PM_FreqFeedbacks\PM_FrequencyFeedbacks.c **** 		PLT_ERROR_FATAL(PM_FREQUENCY_FEEDBACKS_CANNOTRETRIEVETPMCH_ERR);
 399:C:/Workspace/FW_Platform2_5/trunk/ProductModules/PM_FreqFeedbacks\PM_FrequencyFeedbacks.c **** 		return IO_E_FAIL;
 400:C:/Workspace/FW_Platform2_5/trunk/ProductModules/PM_FreqFeedbacks\PM_FrequencyFeedbacks.c **** 	}
 401:C:/Workspace/FW_Platform2_5/trunk/ProductModules/PM_FreqFeedbacks\PM_FrequencyFeedbacks.c **** 
 402:C:/Workspace/FW_Platform2_5/trunk/ProductModules/PM_FreqFeedbacks\PM_FrequencyFeedbacks.c **** 	/* get number of samples samples */
 403:C:/Workspace/FW_Platform2_5/trunk/ProductModules/PM_FreqFeedbacks\PM_FrequencyFeedbacks.c **** 	samples = 1<<(*((uint8_t*)_CfgParams) & 0x7F);
 404:C:/Workspace/FW_Platform2_5/trunk/ProductModules/PM_FreqFeedbacks\PM_FrequencyFeedbacks.c **** 	if ( (samples > 16) || (samples == 0))
 405:C:/Workspace/FW_Platform2_5/trunk/ProductModules/PM_FreqFeedbacks\PM_FrequencyFeedbacks.c **** 	{
 406:C:/Workspace/FW_Platform2_5/trunk/ProductModules/PM_FreqFeedbacks\PM_FrequencyFeedbacks.c **** 		PLT_ERROR_FATAL(PM_FREQUENCY_FEEDBACKS_EXCEEDINGMAXSAMPLE_ERR);
 407:C:/Workspace/FW_Platform2_5/trunk/ProductModules/PM_FreqFeedbacks\PM_FrequencyFeedbacks.c **** 		return IO_E_FAIL;
 408:C:/Workspace/FW_Platform2_5/trunk/ProductModules/PM_FreqFeedbacks\PM_FrequencyFeedbacks.c **** 	}
 409:C:/Workspace/FW_Platform2_5/trunk/ProductModules/PM_FreqFeedbacks\PM_FrequencyFeedbacks.c **** 
 410:C:/Workspace/FW_Platform2_5/trunk/ProductModules/PM_FreqFeedbacks\PM_FrequencyFeedbacks.c **** 	/* check position range */
 411:C:/Workspace/FW_Platform2_5/trunk/ProductModules/PM_FreqFeedbacks\PM_FrequencyFeedbacks.c **** 	PLT_ERROR_FATAL_IF(!(_Position <= (sizeof(PM_FrequencyFeedbacks_BitmapType)*8-1)), PM_FREQUENCY_FE
 412:C:/Workspace/FW_Platform2_5/trunk/ProductModules/PM_FreqFeedbacks\PM_FrequencyFeedbacks.c **** 
 413:C:/Workspace/FW_Platform2_5/trunk/ProductModules/PM_FreqFeedbacks\PM_FrequencyFeedbacks.c **** 	SAFETY_REGION_START();
 414:C:/Workspace/FW_Platform2_5/trunk/ProductModules/PM_FreqFeedbacks\PM_FrequencyFeedbacks.c **** 
 415:C:/Workspace/FW_Platform2_5/trunk/ProductModules/PM_FreqFeedbacks\PM_FrequencyFeedbacks.c **** 	PM_FrequencyFeedbacks.positionmask |= (PM_FrequencyFeedbacks_BitmapType)(1<<_Position);
 416:C:/Workspace/FW_Platform2_5/trunk/ProductModules/PM_FreqFeedbacks\PM_FrequencyFeedbacks.c **** 
 417:C:/Workspace/FW_Platform2_5/trunk/ProductModules/PM_FreqFeedbacks\PM_FrequencyFeedbacks.c **** 	PM_FrequencyFeedbacks_Populate(&PM_FrequencyFeedbacks.item[PM_FrequencyFeedbacks.number], _Pin, tp
 418:C:/Workspace/FW_Platform2_5/trunk/ProductModules/PM_FreqFeedbacks\PM_FrequencyFeedbacks.c **** 	/*Reset feedback*/
 419:C:/Workspace/FW_Platform2_5/trunk/ProductModules/PM_FreqFeedbacks\PM_FrequencyFeedbacks.c **** 	PM_FrequencyFeedbacks_RestartFeedback(&PM_FrequencyFeedbacks.item[PM_FrequencyFeedbacks.number]);
 420:C:/Workspace/FW_Platform2_5/trunk/ProductModules/PM_FreqFeedbacks\PM_FrequencyFeedbacks.c **** 
 421:C:/Workspace/FW_Platform2_5/trunk/ProductModules/PM_FreqFeedbacks\PM_FrequencyFeedbacks.c **** 	pwdcfg.PWD_Id = tpmCh;
 422:C:/Workspace/FW_Platform2_5/trunk/ProductModules/PM_FreqFeedbacks\PM_FrequencyFeedbacks.c **** 
 423:C:/Workspace/FW_Platform2_5/trunk/ProductModules/PM_FreqFeedbacks\PM_FrequencyFeedbacks.c **** 	/* hardware initializations */
 424:C:/Workspace/FW_Platform2_5/trunk/ProductModules/PM_FreqFeedbacks\PM_FrequencyFeedbacks.c **** 	/* PWD*/
 425:C:/Workspace/FW_Platform2_5/trunk/ProductModules/PM_FreqFeedbacks\PM_FrequencyFeedbacks.c **** 	if ( OCPWD_InitSync ( &pwdcfg ) == ( IO_ErrorType ) IO_E_OK )
 426:C:/Workspace/FW_Platform2_5/trunk/ProductModules/PM_FreqFeedbacks\PM_FrequencyFeedbacks.c **** 	{
 427:C:/Workspace/FW_Platform2_5/trunk/ProductModules/PM_FreqFeedbacks\PM_FrequencyFeedbacks.c **** 		PM_FrequencyFeedbacks.number++;
 428:C:/Workspace/FW_Platform2_5/trunk/ProductModules/PM_FreqFeedbacks\PM_FrequencyFeedbacks.c **** 
 429:C:/Workspace/FW_Platform2_5/trunk/ProductModules/PM_FreqFeedbacks\PM_FrequencyFeedbacks.c **** 		OCPWD_StartSampleSync ( pwdcfg.PWD_Id, PM_FrequencyFeedbacks_PWDCallback );
 430:C:/Workspace/FW_Platform2_5/trunk/ProductModules/PM_FreqFeedbacks\PM_FrequencyFeedbacks.c **** 
 431:C:/Workspace/FW_Platform2_5/trunk/ProductModules/PM_FreqFeedbacks\PM_FrequencyFeedbacks.c **** 		result = IO_E_OK;
 432:C:/Workspace/FW_Platform2_5/trunk/ProductModules/PM_FreqFeedbacks\PM_FrequencyFeedbacks.c **** 	}
 433:C:/Workspace/FW_Platform2_5/trunk/ProductModules/PM_FreqFeedbacks\PM_FrequencyFeedbacks.c **** 	/* TODO: digital filter */
 434:C:/Workspace/FW_Platform2_5/trunk/ProductModules/PM_FreqFeedbacks\PM_FrequencyFeedbacks.c **** 
 435:C:/Workspace/FW_Platform2_5/trunk/ProductModules/PM_FreqFeedbacks\PM_FrequencyFeedbacks.c **** 	SAFETY_REGION_END();
 436:C:/Workspace/FW_Platform2_5/trunk/ProductModules/PM_FreqFeedbacks\PM_FrequencyFeedbacks.c **** 	return result;
 437:C:/Workspace/FW_Platform2_5/trunk/ProductModules/PM_FreqFeedbacks\PM_FrequencyFeedbacks.c **** #endif /* CONFIG_FREQUENCY_FEEDBACKS_DISABLE_MODULE) */
 438:C:/Workspace/FW_Platform2_5/trunk/ProductModules/PM_FreqFeedbacks\PM_FrequencyFeedbacks.c **** }
 439:C:/Workspace/FW_Platform2_5/trunk/ProductModules/PM_FreqFeedbacks\PM_FrequencyFeedbacks.c **** 
 440:C:/Workspace/FW_Platform2_5/trunk/ProductModules/PM_FreqFeedbacks\PM_FrequencyFeedbacks.c **** /**
 441:C:/Workspace/FW_Platform2_5/trunk/ProductModules/PM_FreqFeedbacks\PM_FrequencyFeedbacks.c **** Resets all feedback variables.
 442:C:/Workspace/FW_Platform2_5/trunk/ProductModules/PM_FreqFeedbacks\PM_FrequencyFeedbacks.c **** To be called inside a safety region
 443:C:/Workspace/FW_Platform2_5/trunk/ProductModules/PM_FreqFeedbacks\PM_FrequencyFeedbacks.c **** \code
 444:C:/Workspace/FW_Platform2_5/trunk/ProductModules/PM_FreqFeedbacks\PM_FrequencyFeedbacks.c **** SAFETY_REGION_START();
 445:C:/Workspace/FW_Platform2_5/trunk/ProductModules/PM_FreqFeedbacks\PM_FrequencyFeedbacks.c **** SAFETY_REGION_END();
 446:C:/Workspace/FW_Platform2_5/trunk/ProductModules/PM_FreqFeedbacks\PM_FrequencyFeedbacks.c **** \endcode
 447:C:/Workspace/FW_Platform2_5/trunk/ProductModules/PM_FreqFeedbacks\PM_FrequencyFeedbacks.c **** \param [in] _Position position in ram of the feedback
 448:C:/Workspace/FW_Platform2_5/trunk/ProductModules/PM_FreqFeedbacks\PM_FrequencyFeedbacks.c **** 
 449:C:/Workspace/FW_Platform2_5/trunk/ProductModules/PM_FreqFeedbacks\PM_FrequencyFeedbacks.c **** \author 	Roberto Fioravanti
 450:C:/Workspace/FW_Platform2_5/trunk/ProductModules/PM_FreqFeedbacks\PM_FrequencyFeedbacks.c **** \date		12/06/2012
 451:C:/Workspace/FW_Platform2_5/trunk/ProductModules/PM_FreqFeedbacks\PM_FrequencyFeedbacks.c **** \version	1.0.0
 452:C:/Workspace/FW_Platform2_5/trunk/ProductModules/PM_FreqFeedbacks\PM_FrequencyFeedbacks.c **** 
 453:C:/Workspace/FW_Platform2_5/trunk/ProductModules/PM_FreqFeedbacks\PM_FrequencyFeedbacks.c **** 
 454:C:/Workspace/FW_Platform2_5/trunk/ProductModules/PM_FreqFeedbacks\PM_FrequencyFeedbacks.c **** 
 455:C:/Workspace/FW_Platform2_5/trunk/ProductModules/PM_FreqFeedbacks\PM_FrequencyFeedbacks.c **** \note		\par \b Note 1:
 456:C:/Workspace/FW_Platform2_5/trunk/ProductModules/PM_FreqFeedbacks\PM_FrequencyFeedbacks.c **** 			documentation by Roberto Fioravanti
 457:C:/Workspace/FW_Platform2_5/trunk/ProductModules/PM_FreqFeedbacks\PM_FrequencyFeedbacks.c **** */
 458:C:/Workspace/FW_Platform2_5/trunk/ProductModules/PM_FreqFeedbacks\PM_FrequencyFeedbacks.c **** void PM_FrequencyFeedbacks_ResetAllFeedbacks(void)
 459:C:/Workspace/FW_Platform2_5/trunk/ProductModules/PM_FreqFeedbacks\PM_FrequencyFeedbacks.c **** {
 460:C:/Workspace/FW_Platform2_5/trunk/ProductModules/PM_FreqFeedbacks\PM_FrequencyFeedbacks.c **** 	PM_FrequencyFeedbacks_IndexType inputindex = -1;
 461:C:/Workspace/FW_Platform2_5/trunk/ProductModules/PM_FreqFeedbacks\PM_FrequencyFeedbacks.c **** 	for(inputindex = 0; inputindex < PM_FrequencyFeedbacks.number; inputindex ++)
 462:C:/Workspace/FW_Platform2_5/trunk/ProductModules/PM_FreqFeedbacks\PM_FrequencyFeedbacks.c **** 	{
 463:C:/Workspace/FW_Platform2_5/trunk/ProductModules/PM_FreqFeedbacks\PM_FrequencyFeedbacks.c **** 		PM_FrequencyFeedbacks_RestartFeedback(&PM_FrequencyFeedbacks.item[inputindex]);
 464:C:/Workspace/FW_Platform2_5/trunk/ProductModules/PM_FreqFeedbacks\PM_FrequencyFeedbacks.c **** 	}
 465:C:/Workspace/FW_Platform2_5/trunk/ProductModules/PM_FreqFeedbacks\PM_FrequencyFeedbacks.c **** }
 466:C:/Workspace/FW_Platform2_5/trunk/ProductModules/PM_FreqFeedbacks\PM_FrequencyFeedbacks.c **** 
 467:C:/Workspace/FW_Platform2_5/trunk/ProductModules/PM_FreqFeedbacks\PM_FrequencyFeedbacks.c **** 
 468:C:/Workspace/FW_Platform2_5/trunk/ProductModules/PM_FreqFeedbacks\PM_FrequencyFeedbacks.c **** /**
 469:C:/Workspace/FW_Platform2_5/trunk/ProductModules/PM_FreqFeedbacks\PM_FrequencyFeedbacks.c **** Resets feedback given its ram position
 470:C:/Workspace/FW_Platform2_5/trunk/ProductModules/PM_FreqFeedbacks\PM_FrequencyFeedbacks.c **** 
 471:C:/Workspace/FW_Platform2_5/trunk/ProductModules/PM_FreqFeedbacks\PM_FrequencyFeedbacks.c **** \param [in] _Position position in ram of the feedback
 472:C:/Workspace/FW_Platform2_5/trunk/ProductModules/PM_FreqFeedbacks\PM_FrequencyFeedbacks.c **** 
 473:C:/Workspace/FW_Platform2_5/trunk/ProductModules/PM_FreqFeedbacks\PM_FrequencyFeedbacks.c **** \return IO_ErrorType
 474:C:/Workspace/FW_Platform2_5/trunk/ProductModules/PM_FreqFeedbacks\PM_FrequencyFeedbacks.c **** \retval	IO_E_INVALID_POSITION invalid value for argument _Position
 475:C:/Workspace/FW_Platform2_5/trunk/ProductModules/PM_FreqFeedbacks\PM_FrequencyFeedbacks.c **** \retval IO_E_UNEXPECTED_CONDITION internal error : invalid index
 476:C:/Workspace/FW_Platform2_5/trunk/ProductModules/PM_FreqFeedbacks\PM_FrequencyFeedbacks.c **** \retval IO_E_FAIL driver error
 477:C:/Workspace/FW_Platform2_5/trunk/ProductModules/PM_FreqFeedbacks\PM_FrequencyFeedbacks.c **** \retval IO_E_OK	no error
 478:C:/Workspace/FW_Platform2_5/trunk/ProductModules/PM_FreqFeedbacks\PM_FrequencyFeedbacks.c **** 
 479:C:/Workspace/FW_Platform2_5/trunk/ProductModules/PM_FreqFeedbacks\PM_FrequencyFeedbacks.c **** \author 	Roberto Fioravanti
 480:C:/Workspace/FW_Platform2_5/trunk/ProductModules/PM_FreqFeedbacks\PM_FrequencyFeedbacks.c **** \date		12/06/2012
 481:C:/Workspace/FW_Platform2_5/trunk/ProductModules/PM_FreqFeedbacks\PM_FrequencyFeedbacks.c **** \version	1.0.0
 482:C:/Workspace/FW_Platform2_5/trunk/ProductModules/PM_FreqFeedbacks\PM_FrequencyFeedbacks.c **** 
 483:C:/Workspace/FW_Platform2_5/trunk/ProductModules/PM_FreqFeedbacks\PM_FrequencyFeedbacks.c **** 
 484:C:/Workspace/FW_Platform2_5/trunk/ProductModules/PM_FreqFeedbacks\PM_FrequencyFeedbacks.c **** 
 485:C:/Workspace/FW_Platform2_5/trunk/ProductModules/PM_FreqFeedbacks\PM_FrequencyFeedbacks.c **** \note		\par \b Note 1:
 486:C:/Workspace/FW_Platform2_5/trunk/ProductModules/PM_FreqFeedbacks\PM_FrequencyFeedbacks.c **** 			documentation by Roberto Fioravanti
 487:C:/Workspace/FW_Platform2_5/trunk/ProductModules/PM_FreqFeedbacks\PM_FrequencyFeedbacks.c **** */
 488:C:/Workspace/FW_Platform2_5/trunk/ProductModules/PM_FreqFeedbacks\PM_FrequencyFeedbacks.c **** IO_ErrorType PM_FrequencyFeedbacks_RestartFeedbackByPosition(PM_FrequencyFeedback_PositionType _Pos
 489:C:/Workspace/FW_Platform2_5/trunk/ProductModules/PM_FreqFeedbacks\PM_FrequencyFeedbacks.c **** {
 490:C:/Workspace/FW_Platform2_5/trunk/ProductModules/PM_FreqFeedbacks\PM_FrequencyFeedbacks.c **** 	IO_ErrorType retVal=IO_E_OK;
 491:C:/Workspace/FW_Platform2_5/trunk/ProductModules/PM_FreqFeedbacks\PM_FrequencyFeedbacks.c **** 	PM_FrequencyFeedbacks_IndexType findex = -1;
 492:C:/Workspace/FW_Platform2_5/trunk/ProductModules/PM_FreqFeedbacks\PM_FrequencyFeedbacks.c **** 	IO_PWD_CfgType  pwdcfg	= {0,0};
 493:C:/Workspace/FW_Platform2_5/trunk/ProductModules/PM_FreqFeedbacks\PM_FrequencyFeedbacks.c **** 
 494:C:/Workspace/FW_Platform2_5/trunk/ProductModules/PM_FreqFeedbacks\PM_FrequencyFeedbacks.c **** 	if(_Position >= CONFIG_FREQUENCY_FEEDBACKS_MAX_ITEMS_NUMBER)
 495:C:/Workspace/FW_Platform2_5/trunk/ProductModules/PM_FreqFeedbacks\PM_FrequencyFeedbacks.c **** 	{
 496:C:/Workspace/FW_Platform2_5/trunk/ProductModules/PM_FreqFeedbacks\PM_FrequencyFeedbacks.c **** 		PLT_ERROR_WARNING(PM_FREQUENCY_FEEDBACKS_INVALIDPOSITION_ERR);
 497:C:/Workspace/FW_Platform2_5/trunk/ProductModules/PM_FreqFeedbacks\PM_FrequencyFeedbacks.c **** 		return IO_E_INVALID_POSITION;
 498:C:/Workspace/FW_Platform2_5/trunk/ProductModules/PM_FreqFeedbacks\PM_FrequencyFeedbacks.c **** 	}
 499:C:/Workspace/FW_Platform2_5/trunk/ProductModules/PM_FreqFeedbacks\PM_FrequencyFeedbacks.c **** 
 500:C:/Workspace/FW_Platform2_5/trunk/ProductModules/PM_FreqFeedbacks\PM_FrequencyFeedbacks.c **** 	findex = PM_FrequencyFeedbacks_GetIndexByPosition(_Position);
 501:C:/Workspace/FW_Platform2_5/trunk/ProductModules/PM_FreqFeedbacks\PM_FrequencyFeedbacks.c **** 
 502:C:/Workspace/FW_Platform2_5/trunk/ProductModules/PM_FreqFeedbacks\PM_FrequencyFeedbacks.c **** 	if(!((findex >= 0) && (findex < PM_FrequencyFeedbacks.number)))
 503:C:/Workspace/FW_Platform2_5/trunk/ProductModules/PM_FreqFeedbacks\PM_FrequencyFeedbacks.c **** 	{
 504:C:/Workspace/FW_Platform2_5/trunk/ProductModules/PM_FreqFeedbacks\PM_FrequencyFeedbacks.c **** 		PLT_ERROR_WARNING(PM_FREQUENCY_FEEDBACKS_INVALIDINDEXRETRIEVED_ERR);
 505:C:/Workspace/FW_Platform2_5/trunk/ProductModules/PM_FreqFeedbacks\PM_FrequencyFeedbacks.c **** 		return IO_E_UNEXPECTED_CONDITION;
 506:C:/Workspace/FW_Platform2_5/trunk/ProductModules/PM_FreqFeedbacks\PM_FrequencyFeedbacks.c **** 	}
 507:C:/Workspace/FW_Platform2_5/trunk/ProductModules/PM_FreqFeedbacks\PM_FrequencyFeedbacks.c **** 
 508:C:/Workspace/FW_Platform2_5/trunk/ProductModules/PM_FreqFeedbacks\PM_FrequencyFeedbacks.c **** 	SAFETY_REGION_START();
 509:C:/Workspace/FW_Platform2_5/trunk/ProductModules/PM_FreqFeedbacks\PM_FrequencyFeedbacks.c **** 
 510:C:/Workspace/FW_Platform2_5/trunk/ProductModules/PM_FreqFeedbacks\PM_FrequencyFeedbacks.c **** 	pwdcfg.PWD_Id = PM_FrequencyFeedbacks.item[findex].tpmchannel;
 511:C:/Workspace/FW_Platform2_5/trunk/ProductModules/PM_FreqFeedbacks\PM_FrequencyFeedbacks.c **** 	retVal = OCPWD_StopSampleSync ( pwdcfg.PWD_Id );
 512:C:/Workspace/FW_Platform2_5/trunk/ProductModules/PM_FreqFeedbacks\PM_FrequencyFeedbacks.c **** 
 513:C:/Workspace/FW_Platform2_5/trunk/ProductModules/PM_FreqFeedbacks\PM_FrequencyFeedbacks.c **** 	if( IO_E_OK == retVal)
 514:C:/Workspace/FW_Platform2_5/trunk/ProductModules/PM_FreqFeedbacks\PM_FrequencyFeedbacks.c **** 	{
 515:C:/Workspace/FW_Platform2_5/trunk/ProductModules/PM_FreqFeedbacks\PM_FrequencyFeedbacks.c **** 		/* update */
 516:C:/Workspace/FW_Platform2_5/trunk/ProductModules/PM_FreqFeedbacks\PM_FrequencyFeedbacks.c **** 		PM_FrequencyFeedbacks.item[findex].control |= (PM_FF_ITEM_CTRL_UNAVAILABLE);
 517:C:/Workspace/FW_Platform2_5/trunk/ProductModules/PM_FreqFeedbacks\PM_FrequencyFeedbacks.c **** 		/* forces not ready */
 518:C:/Workspace/FW_Platform2_5/trunk/ProductModules/PM_FreqFeedbacks\PM_FrequencyFeedbacks.c **** 		PM_FrequencyFeedbacks_RestartFeedback(&PM_FrequencyFeedbacks.item[findex]);
 519:C:/Workspace/FW_Platform2_5/trunk/ProductModules/PM_FreqFeedbacks\PM_FrequencyFeedbacks.c **** 		PM_FrequencyFeedbacks.item[findex].control &= ~(PM_FF_ITEM_CTRL_UNAVAILABLE);
 520:C:/Workspace/FW_Platform2_5/trunk/ProductModules/PM_FreqFeedbacks\PM_FrequencyFeedbacks.c **** 
 521:C:/Workspace/FW_Platform2_5/trunk/ProductModules/PM_FreqFeedbacks\PM_FrequencyFeedbacks.c **** 		PM_FrequencyFeedbacks.ready &= ~ ((PM_FrequencyFeedbacks_BitmapType)(1u << PM_FrequencyFeedbacks.
 522:C:/Workspace/FW_Platform2_5/trunk/ProductModules/PM_FreqFeedbacks\PM_FrequencyFeedbacks.c **** 		retVal = OCPWD_StartSampleSync ( pwdcfg.PWD_Id, PM_FrequencyFeedbacks_PWDCallback);
 523:C:/Workspace/FW_Platform2_5/trunk/ProductModules/PM_FreqFeedbacks\PM_FrequencyFeedbacks.c **** 
 524:C:/Workspace/FW_Platform2_5/trunk/ProductModules/PM_FreqFeedbacks\PM_FrequencyFeedbacks.c **** 		PLT_ERROR_WARNING_IF(retVal, PLT_ERROR_PM_FREQUENCY_FEEDBACKS);
 525:C:/Workspace/FW_Platform2_5/trunk/ProductModules/PM_FreqFeedbacks\PM_FrequencyFeedbacks.c **** 	}else{
 526:C:/Workspace/FW_Platform2_5/trunk/ProductModules/PM_FreqFeedbacks\PM_FrequencyFeedbacks.c **** 		PLT_ERROR_WARNING(PLT_ERROR_PM_FREQUENCY_FEEDBACKS);
 527:C:/Workspace/FW_Platform2_5/trunk/ProductModules/PM_FreqFeedbacks\PM_FrequencyFeedbacks.c **** 	}
 528:C:/Workspace/FW_Platform2_5/trunk/ProductModules/PM_FreqFeedbacks\PM_FrequencyFeedbacks.c **** 
 529:C:/Workspace/FW_Platform2_5/trunk/ProductModules/PM_FreqFeedbacks\PM_FrequencyFeedbacks.c **** 	SAFETY_REGION_END();
 530:C:/Workspace/FW_Platform2_5/trunk/ProductModules/PM_FreqFeedbacks\PM_FrequencyFeedbacks.c **** 	return  retVal;
 531:C:/Workspace/FW_Platform2_5/trunk/ProductModules/PM_FreqFeedbacks\PM_FrequencyFeedbacks.c **** }
 532:C:/Workspace/FW_Platform2_5/trunk/ProductModules/PM_FreqFeedbacks\PM_FrequencyFeedbacks.c **** 
 533:C:/Workspace/FW_Platform2_5/trunk/ProductModules/PM_FreqFeedbacks\PM_FrequencyFeedbacks.c **** 
 534:C:/Workspace/FW_Platform2_5/trunk/ProductModules/PM_FreqFeedbacks\PM_FrequencyFeedbacks.c **** /**
 535:C:/Workspace/FW_Platform2_5/trunk/ProductModules/PM_FreqFeedbacks\PM_FrequencyFeedbacks.c **** The feedback will be disabled and not updated
 536:C:/Workspace/FW_Platform2_5/trunk/ProductModules/PM_FreqFeedbacks\PM_FrequencyFeedbacks.c **** 
 537:C:/Workspace/FW_Platform2_5/trunk/ProductModules/PM_FreqFeedbacks\PM_FrequencyFeedbacks.c **** \param [in] _Position position in ram of the feedback
 538:C:/Workspace/FW_Platform2_5/trunk/ProductModules/PM_FreqFeedbacks\PM_FrequencyFeedbacks.c **** 
 539:C:/Workspace/FW_Platform2_5/trunk/ProductModules/PM_FreqFeedbacks\PM_FrequencyFeedbacks.c **** \author 	Roberto Fioravanti
 540:C:/Workspace/FW_Platform2_5/trunk/ProductModules/PM_FreqFeedbacks\PM_FrequencyFeedbacks.c **** \date		12/06/2012
 541:C:/Workspace/FW_Platform2_5/trunk/ProductModules/PM_FreqFeedbacks\PM_FrequencyFeedbacks.c **** \version	1.0.0
 542:C:/Workspace/FW_Platform2_5/trunk/ProductModules/PM_FreqFeedbacks\PM_FrequencyFeedbacks.c **** 
 543:C:/Workspace/FW_Platform2_5/trunk/ProductModules/PM_FreqFeedbacks\PM_FrequencyFeedbacks.c **** 
 544:C:/Workspace/FW_Platform2_5/trunk/ProductModules/PM_FreqFeedbacks\PM_FrequencyFeedbacks.c **** 
 545:C:/Workspace/FW_Platform2_5/trunk/ProductModules/PM_FreqFeedbacks\PM_FrequencyFeedbacks.c **** \note		\par \b Note 1:
 546:C:/Workspace/FW_Platform2_5/trunk/ProductModules/PM_FreqFeedbacks\PM_FrequencyFeedbacks.c **** 			documentation by Roberto Fioravanti
 547:C:/Workspace/FW_Platform2_5/trunk/ProductModules/PM_FreqFeedbacks\PM_FrequencyFeedbacks.c **** */
 548:C:/Workspace/FW_Platform2_5/trunk/ProductModules/PM_FreqFeedbacks\PM_FrequencyFeedbacks.c **** IO_ErrorType PM_FrequencyFeedbacks_DisableFeedbackByPosition(PM_FrequencyFeedback_PositionType _Pos
 549:C:/Workspace/FW_Platform2_5/trunk/ProductModules/PM_FreqFeedbacks\PM_FrequencyFeedbacks.c **** {
 550:C:/Workspace/FW_Platform2_5/trunk/ProductModules/PM_FreqFeedbacks\PM_FrequencyFeedbacks.c **** 	PM_FrequencyFeedbacks_IndexType findex = -1;
 551:C:/Workspace/FW_Platform2_5/trunk/ProductModules/PM_FreqFeedbacks\PM_FrequencyFeedbacks.c **** 
 552:C:/Workspace/FW_Platform2_5/trunk/ProductModules/PM_FreqFeedbacks\PM_FrequencyFeedbacks.c **** 	if(!((_Position < CONFIG_FREQUENCY_FEEDBACKS_MAX_ITEMS_NUMBER)))
 553:C:/Workspace/FW_Platform2_5/trunk/ProductModules/PM_FreqFeedbacks\PM_FrequencyFeedbacks.c **** 	{
 554:C:/Workspace/FW_Platform2_5/trunk/ProductModules/PM_FreqFeedbacks\PM_FrequencyFeedbacks.c **** 		PLT_ERROR_WARNING(PM_FREQUENCY_FEEDBACKS_INVALIDPOSITION_ERR);
 555:C:/Workspace/FW_Platform2_5/trunk/ProductModules/PM_FreqFeedbacks\PM_FrequencyFeedbacks.c **** 		return IO_E_INVALID_POSITION;
 556:C:/Workspace/FW_Platform2_5/trunk/ProductModules/PM_FreqFeedbacks\PM_FrequencyFeedbacks.c **** 	}
 557:C:/Workspace/FW_Platform2_5/trunk/ProductModules/PM_FreqFeedbacks\PM_FrequencyFeedbacks.c **** 
 558:C:/Workspace/FW_Platform2_5/trunk/ProductModules/PM_FreqFeedbacks\PM_FrequencyFeedbacks.c **** 	findex = PM_FrequencyFeedbacks_GetIndexByPosition(_Position);
 559:C:/Workspace/FW_Platform2_5/trunk/ProductModules/PM_FreqFeedbacks\PM_FrequencyFeedbacks.c **** 
 560:C:/Workspace/FW_Platform2_5/trunk/ProductModules/PM_FreqFeedbacks\PM_FrequencyFeedbacks.c **** 	if(!(findex >= 0) && (findex < PM_FrequencyFeedbacks.number))
 561:C:/Workspace/FW_Platform2_5/trunk/ProductModules/PM_FreqFeedbacks\PM_FrequencyFeedbacks.c **** 	{
 562:C:/Workspace/FW_Platform2_5/trunk/ProductModules/PM_FreqFeedbacks\PM_FrequencyFeedbacks.c **** 		PLT_ERROR_WARNING(PM_FREQUENCY_FEEDBACKS_INVALIDINDEXRETRIEVED_ERR);
 563:C:/Workspace/FW_Platform2_5/trunk/ProductModules/PM_FreqFeedbacks\PM_FrequencyFeedbacks.c **** 		return IO_E_UNEXPECTED_CONDITION;
 564:C:/Workspace/FW_Platform2_5/trunk/ProductModules/PM_FreqFeedbacks\PM_FrequencyFeedbacks.c **** 	}
 565:C:/Workspace/FW_Platform2_5/trunk/ProductModules/PM_FreqFeedbacks\PM_FrequencyFeedbacks.c **** 
 566:C:/Workspace/FW_Platform2_5/trunk/ProductModules/PM_FreqFeedbacks\PM_FrequencyFeedbacks.c **** 	SAFETY_REGION_START();
 567:C:/Workspace/FW_Platform2_5/trunk/ProductModules/PM_FreqFeedbacks\PM_FrequencyFeedbacks.c **** 
 568:C:/Workspace/FW_Platform2_5/trunk/ProductModules/PM_FreqFeedbacks\PM_FrequencyFeedbacks.c **** 	PM_FrequencyFeedbacks_Interface.disabled |= ((PM_FrequencyFeedbacks_BitmapType)(1u << PM_Frequency
 569:C:/Workspace/FW_Platform2_5/trunk/ProductModules/PM_FreqFeedbacks\PM_FrequencyFeedbacks.c **** 
 570:C:/Workspace/FW_Platform2_5/trunk/ProductModules/PM_FreqFeedbacks\PM_FrequencyFeedbacks.c **** 	SAFETY_REGION_END();
 571:C:/Workspace/FW_Platform2_5/trunk/ProductModules/PM_FreqFeedbacks\PM_FrequencyFeedbacks.c **** 	return IO_E_OK;
 572:C:/Workspace/FW_Platform2_5/trunk/ProductModules/PM_FreqFeedbacks\PM_FrequencyFeedbacks.c **** }
 573:C:/Workspace/FW_Platform2_5/trunk/ProductModules/PM_FreqFeedbacks\PM_FrequencyFeedbacks.c **** 
 574:C:/Workspace/FW_Platform2_5/trunk/ProductModules/PM_FreqFeedbacks\PM_FrequencyFeedbacks.c **** 
 575:C:/Workspace/FW_Platform2_5/trunk/ProductModules/PM_FreqFeedbacks\PM_FrequencyFeedbacks.c **** /**
 576:C:/Workspace/FW_Platform2_5/trunk/ProductModules/PM_FreqFeedbacks\PM_FrequencyFeedbacks.c **** The feedback will be enabled
 577:C:/Workspace/FW_Platform2_5/trunk/ProductModules/PM_FreqFeedbacks\PM_FrequencyFeedbacks.c **** 
 578:C:/Workspace/FW_Platform2_5/trunk/ProductModules/PM_FreqFeedbacks\PM_FrequencyFeedbacks.c **** \param [in] _Position position in ram of the feedback
 579:C:/Workspace/FW_Platform2_5/trunk/ProductModules/PM_FreqFeedbacks\PM_FrequencyFeedbacks.c **** 
 580:C:/Workspace/FW_Platform2_5/trunk/ProductModules/PM_FreqFeedbacks\PM_FrequencyFeedbacks.c **** \author 	Roberto Fioravanti
 581:C:/Workspace/FW_Platform2_5/trunk/ProductModules/PM_FreqFeedbacks\PM_FrequencyFeedbacks.c **** \date		12/06/2012
 582:C:/Workspace/FW_Platform2_5/trunk/ProductModules/PM_FreqFeedbacks\PM_FrequencyFeedbacks.c **** \version	1.0.0
 583:C:/Workspace/FW_Platform2_5/trunk/ProductModules/PM_FreqFeedbacks\PM_FrequencyFeedbacks.c **** 
 584:C:/Workspace/FW_Platform2_5/trunk/ProductModules/PM_FreqFeedbacks\PM_FrequencyFeedbacks.c **** 
 585:C:/Workspace/FW_Platform2_5/trunk/ProductModules/PM_FreqFeedbacks\PM_FrequencyFeedbacks.c **** 
 586:C:/Workspace/FW_Platform2_5/trunk/ProductModules/PM_FreqFeedbacks\PM_FrequencyFeedbacks.c **** \note		\par \b Note 1:
 587:C:/Workspace/FW_Platform2_5/trunk/ProductModules/PM_FreqFeedbacks\PM_FrequencyFeedbacks.c **** 			documentation by Roberto Fioravanti
 588:C:/Workspace/FW_Platform2_5/trunk/ProductModules/PM_FreqFeedbacks\PM_FrequencyFeedbacks.c **** */
 589:C:/Workspace/FW_Platform2_5/trunk/ProductModules/PM_FreqFeedbacks\PM_FrequencyFeedbacks.c **** IO_ErrorType PM_FrequencyFeedbacks_EnableFeedbackByPosition(PM_FrequencyFeedback_PositionType _Posi
 590:C:/Workspace/FW_Platform2_5/trunk/ProductModules/PM_FreqFeedbacks\PM_FrequencyFeedbacks.c **** {
 591:C:/Workspace/FW_Platform2_5/trunk/ProductModules/PM_FreqFeedbacks\PM_FrequencyFeedbacks.c **** 	PM_FrequencyFeedbacks_IndexType findex = -1;
 592:C:/Workspace/FW_Platform2_5/trunk/ProductModules/PM_FreqFeedbacks\PM_FrequencyFeedbacks.c **** 
 593:C:/Workspace/FW_Platform2_5/trunk/ProductModules/PM_FreqFeedbacks\PM_FrequencyFeedbacks.c **** 	if(!((_Position < CONFIG_FREQUENCY_FEEDBACKS_MAX_ITEMS_NUMBER)))
 594:C:/Workspace/FW_Platform2_5/trunk/ProductModules/PM_FreqFeedbacks\PM_FrequencyFeedbacks.c **** 	{
 595:C:/Workspace/FW_Platform2_5/trunk/ProductModules/PM_FreqFeedbacks\PM_FrequencyFeedbacks.c **** 		PLT_ERROR_WARNING(PM_FREQUENCY_FEEDBACKS_INVALIDPOSITION_ERR);
 596:C:/Workspace/FW_Platform2_5/trunk/ProductModules/PM_FreqFeedbacks\PM_FrequencyFeedbacks.c **** 		return IO_E_INVALID_POSITION;
 597:C:/Workspace/FW_Platform2_5/trunk/ProductModules/PM_FreqFeedbacks\PM_FrequencyFeedbacks.c **** 	}
 598:C:/Workspace/FW_Platform2_5/trunk/ProductModules/PM_FreqFeedbacks\PM_FrequencyFeedbacks.c **** 
 599:C:/Workspace/FW_Platform2_5/trunk/ProductModules/PM_FreqFeedbacks\PM_FrequencyFeedbacks.c **** 	findex = PM_FrequencyFeedbacks_GetIndexByPosition(_Position);
 600:C:/Workspace/FW_Platform2_5/trunk/ProductModules/PM_FreqFeedbacks\PM_FrequencyFeedbacks.c **** 
 601:C:/Workspace/FW_Platform2_5/trunk/ProductModules/PM_FreqFeedbacks\PM_FrequencyFeedbacks.c **** 	if(!(findex >= 0) && (findex < PM_FrequencyFeedbacks.number))
 602:C:/Workspace/FW_Platform2_5/trunk/ProductModules/PM_FreqFeedbacks\PM_FrequencyFeedbacks.c **** 	{
 603:C:/Workspace/FW_Platform2_5/trunk/ProductModules/PM_FreqFeedbacks\PM_FrequencyFeedbacks.c **** 		PLT_ERROR_WARNING(PM_FREQUENCY_FEEDBACKS_INVALIDINDEXRETRIEVED_ERR);
 604:C:/Workspace/FW_Platform2_5/trunk/ProductModules/PM_FreqFeedbacks\PM_FrequencyFeedbacks.c **** 		return IO_E_UNEXPECTED_CONDITION;
 605:C:/Workspace/FW_Platform2_5/trunk/ProductModules/PM_FreqFeedbacks\PM_FrequencyFeedbacks.c **** 	}
 606:C:/Workspace/FW_Platform2_5/trunk/ProductModules/PM_FreqFeedbacks\PM_FrequencyFeedbacks.c **** 
 607:C:/Workspace/FW_Platform2_5/trunk/ProductModules/PM_FreqFeedbacks\PM_FrequencyFeedbacks.c **** 	SAFETY_REGION_START();
 608:C:/Workspace/FW_Platform2_5/trunk/ProductModules/PM_FreqFeedbacks\PM_FrequencyFeedbacks.c **** 
 609:C:/Workspace/FW_Platform2_5/trunk/ProductModules/PM_FreqFeedbacks\PM_FrequencyFeedbacks.c **** 	PM_FrequencyFeedbacks_Interface.disabled &= ~((PM_FrequencyFeedbacks_BitmapType)(1u << PM_Frequenc
 610:C:/Workspace/FW_Platform2_5/trunk/ProductModules/PM_FreqFeedbacks\PM_FrequencyFeedbacks.c **** 
 611:C:/Workspace/FW_Platform2_5/trunk/ProductModules/PM_FreqFeedbacks\PM_FrequencyFeedbacks.c **** 	SAFETY_REGION_END();
 612:C:/Workspace/FW_Platform2_5/trunk/ProductModules/PM_FreqFeedbacks\PM_FrequencyFeedbacks.c **** 	return IO_E_OK;
 613:C:/Workspace/FW_Platform2_5/trunk/ProductModules/PM_FreqFeedbacks\PM_FrequencyFeedbacks.c **** }
 614:C:/Workspace/FW_Platform2_5/trunk/ProductModules/PM_FreqFeedbacks\PM_FrequencyFeedbacks.c **** 
 615:C:/Workspace/FW_Platform2_5/trunk/ProductModules/PM_FreqFeedbacks\PM_FrequencyFeedbacks.c **** /**
 616:C:/Workspace/FW_Platform2_5/trunk/ProductModules/PM_FreqFeedbacks\PM_FrequencyFeedbacks.c **** Given the frequency feedbacks position returns if its value is ready.
 617:C:/Workspace/FW_Platform2_5/trunk/ProductModules/PM_FreqFeedbacks\PM_FrequencyFeedbacks.c **** \param [in]	_Position	position of the feedback
 618:C:/Workspace/FW_Platform2_5/trunk/ProductModules/PM_FreqFeedbacks\PM_FrequencyFeedbacks.c **** \retvalue 	TRUE ready
 619:C:/Workspace/FW_Platform2_5/trunk/ProductModules/PM_FreqFeedbacks\PM_FrequencyFeedbacks.c **** 			FALSE not ready or _Position is out of range
 620:C:/Workspace/FW_Platform2_5/trunk/ProductModules/PM_FreqFeedbacks\PM_FrequencyFeedbacks.c **** \return		bool_t
 621:C:/Workspace/FW_Platform2_5/trunk/ProductModules/PM_FreqFeedbacks\PM_FrequencyFeedbacks.c **** \author 	Roberto Fioravanti
 622:C:/Workspace/FW_Platform2_5/trunk/ProductModules/PM_FreqFeedbacks\PM_FrequencyFeedbacks.c **** \date		12/06/2012
 623:C:/Workspace/FW_Platform2_5/trunk/ProductModules/PM_FreqFeedbacks\PM_FrequencyFeedbacks.c **** \version	1.0.0
 624:C:/Workspace/FW_Platform2_5/trunk/ProductModules/PM_FreqFeedbacks\PM_FrequencyFeedbacks.c **** 
 625:C:/Workspace/FW_Platform2_5/trunk/ProductModules/PM_FreqFeedbacks\PM_FrequencyFeedbacks.c **** 
 626:C:/Workspace/FW_Platform2_5/trunk/ProductModules/PM_FreqFeedbacks\PM_FrequencyFeedbacks.c **** 
 627:C:/Workspace/FW_Platform2_5/trunk/ProductModules/PM_FreqFeedbacks\PM_FrequencyFeedbacks.c **** \note		\par \b Note 1:
 628:C:/Workspace/FW_Platform2_5/trunk/ProductModules/PM_FreqFeedbacks\PM_FrequencyFeedbacks.c **** 			documentation by Roberto Fioravanti
 629:C:/Workspace/FW_Platform2_5/trunk/ProductModules/PM_FreqFeedbacks\PM_FrequencyFeedbacks.c **** */
 630:C:/Workspace/FW_Platform2_5/trunk/ProductModules/PM_FreqFeedbacks\PM_FrequencyFeedbacks.c **** bool_t PM_FrequencyFeedbacks_GetReadyByPosition(PM_FrequencyFeedback_PositionType _Position)
 631:C:/Workspace/FW_Platform2_5/trunk/ProductModules/PM_FreqFeedbacks\PM_FrequencyFeedbacks.c **** {
 632:C:/Workspace/FW_Platform2_5/trunk/ProductModules/PM_FreqFeedbacks\PM_FrequencyFeedbacks.c **** 	if(!((_Position < CONFIG_FREQUENCY_FEEDBACKS_MAX_ITEMS_NUMBER)))
 633:C:/Workspace/FW_Platform2_5/trunk/ProductModules/PM_FreqFeedbacks\PM_FrequencyFeedbacks.c **** 	{
 634:C:/Workspace/FW_Platform2_5/trunk/ProductModules/PM_FreqFeedbacks\PM_FrequencyFeedbacks.c **** 		PLT_ERROR_WARNING(PM_FREQUENCY_FEEDBACKS_INVALIDPOSITION_ERR);
 635:C:/Workspace/FW_Platform2_5/trunk/ProductModules/PM_FreqFeedbacks\PM_FrequencyFeedbacks.c **** 		return FALSE;
 636:C:/Workspace/FW_Platform2_5/trunk/ProductModules/PM_FreqFeedbacks\PM_FrequencyFeedbacks.c **** 	}
 637:C:/Workspace/FW_Platform2_5/trunk/ProductModules/PM_FreqFeedbacks\PM_FrequencyFeedbacks.c **** 
 638:C:/Workspace/FW_Platform2_5/trunk/ProductModules/PM_FreqFeedbacks\PM_FrequencyFeedbacks.c **** 	return (PM_FrequencyFeedbacks.ready & (PM_FrequencyFeedbacks_BitmapType)(1<<_Position))==0?FALSE:T
 639:C:/Workspace/FW_Platform2_5/trunk/ProductModules/PM_FreqFeedbacks\PM_FrequencyFeedbacks.c **** }
 640:C:/Workspace/FW_Platform2_5/trunk/ProductModules/PM_FreqFeedbacks\PM_FrequencyFeedbacks.c **** 
 641:C:/Workspace/FW_Platform2_5/trunk/ProductModules/PM_FreqFeedbacks\PM_FrequencyFeedbacks.c **** /**
 642:C:/Workspace/FW_Platform2_5/trunk/ProductModules/PM_FreqFeedbacks\PM_FrequencyFeedbacks.c **** Returns the frequency feedbacks bitmap to evaluate the complete state.
 643:C:/Workspace/FW_Platform2_5/trunk/ProductModules/PM_FreqFeedbacks\PM_FrequencyFeedbacks.c **** 
 644:C:/Workspace/FW_Platform2_5/trunk/ProductModules/PM_FreqFeedbacks\PM_FrequencyFeedbacks.c **** \return		PM_FrequencyFeedbacks_BitmapType
 645:C:/Workspace/FW_Platform2_5/trunk/ProductModules/PM_FreqFeedbacks\PM_FrequencyFeedbacks.c **** \author 	Roberto Fioravanti
 646:C:/Workspace/FW_Platform2_5/trunk/ProductModules/PM_FreqFeedbacks\PM_FrequencyFeedbacks.c **** \date		12/06/2012
 647:C:/Workspace/FW_Platform2_5/trunk/ProductModules/PM_FreqFeedbacks\PM_FrequencyFeedbacks.c **** \version	1.0.0
 648:C:/Workspace/FW_Platform2_5/trunk/ProductModules/PM_FreqFeedbacks\PM_FrequencyFeedbacks.c **** 
 649:C:/Workspace/FW_Platform2_5/trunk/ProductModules/PM_FreqFeedbacks\PM_FrequencyFeedbacks.c **** 
 650:C:/Workspace/FW_Platform2_5/trunk/ProductModules/PM_FreqFeedbacks\PM_FrequencyFeedbacks.c **** 
 651:C:/Workspace/FW_Platform2_5/trunk/ProductModules/PM_FreqFeedbacks\PM_FrequencyFeedbacks.c **** \note		\par \b Note 1:
 652:C:/Workspace/FW_Platform2_5/trunk/ProductModules/PM_FreqFeedbacks\PM_FrequencyFeedbacks.c **** 			documentation by Roberto Fioravanti
 653:C:/Workspace/FW_Platform2_5/trunk/ProductModules/PM_FreqFeedbacks\PM_FrequencyFeedbacks.c **** */
 654:C:/Workspace/FW_Platform2_5/trunk/ProductModules/PM_FreqFeedbacks\PM_FrequencyFeedbacks.c **** PM_FrequencyFeedbacks_BitmapType PM_FrequencyFeedbacks_GetReadyRaw(void)
 655:C:/Workspace/FW_Platform2_5/trunk/ProductModules/PM_FreqFeedbacks\PM_FrequencyFeedbacks.c **** {
 656:C:/Workspace/FW_Platform2_5/trunk/ProductModules/PM_FreqFeedbacks\PM_FrequencyFeedbacks.c **** 	return PM_FrequencyFeedbacks.ready;
 657:C:/Workspace/FW_Platform2_5/trunk/ProductModules/PM_FreqFeedbacks\PM_FrequencyFeedbacks.c **** }
 658:C:/Workspace/FW_Platform2_5/trunk/ProductModules/PM_FreqFeedbacks\PM_FrequencyFeedbacks.c **** 
 659:C:/Workspace/FW_Platform2_5/trunk/ProductModules/PM_FreqFeedbacks\PM_FrequencyFeedbacks.c **** /**
 660:C:/Workspace/FW_Platform2_5/trunk/ProductModules/PM_FreqFeedbacks\PM_FrequencyFeedbacks.c **** Returns if Frequency feedbacks are reliable.
 661:C:/Workspace/FW_Platform2_5/trunk/ProductModules/PM_FreqFeedbacks\PM_FrequencyFeedbacks.c **** \retvalue 	TRUE reliable
 662:C:/Workspace/FW_Platform2_5/trunk/ProductModules/PM_FreqFeedbacks\PM_FrequencyFeedbacks.c **** 			FALSE not reliable
 663:C:/Workspace/FW_Platform2_5/trunk/ProductModules/PM_FreqFeedbacks\PM_FrequencyFeedbacks.c **** \return		bool_t
 664:C:/Workspace/FW_Platform2_5/trunk/ProductModules/PM_FreqFeedbacks\PM_FrequencyFeedbacks.c **** \author 	Roberto Fioravanti
 665:C:/Workspace/FW_Platform2_5/trunk/ProductModules/PM_FreqFeedbacks\PM_FrequencyFeedbacks.c **** \date		12/06/2012
 666:C:/Workspace/FW_Platform2_5/trunk/ProductModules/PM_FreqFeedbacks\PM_FrequencyFeedbacks.c **** \version	1.0.0
 667:C:/Workspace/FW_Platform2_5/trunk/ProductModules/PM_FreqFeedbacks\PM_FrequencyFeedbacks.c **** 
 668:C:/Workspace/FW_Platform2_5/trunk/ProductModules/PM_FreqFeedbacks\PM_FrequencyFeedbacks.c **** 
 669:C:/Workspace/FW_Platform2_5/trunk/ProductModules/PM_FreqFeedbacks\PM_FrequencyFeedbacks.c **** 
 670:C:/Workspace/FW_Platform2_5/trunk/ProductModules/PM_FreqFeedbacks\PM_FrequencyFeedbacks.c **** \note		\par \b Note 1:
 671:C:/Workspace/FW_Platform2_5/trunk/ProductModules/PM_FreqFeedbacks\PM_FrequencyFeedbacks.c **** 			documentation by Roberto Fioravanti
 672:C:/Workspace/FW_Platform2_5/trunk/ProductModules/PM_FreqFeedbacks\PM_FrequencyFeedbacks.c **** */
 673:C:/Workspace/FW_Platform2_5/trunk/ProductModules/PM_FreqFeedbacks\PM_FrequencyFeedbacks.c **** bool_t PM_FrequencyFeedbacks_Reliable(void)
 674:C:/Workspace/FW_Platform2_5/trunk/ProductModules/PM_FreqFeedbacks\PM_FrequencyFeedbacks.c **** {
 675:C:/Workspace/FW_Platform2_5/trunk/ProductModules/PM_FreqFeedbacks\PM_FrequencyFeedbacks.c **** 	return (bool_t)( !(PM_FrequencyFeedbacks.reliable ^ PM_FrequencyFeedbacks.positionmask))?TRUE:FALS
 676:C:/Workspace/FW_Platform2_5/trunk/ProductModules/PM_FreqFeedbacks\PM_FrequencyFeedbacks.c **** }
 677:C:/Workspace/FW_Platform2_5/trunk/ProductModules/PM_FreqFeedbacks\PM_FrequencyFeedbacks.c **** 
 678:C:/Workspace/FW_Platform2_5/trunk/ProductModules/PM_FreqFeedbacks\PM_FrequencyFeedbacks.c **** 
 679:C:/Workspace/FW_Platform2_5/trunk/ProductModules/PM_FreqFeedbacks\PM_FrequencyFeedbacks.c **** /**
 680:C:/Workspace/FW_Platform2_5/trunk/ProductModules/PM_FreqFeedbacks\PM_FrequencyFeedbacks.c **** Retrieves the feedback value by position
 681:C:/Workspace/FW_Platform2_5/trunk/ProductModules/PM_FreqFeedbacks\PM_FrequencyFeedbacks.c **** 
 682:C:/Workspace/FW_Platform2_5/trunk/ProductModules/PM_FreqFeedbacks\PM_FrequencyFeedbacks.c **** \param [in]		_Position			position (zero based)
 683:C:/Workspace/FW_Platform2_5/trunk/ProductModules/PM_FreqFeedbacks\PM_FrequencyFeedbacks.c **** \param [out]	_pValue				value
 684:C:/Workspace/FW_Platform2_5/trunk/ProductModules/PM_FreqFeedbacks\PM_FrequencyFeedbacks.c **** \return	IO_ErrorType
 685:C:/Workspace/FW_Platform2_5/trunk/ProductModules/PM_FreqFeedbacks\PM_FrequencyFeedbacks.c **** \retval	FREQFB_E_INVALID_POSITION position is out of range
 686:C:/Workspace/FW_Platform2_5/trunk/ProductModules/PM_FreqFeedbacks\PM_FrequencyFeedbacks.c ****  	 	FREQFB_E_FAIL	 invalid pointer _pValue
 687:C:/Workspace/FW_Platform2_5/trunk/ProductModules/PM_FreqFeedbacks\PM_FrequencyFeedbacks.c ****  	 	FREQFB_OK	Successful
 688:C:/Workspace/FW_Platform2_5/trunk/ProductModules/PM_FreqFeedbacks\PM_FrequencyFeedbacks.c **** 
 689:C:/Workspace/FW_Platform2_5/trunk/ProductModules/PM_FreqFeedbacks\PM_FrequencyFeedbacks.c **** \author 	Roberto Fioravanti
 690:C:/Workspace/FW_Platform2_5/trunk/ProductModules/PM_FreqFeedbacks\PM_FrequencyFeedbacks.c **** \date		12/06/2012
 691:C:/Workspace/FW_Platform2_5/trunk/ProductModules/PM_FreqFeedbacks\PM_FrequencyFeedbacks.c **** \version	1.0.0
 692:C:/Workspace/FW_Platform2_5/trunk/ProductModules/PM_FreqFeedbacks\PM_FrequencyFeedbacks.c **** 
 693:C:/Workspace/FW_Platform2_5/trunk/ProductModules/PM_FreqFeedbacks\PM_FrequencyFeedbacks.c **** 
 694:C:/Workspace/FW_Platform2_5/trunk/ProductModules/PM_FreqFeedbacks\PM_FrequencyFeedbacks.c **** 
 695:C:/Workspace/FW_Platform2_5/trunk/ProductModules/PM_FreqFeedbacks\PM_FrequencyFeedbacks.c **** \note		\par \b Note 1:
 696:C:/Workspace/FW_Platform2_5/trunk/ProductModules/PM_FreqFeedbacks\PM_FrequencyFeedbacks.c **** 			documentation by Roberto Fioravanti
 697:C:/Workspace/FW_Platform2_5/trunk/ProductModules/PM_FreqFeedbacks\PM_FrequencyFeedbacks.c **** */
 698:C:/Workspace/FW_Platform2_5/trunk/ProductModules/PM_FreqFeedbacks\PM_FrequencyFeedbacks.c **** PM_FrequencyFeedback_Result PM_FrequencyFeedbacks_GetValueByPosition(PM_FrequencyFeedback_PositionT
 699:C:/Workspace/FW_Platform2_5/trunk/ProductModules/PM_FreqFeedbacks\PM_FrequencyFeedbacks.c **** {
 700:C:/Workspace/FW_Platform2_5/trunk/ProductModules/PM_FreqFeedbacks\PM_FrequencyFeedbacks.c **** 	if(!(_Position < CONFIG_FREQUENCY_FEEDBACKS_MAX_ITEMS_NUMBER))
 701:C:/Workspace/FW_Platform2_5/trunk/ProductModules/PM_FreqFeedbacks\PM_FrequencyFeedbacks.c **** 	{
 702:C:/Workspace/FW_Platform2_5/trunk/ProductModules/PM_FreqFeedbacks\PM_FrequencyFeedbacks.c **** 		PLT_ERROR_WARNING(PM_FREQUENCY_FEEDBACKS_INVALIDPOSITION_ERR);
 703:C:/Workspace/FW_Platform2_5/trunk/ProductModules/PM_FreqFeedbacks\PM_FrequencyFeedbacks.c **** 		return FREQFB_E_INVALID_POSITION;
 704:C:/Workspace/FW_Platform2_5/trunk/ProductModules/PM_FreqFeedbacks\PM_FrequencyFeedbacks.c **** 	}
 705:C:/Workspace/FW_Platform2_5/trunk/ProductModules/PM_FreqFeedbacks\PM_FrequencyFeedbacks.c **** 
 706:C:/Workspace/FW_Platform2_5/trunk/ProductModules/PM_FreqFeedbacks\PM_FrequencyFeedbacks.c **** 	if(_pValue)
 707:C:/Workspace/FW_Platform2_5/trunk/ProductModules/PM_FreqFeedbacks\PM_FrequencyFeedbacks.c **** 	{
 708:C:/Workspace/FW_Platform2_5/trunk/ProductModules/PM_FreqFeedbacks\PM_FrequencyFeedbacks.c **** 		*_pValue = PM_FrequencyFeedbacks_Interface.feedback[_Position];
 709:C:/Workspace/FW_Platform2_5/trunk/ProductModules/PM_FreqFeedbacks\PM_FrequencyFeedbacks.c **** 	}
 710:C:/Workspace/FW_Platform2_5/trunk/ProductModules/PM_FreqFeedbacks\PM_FrequencyFeedbacks.c **** 	else
 711:C:/Workspace/FW_Platform2_5/trunk/ProductModules/PM_FreqFeedbacks\PM_FrequencyFeedbacks.c **** 	{
 712:C:/Workspace/FW_Platform2_5/trunk/ProductModules/PM_FreqFeedbacks\PM_FrequencyFeedbacks.c **** 		return FREQFB_E_FAIL;
 713:C:/Workspace/FW_Platform2_5/trunk/ProductModules/PM_FreqFeedbacks\PM_FrequencyFeedbacks.c **** 	}
 714:C:/Workspace/FW_Platform2_5/trunk/ProductModules/PM_FreqFeedbacks\PM_FrequencyFeedbacks.c **** 	return FREQFB_OK;
 715:C:/Workspace/FW_Platform2_5/trunk/ProductModules/PM_FreqFeedbacks\PM_FrequencyFeedbacks.c **** }
 716:C:/Workspace/FW_Platform2_5/trunk/ProductModules/PM_FreqFeedbacks\PM_FrequencyFeedbacks.c **** 
 717:C:/Workspace/FW_Platform2_5/trunk/ProductModules/PM_FreqFeedbacks\PM_FrequencyFeedbacks.c **** 
 718:C:/Workspace/FW_Platform2_5/trunk/ProductModules/PM_FreqFeedbacks\PM_FrequencyFeedbacks.c **** 
 719:C:/Workspace/FW_Platform2_5/trunk/ProductModules/PM_FreqFeedbacks\PM_FrequencyFeedbacks.c **** /**
 720:C:/Workspace/FW_Platform2_5/trunk/ProductModules/PM_FreqFeedbacks\PM_FrequencyFeedbacks.c **** Frequency feedback manager.
 721:C:/Workspace/FW_Platform2_5/trunk/ProductModules/PM_FreqFeedbacks\PM_FrequencyFeedbacks.c **** Must be run every 10 ms.
 722:C:/Workspace/FW_Platform2_5/trunk/ProductModules/PM_FreqFeedbacks\PM_FrequencyFeedbacks.c **** Ensure periodical call to this function for safety.
 723:C:/Workspace/FW_Platform2_5/trunk/ProductModules/PM_FreqFeedbacks\PM_FrequencyFeedbacks.c **** 
 724:C:/Workspace/FW_Platform2_5/trunk/ProductModules/PM_FreqFeedbacks\PM_FrequencyFeedbacks.c **** \author 	Roberto Fioravanti
 725:C:/Workspace/FW_Platform2_5/trunk/ProductModules/PM_FreqFeedbacks\PM_FrequencyFeedbacks.c **** \date		12/06/2012
 726:C:/Workspace/FW_Platform2_5/trunk/ProductModules/PM_FreqFeedbacks\PM_FrequencyFeedbacks.c **** \version	1.0.0
 727:C:/Workspace/FW_Platform2_5/trunk/ProductModules/PM_FreqFeedbacks\PM_FrequencyFeedbacks.c **** 
 728:C:/Workspace/FW_Platform2_5/trunk/ProductModules/PM_FreqFeedbacks\PM_FrequencyFeedbacks.c **** 
 729:C:/Workspace/FW_Platform2_5/trunk/ProductModules/PM_FreqFeedbacks\PM_FrequencyFeedbacks.c **** 
 730:C:/Workspace/FW_Platform2_5/trunk/ProductModules/PM_FreqFeedbacks\PM_FrequencyFeedbacks.c **** \note		\par \b Note 1:
 731:C:/Workspace/FW_Platform2_5/trunk/ProductModules/PM_FreqFeedbacks\PM_FrequencyFeedbacks.c **** 			documentation by Roberto Fioravanti
 732:C:/Workspace/FW_Platform2_5/trunk/ProductModules/PM_FreqFeedbacks\PM_FrequencyFeedbacks.c **** */
 733:C:/Workspace/FW_Platform2_5/trunk/ProductModules/PM_FreqFeedbacks\PM_FrequencyFeedbacks.c **** void PM_FrequencyFeedbacks_Manager(void)
 734:C:/Workspace/FW_Platform2_5/trunk/ProductModules/PM_FreqFeedbacks\PM_FrequencyFeedbacks.c **** {
 735:C:/Workspace/FW_Platform2_5/trunk/ProductModules/PM_FreqFeedbacks\PM_FrequencyFeedbacks.c **** 	uint8_t frequency = NOM_FREQ_IS_UNDEFINED;
 736:C:/Workspace/FW_Platform2_5/trunk/ProductModules/PM_FreqFeedbacks\PM_FrequencyFeedbacks.c **** 	PM_FrequencyFeedbacks_IndexType inputindex = -1;
 737:C:/Workspace/FW_Platform2_5/trunk/ProductModules/PM_FreqFeedbacks\PM_FrequencyFeedbacks.c **** 	PM_FrequencyFeedbacks_MaskType	mask = 0;
 738:C:/Workspace/FW_Platform2_5/trunk/ProductModules/PM_FreqFeedbacks\PM_FrequencyFeedbacks.c **** 
 739:C:/Workspace/FW_Platform2_5/trunk/ProductModules/PM_FreqFeedbacks\PM_FrequencyFeedbacks.c **** 	/* Plausibility check on PM_FrequencyFeedbacks*/
 740:C:/Workspace/FW_Platform2_5/trunk/ProductModules/PM_FreqFeedbacks\PM_FrequencyFeedbacks.c **** 	PLT_ERROR_FATAL_IF((PM_FrequencyFeedbacks.key != (PM_FrequencyFeedbacks_InitKeyType)PM_FREQUENCY_F
 741:C:/Workspace/FW_Platform2_5/trunk/ProductModules/PM_FreqFeedbacks\PM_FrequencyFeedbacks.c **** 
 742:C:/Workspace/FW_Platform2_5/trunk/ProductModules/PM_FreqFeedbacks\PM_FrequencyFeedbacks.c **** 	if(IsZCSyncOngoing())
 743:C:/Workspace/FW_Platform2_5/trunk/ProductModules/PM_FreqFeedbacks\PM_FrequencyFeedbacks.c **** 	{
 744:C:/Workspace/FW_Platform2_5/trunk/ProductModules/PM_FreqFeedbacks\PM_FrequencyFeedbacks.c **** 		frequency = LIB_ZC_GetNominalFrequency();
 745:C:/Workspace/FW_Platform2_5/trunk/ProductModules/PM_FreqFeedbacks\PM_FrequencyFeedbacks.c **** 	}
 746:C:/Workspace/FW_Platform2_5/trunk/ProductModules/PM_FreqFeedbacks\PM_FrequencyFeedbacks.c **** 
 747:C:/Workspace/FW_Platform2_5/trunk/ProductModules/PM_FreqFeedbacks\PM_FrequencyFeedbacks.c **** 	SAFETY_REGION_START();
 748:C:/Workspace/FW_Platform2_5/trunk/ProductModules/PM_FreqFeedbacks\PM_FrequencyFeedbacks.c **** 
 749:C:/Workspace/FW_Platform2_5/trunk/ProductModules/PM_FreqFeedbacks\PM_FrequencyFeedbacks.c **** 	PM_FrequencyFeedbacks.gridfrequency = frequency;
 750:C:/Workspace/FW_Platform2_5/trunk/ProductModules/PM_FreqFeedbacks\PM_FrequencyFeedbacks.c **** 
 751:C:/Workspace/FW_Platform2_5/trunk/ProductModules/PM_FreqFeedbacks\PM_FrequencyFeedbacks.c **** 	if( LIB_ZC_IsOnGood() )
 752:C:/Workspace/FW_Platform2_5/trunk/ProductModules/PM_FreqFeedbacks\PM_FrequencyFeedbacks.c **** 	{
 753:C:/Workspace/FW_Platform2_5/trunk/ProductModules/PM_FreqFeedbacks\PM_FrequencyFeedbacks.c **** 		PM_FrequencyFeedbacks_ResetAllFeedbacks();
 754:C:/Workspace/FW_Platform2_5/trunk/ProductModules/PM_FreqFeedbacks\PM_FrequencyFeedbacks.c **** 	}
 755:C:/Workspace/FW_Platform2_5/trunk/ProductModules/PM_FreqFeedbacks\PM_FrequencyFeedbacks.c **** 	SAFETY_REGION_END();
 756:C:/Workspace/FW_Platform2_5/trunk/ProductModules/PM_FreqFeedbacks\PM_FrequencyFeedbacks.c **** 
 757:C:/Workspace/FW_Platform2_5/trunk/ProductModules/PM_FreqFeedbacks\PM_FrequencyFeedbacks.c **** 	for(inputindex = 0; inputindex < PM_FrequencyFeedbacks.number; inputindex ++)
 758:C:/Workspace/FW_Platform2_5/trunk/ProductModules/PM_FreqFeedbacks\PM_FrequencyFeedbacks.c **** 	{
 759:C:/Workspace/FW_Platform2_5/trunk/ProductModules/PM_FreqFeedbacks\PM_FrequencyFeedbacks.c **** 		/* Plausibility check on 'item'*/
 760:C:/Workspace/FW_Platform2_5/trunk/ProductModules/PM_FreqFeedbacks\PM_FrequencyFeedbacks.c **** 		PLT_ERROR_FATAL_IF(((PM_FrequencyFeedbacks.item[inputindex].ID != PM_FREQUENCY_FEEDBACK_ID)), PM_
 761:C:/Workspace/FW_Platform2_5/trunk/ProductModules/PM_FreqFeedbacks\PM_FrequencyFeedbacks.c **** 
 762:C:/Workspace/FW_Platform2_5/trunk/ProductModules/PM_FreqFeedbacks\PM_FrequencyFeedbacks.c **** 		SAFETY_REGION_START();
 763:C:/Workspace/FW_Platform2_5/trunk/ProductModules/PM_FreqFeedbacks\PM_FrequencyFeedbacks.c **** 
 764:C:/Workspace/FW_Platform2_5/trunk/ProductModules/PM_FreqFeedbacks\PM_FrequencyFeedbacks.c **** 		if (!(PM_FrequencyFeedbacks.item[inputindex].control & (PM_FF_ITEM_CTRL_UNAVAILABLE)))
 765:C:/Workspace/FW_Platform2_5/trunk/ProductModules/PM_FreqFeedbacks\PM_FrequencyFeedbacks.c **** 		{
 766:C:/Workspace/FW_Platform2_5/trunk/ProductModules/PM_FreqFeedbacks\PM_FrequencyFeedbacks.c **** 			mask = (PM_FrequencyFeedbacks_MaskType)(1u << PM_FrequencyFeedbacks.item[inputindex].position);
 767:C:/Workspace/FW_Platform2_5/trunk/ProductModules/PM_FreqFeedbacks\PM_FrequencyFeedbacks.c **** 
 768:C:/Workspace/FW_Platform2_5/trunk/ProductModules/PM_FreqFeedbacks\PM_FrequencyFeedbacks.c **** 			PM_FrequencyFeedbacks_PulsesCollector(&PM_FrequencyFeedbacks.item[inputindex]);
 769:C:/Workspace/FW_Platform2_5/trunk/ProductModules/PM_FreqFeedbacks\PM_FrequencyFeedbacks.c **** 			PM_FrequencyFeedbacks_SamplesCollector(&PM_FrequencyFeedbacks.item[inputindex]);
 770:C:/Workspace/FW_Platform2_5/trunk/ProductModules/PM_FreqFeedbacks\PM_FrequencyFeedbacks.c **** 
 771:C:/Workspace/FW_Platform2_5/trunk/ProductModules/PM_FreqFeedbacks\PM_FrequencyFeedbacks.c **** 			SAFETY_DATA_CHECK( PM_FrequencyFeedbacks_Interface );
 772:C:/Workspace/FW_Platform2_5/trunk/ProductModules/PM_FreqFeedbacks\PM_FrequencyFeedbacks.c **** 			(void)PM_FrequencyFeedbacks_Process(&PM_FrequencyFeedbacks.item[inputindex], PM_FrequencyFeedbac
 773:C:/Workspace/FW_Platform2_5/trunk/ProductModules/PM_FreqFeedbacks\PM_FrequencyFeedbacks.c **** 			SAFETY_DATA_UPDATE( PM_FrequencyFeedbacks_Interface );
 774:C:/Workspace/FW_Platform2_5/trunk/ProductModules/PM_FreqFeedbacks\PM_FrequencyFeedbacks.c **** 
 775:C:/Workspace/FW_Platform2_5/trunk/ProductModules/PM_FreqFeedbacks\PM_FrequencyFeedbacks.c **** 			PM_FrequencyFeedbacks.item[inputindex].status &= ~PM_FF_ITEM_STATUS_PULSE;
 776:C:/Workspace/FW_Platform2_5/trunk/ProductModules/PM_FreqFeedbacks\PM_FrequencyFeedbacks.c **** 		}
 777:C:/Workspace/FW_Platform2_5/trunk/ProductModules/PM_FreqFeedbacks\PM_FrequencyFeedbacks.c **** 
 778:C:/Workspace/FW_Platform2_5/trunk/ProductModules/PM_FreqFeedbacks\PM_FrequencyFeedbacks.c **** 		SAFETY_REGION_END();
 779:C:/Workspace/FW_Platform2_5/trunk/ProductModules/PM_FreqFeedbacks\PM_FrequencyFeedbacks.c **** 	}
 780:C:/Workspace/FW_Platform2_5/trunk/ProductModules/PM_FreqFeedbacks\PM_FrequencyFeedbacks.c **** }
 781:C:/Workspace/FW_Platform2_5/trunk/ProductModules/PM_FreqFeedbacks\PM_FrequencyFeedbacks.c **** 
 782:C:/Workspace/FW_Platform2_5/trunk/ProductModules/PM_FreqFeedbacks\PM_FrequencyFeedbacks.c **** /* Local Function */
 783:C:/Workspace/FW_Platform2_5/trunk/ProductModules/PM_FreqFeedbacks\PM_FrequencyFeedbacks.c **** 
 784:C:/Workspace/FW_Platform2_5/trunk/ProductModules/PM_FreqFeedbacks\PM_FrequencyFeedbacks.c **** 
 785:C:/Workspace/FW_Platform2_5/trunk/ProductModules/PM_FreqFeedbacks\PM_FrequencyFeedbacks.c **** /**
 786:C:/Workspace/FW_Platform2_5/trunk/ProductModules/PM_FreqFeedbacks\PM_FrequencyFeedbacks.c **** Resets feedback variables of the state machine in order to restart the sampling.
 787:C:/Workspace/FW_Platform2_5/trunk/ProductModules/PM_FreqFeedbacks\PM_FrequencyFeedbacks.c **** 
 788:C:/Workspace/FW_Platform2_5/trunk/ProductModules/PM_FreqFeedbacks\PM_FrequencyFeedbacks.c **** \param [in] _pItem pointer to feedback descriptor
 789:C:/Workspace/FW_Platform2_5/trunk/ProductModules/PM_FreqFeedbacks\PM_FrequencyFeedbacks.c **** 
 790:C:/Workspace/FW_Platform2_5/trunk/ProductModules/PM_FreqFeedbacks\PM_FrequencyFeedbacks.c **** \author 	Roberto Fioravanti
 791:C:/Workspace/FW_Platform2_5/trunk/ProductModules/PM_FreqFeedbacks\PM_FrequencyFeedbacks.c **** \date		12/06/2012
 792:C:/Workspace/FW_Platform2_5/trunk/ProductModules/PM_FreqFeedbacks\PM_FrequencyFeedbacks.c **** \version	1.0.0
 793:C:/Workspace/FW_Platform2_5/trunk/ProductModules/PM_FreqFeedbacks\PM_FrequencyFeedbacks.c **** 
 794:C:/Workspace/FW_Platform2_5/trunk/ProductModules/PM_FreqFeedbacks\PM_FrequencyFeedbacks.c **** 
 795:C:/Workspace/FW_Platform2_5/trunk/ProductModules/PM_FreqFeedbacks\PM_FrequencyFeedbacks.c **** 
 796:C:/Workspace/FW_Platform2_5/trunk/ProductModules/PM_FreqFeedbacks\PM_FrequencyFeedbacks.c **** \note		\par \b Note 1:
 797:C:/Workspace/FW_Platform2_5/trunk/ProductModules/PM_FreqFeedbacks\PM_FrequencyFeedbacks.c **** 			documentation by Roberto Fioravanti
 798:C:/Workspace/FW_Platform2_5/trunk/ProductModules/PM_FreqFeedbacks\PM_FrequencyFeedbacks.c **** */
 799:C:/Workspace/FW_Platform2_5/trunk/ProductModules/PM_FreqFeedbacks\PM_FrequencyFeedbacks.c **** static void PM_FrequencyFeedbacks_RestartFeedback(PM_FrequencyFeedbackType * _pItem)
 800:C:/Workspace/FW_Platform2_5/trunk/ProductModules/PM_FreqFeedbacks\PM_FrequencyFeedbacks.c **** {
 801:C:/Workspace/FW_Platform2_5/trunk/ProductModules/PM_FreqFeedbacks\PM_FrequencyFeedbacks.c **** 	PLT_ERROR_FATAL_IF(!((_pItem != NULL) && (_pItem->ID == PM_FREQUENCY_FEEDBACK_ID)), PM_FREQUENCY_F
 802:C:/Workspace/FW_Platform2_5/trunk/ProductModules/PM_FreqFeedbacks\PM_FrequencyFeedbacks.c **** 
 803:C:/Workspace/FW_Platform2_5/trunk/ProductModules/PM_FreqFeedbacks\PM_FrequencyFeedbacks.c **** 	PM_FrequencyFeedbacks_RestartFeedbackPulse(_pItem);
 804:C:/Workspace/FW_Platform2_5/trunk/ProductModules/PM_FreqFeedbacks\PM_FrequencyFeedbacks.c **** 	PM_FrequencyFeedbacks_RestartFeedbackSampling(_pItem);
 805:C:/Workspace/FW_Platform2_5/trunk/ProductModules/PM_FreqFeedbacks\PM_FrequencyFeedbacks.c **** }
 806:C:/Workspace/FW_Platform2_5/trunk/ProductModules/PM_FreqFeedbacks\PM_FrequencyFeedbacks.c **** 
 807:C:/Workspace/FW_Platform2_5/trunk/ProductModules/PM_FreqFeedbacks\PM_FrequencyFeedbacks.c **** /**
 808:C:/Workspace/FW_Platform2_5/trunk/ProductModules/PM_FreqFeedbacks\PM_FrequencyFeedbacks.c **** Restarts feedback sampling manager.
 809:C:/Workspace/FW_Platform2_5/trunk/ProductModules/PM_FreqFeedbacks\PM_FrequencyFeedbacks.c **** 
 810:C:/Workspace/FW_Platform2_5/trunk/ProductModules/PM_FreqFeedbacks\PM_FrequencyFeedbacks.c **** \param [in] _pItem pointer to feedback descriptor
 811:C:/Workspace/FW_Platform2_5/trunk/ProductModules/PM_FreqFeedbacks\PM_FrequencyFeedbacks.c **** 
 812:C:/Workspace/FW_Platform2_5/trunk/ProductModules/PM_FreqFeedbacks\PM_FrequencyFeedbacks.c **** \author 	Roberto Fioravanti
 813:C:/Workspace/FW_Platform2_5/trunk/ProductModules/PM_FreqFeedbacks\PM_FrequencyFeedbacks.c **** \date		12/06/2012
 814:C:/Workspace/FW_Platform2_5/trunk/ProductModules/PM_FreqFeedbacks\PM_FrequencyFeedbacks.c **** \version	1.0.0
 815:C:/Workspace/FW_Platform2_5/trunk/ProductModules/PM_FreqFeedbacks\PM_FrequencyFeedbacks.c **** 
 816:C:/Workspace/FW_Platform2_5/trunk/ProductModules/PM_FreqFeedbacks\PM_FrequencyFeedbacks.c **** 
 817:C:/Workspace/FW_Platform2_5/trunk/ProductModules/PM_FreqFeedbacks\PM_FrequencyFeedbacks.c **** 
 818:C:/Workspace/FW_Platform2_5/trunk/ProductModules/PM_FreqFeedbacks\PM_FrequencyFeedbacks.c **** \note		\par \b Note 1:
 819:C:/Workspace/FW_Platform2_5/trunk/ProductModules/PM_FreqFeedbacks\PM_FrequencyFeedbacks.c **** 			documentation by Roberto Fioravanti
 820:C:/Workspace/FW_Platform2_5/trunk/ProductModules/PM_FreqFeedbacks\PM_FrequencyFeedbacks.c **** */
 821:C:/Workspace/FW_Platform2_5/trunk/ProductModules/PM_FreqFeedbacks\PM_FrequencyFeedbacks.c **** static void PM_FrequencyFeedbacks_RestartFeedbackPulse(PM_FrequencyFeedbackType * _pItem)
 822:C:/Workspace/FW_Platform2_5/trunk/ProductModules/PM_FreqFeedbacks\PM_FrequencyFeedbacks.c **** {
 823:C:/Workspace/FW_Platform2_5/trunk/ProductModules/PM_FreqFeedbacks\PM_FrequencyFeedbacks.c **** 	PLT_ERROR_FATAL_IF(((_pItem == NULL)), PM_FREQUENCY_FEEDBACKS_INVALIDFEEDBACKPNT_ERR)
 824:C:/Workspace/FW_Platform2_5/trunk/ProductModules/PM_FreqFeedbacks\PM_FrequencyFeedbacks.c **** 
 825:C:/Workspace/FW_Platform2_5/trunk/ProductModules/PM_FreqFeedbacks\PM_FrequencyFeedbacks.c **** 	_pItem->progress = 0;
 826:C:/Workspace/FW_Platform2_5/trunk/ProductModules/PM_FreqFeedbacks\PM_FrequencyFeedbacks.c **** 	_pItem->status &= ~(PM_FF_ITEM_STATUS_FREQ_READY);
 827:C:/Workspace/FW_Platform2_5/trunk/ProductModules/PM_FreqFeedbacks\PM_FrequencyFeedbacks.c **** 	_pItem->maxperiod = 0;
 828:C:/Workspace/FW_Platform2_5/trunk/ProductModules/PM_FreqFeedbacks\PM_FrequencyFeedbacks.c **** }
 829:C:/Workspace/FW_Platform2_5/trunk/ProductModules/PM_FreqFeedbacks\PM_FrequencyFeedbacks.c **** 
 830:C:/Workspace/FW_Platform2_5/trunk/ProductModules/PM_FreqFeedbacks\PM_FrequencyFeedbacks.c **** /**
 831:C:/Workspace/FW_Platform2_5/trunk/ProductModules/PM_FreqFeedbacks\PM_FrequencyFeedbacks.c **** Restarts feedback sampling manager.
 832:C:/Workspace/FW_Platform2_5/trunk/ProductModules/PM_FreqFeedbacks\PM_FrequencyFeedbacks.c **** 
 833:C:/Workspace/FW_Platform2_5/trunk/ProductModules/PM_FreqFeedbacks\PM_FrequencyFeedbacks.c **** \param [in] _pItem pointer to feedback descriptor
 834:C:/Workspace/FW_Platform2_5/trunk/ProductModules/PM_FreqFeedbacks\PM_FrequencyFeedbacks.c **** 
 835:C:/Workspace/FW_Platform2_5/trunk/ProductModules/PM_FreqFeedbacks\PM_FrequencyFeedbacks.c **** \author 	Roberto Fioravanti
 836:C:/Workspace/FW_Platform2_5/trunk/ProductModules/PM_FreqFeedbacks\PM_FrequencyFeedbacks.c **** \date		12/06/2012
 837:C:/Workspace/FW_Platform2_5/trunk/ProductModules/PM_FreqFeedbacks\PM_FrequencyFeedbacks.c **** \version	1.0.0
 838:C:/Workspace/FW_Platform2_5/trunk/ProductModules/PM_FreqFeedbacks\PM_FrequencyFeedbacks.c **** 
 839:C:/Workspace/FW_Platform2_5/trunk/ProductModules/PM_FreqFeedbacks\PM_FrequencyFeedbacks.c **** 
 840:C:/Workspace/FW_Platform2_5/trunk/ProductModules/PM_FreqFeedbacks\PM_FrequencyFeedbacks.c **** 
 841:C:/Workspace/FW_Platform2_5/trunk/ProductModules/PM_FreqFeedbacks\PM_FrequencyFeedbacks.c **** \note		\par \b Note 1:
 842:C:/Workspace/FW_Platform2_5/trunk/ProductModules/PM_FreqFeedbacks\PM_FrequencyFeedbacks.c **** 			documentation by Roberto Fioravanti
 843:C:/Workspace/FW_Platform2_5/trunk/ProductModules/PM_FreqFeedbacks\PM_FrequencyFeedbacks.c **** */
 844:C:/Workspace/FW_Platform2_5/trunk/ProductModules/PM_FreqFeedbacks\PM_FrequencyFeedbacks.c **** static void PM_FrequencyFeedbacks_RestartFeedbackSampling(PM_FrequencyFeedbackType * _pItem)
 845:C:/Workspace/FW_Platform2_5/trunk/ProductModules/PM_FreqFeedbacks\PM_FrequencyFeedbacks.c **** {
 846:C:/Workspace/FW_Platform2_5/trunk/ProductModules/PM_FreqFeedbacks\PM_FrequencyFeedbacks.c **** 	PLT_ERROR_FATAL_IF(((_pItem == NULL)), PM_FREQUENCY_FEEDBACKS_INVALIDFEEDBACKPNT_ERR)
 847:C:/Workspace/FW_Platform2_5/trunk/ProductModules/PM_FreqFeedbacks\PM_FrequencyFeedbacks.c **** 
 848:C:/Workspace/FW_Platform2_5/trunk/ProductModules/PM_FreqFeedbacks\PM_FrequencyFeedbacks.c **** 	_pItem->status &= ~(PM_FF_ITEM_STATUS_SAMPLES_READY);
 849:C:/Workspace/FW_Platform2_5/trunk/ProductModules/PM_FreqFeedbacks\PM_FrequencyFeedbacks.c **** 	_pItem->hlsamples = 0;
 850:C:/Workspace/FW_Platform2_5/trunk/ProductModules/PM_FreqFeedbacks\PM_FrequencyFeedbacks.c **** 	_pItem->samples = 0;
 851:C:/Workspace/FW_Platform2_5/trunk/ProductModules/PM_FreqFeedbacks\PM_FrequencyFeedbacks.c **** 	_pItem->control |= PM_FF_ITEM_CTRL_SAMPLE_ENABLED;
 852:C:/Workspace/FW_Platform2_5/trunk/ProductModules/PM_FreqFeedbacks\PM_FrequencyFeedbacks.c **** 	_pItem->timetorestart = CONFIG_FREQUENCY_FEEDBACKS_MAX_DELAY_TO_RESTART_SAMPLING;
 853:C:/Workspace/FW_Platform2_5/trunk/ProductModules/PM_FreqFeedbacks\PM_FrequencyFeedbacks.c **** }
 854:C:/Workspace/FW_Platform2_5/trunk/ProductModules/PM_FreqFeedbacks\PM_FrequencyFeedbacks.c **** 
 855:C:/Workspace/FW_Platform2_5/trunk/ProductModules/PM_FreqFeedbacks\PM_FrequencyFeedbacks.c **** /**
 856:C:/Workspace/FW_Platform2_5/trunk/ProductModules/PM_FreqFeedbacks\PM_FrequencyFeedbacks.c **** Collects samples
 857:C:/Workspace/FW_Platform2_5/trunk/ProductModules/PM_FreqFeedbacks\PM_FrequencyFeedbacks.c **** 
 858:C:/Workspace/FW_Platform2_5/trunk/ProductModules/PM_FreqFeedbacks\PM_FrequencyFeedbacks.c **** \param [in] _pItem pointer to feedback descriptor
 859:C:/Workspace/FW_Platform2_5/trunk/ProductModules/PM_FreqFeedbacks\PM_FrequencyFeedbacks.c **** 
 860:C:/Workspace/FW_Platform2_5/trunk/ProductModules/PM_FreqFeedbacks\PM_FrequencyFeedbacks.c **** \author 	Roberto Fioravanti
 861:C:/Workspace/FW_Platform2_5/trunk/ProductModules/PM_FreqFeedbacks\PM_FrequencyFeedbacks.c **** \date		12/06/2012
 862:C:/Workspace/FW_Platform2_5/trunk/ProductModules/PM_FreqFeedbacks\PM_FrequencyFeedbacks.c **** \version	1.0.0
 863:C:/Workspace/FW_Platform2_5/trunk/ProductModules/PM_FreqFeedbacks\PM_FrequencyFeedbacks.c **** 
 864:C:/Workspace/FW_Platform2_5/trunk/ProductModules/PM_FreqFeedbacks\PM_FrequencyFeedbacks.c **** 
 865:C:/Workspace/FW_Platform2_5/trunk/ProductModules/PM_FreqFeedbacks\PM_FrequencyFeedbacks.c **** 
 866:C:/Workspace/FW_Platform2_5/trunk/ProductModules/PM_FreqFeedbacks\PM_FrequencyFeedbacks.c **** \note		\par \b Note 1:
 867:C:/Workspace/FW_Platform2_5/trunk/ProductModules/PM_FreqFeedbacks\PM_FrequencyFeedbacks.c **** 			documentation by Roberto Fioravanti
 868:C:/Workspace/FW_Platform2_5/trunk/ProductModules/PM_FreqFeedbacks\PM_FrequencyFeedbacks.c **** */
 869:C:/Workspace/FW_Platform2_5/trunk/ProductModules/PM_FreqFeedbacks\PM_FrequencyFeedbacks.c **** static void PM_FrequencyFeedbacks_SamplesCollector(PM_FrequencyFeedbackType* _pItem)
 870:C:/Workspace/FW_Platform2_5/trunk/ProductModules/PM_FreqFeedbacks\PM_FrequencyFeedbacks.c **** {
 871:C:/Workspace/FW_Platform2_5/trunk/ProductModules/PM_FreqFeedbacks\PM_FrequencyFeedbacks.c **** 	PLT_ERROR_FATAL_IF(((_pItem == NULL)), PM_FREQUENCY_FEEDBACKS_INVALIDFEEDBACKPNT_ERR)
 872:C:/Workspace/FW_Platform2_5/trunk/ProductModules/PM_FreqFeedbacks\PM_FrequencyFeedbacks.c **** 
 873:C:/Workspace/FW_Platform2_5/trunk/ProductModules/PM_FreqFeedbacks\PM_FrequencyFeedbacks.c **** 	/* sampling policy */
 874:C:/Workspace/FW_Platform2_5/trunk/ProductModules/PM_FreqFeedbacks\PM_FrequencyFeedbacks.c **** 	if( _pItem->status & PM_FF_ITEM_STATUS_PULSE )
 875:C:/Workspace/FW_Platform2_5/trunk/ProductModules/PM_FreqFeedbacks\PM_FrequencyFeedbacks.c **** 	{
 876:C:/Workspace/FW_Platform2_5/trunk/ProductModules/PM_FreqFeedbacks\PM_FrequencyFeedbacks.c **** 		if(_pItem->progress <= 2)
 877:C:/Workspace/FW_Platform2_5/trunk/ProductModules/PM_FreqFeedbacks\PM_FrequencyFeedbacks.c **** 		{
 878:C:/Workspace/FW_Platform2_5/trunk/ProductModules/PM_FreqFeedbacks\PM_FrequencyFeedbacks.c **** 			/* keep active sampling */
 879:C:/Workspace/FW_Platform2_5/trunk/ProductModules/PM_FreqFeedbacks\PM_FrequencyFeedbacks.c **** 			_pItem->control |=  PM_FF_ITEM_CTRL_SAMPLE_ENABLED;
 880:C:/Workspace/FW_Platform2_5/trunk/ProductModules/PM_FreqFeedbacks\PM_FrequencyFeedbacks.c **** 		}
 881:C:/Workspace/FW_Platform2_5/trunk/ProductModules/PM_FreqFeedbacks\PM_FrequencyFeedbacks.c **** 		else
 882:C:/Workspace/FW_Platform2_5/trunk/ProductModules/PM_FreqFeedbacks\PM_FrequencyFeedbacks.c **** 		{
 883:C:/Workspace/FW_Platform2_5/trunk/ProductModules/PM_FreqFeedbacks\PM_FrequencyFeedbacks.c **** 			_pItem->timetorestart = CONFIG_FREQUENCY_FEEDBACKS_MAX_DELAY_TO_RESTART_SAMPLING;
 884:C:/Workspace/FW_Platform2_5/trunk/ProductModules/PM_FreqFeedbacks\PM_FrequencyFeedbacks.c **** 		}
 885:C:/Workspace/FW_Platform2_5/trunk/ProductModules/PM_FreqFeedbacks\PM_FrequencyFeedbacks.c **** 	}
 886:C:/Workspace/FW_Platform2_5/trunk/ProductModules/PM_FreqFeedbacks\PM_FrequencyFeedbacks.c **** 
 887:C:/Workspace/FW_Platform2_5/trunk/ProductModules/PM_FreqFeedbacks\PM_FrequencyFeedbacks.c **** 	if (_pItem->control &  PM_FF_ITEM_CTRL_SAMPLE_ENABLED )
 888:C:/Workspace/FW_Platform2_5/trunk/ProductModules/PM_FreqFeedbacks\PM_FrequencyFeedbacks.c **** 	{
 889:C:/Workspace/FW_Platform2_5/trunk/ProductModules/PM_FreqFeedbacks\PM_FrequencyFeedbacks.c **** 		if(++_pItem->samples < _pItem->requested_samples)
 890:C:/Workspace/FW_Platform2_5/trunk/ProductModules/PM_FreqFeedbacks\PM_FrequencyFeedbacks.c **** 		{
 891:C:/Workspace/FW_Platform2_5/trunk/ProductModules/PM_FreqFeedbacks\PM_FrequencyFeedbacks.c **** 			if(LIB_DIO_GET_INPUT_F(_pItem->pin, 20))
 892:C:/Workspace/FW_Platform2_5/trunk/ProductModules/PM_FreqFeedbacks\PM_FrequencyFeedbacks.c **** 			{
 893:C:/Workspace/FW_Platform2_5/trunk/ProductModules/PM_FreqFeedbacks\PM_FrequencyFeedbacks.c **** 				_pItem->hlsamples++;
 894:C:/Workspace/FW_Platform2_5/trunk/ProductModules/PM_FreqFeedbacks\PM_FrequencyFeedbacks.c **** 			}
 895:C:/Workspace/FW_Platform2_5/trunk/ProductModules/PM_FreqFeedbacks\PM_FrequencyFeedbacks.c **** 		}
 896:C:/Workspace/FW_Platform2_5/trunk/ProductModules/PM_FreqFeedbacks\PM_FrequencyFeedbacks.c **** 		else
 897:C:/Workspace/FW_Platform2_5/trunk/ProductModules/PM_FreqFeedbacks\PM_FrequencyFeedbacks.c **** 		{
 898:C:/Workspace/FW_Platform2_5/trunk/ProductModules/PM_FreqFeedbacks\PM_FrequencyFeedbacks.c **** 			_pItem->status |= PM_FF_ITEM_STATUS_SAMPLES_READY;
 899:C:/Workspace/FW_Platform2_5/trunk/ProductModules/PM_FreqFeedbacks\PM_FrequencyFeedbacks.c **** 			_pItem->control &=  ~PM_FF_ITEM_CTRL_SAMPLE_ENABLED;
 900:C:/Workspace/FW_Platform2_5/trunk/ProductModules/PM_FreqFeedbacks\PM_FrequencyFeedbacks.c **** 			_pItem->polling = ((_pItem->hlsamples) > (_pItem->requested_samples/2))?1:0;
 901:C:/Workspace/FW_Platform2_5/trunk/ProductModules/PM_FreqFeedbacks\PM_FrequencyFeedbacks.c **** 		}
 902:C:/Workspace/FW_Platform2_5/trunk/ProductModules/PM_FreqFeedbacks\PM_FrequencyFeedbacks.c **** 	}
 903:C:/Workspace/FW_Platform2_5/trunk/ProductModules/PM_FreqFeedbacks\PM_FrequencyFeedbacks.c **** 
 904:C:/Workspace/FW_Platform2_5/trunk/ProductModules/PM_FreqFeedbacks\PM_FrequencyFeedbacks.c **** }
 905:C:/Workspace/FW_Platform2_5/trunk/ProductModules/PM_FreqFeedbacks\PM_FrequencyFeedbacks.c **** 
 906:C:/Workspace/FW_Platform2_5/trunk/ProductModules/PM_FreqFeedbacks\PM_FrequencyFeedbacks.c **** /**
 907:C:/Workspace/FW_Platform2_5/trunk/ProductModules/PM_FreqFeedbacks\PM_FrequencyFeedbacks.c **** Collects pulses
 908:C:/Workspace/FW_Platform2_5/trunk/ProductModules/PM_FreqFeedbacks\PM_FrequencyFeedbacks.c **** 
 909:C:/Workspace/FW_Platform2_5/trunk/ProductModules/PM_FreqFeedbacks\PM_FrequencyFeedbacks.c **** \param [in] _pItem pointer to feedback descriptor
 910:C:/Workspace/FW_Platform2_5/trunk/ProductModules/PM_FreqFeedbacks\PM_FrequencyFeedbacks.c **** 
 911:C:/Workspace/FW_Platform2_5/trunk/ProductModules/PM_FreqFeedbacks\PM_FrequencyFeedbacks.c **** \author 	Roberto Fioravanti
 912:C:/Workspace/FW_Platform2_5/trunk/ProductModules/PM_FreqFeedbacks\PM_FrequencyFeedbacks.c **** \date		12/06/2012
 913:C:/Workspace/FW_Platform2_5/trunk/ProductModules/PM_FreqFeedbacks\PM_FrequencyFeedbacks.c **** \version	1.0.0
 914:C:/Workspace/FW_Platform2_5/trunk/ProductModules/PM_FreqFeedbacks\PM_FrequencyFeedbacks.c **** 
 915:C:/Workspace/FW_Platform2_5/trunk/ProductModules/PM_FreqFeedbacks\PM_FrequencyFeedbacks.c **** 
 916:C:/Workspace/FW_Platform2_5/trunk/ProductModules/PM_FreqFeedbacks\PM_FrequencyFeedbacks.c **** 
 917:C:/Workspace/FW_Platform2_5/trunk/ProductModules/PM_FreqFeedbacks\PM_FrequencyFeedbacks.c **** \note		\par \b Note 1:
 918:C:/Workspace/FW_Platform2_5/trunk/ProductModules/PM_FreqFeedbacks\PM_FrequencyFeedbacks.c **** 			documentation by Roberto Fioravanti
 919:C:/Workspace/FW_Platform2_5/trunk/ProductModules/PM_FreqFeedbacks\PM_FrequencyFeedbacks.c **** */
 920:C:/Workspace/FW_Platform2_5/trunk/ProductModules/PM_FreqFeedbacks\PM_FrequencyFeedbacks.c **** static void PM_FrequencyFeedbacks_PulsesCollector(PM_FrequencyFeedbackType* _pItem)
 921:C:/Workspace/FW_Platform2_5/trunk/ProductModules/PM_FreqFeedbacks\PM_FrequencyFeedbacks.c **** {
 922:C:/Workspace/FW_Platform2_5/trunk/ProductModules/PM_FreqFeedbacks\PM_FrequencyFeedbacks.c **** 	PLT_ERROR_FATAL_IF(((_pItem == NULL)), PM_FREQUENCY_FEEDBACKS_INVALIDFEEDBACKPNT_ERR)
 923:C:/Workspace/FW_Platform2_5/trunk/ProductModules/PM_FreqFeedbacks\PM_FrequencyFeedbacks.c **** 
 924:C:/Workspace/FW_Platform2_5/trunk/ProductModules/PM_FreqFeedbacks\PM_FrequencyFeedbacks.c **** 	if( _pItem->progress < 20 )
 925:C:/Workspace/FW_Platform2_5/trunk/ProductModules/PM_FreqFeedbacks\PM_FrequencyFeedbacks.c **** 	{
 926:C:/Workspace/FW_Platform2_5/trunk/ProductModules/PM_FreqFeedbacks\PM_FrequencyFeedbacks.c **** 		/* frequency detection in progress */
 927:C:/Workspace/FW_Platform2_5/trunk/ProductModules/PM_FreqFeedbacks\PM_FrequencyFeedbacks.c **** 		_pItem->progress++;
 928:C:/Workspace/FW_Platform2_5/trunk/ProductModules/PM_FreqFeedbacks\PM_FrequencyFeedbacks.c **** 		/* check PWD notification */
 929:C:/Workspace/FW_Platform2_5/trunk/ProductModules/PM_FreqFeedbacks\PM_FrequencyFeedbacks.c **** 		if( _pItem->status & PM_FF_ITEM_STATUS_PERIODIC)
 930:C:/Workspace/FW_Platform2_5/trunk/ProductModules/PM_FreqFeedbacks\PM_FrequencyFeedbacks.c **** 		{
 931:C:/Workspace/FW_Platform2_5/trunk/ProductModules/PM_FreqFeedbacks\PM_FrequencyFeedbacks.c **** 			_pItem->status &= ~PM_FF_ITEM_STATUS_PERIODIC;
 932:C:/Workspace/FW_Platform2_5/trunk/ProductModules/PM_FreqFeedbacks\PM_FrequencyFeedbacks.c **** 			_pItem->status |= PM_FF_ITEM_STATUS_PULSE;
 933:C:/Workspace/FW_Platform2_5/trunk/ProductModules/PM_FreqFeedbacks\PM_FrequencyFeedbacks.c **** 		}
 934:C:/Workspace/FW_Platform2_5/trunk/ProductModules/PM_FreqFeedbacks\PM_FrequencyFeedbacks.c **** 		_pItem->status &= ~PM_FF_ITEM_STATUS_FREQ_READY;
 935:C:/Workspace/FW_Platform2_5/trunk/ProductModules/PM_FreqFeedbacks\PM_FrequencyFeedbacks.c **** 	}
 936:C:/Workspace/FW_Platform2_5/trunk/ProductModules/PM_FreqFeedbacks\PM_FrequencyFeedbacks.c **** 	else
 937:C:/Workspace/FW_Platform2_5/trunk/ProductModules/PM_FreqFeedbacks\PM_FrequencyFeedbacks.c **** 	{
 938:C:/Workspace/FW_Platform2_5/trunk/ProductModules/PM_FreqFeedbacks\PM_FrequencyFeedbacks.c **** 		/* end of pulse detection */
 939:C:/Workspace/FW_Platform2_5/trunk/ProductModules/PM_FreqFeedbacks\PM_FrequencyFeedbacks.c **** 		_pItem->progress=0;
 940:C:/Workspace/FW_Platform2_5/trunk/ProductModules/PM_FreqFeedbacks\PM_FrequencyFeedbacks.c **** 		_pItem->status |= PM_FF_ITEM_STATUS_END_OF_FREQ;
 941:C:/Workspace/FW_Platform2_5/trunk/ProductModules/PM_FreqFeedbacks\PM_FrequencyFeedbacks.c **** 	}
 942:C:/Workspace/FW_Platform2_5/trunk/ProductModules/PM_FreqFeedbacks\PM_FrequencyFeedbacks.c **** }
 943:C:/Workspace/FW_Platform2_5/trunk/ProductModules/PM_FreqFeedbacks\PM_FrequencyFeedbacks.c **** 
 944:C:/Workspace/FW_Platform2_5/trunk/ProductModules/PM_FreqFeedbacks\PM_FrequencyFeedbacks.c **** /**
 945:C:/Workspace/FW_Platform2_5/trunk/ProductModules/PM_FreqFeedbacks\PM_FrequencyFeedbacks.c **** Processes the acquisitions.
 946:C:/Workspace/FW_Platform2_5/trunk/ProductModules/PM_FreqFeedbacks\PM_FrequencyFeedbacks.c **** 
 947:C:/Workspace/FW_Platform2_5/trunk/ProductModules/PM_FreqFeedbacks\PM_FrequencyFeedbacks.c **** \param [in] _pItem pointer to feedback descriptor
 948:C:/Workspace/FW_Platform2_5/trunk/ProductModules/PM_FreqFeedbacks\PM_FrequencyFeedbacks.c **** 
 949:C:/Workspace/FW_Platform2_5/trunk/ProductModules/PM_FreqFeedbacks\PM_FrequencyFeedbacks.c **** \author 	Roberto Fioravanti
 950:C:/Workspace/FW_Platform2_5/trunk/ProductModules/PM_FreqFeedbacks\PM_FrequencyFeedbacks.c **** \date		12/06/2012
 951:C:/Workspace/FW_Platform2_5/trunk/ProductModules/PM_FreqFeedbacks\PM_FrequencyFeedbacks.c **** \version	1.0.0
 952:C:/Workspace/FW_Platform2_5/trunk/ProductModules/PM_FreqFeedbacks\PM_FrequencyFeedbacks.c **** 
 953:C:/Workspace/FW_Platform2_5/trunk/ProductModules/PM_FreqFeedbacks\PM_FrequencyFeedbacks.c **** \note		\par \b Note 1:
 954:C:/Workspace/FW_Platform2_5/trunk/ProductModules/PM_FreqFeedbacks\PM_FrequencyFeedbacks.c **** 			documentation by Roberto Fioravanti
 955:C:/Workspace/FW_Platform2_5/trunk/ProductModules/PM_FreqFeedbacks\PM_FrequencyFeedbacks.c **** */
 956:C:/Workspace/FW_Platform2_5/trunk/ProductModules/PM_FreqFeedbacks\PM_FrequencyFeedbacks.c **** static PM_FrequencyFeedbacks_ProcessStatusType PM_FrequencyFeedbacks_Process(PM_FrequencyFeedbackTy
 957:C:/Workspace/FW_Platform2_5/trunk/ProductModules/PM_FreqFeedbacks\PM_FrequencyFeedbacks.c **** {
 958:C:/Workspace/FW_Platform2_5/trunk/ProductModules/PM_FreqFeedbacks\PM_FrequencyFeedbacks.c **** 	PM_FrequencyFeedbacks_ProcessStatusType status = PM_FREQUENCY_FEEDBACK_PROCESS_WORKING;
 959:C:/Workspace/FW_Platform2_5/trunk/ProductModules/PM_FreqFeedbacks\PM_FrequencyFeedbacks.c **** 	PM_FrequencyFeedbacks_BitmapType mask = (PM_FrequencyFeedbacks_BitmapType)(1u<< _pItem->position);
 960:C:/Workspace/FW_Platform2_5/trunk/ProductModules/PM_FreqFeedbacks\PM_FrequencyFeedbacks.c **** 
 961:C:/Workspace/FW_Platform2_5/trunk/ProductModules/PM_FreqFeedbacks\PM_FrequencyFeedbacks.c **** 	PLT_ERROR_FATAL_IF(((_pItem == NULL)), PM_FREQUENCY_FEEDBACKS_INVALIDFEEDBACKPNT_ERR)
 962:C:/Workspace/FW_Platform2_5/trunk/ProductModules/PM_FreqFeedbacks\PM_FrequencyFeedbacks.c **** 
 963:C:/Workspace/FW_Platform2_5/trunk/ProductModules/PM_FreqFeedbacks\PM_FrequencyFeedbacks.c **** 	if(_pItem->status & PM_FF_ITEM_STATUS_PULSE)
 964:C:/Workspace/FW_Platform2_5/trunk/ProductModules/PM_FreqFeedbacks\PM_FrequencyFeedbacks.c **** 	{
 965:C:/Workspace/FW_Platform2_5/trunk/ProductModules/PM_FreqFeedbacks\PM_FrequencyFeedbacks.c **** 		_pItem->control &= ~PM_FF_ITEM_CTRL_SAMPLE_ENABLED;
 966:C:/Workspace/FW_Platform2_5/trunk/ProductModules/PM_FreqFeedbacks\PM_FrequencyFeedbacks.c **** 	}
 967:C:/Workspace/FW_Platform2_5/trunk/ProductModules/PM_FreqFeedbacks\PM_FrequencyFeedbacks.c **** 
 968:C:/Workspace/FW_Platform2_5/trunk/ProductModules/PM_FreqFeedbacks\PM_FrequencyFeedbacks.c **** 	if ( (_pItem->status & PM_FF_ITEM_STATUS_END_OF_FREQ))
 969:C:/Workspace/FW_Platform2_5/trunk/ProductModules/PM_FreqFeedbacks\PM_FrequencyFeedbacks.c **** 	{
 970:C:/Workspace/FW_Platform2_5/trunk/ProductModules/PM_FreqFeedbacks\PM_FrequencyFeedbacks.c **** 		if(!(_pItem->control & PM_FF_ITEM_CTRL_SAMPLE_ENABLED))
 971:C:/Workspace/FW_Platform2_5/trunk/ProductModules/PM_FreqFeedbacks\PM_FrequencyFeedbacks.c **** 		{
 972:C:/Workspace/FW_Platform2_5/trunk/ProductModules/PM_FreqFeedbacks\PM_FrequencyFeedbacks.c **** 			_pItem->status |= PM_FF_ITEM_STATUS_FREQ_READY;
 973:C:/Workspace/FW_Platform2_5/trunk/ProductModules/PM_FreqFeedbacks\PM_FrequencyFeedbacks.c **** 		}
 974:C:/Workspace/FW_Platform2_5/trunk/ProductModules/PM_FreqFeedbacks\PM_FrequencyFeedbacks.c **** 
 975:C:/Workspace/FW_Platform2_5/trunk/ProductModules/PM_FreqFeedbacks\PM_FrequencyFeedbacks.c **** 		_pItem->status &= ~PM_FF_ITEM_STATUS_END_OF_FREQ;
 976:C:/Workspace/FW_Platform2_5/trunk/ProductModules/PM_FreqFeedbacks\PM_FrequencyFeedbacks.c **** 	}
 977:C:/Workspace/FW_Platform2_5/trunk/ProductModules/PM_FreqFeedbacks\PM_FrequencyFeedbacks.c **** 
 978:C:/Workspace/FW_Platform2_5/trunk/ProductModules/PM_FreqFeedbacks\PM_FrequencyFeedbacks.c **** 	if( !(_pItem->status & PM_FF_ITEM_STATUS_FREQ_READY) )
 979:C:/Workspace/FW_Platform2_5/trunk/ProductModules/PM_FreqFeedbacks\PM_FrequencyFeedbacks.c **** 	{
 980:C:/Workspace/FW_Platform2_5/trunk/ProductModules/PM_FreqFeedbacks\PM_FrequencyFeedbacks.c **** 		if( _pItem->status & PM_FF_ITEM_STATUS_SAMPLES_READY )
 981:C:/Workspace/FW_Platform2_5/trunk/ProductModules/PM_FreqFeedbacks\PM_FrequencyFeedbacks.c **** 		{
 982:C:/Workspace/FW_Platform2_5/trunk/ProductModules/PM_FreqFeedbacks\PM_FrequencyFeedbacks.c **** 			if(!_Disabled)
 983:C:/Workspace/FW_Platform2_5/trunk/ProductModules/PM_FreqFeedbacks\PM_FrequencyFeedbacks.c **** 			{
 984:C:/Workspace/FW_Platform2_5/trunk/ProductModules/PM_FreqFeedbacks\PM_FrequencyFeedbacks.c **** 				PM_FrequencyFeedbacks_Interface.feedback[_pItem->position]=(PM_FrequencyFeedbacks_ValueType) (_
 985:C:/Workspace/FW_Platform2_5/trunk/ProductModules/PM_FreqFeedbacks\PM_FrequencyFeedbacks.c **** 			}
 986:C:/Workspace/FW_Platform2_5/trunk/ProductModules/PM_FreqFeedbacks\PM_FrequencyFeedbacks.c **** 			PM_FrequencyFeedbacks.ready |= mask;
 987:C:/Workspace/FW_Platform2_5/trunk/ProductModules/PM_FreqFeedbacks\PM_FrequencyFeedbacks.c **** 			status = PM_FREQUENCY_FEEDBACK_PROCESS_END;
 988:C:/Workspace/FW_Platform2_5/trunk/ProductModules/PM_FreqFeedbacks\PM_FrequencyFeedbacks.c **** 		}
 989:C:/Workspace/FW_Platform2_5/trunk/ProductModules/PM_FreqFeedbacks\PM_FrequencyFeedbacks.c **** 	}
 990:C:/Workspace/FW_Platform2_5/trunk/ProductModules/PM_FreqFeedbacks\PM_FrequencyFeedbacks.c **** 	else
 991:C:/Workspace/FW_Platform2_5/trunk/ProductModules/PM_FreqFeedbacks\PM_FrequencyFeedbacks.c **** 	{
 992:C:/Workspace/FW_Platform2_5/trunk/ProductModules/PM_FreqFeedbacks\PM_FrequencyFeedbacks.c **** 		if(!_Disabled)
 993:C:/Workspace/FW_Platform2_5/trunk/ProductModules/PM_FreqFeedbacks\PM_FrequencyFeedbacks.c **** 		{
 994:C:/Workspace/FW_Platform2_5/trunk/ProductModules/PM_FreqFeedbacks\PM_FrequencyFeedbacks.c **** 			if(PM_FrequencyFeedbacks.gridfrequency == NOM_FREQ_IS_50_HZ)
 995:C:/Workspace/FW_Platform2_5/trunk/ProductModules/PM_FreqFeedbacks\PM_FrequencyFeedbacks.c **** 			{
 996:C:/Workspace/FW_Platform2_5/trunk/ProductModules/PM_FreqFeedbacks\PM_FrequencyFeedbacks.c **** 				if(_pItem->maxperiod < PM_FF_50HZ_MAX_PULSES_NUM)
 997:C:/Workspace/FW_Platform2_5/trunk/ProductModules/PM_FreqFeedbacks\PM_FrequencyFeedbacks.c **** 				{
 998:C:/Workspace/FW_Platform2_5/trunk/ProductModules/PM_FreqFeedbacks\PM_FrequencyFeedbacks.c **** 					PM_FrequencyFeedbacks_Interface.feedback[_pItem->position]=(PM_FrequencyFeedbacks_ValueType) P
 999:C:/Workspace/FW_Platform2_5/trunk/ProductModules/PM_FreqFeedbacks\PM_FrequencyFeedbacks.c **** 				}
1000:C:/Workspace/FW_Platform2_5/trunk/ProductModules/PM_FreqFeedbacks\PM_FrequencyFeedbacks.c **** 				else
1001:C:/Workspace/FW_Platform2_5/trunk/ProductModules/PM_FreqFeedbacks\PM_FrequencyFeedbacks.c **** 				{
1002:C:/Workspace/FW_Platform2_5/trunk/ProductModules/PM_FreqFeedbacks\PM_FrequencyFeedbacks.c **** 					PM_FrequencyFeedbacks_Interface.feedback[_pItem->position]=(PM_FrequencyFeedbacks_ValueType) P
1003:C:/Workspace/FW_Platform2_5/trunk/ProductModules/PM_FreqFeedbacks\PM_FrequencyFeedbacks.c **** 				}
1004:C:/Workspace/FW_Platform2_5/trunk/ProductModules/PM_FreqFeedbacks\PM_FrequencyFeedbacks.c **** 			}
1005:C:/Workspace/FW_Platform2_5/trunk/ProductModules/PM_FreqFeedbacks\PM_FrequencyFeedbacks.c **** 			else if(PM_FrequencyFeedbacks.gridfrequency == NOM_FREQ_IS_60_HZ)
1006:C:/Workspace/FW_Platform2_5/trunk/ProductModules/PM_FreqFeedbacks\PM_FrequencyFeedbacks.c **** 			{
1007:C:/Workspace/FW_Platform2_5/trunk/ProductModules/PM_FreqFeedbacks\PM_FrequencyFeedbacks.c **** 				if(_pItem->maxperiod < PM_FF_60HZ_MAX_PULSES_NUM)
1008:C:/Workspace/FW_Platform2_5/trunk/ProductModules/PM_FreqFeedbacks\PM_FrequencyFeedbacks.c **** 				{
1009:C:/Workspace/FW_Platform2_5/trunk/ProductModules/PM_FreqFeedbacks\PM_FrequencyFeedbacks.c **** 					PM_FrequencyFeedbacks_Interface.feedback[_pItem->position]=(PM_FrequencyFeedbacks_ValueType) P
1010:C:/Workspace/FW_Platform2_5/trunk/ProductModules/PM_FreqFeedbacks\PM_FrequencyFeedbacks.c **** 				}
1011:C:/Workspace/FW_Platform2_5/trunk/ProductModules/PM_FreqFeedbacks\PM_FrequencyFeedbacks.c **** 				else
1012:C:/Workspace/FW_Platform2_5/trunk/ProductModules/PM_FreqFeedbacks\PM_FrequencyFeedbacks.c **** 				{
1013:C:/Workspace/FW_Platform2_5/trunk/ProductModules/PM_FreqFeedbacks\PM_FrequencyFeedbacks.c **** 					PM_FrequencyFeedbacks_Interface.feedback[_pItem->position]=(PM_FrequencyFeedbacks_ValueType) P
1014:C:/Workspace/FW_Platform2_5/trunk/ProductModules/PM_FreqFeedbacks\PM_FrequencyFeedbacks.c **** 				}
1015:C:/Workspace/FW_Platform2_5/trunk/ProductModules/PM_FreqFeedbacks\PM_FrequencyFeedbacks.c **** 			}
1016:C:/Workspace/FW_Platform2_5/trunk/ProductModules/PM_FreqFeedbacks\PM_FrequencyFeedbacks.c **** 			else
1017:C:/Workspace/FW_Platform2_5/trunk/ProductModules/PM_FreqFeedbacks\PM_FrequencyFeedbacks.c **** 			{
1018:C:/Workspace/FW_Platform2_5/trunk/ProductModules/PM_FreqFeedbacks\PM_FrequencyFeedbacks.c **** 				/* invalid frequency */
1019:C:/Workspace/FW_Platform2_5/trunk/ProductModules/PM_FreqFeedbacks\PM_FrequencyFeedbacks.c **** 				if(_pItem->maxperiod < PM_FF_HILO_FREQ_MAX_PULSES_NUM)
1020:C:/Workspace/FW_Platform2_5/trunk/ProductModules/PM_FreqFeedbacks\PM_FrequencyFeedbacks.c **** 				{
1021:C:/Workspace/FW_Platform2_5/trunk/ProductModules/PM_FreqFeedbacks\PM_FrequencyFeedbacks.c **** 					PM_FrequencyFeedbacks_Interface.feedback[_pItem->position]=(PM_FrequencyFeedbacks_ValueType) P
1022:C:/Workspace/FW_Platform2_5/trunk/ProductModules/PM_FreqFeedbacks\PM_FrequencyFeedbacks.c **** 				}
1023:C:/Workspace/FW_Platform2_5/trunk/ProductModules/PM_FreqFeedbacks\PM_FrequencyFeedbacks.c **** 				else
1024:C:/Workspace/FW_Platform2_5/trunk/ProductModules/PM_FreqFeedbacks\PM_FrequencyFeedbacks.c **** 				{
1025:C:/Workspace/FW_Platform2_5/trunk/ProductModules/PM_FreqFeedbacks\PM_FrequencyFeedbacks.c **** 					PM_FrequencyFeedbacks_Interface.feedback[_pItem->position]=(PM_FrequencyFeedbacks_ValueType) P
1026:C:/Workspace/FW_Platform2_5/trunk/ProductModules/PM_FreqFeedbacks\PM_FrequencyFeedbacks.c **** 				}
1027:C:/Workspace/FW_Platform2_5/trunk/ProductModules/PM_FreqFeedbacks\PM_FrequencyFeedbacks.c **** 			}
1028:C:/Workspace/FW_Platform2_5/trunk/ProductModules/PM_FreqFeedbacks\PM_FrequencyFeedbacks.c **** 
1029:C:/Workspace/FW_Platform2_5/trunk/ProductModules/PM_FreqFeedbacks\PM_FrequencyFeedbacks.c **** 		}
1030:C:/Workspace/FW_Platform2_5/trunk/ProductModules/PM_FreqFeedbacks\PM_FrequencyFeedbacks.c **** 		PM_FrequencyFeedbacks.ready |= mask;
1031:C:/Workspace/FW_Platform2_5/trunk/ProductModules/PM_FreqFeedbacks\PM_FrequencyFeedbacks.c **** 
1032:C:/Workspace/FW_Platform2_5/trunk/ProductModules/PM_FreqFeedbacks\PM_FrequencyFeedbacks.c **** 		status = PM_FREQUENCY_FEEDBACK_PROCESS_END;
1033:C:/Workspace/FW_Platform2_5/trunk/ProductModules/PM_FreqFeedbacks\PM_FrequencyFeedbacks.c **** 	}
1034:C:/Workspace/FW_Platform2_5/trunk/ProductModules/PM_FreqFeedbacks\PM_FrequencyFeedbacks.c **** 
1035:C:/Workspace/FW_Platform2_5/trunk/ProductModules/PM_FreqFeedbacks\PM_FrequencyFeedbacks.c **** 	PM_FrequencyFeedbacks.reliable |= PM_FrequencyFeedbacks.ready;
1036:C:/Workspace/FW_Platform2_5/trunk/ProductModules/PM_FreqFeedbacks\PM_FrequencyFeedbacks.c **** 
1037:C:/Workspace/FW_Platform2_5/trunk/ProductModules/PM_FreqFeedbacks\PM_FrequencyFeedbacks.c **** 	if((status == PM_FREQUENCY_FEEDBACK_PROCESS_END))
1038:C:/Workspace/FW_Platform2_5/trunk/ProductModules/PM_FreqFeedbacks\PM_FrequencyFeedbacks.c **** 	{
1039:C:/Workspace/FW_Platform2_5/trunk/ProductModules/PM_FreqFeedbacks\PM_FrequencyFeedbacks.c **** 		/* TRACE_TO_PIN(ON , (35-1) )*/
1040:C:/Workspace/FW_Platform2_5/trunk/ProductModules/PM_FreqFeedbacks\PM_FrequencyFeedbacks.c **** 		/**/
1041:C:/Workspace/FW_Platform2_5/trunk/ProductModules/PM_FreqFeedbacks\PM_FrequencyFeedbacks.c **** 		PM_FrequencyFeedbacks_RestartFeedback(_pItem);
1042:C:/Workspace/FW_Platform2_5/trunk/ProductModules/PM_FreqFeedbacks\PM_FrequencyFeedbacks.c **** 	}
1043:C:/Workspace/FW_Platform2_5/trunk/ProductModules/PM_FreqFeedbacks\PM_FrequencyFeedbacks.c **** 	else
1044:C:/Workspace/FW_Platform2_5/trunk/ProductModules/PM_FreqFeedbacks\PM_FrequencyFeedbacks.c **** 	{
1045:C:/Workspace/FW_Platform2_5/trunk/ProductModules/PM_FreqFeedbacks\PM_FrequencyFeedbacks.c **** 		/* TRACE_TO_PIN(OFF , (35-1) ) */
1046:C:/Workspace/FW_Platform2_5/trunk/ProductModules/PM_FreqFeedbacks\PM_FrequencyFeedbacks.c **** 	}
1047:C:/Workspace/FW_Platform2_5/trunk/ProductModules/PM_FreqFeedbacks\PM_FrequencyFeedbacks.c **** 
1048:C:/Workspace/FW_Platform2_5/trunk/ProductModules/PM_FreqFeedbacks\PM_FrequencyFeedbacks.c **** 	if (!(_pItem->control &  PM_FF_ITEM_CTRL_SAMPLE_ENABLED ))
1049:C:/Workspace/FW_Platform2_5/trunk/ProductModules/PM_FreqFeedbacks\PM_FrequencyFeedbacks.c **** 	{
1050:C:/Workspace/FW_Platform2_5/trunk/ProductModules/PM_FreqFeedbacks\PM_FrequencyFeedbacks.c **** 		if(_pItem->timetorestart > 0)
1051:C:/Workspace/FW_Platform2_5/trunk/ProductModules/PM_FreqFeedbacks\PM_FrequencyFeedbacks.c **** 		{
1052:C:/Workspace/FW_Platform2_5/trunk/ProductModules/PM_FreqFeedbacks\PM_FrequencyFeedbacks.c **** 			_pItem->timetorestart--;
1053:C:/Workspace/FW_Platform2_5/trunk/ProductModules/PM_FreqFeedbacks\PM_FrequencyFeedbacks.c **** 		}
1054:C:/Workspace/FW_Platform2_5/trunk/ProductModules/PM_FreqFeedbacks\PM_FrequencyFeedbacks.c **** 		else
1055:C:/Workspace/FW_Platform2_5/trunk/ProductModules/PM_FreqFeedbacks\PM_FrequencyFeedbacks.c **** 		{
1056:C:/Workspace/FW_Platform2_5/trunk/ProductModules/PM_FreqFeedbacks\PM_FrequencyFeedbacks.c **** 			_pItem->timetorestart = CONFIG_FREQUENCY_FEEDBACKS_MAX_DELAY_TO_RESTART_SAMPLING;
1057:C:/Workspace/FW_Platform2_5/trunk/ProductModules/PM_FreqFeedbacks\PM_FrequencyFeedbacks.c **** 			PM_FrequencyFeedbacks_RestartFeedbackSampling(_pItem);
1058:C:/Workspace/FW_Platform2_5/trunk/ProductModules/PM_FreqFeedbacks\PM_FrequencyFeedbacks.c **** 		}
1059:C:/Workspace/FW_Platform2_5/trunk/ProductModules/PM_FreqFeedbacks\PM_FrequencyFeedbacks.c **** 	}
1060:C:/Workspace/FW_Platform2_5/trunk/ProductModules/PM_FreqFeedbacks\PM_FrequencyFeedbacks.c **** 
1061:C:/Workspace/FW_Platform2_5/trunk/ProductModules/PM_FreqFeedbacks\PM_FrequencyFeedbacks.c **** 	return status;
1062:C:/Workspace/FW_Platform2_5/trunk/ProductModules/PM_FreqFeedbacks\PM_FrequencyFeedbacks.c **** 
1063:C:/Workspace/FW_Platform2_5/trunk/ProductModules/PM_FreqFeedbacks\PM_FrequencyFeedbacks.c **** }
1064:C:/Workspace/FW_Platform2_5/trunk/ProductModules/PM_FreqFeedbacks\PM_FrequencyFeedbacks.c **** 
1065:C:/Workspace/FW_Platform2_5/trunk/ProductModules/PM_FreqFeedbacks\PM_FrequencyFeedbacks.c **** /**
1066:C:/Workspace/FW_Platform2_5/trunk/ProductModules/PM_FreqFeedbacks\PM_FrequencyFeedbacks.c **** Populates feedback descriptor.
1067:C:/Workspace/FW_Platform2_5/trunk/ProductModules/PM_FreqFeedbacks\PM_FrequencyFeedbacks.c **** 
1068:C:/Workspace/FW_Platform2_5/trunk/ProductModules/PM_FreqFeedbacks\PM_FrequencyFeedbacks.c **** \param [in]	_pFrequencyFeedback	pointer to feedback descriptor
1069:C:/Workspace/FW_Platform2_5/trunk/ProductModules/PM_FreqFeedbacks\PM_FrequencyFeedbacks.c **** \param [in]	_Pin				pin of the module
1070:C:/Workspace/FW_Platform2_5/trunk/ProductModules/PM_FreqFeedbacks\PM_FrequencyFeedbacks.c **** \param [in]	_TpmCh				tpm channel
1071:C:/Workspace/FW_Platform2_5/trunk/ProductModules/PM_FreqFeedbacks\PM_FrequencyFeedbacks.c **** \param [in]	_Samples			samples
1072:C:/Workspace/FW_Platform2_5/trunk/ProductModules/PM_FreqFeedbacks\PM_FrequencyFeedbacks.c **** \param [in]	_Position			position in ram
1073:C:/Workspace/FW_Platform2_5/trunk/ProductModules/PM_FreqFeedbacks\PM_FrequencyFeedbacks.c **** 
1074:C:/Workspace/FW_Platform2_5/trunk/ProductModules/PM_FreqFeedbacks\PM_FrequencyFeedbacks.c **** \author 	Roberto Fioravanti
1075:C:/Workspace/FW_Platform2_5/trunk/ProductModules/PM_FreqFeedbacks\PM_FrequencyFeedbacks.c **** \date		12/06/2012
1076:C:/Workspace/FW_Platform2_5/trunk/ProductModules/PM_FreqFeedbacks\PM_FrequencyFeedbacks.c **** \version	1.0.0
1077:C:/Workspace/FW_Platform2_5/trunk/ProductModules/PM_FreqFeedbacks\PM_FrequencyFeedbacks.c **** 
1078:C:/Workspace/FW_Platform2_5/trunk/ProductModules/PM_FreqFeedbacks\PM_FrequencyFeedbacks.c **** \note		\par \b Note 1:
1079:C:/Workspace/FW_Platform2_5/trunk/ProductModules/PM_FreqFeedbacks\PM_FrequencyFeedbacks.c **** 			documentation by Roberto Fioravanti
1080:C:/Workspace/FW_Platform2_5/trunk/ProductModules/PM_FreqFeedbacks\PM_FrequencyFeedbacks.c **** */
1081:C:/Workspace/FW_Platform2_5/trunk/ProductModules/PM_FreqFeedbacks\PM_FrequencyFeedbacks.c **** static void PM_FrequencyFeedbacks_Populate(PM_FrequencyFeedbackType* _pFrequencyFeedback, PM_FreqFe
1082:C:/Workspace/FW_Platform2_5/trunk/ProductModules/PM_FreqFeedbacks\PM_FrequencyFeedbacks.c **** {
1083:C:/Workspace/FW_Platform2_5/trunk/ProductModules/PM_FreqFeedbacks\PM_FrequencyFeedbacks.c **** 	PLT_ERROR_FATAL_IF((_pFrequencyFeedback == NULL), PM_FREQUENCY_FEEDBACKS_INVALIDFEEDBACKPNT_ERR)
1084:C:/Workspace/FW_Platform2_5/trunk/ProductModules/PM_FreqFeedbacks\PM_FrequencyFeedbacks.c **** 
1085:C:/Workspace/FW_Platform2_5/trunk/ProductModules/PM_FreqFeedbacks\PM_FrequencyFeedbacks.c **** 	_pFrequencyFeedback->tpmchannel= _TpmCh;
1086:C:/Workspace/FW_Platform2_5/trunk/ProductModules/PM_FreqFeedbacks\PM_FrequencyFeedbacks.c **** 	_pFrequencyFeedback->requested_samples = _Samples;
1087:C:/Workspace/FW_Platform2_5/trunk/ProductModules/PM_FreqFeedbacks\PM_FrequencyFeedbacks.c **** 	_pFrequencyFeedback->pin = _Pin;
1088:C:/Workspace/FW_Platform2_5/trunk/ProductModules/PM_FreqFeedbacks\PM_FrequencyFeedbacks.c **** 	_pFrequencyFeedback->timetorestart = CONFIG_FREQUENCY_FEEDBACKS_MAX_DELAY_TO_RESTART_SAMPLING;
1089:C:/Workspace/FW_Platform2_5/trunk/ProductModules/PM_FreqFeedbacks\PM_FrequencyFeedbacks.c **** 	_pFrequencyFeedback->position = _Position;
1090:C:/Workspace/FW_Platform2_5/trunk/ProductModules/PM_FreqFeedbacks\PM_FrequencyFeedbacks.c **** 	_pFrequencyFeedback->ID=PM_FREQUENCY_FEEDBACK_ID;
1091:C:/Workspace/FW_Platform2_5/trunk/ProductModules/PM_FreqFeedbacks\PM_FrequencyFeedbacks.c **** }
1092:C:/Workspace/FW_Platform2_5/trunk/ProductModules/PM_FreqFeedbacks\PM_FrequencyFeedbacks.c **** 
1093:C:/Workspace/FW_Platform2_5/trunk/ProductModules/PM_FreqFeedbacks\PM_FrequencyFeedbacks.c **** /**
1094:C:/Workspace/FW_Platform2_5/trunk/ProductModules/PM_FreqFeedbacks\PM_FrequencyFeedbacks.c **** Retrieves index by tpm channel
1095:C:/Workspace/FW_Platform2_5/trunk/ProductModules/PM_FreqFeedbacks\PM_FrequencyFeedbacks.c **** 
1096:C:/Workspace/FW_Platform2_5/trunk/ProductModules/PM_FreqFeedbacks\PM_FrequencyFeedbacks.c **** \param [in]	_TpmCh				tpm channel
1097:C:/Workspace/FW_Platform2_5/trunk/ProductModules/PM_FreqFeedbacks\PM_FrequencyFeedbacks.c **** \return	PM_FrequencyFeedbacks_IndexType
1098:C:/Workspace/FW_Platform2_5/trunk/ProductModules/PM_FreqFeedbacks\PM_FrequencyFeedbacks.c **** \retval	-1 invalid index
1099:C:/Workspace/FW_Platform2_5/trunk/ProductModules/PM_FreqFeedbacks\PM_FrequencyFeedbacks.c ****  	 	 value greater than 0 valid value
1100:C:/Workspace/FW_Platform2_5/trunk/ProductModules/PM_FreqFeedbacks\PM_FrequencyFeedbacks.c **** 
1101:C:/Workspace/FW_Platform2_5/trunk/ProductModules/PM_FreqFeedbacks\PM_FrequencyFeedbacks.c **** \author 	Roberto Fioravanti
1102:C:/Workspace/FW_Platform2_5/trunk/ProductModules/PM_FreqFeedbacks\PM_FrequencyFeedbacks.c **** \date		12/06/2012
1103:C:/Workspace/FW_Platform2_5/trunk/ProductModules/PM_FreqFeedbacks\PM_FrequencyFeedbacks.c **** \version	1.0.0
1104:C:/Workspace/FW_Platform2_5/trunk/ProductModules/PM_FreqFeedbacks\PM_FrequencyFeedbacks.c **** 
1105:C:/Workspace/FW_Platform2_5/trunk/ProductModules/PM_FreqFeedbacks\PM_FrequencyFeedbacks.c **** 
1106:C:/Workspace/FW_Platform2_5/trunk/ProductModules/PM_FreqFeedbacks\PM_FrequencyFeedbacks.c **** 
1107:C:/Workspace/FW_Platform2_5/trunk/ProductModules/PM_FreqFeedbacks\PM_FrequencyFeedbacks.c **** \note		\par \b Note 1:
1108:C:/Workspace/FW_Platform2_5/trunk/ProductModules/PM_FreqFeedbacks\PM_FrequencyFeedbacks.c **** 			documentation by Roberto Fioravanti
1109:C:/Workspace/FW_Platform2_5/trunk/ProductModules/PM_FreqFeedbacks\PM_FrequencyFeedbacks.c **** */
1110:C:/Workspace/FW_Platform2_5/trunk/ProductModules/PM_FreqFeedbacks\PM_FrequencyFeedbacks.c **** static PM_FrequencyFeedbacks_IndexType PM_FrequencyFeedbacks_GetIndexByTimerCh(IO_ChannelType _TpmC
1111:C:/Workspace/FW_Platform2_5/trunk/ProductModules/PM_FreqFeedbacks\PM_FrequencyFeedbacks.c **** {
1112:C:/Workspace/FW_Platform2_5/trunk/ProductModules/PM_FreqFeedbacks\PM_FrequencyFeedbacks.c **** 	PM_FrequencyFeedbacks_IndexType inputindex = -1;
1113:C:/Workspace/FW_Platform2_5/trunk/ProductModules/PM_FreqFeedbacks\PM_FrequencyFeedbacks.c **** 	bool_t found = 0;
1114:C:/Workspace/FW_Platform2_5/trunk/ProductModules/PM_FreqFeedbacks\PM_FrequencyFeedbacks.c **** 	for(inputindex = 0; inputindex < PM_FrequencyFeedbacks.number; inputindex ++)
1115:C:/Workspace/FW_Platform2_5/trunk/ProductModules/PM_FreqFeedbacks\PM_FrequencyFeedbacks.c **** 	{
1116:C:/Workspace/FW_Platform2_5/trunk/ProductModules/PM_FreqFeedbacks\PM_FrequencyFeedbacks.c **** 		/* Plausibility check on 'item'*/
1117:C:/Workspace/FW_Platform2_5/trunk/ProductModules/PM_FreqFeedbacks\PM_FrequencyFeedbacks.c **** 		PLT_ERROR_FATAL_IF(((PM_FrequencyFeedbacks.item[inputindex].ID != PM_FREQUENCY_FEEDBACK_ID)), PM_
1118:C:/Workspace/FW_Platform2_5/trunk/ProductModules/PM_FreqFeedbacks\PM_FrequencyFeedbacks.c **** 
1119:C:/Workspace/FW_Platform2_5/trunk/ProductModules/PM_FreqFeedbacks\PM_FrequencyFeedbacks.c **** 		if((PM_FrequencyFeedbacks.item[inputindex].tpmchannel == _TpmCh))
1120:C:/Workspace/FW_Platform2_5/trunk/ProductModules/PM_FreqFeedbacks\PM_FrequencyFeedbacks.c **** 		{
1121:C:/Workspace/FW_Platform2_5/trunk/ProductModules/PM_FreqFeedbacks\PM_FrequencyFeedbacks.c **** 			found =1;
1122:C:/Workspace/FW_Platform2_5/trunk/ProductModules/PM_FreqFeedbacks\PM_FrequencyFeedbacks.c **** 			break;
1123:C:/Workspace/FW_Platform2_5/trunk/ProductModules/PM_FreqFeedbacks\PM_FrequencyFeedbacks.c **** 		}
1124:C:/Workspace/FW_Platform2_5/trunk/ProductModules/PM_FreqFeedbacks\PM_FrequencyFeedbacks.c **** 	}
1125:C:/Workspace/FW_Platform2_5/trunk/ProductModules/PM_FreqFeedbacks\PM_FrequencyFeedbacks.c **** 	if(!found)
1126:C:/Workspace/FW_Platform2_5/trunk/ProductModules/PM_FreqFeedbacks\PM_FrequencyFeedbacks.c **** 	{
1127:C:/Workspace/FW_Platform2_5/trunk/ProductModules/PM_FreqFeedbacks\PM_FrequencyFeedbacks.c **** 		inputindex = -1;
1128:C:/Workspace/FW_Platform2_5/trunk/ProductModules/PM_FreqFeedbacks\PM_FrequencyFeedbacks.c **** 	}
1129:C:/Workspace/FW_Platform2_5/trunk/ProductModules/PM_FreqFeedbacks\PM_FrequencyFeedbacks.c **** 	return inputindex;
1130:C:/Workspace/FW_Platform2_5/trunk/ProductModules/PM_FreqFeedbacks\PM_FrequencyFeedbacks.c **** }
1131:C:/Workspace/FW_Platform2_5/trunk/ProductModules/PM_FreqFeedbacks\PM_FrequencyFeedbacks.c **** 
1132:C:/Workspace/FW_Platform2_5/trunk/ProductModules/PM_FreqFeedbacks\PM_FrequencyFeedbacks.c **** /**
1133:C:/Workspace/FW_Platform2_5/trunk/ProductModules/PM_FreqFeedbacks\PM_FrequencyFeedbacks.c **** Retrieves index by position
1134:C:/Workspace/FW_Platform2_5/trunk/ProductModules/PM_FreqFeedbacks\PM_FrequencyFeedbacks.c **** 
1135:C:/Workspace/FW_Platform2_5/trunk/ProductModules/PM_FreqFeedbacks\PM_FrequencyFeedbacks.c **** \param [in]	_Position				position
1136:C:/Workspace/FW_Platform2_5/trunk/ProductModules/PM_FreqFeedbacks\PM_FrequencyFeedbacks.c **** \return	PM_FrequencyFeedbacks_IndexType
1137:C:/Workspace/FW_Platform2_5/trunk/ProductModules/PM_FreqFeedbacks\PM_FrequencyFeedbacks.c **** \retval	-1 invalid index
1138:C:/Workspace/FW_Platform2_5/trunk/ProductModules/PM_FreqFeedbacks\PM_FrequencyFeedbacks.c ****  	 	 value greater than 0 valid value
1139:C:/Workspace/FW_Platform2_5/trunk/ProductModules/PM_FreqFeedbacks\PM_FrequencyFeedbacks.c **** 
1140:C:/Workspace/FW_Platform2_5/trunk/ProductModules/PM_FreqFeedbacks\PM_FrequencyFeedbacks.c **** \author 	Roberto Fioravanti
1141:C:/Workspace/FW_Platform2_5/trunk/ProductModules/PM_FreqFeedbacks\PM_FrequencyFeedbacks.c **** \date		12/06/2012
1142:C:/Workspace/FW_Platform2_5/trunk/ProductModules/PM_FreqFeedbacks\PM_FrequencyFeedbacks.c **** \version	1.0.0
1143:C:/Workspace/FW_Platform2_5/trunk/ProductModules/PM_FreqFeedbacks\PM_FrequencyFeedbacks.c **** 
1144:C:/Workspace/FW_Platform2_5/trunk/ProductModules/PM_FreqFeedbacks\PM_FrequencyFeedbacks.c **** 
1145:C:/Workspace/FW_Platform2_5/trunk/ProductModules/PM_FreqFeedbacks\PM_FrequencyFeedbacks.c **** 
1146:C:/Workspace/FW_Platform2_5/trunk/ProductModules/PM_FreqFeedbacks\PM_FrequencyFeedbacks.c **** \note		\par \b Note 1:
1147:C:/Workspace/FW_Platform2_5/trunk/ProductModules/PM_FreqFeedbacks\PM_FrequencyFeedbacks.c **** 			documentation by Roberto Fioravanti
1148:C:/Workspace/FW_Platform2_5/trunk/ProductModules/PM_FreqFeedbacks\PM_FrequencyFeedbacks.c **** */
1149:C:/Workspace/FW_Platform2_5/trunk/ProductModules/PM_FreqFeedbacks\PM_FrequencyFeedbacks.c **** static PM_FrequencyFeedbacks_IndexType PM_FrequencyFeedbacks_GetIndexByPosition(PM_FrequencyFeedbac
1150:C:/Workspace/FW_Platform2_5/trunk/ProductModules/PM_FreqFeedbacks\PM_FrequencyFeedbacks.c **** {
   9                             		.loc 1 1150 0
  10                             	.LVL0:
1151:C:/Workspace/FW_Platform2_5/trunk/ProductModules/PM_FreqFeedbacks\PM_FrequencyFeedbacks.c **** 	PM_FrequencyFeedbacks_IndexType inputindex = -1;
1152:C:/Workspace/FW_Platform2_5/trunk/ProductModules/PM_FreqFeedbacks\PM_FrequencyFeedbacks.c **** 	bool_t found = 0;
1153:C:/Workspace/FW_Platform2_5/trunk/ProductModules/PM_FreqFeedbacks\PM_FrequencyFeedbacks.c **** 	for(inputindex = 0; inputindex < PM_FrequencyFeedbacks.number; inputindex ++)
  11                             		.loc 1 1153 0
  12 0000 FB E2 00 00 00 00       		mov.L	#_PM_FrequencyFeedbacks, r14
  13 0006 58 E3                   		movu.B	[r14], r3
1154:C:/Workspace/FW_Platform2_5/trunk/ProductModules/PM_FreqFeedbacks\PM_FrequencyFeedbacks.c **** 	{
1155:C:/Workspace/FW_Platform2_5/trunk/ProductModules/PM_FreqFeedbacks\PM_FrequencyFeedbacks.c **** 		if(!(PM_FrequencyFeedbacks.item[inputindex].ID == PM_FREQUENCY_FEEDBACK_ID))
1156:C:/Workspace/FW_Platform2_5/trunk/ProductModules/PM_FreqFeedbacks\PM_FrequencyFeedbacks.c **** 		{
1157:C:/Workspace/FW_Platform2_5/trunk/ProductModules/PM_FreqFeedbacks\PM_FrequencyFeedbacks.c **** 			/* something is going wrong :PM_FrequencyFeedbacks.item has been corrupted,  then FAULT*/
1158:C:/Workspace/FW_Platform2_5/trunk/ProductModules/PM_FreqFeedbacks\PM_FrequencyFeedbacks.c **** 			return IO_E_UNEXPECTED_CONDITION;
1159:C:/Workspace/FW_Platform2_5/trunk/ProductModules/PM_FreqFeedbacks\PM_FrequencyFeedbacks.c **** 		}
1160:C:/Workspace/FW_Platform2_5/trunk/ProductModules/PM_FreqFeedbacks\PM_FrequencyFeedbacks.c **** 
1161:C:/Workspace/FW_Platform2_5/trunk/ProductModules/PM_FreqFeedbacks\PM_FrequencyFeedbacks.c **** 		if((PM_FrequencyFeedbacks.item[inputindex].position == _Position))
  14                             		.loc 1 1161 0
  15 0008 5B 11                   		movu.B	r1, r1
1153:C:/Workspace/FW_Platform2_5/trunk/ProductModules/PM_FreqFeedbacks\PM_FrequencyFeedbacks.c **** 	for(inputindex = 0; inputindex < PM_FrequencyFeedbacks.number; inputindex ++)
  16                             		.loc 1 1153 0
  17 000a 66 0E                   		mov.L	#0, r14
  18 000c 2E 24                   		bra	.L2
  19                             	.LVL1:
  20                             	.L4:
1149:C:/Workspace/FW_Platform2_5/trunk/ProductModules/PM_FreqFeedbacks\PM_FrequencyFeedbacks.c **** static PM_FrequencyFeedbacks_IndexType PM_FrequencyFeedbacks_GetIndexByPosition(PM_FrequencyFeedbac
  21                             		.loc 1 1149 0
  22 000e EF E2                   		mov.L	r14, r2
  23 0010 63 E2                   		mul	#14, r2
  24 0012 70 22 00 00 00 00       		add	#_PM_FrequencyFeedbacks, r2
1155:C:/Workspace/FW_Platform2_5/trunk/ProductModules/PM_FreqFeedbacks\PM_FrequencyFeedbacks.c **** 		if(!(PM_FrequencyFeedbacks.item[inputindex].ID == PM_FREQUENCY_FEEDBACK_ID))
  25                             		.loc 1 1155 0
  26 0018 B5 2A                   		movu.B	21[r2], r2
  27 001a 61 42                   		cmp	#4, r2
  28 001c 21 1F                   		bne	.L5
  29 001e 62 1E                   		add	#1, r14
1149:C:/Workspace/FW_Platform2_5/trunk/ProductModules/PM_FreqFeedbacks\PM_FrequencyFeedbacks.c **** static PM_FrequencyFeedbacks_IndexType PM_FrequencyFeedbacks_GetIndexByPosition(PM_FrequencyFeedbac
  30                             		.loc 1 1149 0
  31 0020 EF E2                   		mov.L	r14, r2
  32 0022 63 E2                   		mul	#14, r2
  33 0024 70 22 00 00 00 00       		add	#_PM_FrequencyFeedbacks, r2
  34                             		.loc 1 1161 0
  35 002a B0 AA                   		movu.B	3[r2], r2
  36 002c 47 12                   		cmp	r1, r2
  37 002e 20 10                   		beq	.L3
  38                             	.LVL2:
  39                             		.balign 2,3,1
  40                             	.L2:
1153:C:/Workspace/FW_Platform2_5/trunk/ProductModules/PM_FreqFeedbacks\PM_FrequencyFeedbacks.c **** 	for(inputindex = 0; inputindex < PM_FrequencyFeedbacks.number; inputindex ++)
  41                             		.loc 1 1153 0 discriminator 1
  42 0030 47 3E                   		cmp	r3, r14
  43 0032 CF E4                   		mov.B	r14, r4
  44                             	.LVL3:
  45 0034 29 DA                   		blt	.L4
1162:C:/Workspace/FW_Platform2_5/trunk/ProductModules/PM_FreqFeedbacks\PM_FrequencyFeedbacks.c **** 		{
1163:C:/Workspace/FW_Platform2_5/trunk/ProductModules/PM_FreqFeedbacks\PM_FrequencyFeedbacks.c **** 			found =1;
1164:C:/Workspace/FW_Platform2_5/trunk/ProductModules/PM_FreqFeedbacks\PM_FrequencyFeedbacks.c **** 			break;
1165:C:/Workspace/FW_Platform2_5/trunk/ProductModules/PM_FreqFeedbacks\PM_FrequencyFeedbacks.c **** 		}
1166:C:/Workspace/FW_Platform2_5/trunk/ProductModules/PM_FreqFeedbacks\PM_FrequencyFeedbacks.c **** 	}
1167:C:/Workspace/FW_Platform2_5/trunk/ProductModules/PM_FreqFeedbacks\PM_FrequencyFeedbacks.c **** 	if(!found)
1168:C:/Workspace/FW_Platform2_5/trunk/ProductModules/PM_FreqFeedbacks\PM_FrequencyFeedbacks.c **** 	{
1169:C:/Workspace/FW_Platform2_5/trunk/ProductModules/PM_FreqFeedbacks\PM_FrequencyFeedbacks.c **** 		inputindex = -1;
  46                             		.loc 1 1169 0
  47 0036 FB 46 FF                		mov	#-1, r4
  48                             	.LVL4:
  49 0039 2E 05                   		bra	.L3
  50                             	.LVL5:
  51                             	.L5:
1158:C:/Workspace/FW_Platform2_5/trunk/ProductModules/PM_FreqFeedbacks\PM_FrequencyFeedbacks.c **** 			return IO_E_UNEXPECTED_CONDITION;
  52                             		.loc 1 1158 0
  53 003b 75 44 17                		mov	#23, r4
  54                             	.LVL6:
  55                             		.balign 2,3,1
  56                             	.L3:
1170:C:/Workspace/FW_Platform2_5/trunk/ProductModules/PM_FreqFeedbacks\PM_FrequencyFeedbacks.c **** 	}
1171:C:/Workspace/FW_Platform2_5/trunk/ProductModules/PM_FreqFeedbacks\PM_FrequencyFeedbacks.c **** 	return inputindex;
1172:C:/Workspace/FW_Platform2_5/trunk/ProductModules/PM_FreqFeedbacks\PM_FrequencyFeedbacks.c **** }
  57                             		.loc 1 1172 0
  58 003e CF 41                   		mov.B	r4, r1
  59                             	.LVL7:
  60 0040 02                      		rts
  61                             	.LFE19:
  63 0041 03                      		.section	.text.PM_FrequencyFeedbacks_PWDCallback,"ax",@progbits
  65                             	_PM_FrequencyFeedbacks_PWDCallback:
  66                             	.LFB20:
1173:C:/Workspace/FW_Platform2_5/trunk/ProductModules/PM_FreqFeedbacks\PM_FrequencyFeedbacks.c **** 
1174:C:/Workspace/FW_Platform2_5/trunk/ProductModules/PM_FreqFeedbacks\PM_FrequencyFeedbacks.c **** /**
1175:C:/Workspace/FW_Platform2_5/trunk/ProductModules/PM_FreqFeedbacks\PM_FrequencyFeedbacks.c **** PWD callback
1176:C:/Workspace/FW_Platform2_5/trunk/ProductModules/PM_FreqFeedbacks\PM_FrequencyFeedbacks.c **** 
1177:C:/Workspace/FW_Platform2_5/trunk/ProductModules/PM_FreqFeedbacks\PM_FrequencyFeedbacks.c **** \param [in]	notifVal
1178:C:/Workspace/FW_Platform2_5/trunk/ProductModules/PM_FreqFeedbacks\PM_FrequencyFeedbacks.c **** \param [in]	channel
1179:C:/Workspace/FW_Platform2_5/trunk/ProductModules/PM_FreqFeedbacks\PM_FrequencyFeedbacks.c **** \param [in]	error
1180:C:/Workspace/FW_Platform2_5/trunk/ProductModules/PM_FreqFeedbacks\PM_FrequencyFeedbacks.c **** \return	IO_ErrorType
1181:C:/Workspace/FW_Platform2_5/trunk/ProductModules/PM_FreqFeedbacks\PM_FrequencyFeedbacks.c **** \retval	IO_E_UNEXPECTED_CONDITION if invalid notification or missin initialization
1182:C:/Workspace/FW_Platform2_5/trunk/ProductModules/PM_FreqFeedbacks\PM_FrequencyFeedbacks.c **** 
1183:C:/Workspace/FW_Platform2_5/trunk/ProductModules/PM_FreqFeedbacks\PM_FrequencyFeedbacks.c **** 
1184:C:/Workspace/FW_Platform2_5/trunk/ProductModules/PM_FreqFeedbacks\PM_FrequencyFeedbacks.c **** \author 	Roberto Fioravanti
1185:C:/Workspace/FW_Platform2_5/trunk/ProductModules/PM_FreqFeedbacks\PM_FrequencyFeedbacks.c **** \date		12/06/2012
1186:C:/Workspace/FW_Platform2_5/trunk/ProductModules/PM_FreqFeedbacks\PM_FrequencyFeedbacks.c **** \version	1.0.0
1187:C:/Workspace/FW_Platform2_5/trunk/ProductModules/PM_FreqFeedbacks\PM_FrequencyFeedbacks.c **** 
1188:C:/Workspace/FW_Platform2_5/trunk/ProductModules/PM_FreqFeedbacks\PM_FrequencyFeedbacks.c **** 
1189:C:/Workspace/FW_Platform2_5/trunk/ProductModules/PM_FreqFeedbacks\PM_FrequencyFeedbacks.c **** 
1190:C:/Workspace/FW_Platform2_5/trunk/ProductModules/PM_FreqFeedbacks\PM_FrequencyFeedbacks.c **** \note		\par \b Note 1:
1191:C:/Workspace/FW_Platform2_5/trunk/ProductModules/PM_FreqFeedbacks\PM_FrequencyFeedbacks.c **** 			documentation by Roberto Fioravanti
1192:C:/Workspace/FW_Platform2_5/trunk/ProductModules/PM_FreqFeedbacks\PM_FrequencyFeedbacks.c **** */
1193:C:/Workspace/FW_Platform2_5/trunk/ProductModules/PM_FreqFeedbacks\PM_FrequencyFeedbacks.c **** static IO_ErrorType PM_FrequencyFeedbacks_PWDCallback ( IO_NotificationType notifVal, IO_ChannelTyp
1194:C:/Workspace/FW_Platform2_5/trunk/ProductModules/PM_FreqFeedbacks\PM_FrequencyFeedbacks.c **** {
  67                             		.loc 1 1194 0
  68                             	.LVL8:
  69 0000 6E 7C                   		pushm	r7-r12
  70                             	.LCFI0:
  71 0002 60 80                   		sub	#8, r0
  72                             	.LCFI1:
1195:C:/Workspace/FW_Platform2_5/trunk/ProductModules/PM_FreqFeedbacks\PM_FrequencyFeedbacks.c **** 	IO_PWD_MeasureType tmpMeasure;
1196:C:/Workspace/FW_Platform2_5/trunk/ProductModules/PM_FreqFeedbacks\PM_FrequencyFeedbacks.c **** 	PM_FrequencyFeedbacks_IndexType feedback=0xFF;
1197:C:/Workspace/FW_Platform2_5/trunk/ProductModules/PM_FreqFeedbacks\PM_FrequencyFeedbacks.c **** 
1198:C:/Workspace/FW_Platform2_5/trunk/ProductModules/PM_FreqFeedbacks\PM_FrequencyFeedbacks.c ****     /* Assertion: notification status must be good */
1199:C:/Workspace/FW_Platform2_5/trunk/ProductModules/PM_FreqFeedbacks\PM_FrequencyFeedbacks.c ****     PLT_ERROR_FATAL_IF(!(( notifVal == IO_N_COMPLETED ) && ( error == IO_E_OK )), PM_FREQUENCY_FEED
  73                             		.loc 1 1199 0
  74 0004 5B 11                   		movu.B	r1, r1
  75 0006 61 61                   		cmp	#6, r1
1194:C:/Workspace/FW_Platform2_5/trunk/ProductModules/PM_FreqFeedbacks\PM_FrequencyFeedbacks.c **** {
  76                             		.loc 1 1194 0
  77 0008 CF 2A                   		mov.B	r2, r10
  78                             		.loc 1 1199 0
  79 000a 21 08                   		bne	.L7
  80                             		.loc 1 1199 0 is_stmt 0 discriminator 2
  81 000c 5B 33                   		movu.B	r3, r3
  82 000e 61 03                   		cmp	#0, r3
  83 0010 20 0A                   		beq	.L8
  84                             	.LVL9:
  85                             		.balign 2,3,2
  86                             	.L7:
  87                             		.loc 1 1199 0 discriminator 1
  88 0012 75 41 49                		mov.L	#0x49, r1
  89                             	.LVL10:
  90 0015 05 00 00 00             		bsr	_LIB_Error_Fatal_Handler
  91                             	.LVL11:
  92 0019 03                      		.balign 2,3,5
  93                             	.L8:
1200:C:/Workspace/FW_Platform2_5/trunk/ProductModules/PM_FreqFeedbacks\PM_FrequencyFeedbacks.c **** 
1201:C:/Workspace/FW_Platform2_5/trunk/ProductModules/PM_FreqFeedbacks\PM_FrequencyFeedbacks.c ****     /* */
1202:C:/Workspace/FW_Platform2_5/trunk/ProductModules/PM_FreqFeedbacks\PM_FrequencyFeedbacks.c ****     /*lint -e514*/
1203:C:/Workspace/FW_Platform2_5/trunk/ProductModules/PM_FreqFeedbacks\PM_FrequencyFeedbacks.c ****     PLT_ERROR_FATAL_IF((PM_FrequencyFeedbacks.key != (PM_FrequencyFeedbacks_InitKeyType)PM_FREQUENC
  94                             		.loc 1 1203 0 is_stmt 1
  95 001a FB 72 00 00 00 00       		mov.L	#_PM_FrequencyFeedbacks, r7
  96 0020 B8 7F                   		movu.W	2[r7], r7
  97 0022 76 07 FB 04             		cmp	#0x4fb, r7
  98 0026 20 0A                   		beq	.L9
  99                             		.loc 1 1203 0 is_stmt 0 discriminator 1
 100 0028 75 41 46                		mov.L	#0x46, r1
 101 002b 05 00 00 00             		bsr	_LIB_Error_Fatal_Handler
 102                             	.LVL12:
 103 002f 03                      		.balign 2,3,1
 104                             	.L9:
1204:C:/Workspace/FW_Platform2_5/trunk/ProductModules/PM_FreqFeedbacks\PM_FrequencyFeedbacks.c ****     /*lint +e514*/
1205:C:/Workspace/FW_Platform2_5/trunk/ProductModules/PM_FreqFeedbacks\PM_FrequencyFeedbacks.c **** 
1206:C:/Workspace/FW_Platform2_5/trunk/ProductModules/PM_FreqFeedbacks\PM_FrequencyFeedbacks.c ****     /* Get last measure from OCPWD driver - all in nanoseconds! */
1207:C:/Workspace/FW_Platform2_5/trunk/ProductModules/PM_FreqFeedbacks\PM_FrequencyFeedbacks.c ****     OCPWD_GetAllSync( channel , &tmpMeasure);
 105                             		.loc 1 1207 0 is_stmt 1
 106 0030 CF A1                   		mov.B	r10, r1
 107 0032 EF 02                   		mov.L	r0, r2
 108 0034 05 00 00 00             		bsr	_OCPWD_GetAllSync
 109                             	.LVL13:
 110 0038 66 07                   		mov.L	#0, r7
 111                             	.LBB8:
 112                             	.LBB9:
1114:C:/Workspace/FW_Platform2_5/trunk/ProductModules/PM_FreqFeedbacks\PM_FrequencyFeedbacks.c **** 	for(inputindex = 0; inputindex < PM_FrequencyFeedbacks.number; inputindex ++)
 113                             		.loc 1 1114 0
 114 003a FB B2 00 00 00 00       		mov.L	#_PM_FrequencyFeedbacks, r11
1119:C:/Workspace/FW_Platform2_5/trunk/ProductModules/PM_FreqFeedbacks\PM_FrequencyFeedbacks.c **** 		if((PM_FrequencyFeedbacks.item[inputindex].tpmchannel == _TpmCh))
 115                             		.loc 1 1119 0
 116 0040 5B AC                   		movu.B	r10, r12
 117 0042 2E 2C                   		bra	.L10
 118                             	.LVL14:
 119                             	.L13:
1193:C:/Workspace/FW_Platform2_5/trunk/ProductModules/PM_FreqFeedbacks\PM_FrequencyFeedbacks.c **** static IO_ErrorType PM_FrequencyFeedbacks_PWDCallback ( IO_NotificationType notifVal, IO_ChannelTyp
 120                             		.loc 1 1193 0
 121 0044 EF 7E                   		mov.L	r7, r14
 122 0046 63 EE                   		mul	#14, r14
 123 0048 70 EE 00 00 00 00       		add	#_PM_FrequencyFeedbacks, r14
1117:C:/Workspace/FW_Platform2_5/trunk/ProductModules/PM_FreqFeedbacks\PM_FrequencyFeedbacks.c **** 		PLT_ERROR_FATAL_IF(((PM_FrequencyFeedbacks.item[inputindex].ID != PM_FREQUENCY_FEEDBACK_ID)), PM_
 124                             		.loc 1 1117 0
 125 004e 59 EE 15                		movu.B	21[r14], r14
 126 0051 61 4E                   		cmp	#4, r14
 127 0053 20 09                   		beq	.L11
 128 0055 75 41 4D                		mov.L	#0x4d, r1
 129 0058 05 00 00 00             		bsr	_LIB_Error_Fatal_Handler
 130                             	.LVL15:
 131                             		.balign 2,3,1
 132                             	.L11:
 133 005c 62 17                   		add	#1, r7
 134                             	.LVL16:
1193:C:/Workspace/FW_Platform2_5/trunk/ProductModules/PM_FreqFeedbacks\PM_FrequencyFeedbacks.c **** static IO_ErrorType PM_FrequencyFeedbacks_PWDCallback ( IO_NotificationType notifVal, IO_ChannelTyp
 135                             		.loc 1 1193 0
 136 005e EF 7E                   		mov.L	r7, r14
 137 0060 63 EE                   		mul	#14, r14
 138 0062 70 EE 00 00 00 00       		add	#_PM_FrequencyFeedbacks-5, r14
1119:C:/Workspace/FW_Platform2_5/trunk/ProductModules/PM_FreqFeedbacks\PM_FrequencyFeedbacks.c **** 		if((PM_FrequencyFeedbacks.item[inputindex].tpmchannel == _TpmCh))
 139                             		.loc 1 1119 0
 140 0068 58 EE                   		movu.B	[r14], r14
 141 006a 47 CE                   		cmp	r12, r14
 142 006c 20 0C                   		beq	.L12
 143                             	.LVL17:
 144                             		.balign 2,3,1
 145                             	.L10:
1114:C:/Workspace/FW_Platform2_5/trunk/ProductModules/PM_FreqFeedbacks\PM_FrequencyFeedbacks.c **** 	for(inputindex = 0; inputindex < PM_FrequencyFeedbacks.number; inputindex ++)
 146                             		.loc 1 1114 0
 147 006e 44 B7                   		cmp	[r11].UB, r7
 148 0070 CF 7A                   		mov.B	r7, r10
 149                             	.LVL18:
 150 0072 29 D2                   		blt	.L13
1127:C:/Workspace/FW_Platform2_5/trunk/ProductModules/PM_FreqFeedbacks\PM_FrequencyFeedbacks.c **** 		inputindex = -1;
 151                             		.loc 1 1127 0
 152 0074 FB A6 FF                		mov	#-1, r10
 153                             	.LVL19:
 154 0077 03                      		.balign 2,3,5
 155                             	.L12:
 156                             	.LBE9:
 157                             	.LBE8:
 158                             	.LBB10:
 159                             	.LBB11:
1208:C:/Workspace/FW_Platform2_5/trunk/ProductModules/PM_FreqFeedbacks\PM_FrequencyFeedbacks.c ****     /* */
1209:C:/Workspace/FW_Platform2_5/trunk/ProductModules/PM_FreqFeedbacks\PM_FrequencyFeedbacks.c ****     feedback = PM_FrequencyFeedbacks_GetIndexByTimerCh(channel);
1210:C:/Workspace/FW_Platform2_5/trunk/ProductModules/PM_FreqFeedbacks\PM_FrequencyFeedbacks.c ****     if(tmpMeasure.tOn >= PM_FrequencyFeedbacks_GetMaxTOnFilterValue())
1211:C:/Workspace/FW_Platform2_5/trunk/ProductModules/PM_FreqFeedbacks\PM_FrequencyFeedbacks.c **** 	{
1212:C:/Workspace/FW_Platform2_5/trunk/ProductModules/PM_FreqFeedbacks\PM_FrequencyFeedbacks.c ****     	if(tmpMeasure.period >= PM_FrequencyFeedbacks_GetMaxPeriodFilterValue ())
1213:C:/Workspace/FW_Platform2_5/trunk/ProductModules/PM_FreqFeedbacks\PM_FrequencyFeedbacks.c **** 		{
1214:C:/Workspace/FW_Platform2_5/trunk/ProductModules/PM_FreqFeedbacks\PM_FrequencyFeedbacks.c ****     		PM_FrequencyFeedbacks.item[feedback].maxperiod++;
1215:C:/Workspace/FW_Platform2_5/trunk/ProductModules/PM_FreqFeedbacks\PM_FrequencyFeedbacks.c **** 		}
1216:C:/Workspace/FW_Platform2_5/trunk/ProductModules/PM_FreqFeedbacks\PM_FrequencyFeedbacks.c **** 	}
1217:C:/Workspace/FW_Platform2_5/trunk/ProductModules/PM_FreqFeedbacks\PM_FrequencyFeedbacks.c **** 
1218:C:/Workspace/FW_Platform2_5/trunk/ProductModules/PM_FreqFeedbacks\PM_FrequencyFeedbacks.c ****     PM_FrequencyFeedbacks.item[feedback].status |= PM_FF_ITEM_STATUS_PERIODIC;
1219:C:/Workspace/FW_Platform2_5/trunk/ProductModules/PM_FreqFeedbacks\PM_FrequencyFeedbacks.c ****     return IO_E_OK;
1220:C:/Workspace/FW_Platform2_5/trunk/ProductModules/PM_FreqFeedbacks\PM_FrequencyFeedbacks.c **** }
1221:C:/Workspace/FW_Platform2_5/trunk/ProductModules/PM_FreqFeedbacks\PM_FrequencyFeedbacks.c **** 
1222:C:/Workspace/FW_Platform2_5/trunk/ProductModules/PM_FreqFeedbacks\PM_FrequencyFeedbacks.c **** /**
1223:C:/Workspace/FW_Platform2_5/trunk/ProductModules/PM_FreqFeedbacks\PM_FrequencyFeedbacks.c **** Returns maximum Ton value
1224:C:/Workspace/FW_Platform2_5/trunk/ProductModules/PM_FreqFeedbacks\PM_FrequencyFeedbacks.c **** 
1225:C:/Workspace/FW_Platform2_5/trunk/ProductModules/PM_FreqFeedbacks\PM_FrequencyFeedbacks.c **** \return	PM_FrequencyFeedbacks_TOnFilterType
1226:C:/Workspace/FW_Platform2_5/trunk/ProductModules/PM_FreqFeedbacks\PM_FrequencyFeedbacks.c **** 
1227:C:/Workspace/FW_Platform2_5/trunk/ProductModules/PM_FreqFeedbacks\PM_FrequencyFeedbacks.c **** \author 	Roberto Fioravanti
1228:C:/Workspace/FW_Platform2_5/trunk/ProductModules/PM_FreqFeedbacks\PM_FrequencyFeedbacks.c **** \date		12/06/2012
1229:C:/Workspace/FW_Platform2_5/trunk/ProductModules/PM_FreqFeedbacks\PM_FrequencyFeedbacks.c **** \version	1.0.0
1230:C:/Workspace/FW_Platform2_5/trunk/ProductModules/PM_FreqFeedbacks\PM_FrequencyFeedbacks.c **** 
1231:C:/Workspace/FW_Platform2_5/trunk/ProductModules/PM_FreqFeedbacks\PM_FrequencyFeedbacks.c **** 
1232:C:/Workspace/FW_Platform2_5/trunk/ProductModules/PM_FreqFeedbacks\PM_FrequencyFeedbacks.c **** 
1233:C:/Workspace/FW_Platform2_5/trunk/ProductModules/PM_FreqFeedbacks\PM_FrequencyFeedbacks.c **** \note		\par \b Note 1:
1234:C:/Workspace/FW_Platform2_5/trunk/ProductModules/PM_FreqFeedbacks\PM_FrequencyFeedbacks.c **** 			documentation by Roberto Fioravanti
1235:C:/Workspace/FW_Platform2_5/trunk/ProductModules/PM_FreqFeedbacks\PM_FrequencyFeedbacks.c **** */
1236:C:/Workspace/FW_Platform2_5/trunk/ProductModules/PM_FreqFeedbacks\PM_FrequencyFeedbacks.c **** static PM_FrequencyFeedbacks_TOnFilterType PM_FrequencyFeedbacks_GetMaxTOnFilterValue (void)
1237:C:/Workspace/FW_Platform2_5/trunk/ProductModules/PM_FreqFeedbacks\PM_FrequencyFeedbacks.c **** {
1238:C:/Workspace/FW_Platform2_5/trunk/ProductModules/PM_FreqFeedbacks\PM_FrequencyFeedbacks.c **** 	uint8_t findex = PM_FrequencyFeedbacks.gridfrequency;
 160                             		.loc 1 1238 0
 161 0078 FB 72 00 00 00 00       		mov.L	#_PM_FrequencyFeedbacks, r7
 162 007e 89 77                   		mov.B	4[r7], r7
 163                             	.LVL20:
 164                             	.LBE11:
 165                             	.LBE10:
1210:C:/Workspace/FW_Platform2_5/trunk/ProductModules/PM_FreqFeedbacks\PM_FrequencyFeedbacks.c ****     if(tmpMeasure.tOn >= PM_FrequencyFeedbacks_GetMaxTOnFilterValue())
 166                             		.loc 1 1210 0
 167 0080 ED 0B 01                		mov.L	4[r0], r11
 168                             	.LBB13:
 169                             	.LBB12:
1239:C:/Workspace/FW_Platform2_5/trunk/ProductModules/PM_FreqFeedbacks\PM_FrequencyFeedbacks.c **** 
1240:C:/Workspace/FW_Platform2_5/trunk/ProductModules/PM_FreqFeedbacks\PM_FrequencyFeedbacks.c **** 	if(findex > (sizeof(PM_FrequencyFeedbacks_TOnFilter)/sizeof(PM_FrequencyFeedbacks_TOnFilter[0])))
 170                             		.loc 1 1240 0
 171 0083 5B 7C                   		movu.B	r7, r12
 172                             	.LVL21:
 173 0085 61 2C                   		cmp	#2, r12
 174 0087 24 06                   		bgtu	.L17
 175 0089 CF 7E                   		mov.B	r7, r14
 176 008b 2E 05                   		bra	.L14
 177                             	.L17:
1241:C:/Workspace/FW_Platform2_5/trunk/ProductModules/PM_FreqFeedbacks\PM_FrequencyFeedbacks.c **** 	{
1242:C:/Workspace/FW_Platform2_5/trunk/ProductModules/PM_FreqFeedbacks\PM_FrequencyFeedbacks.c **** 		findex = 0;
 178                             		.loc 1 1242 0
 179 008d 66 0E                   		mov	#0, r14
 180 008f 03                      		.balign 2,3,1
 181                             	.L14:
 182                             	.LVL22:
1243:C:/Workspace/FW_Platform2_5/trunk/ProductModules/PM_FreqFeedbacks\PM_FrequencyFeedbacks.c **** 	}
1244:C:/Workspace/FW_Platform2_5/trunk/ProductModules/PM_FreqFeedbacks\PM_FrequencyFeedbacks.c **** 
1245:C:/Workspace/FW_Platform2_5/trunk/ProductModules/PM_FreqFeedbacks\PM_FrequencyFeedbacks.c **** 	return  PM_FrequencyFeedbacks_TOnFilter[findex];
 183                             		.loc 1 1245 0
 184 0090 5B EE                   		movu.B	r14, r14
 185 0092 6C 2E                   		shll	#2, r14
 186                             	.LVL23:
 187 0094 70 EE 00 00 00 00       		add	#_PM_FrequencyFeedbacks_TOnFilter, r14
 188                             	.LBE12:
 189                             	.LBE13:
1210:C:/Workspace/FW_Platform2_5/trunk/ProductModules/PM_FreqFeedbacks\PM_FrequencyFeedbacks.c ****     if(tmpMeasure.tOn >= PM_FrequencyFeedbacks_GetMaxTOnFilterValue())
 190                             		.loc 1 1210 0
 191 009a 06 84 EB                		cmp	[r14].L, r11
 192 009d 23 2F                   		bltu	.L15
 193                             	.LBB14:
 194                             	.LBB15:
1246:C:/Workspace/FW_Platform2_5/trunk/ProductModules/PM_FreqFeedbacks\PM_FrequencyFeedbacks.c **** 
1247:C:/Workspace/FW_Platform2_5/trunk/ProductModules/PM_FreqFeedbacks\PM_FrequencyFeedbacks.c **** }
1248:C:/Workspace/FW_Platform2_5/trunk/ProductModules/PM_FreqFeedbacks\PM_FrequencyFeedbacks.c **** /**
1249:C:/Workspace/FW_Platform2_5/trunk/ProductModules/PM_FreqFeedbacks\PM_FrequencyFeedbacks.c **** Returns maximum Period value
1250:C:/Workspace/FW_Platform2_5/trunk/ProductModules/PM_FreqFeedbacks\PM_FrequencyFeedbacks.c **** 
1251:C:/Workspace/FW_Platform2_5/trunk/ProductModules/PM_FreqFeedbacks\PM_FrequencyFeedbacks.c **** \return	PM_FrequencyFeedbacks_PeriodFilterType
1252:C:/Workspace/FW_Platform2_5/trunk/ProductModules/PM_FreqFeedbacks\PM_FrequencyFeedbacks.c **** 
1253:C:/Workspace/FW_Platform2_5/trunk/ProductModules/PM_FreqFeedbacks\PM_FrequencyFeedbacks.c **** \author 	Roberto Fioravanti
1254:C:/Workspace/FW_Platform2_5/trunk/ProductModules/PM_FreqFeedbacks\PM_FrequencyFeedbacks.c **** \date		12/06/2012
1255:C:/Workspace/FW_Platform2_5/trunk/ProductModules/PM_FreqFeedbacks\PM_FrequencyFeedbacks.c **** \version	1.0.0
1256:C:/Workspace/FW_Platform2_5/trunk/ProductModules/PM_FreqFeedbacks\PM_FrequencyFeedbacks.c **** 
1257:C:/Workspace/FW_Platform2_5/trunk/ProductModules/PM_FreqFeedbacks\PM_FrequencyFeedbacks.c **** 
1258:C:/Workspace/FW_Platform2_5/trunk/ProductModules/PM_FreqFeedbacks\PM_FrequencyFeedbacks.c **** 
1259:C:/Workspace/FW_Platform2_5/trunk/ProductModules/PM_FreqFeedbacks\PM_FrequencyFeedbacks.c **** \note		\par \b Note 1:
1260:C:/Workspace/FW_Platform2_5/trunk/ProductModules/PM_FreqFeedbacks\PM_FrequencyFeedbacks.c **** 			documentation by Roberto Fioravanti
1261:C:/Workspace/FW_Platform2_5/trunk/ProductModules/PM_FreqFeedbacks\PM_FrequencyFeedbacks.c **** */
1262:C:/Workspace/FW_Platform2_5/trunk/ProductModules/PM_FreqFeedbacks\PM_FrequencyFeedbacks.c **** static PM_FrequencyFeedbacks_PeriodFilterType PM_FrequencyFeedbacks_GetMaxPeriodFilterValue (void)
1263:C:/Workspace/FW_Platform2_5/trunk/ProductModules/PM_FreqFeedbacks\PM_FrequencyFeedbacks.c **** {
1264:C:/Workspace/FW_Platform2_5/trunk/ProductModules/PM_FreqFeedbacks\PM_FrequencyFeedbacks.c **** 	uint8_t findex = PM_FrequencyFeedbacks.gridfrequency;
1265:C:/Workspace/FW_Platform2_5/trunk/ProductModules/PM_FreqFeedbacks\PM_FrequencyFeedbacks.c **** 
1266:C:/Workspace/FW_Platform2_5/trunk/ProductModules/PM_FreqFeedbacks\PM_FrequencyFeedbacks.c **** 	if(findex > (sizeof(PM_FrequencyFeedbacks_PeriodFilter)/sizeof(PM_FrequencyFeedbacks_PeriodFilter[
 195                             		.loc 1 1266 0
 196 009f 5B 7C                   		movu.B	r7, r12
 197 00a1 61 2C                   		cmp	#2, r12
 198                             	.LBE15:
 199                             	.LBE14:
1212:C:/Workspace/FW_Platform2_5/trunk/ProductModules/PM_FreqFeedbacks\PM_FrequencyFeedbacks.c ****     	if(tmpMeasure.period >= PM_FrequencyFeedbacks_GetMaxPeriodFilterValue ())
 200                             		.loc 1 1212 0
 201 00a3 EC 0B                   		mov.L	[r0], r11
 202                             	.LVL24:
 203                             	.LBB17:
 204                             	.LBB16:
 205                             		.loc 1 1266 0
 206 00a5 25 05                   		bleu	.L16
1267:C:/Workspace/FW_Platform2_5/trunk/ProductModules/PM_FreqFeedbacks\PM_FrequencyFeedbacks.c **** 	{
1268:C:/Workspace/FW_Platform2_5/trunk/ProductModules/PM_FreqFeedbacks\PM_FrequencyFeedbacks.c **** 		findex = 0;
 207                             		.loc 1 1268 0
 208 00a7 66 07                   		mov	#0, r7
 209                             	.LVL25:
 210 00a9 03                      		.balign 2,3,1
 211                             	.L16:
1269:C:/Workspace/FW_Platform2_5/trunk/ProductModules/PM_FreqFeedbacks\PM_FrequencyFeedbacks.c **** 	}
1270:C:/Workspace/FW_Platform2_5/trunk/ProductModules/PM_FreqFeedbacks\PM_FrequencyFeedbacks.c **** 
1271:C:/Workspace/FW_Platform2_5/trunk/ProductModules/PM_FreqFeedbacks\PM_FrequencyFeedbacks.c **** 	return  PM_FrequencyFeedbacks_PeriodFilter[findex];
 212                             		.loc 1 1271 0
 213 00aa 5B 77                   		movu.B	r7, r7
 214                             	.LVL26:
 215 00ac 6C 27                   		shll	#2, r7
 216                             	.LVL27:
 217 00ae 70 77 00 00 00 00       		add	#_PM_FrequencyFeedbacks_PeriodFilter, r7
 218                             	.LBE16:
 219                             	.LBE17:
1212:C:/Workspace/FW_Platform2_5/trunk/ProductModules/PM_FreqFeedbacks\PM_FrequencyFeedbacks.c ****     	if(tmpMeasure.period >= PM_FrequencyFeedbacks_GetMaxPeriodFilterValue ())
 220                             		.loc 1 1212 0
 221 00b4 06 84 7B                		cmp	[r7].L, r11
 222 00b7 23 15                   		bltu	.L15
1214:C:/Workspace/FW_Platform2_5/trunk/ProductModules/PM_FreqFeedbacks\PM_FrequencyFeedbacks.c ****     		PM_FrequencyFeedbacks.item[feedback].maxperiod++;
 223                             		.loc 1 1214 0
 224 00b9 CF A7                   		mov.B	r10, r7
 225 00bb 63 E7                   		mul	#14, r7
 226 00bd 70 77 00 00 00 00       		add	#_PM_FrequencyFeedbacks, r7
 227 00c3 CD 7B 14                		mov.B	20[r7], r11
 228 00c6 62 1B                   		add	#1, r11
 229 00c8 C7 7B 14                		mov.B	r11, 20[r7]
 230 00cb 03                      		.balign 2,3,1
 231                             	.L15:
1218:C:/Workspace/FW_Platform2_5/trunk/ProductModules/PM_FreqFeedbacks\PM_FrequencyFeedbacks.c ****     PM_FrequencyFeedbacks.item[feedback].status |= PM_FF_ITEM_STATUS_PERIODIC;
 232                             		.loc 1 1218 0
 233 00cc CF AA                   		mov.B	r10, r10
 234 00ce 63 EA                   		mul	#14, r10
 235                             	.LVL28:
 236 00d0 70 AA 00 00 00 00       		add	#_PM_FrequencyFeedbacks+16, r10
 237 00d6 CD A7 03                		mov.B	3[r10], r7
1220:C:/Workspace/FW_Platform2_5/trunk/ProductModules/PM_FreqFeedbacks\PM_FrequencyFeedbacks.c **** }
 238                             		.loc 1 1220 0
 239 00d9 66 01                   		mov.L	#0, r1
1218:C:/Workspace/FW_Platform2_5/trunk/ProductModules/PM_FreqFeedbacks\PM_FrequencyFeedbacks.c ****     PM_FrequencyFeedbacks.item[feedback].status |= PM_FF_ITEM_STATUS_PERIODIC;
 240                             		.loc 1 1218 0
 241 00db 65 87                   		or	#8, r7
 242 00dd C7 A7 03                		mov.B	r7, 3[r10]
1220:C:/Workspace/FW_Platform2_5/trunk/ProductModules/PM_FreqFeedbacks\PM_FrequencyFeedbacks.c **** }
 243                             		.loc 1 1220 0
 244 00e0 3F 7C 08                		rtsd	#32, r7-r12
 245                             	.LFE20:
 247 00e3 03                      		.section	.text.PM_FrequencyFeedbacks_RestartFeedback,"ax",@progbits
 249                             	_PM_FrequencyFeedbacks_RestartFeedback:
 250                             	.LFB11:
 800:C:/Workspace/FW_Platform2_5/trunk/ProductModules/PM_FreqFeedbacks\PM_FrequencyFeedbacks.c **** {
 251                             		.loc 1 800 0
 252                             	.LVL29:
 253 0000 7E A7                   		push.l	r7
 254                             	.LCFI2:
 801:C:/Workspace/FW_Platform2_5/trunk/ProductModules/PM_FreqFeedbacks\PM_FrequencyFeedbacks.c **** 	PLT_ERROR_FATAL_IF(!((_pItem != NULL) && (_pItem->ID == PM_FREQUENCY_FEEDBACK_ID)), PM_FREQUENCY_F
 255                             		.loc 1 801 0
 256 0002 71 17 00                		add	#0, r1, r7
 257 0005 20 09                   		beq	.L30
 801:C:/Workspace/FW_Platform2_5/trunk/ProductModules/PM_FreqFeedbacks\PM_FrequencyFeedbacks.c **** 	PLT_ERROR_FATAL_IF(!((_pItem != NULL) && (_pItem->ID == PM_FREQUENCY_FEEDBACK_ID)), PM_FREQUENCY_F
 258                             		.loc 1 801 0 is_stmt 0 discriminator 2
 259 0007 59 7E 0D                		movu.B	13[r7], r14
 260 000a 61 4E                   		cmp	#4, r14
 261 000c 20 14                   		beq	.L31
 262                             		.balign 2,3,2
 263                             	.L30:
 801:C:/Workspace/FW_Platform2_5/trunk/ProductModules/PM_FreqFeedbacks\PM_FrequencyFeedbacks.c **** 	PLT_ERROR_FATAL_IF(!((_pItem != NULL) && (_pItem->ID == PM_FREQUENCY_FEEDBACK_ID)), PM_FREQUENCY_F
 264                             		.loc 1 801 0 discriminator 1
 265 000e 75 41 4D                		mov.L	#0x4d, r1
 266                             	.LVL30:
 267 0011 05 00 00 00             		bsr	_LIB_Error_Fatal_Handler
 268                             	.LVL31:
 269                             	.LBB22:
 270                             	.LBB23:
 823:C:/Workspace/FW_Platform2_5/trunk/ProductModules/PM_FreqFeedbacks\PM_FrequencyFeedbacks.c **** 	PLT_ERROR_FATAL_IF(((_pItem == NULL)), PM_FREQUENCY_FEEDBACKS_INVALIDFEEDBACKPNT_ERR)
 271                             		.loc 1 823 0 is_stmt 1 discriminator 1
 272 0015 61 07                   		cmp	#0, r7
 273 0017 21 09                   		bne	.L31
 823:C:/Workspace/FW_Platform2_5/trunk/ProductModules/PM_FreqFeedbacks\PM_FrequencyFeedbacks.c **** 	PLT_ERROR_FATAL_IF(((_pItem == NULL)), PM_FREQUENCY_FEEDBACKS_INVALIDFEEDBACKPNT_ERR)
 274                             		.loc 1 823 0 is_stmt 0
 275 0019 75 41 4D                		mov.L	#0x4d, r1
 276 001c 05 00 00 00             		bsr	_LIB_Error_Fatal_Handler
 277                             	.LVL32:
 278                             		.balign 2,3,5
 279                             	.L31:
 826:C:/Workspace/FW_Platform2_5/trunk/ProductModules/PM_FreqFeedbacks\PM_FrequencyFeedbacks.c **** 	_pItem->status &= ~(PM_FF_ITEM_STATUS_FREQ_READY);
 280                             		.loc 1 826 0 is_stmt 1
 281 0020 CD 7E 0B                		mov.B	11[r7], r14
 825:C:/Workspace/FW_Platform2_5/trunk/ProductModules/PM_FreqFeedbacks\PM_FrequencyFeedbacks.c **** 	_pItem->progress = 0;
 282                             		.loc 1 825 0
 283 0023 3C 78 00                		mov.B	#0, 8[r7]
 284                             	.LBE23:
 285                             	.LBE22:
 286                             	.LBB25:
 287                             	.LBB26:
 848:C:/Workspace/FW_Platform2_5/trunk/ProductModules/PM_FreqFeedbacks\PM_FrequencyFeedbacks.c **** 	_pItem->status &= ~(PM_FF_ITEM_STATUS_SAMPLES_READY);
 288                             		.loc 1 848 0
 289 0026 75 2E FA                		and	#-6, r14
 290 0029 C7 7E 0B                		mov.B	r14, 11[r7]
 851:C:/Workspace/FW_Platform2_5/trunk/ProductModules/PM_FreqFeedbacks\PM_FrequencyFeedbacks.c **** 	_pItem->control |= PM_FF_ITEM_CTRL_SAMPLE_ENABLED;
 291                             		.loc 1 851 0
 292 002c CD 7E 0A                		mov.B	10[r7], r14
 293                             	.LBE26:
 294                             	.LBE25:
 295                             	.LBB28:
 296                             	.LBB24:
 827:C:/Workspace/FW_Platform2_5/trunk/ProductModules/PM_FreqFeedbacks\PM_FrequencyFeedbacks.c **** 	_pItem->maxperiod = 0;
 297                             		.loc 1 827 0
 298 002f 3C 7C 00                		mov.B	#0, 12[r7]
 299                             	.LVL33:
 300                             	.LBE24:
 301                             	.LBE28:
 302                             	.LBB29:
 303                             	.LBB27:
 851:C:/Workspace/FW_Platform2_5/trunk/ProductModules/PM_FreqFeedbacks\PM_FrequencyFeedbacks.c **** 	_pItem->control |= PM_FF_ITEM_CTRL_SAMPLE_ENABLED;
 304                             		.loc 1 851 0
 305 0032 65 1E                   		or	#1, r14
 849:C:/Workspace/FW_Platform2_5/trunk/ProductModules/PM_FreqFeedbacks\PM_FrequencyFeedbacks.c **** 	_pItem->hlsamples = 0;
 306                             		.loc 1 849 0
 307 0034 3C 74 00                		mov.B	#0, 4[r7]
 850:C:/Workspace/FW_Platform2_5/trunk/ProductModules/PM_FreqFeedbacks\PM_FrequencyFeedbacks.c **** 	_pItem->samples = 0;
 308                             		.loc 1 850 0
 309 0037 3C 73 00                		mov.B	#0, 3[r7]
 851:C:/Workspace/FW_Platform2_5/trunk/ProductModules/PM_FreqFeedbacks\PM_FrequencyFeedbacks.c **** 	_pItem->control |= PM_FF_ITEM_CTRL_SAMPLE_ENABLED;
 310                             		.loc 1 851 0
 311 003a C7 7E 0A                		mov.B	r14, 10[r7]
 852:C:/Workspace/FW_Platform2_5/trunk/ProductModules/PM_FreqFeedbacks\PM_FrequencyFeedbacks.c **** 	_pItem->timetorestart = CONFIG_FREQUENCY_FEEDBACKS_MAX_DELAY_TO_RESTART_SAMPLING;
 312                             		.loc 1 852 0
 313 003d 3D 73 1E                		mov.W	#30, 6[r7]
 314                             	.LBE27:
 315                             	.LBE29:
 805:C:/Workspace/FW_Platform2_5/trunk/ProductModules/PM_FreqFeedbacks\PM_FrequencyFeedbacks.c **** }
 316                             		.loc 1 805 0
 317 0040 3F 77 01                		rtsd	#4, r7-r7
 318                             	.LFE11:
 320 0043 03                      		.section	.text.PM_FrequencyFeedbacks_Init,"ax",@progbits
 321                             		.global	_PM_FrequencyFeedbacks_Init
 323                             	_PM_FrequencyFeedbacks_Init:
 324                             	.LFB0:
 316:C:/Workspace/FW_Platform2_5/trunk/ProductModules/PM_FreqFeedbacks\PM_FrequencyFeedbacks.c **** {
 325                             		.loc 1 316 0
 326                             	.LVL34:
 323:C:/Workspace/FW_Platform2_5/trunk/ProductModules/PM_FreqFeedbacks\PM_FrequencyFeedbacks.c **** 	PM_FrequencyFeedbacks.number = 0;
 327                             		.loc 1 323 0
 328 0000 FB E2 00 00 00 00       		mov.L	#_PM_FrequencyFeedbacks, r14
 329 0006 F8 E4 00                		mov.B	#0, [r14]
 325:C:/Workspace/FW_Platform2_5/trunk/ProductModules/PM_FreqFeedbacks\PM_FrequencyFeedbacks.c **** 	PM_FrequencyFeedbacks.key = PM_FREQUENCY_FEEDBACKS_KEY;
 330                             		.loc 1 325 0
 331 0009 F9 E9 01 FB 04          		mov.W	#0x4fb, 2[r14]
 327:C:/Workspace/FW_Platform2_5/trunk/ProductModules/PM_FreqFeedbacks\PM_FrequencyFeedbacks.c **** 	PM_FrequencyFeedbacks.gridfrequency = NOM_FREQ_IS_UNDEFINED;
 332                             		.loc 1 327 0
 333 000e F9 E4 04 FF             		mov.B	#-1, 4[r14]
 329:C:/Workspace/FW_Platform2_5/trunk/ProductModules/PM_FreqFeedbacks\PM_FrequencyFeedbacks.c **** 	for(i=0; i<CONFIG_FREQUENCY_FEEDBACKS_MAX_ITEMS_NUMBER; i++)
 334                             		.loc 1 329 0
 335 0012 66 0E                   		mov.L	#0, r14
 336                             	.LVL35:
 337                             		.balign 2,3,1
 338                             	.L38:
 331:C:/Workspace/FW_Platform2_5/trunk/ProductModules/PM_FreqFeedbacks\PM_FrequencyFeedbacks.c **** 		memset(&(PM_FrequencyFeedbacks.item[i]), 0, sizeof(PM_FrequencyFeedbackType));
 339                             		.loc 1 331 0 discriminator 2
 340 0014 EF E4                   		mov.L	r14, r4
 341 0016 63 E4                   		mul	#14, r4
 342 0018 70 41 00 00 00 00       		add	#_PM_FrequencyFeedbacks+8, r4, r1
 343 001e 66 E3                   		mov.L	#14, r3
 344 0020 66 02                   		mov	#0, r2
 345 0022 7F 88                   		sstr.b
 315:C:/Workspace/FW_Platform2_5/trunk/ProductModules/PM_FreqFeedbacks\PM_FrequencyFeedbacks.c **** void PM_FrequencyFeedbacks_Init(void)
 346                             		.loc 1 315 0 discriminator 2
 347 0024 70 44 00 00 00 00       		add	#_PM_FrequencyFeedbacks, r4
 329:C:/Workspace/FW_Platform2_5/trunk/ProductModules/PM_FreqFeedbacks\PM_FrequencyFeedbacks.c **** 	for(i=0; i<CONFIG_FREQUENCY_FEEDBACKS_MAX_ITEMS_NUMBER; i++)
 348                             		.loc 1 329 0 discriminator 2
 349 002a 62 1E                   		add	#1, r14
 350                             	.LVL36:
 333:C:/Workspace/FW_Platform2_5/trunk/ProductModules/PM_FreqFeedbacks\PM_FrequencyFeedbacks.c **** 		PM_FrequencyFeedbacks.item[i].ID = ~PM_FREQUENCY_FEEDBACK_ID;
 351                             		.loc 1 333 0 discriminator 2
 352 002c F9 44 15 FB             		mov.B	#-5, 21[r4]
 329:C:/Workspace/FW_Platform2_5/trunk/ProductModules/PM_FreqFeedbacks\PM_FrequencyFeedbacks.c **** 	for(i=0; i<CONFIG_FREQUENCY_FEEDBACKS_MAX_ITEMS_NUMBER; i++)
 353                             		.loc 1 329 0 discriminator 2
 354 0030 61 4E                   		cmp	#4, r14
 355 0032 21 E2                   		bne	.L38
 337:C:/Workspace/FW_Platform2_5/trunk/ProductModules/PM_FreqFeedbacks\PM_FrequencyFeedbacks.c **** 	memset(&PM_FrequencyFeedbacks_Interface, 0, sizeof(PM_FrequencyFeedbacks_Interface));
 356                             		.loc 1 337 0
 357 0034 FB 42 00 00 00 00       		mov.L	#_PM_FrequencyFeedbacks_Interface, r4
 358 003a EF 41                   		mov.L	r4, r1
 359 003c 66 53                   		mov.L	#5, r3
 360 003e 7F 88                   		sstr.b
 361                             	.LVL37:
 342:C:/Workspace/FW_Platform2_5/trunk/ProductModules/PM_FreqFeedbacks\PM_FrequencyFeedbacks.c **** 		PM_FrequencyFeedbacks_Interface.feedback[i] = (PM_FrequencyFeedbacks_ValueType)PM_FREQUENCY_FEEDB
 362                             		.loc 1 342 0
 363 0040 C3 4E                   		mov.B	r14, [r4]
 364                             	.LVL38:
 365 0042 C7 4E 01                		mov.B	r14, 1[r4]
 366                             	.LVL39:
 367 0045 C7 4E 02                		mov.B	r14, 2[r4]
 368                             	.LVL40:
 369 0048 C7 4E 03                		mov.B	r14, 3[r4]
 370                             	.LVL41:
 371 004b 02                      		rts
 372                             	.LFE0:
 374                             		.section	.text.PM_FrequencyFeedbacks_Configure,"ax",@progbits
 375                             		.global	_PM_FrequencyFeedbacks_Configure
 377                             	_PM_FrequencyFeedbacks_Configure:
 378                             	.LFB1:
 362:C:/Workspace/FW_Platform2_5/trunk/ProductModules/PM_FreqFeedbacks\PM_FrequencyFeedbacks.c **** {
 379                             		.loc 1 362 0
 380                             	.LVL42:
 381 0000 6E 7D                   		pushm	r7-r13
 382                             	.LCFI3:
 376:C:/Workspace/FW_Platform2_5/trunk/ProductModules/PM_FreqFeedbacks\PM_FrequencyFeedbacks.c **** 	PLT_ERROR_FATAL_IF((PM_FrequencyFeedbacks.key != (PM_FrequencyFeedbacks_InitKeyType)PM_FREQUENCY_F
 383                             		.loc 1 376 0
 384 0002 FB C2 00 00 00 00       		mov.L	#_PM_FrequencyFeedbacks, r12
 385 0008 5D CD 01                		movu.W	2[r12], r13
 362:C:/Workspace/FW_Platform2_5/trunk/ProductModules/PM_FreqFeedbacks\PM_FrequencyFeedbacks.c **** {
 386                             		.loc 1 362 0
 387 000b 60 40                   		sub	#4, r0
 388                             	.LCFI4:
 364:C:/Workspace/FW_Platform2_5/trunk/ProductModules/PM_FreqFeedbacks\PM_FrequencyFeedbacks.c **** 	IO_ChannelType 	tpmCh	= 0xFF /* invalid */;
 389                             		.loc 1 364 0
 390 000d F9 04 02 FF             		mov.B	#-1, 2[r0]
 391                             	.LVL43:
 365:C:/Workspace/FW_Platform2_5/trunk/ProductModules/PM_FreqFeedbacks\PM_FrequencyFeedbacks.c **** 	IO_PWD_CfgType  pwdcfg	= {0,0};
 392                             		.loc 1 365 0
 393 0011 3D 00 00                		mov.W	#0, [r0]
 394                             	.LVL44:
 376:C:/Workspace/FW_Platform2_5/trunk/ProductModules/PM_FreqFeedbacks\PM_FrequencyFeedbacks.c **** 	PLT_ERROR_FATAL_IF((PM_FrequencyFeedbacks.key != (PM_FrequencyFeedbacks_InitKeyType)PM_FREQUENCY_F
 395                             		.loc 1 376 0
 396 0014 76 0D FB 04             		cmp	#0x4fb, r13
 362:C:/Workspace/FW_Platform2_5/trunk/ProductModules/PM_FreqFeedbacks\PM_FrequencyFeedbacks.c **** {
 397                             		.loc 1 362 0
 398 0018 CF 1A                   		mov.B	r1, r10
 399 001a EF 27                   		mov.L	r2, r7
 400 001c CF 3B                   		mov.B	r3, r11
 376:C:/Workspace/FW_Platform2_5/trunk/ProductModules/PM_FreqFeedbacks\PM_FrequencyFeedbacks.c **** 	PLT_ERROR_FATAL_IF((PM_FrequencyFeedbacks.key != (PM_FrequencyFeedbacks_InitKeyType)PM_FREQUENCY_F
 401                             		.loc 1 376 0
 402 001e 20 0A                   		beq	.L41
 376:C:/Workspace/FW_Platform2_5/trunk/ProductModules/PM_FreqFeedbacks\PM_FrequencyFeedbacks.c **** 	PLT_ERROR_FATAL_IF((PM_FrequencyFeedbacks.key != (PM_FrequencyFeedbacks_InitKeyType)PM_FREQUENCY_F
 403                             		.loc 1 376 0 is_stmt 0 discriminator 1
 404 0020 75 41 46                		mov.L	#0x46, r1
 405                             	.LVL45:
 406 0023 05 00 00 00             		bsr	_LIB_Error_Fatal_Handler
 407                             	.LVL46:
 408 0027 03                      		.balign 2,3,3
 409                             	.L41:
 380:C:/Workspace/FW_Platform2_5/trunk/ProductModules/PM_FreqFeedbacks\PM_FrequencyFeedbacks.c **** 	PLT_ERROR_FATAL_IF(!(PM_FrequencyFeedbacks.number < CONFIG_FREQUENCY_FEEDBACKS_MAX_ITEMS_NUMBER), 
 410                             		.loc 1 380 0 is_stmt 1
 411 0028 58 CC                   		movu.B	[r12], r12
 412 002a 61 3C                   		cmp	#3, r12
 413 002c 25 0A                   		bleu	.L42
 380:C:/Workspace/FW_Platform2_5/trunk/ProductModules/PM_FreqFeedbacks\PM_FrequencyFeedbacks.c **** 	PLT_ERROR_FATAL_IF(!(PM_FrequencyFeedbacks.number < CONFIG_FREQUENCY_FEEDBACKS_MAX_ITEMS_NUMBER), 
 414                             		.loc 1 380 0 is_stmt 0 discriminator 1
 415 002e 75 41 47                		mov.L	#0x47, r1
 416 0031 05 00 00 00             		bsr	_LIB_Error_Fatal_Handler
 417                             	.LVL47:
 418 0035 03                      		.balign 2,3,1
 419                             	.L42:
 383:C:/Workspace/FW_Platform2_5/trunk/ProductModules/PM_FreqFeedbacks\PM_FrequencyFeedbacks.c **** 	if(OCDIO_IsValidPin(_Pin) != ( IO_ErrorType )IO_E_OK)
 420                             		.loc 1 383 0 is_stmt 1
 421 0036 CF A1                   		mov.B	r10, r1
 422 0038 05 00 00 00             		bsr	_OCDIO_IsValidPin
 423                             	.LVL48:
 424 003c 5B 11                   		movu.B	r1, r1
 425 003e 61 01                   		cmp	#0, r1
 426 0040 3B C8 00                		bne	.L48
 388:C:/Workspace/FW_Platform2_5/trunk/ProductModules/PM_FreqFeedbacks\PM_FrequencyFeedbacks.c **** 	if (_CfgParams->bit.pullUp )
 427                             		.loc 1 388 0
 428 0043 DC 7C                   		mov.W	[r7], r12
 429 0045 75 2C 20                		and	#32, r12
 430 0048 5F CC                   		movu.W	r12, r12
 431 004a 61 0C                   		cmp	#0, r12
 432 004c 20 08                   		beq	.L44
 390:C:/Workspace/FW_Platform2_5/trunk/ProductModules/PM_FreqFeedbacks\PM_FrequencyFeedbacks.c **** 		(void)OCDIO_SetPinPullUpSync(_Pin);
 433                             		.loc 1 390 0
 434 004e CF A1                   		mov.B	r10, r1
 435 0050 05 00 00 00             		bsr	_OCDIO_SetPinPullUpSync
 436                             	.LVL49:
 437                             		.balign 2,3,5
 438                             	.L44:
 392:C:/Workspace/FW_Platform2_5/trunk/ProductModules/PM_FreqFeedbacks\PM_FrequencyFeedbacks.c **** 	activeSense = ((_CfgParams->bit.inverted)?1:0);
 439                             		.loc 1 392 0
 440 0054 DC 71                   		mov.W	[r7], r1
 393:C:/Workspace/FW_Platform2_5/trunk/ProductModules/PM_FreqFeedbacks\PM_FrequencyFeedbacks.c **** 	LIB_IOM_Set_IODir_ActiveSense(activeSense,_Pin);
 441                             		.loc 1 393 0
 442 0056 CF A2                   		mov.B	r10, r2
 392:C:/Workspace/FW_Platform2_5/trunk/ProductModules/PM_FreqFeedbacks\PM_FrequencyFeedbacks.c **** 	activeSense = ((_CfgParams->bit.inverted)?1:0);
 443                             		.loc 1 392 0
 444 0058 6A 71                   		shar	#7, r1
 393:C:/Workspace/FW_Platform2_5/trunk/ProductModules/PM_FreqFeedbacks\PM_FrequencyFeedbacks.c **** 	LIB_IOM_Set_IODir_ActiveSense(activeSense,_Pin);
 445                             		.loc 1 393 0
 446 005a 64 11                   		and	#1, r1
 447 005c 05 00 00 00             		bsr	_LIB_IOM_Set_IODir_ActiveSense
 448                             	.LVL50:
 396:C:/Workspace/FW_Platform2_5/trunk/ProductModules/PM_FreqFeedbacks\PM_FrequencyFeedbacks.c **** 	if ( OCTPM_GetChannelSync ( OCDIO_GetIOMapItem(_Pin), &tpmCh ) != ( IO_ErrorType ) IO_E_OK )
 449                             		.loc 1 396 0
 450 0060 CF A1                   		mov.B	r10, r1
 451 0062 05 00 00 00             		bsr	_OCDIO_GetIOMapItem
 452                             	.LVL51:
 453 0066 71 02 02                		add	#2, r0, r2
 454 0069 05 00 00 00             		bsr	_OCTPM_GetChannelSync
 455                             	.LVL52:
 456 006d 5B 11                   		movu.B	r1, r1
 457 006f 61 01                   		cmp	#0, r1
 458 0071 20 07                   		beq	.L45
 398:C:/Workspace/FW_Platform2_5/trunk/ProductModules/PM_FreqFeedbacks\PM_FrequencyFeedbacks.c **** 		PLT_ERROR_FATAL(PM_FREQUENCY_FEEDBACKS_CANNOTRETRIEVETPMCH_ERR);
 459                             		.loc 1 398 0
 460 0073 75 41 48                		mov.L	#0x48, r1
 461 0076 2E 1A                   		bra	.L57
 462                             	.L45:
 403:C:/Workspace/FW_Platform2_5/trunk/ProductModules/PM_FreqFeedbacks\PM_FrequencyFeedbacks.c **** 	samples = 1<<(*((uint8_t*)_CfgParams) & 0x7F);
 463                             		.loc 1 403 0
 464 0078 CC 7C                   		mov.B	[r7], r12
 465 007a 66 17                   		mov.L	#1, r7
 466                             	.LVL53:
 467 007c 75 2C 7F                		and	#0x7f, r12
 468 007f FD 62 C7                		shll	r12, r7
 469 0082 CF 7D                   		mov.B	r7, r13
 470                             	.LVL54:
 404:C:/Workspace/FW_Platform2_5/trunk/ProductModules/PM_FreqFeedbacks\PM_FrequencyFeedbacks.c **** 	if ( (samples > 16) || (samples == 0))
 471                             		.loc 1 404 0
 472 0084 60 17                   		sub	#1, r7
 473                             	.LVL55:
 474 0086 5B 77                   		movu.B	r7, r7
 475 0088 61 F7                   		cmp	#15, r7
 476 008a 25 0C                   		bleu	.L46
 406:C:/Workspace/FW_Platform2_5/trunk/ProductModules/PM_FreqFeedbacks\PM_FrequencyFeedbacks.c **** 		PLT_ERROR_FATAL(PM_FREQUENCY_FEEDBACKS_EXCEEDINGMAXSAMPLE_ERR);
 477                             		.loc 1 406 0
 478 008c 75 41 4A                		mov.L	#0x4a, r1
 479                             	.LVL56:
 480 008f 03                      		.balign 2,3,3
 481                             	.L57:
 482 0090 05 00 00 00             		bsr	_LIB_Error_Fatal_Handler
 483                             	.LVL57:
 484 0094 2E 74                   		bra	.L48
 485                             	.LVL58:
 486                             	.L46:
 411:C:/Workspace/FW_Platform2_5/trunk/ProductModules/PM_FreqFeedbacks\PM_FrequencyFeedbacks.c **** 	PLT_ERROR_FATAL_IF(!(_Position <= (sizeof(PM_FrequencyFeedbacks_BitmapType)*8-1)), PM_FREQUENCY_FE
 487                             		.loc 1 411 0
 488 0096 5B BC                   		movu.B	r11, r12
 489 0098 61 7C                   		cmp	#7, r12
 490 009a 25 0A                   		bleu	.L47
 411:C:/Workspace/FW_Platform2_5/trunk/ProductModules/PM_FreqFeedbacks\PM_FrequencyFeedbacks.c **** 	PLT_ERROR_FATAL_IF(!(_Position <= (sizeof(PM_FrequencyFeedbacks_BitmapType)*8-1)), PM_FREQUENCY_FE
 491                             		.loc 1 411 0 is_stmt 0 discriminator 1
 492 009c 75 41 4B                		mov.L	#0x4b, r1
 493 009f 05 00 00 00             		bsr	_LIB_Error_Fatal_Handler
 494                             	.LVL59:
 495 00a3 03                      		.balign 2,3,5
 496                             	.L47:
 415:C:/Workspace/FW_Platform2_5/trunk/ProductModules/PM_FreqFeedbacks\PM_FrequencyFeedbacks.c **** 	PM_FrequencyFeedbacks.positionmask |= (PM_FrequencyFeedbacks_BitmapType)(1<<_Position);
 497                             		.loc 1 415 0 is_stmt 1
 498 00a4 FB 72 00 00 00 00       		mov.L	#_PM_FrequencyFeedbacks, r7
 499 00aa CD 7E 07                		mov.B	7[r7], r14
 500 00ad EF E4                   		mov.L	r14, r4
 417:C:/Workspace/FW_Platform2_5/trunk/ProductModules/PM_FreqFeedbacks\PM_FrequencyFeedbacks.c **** 	PM_FrequencyFeedbacks_Populate(&PM_FrequencyFeedbacks.item[PM_FrequencyFeedbacks.number], _Pin, tp
 501                             		.loc 1 417 0
 502 00af 58 7E                   		movu.B	[r7], r14
 415:C:/Workspace/FW_Platform2_5/trunk/ProductModules/PM_FreqFeedbacks\PM_FrequencyFeedbacks.c **** 	PM_FrequencyFeedbacks.positionmask |= (PM_FrequencyFeedbacks_BitmapType)(1<<_Position);
 503                             		.loc 1 415 0
 504 00b1 FC 63 4C                		bset	r12, r4
 417:C:/Workspace/FW_Platform2_5/trunk/ProductModules/PM_FreqFeedbacks\PM_FrequencyFeedbacks.c **** 	PM_FrequencyFeedbacks_Populate(&PM_FrequencyFeedbacks.item[PM_FrequencyFeedbacks.number], _Pin, tp
 505                             		.loc 1 417 0
 506 00b4 63 EE                   		mul	#14, r14
 507 00b6 70 EE 00 00 00 00       		add	#_PM_FrequencyFeedbacks+8, r14
 508                             	.LVL60:
 415:C:/Workspace/FW_Platform2_5/trunk/ProductModules/PM_FreqFeedbacks\PM_FrequencyFeedbacks.c **** 	PM_FrequencyFeedbacks.positionmask |= (PM_FrequencyFeedbacks_BitmapType)(1<<_Position);
 509                             		.loc 1 415 0
 510 00bc 81 FC                   		mov.B	r4, 7[r7]
 511                             	.LBB32:
 512                             	.LBB33:
1087:C:/Workspace/FW_Platform2_5/trunk/ProductModules/PM_FreqFeedbacks\PM_FrequencyFeedbacks.c **** 	_pFrequencyFeedback->pin = _Pin;
 513                             		.loc 1 1087 0
 514 00be C3 EA                   		mov.B	r10, [r14]
 515                             	.LBE33:
 516                             	.LBE32:
 419:C:/Workspace/FW_Platform2_5/trunk/ProductModules/PM_FreqFeedbacks\PM_FrequencyFeedbacks.c **** 	PM_FrequencyFeedbacks_RestartFeedback(&PM_FrequencyFeedbacks.item[PM_FrequencyFeedbacks.number]);
 517                             		.loc 1 419 0
 518 00c0 58 71                   		movu.B	[r7], r1
 519                             	.LBB36:
 520                             	.LBB34:
1085:C:/Workspace/FW_Platform2_5/trunk/ProductModules/PM_FreqFeedbacks\PM_FrequencyFeedbacks.c **** 	_pFrequencyFeedback->tpmchannel= _TpmCh;
 521                             		.loc 1 1085 0
 522 00c2 CD 0C 02                		mov.B	2[r0], r12
 523                             	.LBE34:
 524                             	.LBE36:
 419:C:/Workspace/FW_Platform2_5/trunk/ProductModules/PM_FreqFeedbacks\PM_FrequencyFeedbacks.c **** 	PM_FrequencyFeedbacks_RestartFeedback(&PM_FrequencyFeedbacks.item[PM_FrequencyFeedbacks.number]);
 525                             		.loc 1 419 0
 526 00c5 63 E1                   		mul	#14, r1
 527 00c7 70 11 00 00 00 00       		add	#_PM_FrequencyFeedbacks+8, r1
 528                             	.LBB37:
 529                             	.LBB35:
1085:C:/Workspace/FW_Platform2_5/trunk/ProductModules/PM_FreqFeedbacks\PM_FrequencyFeedbacks.c **** 	_pFrequencyFeedback->tpmchannel= _TpmCh;
 530                             		.loc 1 1085 0
 531 00cd C7 EC 01                		mov.B	r12, 1[r14]
1086:C:/Workspace/FW_Platform2_5/trunk/ProductModules/PM_FreqFeedbacks\PM_FrequencyFeedbacks.c **** 	_pFrequencyFeedback->requested_samples = _Samples;
 532                             		.loc 1 1086 0
 533 00d0 C7 ED 02                		mov.B	r13, 2[r14]
1088:C:/Workspace/FW_Platform2_5/trunk/ProductModules/PM_FreqFeedbacks\PM_FrequencyFeedbacks.c **** 	_pFrequencyFeedback->timetorestart = CONFIG_FREQUENCY_FEEDBACKS_MAX_DELAY_TO_RESTART_SAMPLING;
 534                             		.loc 1 1088 0
 535 00d3 F9 E5 03 1E             		mov.W	#30, 6[r14]
1089:C:/Workspace/FW_Platform2_5/trunk/ProductModules/PM_FreqFeedbacks\PM_FrequencyFeedbacks.c **** 	_pFrequencyFeedback->position = _Position;
 536                             		.loc 1 1089 0
 537 00d7 C7 EB 09                		mov.B	r11, 9[r14]
1090:C:/Workspace/FW_Platform2_5/trunk/ProductModules/PM_FreqFeedbacks\PM_FrequencyFeedbacks.c **** 	_pFrequencyFeedback->ID=PM_FREQUENCY_FEEDBACK_ID;
 538                             		.loc 1 1090 0
 539 00da F9 E4 0D 04             		mov.B	#4, 13[r14]
 540                             	.LBE35:
 541                             	.LBE37:
 419:C:/Workspace/FW_Platform2_5/trunk/ProductModules/PM_FreqFeedbacks\PM_FrequencyFeedbacks.c **** 	PM_FrequencyFeedbacks_RestartFeedback(&PM_FrequencyFeedbacks.item[PM_FrequencyFeedbacks.number]);
 542                             		.loc 1 419 0
 543 00de 05 00 00 00             		bsr	_PM_FrequencyFeedbacks_RestartFeedback
 544                             	.LVL61:
 421:C:/Workspace/FW_Platform2_5/trunk/ProductModules/PM_FreqFeedbacks\PM_FrequencyFeedbacks.c **** 	pwdcfg.PWD_Id = tpmCh;
 545                             		.loc 1 421 0
 546 00e2 88 84                   		mov.B	2[r0], r4
 425:C:/Workspace/FW_Platform2_5/trunk/ProductModules/PM_FreqFeedbacks\PM_FrequencyFeedbacks.c **** 	if ( OCPWD_InitSync ( &pwdcfg ) == ( IO_ErrorType ) IO_E_OK )
 547                             		.loc 1 425 0
 548 00e4 EF 01                   		mov.L	r0, r1
 421:C:/Workspace/FW_Platform2_5/trunk/ProductModules/PM_FreqFeedbacks\PM_FrequencyFeedbacks.c **** 	pwdcfg.PWD_Id = tpmCh;
 549                             		.loc 1 421 0
 550 00e6 C3 04                   		mov.B	r4, [r0]
 425:C:/Workspace/FW_Platform2_5/trunk/ProductModules/PM_FreqFeedbacks\PM_FrequencyFeedbacks.c **** 	if ( OCPWD_InitSync ( &pwdcfg ) == ( IO_ErrorType ) IO_E_OK )
 551                             		.loc 1 425 0
 552 00e8 05 00 00 00             		bsr	_OCPWD_InitSync
 553                             	.LVL62:
 554 00ec 5B 1A                   		movu.B	r1, r10
 555                             	.LVL63:
 556 00ee 61 0A                   		cmp	#0, r10
 557 00f0 21 1D                   		bne	.L49
 427:C:/Workspace/FW_Platform2_5/trunk/ProductModules/PM_FreqFeedbacks\PM_FrequencyFeedbacks.c **** 		PM_FrequencyFeedbacks.number++;
 558                             		.loc 1 427 0
 559 00f2 CC 7B                   		mov.B	[r7], r11
 560                             	.LVL64:
 429:C:/Workspace/FW_Platform2_5/trunk/ProductModules/PM_FreqFeedbacks\PM_FrequencyFeedbacks.c **** 		OCPWD_StartSampleSync ( pwdcfg.PWD_Id, PM_FrequencyFeedbacks_PWDCallback );
 561                             		.loc 1 429 0
 562 00f4 CC 01                   		mov.B	[r0], r1
 427:C:/Workspace/FW_Platform2_5/trunk/ProductModules/PM_FreqFeedbacks\PM_FrequencyFeedbacks.c **** 		PM_FrequencyFeedbacks.number++;
 563                             		.loc 1 427 0
 564 00f6 62 1B                   		add	#1, r11
 429:C:/Workspace/FW_Platform2_5/trunk/ProductModules/PM_FreqFeedbacks\PM_FrequencyFeedbacks.c **** 		OCPWD_StartSampleSync ( pwdcfg.PWD_Id, PM_FrequencyFeedbacks_PWDCallback );
 565                             		.loc 1 429 0
 566 00f8 FB 22 00 00 00 00       		mov.L	#_PM_FrequencyFeedbacks_PWDCallback, r2
 427:C:/Workspace/FW_Platform2_5/trunk/ProductModules/PM_FreqFeedbacks\PM_FrequencyFeedbacks.c **** 		PM_FrequencyFeedbacks.number++;
 567                             		.loc 1 427 0
 568 00fe C3 7B                   		mov.B	r11, [r7]
 429:C:/Workspace/FW_Platform2_5/trunk/ProductModules/PM_FreqFeedbacks\PM_FrequencyFeedbacks.c **** 		OCPWD_StartSampleSync ( pwdcfg.PWD_Id, PM_FrequencyFeedbacks_PWDCallback );
 569                             		.loc 1 429 0
 570 0100 05 00 00 00             		bsr	_OCPWD_StartSampleSync
 571                             	.LVL65:
 431:C:/Workspace/FW_Platform2_5/trunk/ProductModules/PM_FreqFeedbacks\PM_FrequencyFeedbacks.c **** 		result = IO_E_OK;
 572                             		.loc 1 431 0
 573 0104 CF A1                   		mov.B	r10, r1
 574 0106 2E 0A                   		bra	.L43
 575                             	.LVL66:
 576                             	.L48:
 385:C:/Workspace/FW_Platform2_5/trunk/ProductModules/PM_FreqFeedbacks\PM_FrequencyFeedbacks.c **** 		return IO_E_FAIL;
 577                             		.loc 1 385 0
 578 0108 75 41 1A                		mov	#26, r1
 579 010b 2E 05                   		bra	.L43
 580                             	.LVL67:
 581                             	.L49:
 363:C:/Workspace/FW_Platform2_5/trunk/ProductModules/PM_FreqFeedbacks\PM_FrequencyFeedbacks.c **** 	IO_ErrorType 	result 	= IO_E_INVALID_CHANNEL_ID;
 582                             		.loc 1 363 0
 583 010d 75 41 12                		mov	#18, r1
 584                             	.LVL68:
 585                             		.balign 2,3,1
 586                             	.L43:
 438:C:/Workspace/FW_Platform2_5/trunk/ProductModules/PM_FreqFeedbacks\PM_FrequencyFeedbacks.c **** }
 587                             		.loc 1 438 0
 588 0110 5B 11                   		movu.B	r1, r1
 589 0112 3F 7D 08                		rtsd	#32, r7-r13
 590                             	.LFE1:
 592 0115 03                      		.section	.text.PM_FrequencyFeedbacks_ResetAllFeedbacks,"ax",@progbits
 593                             		.global	_PM_FrequencyFeedbacks_ResetAllFeedbacks
 595                             	_PM_FrequencyFeedbacks_ResetAllFeedbacks:
 596                             	.LFB2:
 459:C:/Workspace/FW_Platform2_5/trunk/ProductModules/PM_FreqFeedbacks\PM_FrequencyFeedbacks.c **** {
 597                             		.loc 1 459 0
 598                             	.LVL69:
 599 0000 6E 7A                   		pushm	r7-r10
 600                             	.LCFI5:
 461:C:/Workspace/FW_Platform2_5/trunk/ProductModules/PM_FreqFeedbacks\PM_FrequencyFeedbacks.c **** 	for(inputindex = 0; inputindex < PM_FrequencyFeedbacks.number; inputindex ++)
 601                             		.loc 1 461 0
 602 0002 66 07                   		mov.L	#0, r7
 603 0004 FB A2 00 00 00 00       		mov.L	#_PM_FrequencyFeedbacks, r10
 604 000a 2E 0E                   		bra	.L59
 605                             	.LVL70:
 606                             	.L60:
 463:C:/Workspace/FW_Platform2_5/trunk/ProductModules/PM_FreqFeedbacks\PM_FrequencyFeedbacks.c **** 		PM_FrequencyFeedbacks_RestartFeedback(&PM_FrequencyFeedbacks.item[inputindex]);
 607                             		.loc 1 463 0 discriminator 2
 608 000c 63 E1                   		mul	#14, r1
 609 000e 70 11 00 00 00 00       		add	#_PM_FrequencyFeedbacks+8, r1
 610 0014 05 00 00 00             		bsr	_PM_FrequencyFeedbacks_RestartFeedback
 611                             	.LVL71:
 612                             		.balign 2,3,1
 613                             	.L59:
 461:C:/Workspace/FW_Platform2_5/trunk/ProductModules/PM_FreqFeedbacks\PM_FrequencyFeedbacks.c **** 	for(inputindex = 0; inputindex < PM_FrequencyFeedbacks.number; inputindex ++)
 614                             		.loc 1 461 0 discriminator 1
 615 0018 EF 71                   		mov.L	r7, r1
 616 001a 62 17                   		add	#1, r7
 617 001c 44 A1                   		cmp	[r10].UB, r1
 618 001e 29 EE                   		blt	.L60
 465:C:/Workspace/FW_Platform2_5/trunk/ProductModules/PM_FreqFeedbacks\PM_FrequencyFeedbacks.c **** }
 619                             		.loc 1 465 0
 620 0020 3F 7A 04                		rtsd	#16, r7-r10
 621                             	.LFE2:
 623 0023 03                      		.section	.text.PM_FrequencyFeedbacks_RestartFeedbackByPosition,"ax",@progbits
 624                             		.global	_PM_FrequencyFeedbacks_RestartFeedbackByPosition
 626                             	_PM_FrequencyFeedbacks_RestartFeedbackByPosition:
 627                             	.LFB3:
 489:C:/Workspace/FW_Platform2_5/trunk/ProductModules/PM_FreqFeedbacks\PM_FrequencyFeedbacks.c **** {
 628                             		.loc 1 489 0
 629                             	.LVL72:
 630 0000 6E 7D                   		pushm	r7-r13
 631                             	.LCFI6:
 494:C:/Workspace/FW_Platform2_5/trunk/ProductModules/PM_FreqFeedbacks\PM_FrequencyFeedbacks.c **** 	if(_Position >= CONFIG_FREQUENCY_FEEDBACKS_MAX_ITEMS_NUMBER)
 632                             		.loc 1 494 0
 633 0002 5B 17                   		movu.B	r1, r7
 634 0004 61 37                   		cmp	#3, r7
 635 0006 25 0F                   		bleu	.L63
 496:C:/Workspace/FW_Platform2_5/trunk/ProductModules/PM_FreqFeedbacks\PM_FrequencyFeedbacks.c **** 		PLT_ERROR_WARNING(PM_FREQUENCY_FEEDBACKS_INVALIDPOSITION_ERR);
 636                             		.loc 1 496 0
 637 0008 75 41 4B                		mov.L	#0x4b, r1
 638                             	.LVL73:
 639 000b 05 00 00 00             		bsr	_LIB_Error_Warning_Handler
 640                             	.LVL74:
 497:C:/Workspace/FW_Platform2_5/trunk/ProductModules/PM_FreqFeedbacks\PM_FrequencyFeedbacks.c **** 		return IO_E_INVALID_POSITION;
 641                             		.loc 1 497 0
 642 000f 75 47 15                		mov	#21, r7
 643                             	.LVL75:
 644 0012 38 8C 00                		bra	.L64
 645                             	.LVL76:
 646                             	.L63:
 500:C:/Workspace/FW_Platform2_5/trunk/ProductModules/PM_FreqFeedbacks\PM_FrequencyFeedbacks.c **** 	findex = PM_FrequencyFeedbacks_GetIndexByPosition(_Position);
 647                             		.loc 1 500 0
 648 0015 05 00 00 00             		bsr	_PM_FrequencyFeedbacks_GetIndexByPosition
 649                             	.LVL77:
 502:C:/Workspace/FW_Platform2_5/trunk/ProductModules/PM_FreqFeedbacks\PM_FrequencyFeedbacks.c **** 	if(!((findex >= 0) && (findex < PM_FrequencyFeedbacks.number)))
 650                             		.loc 1 502 0
 651 0019 CF 11                   		mov.B	r1, r1
 652 001b 61 01                   		cmp	#0, r1
 653 001d 29 0D                   		blt	.L65
 502:C:/Workspace/FW_Platform2_5/trunk/ProductModules/PM_FreqFeedbacks\PM_FrequencyFeedbacks.c **** 	if(!((findex >= 0) && (findex < PM_FrequencyFeedbacks.number)))
 654                             		.loc 1 502 0 is_stmt 0 discriminator 1
 655 001f FB A2 00 00 00 00       		mov.L	#_PM_FrequencyFeedbacks, r10
 656 0025 44 A1                   		cmp	[r10].UB, r1
 657 0027 29 0F                   		blt	.L66
 658 0029 03                      		.balign 2,3,2
 659                             	.L65:
 504:C:/Workspace/FW_Platform2_5/trunk/ProductModules/PM_FreqFeedbacks\PM_FrequencyFeedbacks.c **** 		PLT_ERROR_WARNING(PM_FREQUENCY_FEEDBACKS_INVALIDINDEXRETRIEVED_ERR);
 660                             		.loc 1 504 0 is_stmt 1
 661 002a 75 41 4C                		mov.L	#0x4c, r1
 662                             	.LVL78:
 663 002d 05 00 00 00             		bsr	_LIB_Error_Warning_Handler
 664                             	.LVL79:
 505:C:/Workspace/FW_Platform2_5/trunk/ProductModules/PM_FreqFeedbacks\PM_FrequencyFeedbacks.c **** 		return IO_E_UNEXPECTED_CONDITION;
 665                             		.loc 1 505 0
 666 0031 75 47 17                		mov	#23, r7
 667                             	.LVL80:
 668 0034 2E 6A                   		bra	.L64
 669                             	.LVL81:
 670                             	.L66:
 510:C:/Workspace/FW_Platform2_5/trunk/ProductModules/PM_FreqFeedbacks\PM_FrequencyFeedbacks.c **** 	pwdcfg.PWD_Id = PM_FrequencyFeedbacks.item[findex].tpmchannel;
 671                             		.loc 1 510 0
 672 0036 EF 1C                   		mov.L	r1, r12
 673 0038 63 EC                   		mul	#14, r12
 674 003a 70 CD 00 00 00 00       		add	#_PM_FrequencyFeedbacks, r12, r13
 675 0040 CD DB 09                		mov.B	9[r13], r11
 676                             	.LVL82:
 511:C:/Workspace/FW_Platform2_5/trunk/ProductModules/PM_FreqFeedbacks\PM_FrequencyFeedbacks.c **** 	retVal = OCPWD_StopSampleSync ( pwdcfg.PWD_Id );
 677                             		.loc 1 511 0
 678 0043 CF B1                   		mov.B	r11, r1
 679                             	.LVL83:
 680 0045 05 00 00 00             		bsr	_OCPWD_StopSampleSync
 681                             	.LVL84:
 513:C:/Workspace/FW_Platform2_5/trunk/ProductModules/PM_FreqFeedbacks\PM_FrequencyFeedbacks.c **** 	if( IO_E_OK == retVal)
 682                             		.loc 1 513 0
 683 0049 5B 1E                   		movu.B	r1, r14
 684 004b 61 0E                   		cmp	#0, r14
 511:C:/Workspace/FW_Platform2_5/trunk/ProductModules/PM_FreqFeedbacks\PM_FrequencyFeedbacks.c **** 	retVal = OCPWD_StopSampleSync ( pwdcfg.PWD_Id );
 685                             		.loc 1 511 0
 686 004d CF 17                   		mov.B	r1, r7
 687                             	.LVL85:
 513:C:/Workspace/FW_Platform2_5/trunk/ProductModules/PM_FreqFeedbacks\PM_FrequencyFeedbacks.c **** 	if( IO_E_OK == retVal)
 688                             		.loc 1 513 0
 689 004f 21 47                   		bne	.L67
 516:C:/Workspace/FW_Platform2_5/trunk/ProductModules/PM_FreqFeedbacks\PM_FrequencyFeedbacks.c **** 		PM_FrequencyFeedbacks.item[findex].control |= (PM_FF_ITEM_CTRL_UNAVAILABLE);
 690                             		.loc 1 516 0
 691 0051 CD DD 12                		mov.B	18[r13], r13
 692 0054 70 C7 00 00 00 00       		add	#_PM_FrequencyFeedbacks+16, r12, r7
 693 005a 65 2D                   		or	#2, r13
 518:C:/Workspace/FW_Platform2_5/trunk/ProductModules/PM_FreqFeedbacks\PM_FrequencyFeedbacks.c **** 		PM_FrequencyFeedbacks_RestartFeedback(&PM_FrequencyFeedbacks.item[findex]);
 694                             		.loc 1 518 0
 695 005c 70 C1 00 00 00 00       		add	#_PM_FrequencyFeedbacks+8, r12, r1
 696                             	.LVL86:
 516:C:/Workspace/FW_Platform2_5/trunk/ProductModules/PM_FreqFeedbacks\PM_FrequencyFeedbacks.c **** 		PM_FrequencyFeedbacks.item[findex].control |= (PM_FF_ITEM_CTRL_UNAVAILABLE);
 697                             		.loc 1 516 0
 698 0062 C7 7D 02                		mov.B	r13, 2[r7]
 518:C:/Workspace/FW_Platform2_5/trunk/ProductModules/PM_FreqFeedbacks\PM_FrequencyFeedbacks.c **** 		PM_FrequencyFeedbacks_RestartFeedback(&PM_FrequencyFeedbacks.item[findex]);
 699                             		.loc 1 518 0
 700 0065 05 00 00 00             		bsr	_PM_FrequencyFeedbacks_RestartFeedback
 701                             	.LVL87:
 519:C:/Workspace/FW_Platform2_5/trunk/ProductModules/PM_FreqFeedbacks\PM_FrequencyFeedbacks.c **** 		PM_FrequencyFeedbacks.item[findex].control &= ~(PM_FF_ITEM_CTRL_UNAVAILABLE);
 702                             		.loc 1 519 0
 703 0069 CD 7C 02                		mov.B	2[r7], r12
 522:C:/Workspace/FW_Platform2_5/trunk/ProductModules/PM_FreqFeedbacks\PM_FrequencyFeedbacks.c **** 		retVal = OCPWD_StartSampleSync ( pwdcfg.PWD_Id, PM_FrequencyFeedbacks_PWDCallback);
 704                             		.loc 1 522 0
 705 006c CF B1                   		mov.B	r11, r1
 519:C:/Workspace/FW_Platform2_5/trunk/ProductModules/PM_FreqFeedbacks\PM_FrequencyFeedbacks.c **** 		PM_FrequencyFeedbacks.item[findex].control &= ~(PM_FF_ITEM_CTRL_UNAVAILABLE);
 706                             		.loc 1 519 0
 707 006e 75 2C FD                		and	#-3, r12
 708 0071 C7 7C 02                		mov.B	r12, 2[r7]
 521:C:/Workspace/FW_Platform2_5/trunk/ProductModules/PM_FreqFeedbacks\PM_FrequencyFeedbacks.c **** 		PM_FrequencyFeedbacks.ready &= ~ ((PM_FrequencyFeedbacks_BitmapType)(1u << PM_FrequencyFeedbacks.
 709                             		.loc 1 521 0
 710 0074 59 7C 01                		movu.B	1[r7], r12
 711 0077 FB 76 FE                		mov.L	#-2, r7
 712 007a FD 66 C7                		rotl	r12, r7
 713 007d 06 11 A7 05             		and	5[r10].B, r7
 522:C:/Workspace/FW_Platform2_5/trunk/ProductModules/PM_FreqFeedbacks\PM_FrequencyFeedbacks.c **** 		retVal = OCPWD_StartSampleSync ( pwdcfg.PWD_Id, PM_FrequencyFeedbacks_PWDCallback);
 714                             		.loc 1 522 0
 715 0081 FB 22 00 00 00 00       		mov.L	#_PM_FrequencyFeedbacks_PWDCallback, r2
 521:C:/Workspace/FW_Platform2_5/trunk/ProductModules/PM_FreqFeedbacks\PM_FrequencyFeedbacks.c **** 		PM_FrequencyFeedbacks.ready &= ~ ((PM_FrequencyFeedbacks_BitmapType)(1u << PM_FrequencyFeedbacks.
 716                             		.loc 1 521 0
 717 0087 C7 A7 05                		mov.B	r7, 5[r10]
 522:C:/Workspace/FW_Platform2_5/trunk/ProductModules/PM_FreqFeedbacks\PM_FrequencyFeedbacks.c **** 		retVal = OCPWD_StartSampleSync ( pwdcfg.PWD_Id, PM_FrequencyFeedbacks_PWDCallback);
 718                             		.loc 1 522 0
 719 008a 05 00 00 00             		bsr	_OCPWD_StartSampleSync
 720                             	.LVL88:
 524:C:/Workspace/FW_Platform2_5/trunk/ProductModules/PM_FreqFeedbacks\PM_FrequencyFeedbacks.c **** 		PLT_ERROR_WARNING_IF(retVal, PLT_ERROR_PM_FREQUENCY_FEEDBACKS);
 721                             		.loc 1 524 0
 722 008e 5B 1A                   		movu.B	r1, r10
 723 0090 61 0A                   		cmp	#0, r10
 522:C:/Workspace/FW_Platform2_5/trunk/ProductModules/PM_FreqFeedbacks\PM_FrequencyFeedbacks.c **** 		retVal = OCPWD_StartSampleSync ( pwdcfg.PWD_Id, PM_FrequencyFeedbacks_PWDCallback);
 724                             		.loc 1 522 0
 725 0092 CF 17                   		mov.B	r1, r7
 726                             	.LVL89:
 524:C:/Workspace/FW_Platform2_5/trunk/ProductModules/PM_FreqFeedbacks\PM_FrequencyFeedbacks.c **** 		PLT_ERROR_WARNING_IF(retVal, PLT_ERROR_PM_FREQUENCY_FEEDBACKS);
 727                             		.loc 1 524 0
 728 0094 20 0A                   		beq	.L64
 729                             		.balign 2,3,2
 730                             	.L67:
 526:C:/Workspace/FW_Platform2_5/trunk/ProductModules/PM_FreqFeedbacks\PM_FrequencyFeedbacks.c **** 		PLT_ERROR_WARNING(PLT_ERROR_PM_FREQUENCY_FEEDBACKS);
 731                             		.loc 1 526 0
 732 0096 75 41 45                		mov.L	#0x45, r1
 733                             	.LVL90:
 734 0099 05 00 00 00             		bsr	_LIB_Error_Warning_Handler
 735                             	.LVL91:
 736 009d 03                      		.balign 2,3,1
 737                             	.L64:
 531:C:/Workspace/FW_Platform2_5/trunk/ProductModules/PM_FreqFeedbacks\PM_FrequencyFeedbacks.c **** }
 738                             		.loc 1 531 0
 739 009e 5B 71                   		movu.B	r7, r1
 740 00a0 3F 7D 07                		rtsd	#28, r7-r13
 741                             	.LFE3:
 743 00a3 03                      		.section	.text.PM_FrequencyFeedbacks_DisableFeedbackByPosition,"ax",@progbits
 744                             		.global	_PM_FrequencyFeedbacks_DisableFeedbackByPosition
 746                             	_PM_FrequencyFeedbacks_DisableFeedbackByPosition:
 747                             	.LFB4:
 549:C:/Workspace/FW_Platform2_5/trunk/ProductModules/PM_FreqFeedbacks\PM_FrequencyFeedbacks.c **** {
 748                             		.loc 1 549 0
 749                             	.LVL92:
 552:C:/Workspace/FW_Platform2_5/trunk/ProductModules/PM_FreqFeedbacks\PM_FrequencyFeedbacks.c **** 	if(!((_Position < CONFIG_FREQUENCY_FEEDBACKS_MAX_ITEMS_NUMBER)))
 750                             		.loc 1 552 0
 751 0000 5B 1E                   		movu.B	r1, r14
 752 0002 61 3E                   		cmp	#3, r14
 753 0004 25 0E                   		bleu	.L73
 554:C:/Workspace/FW_Platform2_5/trunk/ProductModules/PM_FreqFeedbacks\PM_FrequencyFeedbacks.c **** 		PLT_ERROR_WARNING(PM_FREQUENCY_FEEDBACKS_INVALIDPOSITION_ERR);
 754                             		.loc 1 554 0
 755 0006 75 41 4B                		mov.L	#0x4b, r1
 756                             	.LVL93:
 757 0009 05 00 00 00             		bsr	_LIB_Error_Warning_Handler
 758                             	.LVL94:
 555:C:/Workspace/FW_Platform2_5/trunk/ProductModules/PM_FreqFeedbacks\PM_FrequencyFeedbacks.c **** 		return IO_E_INVALID_POSITION;
 759                             		.loc 1 555 0
 760 000d 75 41 15                		mov	#21, r1
 761 0010 2E 34                   		bra	.L74
 762                             	.LVL95:
 763                             	.L73:
 558:C:/Workspace/FW_Platform2_5/trunk/ProductModules/PM_FreqFeedbacks\PM_FrequencyFeedbacks.c **** 	findex = PM_FrequencyFeedbacks_GetIndexByPosition(_Position);
 764                             		.loc 1 558 0
 765 0012 05 00 00 00             		bsr	_PM_FrequencyFeedbacks_GetIndexByPosition
 766                             	.LVL96:
 560:C:/Workspace/FW_Platform2_5/trunk/ProductModules/PM_FreqFeedbacks\PM_FrequencyFeedbacks.c **** 	if(!(findex >= 0) && (findex < PM_FrequencyFeedbacks.number))
 767                             		.loc 1 560 0
 768 0016 CF 11                   		mov.B	r1, r1
 769 0018 61 01                   		cmp	#0, r1
 770 001a 28 0E                   		bge	.L75
 562:C:/Workspace/FW_Platform2_5/trunk/ProductModules/PM_FreqFeedbacks\PM_FrequencyFeedbacks.c **** 		PLT_ERROR_WARNING(PM_FREQUENCY_FEEDBACKS_INVALIDINDEXRETRIEVED_ERR);
 771                             		.loc 1 562 0 discriminator 1
 772 001c 75 41 4C                		mov.L	#0x4c, r1
 773                             	.LVL97:
 774 001f 05 00 00 00             		bsr	_LIB_Error_Warning_Handler
 775                             	.LVL98:
 563:C:/Workspace/FW_Platform2_5/trunk/ProductModules/PM_FreqFeedbacks\PM_FrequencyFeedbacks.c **** 		return IO_E_UNEXPECTED_CONDITION;
 776                             		.loc 1 563 0 discriminator 1
 777 0023 75 41 17                		mov	#23, r1
 778 0026 2E 1E                   		bra	.L74
 779                             	.LVL99:
 780                             	.L75:
 568:C:/Workspace/FW_Platform2_5/trunk/ProductModules/PM_FreqFeedbacks\PM_FrequencyFeedbacks.c **** 	PM_FrequencyFeedbacks_Interface.disabled |= ((PM_FrequencyFeedbacks_BitmapType)(1u << PM_Frequency
 781                             		.loc 1 568 0
 782 0028 63 E1                   		mul	#14, r1
 783                             	.LVL100:
 784 002a FB E2 00 00 00 00       		mov.L	#_PM_FrequencyFeedbacks_Interface, r14
 785 0030 70 11 00 00 00 00       		add	#_PM_FrequencyFeedbacks+16, r1
 786 0036 B0 1B                   		movu.B	1[r1], r3
 787 0038 CD E4 04                		mov.B	4[r14], r4
 571:C:/Workspace/FW_Platform2_5/trunk/ProductModules/PM_FreqFeedbacks\PM_FrequencyFeedbacks.c **** 	return IO_E_OK;
 788                             		.loc 1 571 0
 789 003b 66 01                   		mov	#0, r1
 568:C:/Workspace/FW_Platform2_5/trunk/ProductModules/PM_FreqFeedbacks\PM_FrequencyFeedbacks.c **** 	PM_FrequencyFeedbacks_Interface.disabled |= ((PM_FrequencyFeedbacks_BitmapType)(1u << PM_Frequency
 790                             		.loc 1 568 0
 791 003d FC 63 43                		bset	r3, r4
 792 0040 C7 E4 04                		mov.B	r4, 4[r14]
 793 0043 03                      		.balign 2,3,2
 794                             	.L74:
 572:C:/Workspace/FW_Platform2_5/trunk/ProductModules/PM_FreqFeedbacks\PM_FrequencyFeedbacks.c **** }
 795                             		.loc 1 572 0
 796 0044 75 21 17                		and	#23, r1
 797 0047 02                      		rts
 798                             	.LFE4:
 800                             		.section	.text.PM_FrequencyFeedbacks_EnableFeedbackByPosition,"ax",@progbits
 801                             		.global	_PM_FrequencyFeedbacks_EnableFeedbackByPosition
 803                             	_PM_FrequencyFeedbacks_EnableFeedbackByPosition:
 804                             	.LFB5:
 590:C:/Workspace/FW_Platform2_5/trunk/ProductModules/PM_FreqFeedbacks\PM_FrequencyFeedbacks.c **** {
 805                             		.loc 1 590 0
 806                             	.LVL101:
 593:C:/Workspace/FW_Platform2_5/trunk/ProductModules/PM_FreqFeedbacks\PM_FrequencyFeedbacks.c **** 	if(!((_Position < CONFIG_FREQUENCY_FEEDBACKS_MAX_ITEMS_NUMBER)))
 807                             		.loc 1 593 0
 808 0000 5B 1E                   		movu.B	r1, r14
 809 0002 61 3E                   		cmp	#3, r14
 810 0004 25 0E                   		bleu	.L77
 595:C:/Workspace/FW_Platform2_5/trunk/ProductModules/PM_FreqFeedbacks\PM_FrequencyFeedbacks.c **** 		PLT_ERROR_WARNING(PM_FREQUENCY_FEEDBACKS_INVALIDPOSITION_ERR);
 811                             		.loc 1 595 0
 812 0006 75 41 4B                		mov.L	#0x4b, r1
 813                             	.LVL102:
 814 0009 05 00 00 00             		bsr	_LIB_Error_Warning_Handler
 815                             	.LVL103:
 596:C:/Workspace/FW_Platform2_5/trunk/ProductModules/PM_FreqFeedbacks\PM_FrequencyFeedbacks.c **** 		return IO_E_INVALID_POSITION;
 816                             		.loc 1 596 0
 817 000d 75 41 15                		mov	#21, r1
 818 0010 2E 38                   		bra	.L78
 819                             	.LVL104:
 820                             	.L77:
 599:C:/Workspace/FW_Platform2_5/trunk/ProductModules/PM_FreqFeedbacks\PM_FrequencyFeedbacks.c **** 	findex = PM_FrequencyFeedbacks_GetIndexByPosition(_Position);
 821                             		.loc 1 599 0
 822 0012 05 00 00 00             		bsr	_PM_FrequencyFeedbacks_GetIndexByPosition
 823                             	.LVL105:
 601:C:/Workspace/FW_Platform2_5/trunk/ProductModules/PM_FreqFeedbacks\PM_FrequencyFeedbacks.c **** 	if(!(findex >= 0) && (findex < PM_FrequencyFeedbacks.number))
 824                             		.loc 1 601 0
 825 0016 CF 11                   		mov.B	r1, r1
 826 0018 61 01                   		cmp	#0, r1
 827 001a 28 0E                   		bge	.L79
 603:C:/Workspace/FW_Platform2_5/trunk/ProductModules/PM_FreqFeedbacks\PM_FrequencyFeedbacks.c **** 		PLT_ERROR_WARNING(PM_FREQUENCY_FEEDBACKS_INVALIDINDEXRETRIEVED_ERR);
 828                             		.loc 1 603 0 discriminator 1
 829 001c 75 41 4C                		mov.L	#0x4c, r1
 830                             	.LVL106:
 831 001f 05 00 00 00             		bsr	_LIB_Error_Warning_Handler
 832                             	.LVL107:
 604:C:/Workspace/FW_Platform2_5/trunk/ProductModules/PM_FreqFeedbacks\PM_FrequencyFeedbacks.c **** 		return IO_E_UNEXPECTED_CONDITION;
 833                             		.loc 1 604 0 discriminator 1
 834 0023 75 41 17                		mov	#23, r1
 835 0026 2E 22                   		bra	.L78
 836                             	.LVL108:
 837                             	.L79:
 609:C:/Workspace/FW_Platform2_5/trunk/ProductModules/PM_FreqFeedbacks\PM_FrequencyFeedbacks.c **** 	PM_FrequencyFeedbacks_Interface.disabled &= ~((PM_FrequencyFeedbacks_BitmapType)(1u << PM_Frequenc
 838                             		.loc 1 609 0
 839 0028 63 E1                   		mul	#14, r1
 840                             	.LVL109:
 841 002a 70 11 00 00 00 00       		add	#_PM_FrequencyFeedbacks+16, r1
 842 0030 B0 1B                   		movu.B	1[r1], r3
 843 0032 FB E6 FE                		mov.L	#-2, r14
 844 0035 FB 42 00 00 00 00       		mov.L	#_PM_FrequencyFeedbacks_Interface, r4
 845 003b FD 66 3E                		rotl	r3, r14
 846 003e 06 11 4E 04             		and	4[r4].B, r14
 847 0042 C7 4E 04                		mov.B	r14, 4[r4]
 612:C:/Workspace/FW_Platform2_5/trunk/ProductModules/PM_FreqFeedbacks\PM_FrequencyFeedbacks.c **** 	return IO_E_OK;
 848                             		.loc 1 612 0
 849 0045 66 01                   		mov	#0, r1
 850 0047 03                      		.balign 2,3,2
 851                             	.L78:
 613:C:/Workspace/FW_Platform2_5/trunk/ProductModules/PM_FreqFeedbacks\PM_FrequencyFeedbacks.c **** }
 852                             		.loc 1 613 0
 853 0048 75 21 17                		and	#23, r1
 854 004b 02                      		rts
 855                             	.LFE5:
 857                             		.section	.text.PM_FrequencyFeedbacks_GetReadyByPosition,"ax",@progbits
 858                             		.global	_PM_FrequencyFeedbacks_GetReadyByPosition
 860                             	_PM_FrequencyFeedbacks_GetReadyByPosition:
 861                             	.LFB6:
 631:C:/Workspace/FW_Platform2_5/trunk/ProductModules/PM_FreqFeedbacks\PM_FrequencyFeedbacks.c **** {
 862                             		.loc 1 631 0
 863                             	.LVL110:
 632:C:/Workspace/FW_Platform2_5/trunk/ProductModules/PM_FreqFeedbacks\PM_FrequencyFeedbacks.c **** 	if(!((_Position < CONFIG_FREQUENCY_FEEDBACKS_MAX_ITEMS_NUMBER)))
 864                             		.loc 1 632 0
 865 0000 5B 11                   		movu.B	r1, r1
 866 0002 61 31                   		cmp	#3, r1
 867 0004 25 0C                   		bleu	.L81
 634:C:/Workspace/FW_Platform2_5/trunk/ProductModules/PM_FreqFeedbacks\PM_FrequencyFeedbacks.c **** 		PLT_ERROR_WARNING(PM_FREQUENCY_FEEDBACKS_INVALIDPOSITION_ERR);
 868                             		.loc 1 634 0
 869 0006 75 41 4B                		mov.L	#0x4b, r1
 870                             	.LVL111:
 871 0009 05 00 00 00             		bsr	_LIB_Error_Warning_Handler
 872                             	.LVL112:
 635:C:/Workspace/FW_Platform2_5/trunk/ProductModules/PM_FreqFeedbacks\PM_FrequencyFeedbacks.c **** 		return FALSE;
 873                             		.loc 1 635 0
 874 000d 66 01                   		mov.L	#0, r1
 875 000f 02                      		rts
 876                             	.L81:
 638:C:/Workspace/FW_Platform2_5/trunk/ProductModules/PM_FreqFeedbacks\PM_FrequencyFeedbacks.c **** 	return (PM_FrequencyFeedbacks.ready & (PM_FrequencyFeedbacks_BitmapType)(1<<_Position))==0?FALSE:T
 877                             		.loc 1 638 0
 878 0010 FB 42 00 00 00 00       		mov.L	#_PM_FrequencyFeedbacks, r4
 879 0016 66 1E                   		mov.L	#1, r14
 880 0018 FD 62 1E                		shll	r1, r14
 881 001b 89 49                   		mov.B	5[r4], r1
 882 001d 53 E1                   		and	r14, r1
 883 001f 5B 11                   		movu.B	r1, r1
 884 0021 61 01                   		cmp	#0, r1
 885 0023 FC DB 11                		scne.L	r1
 639:C:/Workspace/FW_Platform2_5/trunk/ProductModules/PM_FreqFeedbacks\PM_FrequencyFeedbacks.c **** }
 886                             		.loc 1 639 0
 887 0026 02                      		rts
 888                             	.LFE6:
 890                             		.section	.text.PM_FrequencyFeedbacks_GetReadyRaw,"ax",@progbits
 891                             		.global	_PM_FrequencyFeedbacks_GetReadyRaw
 893                             	_PM_FrequencyFeedbacks_GetReadyRaw:
 894                             	.LFB7:
 655:C:/Workspace/FW_Platform2_5/trunk/ProductModules/PM_FreqFeedbacks\PM_FrequencyFeedbacks.c **** {
 895                             		.loc 1 655 0
 657:C:/Workspace/FW_Platform2_5/trunk/ProductModules/PM_FreqFeedbacks\PM_FrequencyFeedbacks.c **** }
 896                             		.loc 1 657 0
 897 0000 FB E2 00 00 00 00       		mov.L	#_PM_FrequencyFeedbacks, r14
 898 0006 59 E1 05                		movu.B	5[r14], r1
 899 0009 02                      		rts
 900                             	.LFE7:
 902                             		.section	.text.PM_FrequencyFeedbacks_Reliable,"ax",@progbits
 903                             		.global	_PM_FrequencyFeedbacks_Reliable
 905                             	_PM_FrequencyFeedbacks_Reliable:
 906                             	.LFB8:
 674:C:/Workspace/FW_Platform2_5/trunk/ProductModules/PM_FreqFeedbacks\PM_FrequencyFeedbacks.c **** {
 907                             		.loc 1 674 0
 675:C:/Workspace/FW_Platform2_5/trunk/ProductModules/PM_FreqFeedbacks\PM_FrequencyFeedbacks.c **** 	return (bool_t)( !(PM_FrequencyFeedbacks.reliable ^ PM_FrequencyFeedbacks.positionmask))?TRUE:FALS
 908                             		.loc 1 675 0
 909 0000 FB E2 00 00 00 00       		mov.L	#_PM_FrequencyFeedbacks, r14
 910 0006 59 E1 06                		movu.B	6[r14], r1
 676:C:/Workspace/FW_Platform2_5/trunk/ProductModules/PM_FreqFeedbacks\PM_FrequencyFeedbacks.c **** }
 911                             		.loc 1 676 0
 912 0009 45 E1 07                		cmp	7[r14].UB, r1
 913 000c FC DB 10                		sceq.L	r1
 914 000f 02                      		rts
 915                             	.LFE8:
 917                             		.section	.text.PM_FrequencyFeedbacks_GetValueByPosition,"ax",@progbits
 918                             		.global	_PM_FrequencyFeedbacks_GetValueByPosition
 920                             	_PM_FrequencyFeedbacks_GetValueByPosition:
 921                             	.LFB9:
 699:C:/Workspace/FW_Platform2_5/trunk/ProductModules/PM_FreqFeedbacks\PM_FrequencyFeedbacks.c **** {
 922                             		.loc 1 699 0
 923                             	.LVL113:
 700:C:/Workspace/FW_Platform2_5/trunk/ProductModules/PM_FreqFeedbacks\PM_FrequencyFeedbacks.c **** 	if(!(_Position < CONFIG_FREQUENCY_FEEDBACKS_MAX_ITEMS_NUMBER))
 924                             		.loc 1 700 0
 925 0000 5B 11                   		movu.B	r1, r1
 926 0002 61 31                   		cmp	#3, r1
 927 0004 25 0C                   		bleu	.L86
 702:C:/Workspace/FW_Platform2_5/trunk/ProductModules/PM_FreqFeedbacks\PM_FrequencyFeedbacks.c **** 		PLT_ERROR_WARNING(PM_FREQUENCY_FEEDBACKS_INVALIDPOSITION_ERR);
 928                             		.loc 1 702 0
 929 0006 75 41 4B                		mov.L	#0x4b, r1
 930                             	.LVL114:
 931 0009 05 00 00 00             		bsr	_LIB_Error_Warning_Handler
 932                             	.LVL115:
 703:C:/Workspace/FW_Platform2_5/trunk/ProductModules/PM_FreqFeedbacks\PM_FrequencyFeedbacks.c **** 		return FREQFB_E_INVALID_POSITION;
 933                             		.loc 1 703 0
 934 000d 66 11                   		mov.L	#1, r1
 935 000f 02                      		rts
 936                             	.LVL116:
 937                             	.L86:
 706:C:/Workspace/FW_Platform2_5/trunk/ProductModules/PM_FreqFeedbacks\PM_FrequencyFeedbacks.c **** 	if(_pValue)
 938                             		.loc 1 706 0
 939 0010 61 02                   		cmp	#0, r2
 940 0012 20 10                   		beq	.L88
 708:C:/Workspace/FW_Platform2_5/trunk/ProductModules/PM_FreqFeedbacks\PM_FrequencyFeedbacks.c **** 		*_pValue = PM_FrequencyFeedbacks_Interface.feedback[_Position];
 941                             		.loc 1 708 0
 942 0014 FB E2 00 00 00 00       		mov.L	#_PM_FrequencyFeedbacks_Interface, r14
 943 001a FE 41 EE                		mov.B	[r1,r14], r14
 714:C:/Workspace/FW_Platform2_5/trunk/ProductModules/PM_FreqFeedbacks\PM_FrequencyFeedbacks.c **** 	return FREQFB_OK;
 944                             		.loc 1 714 0
 945 001d 66 01                   		mov.L	#0, r1
 708:C:/Workspace/FW_Platform2_5/trunk/ProductModules/PM_FreqFeedbacks\PM_FrequencyFeedbacks.c **** 		*_pValue = PM_FrequencyFeedbacks_Interface.feedback[_Position];
 946                             		.loc 1 708 0
 947 001f C3 2E                   		mov.B	r14, [r2]
 714:C:/Workspace/FW_Platform2_5/trunk/ProductModules/PM_FreqFeedbacks\PM_FrequencyFeedbacks.c **** 	return FREQFB_OK;
 948                             		.loc 1 714 0
 949 0021 02                      		rts
 950                             	.L88:
 712:C:/Workspace/FW_Platform2_5/trunk/ProductModules/PM_FreqFeedbacks\PM_FrequencyFeedbacks.c **** 		return FREQFB_E_FAIL;
 951                             		.loc 1 712 0
 952 0022 66 31                   		mov.L	#3, r1
 715:C:/Workspace/FW_Platform2_5/trunk/ProductModules/PM_FreqFeedbacks\PM_FrequencyFeedbacks.c **** }
 953                             		.loc 1 715 0
 954 0024 02                      		rts
 955                             	.LFE9:
 957                             		.section	.text.PM_FrequencyFeedbacks_Manager,"ax",@progbits
 958                             		.global	_PM_FrequencyFeedbacks_Manager
 960                             	_PM_FrequencyFeedbacks_Manager:
 961                             	.LFB10:
 734:C:/Workspace/FW_Platform2_5/trunk/ProductModules/PM_FreqFeedbacks\PM_FrequencyFeedbacks.c **** {
 962                             		.loc 1 734 0
 963                             	.LVL117:
 964 0000 6E 7D                   		pushm	r7-r13
 965                             	.LCFI7:
 740:C:/Workspace/FW_Platform2_5/trunk/ProductModules/PM_FreqFeedbacks\PM_FrequencyFeedbacks.c **** 	PLT_ERROR_FATAL_IF((PM_FrequencyFeedbacks.key != (PM_FrequencyFeedbacks_InitKeyType)PM_FREQUENCY_F
 966                             		.loc 1 740 0
 967 0002 FB 72 00 00 00 00       		mov.L	#_PM_FrequencyFeedbacks, r7
 968 0008 B8 7F                   		movu.W	2[r7], r7
 969 000a 76 07 FB 04             		cmp	#0x4fb, r7
 970 000e 20 0A                   		beq	.L90
 740:C:/Workspace/FW_Platform2_5/trunk/ProductModules/PM_FreqFeedbacks\PM_FrequencyFeedbacks.c **** 	PLT_ERROR_FATAL_IF((PM_FrequencyFeedbacks.key != (PM_FrequencyFeedbacks_InitKeyType)PM_FREQUENCY_F
 971                             		.loc 1 740 0 is_stmt 0 discriminator 1
 972 0010 75 41 46                		mov.L	#0x46, r1
 973 0013 05 00 00 00             		bsr	_LIB_Error_Fatal_Handler
 974                             	.LVL118:
 975 0017 03                      		.balign 2,3,3
 976                             	.L90:
 742:C:/Workspace/FW_Platform2_5/trunk/ProductModules/PM_FreqFeedbacks\PM_FrequencyFeedbacks.c **** 	if(IsZCSyncOngoing())
 977                             		.loc 1 742 0 is_stmt 1
 978 0018 05 00 00 00             		bsr	_IsZCSyncOngoing
 979                             	.LVL119:
 980 001c 61 01                   		cmp	#0, r1
 981 001e 20 08                   		beq	.L121
 744:C:/Workspace/FW_Platform2_5/trunk/ProductModules/PM_FreqFeedbacks\PM_FrequencyFeedbacks.c **** 		frequency = LIB_ZC_GetNominalFrequency();
 982                             		.loc 1 744 0
 983 0020 05 00 00 00             		bsr	_LIB_ZC_GetNominalFrequency
 984                             	.LVL120:
 985 0024 2E 06                   		bra	.L91
 986                             	.LVL121:
 987                             	.L121:
 735:C:/Workspace/FW_Platform2_5/trunk/ProductModules/PM_FreqFeedbacks\PM_FrequencyFeedbacks.c **** 	uint8_t frequency = NOM_FREQ_IS_UNDEFINED;
 988                             		.loc 1 735 0
 989 0026 FB 16 FF                		mov	#-1, r1
 990                             	.LVL122:
 991 0029 03                      		.balign 2,3,5
 992                             	.L91:
 749:C:/Workspace/FW_Platform2_5/trunk/ProductModules/PM_FreqFeedbacks\PM_FrequencyFeedbacks.c **** 	PM_FrequencyFeedbacks.gridfrequency = frequency;
 993                             		.loc 1 749 0
 994 002a FB 72 00 00 00 00       		mov.L	#_PM_FrequencyFeedbacks, r7
 995 0030 81 71                   		mov.B	r1, 4[r7]
 751:C:/Workspace/FW_Platform2_5/trunk/ProductModules/PM_FreqFeedbacks\PM_FrequencyFeedbacks.c **** 	if( LIB_ZC_IsOnGood() )
 996                             		.loc 1 751 0
 997 0032 05 00 00 00             		bsr	_LIB_ZC_IsOnGood
 998                             	.LVL123:
 999 0036 61 01                   		cmp	#0, r1
 1000 0038 20 06                   		beq	.L92
 753:C:/Workspace/FW_Platform2_5/trunk/ProductModules/PM_FreqFeedbacks\PM_FrequencyFeedbacks.c **** 		PM_FrequencyFeedbacks_ResetAllFeedbacks();
 1001                             		.loc 1 753 0
 1002 003a 05 00 00 00             		bsr	_PM_FrequencyFeedbacks_ResetAllFeedbacks
 1003                             	.LVL124:
 1004                             		.balign 2,3,5
 1005                             	.L92:
 1006 003e FB B2 00 00 00 00       		mov.L	#_PM_FrequencyFeedbacks+18, r11
 1007                             	.LBB46:
 1008                             	.LBB47:
1032:C:/Workspace/FW_Platform2_5/trunk/ProductModules/PM_FreqFeedbacks\PM_FrequencyFeedbacks.c **** 		status = PM_FREQUENCY_FEEDBACK_PROCESS_END;
 1009                             		.loc 1 1032 0 discriminator 1
 1010 0044 66 0D                   		mov.L	#0, r13
 1011                             	.LBE47:
 1012                             	.LBE46:
 757:C:/Workspace/FW_Platform2_5/trunk/ProductModules/PM_FreqFeedbacks\PM_FrequencyFeedbacks.c **** 	for(inputindex = 0; inputindex < PM_FrequencyFeedbacks.number; inputindex ++)
 1013                             		.loc 1 757 0 discriminator 1
 1014 0046 FB A2 00 00 00 00       		mov.L	#_PM_FrequencyFeedbacks, r10
 772:C:/Workspace/FW_Platform2_5/trunk/ProductModules/PM_FreqFeedbacks\PM_FrequencyFeedbacks.c **** 			(void)PM_FrequencyFeedbacks_Process(&PM_FrequencyFeedbacks.item[inputindex], PM_FrequencyFeedbac
 1015                             		.loc 1 772 0 discriminator 1
 1016 004c 66 19                   		mov.L	#1, r9
 1017 004e FB C2 00 00 00 00       		mov.L	#_PM_FrequencyFeedbacks_Interface, r12
 1018 0054 38 A8 01                		bra	.L93
 1019                             	.LVL125:
 1020                             	.L120:
 760:C:/Workspace/FW_Platform2_5/trunk/ProductModules/PM_FreqFeedbacks\PM_FrequencyFeedbacks.c **** 		PLT_ERROR_FATAL_IF(((PM_FrequencyFeedbacks.item[inputindex].ID != PM_FREQUENCY_FEEDBACK_ID)), PM_
 1021                             		.loc 1 760 0
 1022 0057 59 B7 03                		movu.B	3[r11], r7
 1023 005a 61 47                   		cmp	#4, r7
 1024 005c 20 0A                   		beq	.L94
 760:C:/Workspace/FW_Platform2_5/trunk/ProductModules/PM_FreqFeedbacks\PM_FrequencyFeedbacks.c **** 		PLT_ERROR_FATAL_IF(((PM_FrequencyFeedbacks.item[inputindex].ID != PM_FREQUENCY_FEEDBACK_ID)), PM_
 1025                             		.loc 1 760 0 is_stmt 0 discriminator 1
 1026 005e 75 41 4D                		mov.L	#0x4d, r1
 1027 0061 05 00 00 00             		bsr	_LIB_Error_Fatal_Handler
 1028                             	.LVL126:
 1029 0065 03                      		.balign 2,3,5
 1030                             	.L94:
 764:C:/Workspace/FW_Platform2_5/trunk/ProductModules/PM_FreqFeedbacks\PM_FrequencyFeedbacks.c **** 		if (!(PM_FrequencyFeedbacks.item[inputindex].control & (PM_FF_ITEM_CTRL_UNAVAILABLE)))
 1031                             		.loc 1 764 0 is_stmt 1
 1032 0066 CC B4                   		mov.B	[r11], r4
 1033 0068 64 24                   		and	#2, r4
 1034 006a 3B 8E 01                		bne	.L95
 768:C:/Workspace/FW_Platform2_5/trunk/ProductModules/PM_FreqFeedbacks\PM_FrequencyFeedbacks.c **** 			PM_FrequencyFeedbacks_PulsesCollector(&PM_FrequencyFeedbacks.item[inputindex]);
 1035                             		.loc 1 768 0
 1036 006d EF D7                   		mov.L	r13, r7
 1037 006f 63 E7                   		mul	#14, r7
 1038 0071 70 77 00 00 00 00       		add	#_PM_FrequencyFeedbacks+8, r7
 1039                             	.LVL127:
 1040                             	.LBB57:
 1041                             	.LBB58:
 924:C:/Workspace/FW_Platform2_5/trunk/ProductModules/PM_FreqFeedbacks\PM_FrequencyFeedbacks.c **** 	if( _pItem->progress < 20 )
 1042                             		.loc 1 924 0
 1043 0077 8A 73                   		mov.B	8[r7], r3
 1044 0079 CD 7E 0B                		mov.B	11[r7], r14
 1045 007c 5B 32                   		movu.B	r3, r2
 1046 007e 75 52 13                		cmp	#19, r2
 1047 0081 24 21                   		bgtu	.L96
 929:C:/Workspace/FW_Platform2_5/trunk/ProductModules/PM_FreqFeedbacks\PM_FrequencyFeedbacks.c **** 		if( _pItem->status & PM_FF_ITEM_STATUS_PERIODIC)
 1048                             		.loc 1 929 0
 1049 0083 EF E4                   		mov.L	r14, r4
 1050 0085 64 84                   		and	#8, r4
 927:C:/Workspace/FW_Platform2_5/trunk/ProductModules/PM_FreqFeedbacks\PM_FrequencyFeedbacks.c **** 		_pItem->progress++;
 1051                             		.loc 1 927 0
 1052 0087 62 13                   		add	#1, r3
 929:C:/Workspace/FW_Platform2_5/trunk/ProductModules/PM_FreqFeedbacks\PM_FrequencyFeedbacks.c **** 		if( _pItem->status & PM_FF_ITEM_STATUS_PERIODIC)
 1053                             		.loc 1 929 0
 1054 0089 5B 44                   		movu.B	r4, r4
 927:C:/Workspace/FW_Platform2_5/trunk/ProductModules/PM_FreqFeedbacks\PM_FrequencyFeedbacks.c **** 		_pItem->progress++;
 1055                             		.loc 1 927 0
 1056 008b 82 73                   		mov.B	r3, 8[r7]
 929:C:/Workspace/FW_Platform2_5/trunk/ProductModules/PM_FreqFeedbacks\PM_FrequencyFeedbacks.c **** 		if( _pItem->status & PM_FF_ITEM_STATUS_PERIODIC)
 1057                             		.loc 1 929 0
 1058 008d 61 04                   		cmp	#0, r4
 1059 008f 20 0B                   		beq	.L97
 931:C:/Workspace/FW_Platform2_5/trunk/ProductModules/PM_FreqFeedbacks\PM_FrequencyFeedbacks.c **** 			_pItem->status &= ~PM_FF_ITEM_STATUS_PERIODIC;
 1060                             		.loc 1 931 0
 1061 0091 75 2E F7                		and	#-9, r14
 932:C:/Workspace/FW_Platform2_5/trunk/ProductModules/PM_FreqFeedbacks\PM_FrequencyFeedbacks.c **** 			_pItem->status |= PM_FF_ITEM_STATUS_PULSE;
 1062                             		.loc 1 932 0
 1063 0094 75 3E 10                		or	#16, r14
 1064 0097 C7 7E 0B                		mov.B	r14, 11[r7]
 1065                             		.balign 2,3,5
 1066                             	.L97:
 934:C:/Workspace/FW_Platform2_5/trunk/ProductModules/PM_FreqFeedbacks\PM_FrequencyFeedbacks.c **** 		_pItem->status &= ~PM_FF_ITEM_STATUS_FREQ_READY;
 1067                             		.loc 1 934 0
 1068 009a CD 7E 0B                		mov.B	11[r7], r14
 1069 009d 75 2E FB                		and	#-5, r14
 1070 00a0 2E 06                   		bra	.L148
 1071                             	.L96:
 939:C:/Workspace/FW_Platform2_5/trunk/ProductModules/PM_FreqFeedbacks\PM_FrequencyFeedbacks.c **** 		_pItem->progress=0;
 1072                             		.loc 1 939 0
 1073 00a2 82 74                   		mov.B	r4, 8[r7]
 940:C:/Workspace/FW_Platform2_5/trunk/ProductModules/PM_FreqFeedbacks\PM_FrequencyFeedbacks.c **** 		_pItem->status |= PM_FF_ITEM_STATUS_END_OF_FREQ;
 1074                             		.loc 1 940 0
 1075 00a4 65 2E                   		or	#2, r14
 1076                             		.balign 2,3,5
 1077                             	.L148:
 1078 00a6 C7 7E 0B                		mov.B	r14, 11[r7]
 1079                             	.LVL128:
 1080                             	.LBE58:
 1081                             	.LBE57:
 1082                             	.LBB59:
 1083                             	.LBB60:
 874:C:/Workspace/FW_Platform2_5/trunk/ProductModules/PM_FreqFeedbacks\PM_FrequencyFeedbacks.c **** 	if( _pItem->status & PM_FF_ITEM_STATUS_PULSE )
 1084                             		.loc 1 874 0
 1085 00a9 8A FB                   		mov.B	11[r7], r3
 1086 00ab EF 3E                   		mov.L	r3, r14
 1087 00ad 75 2E 10                		and	#16, r14
 1088 00b0 5B EE                   		movu.B	r14, r14
 1089 00b2 61 0E                   		cmp	#0, r14
 1090 00b4 20 16                   		beq	.L99
 876:C:/Workspace/FW_Platform2_5/trunk/ProductModules/PM_FreqFeedbacks\PM_FrequencyFeedbacks.c **** 		if(_pItem->progress <= 2)
 1091                             		.loc 1 876 0
 1092 00b6 59 7E 08                		movu.B	8[r7], r14
 1093 00b9 61 2E                   		cmp	#2, r14
 1094 00bb 24 0C                   		bgtu	.L100
 879:C:/Workspace/FW_Platform2_5/trunk/ProductModules/PM_FreqFeedbacks\PM_FrequencyFeedbacks.c **** 			_pItem->control |=  PM_FF_ITEM_CTRL_SAMPLE_ENABLED;
 1095                             		.loc 1 879 0
 1096 00bd CD 7E 0A                		mov.B	10[r7], r14
 1097 00c0 65 1E                   		or	#1, r14
 1098 00c2 C7 7E 0A                		mov.B	r14, 10[r7]
 1099 00c5 2E 05                   		bra	.L99
 1100                             	.L100:
 883:C:/Workspace/FW_Platform2_5/trunk/ProductModules/PM_FreqFeedbacks\PM_FrequencyFeedbacks.c **** 			_pItem->timetorestart = CONFIG_FREQUENCY_FEEDBACKS_MAX_DELAY_TO_RESTART_SAMPLING;
 1101                             		.loc 1 883 0
 1102 00c7 3D 73 1E                		mov.W	#30, 6[r7]
 1103                             		.balign 2,3,5
 1104                             	.L99:
 887:C:/Workspace/FW_Platform2_5/trunk/ProductModules/PM_FreqFeedbacks\PM_FrequencyFeedbacks.c **** 	if (_pItem->control &  PM_FF_ITEM_CTRL_SAMPLE_ENABLED )
 1105                             		.loc 1 887 0
 1106 00ca 8A F4                   		mov.B	10[r7], r4
 1107 00cc FD 74 C4 01             		tst	#1, r4
 1108 00d0 20 40                   		beq	.L102
 889:C:/Workspace/FW_Platform2_5/trunk/ProductModules/PM_FreqFeedbacks\PM_FrequencyFeedbacks.c **** 		if(++_pItem->samples < _pItem->requested_samples)
 1109                             		.loc 1 889 0
 1110 00d2 CD 7E 03                		mov.B	3[r7], r14
 1111 00d5 62 1E                   		add	#1, r14
 1112 00d7 5B E2                   		movu.B	r14, r2
 1113 00d9 C7 7E 03                		mov.B	r14, 3[r7]
 1114 00dc 59 7E 02                		movu.B	2[r7], r14
 1115 00df 47 E2                   		cmp	r14, r2
 1116 00e1 22 19                   		bgeu	.L103
 891:C:/Workspace/FW_Platform2_5/trunk/ProductModules/PM_FreqFeedbacks\PM_FrequencyFeedbacks.c **** 			if(LIB_DIO_GET_INPUT_F(_pItem->pin, 20))
 1117                             		.loc 1 891 0
 1118 00e3 CC 71                   		mov.B	[r7], r1
 1119 00e5 75 42 14                		mov	#20, r2
 1120 00e8 05 00 00 00             		bsr	_LIB_DIO_GET_INPUT_F
 1121                             	.LVL129:
 1122 00ec 61 01                   		cmp	#0, r1
 1123 00ee 20 22                   		beq	.L102
 893:C:/Workspace/FW_Platform2_5/trunk/ProductModules/PM_FreqFeedbacks\PM_FrequencyFeedbacks.c **** 				_pItem->hlsamples++;
 1124                             		.loc 1 893 0
 1125 00f0 CD 7E 04                		mov.B	4[r7], r14
 1126 00f3 62 1E                   		add	#1, r14
 1127 00f5 C7 7E 04                		mov.B	r14, 4[r7]
 1128 00f8 2E 18                   		bra	.L102
 1129                             	.L103:
 899:C:/Workspace/FW_Platform2_5/trunk/ProductModules/PM_FreqFeedbacks\PM_FrequencyFeedbacks.c **** 			_pItem->control &=  ~PM_FF_ITEM_CTRL_SAMPLE_ENABLED;
 1130                             		.loc 1 899 0
 1131 00fa 75 24 FE                		and	#-2, r4
 1132 00fd 82 F4                   		mov.B	r4, 10[r7]
 900:C:/Workspace/FW_Platform2_5/trunk/ProductModules/PM_FreqFeedbacks\PM_FrequencyFeedbacks.c **** 			_pItem->polling = ((_pItem->hlsamples) > (_pItem->requested_samples/2))?1:0;
 1133                             		.loc 1 900 0
 1134 00ff B1 74                   		movu.B	4[r7], r4
 898:C:/Workspace/FW_Platform2_5/trunk/ProductModules/PM_FreqFeedbacks\PM_FrequencyFeedbacks.c **** 			_pItem->status |= PM_FF_ITEM_STATUS_SAMPLES_READY;
 1135                             		.loc 1 898 0
 1136 0101 65 13                   		or	#1, r3
 900:C:/Workspace/FW_Platform2_5/trunk/ProductModules/PM_FreqFeedbacks\PM_FrequencyFeedbacks.c **** 			_pItem->polling = ((_pItem->hlsamples) > (_pItem->requested_samples/2))?1:0;
 1137                             		.loc 1 900 0
 1138 0103 68 1E                   		shlr	#1, r14
 1139 0105 47 E4                   		cmp	r14, r4
 1140 0107 FC DB E4                		scgtu.L	r14
 898:C:/Workspace/FW_Platform2_5/trunk/ProductModules/PM_FreqFeedbacks\PM_FrequencyFeedbacks.c **** 			_pItem->status |= PM_FF_ITEM_STATUS_SAMPLES_READY;
 1141                             		.loc 1 898 0
 1142 010a 82 FB                   		mov.B	r3, 11[r7]
 900:C:/Workspace/FW_Platform2_5/trunk/ProductModules/PM_FreqFeedbacks\PM_FrequencyFeedbacks.c **** 			_pItem->polling = ((_pItem->hlsamples) > (_pItem->requested_samples/2))?1:0;
 1143                             		.loc 1 900 0
 1144 010c C7 7E 05                		mov.B	r14, 5[r7]
 1145 010f 03                      		.balign 2,3,2
 1146                             	.L102:
 1147                             	.LBE60:
 1148                             	.LBE59:
 733:C:/Workspace/FW_Platform2_5/trunk/ProductModules/PM_FreqFeedbacks\PM_FrequencyFeedbacks.c **** void PM_FrequencyFeedbacks_Manager(void)
 1149                             		.loc 1 733 0
 1150 0110 71 BE FF                		add	#-1, r11, r14
 772:C:/Workspace/FW_Platform2_5/trunk/ProductModules/PM_FreqFeedbacks\PM_FrequencyFeedbacks.c **** 			(void)PM_FrequencyFeedbacks_Process(&PM_FrequencyFeedbacks.item[inputindex], PM_FrequencyFeedbac
 1151                             		.loc 1 772 0
 1152 0113 58 E2                   		movu.B	[r14], r2
 1153                             	.LBB61:
 1154                             	.LBB52:
 963:C:/Workspace/FW_Platform2_5/trunk/ProductModules/PM_FreqFeedbacks\PM_FrequencyFeedbacks.c **** 	if(_pItem->status & PM_FF_ITEM_STATUS_PULSE)
 1155                             		.loc 1 963 0
 1156 0115 8A FC                   		mov.B	11[r7], r4
 1157                             	.LBE52:
 1158                             	.LBE61:
 772:C:/Workspace/FW_Platform2_5/trunk/ProductModules/PM_FreqFeedbacks\PM_FrequencyFeedbacks.c **** 			(void)PM_FrequencyFeedbacks_Process(&PM_FrequencyFeedbacks.item[inputindex], PM_FrequencyFeedbac
 1159                             		.loc 1 772 0
 1160 0117 EF 9E                   		mov.L	r9, r14
 1161 0119 FD 62 2E                		shll	r2, r14
 1162 011c EF E2                   		mov.L	r14, r2
 1163                             	.LBB62:
 1164                             	.LBB53:
 963:C:/Workspace/FW_Platform2_5/trunk/ProductModules/PM_FreqFeedbacks\PM_FrequencyFeedbacks.c **** 	if(_pItem->status & PM_FF_ITEM_STATUS_PULSE)
 1165                             		.loc 1 963 0
 1166 011e EF 41                   		mov.L	r4, r1
 959:C:/Workspace/FW_Platform2_5/trunk/ProductModules/PM_FreqFeedbacks\PM_FrequencyFeedbacks.c **** 	PM_FrequencyFeedbacks_BitmapType mask = (PM_FrequencyFeedbacks_BitmapType)(1u<< _pItem->position);
 1167                             		.loc 1 959 0
 1168 0120 59 7E 09                		movu.B	9[r7], r14
 963:C:/Workspace/FW_Platform2_5/trunk/ProductModules/PM_FreqFeedbacks\PM_FrequencyFeedbacks.c **** 	if(_pItem->status & PM_FF_ITEM_STATUS_PULSE)
 1169                             		.loc 1 963 0
 1170 0123 75 21 10                		and	#16, r1
 959:C:/Workspace/FW_Platform2_5/trunk/ProductModules/PM_FreqFeedbacks\PM_FrequencyFeedbacks.c **** 	PM_FrequencyFeedbacks_BitmapType mask = (PM_FrequencyFeedbacks_BitmapType)(1u<< _pItem->position);
 1171                             		.loc 1 959 0
 1172 0126 EF 93                   		mov.L	r9, r3
 1173                             	.LBE53:
 1174                             	.LBE62:
 772:C:/Workspace/FW_Platform2_5/trunk/ProductModules/PM_FreqFeedbacks\PM_FrequencyFeedbacks.c **** 			(void)PM_FrequencyFeedbacks_Process(&PM_FrequencyFeedbacks.item[inputindex], PM_FrequencyFeedbac
 1175                             		.loc 1 772 0
 1176 0128 51 C2 04                		and	4[r12].UB, r2
 1177                             	.LVL130:
 1178                             	.LBB63:
 1179                             	.LBB54:
 959:C:/Workspace/FW_Platform2_5/trunk/ProductModules/PM_FreqFeedbacks\PM_FrequencyFeedbacks.c **** 	PM_FrequencyFeedbacks_BitmapType mask = (PM_FrequencyFeedbacks_BitmapType)(1u<< _pItem->position);
 1180                             		.loc 1 959 0
 1181 012b FD 62 E3                		shll	r14, r3
 1182                             	.LVL131:
 963:C:/Workspace/FW_Platform2_5/trunk/ProductModules/PM_FreqFeedbacks\PM_FrequencyFeedbacks.c **** 	if(_pItem->status & PM_FF_ITEM_STATUS_PULSE)
 1183                             		.loc 1 963 0
 1184 012e 5B 11                   		movu.B	r1, r1
 1185 0130 61 01                   		cmp	#0, r1
 1186 0132 20 0A                   		beq	.L105
 965:C:/Workspace/FW_Platform2_5/trunk/ProductModules/PM_FreqFeedbacks\PM_FrequencyFeedbacks.c **** 		_pItem->control &= ~PM_FF_ITEM_CTRL_SAMPLE_ENABLED;
 1187                             		.loc 1 965 0
 1188 0134 8A F1                   		mov.B	10[r7], r1
 1189 0136 75 21 FE                		and	#-2, r1
 1190 0139 82 F1                   		mov.B	r1, 10[r7]
 1191 013b 03                      		.balign 2,3,1
 1192                             	.L105:
 968:C:/Workspace/FW_Platform2_5/trunk/ProductModules/PM_FreqFeedbacks\PM_FrequencyFeedbacks.c **** 	if ( (_pItem->status & PM_FF_ITEM_STATUS_END_OF_FREQ))
 1193                             		.loc 1 968 0
 1194 013c EF 41                   		mov.L	r4, r1
 1195 013e 64 21                   		and	#2, r1
 1196 0140 5B 11                   		movu.B	r1, r1
 1197 0142 61 01                   		cmp	#0, r1
 1198 0144 20 16                   		beq	.L106
 1199                             	.LBE54:
 970:C:/Workspace/FW_Platform2_5/trunk/ProductModules/PM_FreqFeedbacks\PM_FrequencyFeedbacks.c **** 		if(!(_pItem->control & PM_FF_ITEM_CTRL_SAMPLE_ENABLED))
 1200                             		.loc 1 970 0
 1201 0146 8A F1                   		mov.B	10[r7], r1
 1202                             	.LBB55:
 1203 0148 FD 74 C1 01             		tst	#1, r1
 1204 014c 21 06                   		bne	.L107
 972:C:/Workspace/FW_Platform2_5/trunk/ProductModules/PM_FreqFeedbacks\PM_FrequencyFeedbacks.c **** 			_pItem->status |= PM_FF_ITEM_STATUS_FREQ_READY;
 1205                             		.loc 1 972 0
 1206 014e 65 44                   		or	#4, r4
 1207 0150 82 FC                   		mov.B	r4, 11[r7]
 1208                             		.balign 2,3,5
 1209                             	.L107:
 975:C:/Workspace/FW_Platform2_5/trunk/ProductModules/PM_FreqFeedbacks\PM_FrequencyFeedbacks.c **** 		_pItem->status &= ~PM_FF_ITEM_STATUS_END_OF_FREQ;
 1210                             		.loc 1 975 0
 1211 0152 8A FC                   		mov.B	11[r7], r4
 1212 0154 75 24 FD                		and	#-3, r4
 1213 0157 82 FC                   		mov.B	r4, 11[r7]
 1214 0159 03                      		.balign 2,3,5
 1215                             	.L106:
 978:C:/Workspace/FW_Platform2_5/trunk/ProductModules/PM_FreqFeedbacks\PM_FrequencyFeedbacks.c **** 	if( !(_pItem->status & PM_FF_ITEM_STATUS_FREQ_READY) )
 1216                             		.loc 1 978 0
 1217 015a 8A FC                   		mov.B	11[r7], r4
 1218 015c EF 41                   		mov.L	r4, r1
 1219 015e 64 41                   		and	#4, r1
 1220 0160 5B 11                   		movu.B	r1, r1
 1221 0162 61 01                   		cmp	#0, r1
 1222 0164 21 15                   		bne	.L108
 980:C:/Workspace/FW_Platform2_5/trunk/ProductModules/PM_FreqFeedbacks\PM_FrequencyFeedbacks.c **** 		if( _pItem->status & PM_FF_ITEM_STATUS_SAMPLES_READY )
 1223                             		.loc 1 980 0
 1224 0166 FD 74 C4 01             		tst	#1, r4
 1225 016a 20 41                   		beq	.L122
 982:C:/Workspace/FW_Platform2_5/trunk/ProductModules/PM_FreqFeedbacks\PM_FrequencyFeedbacks.c **** 			if(!_Disabled)
 1226                             		.loc 1 982 0
 1227 016c 61 02                   		cmp	#0, r2
 1228 016e 21 32                   		bne	.L111
 984:C:/Workspace/FW_Platform2_5/trunk/ProductModules/PM_FreqFeedbacks\PM_FrequencyFeedbacks.c **** 				PM_FrequencyFeedbacks_Interface.feedback[_pItem->position]=(PM_FrequencyFeedbacks_ValueType) (_
 1229                             		.loc 1 984 0
 1230 0170 B1 7C                   		movu.B	5[r7], r4
 1231 0172 61 04                   		cmp	#0, r4
 1232 0174 FC DB 41                		scne.L	r4
 1233 0177 2E 25                   		bra	.L150
 1234                             	.L108:
 992:C:/Workspace/FW_Platform2_5/trunk/ProductModules/PM_FreqFeedbacks\PM_FrequencyFeedbacks.c **** 		if(!_Disabled)
 1235                             		.loc 1 992 0
 1236 0179 61 02                   		cmp	#0, r2
 1237 017b 21 25                   		bne	.L111
 994:C:/Workspace/FW_Platform2_5/trunk/ProductModules/PM_FreqFeedbacks\PM_FrequencyFeedbacks.c **** 			if(PM_FrequencyFeedbacks.gridfrequency == NOM_FREQ_IS_50_HZ)
 1238                             		.loc 1 994 0
 1239 017d 59 A2 04                		movu.B	4[r10], r2
 1240                             	.LVL132:
 1241 0180 B3 74                   		movu.B	12[r7], r4
 1242 0182 61 12                   		cmp	#1, r2
 1243 0184 21 06                   		bne	.L112
 998:C:/Workspace/FW_Platform2_5/trunk/ProductModules/PM_FreqFeedbacks\PM_FrequencyFeedbacks.c **** 					PM_FrequencyFeedbacks_Interface.feedback[_pItem->position]=(PM_FrequencyFeedbacks_ValueType) P
 1244                             		.loc 1 998 0
 1245 0186 61 84                   		cmp	#8, r4
 1246 0188 2E 0C                   		bra	.L149
 1247                             	.L112:
1005:C:/Workspace/FW_Platform2_5/trunk/ProductModules/PM_FreqFeedbacks\PM_FrequencyFeedbacks.c **** 			else if(PM_FrequencyFeedbacks.gridfrequency == NOM_FREQ_IS_60_HZ)
 1248                             		.loc 1 1005 0
 1249 018a 61 02                   		cmp	#0, r2
 1250 018c 21 06                   		bne	.L114
1009:C:/Workspace/FW_Platform2_5/trunk/ProductModules/PM_FreqFeedbacks\PM_FrequencyFeedbacks.c **** 					PM_FrequencyFeedbacks_Interface.feedback[_pItem->position]=(PM_FrequencyFeedbacks_ValueType) P
 1251                             		.loc 1 1009 0
 1252 018e 61 A4                   		cmp	#10, r4
 1253 0190 2E 04                   		bra	.L149
 1254                             	.L114:
1021:C:/Workspace/FW_Platform2_5/trunk/ProductModules/PM_FreqFeedbacks\PM_FrequencyFeedbacks.c **** 					PM_FrequencyFeedbacks_Interface.feedback[_pItem->position]=(PM_FrequencyFeedbacks_ValueType) P
 1255                             		.loc 1 1021 0
 1256 0192 61 74                   		cmp	#7, r4
 1257                             		.balign 2,3,2
 1258                             	.L149:
 1259 0194 FC DB 44                		scgtu.L	r4
 1260 0197 66 32                   		mov.L	#3, r2
 1261 0199 FF 04 42                		sub	r4, r2, r4
 1262                             		.balign 2,3,5
 1263                             	.L150:
 1264 019c FE 0E C4                		mov.B	r4, [r14,r12]
 1265 019f 03                      		.balign 2,3,3
 1266                             	.L111:
1030:C:/Workspace/FW_Platform2_5/trunk/ProductModules/PM_FreqFeedbacks\PM_FrequencyFeedbacks.c **** 		PM_FrequencyFeedbacks.ready |= mask;
 1267                             		.loc 1 1030 0
 1268 01a0 06 15 A3 05             		or	5[r10].B, r3
 1269                             	.LVL133:
 1270 01a4 C7 A3 05                		mov.B	r3, 5[r10]
 1271                             	.LVL134:
1032:C:/Workspace/FW_Platform2_5/trunk/ProductModules/PM_FreqFeedbacks\PM_FrequencyFeedbacks.c **** 		status = PM_FREQUENCY_FEEDBACK_PROCESS_END;
 1272                             		.loc 1 1032 0
 1273 01a7 66 0E                   		mov.L	#0, r14
 1274                             	.LVL135:
 1275 01a9 2E 05                   		bra	.L109
 1276                             	.LVL136:
 1277                             	.L122:
 958:C:/Workspace/FW_Platform2_5/trunk/ProductModules/PM_FreqFeedbacks\PM_FrequencyFeedbacks.c **** 	PM_FrequencyFeedbacks_ProcessStatusType status = PM_FREQUENCY_FEEDBACK_PROCESS_WORKING;
 1278                             		.loc 1 958 0
 1279 01ab 66 1E                   		mov.L	#1, r14
 1280                             	.LVL137:
 1281 01ad 03                      		.balign 2,3,5
 1282                             	.L109:
1035:C:/Workspace/FW_Platform2_5/trunk/ProductModules/PM_FreqFeedbacks\PM_FrequencyFeedbacks.c **** 	PM_FrequencyFeedbacks.reliable |= PM_FrequencyFeedbacks.ready;
 1283                             		.loc 1 1035 0
 1284 01ae CD A4 06                		mov.B	6[r10], r4
 1285 01b1 CD A3 05                		mov.B	5[r10], r3
 1286 01b4 57 34                   		or	r3, r4
 1287 01b6 C7 A4 06                		mov.B	r4, 6[r10]
1037:C:/Workspace/FW_Platform2_5/trunk/ProductModules/PM_FreqFeedbacks\PM_FrequencyFeedbacks.c **** 	if((status == PM_FREQUENCY_FEEDBACK_PROCESS_END))
 1288                             		.loc 1 1037 0
 1289 01b9 61 0E                   		cmp	#0, r14
 1290 01bb 21 09                   		bne	.L117
1041:C:/Workspace/FW_Platform2_5/trunk/ProductModules/PM_FreqFeedbacks\PM_FrequencyFeedbacks.c **** 		PM_FrequencyFeedbacks_RestartFeedback(_pItem);
 1291                             		.loc 1 1041 0
 1292 01bd EF 71                   		mov.L	r7, r1
 1293 01bf 05 00 00 00             		bsr	_PM_FrequencyFeedbacks_RestartFeedback
 1294                             	.LVL138:
 1295 01c3 03                      		.balign 2,3,5
 1296                             	.L117:
1048:C:/Workspace/FW_Platform2_5/trunk/ProductModules/PM_FreqFeedbacks\PM_FrequencyFeedbacks.c **** 	if (!(_pItem->control &  PM_FF_ITEM_CTRL_SAMPLE_ENABLED ))
 1297                             		.loc 1 1048 0
 1298 01c4 8A F4                   		mov.B	10[r7], r4
 1299                             	.LBE55:
 1300 01c6 EF 4E                   		mov.L	r4, r14
 1301 01c8 64 1E                   		and	#1, r14
 1302                             	.LBB56:
 1303 01ca 21 24                   		bne	.L118
1050:C:/Workspace/FW_Platform2_5/trunk/ProductModules/PM_FreqFeedbacks\PM_FrequencyFeedbacks.c **** 		if(_pItem->timetorestart > 0)
 1304                             		.loc 1 1050 0
 1305 01cc 98 FB                   		mov.W	6[r7], r3
 1306 01ce DF 32                   		mov.W	r3, r2
 1307 01d0 61 02                   		cmp	#0, r2
 1308 01d2 2B 08                   		ble	.L119
1052:C:/Workspace/FW_Platform2_5/trunk/ProductModules/PM_FreqFeedbacks\PM_FrequencyFeedbacks.c **** 			_pItem->timetorestart--;
 1309                             		.loc 1 1052 0
 1310 01d4 60 13                   		sub	#1, r3
 1311 01d6 90 FB                   		mov.W	r3, 6[r7]
 1312 01d8 2E 16                   		bra	.L118
 1313                             	.L119:
 1314                             	.LBB48:
 1315                             	.LBB49:
 848:C:/Workspace/FW_Platform2_5/trunk/ProductModules/PM_FreqFeedbacks\PM_FrequencyFeedbacks.c **** 	_pItem->status &= ~(PM_FF_ITEM_STATUS_SAMPLES_READY);
 1316                             		.loc 1 848 0
 1317 01da 8A FB                   		mov.B	11[r7], r3
 851:C:/Workspace/FW_Platform2_5/trunk/ProductModules/PM_FreqFeedbacks\PM_FrequencyFeedbacks.c **** 	_pItem->control |= PM_FF_ITEM_CTRL_SAMPLE_ENABLED;
 1318                             		.loc 1 851 0
 1319 01dc 65 14                   		or	#1, r4
 848:C:/Workspace/FW_Platform2_5/trunk/ProductModules/PM_FreqFeedbacks\PM_FrequencyFeedbacks.c **** 	_pItem->status &= ~(PM_FF_ITEM_STATUS_SAMPLES_READY);
 1320                             		.loc 1 848 0
 1321 01de 75 23 FE                		and	#-2, r3
 1322                             	.LBE49:
 1323                             	.LBE48:
1056:C:/Workspace/FW_Platform2_5/trunk/ProductModules/PM_FreqFeedbacks\PM_FrequencyFeedbacks.c **** 			_pItem->timetorestart = CONFIG_FREQUENCY_FEEDBACKS_MAX_DELAY_TO_RESTART_SAMPLING;
 1324                             		.loc 1 1056 0
 1325 01e1 3D 73 1E                		mov.W	#30, 6[r7]
 1326                             	.LVL139:
 1327                             	.LBB51:
 1328                             	.LBB50:
 848:C:/Workspace/FW_Platform2_5/trunk/ProductModules/PM_FreqFeedbacks\PM_FrequencyFeedbacks.c **** 	_pItem->status &= ~(PM_FF_ITEM_STATUS_SAMPLES_READY);
 1329                             		.loc 1 848 0
 1330 01e4 82 FB                   		mov.B	r3, 11[r7]
 849:C:/Workspace/FW_Platform2_5/trunk/ProductModules/PM_FreqFeedbacks\PM_FrequencyFeedbacks.c **** 	_pItem->hlsamples = 0;
 1331                             		.loc 1 849 0
 1332 01e6 C7 7E 04                		mov.B	r14, 4[r7]
 850:C:/Workspace/FW_Platform2_5/trunk/ProductModules/PM_FreqFeedbacks\PM_FrequencyFeedbacks.c **** 	_pItem->samples = 0;
 1333                             		.loc 1 850 0
 1334 01e9 C7 7E 03                		mov.B	r14, 3[r7]
 851:C:/Workspace/FW_Platform2_5/trunk/ProductModules/PM_FreqFeedbacks\PM_FrequencyFeedbacks.c **** 	_pItem->control |= PM_FF_ITEM_CTRL_SAMPLE_ENABLED;
 1335                             		.loc 1 851 0
 1336 01ec 82 F4                   		mov.B	r4, 10[r7]
 1337                             	.LVL140:
 1338                             		.balign 2,3,5
 1339                             	.L118:
 1340                             	.LBE50:
 1341                             	.LBE51:
 1342                             	.LBE56:
 1343                             	.LBE63:
 775:C:/Workspace/FW_Platform2_5/trunk/ProductModules/PM_FreqFeedbacks\PM_FrequencyFeedbacks.c **** 			PM_FrequencyFeedbacks.item[inputindex].status &= ~PM_FF_ITEM_STATUS_PULSE;
 1344                             		.loc 1 775 0
 1345 01ee CD B7 01                		mov.B	1[r11], r7
 1346                             	.LVL141:
 1347 01f1 75 27 EF                		and	#-17, r7
 1348 01f4 C7 B7 01                		mov.B	r7, 1[r11]
 1349                             	.LVL142:
 1350 01f7 03                      		.balign 2,3,1
 1351                             	.L95:
 1352 01f8 62 1D                   		add	#1, r13
 1353 01fa 62 EB                   		add	#14, r11
 1354                             		.balign 2,3,1
 1355                             	.L93:
 757:C:/Workspace/FW_Platform2_5/trunk/ProductModules/PM_FreqFeedbacks\PM_FrequencyFeedbacks.c **** 	for(inputindex = 0; inputindex < PM_FrequencyFeedbacks.number; inputindex ++)
 1356                             		.loc 1 757 0 discriminator 1
 1357 01fc 44 AD                   		cmp	[r10].UB, r13
 1358 01fe 28 05 38 57 FE          		blt	.L120
 780:C:/Workspace/FW_Platform2_5/trunk/ProductModules/PM_FreqFeedbacks\PM_FrequencyFeedbacks.c **** }
 1359                             		.loc 1 780 0
 1360 0203 3F 7D 07                		rtsd	#28, r7-r13
 1361                             	.LFE10:
 1363                             		.comm	_PM_FrequencyFeedbacks_Interface,5,1
 1364                             		.section	.bss.PM_FrequencyFeedbacks,"aw",@nobits
 1365                             		.balign 2
 1368                             	_PM_FrequencyFeedbacks:
 1369 0000 00 00 00 00 00 00 00 00 		.zero	64
 1369      00 00 00 00 00 00 00 00 
 1369      00 00 00 00 00 00 00 00 
 1369      00 00 00 00 00 00 00 00 
 1369      00 00 00 00 00 00 00 00 
 1370                             		.section	.rodata.PM_FrequencyFeedbacks_TOnFilter,"a",@progbits
 1371                             		.balign 4
 1374                             	_PM_FrequencyFeedbacks_TOnFilter:
 1375 0000 00 76 D6 82             		.long	0x76d682
 1376 0004 00 8E 9B 02             		.long	0x8e9b02
 1377                             		.section	.rodata.PM_FrequencyFeedbacks_PeriodFilter,"a",@progbits
 1378                             		.balign 4
 1381                             	_PM_FrequencyFeedbacks_PeriodFilter:
 1382 0000 00 ED AD 03             		.long	0xedad03
 1383 0004 01 1D 36 04             		.long	0x11d3604
 1610                             	.Letext0:
 1611                             		.file 2 "C:\\Workspace\\FW_Platform2_5\\trunk\\HAL\\HAL_General/StandardTypes.h"
 1612                             		.file 3 "C:\\Workspace\\FW_Platform2_5\\trunk\\HAL\\RN_RX200/RN_RX200_cfg.h"
 1613                             		.file 4 "C:\\Workspace\\FW_Platform2_5\\trunk\\Drivers/IO_driver.h"
 1614                             		.file 5 "C:\\Workspace\\FW_Platform2_5\\trunk\\Drivers\\OCTPM/OCTPM_drv.h"
 1615                             		.file 6 "C:\\Workspace\\FW_Platform2_5\\trunk\\PlatformLibrary\\LIB_IOManager/InputManagerExp.h"
 1616                             		.file 7 "C:/Workspace/FW_Platform2_5/trunk/ProductModules/PM_FreqFeedbacks/PM_FrequencyFeedbacksEx
 1617                             		.file 8 "C:\\Workspace\\FW_Platform2_5\\trunk\\PlatformLibrary\\LIB_Error/LIB_Error.h"
 1618                             		.file 9 "C:\\Workspace\\FW_Platform2_5\\trunk\\Drivers\\OCDIO/OCDIO_drv.h"
 1619                             		.file 10 "C:\\Workspace\\FW_Platform2_5\\trunk\\PlatformLibrary\\LIB_IOManager/IOSharing.h"
 1620                             		.file 11 "C:\\Workspace\\FW_Platform2_5\\trunk\\PlatformLibrary\\LIB_DigitalIO/DigitalInputs.h"
 1621                             		.file 12 "C:\\Workspace\\FW_Platform2_5\\trunk\\PlatformLibrary\\LIB_ZeroCrossing/Lib_ZeroCrossing
