   1                             		.file	"PM_SWalarms.c"
   2                             		.section P,"ax"
   3                             	.Ltext0:
   4                             		.section	.text.PM_SWalarmsConvNsecInTicks,"ax",@progbits
   5                             		.global	_PM_SWalarmsConvNsecInTicks
   7                             	_PM_SWalarmsConvNsecInTicks:
   8                             	.LFB0:
   9                             		.file 1 "C:/Workspace/FW_Platform2_5/trunk/ProductModules/PM_SWalarms/PM_SWalarms.c"
   1:C:/Workspace/FW_Platform2_5/trunk/ProductModules/PM_SWalarms\PM_SWalarms.c **** /*
   2:C:/Workspace/FW_Platform2_5/trunk/ProductModules/PM_SWalarms\PM_SWalarms.c **** Copyright (c) 2004-2005, Indesit Company, I.D.D..
   3:C:/Workspace/FW_Platform2_5/trunk/ProductModules/PM_SWalarms\PM_SWalarms.c **** Tutti i diritti sono riservati. All rights reserved.
   4:C:/Workspace/FW_Platform2_5/trunk/ProductModules/PM_SWalarms\PM_SWalarms.c **** */
   5:C:/Workspace/FW_Platform2_5/trunk/ProductModules/PM_SWalarms\PM_SWalarms.c **** 
   6:C:/Workspace/FW_Platform2_5/trunk/ProductModules/PM_SWalarms\PM_SWalarms.c **** /**
   7:C:/Workspace/FW_Platform2_5/trunk/ProductModules/PM_SWalarms\PM_SWalarms.c **** \n
   8:C:/Workspace/FW_Platform2_5/trunk/ProductModules/PM_SWalarms\PM_SWalarms.c **** \par		PM_SWalarms.c
   9:C:/Workspace/FW_Platform2_5/trunk/ProductModules/PM_SWalarms\PM_SWalarms.c **** \n			Implementation of all functions necessary to achieve the aim.
  10:C:/Workspace/FW_Platform2_5/trunk/ProductModules/PM_SWalarms\PM_SWalarms.c **** \n
  11:C:/Workspace/FW_Platform2_5/trunk/ProductModules/PM_SWalarms\PM_SWalarms.c **** \file		PM_SWalarms.c
  12:C:/Workspace/FW_Platform2_5/trunk/ProductModules/PM_SWalarms\PM_SWalarms.c **** \ingroup	PM_SwAlarms
  13:C:/Workspace/FW_Platform2_5/trunk/ProductModules/PM_SWalarms\PM_SWalarms.c **** \date		Feb 15, 2011
  14:C:/Workspace/FW_Platform2_5/trunk/ProductModules/PM_SWalarms\PM_SWalarms.c **** \version	01.00.00
  15:C:/Workspace/FW_Platform2_5/trunk/ProductModules/PM_SWalarms\PM_SWalarms.c **** \author		stefano.ughi
  16:C:/Workspace/FW_Platform2_5/trunk/ProductModules/PM_SWalarms\PM_SWalarms.c **** \n
  17:C:/Workspace/FW_Platform2_5/trunk/ProductModules/PM_SWalarms\PM_SWalarms.c **** \n
  18:C:/Workspace/FW_Platform2_5/trunk/ProductModules/PM_SWalarms\PM_SWalarms.c **** \par	History:
  19:C:/Workspace/FW_Platform2_5/trunk/ProductModules/PM_SWalarms\PM_SWalarms.c **** \n
  20:C:/Workspace/FW_Platform2_5/trunk/ProductModules/PM_SWalarms\PM_SWalarms.c **** \n 		01.00.00
  21:C:/Workspace/FW_Platform2_5/trunk/ProductModules/PM_SWalarms\PM_SWalarms.c **** \n		Feb 15, 2011
  22:C:/Workspace/FW_Platform2_5/trunk/ProductModules/PM_SWalarms\PM_SWalarms.c **** \n		stefano.ughi
  23:C:/Workspace/FW_Platform2_5/trunk/ProductModules/PM_SWalarms\PM_SWalarms.c **** \n		changes
  24:C:/Workspace/FW_Platform2_5/trunk/ProductModules/PM_SWalarms\PM_SWalarms.c **** \n 			Creation
  25:C:/Workspace/FW_Platform2_5/trunk/ProductModules/PM_SWalarms\PM_SWalarms.c **** \n
  26:C:/Workspace/FW_Platform2_5/trunk/ProductModules/PM_SWalarms\PM_SWalarms.c **** \n
  27:C:/Workspace/FW_Platform2_5/trunk/ProductModules/PM_SWalarms\PM_SWalarms.c **** */
  28:C:/Workspace/FW_Platform2_5/trunk/ProductModules/PM_SWalarms\PM_SWalarms.c **** #define MODULE_BODY_SWALARMS
  29:C:/Workspace/FW_Platform2_5/trunk/ProductModules/PM_SWalarms\PM_SWalarms.c **** /* ******** */
  30:C:/Workspace/FW_Platform2_5/trunk/ProductModules/PM_SWalarms\PM_SWalarms.c **** /* Includes */
  31:C:/Workspace/FW_Platform2_5/trunk/ProductModules/PM_SWalarms\PM_SWalarms.c **** /* ******** */
  32:C:/Workspace/FW_Platform2_5/trunk/ProductModules/PM_SWalarms\PM_SWalarms.c **** #include "Config.h"
  33:C:/Workspace/FW_Platform2_5/trunk/ProductModules/PM_SWalarms\PM_SWalarms.c **** #include "PM_SWalarms.h"
  34:C:/Workspace/FW_Platform2_5/trunk/ProductModules/PM_SWalarms\PM_SWalarms.c **** #include "LIB_Error.h"
  35:C:/Workspace/FW_Platform2_5/trunk/ProductModules/PM_SWalarms\PM_SWalarms.c **** /* ****************** */
  36:C:/Workspace/FW_Platform2_5/trunk/ProductModules/PM_SWalarms\PM_SWalarms.c **** /* Defines and Macros */
  37:C:/Workspace/FW_Platform2_5/trunk/ProductModules/PM_SWalarms\PM_SWalarms.c **** /* ****************** */
  38:C:/Workspace/FW_Platform2_5/trunk/ProductModules/PM_SWalarms\PM_SWalarms.c **** 
  39:C:/Workspace/FW_Platform2_5/trunk/ProductModules/PM_SWalarms\PM_SWalarms.c **** 
  40:C:/Workspace/FW_Platform2_5/trunk/ProductModules/PM_SWalarms\PM_SWalarms.c **** /* *************************** */
  41:C:/Workspace/FW_Platform2_5/trunk/ProductModules/PM_SWalarms\PM_SWalarms.c **** /* Typedef, Structs and Unions */
  42:C:/Workspace/FW_Platform2_5/trunk/ProductModules/PM_SWalarms\PM_SWalarms.c **** /* *************************** */
  43:C:/Workspace/FW_Platform2_5/trunk/ProductModules/PM_SWalarms\PM_SWalarms.c **** /** Status's flags */
  44:C:/Workspace/FW_Platform2_5/trunk/ProductModules/PM_SWalarms\PM_SWalarms.c **** typedef struct SWalarmsFlagsTag
  45:C:/Workspace/FW_Platform2_5/trunk/ProductModules/PM_SWalarms\PM_SWalarms.c **** {
  46:C:/Workspace/FW_Platform2_5/trunk/ProductModules/PM_SWalarms\PM_SWalarms.c **** 	/** If TRUE Alarm will expire before timer's overflow */
  47:C:/Workspace/FW_Platform2_5/trunk/ProductModules/PM_SWalarms\PM_SWalarms.c **** 	bool_t ToutBeforeTimerOvfl:1;
  48:C:/Workspace/FW_Platform2_5/trunk/ProductModules/PM_SWalarms\PM_SWalarms.c **** 	/** If TRUE Alarm is active */
  49:C:/Workspace/FW_Platform2_5/trunk/ProductModules/PM_SWalarms\PM_SWalarms.c **** 	bool_t AlarmActive:1;
  50:C:/Workspace/FW_Platform2_5/trunk/ProductModules/PM_SWalarms\PM_SWalarms.c **** 	/** If TRUE Alarm is expired */
  51:C:/Workspace/FW_Platform2_5/trunk/ProductModules/PM_SWalarms\PM_SWalarms.c **** 	bool_t AlarmExpired:1;
  52:C:/Workspace/FW_Platform2_5/trunk/ProductModules/PM_SWalarms\PM_SWalarms.c **** 	bool_t Free:5;
  53:C:/Workspace/FW_Platform2_5/trunk/ProductModules/PM_SWalarms\PM_SWalarms.c **** } SWalarmsFlags_t;
  54:C:/Workspace/FW_Platform2_5/trunk/ProductModules/PM_SWalarms\PM_SWalarms.c **** /** Software alarm config. */
  55:C:/Workspace/FW_Platform2_5/trunk/ProductModules/PM_SWalarms\PM_SWalarms.c **** typedef struct SWalarmsTag
  56:C:/Workspace/FW_Platform2_5/trunk/ProductModules/PM_SWalarms\PM_SWalarms.c **** {
  57:C:/Workspace/FW_Platform2_5/trunk/ProductModules/PM_SWalarms\PM_SWalarms.c **** 	/** Time when you call PM_SWalarmsSet() [ticks]*/
  58:C:/Workspace/FW_Platform2_5/trunk/ProductModules/PM_SWalarms\PM_SWalarms.c **** 	IO_HwTimerType Tstart;
  59:C:/Workspace/FW_Platform2_5/trunk/ProductModules/PM_SWalarms\PM_SWalarms.c **** 	/** Timeout [ticks] */
  60:C:/Workspace/FW_Platform2_5/trunk/ProductModules/PM_SWalarms\PM_SWalarms.c **** 	IO_HwTimerType Tout;
  61:C:/Workspace/FW_Platform2_5/trunk/ProductModules/PM_SWalarms\PM_SWalarms.c **** 	/** Flags */
  62:C:/Workspace/FW_Platform2_5/trunk/ProductModules/PM_SWalarms\PM_SWalarms.c **** 	SWalarmsFlags_t Flags;
  63:C:/Workspace/FW_Platform2_5/trunk/ProductModules/PM_SWalarms\PM_SWalarms.c **** } SWalarms_t;
  64:C:/Workspace/FW_Platform2_5/trunk/ProductModules/PM_SWalarms\PM_SWalarms.c **** 
  65:C:/Workspace/FW_Platform2_5/trunk/ProductModules/PM_SWalarms\PM_SWalarms.c **** 
  66:C:/Workspace/FW_Platform2_5/trunk/ProductModules/PM_SWalarms\PM_SWalarms.c **** /* ********* */
  67:C:/Workspace/FW_Platform2_5/trunk/ProductModules/PM_SWalarms\PM_SWalarms.c **** /* Variables */
  68:C:/Workspace/FW_Platform2_5/trunk/ProductModules/PM_SWalarms\PM_SWalarms.c **** /* ********* */
  69:C:/Workspace/FW_Platform2_5/trunk/ProductModules/PM_SWalarms\PM_SWalarms.c **** 
  70:C:/Workspace/FW_Platform2_5/trunk/ProductModules/PM_SWalarms\PM_SWalarms.c **** /* Global */
  71:C:/Workspace/FW_Platform2_5/trunk/ProductModules/PM_SWalarms\PM_SWalarms.c **** 
  72:C:/Workspace/FW_Platform2_5/trunk/ProductModules/PM_SWalarms\PM_SWalarms.c **** /* Static */
  73:C:/Workspace/FW_Platform2_5/trunk/ProductModules/PM_SWalarms\PM_SWalarms.c **** /** Vars to manage software alarms */
  74:C:/Workspace/FW_Platform2_5/trunk/ProductModules/PM_SWalarms\PM_SWalarms.c **** static SWalarms_t SWalarms[NUM_SW_ALARMS];
  75:C:/Workspace/FW_Platform2_5/trunk/ProductModules/PM_SWalarms\PM_SWalarms.c **** 
  76:C:/Workspace/FW_Platform2_5/trunk/ProductModules/PM_SWalarms\PM_SWalarms.c **** /* ******************* */
  77:C:/Workspace/FW_Platform2_5/trunk/ProductModules/PM_SWalarms\PM_SWalarms.c **** /* Functions Prototype */
  78:C:/Workspace/FW_Platform2_5/trunk/ProductModules/PM_SWalarms\PM_SWalarms.c **** /* ******************* */
  79:C:/Workspace/FW_Platform2_5/trunk/ProductModules/PM_SWalarms\PM_SWalarms.c **** 
  80:C:/Workspace/FW_Platform2_5/trunk/ProductModules/PM_SWalarms\PM_SWalarms.c **** /* Exported function */
  81:C:/Workspace/FW_Platform2_5/trunk/ProductModules/PM_SWalarms\PM_SWalarms.c **** 
  82:C:/Workspace/FW_Platform2_5/trunk/ProductModules/PM_SWalarms\PM_SWalarms.c **** /* Local Function */
  83:C:/Workspace/FW_Platform2_5/trunk/ProductModules/PM_SWalarms\PM_SWalarms.c **** 
  84:C:/Workspace/FW_Platform2_5/trunk/ProductModules/PM_SWalarms\PM_SWalarms.c **** /* *************** */
  85:C:/Workspace/FW_Platform2_5/trunk/ProductModules/PM_SWalarms\PM_SWalarms.c **** /* Function Bodies */
  86:C:/Workspace/FW_Platform2_5/trunk/ProductModules/PM_SWalarms\PM_SWalarms.c **** /* *************** */
  87:C:/Workspace/FW_Platform2_5/trunk/ProductModules/PM_SWalarms\PM_SWalarms.c **** 
  88:C:/Workspace/FW_Platform2_5/trunk/ProductModules/PM_SWalarms\PM_SWalarms.c **** /* Exported function */
  89:C:/Workspace/FW_Platform2_5/trunk/ProductModules/PM_SWalarms\PM_SWalarms.c **** /**
  90:C:/Workspace/FW_Platform2_5/trunk/ProductModules/PM_SWalarms\PM_SWalarms.c **** Converts a time, expressed in nSec, in ticks
  91:C:/Workspace/FW_Platform2_5/trunk/ProductModules/PM_SWalarms\PM_SWalarms.c **** 
  92:C:/Workspace/FW_Platform2_5/trunk/ProductModules/PM_SWalarms\PM_SWalarms.c **** \param  [in]		timeNsec time in nSec
  93:C:/Workspace/FW_Platform2_5/trunk/ProductModules/PM_SWalarms\PM_SWalarms.c **** 
  94:C:/Workspace/FW_Platform2_5/trunk/ProductModules/PM_SWalarms\PM_SWalarms.c **** \return 	IO_HwTimerType
  95:C:/Workspace/FW_Platform2_5/trunk/ProductModules/PM_SWalarms\PM_SWalarms.c **** 
  96:C:/Workspace/FW_Platform2_5/trunk/ProductModules/PM_SWalarms\PM_SWalarms.c **** \retval		time in ticks
  97:C:/Workspace/FW_Platform2_5/trunk/ProductModules/PM_SWalarms\PM_SWalarms.c **** 
  98:C:/Workspace/FW_Platform2_5/trunk/ProductModules/PM_SWalarms\PM_SWalarms.c **** \author 	stefano.ughi
  99:C:/Workspace/FW_Platform2_5/trunk/ProductModules/PM_SWalarms\PM_SWalarms.c **** \date		Feb 15, 2011
 100:C:/Workspace/FW_Platform2_5/trunk/ProductModules/PM_SWalarms\PM_SWalarms.c **** \version	1.0.0
 101:C:/Workspace/FW_Platform2_5/trunk/ProductModules/PM_SWalarms\PM_SWalarms.c **** 
 102:C:/Workspace/FW_Platform2_5/trunk/ProductModules/PM_SWalarms\PM_SWalarms.c **** 
 103:C:/Workspace/FW_Platform2_5/trunk/ProductModules/PM_SWalarms\PM_SWalarms.c **** \note		\par \b Note 1:
 104:C:/Workspace/FW_Platform2_5/trunk/ProductModules/PM_SWalarms\PM_SWalarms.c **** 			documentation by stefano.ughi
 105:C:/Workspace/FW_Platform2_5/trunk/ProductModules/PM_SWalarms\PM_SWalarms.c **** 
 106:C:/Workspace/FW_Platform2_5/trunk/ProductModules/PM_SWalarms\PM_SWalarms.c **** */
 107:C:/Workspace/FW_Platform2_5/trunk/ProductModules/PM_SWalarms\PM_SWalarms.c **** IO_HwTimerType PM_SWalarmsConvNsecInTicks(IO_TimingValueType timeNsec)
 108:C:/Workspace/FW_Platform2_5/trunk/ProductModules/PM_SWalarms\PM_SWalarms.c **** {
  10                             		.loc 1 108 0
  11                             	.LVL0:
  12 0000 7E A7                   		push.l	r7
  13                             	.LCFI0:
  14                             		.loc 1 108 0
  15 0002 EF 17                   		mov.L	r1, r7
 109:C:/Workspace/FW_Platform2_5/trunk/ProductModules/PM_SWalarms\PM_SWalarms.c **** 	IO_TickResType tickResNSec;
 110:C:/Workspace/FW_Platform2_5/trunk/ProductModules/PM_SWalarms\PM_SWalarms.c **** 	tickResNSec = OCHWCNTR_GetTickResolution(SW_ALARMS_HW_TMR_ID);
  16                             		.loc 1 110 0
  17 0004 66 01                   		mov	#0, r1
  18                             	.LVL1:
  19 0006 05 00 00 00             		bsr	_OCHWCNTR_GetTickResolution
  20                             	.LVL2:
 111:C:/Workspace/FW_Platform2_5/trunk/ProductModules/PM_SWalarms\PM_SWalarms.c **** 	return (IO_HwTimerType)(timeNsec/tickResNSec);
  21                             		.loc 1 111 0
  22 000a 5F 11                   		movu.W	r1, r1
  23 000c FC 27 17                		divu	r1, r7
  24                             	.LVL3:
 112:C:/Workspace/FW_Platform2_5/trunk/ProductModules/PM_SWalarms\PM_SWalarms.c **** }
  25                             		.loc 1 112 0
  26 000f 5F 71                   		movu.W	r7, r1
  27                             	.LVL4:
  28 0011 3F 77 01                		rtsd	#4, r7-r7
  29                             	.LFE0:
  31                             		.section	.text.PM_SWalarmsSet,"ax",@progbits
  32                             		.global	_PM_SWalarmsSet
  34                             	_PM_SWalarmsSet:
  35                             	.LFB1:
 113:C:/Workspace/FW_Platform2_5/trunk/ProductModules/PM_SWalarms\PM_SWalarms.c **** 
 114:C:/Workspace/FW_Platform2_5/trunk/ProductModules/PM_SWalarms\PM_SWalarms.c **** /**
 115:C:/Workspace/FW_Platform2_5/trunk/ProductModules/PM_SWalarms\PM_SWalarms.c **** \n Sets a software alarm.
 116:C:/Workspace/FW_Platform2_5/trunk/ProductModules/PM_SWalarms\PM_SWalarms.c **** 
 117:C:/Workspace/FW_Platform2_5/trunk/ProductModules/PM_SWalarms\PM_SWalarms.c **** \param  [in]		swAlarmId alarm Id.
 118:C:/Workspace/FW_Platform2_5/trunk/ProductModules/PM_SWalarms\PM_SWalarms.c **** \param  [in]		alarm timeout in ticks
 119:C:/Workspace/FW_Platform2_5/trunk/ProductModules/PM_SWalarms\PM_SWalarms.c **** 
 120:C:/Workspace/FW_Platform2_5/trunk/ProductModules/PM_SWalarms\PM_SWalarms.c **** 
 121:C:/Workspace/FW_Platform2_5/trunk/ProductModules/PM_SWalarms\PM_SWalarms.c **** \author 	stefano.ughi
 122:C:/Workspace/FW_Platform2_5/trunk/ProductModules/PM_SWalarms\PM_SWalarms.c **** \date		Feb 16, 2011
 123:C:/Workspace/FW_Platform2_5/trunk/ProductModules/PM_SWalarms\PM_SWalarms.c **** \version	1.0.0
 124:C:/Workspace/FW_Platform2_5/trunk/ProductModules/PM_SWalarms\PM_SWalarms.c **** 
 125:C:/Workspace/FW_Platform2_5/trunk/ProductModules/PM_SWalarms\PM_SWalarms.c **** 
 126:C:/Workspace/FW_Platform2_5/trunk/ProductModules/PM_SWalarms\PM_SWalarms.c **** \note		\par \b Note 1:
 127:C:/Workspace/FW_Platform2_5/trunk/ProductModules/PM_SWalarms\PM_SWalarms.c **** 			documentation by stefano.ughi
 128:C:/Workspace/FW_Platform2_5/trunk/ProductModules/PM_SWalarms\PM_SWalarms.c **** 
 129:C:/Workspace/FW_Platform2_5/trunk/ProductModules/PM_SWalarms\PM_SWalarms.c **** */
 130:C:/Workspace/FW_Platform2_5/trunk/ProductModules/PM_SWalarms\PM_SWalarms.c **** void PM_SWalarmsSet( SW_AlarmType swAlarmId, IO_HwTimerType alarm)
 131:C:/Workspace/FW_Platform2_5/trunk/ProductModules/PM_SWalarms\PM_SWalarms.c **** {
  36                             		.loc 1 131 0
  37                             	.LVL5:
  38 0000 6E 7B                   		pushm	r7-r11
  39                             	.LCFI1:
  40                             		.loc 1 131 0
  41 0002 CF 17                   		mov.B	r1, r7
 132:C:/Workspace/FW_Platform2_5/trunk/ProductModules/PM_SWalarms\PM_SWalarms.c ****     Period_ValueType tmpModulus = OCHWCNTR_GetTimerModulus(SW_ALARMS_HW_TMR_ID);
  42                             		.loc 1 132 0
  43 0004 66 01                   		mov	#0, r1
  44                             	.LVL6:
 131:C:/Workspace/FW_Platform2_5/trunk/ProductModules/PM_SWalarms\PM_SWalarms.c **** {
  45                             		.loc 1 131 0
  46 0006 DF 2B                   		mov.W	r2, r11
 133:C:/Workspace/FW_Platform2_5/trunk/ProductModules/PM_SWalarms\PM_SWalarms.c **** 
 134:C:/Workspace/FW_Platform2_5/trunk/ProductModules/PM_SWalarms\PM_SWalarms.c **** 	PLT_ERROR_FATAL_IF(( swAlarmId >= NUM_SW_ALARMS ) || (alarm > tmpModulus), PLT_ERROR_SWAL_INVALID)
  47                             		.loc 1 134 0
  48 0008 5B 77                   		movu.B	r7, r7
  49                             	.LVL7:
 132:C:/Workspace/FW_Platform2_5/trunk/ProductModules/PM_SWalarms\PM_SWalarms.c ****     Period_ValueType tmpModulus = OCHWCNTR_GetTimerModulus(SW_ALARMS_HW_TMR_ID);
  50                             		.loc 1 132 0
  51 000a 05 00 00 00             		bsr	_OCHWCNTR_GetTimerModulus
  52                             	.LVL8:
  53                             		.loc 1 134 0
  54 000e 61 77                   		cmp	#7, r7
 132:C:/Workspace/FW_Platform2_5/trunk/ProductModules/PM_SWalarms\PM_SWalarms.c ****     Period_ValueType tmpModulus = OCHWCNTR_GetTimerModulus(SW_ALARMS_HW_TMR_ID);
  55                             		.loc 1 132 0
  56 0010 DF 1A                   		mov.W	r1, r10
  57                             	.LVL9:
  58                             		.loc 1 134 0
  59 0012 24 0A                   		bgtu	.L4
  60                             		.loc 1 134 0 is_stmt 0 discriminator 2
  61 0014 5F B4                   		movu.W	r11, r4
  62 0016 5F 1E                   		movu.W	r1, r14
  63 0018 47 E4                   		cmp	r14, r4
  64 001a 25 0A                   		bleu	.L5
  65                             		.balign 2,3,2
  66                             	.L4:
  67                             		.loc 1 134 0 discriminator 1
  68 001c 75 41 44                		mov.L	#0x44, r1
  69                             	.LVL10:
  70 001f 05 00 00 00             		bsr	_LIB_Error_Fatal_Handler
  71                             	.LVL11:
  72 0023 03                      		.balign 2,3,1
  73                             	.L5:
 135:C:/Workspace/FW_Platform2_5/trunk/ProductModules/PM_SWalarms\PM_SWalarms.c **** 
 136:C:/Workspace/FW_Platform2_5/trunk/ProductModules/PM_SWalarms\PM_SWalarms.c **** 
 137:C:/Workspace/FW_Platform2_5/trunk/ProductModules/PM_SWalarms\PM_SWalarms.c **** 	SWalarms[swAlarmId].Tstart = OCHWCNTR_GetTicksSync(SW_ALARMS_HW_TMR_ID);
  74                             		.loc 1 137 0 is_stmt 1
  75 0024 66 01                   		mov	#0, r1
  76 0026 05 00 00 00             		bsr	_OCHWCNTR_GetTicksSync
  77                             	.LVL12:
 138:C:/Workspace/FW_Platform2_5/trunk/ProductModules/PM_SWalarms\PM_SWalarms.c **** 	SWalarms[swAlarmId].Tout = (IO_HwTimerType) (((uint32_t) SWalarms[swAlarmId].Tstart + alarm) % tmp
  78                             		.loc 1 138 0
  79 002a 5F BB                   		movu.W	r11, r11
  80 002c 4B 1B                   		add	r1, r11
  81                             	.LVL13:
  82 002e 5F AA                   		movu.W	r10, r10
  83 0030 EF B3                   		mov.L	r11, r3
  84 0032 FC 27 A3                		divu	r10, r3
  85 0035 4F 3A                   		mul	r3, r10
  86                             	.LVL14:
  87 0037 FF 0A AB                		sub	r10, r11, r10
 137:C:/Workspace/FW_Platform2_5/trunk/ProductModules/PM_SWalarms\PM_SWalarms.c **** 	SWalarms[swAlarmId].Tstart = OCHWCNTR_GetTicksSync(SW_ALARMS_HW_TMR_ID);
  88                             		.loc 1 137 0
  89 003a FD C3 7E                		shll	#3, r7, r14
  90 003d 70 EE 00 00 00 00       		add	#_SWalarms, r14
 139:C:/Workspace/FW_Platform2_5/trunk/ProductModules/PM_SWalarms\PM_SWalarms.c **** 
 140:C:/Workspace/FW_Platform2_5/trunk/ProductModules/PM_SWalarms\PM_SWalarms.c **** 	if ( SWalarms[swAlarmId].Tout > SWalarms[swAlarmId].Tstart )
  91                             		.loc 1 140 0
  92 0043 5F AB                   		movu.W	r10, r11
 138:C:/Workspace/FW_Platform2_5/trunk/ProductModules/PM_SWalarms\PM_SWalarms.c **** 	SWalarms[swAlarmId].Tout = (IO_HwTimerType) (((uint32_t) SWalarms[swAlarmId].Tstart + alarm) % tmp
  93                             		.loc 1 138 0
  94 0045 D7 EA 01                		mov.W	r10, 2[r14]
 137:C:/Workspace/FW_Platform2_5/trunk/ProductModules/PM_SWalarms\PM_SWalarms.c **** 	SWalarms[swAlarmId].Tstart = OCHWCNTR_GetTicksSync(SW_ALARMS_HW_TMR_ID);
  95                             		.loc 1 137 0
  96 0048 D3 E1                   		mov.W	r1, [r14]
  97                             		.loc 1 140 0
  98 004a 47 1B                   		cmp	r1, r11
  99 004c CD EA 04                		mov.B	4[r14], r10
 100 004f 25 06                   		bleu	.L6
 141:C:/Workspace/FW_Platform2_5/trunk/ProductModules/PM_SWalarms\PM_SWalarms.c **** 	{
 142:C:/Workspace/FW_Platform2_5/trunk/ProductModules/PM_SWalarms\PM_SWalarms.c **** 		/* Timeout will expire before timer's overflow */
 143:C:/Workspace/FW_Platform2_5/trunk/ProductModules/PM_SWalarms\PM_SWalarms.c **** 		SWalarms[swAlarmId].Flags.ToutBeforeTimerOvfl = TRUE;
 101                             		.loc 1 143 0
 102 0051 78 7A                   		bset	#7, r10
 103 0053 2E 05                   		bra	.L9
 104                             	.L6:
 144:C:/Workspace/FW_Platform2_5/trunk/ProductModules/PM_SWalarms\PM_SWalarms.c **** 	}
 145:C:/Workspace/FW_Platform2_5/trunk/ProductModules/PM_SWalarms\PM_SWalarms.c **** 	else
 146:C:/Workspace/FW_Platform2_5/trunk/ProductModules/PM_SWalarms\PM_SWalarms.c **** 	{
 147:C:/Workspace/FW_Platform2_5/trunk/ProductModules/PM_SWalarms\PM_SWalarms.c **** 		/* Timeout will expire after timer's overflow */
 148:C:/Workspace/FW_Platform2_5/trunk/ProductModules/PM_SWalarms\PM_SWalarms.c **** 		SWalarms[swAlarmId].Flags.ToutBeforeTimerOvfl = FALSE;
 105                             		.loc 1 148 0
 106 0055 7A 7A                   		bclr	#7, r10
 107 0057 03                      		.balign 2,3,1
 108                             	.L9:
 149:C:/Workspace/FW_Platform2_5/trunk/ProductModules/PM_SWalarms\PM_SWalarms.c **** 	}
 150:C:/Workspace/FW_Platform2_5/trunk/ProductModules/PM_SWalarms\PM_SWalarms.c **** 	SWalarms[swAlarmId].Flags.AlarmExpired = FALSE;
 109                             		.loc 1 150 0
 110 0058 6C 37                   		shll	#3, r7
 111                             	.LVL15:
 148:C:/Workspace/FW_Platform2_5/trunk/ProductModules/PM_SWalarms\PM_SWalarms.c **** 		SWalarms[swAlarmId].Flags.ToutBeforeTimerOvfl = FALSE;
 112                             		.loc 1 148 0
 113 005a C7 EA 04                		mov.B	r10, 4[r14]
 114                             		.loc 1 150 0
 115 005d 70 77 00 00 00 00       		add	#_SWalarms, r7
 116 0063 CD 7A 04                		mov.B	4[r7], r10
 117 0066 7A 5A                   		bclr	#5, r10
 151:C:/Workspace/FW_Platform2_5/trunk/ProductModules/PM_SWalarms\PM_SWalarms.c **** 	SWalarms[swAlarmId].Flags.AlarmActive = TRUE;
 118                             		.loc 1 151 0
 119 0068 78 6A                   		bset	#6, r10
 120 006a C7 7A 04                		mov.B	r10, 4[r7]
 152:C:/Workspace/FW_Platform2_5/trunk/ProductModules/PM_SWalarms\PM_SWalarms.c **** }
 121                             		.loc 1 152 0
 122 006d 3F 7B 05                		rtsd	#20, r7-r11
 123                             	.LFE1:
 125                             		.section	.text.PM_SWalarmsCheck,"ax",@progbits
 126                             		.global	_PM_SWalarmsCheck
 128                             	_PM_SWalarmsCheck:
 129                             	.LFB2:
 153:C:/Workspace/FW_Platform2_5/trunk/ProductModules/PM_SWalarms\PM_SWalarms.c **** /**
 154:C:/Workspace/FW_Platform2_5/trunk/ProductModules/PM_SWalarms\PM_SWalarms.c **** Checks if software alarm with swAlarmId is expired.
 155:C:/Workspace/FW_Platform2_5/trunk/ProductModules/PM_SWalarms\PM_SWalarms.c **** 
 156:C:/Workspace/FW_Platform2_5/trunk/ProductModules/PM_SWalarms\PM_SWalarms.c **** \param  [in]		swAlarmId alarm Id.
 157:C:/Workspace/FW_Platform2_5/trunk/ProductModules/PM_SWalarms\PM_SWalarms.c **** 
 158:C:/Workspace/FW_Platform2_5/trunk/ProductModules/PM_SWalarms\PM_SWalarms.c **** 
 159:C:/Workspace/FW_Platform2_5/trunk/ProductModules/PM_SWalarms\PM_SWalarms.c **** \author 	stefano.ughi
 160:C:/Workspace/FW_Platform2_5/trunk/ProductModules/PM_SWalarms\PM_SWalarms.c **** \date		Feb 15, 2011
 161:C:/Workspace/FW_Platform2_5/trunk/ProductModules/PM_SWalarms\PM_SWalarms.c **** \version	1.0.0
 162:C:/Workspace/FW_Platform2_5/trunk/ProductModules/PM_SWalarms\PM_SWalarms.c **** 
 163:C:/Workspace/FW_Platform2_5/trunk/ProductModules/PM_SWalarms\PM_SWalarms.c **** \note		\par \b Note 1:
 164:C:/Workspace/FW_Platform2_5/trunk/ProductModules/PM_SWalarms\PM_SWalarms.c **** 			documentation by stefano.ughi
 165:C:/Workspace/FW_Platform2_5/trunk/ProductModules/PM_SWalarms\PM_SWalarms.c **** 
 166:C:/Workspace/FW_Platform2_5/trunk/ProductModules/PM_SWalarms\PM_SWalarms.c **** */
 167:C:/Workspace/FW_Platform2_5/trunk/ProductModules/PM_SWalarms\PM_SWalarms.c **** void PM_SWalarmsCheck(SW_AlarmType swAlarmId)
 168:C:/Workspace/FW_Platform2_5/trunk/ProductModules/PM_SWalarms\PM_SWalarms.c **** {
 130                             		.loc 1 168 0
 131                             	.LVL16:
 132 0000 6E 7A                   		pushm	r7-r10
 133                             	.LCFI2:
 169:C:/Workspace/FW_Platform2_5/trunk/ProductModules/PM_SWalarms\PM_SWalarms.c **** 	IO_HwTimerType t;
 170:C:/Workspace/FW_Platform2_5/trunk/ProductModules/PM_SWalarms\PM_SWalarms.c **** 
 171:C:/Workspace/FW_Platform2_5/trunk/ProductModules/PM_SWalarms\PM_SWalarms.c **** 	PLT_ERROR_FATAL_IF(( swAlarmId >= NUM_SW_ALARMS ), PLT_ERROR_SWAL_INVALID);
 134                             		.loc 1 171 0
 135 0002 5B 1A                   		movu.B	r1, r10
 136 0004 61 7A                   		cmp	#7, r10
 137 0006 25 0A                   		bleu	.L11
 138                             		.loc 1 171 0 is_stmt 0 discriminator 1
 139 0008 75 41 44                		mov.L	#0x44, r1
 140                             	.LVL17:
 141 000b 05 00 00 00             		bsr	_LIB_Error_Fatal_Handler
 142                             	.LVL18:
 143 000f 03                      		.balign 2,3,2
 144                             	.L11:
 172:C:/Workspace/FW_Platform2_5/trunk/ProductModules/PM_SWalarms\PM_SWalarms.c **** 
 173:C:/Workspace/FW_Platform2_5/trunk/ProductModules/PM_SWalarms\PM_SWalarms.c **** 	if ( ( TRUE == SWalarms[swAlarmId].Flags.AlarmActive ) &&
 145                             		.loc 1 173 0 is_stmt 1
 146 0010 FD C3 A7                		shll	#3, r10, r7
 147 0013 70 77 00 00 00 00       		add	#_SWalarms, r7
 148 0019 A8 79                   		mov.L	4[r7], r1
 149 001b FD 70 C1 00 00 00 40    		tst	#0x40000000, r1
 150 0022 20 4A                   		beq	.L10
 174:C:/Workspace/FW_Platform2_5/trunk/ProductModules/PM_SWalarms\PM_SWalarms.c **** 	        ( FALSE == SWalarms[swAlarmId].Flags.AlarmExpired ) )
 151                             		.loc 1 174 0 discriminator 1
 152 0024 69 D1                   		shlr	#29, r1
 173:C:/Workspace/FW_Platform2_5/trunk/ProductModules/PM_SWalarms\PM_SWalarms.c **** 	if ( ( TRUE == SWalarms[swAlarmId].Flags.AlarmActive ) &&
 153                             		.loc 1 173 0 discriminator 1
 154 0026 64 11                   		and	#1, r1
 155 0028 21 44                   		bne	.L10
 175:C:/Workspace/FW_Platform2_5/trunk/ProductModules/PM_SWalarms\PM_SWalarms.c **** 	{
 176:C:/Workspace/FW_Platform2_5/trunk/ProductModules/PM_SWalarms\PM_SWalarms.c **** 		t = OCHWCNTR_GetTicksSync(SW_ALARMS_HW_TMR_ID);
 156                             		.loc 1 176 0
 157 002a 05 00 00 00             		bsr	_OCHWCNTR_GetTicksSync
 158                             	.LVL19:
 177:C:/Workspace/FW_Platform2_5/trunk/ProductModules/PM_SWalarms\PM_SWalarms.c **** 
 178:C:/Workspace/FW_Platform2_5/trunk/ProductModules/PM_SWalarms\PM_SWalarms.c **** 		if ( TRUE == SWalarms[swAlarmId].Flags.ToutBeforeTimerOvfl )
 159                             		.loc 1 178 0
 160 002e A8 7C                   		mov.L	4[r7], r4
 161 0030 5F 11                   		movu.W	r1, r1
 162 0032 61 04                   		cmp	#0, r4
 163 0034 28 22                   		bge	.L15
 179:C:/Workspace/FW_Platform2_5/trunk/ProductModules/PM_SWalarms\PM_SWalarms.c **** 		{
 180:C:/Workspace/FW_Platform2_5/trunk/ProductModules/PM_SWalarms\PM_SWalarms.c **** 			if ( (t >= SWalarms[swAlarmId].Tout) || ( t < SWalarms[swAlarmId].Tstart ) )
 164                             		.loc 1 180 0
 165 0036 06 C5 71 01             		cmp	2[r7].UW, r1
 166 003a 22 08                   		bgeu	.L16
 167                             		.loc 1 180 0 is_stmt 0 discriminator 1
 168 003c 06 C4 71                		cmp	[r7].UW, r1
 169 003f 22 2D                   		bgeu	.L10
 170 0041 03                      		.balign 2,3,1
 171                             	.L16:
 181:C:/Workspace/FW_Platform2_5/trunk/ProductModules/PM_SWalarms\PM_SWalarms.c **** 			{
 182:C:/Workspace/FW_Platform2_5/trunk/ProductModules/PM_SWalarms\PM_SWalarms.c **** 				SWalarms[swAlarmId].Flags.AlarmActive = FALSE;
 172                             		.loc 1 182 0 is_stmt 1
 173 0042 6C 3A                   		shll	#3, r10
 174                             	.LVL20:
 175 0044 70 AA 00 00 00 00       		add	#_SWalarms, r10
 176 004a CD A7 04                		mov.B	4[r10], r7
 177 004d 7A 67                   		bclr	#6, r7
 183:C:/Workspace/FW_Platform2_5/trunk/ProductModules/PM_SWalarms\PM_SWalarms.c **** 				SWalarms[swAlarmId].Flags.AlarmExpired = TRUE;
 178                             		.loc 1 183 0
 179 004f 78 57                   		bset	#5, r7
 180 0051 C7 A7 04                		mov.B	r7, 4[r10]
 181 0054 2E 18                   		bra	.L10
 182                             	.L15:
 184:C:/Workspace/FW_Platform2_5/trunk/ProductModules/PM_SWalarms\PM_SWalarms.c **** 			}
 185:C:/Workspace/FW_Platform2_5/trunk/ProductModules/PM_SWalarms\PM_SWalarms.c **** 		}
 186:C:/Workspace/FW_Platform2_5/trunk/ProductModules/PM_SWalarms\PM_SWalarms.c **** 		else
 187:C:/Workspace/FW_Platform2_5/trunk/ProductModules/PM_SWalarms\PM_SWalarms.c **** 		{
 188:C:/Workspace/FW_Platform2_5/trunk/ProductModules/PM_SWalarms\PM_SWalarms.c **** 			/* Timeout after timer's overflow,
 189:C:/Workspace/FW_Platform2_5/trunk/ProductModules/PM_SWalarms\PM_SWalarms.c **** 			   condition "t < SWalarms[swAlarmId].Tstart" ensures that timer did a turn  */
 190:C:/Workspace/FW_Platform2_5/trunk/ProductModules/PM_SWalarms\PM_SWalarms.c **** 			if ( ( t < SWalarms[swAlarmId].Tstart ) && ( t >= SWalarms[swAlarmId].Tout ) )
 183                             		.loc 1 190 0
 184 0056 06 C4 71                		cmp	[r7].UW, r1
 185 0059 22 13                   		bgeu	.L10
 186                             		.loc 1 190 0 is_stmt 0 discriminator 1
 187 005b 06 C5 71 01             		cmp	2[r7].UW, r1
 188 005f 23 0D                   		bltu	.L10
 191:C:/Workspace/FW_Platform2_5/trunk/ProductModules/PM_SWalarms\PM_SWalarms.c **** 			{
 192:C:/Workspace/FW_Platform2_5/trunk/ProductModules/PM_SWalarms\PM_SWalarms.c **** 				SWalarms[swAlarmId].Flags.AlarmActive = FALSE;
 189                             		.loc 1 192 0 is_stmt 1
 190 0061 CD 7A 04                		mov.B	4[r7], r10
 191 0064 7A 6A                   		bclr	#6, r10
 193:C:/Workspace/FW_Platform2_5/trunk/ProductModules/PM_SWalarms\PM_SWalarms.c **** 				SWalarms[swAlarmId].Flags.AlarmExpired = TRUE;
 192                             		.loc 1 193 0
 193 0066 78 5A                   		bset	#5, r10
 194 0068 C7 7A 04                		mov.B	r10, 4[r7]
 195                             	.LVL21:
 196 006b 03                      		.balign 2,3,2
 197                             	.L10:
 194:C:/Workspace/FW_Platform2_5/trunk/ProductModules/PM_SWalarms\PM_SWalarms.c **** 			}
 195:C:/Workspace/FW_Platform2_5/trunk/ProductModules/PM_SWalarms\PM_SWalarms.c **** 		}
 196:C:/Workspace/FW_Platform2_5/trunk/ProductModules/PM_SWalarms\PM_SWalarms.c **** 	}
 197:C:/Workspace/FW_Platform2_5/trunk/ProductModules/PM_SWalarms\PM_SWalarms.c **** }
 198                             		.loc 1 197 0
 199 006c 3F 7A 04                		rtsd	#16, r7-r10
 200                             	.LFE2:
 202 006f 03                      		.section	.text.PM_SWalarms_IsAlarmExpired,"ax",@progbits
 203                             		.global	_PM_SWalarms_IsAlarmExpired
 205                             	_PM_SWalarms_IsAlarmExpired:
 206                             	.LFB3:
 198:C:/Workspace/FW_Platform2_5/trunk/ProductModules/PM_SWalarms\PM_SWalarms.c **** /**
 199:C:/Workspace/FW_Platform2_5/trunk/ProductModules/PM_SWalarms\PM_SWalarms.c **** Returns the state of alarm with Id swAlarmId.
 200:C:/Workspace/FW_Platform2_5/trunk/ProductModules/PM_SWalarms\PM_SWalarms.c **** 
 201:C:/Workspace/FW_Platform2_5/trunk/ProductModules/PM_SWalarms\PM_SWalarms.c **** \param  [in]		swAlarmId alarm id
 202:C:/Workspace/FW_Platform2_5/trunk/ProductModules/PM_SWalarms\PM_SWalarms.c **** 
 203:C:/Workspace/FW_Platform2_5/trunk/ProductModules/PM_SWalarms\PM_SWalarms.c **** \author 	stefano.ughi
 204:C:/Workspace/FW_Platform2_5/trunk/ProductModules/PM_SWalarms\PM_SWalarms.c **** \date		Feb 15, 2011
 205:C:/Workspace/FW_Platform2_5/trunk/ProductModules/PM_SWalarms\PM_SWalarms.c **** \version	1.0.0
 206:C:/Workspace/FW_Platform2_5/trunk/ProductModules/PM_SWalarms\PM_SWalarms.c **** 
 207:C:/Workspace/FW_Platform2_5/trunk/ProductModules/PM_SWalarms\PM_SWalarms.c **** \note		\par \b Note 1:
 208:C:/Workspace/FW_Platform2_5/trunk/ProductModules/PM_SWalarms\PM_SWalarms.c **** 			documentation by stefano.ughi
 209:C:/Workspace/FW_Platform2_5/trunk/ProductModules/PM_SWalarms\PM_SWalarms.c **** 
 210:C:/Workspace/FW_Platform2_5/trunk/ProductModules/PM_SWalarms\PM_SWalarms.c **** */
 211:C:/Workspace/FW_Platform2_5/trunk/ProductModules/PM_SWalarms\PM_SWalarms.c **** bool_t PM_SWalarms_IsAlarmExpired(SW_AlarmType swAlarmId)
 212:C:/Workspace/FW_Platform2_5/trunk/ProductModules/PM_SWalarms\PM_SWalarms.c **** {
 207                             		.loc 1 212 0
 208                             	.LVL22:
 209 0000 7E A7                   		push.l	r7
 210                             	.LCFI3:
 213:C:/Workspace/FW_Platform2_5/trunk/ProductModules/PM_SWalarms\PM_SWalarms.c **** 	PLT_ERROR_FATAL_IF(( swAlarmId >= NUM_SW_ALARMS ), PLT_ERROR_SWAL_INVALID);
 211                             		.loc 1 213 0
 212 0002 5B 17                   		movu.B	r1, r7
 213 0004 61 77                   		cmp	#7, r7
 214 0006 25 0A                   		bleu	.L19
 215                             		.loc 1 213 0 is_stmt 0 discriminator 1
 216 0008 75 41 44                		mov.L	#0x44, r1
 217                             	.LVL23:
 218 000b 05 00 00 00             		bsr	_LIB_Error_Fatal_Handler
 219                             	.LVL24:
 220 000f 03                      		.balign 2,3,1
 221                             	.L19:
 214:C:/Workspace/FW_Platform2_5/trunk/ProductModules/PM_SWalarms\PM_SWalarms.c **** 	return(SWalarms[swAlarmId].Flags.AlarmExpired);
 222                             		.loc 1 214 0 is_stmt 1
 223 0010 6C 37                   		shll	#3, r7
 224                             	.LVL25:
 225 0012 70 77 00 00 00 00       		add	#_SWalarms, r7
 226 0018 A8 79                   		mov.L	4[r7], r1
 227 001a 69 D1                   		shlr	#29, r1
 215:C:/Workspace/FW_Platform2_5/trunk/ProductModules/PM_SWalarms\PM_SWalarms.c **** }
 228                             		.loc 1 215 0
 229 001c 64 11                   		and	#1, r1
 230 001e 3F 77 01                		rtsd	#4, r7-r7
 231                             	.LFE3:
 233 0021 03                      		.section	.bss.SWalarms,"aw",@nobits
 234                             		.balign 4
 237                             	_SWalarms:
 238 0000 00 00 00 00 00 00 00 00 		.zero	64
 238      00 00 00 00 00 00 00 00 
 238      00 00 00 00 00 00 00 00 
 238      00 00 00 00 00 00 00 00 
 238      00 00 00 00 00 00 00 00 
 327                             	.Letext0:
 328                             		.file 2 "C:\\Workspace\\FW_Platform2_5\\trunk\\HAL\\HAL_General/StandardTypes.h"
 329                             		.file 3 "C:\\Workspace\\FW_Platform2_5\\trunk\\HAL\\RN_RX200/RN_RX200_cfg.h"
 330                             		.file 4 "C:\\Workspace\\FW_Platform2_5\\trunk\\Drivers/IO_driver.h"
 331                             		.file 5 "C:/Workspace/FW_Platform2_5/trunk/ProductModules/PM_SWalarms/PM_SWalarms.h"
 332                             		.file 6 "C:\\Workspace\\FW_Platform2_5\\trunk\\PlatformLibrary\\LIB_Error/LIB_Error.h"
 333                             		.file 7 "C:\\Workspace\\FW_Platform2_5\\trunk\\Drivers\\OCTPM/OCTPM_drv.h"
