   1                             		.file	"vector_table.c"
   2                             		.section P,"ax"
   3                             	.Ltext0:
   4                             		.section	.text._IllegalException,"ax",@progbits
   6                             	__IllegalException:
   7                             	.LFB0:
   8                             		.file 1 "C:/Workspace/FW_Platform2_5/trunk/HAL/RN_RX200/EmbOS/vector_table.c"
   1:C:/Workspace/FW_Platform2_5/trunk/HAL/RN_RX200/EmbOS\vector_table.c **** /***********************************************************************/
   2:C:/Workspace/FW_Platform2_5/trunk/HAL/RN_RX200/EmbOS\vector_table.c **** /*                                                                     */
   3:C:/Workspace/FW_Platform2_5/trunk/HAL/RN_RX200/EmbOS\vector_table.c **** /*  FILE        :vector_table.c                                        */
   4:C:/Workspace/FW_Platform2_5/trunk/HAL/RN_RX200/EmbOS\vector_table.c **** /*  DATE        :Thu, Sep 08, 2011                                     */
   5:C:/Workspace/FW_Platform2_5/trunk/HAL/RN_RX200/EmbOS\vector_table.c **** /*  DESCRIPTION :Vector Table                                          */
   6:C:/Workspace/FW_Platform2_5/trunk/HAL/RN_RX200/EmbOS\vector_table.c **** /*  CPU TYPE    :Other                                                 */
   7:C:/Workspace/FW_Platform2_5/trunk/HAL/RN_RX200/EmbOS\vector_table.c **** /*                                                                     */
   8:C:/Workspace/FW_Platform2_5/trunk/HAL/RN_RX200/EmbOS\vector_table.c **** /*  This file is generated by KPIT GNU Project Generator.              */
   9:C:/Workspace/FW_Platform2_5/trunk/HAL/RN_RX200/EmbOS\vector_table.c **** /*                                                                     */
  10:C:/Workspace/FW_Platform2_5/trunk/HAL/RN_RX200/EmbOS\vector_table.c **** /***********************************************************************/
  11:C:/Workspace/FW_Platform2_5/trunk/HAL/RN_RX200/EmbOS\vector_table.c ****                           
  12:C:/Workspace/FW_Platform2_5/trunk/HAL/RN_RX200/EmbOS\vector_table.c **** #include "RTOS.h"
  13:C:/Workspace/FW_Platform2_5/trunk/HAL/RN_RX200/EmbOS\vector_table.c **** #include "StandardTypes.h"
  14:C:/Workspace/FW_Platform2_5/trunk/HAL/RN_RX200/EmbOS\vector_table.c **** #include "interrupt_handlers.h"
  15:C:/Workspace/FW_Platform2_5/trunk/HAL/RN_RX200/EmbOS\vector_table.c **** #include "OS_Config.h"
  16:C:/Workspace/FW_Platform2_5/trunk/HAL/RN_RX200/EmbOS\vector_table.c **** #include "LIB_Error.h"
  17:C:/Workspace/FW_Platform2_5/trunk/HAL/RN_RX200/EmbOS\vector_table.c **** 
  18:C:/Workspace/FW_Platform2_5/trunk/HAL/RN_RX200/EmbOS\vector_table.c **** 
  19:C:/Workspace/FW_Platform2_5/trunk/HAL/RN_RX200/EmbOS\vector_table.c **** typedef void (*fp) (void);
  20:C:/Workspace/FW_Platform2_5/trunk/HAL/RN_RX200/EmbOS\vector_table.c **** extern void PowerON_Reset (void);
  21:C:/Workspace/FW_Platform2_5/trunk/HAL/RN_RX200/EmbOS\vector_table.c **** extern void stack (void);
  22:C:/Workspace/FW_Platform2_5/trunk/HAL/RN_RX200/EmbOS\vector_table.c **** void OS_ISR_Tick  				(void) __attribute__ ((interrupt));
  23:C:/Workspace/FW_Platform2_5/trunk/HAL/RN_RX200/EmbOS\vector_table.c **** 
  24:C:/Workspace/FW_Platform2_5/trunk/HAL/RN_RX200/EmbOS\vector_table.c **** 
  25:C:/Workspace/FW_Platform2_5/trunk/HAL/RN_RX200/EmbOS\vector_table.c **** 
  26:C:/Workspace/FW_Platform2_5/trunk/HAL/RN_RX200/EmbOS\vector_table.c **** #define REAL_FVECT_SECT          	__attribute__ ((section (".EndianSelect")))
  27:C:/Workspace/FW_Platform2_5/trunk/HAL/RN_RX200/EmbOS\vector_table.c **** #define FVECT_SECT          		__attribute__ ((section (".fvectors")))
  28:C:/Workspace/FW_Platform2_5/trunk/HAL/RN_RX200/EmbOS\vector_table.c **** 
  29:C:/Workspace/FW_Platform2_5/trunk/HAL/RN_RX200/EmbOS\vector_table.c **** int IllegalException=0;
  30:C:/Workspace/FW_Platform2_5/trunk/HAL/RN_RX200/EmbOS\vector_table.c **** 
  31:C:/Workspace/FW_Platform2_5/trunk/HAL/RN_RX200/EmbOS\vector_table.c **** /*********************************************************************
  32:C:/Workspace/FW_Platform2_5/trunk/HAL/RN_RX200/EmbOS\vector_table.c **** *
  33:C:/Workspace/FW_Platform2_5/trunk/HAL/RN_RX200/EmbOS\vector_table.c **** *       _IllegalException()
  34:C:/Workspace/FW_Platform2_5/trunk/HAL/RN_RX200/EmbOS\vector_table.c **** *
  35:C:/Workspace/FW_Platform2_5/trunk/HAL/RN_RX200/EmbOS\vector_table.c **** *       Is called from any exception handler which is not implemeted
  36:C:/Workspace/FW_Platform2_5/trunk/HAL/RN_RX200/EmbOS\vector_table.c **** *       by the application (not overwriiten by user).
  37:C:/Workspace/FW_Platform2_5/trunk/HAL/RN_RX200/EmbOS\vector_table.c **** *       It's implemented as endless loop, so the programm stops when any
  38:C:/Workspace/FW_Platform2_5/trunk/HAL/RN_RX200/EmbOS\vector_table.c **** *       of the exceptions is called.
  39:C:/Workspace/FW_Platform2_5/trunk/HAL/RN_RX200/EmbOS\vector_table.c **** *       Using a debugger and setting a breakpoint here allows to analyze
  40:C:/Workspace/FW_Platform2_5/trunk/HAL/RN_RX200/EmbOS\vector_table.c **** *       which exception / interrupt was called.
  41:C:/Workspace/FW_Platform2_5/trunk/HAL/RN_RX200/EmbOS\vector_table.c **** *       Normally, the CPU should not arrive here.
  42:C:/Workspace/FW_Platform2_5/trunk/HAL/RN_RX200/EmbOS\vector_table.c **** */
  43:C:/Workspace/FW_Platform2_5/trunk/HAL/RN_RX200/EmbOS\vector_table.c **** static void _IllegalException(void)
  44:C:/Workspace/FW_Platform2_5/trunk/HAL/RN_RX200/EmbOS\vector_table.c **** {
   9                             		.loc 1 44 0
  45:C:/Workspace/FW_Platform2_5/trunk/HAL/RN_RX200/EmbOS\vector_table.c **** #if 0
  46:C:/Workspace/FW_Platform2_5/trunk/HAL/RN_RX200/EmbOS\vector_table.c **** 	int	endless = 1;
  47:C:/Workspace/FW_Platform2_5/trunk/HAL/RN_RX200/EmbOS\vector_table.c **** 	IllegalException = endless;
  48:C:/Workspace/FW_Platform2_5/trunk/HAL/RN_RX200/EmbOS\vector_table.c **** 	do
  49:C:/Workspace/FW_Platform2_5/trunk/HAL/RN_RX200/EmbOS\vector_table.c **** 	{
  50:C:/Workspace/FW_Platform2_5/trunk/HAL/RN_RX200/EmbOS\vector_table.c **** 
  51:C:/Workspace/FW_Platform2_5/trunk/HAL/RN_RX200/EmbOS\vector_table.c **** 	}while(IllegalException);
  52:C:/Workspace/FW_Platform2_5/trunk/HAL/RN_RX200/EmbOS\vector_table.c **** #endif
  53:C:/Workspace/FW_Platform2_5/trunk/HAL/RN_RX200/EmbOS\vector_table.c **** 	LIB_Error_Fatal_Handler(PLT_ERROR_EXCEPT_ILLEGAL);
  10                             		.loc 1 53 0
  11 0000 75 41 57                		mov.L	#0x57, r1
  12 0003 04 00 00 00             		bra	_LIB_Error_Fatal_Handler
  13                             	.LVL0:
  14                             	.LFE0:
  16                             		.section	.text.IIC0_TX_END_ISR,"ax",@progbits
  17                             		.weak	_IIC0_TX_END_ISR
  19                             	_IIC0_TX_END_ISR:
  20                             	.LFB122:
  54:C:/Workspace/FW_Platform2_5/trunk/HAL/RN_RX200/EmbOS\vector_table.c **** 
  55:C:/Workspace/FW_Platform2_5/trunk/HAL/RN_RX200/EmbOS\vector_table.c **** }
  56:C:/Workspace/FW_Platform2_5/trunk/HAL/RN_RX200/EmbOS\vector_table.c **** 
  57:C:/Workspace/FW_Platform2_5/trunk/HAL/RN_RX200/EmbOS\vector_table.c **** 
  58:C:/Workspace/FW_Platform2_5/trunk/HAL/RN_RX200/EmbOS\vector_table.c **** 
  59:C:/Workspace/FW_Platform2_5/trunk/HAL/RN_RX200/EmbOS\vector_table.c **** /*********************************************************************
  60:C:/Workspace/FW_Platform2_5/trunk/HAL/RN_RX200/EmbOS\vector_table.c **** *
  61:C:/Workspace/FW_Platform2_5/trunk/HAL/RN_RX200/EmbOS\vector_table.c **** *       Default dummy interrupt handler
  62:C:/Workspace/FW_Platform2_5/trunk/HAL/RN_RX200/EmbOS\vector_table.c **** *
  63:C:/Workspace/FW_Platform2_5/trunk/HAL/RN_RX200/EmbOS\vector_table.c **** *       All handlers call _IllegalException(), so the program
  64:C:/Workspace/FW_Platform2_5/trunk/HAL/RN_RX200/EmbOS\vector_table.c **** *       calls this function when any of the exceptions is called.
  65:C:/Workspace/FW_Platform2_5/trunk/HAL/RN_RX200/EmbOS\vector_table.c **** *       Using a debugger and setting a breakpoint in _IllegelException()
  66:C:/Workspace/FW_Platform2_5/trunk/HAL/RN_RX200/EmbOS\vector_table.c **** *       allows to analyze which exception / interrupt was called.
  67:C:/Workspace/FW_Platform2_5/trunk/HAL/RN_RX200/EmbOS\vector_table.c **** */
  68:C:/Workspace/FW_Platform2_5/trunk/HAL/RN_RX200/EmbOS\vector_table.c **** 
  69:C:/Workspace/FW_Platform2_5/trunk/HAL/RN_RX200/EmbOS\vector_table.c **** 
  70:C:/Workspace/FW_Platform2_5/trunk/HAL/RN_RX200/EmbOS\vector_table.c **** /* Exception(Floating Point)*/
  71:C:/Workspace/FW_Platform2_5/trunk/HAL/RN_RX200/EmbOS\vector_table.c **** __attribute__((weak)) void INT_Excep_FloatingPoint(void)
  72:C:/Workspace/FW_Platform2_5/trunk/HAL/RN_RX200/EmbOS\vector_table.c **** {
  73:C:/Workspace/FW_Platform2_5/trunk/HAL/RN_RX200/EmbOS\vector_table.c **** 	_IllegalException();
  74:C:/Workspace/FW_Platform2_5/trunk/HAL/RN_RX200/EmbOS\vector_table.c **** }
  75:C:/Workspace/FW_Platform2_5/trunk/HAL/RN_RX200/EmbOS\vector_table.c **** 
  76:C:/Workspace/FW_Platform2_5/trunk/HAL/RN_RX200/EmbOS\vector_table.c **** /** Hardware vectors remapped to use with Bootloader */
  77:C:/Workspace/FW_Platform2_5/trunk/HAL/RN_RX200/EmbOS\vector_table.c **** 
  78:C:/Workspace/FW_Platform2_5/trunk/HAL/RN_RX200/EmbOS\vector_table.c **** const voidPtr HardwareVectors[] FVECT_SECT  = {
  79:C:/Workspace/FW_Platform2_5/trunk/HAL/RN_RX200/EmbOS\vector_table.c **** /*;0xffffff80  Reserved*/
  80:C:/Workspace/FW_Platform2_5/trunk/HAL/RN_RX200/EmbOS\vector_table.c **** #ifdef __RX_BIG_ENDIAN__
  81:C:/Workspace/FW_Platform2_5/trunk/HAL/RN_RX200/EmbOS\vector_table.c ****     (fp)0xfffffff8,
  82:C:/Workspace/FW_Platform2_5/trunk/HAL/RN_RX200/EmbOS\vector_table.c **** #else
  83:C:/Workspace/FW_Platform2_5/trunk/HAL/RN_RX200/EmbOS\vector_table.c ****     (fp)0xffffffff,
  84:C:/Workspace/FW_Platform2_5/trunk/HAL/RN_RX200/EmbOS\vector_table.c **** #endif
  85:C:/Workspace/FW_Platform2_5/trunk/HAL/RN_RX200/EmbOS\vector_table.c **** /*;0xffffff84  Reserved*/
  86:C:/Workspace/FW_Platform2_5/trunk/HAL/RN_RX200/EmbOS\vector_table.c ****     (fp)0xffffffff,
  87:C:/Workspace/FW_Platform2_5/trunk/HAL/RN_RX200/EmbOS\vector_table.c **** /*;0xffffff88  Reserved*/
  88:C:/Workspace/FW_Platform2_5/trunk/HAL/RN_RX200/EmbOS\vector_table.c ****     (fp)0xffffffff,
  89:C:/Workspace/FW_Platform2_5/trunk/HAL/RN_RX200/EmbOS\vector_table.c **** /*;0xffffff8C  Reserved*/
  90:C:/Workspace/FW_Platform2_5/trunk/HAL/RN_RX200/EmbOS\vector_table.c ****     (fp)0xffffffff,
  91:C:/Workspace/FW_Platform2_5/trunk/HAL/RN_RX200/EmbOS\vector_table.c **** /*;0xffffff90  Reserved*/
  92:C:/Workspace/FW_Platform2_5/trunk/HAL/RN_RX200/EmbOS\vector_table.c ****     (fp)0xffffffff,
  93:C:/Workspace/FW_Platform2_5/trunk/HAL/RN_RX200/EmbOS\vector_table.c **** /*;0xffffff94  Reserved*/
  94:C:/Workspace/FW_Platform2_5/trunk/HAL/RN_RX200/EmbOS\vector_table.c ****     (fp)0xffffffff,
  95:C:/Workspace/FW_Platform2_5/trunk/HAL/RN_RX200/EmbOS\vector_table.c **** /*;0xffffff98  Reserved*/
  96:C:/Workspace/FW_Platform2_5/trunk/HAL/RN_RX200/EmbOS\vector_table.c ****     (fp)0xffffffff,
  97:C:/Workspace/FW_Platform2_5/trunk/HAL/RN_RX200/EmbOS\vector_table.c **** /*;0xffffff9C  Reserved*/
  98:C:/Workspace/FW_Platform2_5/trunk/HAL/RN_RX200/EmbOS\vector_table.c ****     (fp)0xffffffff,
  99:C:/Workspace/FW_Platform2_5/trunk/HAL/RN_RX200/EmbOS\vector_table.c **** /*;0xffffffA0  Reserved*/
 100:C:/Workspace/FW_Platform2_5/trunk/HAL/RN_RX200/EmbOS\vector_table.c ****     (fp)0xffffffff,
 101:C:/Workspace/FW_Platform2_5/trunk/HAL/RN_RX200/EmbOS\vector_table.c **** /*;0xffffffA4  Reserved*/
 102:C:/Workspace/FW_Platform2_5/trunk/HAL/RN_RX200/EmbOS\vector_table.c ****     (fp)0xffffffff,
 103:C:/Workspace/FW_Platform2_5/trunk/HAL/RN_RX200/EmbOS\vector_table.c **** /*;0xffffffA8  Reserved*/
 104:C:/Workspace/FW_Platform2_5/trunk/HAL/RN_RX200/EmbOS\vector_table.c ****     (fp)0xffffffff,
 105:C:/Workspace/FW_Platform2_5/trunk/HAL/RN_RX200/EmbOS\vector_table.c **** /*;0xffffffAC  Reserved*/
 106:C:/Workspace/FW_Platform2_5/trunk/HAL/RN_RX200/EmbOS\vector_table.c ****     (fp)0xffffffff,
 107:C:/Workspace/FW_Platform2_5/trunk/HAL/RN_RX200/EmbOS\vector_table.c **** /*;0xffffffB0  Reserved*/
 108:C:/Workspace/FW_Platform2_5/trunk/HAL/RN_RX200/EmbOS\vector_table.c ****     (fp)0xffffffff,
 109:C:/Workspace/FW_Platform2_5/trunk/HAL/RN_RX200/EmbOS\vector_table.c **** /*;0xffffffB4  Reserved*/
 110:C:/Workspace/FW_Platform2_5/trunk/HAL/RN_RX200/EmbOS\vector_table.c ****     (fp)0xffffffff,
 111:C:/Workspace/FW_Platform2_5/trunk/HAL/RN_RX200/EmbOS\vector_table.c **** /*;0xffffffB8  Reserved*/
 112:C:/Workspace/FW_Platform2_5/trunk/HAL/RN_RX200/EmbOS\vector_table.c ****     (fp)0xffffffff,
 113:C:/Workspace/FW_Platform2_5/trunk/HAL/RN_RX200/EmbOS\vector_table.c **** /*;0xffffffBC  Reserved*/
 114:C:/Workspace/FW_Platform2_5/trunk/HAL/RN_RX200/EmbOS\vector_table.c ****     (fp)0xffffffff,
 115:C:/Workspace/FW_Platform2_5/trunk/HAL/RN_RX200/EmbOS\vector_table.c **** /*;0xffffffC0  Reserved*/
 116:C:/Workspace/FW_Platform2_5/trunk/HAL/RN_RX200/EmbOS\vector_table.c ****     (fp)0xffffffff,
 117:C:/Workspace/FW_Platform2_5/trunk/HAL/RN_RX200/EmbOS\vector_table.c **** /*;0xffffffC4  Reserved*/
 118:C:/Workspace/FW_Platform2_5/trunk/HAL/RN_RX200/EmbOS\vector_table.c ****     (fp)0xffffffff,
 119:C:/Workspace/FW_Platform2_5/trunk/HAL/RN_RX200/EmbOS\vector_table.c **** /*;0xffffffC8  Reserved*/
 120:C:/Workspace/FW_Platform2_5/trunk/HAL/RN_RX200/EmbOS\vector_table.c ****     (fp)0xffffffff,
 121:C:/Workspace/FW_Platform2_5/trunk/HAL/RN_RX200/EmbOS\vector_table.c **** /*;0xffffffCC  Reserved*/
 122:C:/Workspace/FW_Platform2_5/trunk/HAL/RN_RX200/EmbOS\vector_table.c ****     (fp)0xffffffff,
 123:C:/Workspace/FW_Platform2_5/trunk/HAL/RN_RX200/EmbOS\vector_table.c **** /*;0xffffffd0  Exception(Supervisor Instruction)*/
 124:C:/Workspace/FW_Platform2_5/trunk/HAL/RN_RX200/EmbOS\vector_table.c ****     INT_Excep_SuperVisorInst,
 125:C:/Workspace/FW_Platform2_5/trunk/HAL/RN_RX200/EmbOS\vector_table.c **** /*;0xffffffd4  Reserved*/
 126:C:/Workspace/FW_Platform2_5/trunk/HAL/RN_RX200/EmbOS\vector_table.c ****     (fp)0xffffffff,
 127:C:/Workspace/FW_Platform2_5/trunk/HAL/RN_RX200/EmbOS\vector_table.c **** /*;0xffffffd8  Reserved*/
 128:C:/Workspace/FW_Platform2_5/trunk/HAL/RN_RX200/EmbOS\vector_table.c ****     (fp)0xffffffff,
 129:C:/Workspace/FW_Platform2_5/trunk/HAL/RN_RX200/EmbOS\vector_table.c **** /*;0xffffffdc  Exception(Undefined Instruction)*/
 130:C:/Workspace/FW_Platform2_5/trunk/HAL/RN_RX200/EmbOS\vector_table.c ****     INT_Excep_UndefinedInst,
 131:C:/Workspace/FW_Platform2_5/trunk/HAL/RN_RX200/EmbOS\vector_table.c **** /*;0xffffffe0  Reserved*/
 132:C:/Workspace/FW_Platform2_5/trunk/HAL/RN_RX200/EmbOS\vector_table.c ****     (fp)0xffffffff,
 133:C:/Workspace/FW_Platform2_5/trunk/HAL/RN_RX200/EmbOS\vector_table.c **** /*;0xffffffe4  Exception(Floating Point)*/
 134:C:/Workspace/FW_Platform2_5/trunk/HAL/RN_RX200/EmbOS\vector_table.c ****     INT_Excep_FloatingPoint,
 135:C:/Workspace/FW_Platform2_5/trunk/HAL/RN_RX200/EmbOS\vector_table.c **** /*;0xffffffe8  Reserved*/
 136:C:/Workspace/FW_Platform2_5/trunk/HAL/RN_RX200/EmbOS\vector_table.c ****     (fp)0xffffffff,
 137:C:/Workspace/FW_Platform2_5/trunk/HAL/RN_RX200/EmbOS\vector_table.c **** /*;0xffffffec  Reserved*/
 138:C:/Workspace/FW_Platform2_5/trunk/HAL/RN_RX200/EmbOS\vector_table.c ****     (fp)0xffffffff,
 139:C:/Workspace/FW_Platform2_5/trunk/HAL/RN_RX200/EmbOS\vector_table.c **** /*;0xfffffff0  Reserved*/
 140:C:/Workspace/FW_Platform2_5/trunk/HAL/RN_RX200/EmbOS\vector_table.c ****     (fp)0xffffffff,
 141:C:/Workspace/FW_Platform2_5/trunk/HAL/RN_RX200/EmbOS\vector_table.c **** /*;0xfffffff4  Reserved*/
 142:C:/Workspace/FW_Platform2_5/trunk/HAL/RN_RX200/EmbOS\vector_table.c ****     (fp)0xffffffff,
 143:C:/Workspace/FW_Platform2_5/trunk/HAL/RN_RX200/EmbOS\vector_table.c **** /*;0xfffffff8  NMI*/
 144:C:/Workspace/FW_Platform2_5/trunk/HAL/RN_RX200/EmbOS\vector_table.c ****     INT_NonMaskableInterrupt,
 145:C:/Workspace/FW_Platform2_5/trunk/HAL/RN_RX200/EmbOS\vector_table.c **** /*;0xfffffffc  RESET*/
 146:C:/Workspace/FW_Platform2_5/trunk/HAL/RN_RX200/EmbOS\vector_table.c **** /*;<<VECTOR DATA START (POWER ON RESET)>>*/
 147:C:/Workspace/FW_Platform2_5/trunk/HAL/RN_RX200/EmbOS\vector_table.c **** /*;Power On Reset PC*/
 148:C:/Workspace/FW_Platform2_5/trunk/HAL/RN_RX200/EmbOS\vector_table.c ****     PowerON_Reset
 149:C:/Workspace/FW_Platform2_5/trunk/HAL/RN_RX200/EmbOS\vector_table.c **** /*;<<VECTOR DATA END (POWER ON RESET)>>*/
 150:C:/Workspace/FW_Platform2_5/trunk/HAL/RN_RX200/EmbOS\vector_table.c **** };
 151:C:/Workspace/FW_Platform2_5/trunk/HAL/RN_RX200/EmbOS\vector_table.c **** 
 152:C:/Workspace/FW_Platform2_5/trunk/HAL/RN_RX200/EmbOS\vector_table.c **** /** Hardware vectors on real address - used when Bootloader is missing e.g. on debug*/
 153:C:/Workspace/FW_Platform2_5/trunk/HAL/RN_RX200/EmbOS\vector_table.c **** 
 154:C:/Workspace/FW_Platform2_5/trunk/HAL/RN_RX200/EmbOS\vector_table.c **** const voidPtr RealHardwareVectors[] REAL_FVECT_SECT  = {
 155:C:/Workspace/FW_Platform2_5/trunk/HAL/RN_RX200/EmbOS\vector_table.c **** /*;0xffffff80  Reserved*/
 156:C:/Workspace/FW_Platform2_5/trunk/HAL/RN_RX200/EmbOS\vector_table.c **** #ifdef __RX_BIG_ENDIAN__
 157:C:/Workspace/FW_Platform2_5/trunk/HAL/RN_RX200/EmbOS\vector_table.c ****     (fp)0xfffffff8,
 158:C:/Workspace/FW_Platform2_5/trunk/HAL/RN_RX200/EmbOS\vector_table.c **** #else
 159:C:/Workspace/FW_Platform2_5/trunk/HAL/RN_RX200/EmbOS\vector_table.c ****     (fp)0xffffffff,
 160:C:/Workspace/FW_Platform2_5/trunk/HAL/RN_RX200/EmbOS\vector_table.c **** #endif
 161:C:/Workspace/FW_Platform2_5/trunk/HAL/RN_RX200/EmbOS\vector_table.c **** /*;0xffffff84  Reserved*/
 162:C:/Workspace/FW_Platform2_5/trunk/HAL/RN_RX200/EmbOS\vector_table.c ****     (fp)0xffffffff,
 163:C:/Workspace/FW_Platform2_5/trunk/HAL/RN_RX200/EmbOS\vector_table.c **** /*;0xffffff88  Reserved*/
 164:C:/Workspace/FW_Platform2_5/trunk/HAL/RN_RX200/EmbOS\vector_table.c ****     (fp)0xffffffff,
 165:C:/Workspace/FW_Platform2_5/trunk/HAL/RN_RX200/EmbOS\vector_table.c **** /*;0xffffff8C  Reserved*/
 166:C:/Workspace/FW_Platform2_5/trunk/HAL/RN_RX200/EmbOS\vector_table.c ****     (fp)0xffffffff,
 167:C:/Workspace/FW_Platform2_5/trunk/HAL/RN_RX200/EmbOS\vector_table.c **** /*;0xffffff90  Reserved*/
 168:C:/Workspace/FW_Platform2_5/trunk/HAL/RN_RX200/EmbOS\vector_table.c ****     (fp)0xffffffff,
 169:C:/Workspace/FW_Platform2_5/trunk/HAL/RN_RX200/EmbOS\vector_table.c **** /*;0xffffff94  Reserved*/
 170:C:/Workspace/FW_Platform2_5/trunk/HAL/RN_RX200/EmbOS\vector_table.c ****     (fp)0xffffffff,
 171:C:/Workspace/FW_Platform2_5/trunk/HAL/RN_RX200/EmbOS\vector_table.c **** /*;0xffffff98  Reserved*/
 172:C:/Workspace/FW_Platform2_5/trunk/HAL/RN_RX200/EmbOS\vector_table.c ****     (fp)0xffffffff,
 173:C:/Workspace/FW_Platform2_5/trunk/HAL/RN_RX200/EmbOS\vector_table.c **** /*;0xffffff9C  Reserved*/
 174:C:/Workspace/FW_Platform2_5/trunk/HAL/RN_RX200/EmbOS\vector_table.c ****     (fp)0xffffffff,
 175:C:/Workspace/FW_Platform2_5/trunk/HAL/RN_RX200/EmbOS\vector_table.c **** /*;0xffffffA0  Reserved*/
 176:C:/Workspace/FW_Platform2_5/trunk/HAL/RN_RX200/EmbOS\vector_table.c ****     (fp)0xffffffff,
 177:C:/Workspace/FW_Platform2_5/trunk/HAL/RN_RX200/EmbOS\vector_table.c **** /*;0xffffffA4  Reserved*/
 178:C:/Workspace/FW_Platform2_5/trunk/HAL/RN_RX200/EmbOS\vector_table.c ****     (fp)0xffffffff,
 179:C:/Workspace/FW_Platform2_5/trunk/HAL/RN_RX200/EmbOS\vector_table.c **** /*;0xffffffA8  Reserved*/
 180:C:/Workspace/FW_Platform2_5/trunk/HAL/RN_RX200/EmbOS\vector_table.c ****     (fp)0xffffffff,
 181:C:/Workspace/FW_Platform2_5/trunk/HAL/RN_RX200/EmbOS\vector_table.c **** /*;0xffffffAC  Reserved*/
 182:C:/Workspace/FW_Platform2_5/trunk/HAL/RN_RX200/EmbOS\vector_table.c ****     (fp)0xffffffff,
 183:C:/Workspace/FW_Platform2_5/trunk/HAL/RN_RX200/EmbOS\vector_table.c **** /*;0xffffffB0  Reserved*/
 184:C:/Workspace/FW_Platform2_5/trunk/HAL/RN_RX200/EmbOS\vector_table.c ****     (fp)0xffffffff,
 185:C:/Workspace/FW_Platform2_5/trunk/HAL/RN_RX200/EmbOS\vector_table.c **** /*;0xffffffB4  Reserved*/
 186:C:/Workspace/FW_Platform2_5/trunk/HAL/RN_RX200/EmbOS\vector_table.c ****     (fp)0xffffffff,
 187:C:/Workspace/FW_Platform2_5/trunk/HAL/RN_RX200/EmbOS\vector_table.c **** /*;0xffffffB8  Reserved*/
 188:C:/Workspace/FW_Platform2_5/trunk/HAL/RN_RX200/EmbOS\vector_table.c ****     (fp)0xffffffff,
 189:C:/Workspace/FW_Platform2_5/trunk/HAL/RN_RX200/EmbOS\vector_table.c **** /*;0xffffffBC  Reserved*/
 190:C:/Workspace/FW_Platform2_5/trunk/HAL/RN_RX200/EmbOS\vector_table.c ****     (fp)0xffffffff,
 191:C:/Workspace/FW_Platform2_5/trunk/HAL/RN_RX200/EmbOS\vector_table.c **** /*;0xffffffC0  Reserved*/
 192:C:/Workspace/FW_Platform2_5/trunk/HAL/RN_RX200/EmbOS\vector_table.c ****     (fp)0xffffffff,
 193:C:/Workspace/FW_Platform2_5/trunk/HAL/RN_RX200/EmbOS\vector_table.c **** /*;0xffffffC4  Reserved*/
 194:C:/Workspace/FW_Platform2_5/trunk/HAL/RN_RX200/EmbOS\vector_table.c ****     (fp)0xffffffff,
 195:C:/Workspace/FW_Platform2_5/trunk/HAL/RN_RX200/EmbOS\vector_table.c **** /*;0xffffffC8  Reserved*/
 196:C:/Workspace/FW_Platform2_5/trunk/HAL/RN_RX200/EmbOS\vector_table.c ****     (fp)0xffffffff,
 197:C:/Workspace/FW_Platform2_5/trunk/HAL/RN_RX200/EmbOS\vector_table.c **** /*;0xffffffCC  Reserved*/
 198:C:/Workspace/FW_Platform2_5/trunk/HAL/RN_RX200/EmbOS\vector_table.c ****     (fp)0xffffffff,
 199:C:/Workspace/FW_Platform2_5/trunk/HAL/RN_RX200/EmbOS\vector_table.c **** /*;0xffffffd0  Exception(Supervisor Instruction)*/
 200:C:/Workspace/FW_Platform2_5/trunk/HAL/RN_RX200/EmbOS\vector_table.c ****     INT_Excep_SuperVisorInst,
 201:C:/Workspace/FW_Platform2_5/trunk/HAL/RN_RX200/EmbOS\vector_table.c **** /*;0xffffffd4  Reserved*/
 202:C:/Workspace/FW_Platform2_5/trunk/HAL/RN_RX200/EmbOS\vector_table.c ****     (fp)0xffffffff,
 203:C:/Workspace/FW_Platform2_5/trunk/HAL/RN_RX200/EmbOS\vector_table.c **** /*;0xffffffd8  Reserved*/
 204:C:/Workspace/FW_Platform2_5/trunk/HAL/RN_RX200/EmbOS\vector_table.c ****     (fp)0xffffffff,
 205:C:/Workspace/FW_Platform2_5/trunk/HAL/RN_RX200/EmbOS\vector_table.c **** /*;0xffffffdc  Exception(Undefined Instruction)*/
 206:C:/Workspace/FW_Platform2_5/trunk/HAL/RN_RX200/EmbOS\vector_table.c ****     INT_Excep_UndefinedInst,
 207:C:/Workspace/FW_Platform2_5/trunk/HAL/RN_RX200/EmbOS\vector_table.c **** /*;0xffffffe0  Reserved*/
 208:C:/Workspace/FW_Platform2_5/trunk/HAL/RN_RX200/EmbOS\vector_table.c ****     (fp)0xffffffff,
 209:C:/Workspace/FW_Platform2_5/trunk/HAL/RN_RX200/EmbOS\vector_table.c **** /*;0xffffffe4  Exception(Floating Point)*/
 210:C:/Workspace/FW_Platform2_5/trunk/HAL/RN_RX200/EmbOS\vector_table.c ****     INT_Excep_FloatingPoint,
 211:C:/Workspace/FW_Platform2_5/trunk/HAL/RN_RX200/EmbOS\vector_table.c **** /*;0xffffffe8  Reserved*/
 212:C:/Workspace/FW_Platform2_5/trunk/HAL/RN_RX200/EmbOS\vector_table.c ****     (fp)0xffffffff,
 213:C:/Workspace/FW_Platform2_5/trunk/HAL/RN_RX200/EmbOS\vector_table.c **** /*;0xffffffec  Reserved*/
 214:C:/Workspace/FW_Platform2_5/trunk/HAL/RN_RX200/EmbOS\vector_table.c ****     (fp)0xffffffff,
 215:C:/Workspace/FW_Platform2_5/trunk/HAL/RN_RX200/EmbOS\vector_table.c **** /*;0xfffffff0  Reserved*/
 216:C:/Workspace/FW_Platform2_5/trunk/HAL/RN_RX200/EmbOS\vector_table.c ****     (fp)0xffffffff,
 217:C:/Workspace/FW_Platform2_5/trunk/HAL/RN_RX200/EmbOS\vector_table.c **** /*;0xfffffff4  Reserved*/
 218:C:/Workspace/FW_Platform2_5/trunk/HAL/RN_RX200/EmbOS\vector_table.c ****     (fp)0xffffffff,
 219:C:/Workspace/FW_Platform2_5/trunk/HAL/RN_RX200/EmbOS\vector_table.c **** /*;0xfffffff8  NMI*/
 220:C:/Workspace/FW_Platform2_5/trunk/HAL/RN_RX200/EmbOS\vector_table.c ****     INT_NonMaskableInterrupt,
 221:C:/Workspace/FW_Platform2_5/trunk/HAL/RN_RX200/EmbOS\vector_table.c **** /*;0xfffffffc  RESET*/
 222:C:/Workspace/FW_Platform2_5/trunk/HAL/RN_RX200/EmbOS\vector_table.c **** /*;<<VECTOR DATA START (POWER ON RESET)>>*/
 223:C:/Workspace/FW_Platform2_5/trunk/HAL/RN_RX200/EmbOS\vector_table.c **** /*;Power On Reset PC*/
 224:C:/Workspace/FW_Platform2_5/trunk/HAL/RN_RX200/EmbOS\vector_table.c ****     PowerON_Reset
 225:C:/Workspace/FW_Platform2_5/trunk/HAL/RN_RX200/EmbOS\vector_table.c **** /*;<<VECTOR DATA END (POWER ON RESET)>>*/
 226:C:/Workspace/FW_Platform2_5/trunk/HAL/RN_RX200/EmbOS\vector_table.c **** };
 227:C:/Workspace/FW_Platform2_5/trunk/HAL/RN_RX200/EmbOS\vector_table.c **** 
 228:C:/Workspace/FW_Platform2_5/trunk/HAL/RN_RX200/EmbOS\vector_table.c **** #define RVECT_SECT          __attribute__ ((section (".rvectors")))
 229:C:/Workspace/FW_Platform2_5/trunk/HAL/RN_RX200/EmbOS\vector_table.c **** 
 230:C:/Workspace/FW_Platform2_5/trunk/HAL/RN_RX200/EmbOS\vector_table.c **** 
 231:C:/Workspace/FW_Platform2_5/trunk/HAL/RN_RX200/EmbOS\vector_table.c **** __attribute__((weak)) void INT_Excep_BUSERR(void)		{ 	_IllegalException();}
 232:C:/Workspace/FW_Platform2_5/trunk/HAL/RN_RX200/EmbOS\vector_table.c **** /*;0x0054  FCU_FCUERR*/
 233:C:/Workspace/FW_Platform2_5/trunk/HAL/RN_RX200/EmbOS\vector_table.c **** __attribute__((weak)) void INT_Excep_FCU_FCUERR(void)	{ 	_IllegalException();}
 234:C:/Workspace/FW_Platform2_5/trunk/HAL/RN_RX200/EmbOS\vector_table.c **** /*;0x005C  FRDYI*/
 235:C:/Workspace/FW_Platform2_5/trunk/HAL/RN_RX200/EmbOS\vector_table.c **** __attribute__((weak)) void INT_Excep_FCU_FRDYI(void)	{	_IllegalException();}
 236:C:/Workspace/FW_Platform2_5/trunk/HAL/RN_RX200/EmbOS\vector_table.c **** 
 237:C:/Workspace/FW_Platform2_5/trunk/HAL/RN_RX200/EmbOS\vector_table.c **** __attribute__((weak)) void INT_Excep_SWINT(void)		{	_IllegalException();}
 238:C:/Workspace/FW_Platform2_5/trunk/HAL/RN_RX200/EmbOS\vector_table.c **** /*;0x0070  CMTU0_CMT0*/
 239:C:/Workspace/FW_Platform2_5/trunk/HAL/RN_RX200/EmbOS\vector_table.c **** __attribute__((weak)) void INT_Excep_CMTU0_CMT0(void)	{	_IllegalException();}
 240:C:/Workspace/FW_Platform2_5/trunk/HAL/RN_RX200/EmbOS\vector_table.c **** /*;0x0074  CMTU0_CMT1*/
 241:C:/Workspace/FW_Platform2_5/trunk/HAL/RN_RX200/EmbOS\vector_table.c **** __attribute__((weak)) void INT_Excep_CMTU0_CMT1(void)	{	_IllegalException();}
 242:C:/Workspace/FW_Platform2_5/trunk/HAL/RN_RX200/EmbOS\vector_table.c **** /*;0x0078  CMTU1_CMT2*/
 243:C:/Workspace/FW_Platform2_5/trunk/HAL/RN_RX200/EmbOS\vector_table.c **** __attribute__((weak)) void INT_Excep_CMTU1_CMT2(void)	{	_IllegalException();}
 244:C:/Workspace/FW_Platform2_5/trunk/HAL/RN_RX200/EmbOS\vector_table.c **** /*;0x007C  CMTU1_CMT3*/
 245:C:/Workspace/FW_Platform2_5/trunk/HAL/RN_RX200/EmbOS\vector_table.c **** __attribute__((weak)) void INT_Excep_CMTU1_CMT3(void)	{	_IllegalException();}
 246:C:/Workspace/FW_Platform2_5/trunk/HAL/RN_RX200/EmbOS\vector_table.c **** 
 247:C:/Workspace/FW_Platform2_5/trunk/HAL/RN_RX200/EmbOS\vector_table.c **** __attribute__((weak)) void INT_Excep_FERRF(void)		{	_IllegalException();}
 248:C:/Workspace/FW_Platform2_5/trunk/HAL/RN_RX200/EmbOS\vector_table.c **** 
 249:C:/Workspace/FW_Platform2_5/trunk/HAL/RN_RX200/EmbOS\vector_table.c **** __attribute__((weak)) void INT_Excep_MENDF(void)		{	_IllegalException();}
 250:C:/Workspace/FW_Platform2_5/trunk/HAL/RN_RX200/EmbOS\vector_table.c **** 
 251:C:/Workspace/FW_Platform2_5/trunk/HAL/RN_RX200/EmbOS\vector_table.c **** __attribute__((weak)) void INT_Excep_OVFF(void)			{	_IllegalException();}
 252:C:/Workspace/FW_Platform2_5/trunk/HAL/RN_RX200/EmbOS\vector_table.c **** 
 253:C:/Workspace/FW_Platform2_5/trunk/HAL/RN_RX200/EmbOS\vector_table.c **** __attribute__((weak)) void INT_Excep_SPEI0(void)		{	_IllegalException();}
 254:C:/Workspace/FW_Platform2_5/trunk/HAL/RN_RX200/EmbOS\vector_table.c **** 
 255:C:/Workspace/FW_Platform2_5/trunk/HAL/RN_RX200/EmbOS\vector_table.c **** __attribute__((weak)) void INT_Excep_SPII0(void)		{	_IllegalException();}
 256:C:/Workspace/FW_Platform2_5/trunk/HAL/RN_RX200/EmbOS\vector_table.c **** 
 257:C:/Workspace/FW_Platform2_5/trunk/HAL/RN_RX200/EmbOS\vector_table.c **** __attribute__((weak)) void INT_Excep_SPRI0(void)		{	_IllegalException();}
 258:C:/Workspace/FW_Platform2_5/trunk/HAL/RN_RX200/EmbOS\vector_table.c **** 
 259:C:/Workspace/FW_Platform2_5/trunk/HAL/RN_RX200/EmbOS\vector_table.c **** __attribute__((weak)) void INT_Excep_SPTI0(void)		{	_IllegalException();}
 260:C:/Workspace/FW_Platform2_5/trunk/HAL/RN_RX200/EmbOS\vector_table.c **** 
 261:C:/Workspace/FW_Platform2_5/trunk/HAL/RN_RX200/EmbOS\vector_table.c **** __attribute__((weak)) void INT_Excep_DOPCF(void)		{	_IllegalException();}
 262:C:/Workspace/FW_Platform2_5/trunk/HAL/RN_RX200/EmbOS\vector_table.c **** 
 263:C:/Workspace/FW_Platform2_5/trunk/HAL/RN_RX200/EmbOS\vector_table.c **** __attribute__((weak)) void INT_Excep_CMPB0(void)		{	_IllegalException();}
 264:C:/Workspace/FW_Platform2_5/trunk/HAL/RN_RX200/EmbOS\vector_table.c **** 
 265:C:/Workspace/FW_Platform2_5/trunk/HAL/RN_RX200/EmbOS\vector_table.c **** __attribute__((weak)) void INT_Excep_CMPB1(void)		{	_IllegalException();}
 266:C:/Workspace/FW_Platform2_5/trunk/HAL/RN_RX200/EmbOS\vector_table.c **** 
 267:C:/Workspace/FW_Platform2_5/trunk/HAL/RN_RX200/EmbOS\vector_table.c **** __attribute__((weak)) void INT_Excep_COUNTUP(void)		{	_IllegalException();}
 268:C:/Workspace/FW_Platform2_5/trunk/HAL/RN_RX200/EmbOS\vector_table.c **** /*;0x0100  IRQ0*/
 269:C:/Workspace/FW_Platform2_5/trunk/HAL/RN_RX200/EmbOS\vector_table.c **** __attribute__((weak)) void INT_Excep_IRQ0(void)			{	_IllegalException();}
 270:C:/Workspace/FW_Platform2_5/trunk/HAL/RN_RX200/EmbOS\vector_table.c **** /*;0x0104 IRQ1*/
 271:C:/Workspace/FW_Platform2_5/trunk/HAL/RN_RX200/EmbOS\vector_table.c **** __attribute__((weak)) void INT_Excep_IRQ1(void)			{	_IllegalException();}
 272:C:/Workspace/FW_Platform2_5/trunk/HAL/RN_RX200/EmbOS\vector_table.c **** /*;0x0108 IRQ2*/
 273:C:/Workspace/FW_Platform2_5/trunk/HAL/RN_RX200/EmbOS\vector_table.c **** __attribute__((weak)) void INT_Excep_IRQ2(void)			{	_IllegalException();}
 274:C:/Workspace/FW_Platform2_5/trunk/HAL/RN_RX200/EmbOS\vector_table.c **** /*;0x010C IRQ3*/
 275:C:/Workspace/FW_Platform2_5/trunk/HAL/RN_RX200/EmbOS\vector_table.c **** __attribute__((weak)) void INT_Excep_IRQ3(void)			{	_IllegalException();}
 276:C:/Workspace/FW_Platform2_5/trunk/HAL/RN_RX200/EmbOS\vector_table.c **** /*;0x0110 IRQ4*/
 277:C:/Workspace/FW_Platform2_5/trunk/HAL/RN_RX200/EmbOS\vector_table.c **** __attribute__((weak)) void INT_Excep_IRQ4(void)			{	_IllegalException();}
 278:C:/Workspace/FW_Platform2_5/trunk/HAL/RN_RX200/EmbOS\vector_table.c **** /*;0x0114 IRQ5*/
 279:C:/Workspace/FW_Platform2_5/trunk/HAL/RN_RX200/EmbOS\vector_table.c **** __attribute__((weak)) void INT_Excep_IRQ5(void)			{	_IllegalException();}
 280:C:/Workspace/FW_Platform2_5/trunk/HAL/RN_RX200/EmbOS\vector_table.c **** /*;0x0118 IRQ6*/
 281:C:/Workspace/FW_Platform2_5/trunk/HAL/RN_RX200/EmbOS\vector_table.c **** __attribute__((weak)) void INT_Excep_IRQ6(void)			{	_IllegalException();}
 282:C:/Workspace/FW_Platform2_5/trunk/HAL/RN_RX200/EmbOS\vector_table.c **** /*;0x011C IRQ7*/
 283:C:/Workspace/FW_Platform2_5/trunk/HAL/RN_RX200/EmbOS\vector_table.c **** __attribute__((weak)) void INT_Excep_IRQ7(void)			{	_IllegalException();}
 284:C:/Workspace/FW_Platform2_5/trunk/HAL/RN_RX200/EmbOS\vector_table.c **** 
 285:C:/Workspace/FW_Platform2_5/trunk/HAL/RN_RX200/EmbOS\vector_table.c **** __attribute__((weak))  void INT_Excep_ALM(void)			{	_IllegalException();}
 286:C:/Workspace/FW_Platform2_5/trunk/HAL/RN_RX200/EmbOS\vector_table.c **** 
 287:C:/Workspace/FW_Platform2_5/trunk/HAL/RN_RX200/EmbOS\vector_table.c **** __attribute__((weak))  void INT_Excep_PRD(void)			{	_IllegalException();}
 288:C:/Workspace/FW_Platform2_5/trunk/HAL/RN_RX200/EmbOS\vector_table.c **** /*;0x0160  LVD1/COMPA1*/
 289:C:/Workspace/FW_Platform2_5/trunk/HAL/RN_RX200/EmbOS\vector_table.c **** __attribute__((weak)) void INT_Excep_LVD1(void)			{	_IllegalException();}
 290:C:/Workspace/FW_Platform2_5/trunk/HAL/RN_RX200/EmbOS\vector_table.c **** /*;0x0164  LVD2/COMPA2*/
 291:C:/Workspace/FW_Platform2_5/trunk/HAL/RN_RX200/EmbOS\vector_table.c **** __attribute__((weak)) void INT_Excep_LVD2(void)			{	_IllegalException();}
 292:C:/Workspace/FW_Platform2_5/trunk/HAL/RN_RX200/EmbOS\vector_table.c **** /*;0x0180  WDT_WOVI*/
 293:C:/Workspace/FW_Platform2_5/trunk/HAL/RN_RX200/EmbOS\vector_table.c **** __attribute__((weak)) void INT_Excep_WDT_WOVI(void)		{	_IllegalException();}
 294:C:/Workspace/FW_Platform2_5/trunk/HAL/RN_RX200/EmbOS\vector_table.c **** /*;0x0188  AD0_ADI0*/
 295:C:/Workspace/FW_Platform2_5/trunk/HAL/RN_RX200/EmbOS\vector_table.c **** __attribute__((weak)) void INT_Excep_AD0_ADI0(void)		{	_IllegalException();}
 296:C:/Workspace/FW_Platform2_5/trunk/HAL/RN_RX200/EmbOS\vector_table.c **** /*;0x018C  AD1_ADI1*/
 297:C:/Workspace/FW_Platform2_5/trunk/HAL/RN_RX200/EmbOS\vector_table.c **** __attribute__((weak)) void INT_Excep_AD1_ADI1(void)		{	_IllegalException();}
 298:C:/Workspace/FW_Platform2_5/trunk/HAL/RN_RX200/EmbOS\vector_table.c **** /*;0x0190  AD2_ADI2*/
 299:C:/Workspace/FW_Platform2_5/trunk/HAL/RN_RX200/EmbOS\vector_table.c **** __attribute__((weak)) void INT_Excep_AD2_ADI2(void)		{	_IllegalException();}
 300:C:/Workspace/FW_Platform2_5/trunk/HAL/RN_RX200/EmbOS\vector_table.c **** /*;0x0194  AD3_ADI3*/
 301:C:/Workspace/FW_Platform2_5/trunk/HAL/RN_RX200/EmbOS\vector_table.c **** __attribute__((weak)) void INT_Excep_AD3_ADI3(void)		{	_IllegalException();}
 302:C:/Workspace/FW_Platform2_5/trunk/HAL/RN_RX200/EmbOS\vector_table.c **** /*;0x0198 S12AD0_S12ADI0*/
 303:C:/Workspace/FW_Platform2_5/trunk/HAL/RN_RX200/EmbOS\vector_table.c **** __attribute__((weak)) void INT_Excep_S12AD0_S12ADI0(void)	{	_IllegalException();}
 304:C:/Workspace/FW_Platform2_5/trunk/HAL/RN_RX200/EmbOS\vector_table.c **** /*;0x019C   S12AD0_GBADI*/
 305:C:/Workspace/FW_Platform2_5/trunk/HAL/RN_RX200/EmbOS\vector_table.c **** __attribute__((weak)) void INT_Excep_S12AD0_GBADI(void)	{	_IllegalException();}
 306:C:/Workspace/FW_Platform2_5/trunk/HAL/RN_RX200/EmbOS\vector_table.c **** 
 307:C:/Workspace/FW_Platform2_5/trunk/HAL/RN_RX200/EmbOS\vector_table.c **** __attribute__((weak)) void INT_Excep_ELSR18I(void)		{	_IllegalException();}
 308:C:/Workspace/FW_Platform2_5/trunk/HAL/RN_RX200/EmbOS\vector_table.c **** 
 309:C:/Workspace/FW_Platform2_5/trunk/HAL/RN_RX200/EmbOS\vector_table.c **** __attribute__((weak)) void INT_Excep_ELSR19I(void)		{	_IllegalException();}
 310:C:/Workspace/FW_Platform2_5/trunk/HAL/RN_RX200/EmbOS\vector_table.c **** 
 311:C:/Workspace/FW_Platform2_5/trunk/HAL/RN_RX200/EmbOS\vector_table.c **** __attribute__((weak)) void  INT_Excep_MTU0_TGIA0(void)	{	_IllegalException();}
 312:C:/Workspace/FW_Platform2_5/trunk/HAL/RN_RX200/EmbOS\vector_table.c **** 
 313:C:/Workspace/FW_Platform2_5/trunk/HAL/RN_RX200/EmbOS\vector_table.c **** __attribute__((weak)) void  INT_Excep_MTU0_TGIB0(void)	{	_IllegalException();}
 314:C:/Workspace/FW_Platform2_5/trunk/HAL/RN_RX200/EmbOS\vector_table.c **** 
 315:C:/Workspace/FW_Platform2_5/trunk/HAL/RN_RX200/EmbOS\vector_table.c **** __attribute__((weak)) void  INT_Excep_MTU0_TGIC0(void)	{	_IllegalException();}
 316:C:/Workspace/FW_Platform2_5/trunk/HAL/RN_RX200/EmbOS\vector_table.c **** 
 317:C:/Workspace/FW_Platform2_5/trunk/HAL/RN_RX200/EmbOS\vector_table.c **** __attribute__((weak)) void  INT_Excep_MTU0_TGID0(void)	{	_IllegalException();}
 318:C:/Workspace/FW_Platform2_5/trunk/HAL/RN_RX200/EmbOS\vector_table.c **** 
 319:C:/Workspace/FW_Platform2_5/trunk/HAL/RN_RX200/EmbOS\vector_table.c **** __attribute__((weak)) void  INT_Excep_MTU0_TCIV0(void)	{	_IllegalException();}
 320:C:/Workspace/FW_Platform2_5/trunk/HAL/RN_RX200/EmbOS\vector_table.c **** 
 321:C:/Workspace/FW_Platform2_5/trunk/HAL/RN_RX200/EmbOS\vector_table.c **** __attribute__((weak)) void  INT_Excep_MTU0_TGIE0(void)	{	_IllegalException();}
 322:C:/Workspace/FW_Platform2_5/trunk/HAL/RN_RX200/EmbOS\vector_table.c **** 
 323:C:/Workspace/FW_Platform2_5/trunk/HAL/RN_RX200/EmbOS\vector_table.c **** __attribute__((weak)) void  INT_Excep_MTU0_TGIF0(void)	{	_IllegalException();}
 324:C:/Workspace/FW_Platform2_5/trunk/HAL/RN_RX200/EmbOS\vector_table.c **** 
 325:C:/Workspace/FW_Platform2_5/trunk/HAL/RN_RX200/EmbOS\vector_table.c **** __attribute__((weak)) void INT_Excep_MTU1_TGIA1(void)	{	_IllegalException();}
 326:C:/Workspace/FW_Platform2_5/trunk/HAL/RN_RX200/EmbOS\vector_table.c **** 
 327:C:/Workspace/FW_Platform2_5/trunk/HAL/RN_RX200/EmbOS\vector_table.c **** __attribute__((weak)) void INT_Excep_MTU1_TGIB1(void)	{	_IllegalException();}
 328:C:/Workspace/FW_Platform2_5/trunk/HAL/RN_RX200/EmbOS\vector_table.c **** 
 329:C:/Workspace/FW_Platform2_5/trunk/HAL/RN_RX200/EmbOS\vector_table.c **** __attribute__((weak)) void INT_Excep_MTU1_TCIV1(void)	{	_IllegalException();}
 330:C:/Workspace/FW_Platform2_5/trunk/HAL/RN_RX200/EmbOS\vector_table.c **** 
 331:C:/Workspace/FW_Platform2_5/trunk/HAL/RN_RX200/EmbOS\vector_table.c **** __attribute__((weak)) void INT_Excep_MTU1_TCIU1(void)	{	_IllegalException();}
 332:C:/Workspace/FW_Platform2_5/trunk/HAL/RN_RX200/EmbOS\vector_table.c **** 
 333:C:/Workspace/FW_Platform2_5/trunk/HAL/RN_RX200/EmbOS\vector_table.c **** __attribute__((weak)) void INT_Excep_MTU2_TGIA2(void)	{	_IllegalException();}
 334:C:/Workspace/FW_Platform2_5/trunk/HAL/RN_RX200/EmbOS\vector_table.c **** 
 335:C:/Workspace/FW_Platform2_5/trunk/HAL/RN_RX200/EmbOS\vector_table.c **** __attribute__((weak)) void INT_Excep_MTU2_TGIB2(void)	{	_IllegalException();}
 336:C:/Workspace/FW_Platform2_5/trunk/HAL/RN_RX200/EmbOS\vector_table.c **** 
 337:C:/Workspace/FW_Platform2_5/trunk/HAL/RN_RX200/EmbOS\vector_table.c **** __attribute__((weak)) void INT_Excep_MTU2_TCIV2(void)	{	_IllegalException();}
 338:C:/Workspace/FW_Platform2_5/trunk/HAL/RN_RX200/EmbOS\vector_table.c **** 
 339:C:/Workspace/FW_Platform2_5/trunk/HAL/RN_RX200/EmbOS\vector_table.c **** __attribute__((weak)) void INT_Excep_MTU2_TCIU2(void)	{	_IllegalException();}
 340:C:/Workspace/FW_Platform2_5/trunk/HAL/RN_RX200/EmbOS\vector_table.c **** 
 341:C:/Workspace/FW_Platform2_5/trunk/HAL/RN_RX200/EmbOS\vector_table.c **** __attribute__((weak)) void INT_Excep_MTU3_TGIA3(void)	{	_IllegalException();}
 342:C:/Workspace/FW_Platform2_5/trunk/HAL/RN_RX200/EmbOS\vector_table.c **** 
 343:C:/Workspace/FW_Platform2_5/trunk/HAL/RN_RX200/EmbOS\vector_table.c **** __attribute__((weak)) void INT_Excep_MTU3_TGIB3(void)	{	_IllegalException();}
 344:C:/Workspace/FW_Platform2_5/trunk/HAL/RN_RX200/EmbOS\vector_table.c **** 
 345:C:/Workspace/FW_Platform2_5/trunk/HAL/RN_RX200/EmbOS\vector_table.c **** __attribute__((weak)) void INT_Excep_MTU3_TGIC3(void)	{	_IllegalException();}
 346:C:/Workspace/FW_Platform2_5/trunk/HAL/RN_RX200/EmbOS\vector_table.c **** 
 347:C:/Workspace/FW_Platform2_5/trunk/HAL/RN_RX200/EmbOS\vector_table.c **** __attribute__((weak)) void INT_Excep_MTU3_TGID3(void)	{	_IllegalException();}
 348:C:/Workspace/FW_Platform2_5/trunk/HAL/RN_RX200/EmbOS\vector_table.c **** 
 349:C:/Workspace/FW_Platform2_5/trunk/HAL/RN_RX200/EmbOS\vector_table.c **** __attribute__((weak)) void INT_Excep_MTU3_TCIV3(void)	{	_IllegalException();}
 350:C:/Workspace/FW_Platform2_5/trunk/HAL/RN_RX200/EmbOS\vector_table.c **** 
 351:C:/Workspace/FW_Platform2_5/trunk/HAL/RN_RX200/EmbOS\vector_table.c **** __attribute__((weak)) void INT_Excep_MTU4_TGIA4(void)	{	_IllegalException();}
 352:C:/Workspace/FW_Platform2_5/trunk/HAL/RN_RX200/EmbOS\vector_table.c **** 
 353:C:/Workspace/FW_Platform2_5/trunk/HAL/RN_RX200/EmbOS\vector_table.c **** __attribute__((weak)) void INT_Excep_MTU4_TGIB4(void)	{	_IllegalException();}
 354:C:/Workspace/FW_Platform2_5/trunk/HAL/RN_RX200/EmbOS\vector_table.c **** 
 355:C:/Workspace/FW_Platform2_5/trunk/HAL/RN_RX200/EmbOS\vector_table.c **** __attribute__((weak)) void INT_Excep_MTU4_TGIC4(void)	{	_IllegalException();}
 356:C:/Workspace/FW_Platform2_5/trunk/HAL/RN_RX200/EmbOS\vector_table.c **** 
 357:C:/Workspace/FW_Platform2_5/trunk/HAL/RN_RX200/EmbOS\vector_table.c **** __attribute__((weak)) void INT_Excep_MTU4_TGID4(void)	{	_IllegalException();}
 358:C:/Workspace/FW_Platform2_5/trunk/HAL/RN_RX200/EmbOS\vector_table.c **** 
 359:C:/Workspace/FW_Platform2_5/trunk/HAL/RN_RX200/EmbOS\vector_table.c **** __attribute__((weak)) void INT_Excep_MTU4_TCIV4(void)	{	_IllegalException();}
 360:C:/Workspace/FW_Platform2_5/trunk/HAL/RN_RX200/EmbOS\vector_table.c **** 
 361:C:/Workspace/FW_Platform2_5/trunk/HAL/RN_RX200/EmbOS\vector_table.c **** __attribute__((weak)) void INT_Excep_MTU5_TGIU5(void)	{	_IllegalException();}
 362:C:/Workspace/FW_Platform2_5/trunk/HAL/RN_RX200/EmbOS\vector_table.c **** 
 363:C:/Workspace/FW_Platform2_5/trunk/HAL/RN_RX200/EmbOS\vector_table.c **** __attribute__((weak)) void INT_Excep_MTU5_TGIV5(void)	{	_IllegalException();}
 364:C:/Workspace/FW_Platform2_5/trunk/HAL/RN_RX200/EmbOS\vector_table.c **** 
 365:C:/Workspace/FW_Platform2_5/trunk/HAL/RN_RX200/EmbOS\vector_table.c **** __attribute__((weak)) void INT_Excep_OEI1(void)			{	_IllegalException();}
 366:C:/Workspace/FW_Platform2_5/trunk/HAL/RN_RX200/EmbOS\vector_table.c **** 
 367:C:/Workspace/FW_Platform2_5/trunk/HAL/RN_RX200/EmbOS\vector_table.c **** __attribute__((weak)) void INT_Excep_OEI2(void)			{	_IllegalException();}
 368:C:/Workspace/FW_Platform2_5/trunk/HAL/RN_RX200/EmbOS\vector_table.c **** 
 369:C:/Workspace/FW_Platform2_5/trunk/HAL/RN_RX200/EmbOS\vector_table.c **** __attribute__((weak)) void INT_Excep_MTU5_TGIW5(void)	{	_IllegalException();}
 370:C:/Workspace/FW_Platform2_5/trunk/HAL/RN_RX200/EmbOS\vector_table.c **** /*;0x02BC  TMR0_CMI0B*/
 371:C:/Workspace/FW_Platform2_5/trunk/HAL/RN_RX200/EmbOS\vector_table.c **** __attribute__((weak)) void INT_Excep_TMR0_CMI0B(void)	{	_IllegalException(); }
 372:C:/Workspace/FW_Platform2_5/trunk/HAL/RN_RX200/EmbOS\vector_table.c **** /*;0x02C0  TMR0_OV0I*/
 373:C:/Workspace/FW_Platform2_5/trunk/HAL/RN_RX200/EmbOS\vector_table.c **** __attribute__((weak)) void INT_Excep_TMR0_OV0I(void)	{	_IllegalException(); }
 374:C:/Workspace/FW_Platform2_5/trunk/HAL/RN_RX200/EmbOS\vector_table.c **** /*;0x02C4  TMR1_CMI1A*/
 375:C:/Workspace/FW_Platform2_5/trunk/HAL/RN_RX200/EmbOS\vector_table.c **** __attribute__((weak)) void INT_Excep_TMR1_CMI1A(void)	{	_IllegalException(); }
 376:C:/Workspace/FW_Platform2_5/trunk/HAL/RN_RX200/EmbOS\vector_table.c **** /*;0x02C8  TMR1_CMI1B*/
 377:C:/Workspace/FW_Platform2_5/trunk/HAL/RN_RX200/EmbOS\vector_table.c **** __attribute__((weak)) void INT_Excep_TMR1_CMI1B(void)	{	_IllegalException();}
 378:C:/Workspace/FW_Platform2_5/trunk/HAL/RN_RX200/EmbOS\vector_table.c **** /*;0x02CC  TMR1_OV1I*/
 379:C:/Workspace/FW_Platform2_5/trunk/HAL/RN_RX200/EmbOS\vector_table.c **** __attribute__((weak)) void INT_Excep_TMR1_OV1I(void)	{	_IllegalException();}
 380:C:/Workspace/FW_Platform2_5/trunk/HAL/RN_RX200/EmbOS\vector_table.c **** /*;0x02D0 TMR2_CMI2A*/
 381:C:/Workspace/FW_Platform2_5/trunk/HAL/RN_RX200/EmbOS\vector_table.c **** __attribute__((weak)) void INT_Excep_TMR2_CMI2A(void)	{	_IllegalException();}
 382:C:/Workspace/FW_Platform2_5/trunk/HAL/RN_RX200/EmbOS\vector_table.c **** /*;0x02D4  TMR2_CMI2B*/
 383:C:/Workspace/FW_Platform2_5/trunk/HAL/RN_RX200/EmbOS\vector_table.c **** __attribute__((weak)) void INT_Excep_TMR2_CMI2B(void)	{	_IllegalException();}
 384:C:/Workspace/FW_Platform2_5/trunk/HAL/RN_RX200/EmbOS\vector_table.c **** /*;0x02D8  TMR2_OV2I*/
 385:C:/Workspace/FW_Platform2_5/trunk/HAL/RN_RX200/EmbOS\vector_table.c **** __attribute__((weak)) void INT_Excep_TMR2_OV2I(void)	{	_IllegalException();}
 386:C:/Workspace/FW_Platform2_5/trunk/HAL/RN_RX200/EmbOS\vector_table.c **** /*;0x02DC  TMR3_CMI3A*/
 387:C:/Workspace/FW_Platform2_5/trunk/HAL/RN_RX200/EmbOS\vector_table.c **** __attribute__((weak)) void INT_Excep_TMR3_CMI3A(void)	{	_IllegalException();}
 388:C:/Workspace/FW_Platform2_5/trunk/HAL/RN_RX200/EmbOS\vector_table.c **** /*;0x02E0 TMR3_CMI3B*/
 389:C:/Workspace/FW_Platform2_5/trunk/HAL/RN_RX200/EmbOS\vector_table.c **** __attribute__((weak)) void INT_Excep_TMR3_CMI3B(void)	{	_IllegalException();}
 390:C:/Workspace/FW_Platform2_5/trunk/HAL/RN_RX200/EmbOS\vector_table.c **** /*;0x02E4  TMR3_OV3I*/
 391:C:/Workspace/FW_Platform2_5/trunk/HAL/RN_RX200/EmbOS\vector_table.c **** __attribute__((weak)) void INT_Excep_TMR3_OV3I(void)	{	_IllegalException();}
 392:C:/Workspace/FW_Platform2_5/trunk/HAL/RN_RX200/EmbOS\vector_table.c **** /*;0x0318  DMAC_DMTEND0*/
 393:C:/Workspace/FW_Platform2_5/trunk/HAL/RN_RX200/EmbOS\vector_table.c **** __attribute__((weak)) void INT_Excep_DMAC_DMTEND0(void)	{	_IllegalException();}
 394:C:/Workspace/FW_Platform2_5/trunk/HAL/RN_RX200/EmbOS\vector_table.c **** /*;0x031C  DMAC_DMTEND1*/
 395:C:/Workspace/FW_Platform2_5/trunk/HAL/RN_RX200/EmbOS\vector_table.c **** __attribute__((weak)) void INT_Excep_DMAC_DMTEND1(void)	{	_IllegalException();}
 396:C:/Workspace/FW_Platform2_5/trunk/HAL/RN_RX200/EmbOS\vector_table.c **** /*;0x0320  DMAC_DMTEND2*/
 397:C:/Workspace/FW_Platform2_5/trunk/HAL/RN_RX200/EmbOS\vector_table.c **** __attribute__((weak)) void INT_Excep_DMAC_DMTEND2(void)	{	_IllegalException();}
 398:C:/Workspace/FW_Platform2_5/trunk/HAL/RN_RX200/EmbOS\vector_table.c **** /*;0x0324  DMAC_DMTEND3*/
 399:C:/Workspace/FW_Platform2_5/trunk/HAL/RN_RX200/EmbOS\vector_table.c **** __attribute__((weak)) void INT_Excep_DMAC_DMTEND3(void)	{	_IllegalException();}
 400:C:/Workspace/FW_Platform2_5/trunk/HAL/RN_RX200/EmbOS\vector_table.c **** /*;0x0358  SCI0_ERI0*/
 401:C:/Workspace/FW_Platform2_5/trunk/HAL/RN_RX200/EmbOS\vector_table.c **** __attribute__((weak)) void INT_Excep_SCI0_ERI0(void)	{	_IllegalException();}
 402:C:/Workspace/FW_Platform2_5/trunk/HAL/RN_RX200/EmbOS\vector_table.c **** /*;0x035C  SCI0_RXI0*/
 403:C:/Workspace/FW_Platform2_5/trunk/HAL/RN_RX200/EmbOS\vector_table.c **** __attribute__((weak)) void INT_Excep_SCI0_RXI0(void)	{	_IllegalException();}
 404:C:/Workspace/FW_Platform2_5/trunk/HAL/RN_RX200/EmbOS\vector_table.c **** /*;0x0360  SCI0_TXI0*/
 405:C:/Workspace/FW_Platform2_5/trunk/HAL/RN_RX200/EmbOS\vector_table.c **** __attribute__((weak)) void INT_Excep_SCI0_TXI0(void)	{	_IllegalException();}
 406:C:/Workspace/FW_Platform2_5/trunk/HAL/RN_RX200/EmbOS\vector_table.c **** /*;0x0364  SCI0_TEI0*/
 407:C:/Workspace/FW_Platform2_5/trunk/HAL/RN_RX200/EmbOS\vector_table.c **** __attribute__((weak)) void INT_Excep_SCI0_TEI0(void)	{	_IllegalException();}
 408:C:/Workspace/FW_Platform2_5/trunk/HAL/RN_RX200/EmbOS\vector_table.c **** /*;0x0368  SCI1_ERI1*/
 409:C:/Workspace/FW_Platform2_5/trunk/HAL/RN_RX200/EmbOS\vector_table.c **** __attribute__((weak)) void INT_Excep_SCI1_ERI1(void)	{	_IllegalException();}
 410:C:/Workspace/FW_Platform2_5/trunk/HAL/RN_RX200/EmbOS\vector_table.c **** /*;0x036C  SCI1_RXI1*/
 411:C:/Workspace/FW_Platform2_5/trunk/HAL/RN_RX200/EmbOS\vector_table.c **** __attribute__((weak)) void INT_Excep_SCI1_RXI1(void)	{	_IllegalException();}
 412:C:/Workspace/FW_Platform2_5/trunk/HAL/RN_RX200/EmbOS\vector_table.c **** /*;0x0370  SCI1_TXI1*/
 413:C:/Workspace/FW_Platform2_5/trunk/HAL/RN_RX200/EmbOS\vector_table.c **** __attribute__((weak)) void INT_Excep_SCI1_TXI1(void)	{	_IllegalException();}
 414:C:/Workspace/FW_Platform2_5/trunk/HAL/RN_RX200/EmbOS\vector_table.c **** /*;0x0374  SCI1_TEI1*/
 415:C:/Workspace/FW_Platform2_5/trunk/HAL/RN_RX200/EmbOS\vector_table.c **** __attribute__((weak)) void INT_Excep_SCI1_TEI1(void)	{	_IllegalException();}
 416:C:/Workspace/FW_Platform2_5/trunk/HAL/RN_RX200/EmbOS\vector_table.c **** /*;0x0378  SCI2_ERI2*/
 417:C:/Workspace/FW_Platform2_5/trunk/HAL/RN_RX200/EmbOS\vector_table.c **** __attribute__((weak)) void INT_Excep_SCI5_ERI5(void)	{	_IllegalException();}
 418:C:/Workspace/FW_Platform2_5/trunk/HAL/RN_RX200/EmbOS\vector_table.c **** /*;0x037C  SCI2_RXI2*/
 419:C:/Workspace/FW_Platform2_5/trunk/HAL/RN_RX200/EmbOS\vector_table.c **** __attribute__((weak)) void INT_Excep_SCI5_RXI5(void)	{	_IllegalException();}
 420:C:/Workspace/FW_Platform2_5/trunk/HAL/RN_RX200/EmbOS\vector_table.c **** /*;0x0380  SCI2_TXI2*/
 421:C:/Workspace/FW_Platform2_5/trunk/HAL/RN_RX200/EmbOS\vector_table.c **** __attribute__((weak)) void INT_Excep_SCI5_TXI5(void)	{	_IllegalException();}
 422:C:/Workspace/FW_Platform2_5/trunk/HAL/RN_RX200/EmbOS\vector_table.c **** /*;0x0384  SCI2_TEI2*/
 423:C:/Workspace/FW_Platform2_5/trunk/HAL/RN_RX200/EmbOS\vector_table.c **** __attribute__((weak)) void INT_Excep_SCI5_TEI5(void)	{	_IllegalException();}
 424:C:/Workspace/FW_Platform2_5/trunk/HAL/RN_RX200/EmbOS\vector_table.c **** /*;0x0388  SCI3_ERI3*/
 425:C:/Workspace/FW_Platform2_5/trunk/HAL/RN_RX200/EmbOS\vector_table.c **** __attribute__((weak)) void INT_Excep_SCI6_ERI6(void)	{	_IllegalException();}
 426:C:/Workspace/FW_Platform2_5/trunk/HAL/RN_RX200/EmbOS\vector_table.c **** /*;0x038C  SCI3_RXI3*/
 427:C:/Workspace/FW_Platform2_5/trunk/HAL/RN_RX200/EmbOS\vector_table.c **** __attribute__((weak)) void INT_Excep_SCI6_RXI6(void)	{	_IllegalException();}
 428:C:/Workspace/FW_Platform2_5/trunk/HAL/RN_RX200/EmbOS\vector_table.c **** /*;0x0390  SCI3_TXI3*/
 429:C:/Workspace/FW_Platform2_5/trunk/HAL/RN_RX200/EmbOS\vector_table.c **** __attribute__((weak)) void INT_Excep_SCI6_TXI6(void)	{	_IllegalException();}
 430:C:/Workspace/FW_Platform2_5/trunk/HAL/RN_RX200/EmbOS\vector_table.c **** /*;0x0394  SCI3_TEI3*/
 431:C:/Workspace/FW_Platform2_5/trunk/HAL/RN_RX200/EmbOS\vector_table.c **** __attribute__((weak)) void INT_Excep_SCI6_TEI6(void)	{	_IllegalException();}
 432:C:/Workspace/FW_Platform2_5/trunk/HAL/RN_RX200/EmbOS\vector_table.c **** /*;0x0398  SCI4_ERI4*/
 433:C:/Workspace/FW_Platform2_5/trunk/HAL/RN_RX200/EmbOS\vector_table.c **** __attribute__((weak)) void INT_Excep_SCI8_ERI8(void)	{	_IllegalException();}
 434:C:/Workspace/FW_Platform2_5/trunk/HAL/RN_RX200/EmbOS\vector_table.c **** /*;0x039C  SCI4_RXI4*/
 435:C:/Workspace/FW_Platform2_5/trunk/HAL/RN_RX200/EmbOS\vector_table.c **** __attribute__((weak)) void INT_Excep_SCI8_RXI8(void)	{	_IllegalException();}
 436:C:/Workspace/FW_Platform2_5/trunk/HAL/RN_RX200/EmbOS\vector_table.c **** /*;0x03A0  SCI4_TXI4*/
 437:C:/Workspace/FW_Platform2_5/trunk/HAL/RN_RX200/EmbOS\vector_table.c **** __attribute__((weak)) void INT_Excep_SCI8_TXI8(void)	{	_IllegalException();}
 438:C:/Workspace/FW_Platform2_5/trunk/HAL/RN_RX200/EmbOS\vector_table.c **** /*;0x03A4  SCI4_TEI4*/
 439:C:/Workspace/FW_Platform2_5/trunk/HAL/RN_RX200/EmbOS\vector_table.c **** __attribute__((weak)) void INT_Excep_SCI8_TEI8(void)	{	_IllegalException();}
 440:C:/Workspace/FW_Platform2_5/trunk/HAL/RN_RX200/EmbOS\vector_table.c **** /*;0x03A8  SCI5_ERI5*/
 441:C:/Workspace/FW_Platform2_5/trunk/HAL/RN_RX200/EmbOS\vector_table.c **** __attribute__((weak)) void INT_Excep_SCI9_ERI9(void)	{	_IllegalException();}
 442:C:/Workspace/FW_Platform2_5/trunk/HAL/RN_RX200/EmbOS\vector_table.c **** /*;0x03AC  SCI5_RXI5*/
 443:C:/Workspace/FW_Platform2_5/trunk/HAL/RN_RX200/EmbOS\vector_table.c **** __attribute__((weak)) void INT_Excep_SCI9_RXI9(void)	{	_IllegalException();}
 444:C:/Workspace/FW_Platform2_5/trunk/HAL/RN_RX200/EmbOS\vector_table.c **** /*;0x03B0  SCI5_TXI5*/
 445:C:/Workspace/FW_Platform2_5/trunk/HAL/RN_RX200/EmbOS\vector_table.c **** __attribute__((weak)) void INT_Excep_SCI9_TXI9(void)	{	_IllegalException();}
 446:C:/Workspace/FW_Platform2_5/trunk/HAL/RN_RX200/EmbOS\vector_table.c **** /*;0x03B4  SCI5_TEI5*/
 447:C:/Workspace/FW_Platform2_5/trunk/HAL/RN_RX200/EmbOS\vector_table.c **** __attribute__((weak)) void INT_Excep_SCI9_TEI9(void)	{	_IllegalException();}
 448:C:/Workspace/FW_Platform2_5/trunk/HAL/RN_RX200/EmbOS\vector_table.c **** /*;0x03B8  SCI6_ERI6*/
 449:C:/Workspace/FW_Platform2_5/trunk/HAL/RN_RX200/EmbOS\vector_table.c **** __attribute__((weak)) void INT_Excep_SCI12_ERI12(void)	{	_IllegalException();}
 450:C:/Workspace/FW_Platform2_5/trunk/HAL/RN_RX200/EmbOS\vector_table.c **** /*;0x03BC  SCI6_RXI6*/
 451:C:/Workspace/FW_Platform2_5/trunk/HAL/RN_RX200/EmbOS\vector_table.c **** __attribute__((weak)) void INT_Excep_SCI12_RXI12(void)	{	_IllegalException();}
 452:C:/Workspace/FW_Platform2_5/trunk/HAL/RN_RX200/EmbOS\vector_table.c **** /*;0x03C0  SCI6_TXI6*/
 453:C:/Workspace/FW_Platform2_5/trunk/HAL/RN_RX200/EmbOS\vector_table.c **** __attribute__((weak)) void INT_Excep_SCI12_TXI12(void)	{	_IllegalException();}
 454:C:/Workspace/FW_Platform2_5/trunk/HAL/RN_RX200/EmbOS\vector_table.c **** /*;0x03C4  SCI6_TEI6*/
 455:C:/Workspace/FW_Platform2_5/trunk/HAL/RN_RX200/EmbOS\vector_table.c **** __attribute__((weak)) void INT_Excep_SCI12_TEI12(void)	{	_IllegalException();}
 456:C:/Workspace/FW_Platform2_5/trunk/HAL/RN_RX200/EmbOS\vector_table.c **** 
 457:C:/Workspace/FW_Platform2_5/trunk/HAL/RN_RX200/EmbOS\vector_table.c **** __attribute__((weak)) void INT_Excep_SCIX0(void)		{	_IllegalException();}
 458:C:/Workspace/FW_Platform2_5/trunk/HAL/RN_RX200/EmbOS\vector_table.c **** 
 459:C:/Workspace/FW_Platform2_5/trunk/HAL/RN_RX200/EmbOS\vector_table.c **** __attribute__((weak)) void INT_Excep_SCIX1(void)		{	_IllegalException();}
 460:C:/Workspace/FW_Platform2_5/trunk/HAL/RN_RX200/EmbOS\vector_table.c **** 
 461:C:/Workspace/FW_Platform2_5/trunk/HAL/RN_RX200/EmbOS\vector_table.c **** __attribute__((weak)) void INT_Excep_SCIX2(void)		{	_IllegalException();}
 462:C:/Workspace/FW_Platform2_5/trunk/HAL/RN_RX200/EmbOS\vector_table.c **** 
 463:C:/Workspace/FW_Platform2_5/trunk/HAL/RN_RX200/EmbOS\vector_table.c **** __attribute__((weak)) void INT_Excep_SCIX3(void)		{	_IllegalException();}
 464:C:/Workspace/FW_Platform2_5/trunk/HAL/RN_RX200/EmbOS\vector_table.c **** 
 465:C:/Workspace/FW_Platform2_5/trunk/HAL/RN_RX200/EmbOS\vector_table.c **** /*;0x03D8  RIIC0_EEI0*/
 466:C:/Workspace/FW_Platform2_5/trunk/HAL/RN_RX200/EmbOS\vector_table.c **** __attribute__((weak))  void IIC0_Error_ISR(void)		{	_IllegalException();}
 467:C:/Workspace/FW_Platform2_5/trunk/HAL/RN_RX200/EmbOS\vector_table.c **** /*;0x03DC  RIIC0_RXI0*/
 468:C:/Workspace/FW_Platform2_5/trunk/HAL/RN_RX200/EmbOS\vector_table.c **** __attribute__((weak))  void IIC0_RX_ISR(void)			{	_IllegalException();}
 469:C:/Workspace/FW_Platform2_5/trunk/HAL/RN_RX200/EmbOS\vector_table.c **** /*;0x03E0  RIIC0_TXI0*/
 470:C:/Workspace/FW_Platform2_5/trunk/HAL/RN_RX200/EmbOS\vector_table.c **** __attribute__((weak))  void IIC0_TX_ISR(void)			{	_IllegalException();}
 471:C:/Workspace/FW_Platform2_5/trunk/HAL/RN_RX200/EmbOS\vector_table.c **** /*;0x03E4  RIIC0_TEI0*/
 472:C:/Workspace/FW_Platform2_5/trunk/HAL/RN_RX200/EmbOS\vector_table.c **** __attribute__((weak))  void IIC0_TX_END_ISR(void)		{	_IllegalException();}
  21                             		.loc 1 472 0
  22                             		; Note: Interrupt Handler
  23 0000 6E 1F                   		pushm	r1-r15
  24                             	.LCFI0:
  25                             		.loc 1 472 0
  26 0002 05 00 00 00             		bsr	__IllegalException
  27                             	.LVL1:
  28 0006 6F 1F                   		popm	r1-r15
  29 0008 7F 95                   		rte
  30                             	.LFE122:
  32                             		.section	.text.IIC0_TX_ISR,"ax",@progbits
  33                             		.weak	_IIC0_TX_ISR
  35                             	_IIC0_TX_ISR:
  36                             	.LFB121:
 470:C:/Workspace/FW_Platform2_5/trunk/HAL/RN_RX200/EmbOS\vector_table.c **** __attribute__((weak))  void IIC0_TX_ISR(void)			{	_IllegalException();}
  37                             		.loc 1 470 0
  38                             		; Note: Interrupt Handler
  39 0000 6E 1F                   		pushm	r1-r15
  40                             	.LCFI1:
 470:C:/Workspace/FW_Platform2_5/trunk/HAL/RN_RX200/EmbOS\vector_table.c **** __attribute__((weak))  void IIC0_TX_ISR(void)			{	_IllegalException();}
  41                             		.loc 1 470 0
  42 0002 05 00 00 00             		bsr	__IllegalException
  43                             	.LVL2:
  44 0006 6F 1F                   		popm	r1-r15
  45 0008 7F 95                   		rte
  46                             	.LFE121:
  48                             		.section	.text.IIC0_RX_ISR,"ax",@progbits
  49                             		.weak	_IIC0_RX_ISR
  51                             	_IIC0_RX_ISR:
  52                             	.LFB120:
 468:C:/Workspace/FW_Platform2_5/trunk/HAL/RN_RX200/EmbOS\vector_table.c **** __attribute__((weak))  void IIC0_RX_ISR(void)			{	_IllegalException();}
  53                             		.loc 1 468 0
  54                             		; Note: Interrupt Handler
  55 0000 6E 1F                   		pushm	r1-r15
  56                             	.LCFI2:
 468:C:/Workspace/FW_Platform2_5/trunk/HAL/RN_RX200/EmbOS\vector_table.c **** __attribute__((weak))  void IIC0_RX_ISR(void)			{	_IllegalException();}
  57                             		.loc 1 468 0
  58 0002 05 00 00 00             		bsr	__IllegalException
  59                             	.LVL3:
  60 0006 6F 1F                   		popm	r1-r15
  61 0008 7F 95                   		rte
  62                             	.LFE120:
  64                             		.section	.text.IIC0_Error_ISR,"ax",@progbits
  65                             		.weak	_IIC0_Error_ISR
  67                             	_IIC0_Error_ISR:
  68                             	.LFB119:
 466:C:/Workspace/FW_Platform2_5/trunk/HAL/RN_RX200/EmbOS\vector_table.c **** __attribute__((weak))  void IIC0_Error_ISR(void)		{	_IllegalException();}
  69                             		.loc 1 466 0
  70                             		; Note: Interrupt Handler
  71 0000 6E 1F                   		pushm	r1-r15
  72                             	.LCFI3:
 466:C:/Workspace/FW_Platform2_5/trunk/HAL/RN_RX200/EmbOS\vector_table.c **** __attribute__((weak))  void IIC0_Error_ISR(void)		{	_IllegalException();}
  73                             		.loc 1 466 0
  74 0002 05 00 00 00             		bsr	__IllegalException
  75                             	.LVL4:
  76 0006 6F 1F                   		popm	r1-r15
  77 0008 7F 95                   		rte
  78                             	.LFE119:
  80                             		.section	.text.INT_Excep_SCIX3,"ax",@progbits
  81                             		.weak	_INT_Excep_SCIX3
  83                             	_INT_Excep_SCIX3:
  84                             	.LFB118:
 463:C:/Workspace/FW_Platform2_5/trunk/HAL/RN_RX200/EmbOS\vector_table.c **** __attribute__((weak)) void INT_Excep_SCIX3(void)		{	_IllegalException();}
  85                             		.loc 1 463 0
  86                             		; Note: Interrupt Handler
  87 0000 6E 1F                   		pushm	r1-r15
  88                             	.LCFI4:
 463:C:/Workspace/FW_Platform2_5/trunk/HAL/RN_RX200/EmbOS\vector_table.c **** __attribute__((weak)) void INT_Excep_SCIX3(void)		{	_IllegalException();}
  89                             		.loc 1 463 0
  90 0002 05 00 00 00             		bsr	__IllegalException
  91                             	.LVL5:
  92 0006 6F 1F                   		popm	r1-r15
  93 0008 7F 95                   		rte
  94                             	.LFE118:
  96                             		.section	.text.INT_Excep_SCIX2,"ax",@progbits
  97                             		.weak	_INT_Excep_SCIX2
  99                             	_INT_Excep_SCIX2:
 100                             	.LFB117:
 461:C:/Workspace/FW_Platform2_5/trunk/HAL/RN_RX200/EmbOS\vector_table.c **** __attribute__((weak)) void INT_Excep_SCIX2(void)		{	_IllegalException();}
 101                             		.loc 1 461 0
 102                             		; Note: Interrupt Handler
 103 0000 6E 1F                   		pushm	r1-r15
 104                             	.LCFI5:
 461:C:/Workspace/FW_Platform2_5/trunk/HAL/RN_RX200/EmbOS\vector_table.c **** __attribute__((weak)) void INT_Excep_SCIX2(void)		{	_IllegalException();}
 105                             		.loc 1 461 0
 106 0002 05 00 00 00             		bsr	__IllegalException
 107                             	.LVL6:
 108 0006 6F 1F                   		popm	r1-r15
 109 0008 7F 95                   		rte
 110                             	.LFE117:
 112                             		.section	.text.INT_Excep_SCIX1,"ax",@progbits
 113                             		.weak	_INT_Excep_SCIX1
 115                             	_INT_Excep_SCIX1:
 116                             	.LFB116:
 459:C:/Workspace/FW_Platform2_5/trunk/HAL/RN_RX200/EmbOS\vector_table.c **** __attribute__((weak)) void INT_Excep_SCIX1(void)		{	_IllegalException();}
 117                             		.loc 1 459 0
 118                             		; Note: Interrupt Handler
 119 0000 6E 1F                   		pushm	r1-r15
 120                             	.LCFI6:
 459:C:/Workspace/FW_Platform2_5/trunk/HAL/RN_RX200/EmbOS\vector_table.c **** __attribute__((weak)) void INT_Excep_SCIX1(void)		{	_IllegalException();}
 121                             		.loc 1 459 0
 122 0002 05 00 00 00             		bsr	__IllegalException
 123                             	.LVL7:
 124 0006 6F 1F                   		popm	r1-r15
 125 0008 7F 95                   		rte
 126                             	.LFE116:
 128                             		.section	.text.INT_Excep_SCIX0,"ax",@progbits
 129                             		.weak	_INT_Excep_SCIX0
 131                             	_INT_Excep_SCIX0:
 132                             	.LFB115:
 457:C:/Workspace/FW_Platform2_5/trunk/HAL/RN_RX200/EmbOS\vector_table.c **** __attribute__((weak)) void INT_Excep_SCIX0(void)		{	_IllegalException();}
 133                             		.loc 1 457 0
 134                             		; Note: Interrupt Handler
 135 0000 6E 1F                   		pushm	r1-r15
 136                             	.LCFI7:
 457:C:/Workspace/FW_Platform2_5/trunk/HAL/RN_RX200/EmbOS\vector_table.c **** __attribute__((weak)) void INT_Excep_SCIX0(void)		{	_IllegalException();}
 137                             		.loc 1 457 0
 138 0002 05 00 00 00             		bsr	__IllegalException
 139                             	.LVL8:
 140 0006 6F 1F                   		popm	r1-r15
 141 0008 7F 95                   		rte
 142                             	.LFE115:
 144                             		.section	.text.INT_Excep_SCI12_TEI12,"ax",@progbits
 145                             		.weak	_INT_Excep_SCI12_TEI12
 147                             	_INT_Excep_SCI12_TEI12:
 148                             	.LFB114:
 455:C:/Workspace/FW_Platform2_5/trunk/HAL/RN_RX200/EmbOS\vector_table.c **** __attribute__((weak)) void INT_Excep_SCI12_TEI12(void)	{	_IllegalException();}
 149                             		.loc 1 455 0
 150                             		; Note: Interrupt Handler
 151 0000 6E 1F                   		pushm	r1-r15
 152                             	.LCFI8:
 455:C:/Workspace/FW_Platform2_5/trunk/HAL/RN_RX200/EmbOS\vector_table.c **** __attribute__((weak)) void INT_Excep_SCI12_TEI12(void)	{	_IllegalException();}
 153                             		.loc 1 455 0
 154 0002 05 00 00 00             		bsr	__IllegalException
 155                             	.LVL9:
 156 0006 6F 1F                   		popm	r1-r15
 157 0008 7F 95                   		rte
 158                             	.LFE114:
 160                             		.section	.text.INT_Excep_SCI12_TXI12,"ax",@progbits
 161                             		.weak	_INT_Excep_SCI12_TXI12
 163                             	_INT_Excep_SCI12_TXI12:
 164                             	.LFB113:
 453:C:/Workspace/FW_Platform2_5/trunk/HAL/RN_RX200/EmbOS\vector_table.c **** __attribute__((weak)) void INT_Excep_SCI12_TXI12(void)	{	_IllegalException();}
 165                             		.loc 1 453 0
 166                             		; Note: Interrupt Handler
 167 0000 6E 1F                   		pushm	r1-r15
 168                             	.LCFI9:
 453:C:/Workspace/FW_Platform2_5/trunk/HAL/RN_RX200/EmbOS\vector_table.c **** __attribute__((weak)) void INT_Excep_SCI12_TXI12(void)	{	_IllegalException();}
 169                             		.loc 1 453 0
 170 0002 05 00 00 00             		bsr	__IllegalException
 171                             	.LVL10:
 172 0006 6F 1F                   		popm	r1-r15
 173 0008 7F 95                   		rte
 174                             	.LFE113:
 176                             		.section	.text.INT_Excep_SCI12_RXI12,"ax",@progbits
 177                             		.weak	_INT_Excep_SCI12_RXI12
 179                             	_INT_Excep_SCI12_RXI12:
 180                             	.LFB112:
 451:C:/Workspace/FW_Platform2_5/trunk/HAL/RN_RX200/EmbOS\vector_table.c **** __attribute__((weak)) void INT_Excep_SCI12_RXI12(void)	{	_IllegalException();}
 181                             		.loc 1 451 0
 182                             		; Note: Interrupt Handler
 183 0000 6E 1F                   		pushm	r1-r15
 184                             	.LCFI10:
 451:C:/Workspace/FW_Platform2_5/trunk/HAL/RN_RX200/EmbOS\vector_table.c **** __attribute__((weak)) void INT_Excep_SCI12_RXI12(void)	{	_IllegalException();}
 185                             		.loc 1 451 0
 186 0002 05 00 00 00             		bsr	__IllegalException
 187                             	.LVL11:
 188 0006 6F 1F                   		popm	r1-r15
 189 0008 7F 95                   		rte
 190                             	.LFE112:
 192                             		.section	.text.INT_Excep_SCI12_ERI12,"ax",@progbits
 193                             		.weak	_INT_Excep_SCI12_ERI12
 195                             	_INT_Excep_SCI12_ERI12:
 196                             	.LFB111:
 449:C:/Workspace/FW_Platform2_5/trunk/HAL/RN_RX200/EmbOS\vector_table.c **** __attribute__((weak)) void INT_Excep_SCI12_ERI12(void)	{	_IllegalException();}
 197                             		.loc 1 449 0
 198                             		; Note: Interrupt Handler
 199 0000 6E 1F                   		pushm	r1-r15
 200                             	.LCFI11:
 449:C:/Workspace/FW_Platform2_5/trunk/HAL/RN_RX200/EmbOS\vector_table.c **** __attribute__((weak)) void INT_Excep_SCI12_ERI12(void)	{	_IllegalException();}
 201                             		.loc 1 449 0
 202 0002 05 00 00 00             		bsr	__IllegalException
 203                             	.LVL12:
 204 0006 6F 1F                   		popm	r1-r15
 205 0008 7F 95                   		rte
 206                             	.LFE111:
 208                             		.section	.text.INT_Excep_SCI9_TEI9,"ax",@progbits
 209                             		.weak	_INT_Excep_SCI9_TEI9
 211                             	_INT_Excep_SCI9_TEI9:
 212                             	.LFB110:
 447:C:/Workspace/FW_Platform2_5/trunk/HAL/RN_RX200/EmbOS\vector_table.c **** __attribute__((weak)) void INT_Excep_SCI9_TEI9(void)	{	_IllegalException();}
 213                             		.loc 1 447 0
 214                             		; Note: Interrupt Handler
 215 0000 6E 1F                   		pushm	r1-r15
 216                             	.LCFI12:
 447:C:/Workspace/FW_Platform2_5/trunk/HAL/RN_RX200/EmbOS\vector_table.c **** __attribute__((weak)) void INT_Excep_SCI9_TEI9(void)	{	_IllegalException();}
 217                             		.loc 1 447 0
 218 0002 05 00 00 00             		bsr	__IllegalException
 219                             	.LVL13:
 220 0006 6F 1F                   		popm	r1-r15
 221 0008 7F 95                   		rte
 222                             	.LFE110:
 224                             		.section	.text.INT_Excep_SCI9_TXI9,"ax",@progbits
 225                             		.weak	_INT_Excep_SCI9_TXI9
 227                             	_INT_Excep_SCI9_TXI9:
 228                             	.LFB109:
 445:C:/Workspace/FW_Platform2_5/trunk/HAL/RN_RX200/EmbOS\vector_table.c **** __attribute__((weak)) void INT_Excep_SCI9_TXI9(void)	{	_IllegalException();}
 229                             		.loc 1 445 0
 230                             		; Note: Interrupt Handler
 231 0000 6E 1F                   		pushm	r1-r15
 232                             	.LCFI13:
 445:C:/Workspace/FW_Platform2_5/trunk/HAL/RN_RX200/EmbOS\vector_table.c **** __attribute__((weak)) void INT_Excep_SCI9_TXI9(void)	{	_IllegalException();}
 233                             		.loc 1 445 0
 234 0002 05 00 00 00             		bsr	__IllegalException
 235                             	.LVL14:
 236 0006 6F 1F                   		popm	r1-r15
 237 0008 7F 95                   		rte
 238                             	.LFE109:
 240                             		.section	.text.INT_Excep_SCI9_RXI9,"ax",@progbits
 241                             		.weak	_INT_Excep_SCI9_RXI9
 243                             	_INT_Excep_SCI9_RXI9:
 244                             	.LFB108:
 443:C:/Workspace/FW_Platform2_5/trunk/HAL/RN_RX200/EmbOS\vector_table.c **** __attribute__((weak)) void INT_Excep_SCI9_RXI9(void)	{	_IllegalException();}
 245                             		.loc 1 443 0
 246                             		; Note: Interrupt Handler
 247 0000 6E 1F                   		pushm	r1-r15
 248                             	.LCFI14:
 443:C:/Workspace/FW_Platform2_5/trunk/HAL/RN_RX200/EmbOS\vector_table.c **** __attribute__((weak)) void INT_Excep_SCI9_RXI9(void)	{	_IllegalException();}
 249                             		.loc 1 443 0
 250 0002 05 00 00 00             		bsr	__IllegalException
 251                             	.LVL15:
 252 0006 6F 1F                   		popm	r1-r15
 253 0008 7F 95                   		rte
 254                             	.LFE108:
 256                             		.section	.text.INT_Excep_SCI9_ERI9,"ax",@progbits
 257                             		.weak	_INT_Excep_SCI9_ERI9
 259                             	_INT_Excep_SCI9_ERI9:
 260                             	.LFB107:
 441:C:/Workspace/FW_Platform2_5/trunk/HAL/RN_RX200/EmbOS\vector_table.c **** __attribute__((weak)) void INT_Excep_SCI9_ERI9(void)	{	_IllegalException();}
 261                             		.loc 1 441 0
 262                             		; Note: Interrupt Handler
 263 0000 6E 1F                   		pushm	r1-r15
 264                             	.LCFI15:
 441:C:/Workspace/FW_Platform2_5/trunk/HAL/RN_RX200/EmbOS\vector_table.c **** __attribute__((weak)) void INT_Excep_SCI9_ERI9(void)	{	_IllegalException();}
 265                             		.loc 1 441 0
 266 0002 05 00 00 00             		bsr	__IllegalException
 267                             	.LVL16:
 268 0006 6F 1F                   		popm	r1-r15
 269 0008 7F 95                   		rte
 270                             	.LFE107:
 272                             		.section	.text.INT_Excep_SCI8_TEI8,"ax",@progbits
 273                             		.weak	_INT_Excep_SCI8_TEI8
 275                             	_INT_Excep_SCI8_TEI8:
 276                             	.LFB106:
 439:C:/Workspace/FW_Platform2_5/trunk/HAL/RN_RX200/EmbOS\vector_table.c **** __attribute__((weak)) void INT_Excep_SCI8_TEI8(void)	{	_IllegalException();}
 277                             		.loc 1 439 0
 278                             		; Note: Interrupt Handler
 279 0000 6E 1F                   		pushm	r1-r15
 280                             	.LCFI16:
 439:C:/Workspace/FW_Platform2_5/trunk/HAL/RN_RX200/EmbOS\vector_table.c **** __attribute__((weak)) void INT_Excep_SCI8_TEI8(void)	{	_IllegalException();}
 281                             		.loc 1 439 0
 282 0002 05 00 00 00             		bsr	__IllegalException
 283                             	.LVL17:
 284 0006 6F 1F                   		popm	r1-r15
 285 0008 7F 95                   		rte
 286                             	.LFE106:
 288                             		.section	.text.INT_Excep_SCI8_TXI8,"ax",@progbits
 289                             		.weak	_INT_Excep_SCI8_TXI8
 291                             	_INT_Excep_SCI8_TXI8:
 292                             	.LFB105:
 437:C:/Workspace/FW_Platform2_5/trunk/HAL/RN_RX200/EmbOS\vector_table.c **** __attribute__((weak)) void INT_Excep_SCI8_TXI8(void)	{	_IllegalException();}
 293                             		.loc 1 437 0
 294                             		; Note: Interrupt Handler
 295 0000 6E 1F                   		pushm	r1-r15
 296                             	.LCFI17:
 437:C:/Workspace/FW_Platform2_5/trunk/HAL/RN_RX200/EmbOS\vector_table.c **** __attribute__((weak)) void INT_Excep_SCI8_TXI8(void)	{	_IllegalException();}
 297                             		.loc 1 437 0
 298 0002 05 00 00 00             		bsr	__IllegalException
 299                             	.LVL18:
 300 0006 6F 1F                   		popm	r1-r15
 301 0008 7F 95                   		rte
 302                             	.LFE105:
 304                             		.section	.text.INT_Excep_SCI8_RXI8,"ax",@progbits
 305                             		.weak	_INT_Excep_SCI8_RXI8
 307                             	_INT_Excep_SCI8_RXI8:
 308                             	.LFB104:
 435:C:/Workspace/FW_Platform2_5/trunk/HAL/RN_RX200/EmbOS\vector_table.c **** __attribute__((weak)) void INT_Excep_SCI8_RXI8(void)	{	_IllegalException();}
 309                             		.loc 1 435 0
 310                             		; Note: Interrupt Handler
 311 0000 6E 1F                   		pushm	r1-r15
 312                             	.LCFI18:
 435:C:/Workspace/FW_Platform2_5/trunk/HAL/RN_RX200/EmbOS\vector_table.c **** __attribute__((weak)) void INT_Excep_SCI8_RXI8(void)	{	_IllegalException();}
 313                             		.loc 1 435 0
 314 0002 05 00 00 00             		bsr	__IllegalException
 315                             	.LVL19:
 316 0006 6F 1F                   		popm	r1-r15
 317 0008 7F 95                   		rte
 318                             	.LFE104:
 320                             		.section	.text.INT_Excep_SCI8_ERI8,"ax",@progbits
 321                             		.weak	_INT_Excep_SCI8_ERI8
 323                             	_INT_Excep_SCI8_ERI8:
 324                             	.LFB103:
 433:C:/Workspace/FW_Platform2_5/trunk/HAL/RN_RX200/EmbOS\vector_table.c **** __attribute__((weak)) void INT_Excep_SCI8_ERI8(void)	{	_IllegalException();}
 325                             		.loc 1 433 0
 326                             		; Note: Interrupt Handler
 327 0000 6E 1F                   		pushm	r1-r15
 328                             	.LCFI19:
 433:C:/Workspace/FW_Platform2_5/trunk/HAL/RN_RX200/EmbOS\vector_table.c **** __attribute__((weak)) void INT_Excep_SCI8_ERI8(void)	{	_IllegalException();}
 329                             		.loc 1 433 0
 330 0002 05 00 00 00             		bsr	__IllegalException
 331                             	.LVL20:
 332 0006 6F 1F                   		popm	r1-r15
 333 0008 7F 95                   		rte
 334                             	.LFE103:
 336                             		.section	.text.INT_Excep_SCI6_TEI6,"ax",@progbits
 337                             		.weak	_INT_Excep_SCI6_TEI6
 339                             	_INT_Excep_SCI6_TEI6:
 340                             	.LFB102:
 431:C:/Workspace/FW_Platform2_5/trunk/HAL/RN_RX200/EmbOS\vector_table.c **** __attribute__((weak)) void INT_Excep_SCI6_TEI6(void)	{	_IllegalException();}
 341                             		.loc 1 431 0
 342                             		; Note: Interrupt Handler
 343 0000 6E 1F                   		pushm	r1-r15
 344                             	.LCFI20:
 431:C:/Workspace/FW_Platform2_5/trunk/HAL/RN_RX200/EmbOS\vector_table.c **** __attribute__((weak)) void INT_Excep_SCI6_TEI6(void)	{	_IllegalException();}
 345                             		.loc 1 431 0
 346 0002 05 00 00 00             		bsr	__IllegalException
 347                             	.LVL21:
 348 0006 6F 1F                   		popm	r1-r15
 349 0008 7F 95                   		rte
 350                             	.LFE102:
 352                             		.section	.text.INT_Excep_SCI6_TXI6,"ax",@progbits
 353                             		.weak	_INT_Excep_SCI6_TXI6
 355                             	_INT_Excep_SCI6_TXI6:
 356                             	.LFB101:
 429:C:/Workspace/FW_Platform2_5/trunk/HAL/RN_RX200/EmbOS\vector_table.c **** __attribute__((weak)) void INT_Excep_SCI6_TXI6(void)	{	_IllegalException();}
 357                             		.loc 1 429 0
 358                             		; Note: Interrupt Handler
 359 0000 6E 1F                   		pushm	r1-r15
 360                             	.LCFI21:
 429:C:/Workspace/FW_Platform2_5/trunk/HAL/RN_RX200/EmbOS\vector_table.c **** __attribute__((weak)) void INT_Excep_SCI6_TXI6(void)	{	_IllegalException();}
 361                             		.loc 1 429 0
 362 0002 05 00 00 00             		bsr	__IllegalException
 363                             	.LVL22:
 364 0006 6F 1F                   		popm	r1-r15
 365 0008 7F 95                   		rte
 366                             	.LFE101:
 368                             		.section	.text.INT_Excep_SCI6_RXI6,"ax",@progbits
 369                             		.weak	_INT_Excep_SCI6_RXI6
 371                             	_INT_Excep_SCI6_RXI6:
 372                             	.LFB100:
 427:C:/Workspace/FW_Platform2_5/trunk/HAL/RN_RX200/EmbOS\vector_table.c **** __attribute__((weak)) void INT_Excep_SCI6_RXI6(void)	{	_IllegalException();}
 373                             		.loc 1 427 0
 374                             		; Note: Interrupt Handler
 375 0000 6E 1F                   		pushm	r1-r15
 376                             	.LCFI22:
 427:C:/Workspace/FW_Platform2_5/trunk/HAL/RN_RX200/EmbOS\vector_table.c **** __attribute__((weak)) void INT_Excep_SCI6_RXI6(void)	{	_IllegalException();}
 377                             		.loc 1 427 0
 378 0002 05 00 00 00             		bsr	__IllegalException
 379                             	.LVL23:
 380 0006 6F 1F                   		popm	r1-r15
 381 0008 7F 95                   		rte
 382                             	.LFE100:
 384                             		.section	.text.INT_Excep_SCI6_ERI6,"ax",@progbits
 385                             		.weak	_INT_Excep_SCI6_ERI6
 387                             	_INT_Excep_SCI6_ERI6:
 388                             	.LFB99:
 425:C:/Workspace/FW_Platform2_5/trunk/HAL/RN_RX200/EmbOS\vector_table.c **** __attribute__((weak)) void INT_Excep_SCI6_ERI6(void)	{	_IllegalException();}
 389                             		.loc 1 425 0
 390                             		; Note: Interrupt Handler
 391 0000 6E 1F                   		pushm	r1-r15
 392                             	.LCFI23:
 425:C:/Workspace/FW_Platform2_5/trunk/HAL/RN_RX200/EmbOS\vector_table.c **** __attribute__((weak)) void INT_Excep_SCI6_ERI6(void)	{	_IllegalException();}
 393                             		.loc 1 425 0
 394 0002 05 00 00 00             		bsr	__IllegalException
 395                             	.LVL24:
 396 0006 6F 1F                   		popm	r1-r15
 397 0008 7F 95                   		rte
 398                             	.LFE99:
 400                             		.section	.text.INT_Excep_SCI5_TEI5,"ax",@progbits
 401                             		.weak	_INT_Excep_SCI5_TEI5
 403                             	_INT_Excep_SCI5_TEI5:
 404                             	.LFB98:
 423:C:/Workspace/FW_Platform2_5/trunk/HAL/RN_RX200/EmbOS\vector_table.c **** __attribute__((weak)) void INT_Excep_SCI5_TEI5(void)	{	_IllegalException();}
 405                             		.loc 1 423 0
 406                             		; Note: Interrupt Handler
 407 0000 6E 1F                   		pushm	r1-r15
 408                             	.LCFI24:
 423:C:/Workspace/FW_Platform2_5/trunk/HAL/RN_RX200/EmbOS\vector_table.c **** __attribute__((weak)) void INT_Excep_SCI5_TEI5(void)	{	_IllegalException();}
 409                             		.loc 1 423 0
 410 0002 05 00 00 00             		bsr	__IllegalException
 411                             	.LVL25:
 412 0006 6F 1F                   		popm	r1-r15
 413 0008 7F 95                   		rte
 414                             	.LFE98:
 416                             		.section	.text.INT_Excep_SCI5_TXI5,"ax",@progbits
 417                             		.weak	_INT_Excep_SCI5_TXI5
 419                             	_INT_Excep_SCI5_TXI5:
 420                             	.LFB97:
 421:C:/Workspace/FW_Platform2_5/trunk/HAL/RN_RX200/EmbOS\vector_table.c **** __attribute__((weak)) void INT_Excep_SCI5_TXI5(void)	{	_IllegalException();}
 421                             		.loc 1 421 0
 422                             		; Note: Interrupt Handler
 423 0000 6E 1F                   		pushm	r1-r15
 424                             	.LCFI25:
 421:C:/Workspace/FW_Platform2_5/trunk/HAL/RN_RX200/EmbOS\vector_table.c **** __attribute__((weak)) void INT_Excep_SCI5_TXI5(void)	{	_IllegalException();}
 425                             		.loc 1 421 0
 426 0002 05 00 00 00             		bsr	__IllegalException
 427                             	.LVL26:
 428 0006 6F 1F                   		popm	r1-r15
 429 0008 7F 95                   		rte
 430                             	.LFE97:
 432                             		.section	.text.INT_Excep_SCI5_RXI5,"ax",@progbits
 433                             		.weak	_INT_Excep_SCI5_RXI5
 435                             	_INT_Excep_SCI5_RXI5:
 436                             	.LFB96:
 419:C:/Workspace/FW_Platform2_5/trunk/HAL/RN_RX200/EmbOS\vector_table.c **** __attribute__((weak)) void INT_Excep_SCI5_RXI5(void)	{	_IllegalException();}
 437                             		.loc 1 419 0
 438                             		; Note: Interrupt Handler
 439 0000 6E 1F                   		pushm	r1-r15
 440                             	.LCFI26:
 419:C:/Workspace/FW_Platform2_5/trunk/HAL/RN_RX200/EmbOS\vector_table.c **** __attribute__((weak)) void INT_Excep_SCI5_RXI5(void)	{	_IllegalException();}
 441                             		.loc 1 419 0
 442 0002 05 00 00 00             		bsr	__IllegalException
 443                             	.LVL27:
 444 0006 6F 1F                   		popm	r1-r15
 445 0008 7F 95                   		rte
 446                             	.LFE96:
 448                             		.section	.text.INT_Excep_SCI5_ERI5,"ax",@progbits
 449                             		.weak	_INT_Excep_SCI5_ERI5
 451                             	_INT_Excep_SCI5_ERI5:
 452                             	.LFB95:
 417:C:/Workspace/FW_Platform2_5/trunk/HAL/RN_RX200/EmbOS\vector_table.c **** __attribute__((weak)) void INT_Excep_SCI5_ERI5(void)	{	_IllegalException();}
 453                             		.loc 1 417 0
 454                             		; Note: Interrupt Handler
 455 0000 6E 1F                   		pushm	r1-r15
 456                             	.LCFI27:
 417:C:/Workspace/FW_Platform2_5/trunk/HAL/RN_RX200/EmbOS\vector_table.c **** __attribute__((weak)) void INT_Excep_SCI5_ERI5(void)	{	_IllegalException();}
 457                             		.loc 1 417 0
 458 0002 05 00 00 00             		bsr	__IllegalException
 459                             	.LVL28:
 460 0006 6F 1F                   		popm	r1-r15
 461 0008 7F 95                   		rte
 462                             	.LFE95:
 464                             		.section	.text.INT_Excep_SCI1_TEI1,"ax",@progbits
 465                             		.weak	_INT_Excep_SCI1_TEI1
 467                             	_INT_Excep_SCI1_TEI1:
 468                             	.LFB94:
 415:C:/Workspace/FW_Platform2_5/trunk/HAL/RN_RX200/EmbOS\vector_table.c **** __attribute__((weak)) void INT_Excep_SCI1_TEI1(void)	{	_IllegalException();}
 469                             		.loc 1 415 0
 470                             		; Note: Interrupt Handler
 471 0000 6E 1F                   		pushm	r1-r15
 472                             	.LCFI28:
 415:C:/Workspace/FW_Platform2_5/trunk/HAL/RN_RX200/EmbOS\vector_table.c **** __attribute__((weak)) void INT_Excep_SCI1_TEI1(void)	{	_IllegalException();}
 473                             		.loc 1 415 0
 474 0002 05 00 00 00             		bsr	__IllegalException
 475                             	.LVL29:
 476 0006 6F 1F                   		popm	r1-r15
 477 0008 7F 95                   		rte
 478                             	.LFE94:
 480                             		.section	.text.INT_Excep_SCI1_TXI1,"ax",@progbits
 481                             		.weak	_INT_Excep_SCI1_TXI1
 483                             	_INT_Excep_SCI1_TXI1:
 484                             	.LFB93:
 413:C:/Workspace/FW_Platform2_5/trunk/HAL/RN_RX200/EmbOS\vector_table.c **** __attribute__((weak)) void INT_Excep_SCI1_TXI1(void)	{	_IllegalException();}
 485                             		.loc 1 413 0
 486                             		; Note: Interrupt Handler
 487 0000 6E 1F                   		pushm	r1-r15
 488                             	.LCFI29:
 413:C:/Workspace/FW_Platform2_5/trunk/HAL/RN_RX200/EmbOS\vector_table.c **** __attribute__((weak)) void INT_Excep_SCI1_TXI1(void)	{	_IllegalException();}
 489                             		.loc 1 413 0
 490 0002 05 00 00 00             		bsr	__IllegalException
 491                             	.LVL30:
 492 0006 6F 1F                   		popm	r1-r15
 493 0008 7F 95                   		rte
 494                             	.LFE93:
 496                             		.section	.text.INT_Excep_SCI1_RXI1,"ax",@progbits
 497                             		.weak	_INT_Excep_SCI1_RXI1
 499                             	_INT_Excep_SCI1_RXI1:
 500                             	.LFB92:
 411:C:/Workspace/FW_Platform2_5/trunk/HAL/RN_RX200/EmbOS\vector_table.c **** __attribute__((weak)) void INT_Excep_SCI1_RXI1(void)	{	_IllegalException();}
 501                             		.loc 1 411 0
 502                             		; Note: Interrupt Handler
 503 0000 6E 1F                   		pushm	r1-r15
 504                             	.LCFI30:
 411:C:/Workspace/FW_Platform2_5/trunk/HAL/RN_RX200/EmbOS\vector_table.c **** __attribute__((weak)) void INT_Excep_SCI1_RXI1(void)	{	_IllegalException();}
 505                             		.loc 1 411 0
 506 0002 05 00 00 00             		bsr	__IllegalException
 507                             	.LVL31:
 508 0006 6F 1F                   		popm	r1-r15
 509 0008 7F 95                   		rte
 510                             	.LFE92:
 512                             		.section	.text.INT_Excep_SCI1_ERI1,"ax",@progbits
 513                             		.weak	_INT_Excep_SCI1_ERI1
 515                             	_INT_Excep_SCI1_ERI1:
 516                             	.LFB91:
 409:C:/Workspace/FW_Platform2_5/trunk/HAL/RN_RX200/EmbOS\vector_table.c **** __attribute__((weak)) void INT_Excep_SCI1_ERI1(void)	{	_IllegalException();}
 517                             		.loc 1 409 0
 518                             		; Note: Interrupt Handler
 519 0000 6E 1F                   		pushm	r1-r15
 520                             	.LCFI31:
 409:C:/Workspace/FW_Platform2_5/trunk/HAL/RN_RX200/EmbOS\vector_table.c **** __attribute__((weak)) void INT_Excep_SCI1_ERI1(void)	{	_IllegalException();}
 521                             		.loc 1 409 0
 522 0002 05 00 00 00             		bsr	__IllegalException
 523                             	.LVL32:
 524 0006 6F 1F                   		popm	r1-r15
 525 0008 7F 95                   		rte
 526                             	.LFE91:
 528                             		.section	.text.INT_Excep_SCI0_TEI0,"ax",@progbits
 529                             		.weak	_INT_Excep_SCI0_TEI0
 531                             	_INT_Excep_SCI0_TEI0:
 532                             	.LFB90:
 407:C:/Workspace/FW_Platform2_5/trunk/HAL/RN_RX200/EmbOS\vector_table.c **** __attribute__((weak)) void INT_Excep_SCI0_TEI0(void)	{	_IllegalException();}
 533                             		.loc 1 407 0
 534                             		; Note: Interrupt Handler
 535 0000 6E 1F                   		pushm	r1-r15
 536                             	.LCFI32:
 407:C:/Workspace/FW_Platform2_5/trunk/HAL/RN_RX200/EmbOS\vector_table.c **** __attribute__((weak)) void INT_Excep_SCI0_TEI0(void)	{	_IllegalException();}
 537                             		.loc 1 407 0
 538 0002 05 00 00 00             		bsr	__IllegalException
 539                             	.LVL33:
 540 0006 6F 1F                   		popm	r1-r15
 541 0008 7F 95                   		rte
 542                             	.LFE90:
 544                             		.section	.text.INT_Excep_SCI0_TXI0,"ax",@progbits
 545                             		.weak	_INT_Excep_SCI0_TXI0
 547                             	_INT_Excep_SCI0_TXI0:
 548                             	.LFB89:
 405:C:/Workspace/FW_Platform2_5/trunk/HAL/RN_RX200/EmbOS\vector_table.c **** __attribute__((weak)) void INT_Excep_SCI0_TXI0(void)	{	_IllegalException();}
 549                             		.loc 1 405 0
 550                             		; Note: Interrupt Handler
 551 0000 6E 1F                   		pushm	r1-r15
 552                             	.LCFI33:
 405:C:/Workspace/FW_Platform2_5/trunk/HAL/RN_RX200/EmbOS\vector_table.c **** __attribute__((weak)) void INT_Excep_SCI0_TXI0(void)	{	_IllegalException();}
 553                             		.loc 1 405 0
 554 0002 05 00 00 00             		bsr	__IllegalException
 555                             	.LVL34:
 556 0006 6F 1F                   		popm	r1-r15
 557 0008 7F 95                   		rte
 558                             	.LFE89:
 560                             		.section	.text.INT_Excep_SCI0_RXI0,"ax",@progbits
 561                             		.weak	_INT_Excep_SCI0_RXI0
 563                             	_INT_Excep_SCI0_RXI0:
 564                             	.LFB88:
 403:C:/Workspace/FW_Platform2_5/trunk/HAL/RN_RX200/EmbOS\vector_table.c **** __attribute__((weak)) void INT_Excep_SCI0_RXI0(void)	{	_IllegalException();}
 565                             		.loc 1 403 0
 566                             		; Note: Interrupt Handler
 567 0000 6E 1F                   		pushm	r1-r15
 568                             	.LCFI34:
 403:C:/Workspace/FW_Platform2_5/trunk/HAL/RN_RX200/EmbOS\vector_table.c **** __attribute__((weak)) void INT_Excep_SCI0_RXI0(void)	{	_IllegalException();}
 569                             		.loc 1 403 0
 570 0002 05 00 00 00             		bsr	__IllegalException
 571                             	.LVL35:
 572 0006 6F 1F                   		popm	r1-r15
 573 0008 7F 95                   		rte
 574                             	.LFE88:
 576                             		.section	.text.INT_Excep_SCI0_ERI0,"ax",@progbits
 577                             		.weak	_INT_Excep_SCI0_ERI0
 579                             	_INT_Excep_SCI0_ERI0:
 580                             	.LFB87:
 401:C:/Workspace/FW_Platform2_5/trunk/HAL/RN_RX200/EmbOS\vector_table.c **** __attribute__((weak)) void INT_Excep_SCI0_ERI0(void)	{	_IllegalException();}
 581                             		.loc 1 401 0
 582                             		; Note: Interrupt Handler
 583 0000 6E 1F                   		pushm	r1-r15
 584                             	.LCFI35:
 401:C:/Workspace/FW_Platform2_5/trunk/HAL/RN_RX200/EmbOS\vector_table.c **** __attribute__((weak)) void INT_Excep_SCI0_ERI0(void)	{	_IllegalException();}
 585                             		.loc 1 401 0
 586 0002 05 00 00 00             		bsr	__IllegalException
 587                             	.LVL36:
 588 0006 6F 1F                   		popm	r1-r15
 589 0008 7F 95                   		rte
 590                             	.LFE87:
 592                             		.section	.text.INT_Excep_DMAC_DMTEND3,"ax",@progbits
 593                             		.weak	_INT_Excep_DMAC_DMTEND3
 595                             	_INT_Excep_DMAC_DMTEND3:
 596                             	.LFB86:
 399:C:/Workspace/FW_Platform2_5/trunk/HAL/RN_RX200/EmbOS\vector_table.c **** __attribute__((weak)) void INT_Excep_DMAC_DMTEND3(void)	{	_IllegalException();}
 597                             		.loc 1 399 0
 598                             		; Note: Interrupt Handler
 599 0000 6E 1F                   		pushm	r1-r15
 600                             	.LCFI36:
 399:C:/Workspace/FW_Platform2_5/trunk/HAL/RN_RX200/EmbOS\vector_table.c **** __attribute__((weak)) void INT_Excep_DMAC_DMTEND3(void)	{	_IllegalException();}
 601                             		.loc 1 399 0
 602 0002 05 00 00 00             		bsr	__IllegalException
 603                             	.LVL37:
 604 0006 6F 1F                   		popm	r1-r15
 605 0008 7F 95                   		rte
 606                             	.LFE86:
 608                             		.section	.text.INT_Excep_DMAC_DMTEND2,"ax",@progbits
 609                             		.weak	_INT_Excep_DMAC_DMTEND2
 611                             	_INT_Excep_DMAC_DMTEND2:
 612                             	.LFB85:
 397:C:/Workspace/FW_Platform2_5/trunk/HAL/RN_RX200/EmbOS\vector_table.c **** __attribute__((weak)) void INT_Excep_DMAC_DMTEND2(void)	{	_IllegalException();}
 613                             		.loc 1 397 0
 614                             		; Note: Interrupt Handler
 615 0000 6E 1F                   		pushm	r1-r15
 616                             	.LCFI37:
 397:C:/Workspace/FW_Platform2_5/trunk/HAL/RN_RX200/EmbOS\vector_table.c **** __attribute__((weak)) void INT_Excep_DMAC_DMTEND2(void)	{	_IllegalException();}
 617                             		.loc 1 397 0
 618 0002 05 00 00 00             		bsr	__IllegalException
 619                             	.LVL38:
 620 0006 6F 1F                   		popm	r1-r15
 621 0008 7F 95                   		rte
 622                             	.LFE85:
 624                             		.section	.text.INT_Excep_DMAC_DMTEND1,"ax",@progbits
 625                             		.weak	_INT_Excep_DMAC_DMTEND1
 627                             	_INT_Excep_DMAC_DMTEND1:
 628                             	.LFB84:
 395:C:/Workspace/FW_Platform2_5/trunk/HAL/RN_RX200/EmbOS\vector_table.c **** __attribute__((weak)) void INT_Excep_DMAC_DMTEND1(void)	{	_IllegalException();}
 629                             		.loc 1 395 0
 630                             		; Note: Interrupt Handler
 631 0000 6E 1F                   		pushm	r1-r15
 632                             	.LCFI38:
 395:C:/Workspace/FW_Platform2_5/trunk/HAL/RN_RX200/EmbOS\vector_table.c **** __attribute__((weak)) void INT_Excep_DMAC_DMTEND1(void)	{	_IllegalException();}
 633                             		.loc 1 395 0
 634 0002 05 00 00 00             		bsr	__IllegalException
 635                             	.LVL39:
 636 0006 6F 1F                   		popm	r1-r15
 637 0008 7F 95                   		rte
 638                             	.LFE84:
 640                             		.section	.text.INT_Excep_DMAC_DMTEND0,"ax",@progbits
 641                             		.weak	_INT_Excep_DMAC_DMTEND0
 643                             	_INT_Excep_DMAC_DMTEND0:
 644                             	.LFB83:
 393:C:/Workspace/FW_Platform2_5/trunk/HAL/RN_RX200/EmbOS\vector_table.c **** __attribute__((weak)) void INT_Excep_DMAC_DMTEND0(void)	{	_IllegalException();}
 645                             		.loc 1 393 0
 646                             		; Note: Interrupt Handler
 647 0000 6E 1F                   		pushm	r1-r15
 648                             	.LCFI39:
 393:C:/Workspace/FW_Platform2_5/trunk/HAL/RN_RX200/EmbOS\vector_table.c **** __attribute__((weak)) void INT_Excep_DMAC_DMTEND0(void)	{	_IllegalException();}
 649                             		.loc 1 393 0
 650 0002 05 00 00 00             		bsr	__IllegalException
 651                             	.LVL40:
 652 0006 6F 1F                   		popm	r1-r15
 653 0008 7F 95                   		rte
 654                             	.LFE83:
 656                             		.section	.text.INT_Excep_TMR3_OV3I,"ax",@progbits
 657                             		.weak	_INT_Excep_TMR3_OV3I
 659                             	_INT_Excep_TMR3_OV3I:
 660                             	.LFB82:
 391:C:/Workspace/FW_Platform2_5/trunk/HAL/RN_RX200/EmbOS\vector_table.c **** __attribute__((weak)) void INT_Excep_TMR3_OV3I(void)	{	_IllegalException();}
 661                             		.loc 1 391 0
 662                             		; Note: Interrupt Handler
 663 0000 6E 1F                   		pushm	r1-r15
 664                             	.LCFI40:
 391:C:/Workspace/FW_Platform2_5/trunk/HAL/RN_RX200/EmbOS\vector_table.c **** __attribute__((weak)) void INT_Excep_TMR3_OV3I(void)	{	_IllegalException();}
 665                             		.loc 1 391 0
 666 0002 05 00 00 00             		bsr	__IllegalException
 667                             	.LVL41:
 668 0006 6F 1F                   		popm	r1-r15
 669 0008 7F 95                   		rte
 670                             	.LFE82:
 672                             		.section	.text.INT_Excep_TMR3_CMI3B,"ax",@progbits
 673                             		.weak	_INT_Excep_TMR3_CMI3B
 675                             	_INT_Excep_TMR3_CMI3B:
 676                             	.LFB81:
 389:C:/Workspace/FW_Platform2_5/trunk/HAL/RN_RX200/EmbOS\vector_table.c **** __attribute__((weak)) void INT_Excep_TMR3_CMI3B(void)	{	_IllegalException();}
 677                             		.loc 1 389 0
 678                             		; Note: Interrupt Handler
 679 0000 6E 1F                   		pushm	r1-r15
 680                             	.LCFI41:
 389:C:/Workspace/FW_Platform2_5/trunk/HAL/RN_RX200/EmbOS\vector_table.c **** __attribute__((weak)) void INT_Excep_TMR3_CMI3B(void)	{	_IllegalException();}
 681                             		.loc 1 389 0
 682 0002 05 00 00 00             		bsr	__IllegalException
 683                             	.LVL42:
 684 0006 6F 1F                   		popm	r1-r15
 685 0008 7F 95                   		rte
 686                             	.LFE81:
 688                             		.section	.text.INT_Excep_TMR3_CMI3A,"ax",@progbits
 689                             		.weak	_INT_Excep_TMR3_CMI3A
 691                             	_INT_Excep_TMR3_CMI3A:
 692                             	.LFB80:
 387:C:/Workspace/FW_Platform2_5/trunk/HAL/RN_RX200/EmbOS\vector_table.c **** __attribute__((weak)) void INT_Excep_TMR3_CMI3A(void)	{	_IllegalException();}
 693                             		.loc 1 387 0
 694                             		; Note: Interrupt Handler
 695 0000 6E 1F                   		pushm	r1-r15
 696                             	.LCFI42:
 387:C:/Workspace/FW_Platform2_5/trunk/HAL/RN_RX200/EmbOS\vector_table.c **** __attribute__((weak)) void INT_Excep_TMR3_CMI3A(void)	{	_IllegalException();}
 697                             		.loc 1 387 0
 698 0002 05 00 00 00             		bsr	__IllegalException
 699                             	.LVL43:
 700 0006 6F 1F                   		popm	r1-r15
 701 0008 7F 95                   		rte
 702                             	.LFE80:
 704                             		.section	.text.INT_Excep_TMR2_OV2I,"ax",@progbits
 705                             		.weak	_INT_Excep_TMR2_OV2I
 707                             	_INT_Excep_TMR2_OV2I:
 708                             	.LFB79:
 385:C:/Workspace/FW_Platform2_5/trunk/HAL/RN_RX200/EmbOS\vector_table.c **** __attribute__((weak)) void INT_Excep_TMR2_OV2I(void)	{	_IllegalException();}
 709                             		.loc 1 385 0
 710                             		; Note: Interrupt Handler
 711 0000 6E 1F                   		pushm	r1-r15
 712                             	.LCFI43:
 385:C:/Workspace/FW_Platform2_5/trunk/HAL/RN_RX200/EmbOS\vector_table.c **** __attribute__((weak)) void INT_Excep_TMR2_OV2I(void)	{	_IllegalException();}
 713                             		.loc 1 385 0
 714 0002 05 00 00 00             		bsr	__IllegalException
 715                             	.LVL44:
 716 0006 6F 1F                   		popm	r1-r15
 717 0008 7F 95                   		rte
 718                             	.LFE79:
 720                             		.section	.text.INT_Excep_TMR2_CMI2B,"ax",@progbits
 721                             		.weak	_INT_Excep_TMR2_CMI2B
 723                             	_INT_Excep_TMR2_CMI2B:
 724                             	.LFB78:
 383:C:/Workspace/FW_Platform2_5/trunk/HAL/RN_RX200/EmbOS\vector_table.c **** __attribute__((weak)) void INT_Excep_TMR2_CMI2B(void)	{	_IllegalException();}
 725                             		.loc 1 383 0
 726                             		; Note: Interrupt Handler
 727 0000 6E 1F                   		pushm	r1-r15
 728                             	.LCFI44:
 383:C:/Workspace/FW_Platform2_5/trunk/HAL/RN_RX200/EmbOS\vector_table.c **** __attribute__((weak)) void INT_Excep_TMR2_CMI2B(void)	{	_IllegalException();}
 729                             		.loc 1 383 0
 730 0002 05 00 00 00             		bsr	__IllegalException
 731                             	.LVL45:
 732 0006 6F 1F                   		popm	r1-r15
 733 0008 7F 95                   		rte
 734                             	.LFE78:
 736                             		.section	.text.INT_Excep_TMR2_CMI2A,"ax",@progbits
 737                             		.weak	_INT_Excep_TMR2_CMI2A
 739                             	_INT_Excep_TMR2_CMI2A:
 740                             	.LFB77:
 381:C:/Workspace/FW_Platform2_5/trunk/HAL/RN_RX200/EmbOS\vector_table.c **** __attribute__((weak)) void INT_Excep_TMR2_CMI2A(void)	{	_IllegalException();}
 741                             		.loc 1 381 0
 742                             		; Note: Interrupt Handler
 743 0000 6E 1F                   		pushm	r1-r15
 744                             	.LCFI45:
 381:C:/Workspace/FW_Platform2_5/trunk/HAL/RN_RX200/EmbOS\vector_table.c **** __attribute__((weak)) void INT_Excep_TMR2_CMI2A(void)	{	_IllegalException();}
 745                             		.loc 1 381 0
 746 0002 05 00 00 00             		bsr	__IllegalException
 747                             	.LVL46:
 748 0006 6F 1F                   		popm	r1-r15
 749 0008 7F 95                   		rte
 750                             	.LFE77:
 752                             		.section	.text.INT_Excep_TMR1_OV1I,"ax",@progbits
 753                             		.weak	_INT_Excep_TMR1_OV1I
 755                             	_INT_Excep_TMR1_OV1I:
 756                             	.LFB76:
 379:C:/Workspace/FW_Platform2_5/trunk/HAL/RN_RX200/EmbOS\vector_table.c **** __attribute__((weak)) void INT_Excep_TMR1_OV1I(void)	{	_IllegalException();}
 757                             		.loc 1 379 0
 758                             		; Note: Interrupt Handler
 759 0000 6E 1F                   		pushm	r1-r15
 760                             	.LCFI46:
 379:C:/Workspace/FW_Platform2_5/trunk/HAL/RN_RX200/EmbOS\vector_table.c **** __attribute__((weak)) void INT_Excep_TMR1_OV1I(void)	{	_IllegalException();}
 761                             		.loc 1 379 0
 762 0002 05 00 00 00             		bsr	__IllegalException
 763                             	.LVL47:
 764 0006 6F 1F                   		popm	r1-r15
 765 0008 7F 95                   		rte
 766                             	.LFE76:
 768                             		.section	.text.INT_Excep_TMR1_CMI1B,"ax",@progbits
 769                             		.weak	_INT_Excep_TMR1_CMI1B
 771                             	_INT_Excep_TMR1_CMI1B:
 772                             	.LFB75:
 377:C:/Workspace/FW_Platform2_5/trunk/HAL/RN_RX200/EmbOS\vector_table.c **** __attribute__((weak)) void INT_Excep_TMR1_CMI1B(void)	{	_IllegalException();}
 773                             		.loc 1 377 0
 774                             		; Note: Interrupt Handler
 775 0000 6E 1F                   		pushm	r1-r15
 776                             	.LCFI47:
 377:C:/Workspace/FW_Platform2_5/trunk/HAL/RN_RX200/EmbOS\vector_table.c **** __attribute__((weak)) void INT_Excep_TMR1_CMI1B(void)	{	_IllegalException();}
 777                             		.loc 1 377 0
 778 0002 05 00 00 00             		bsr	__IllegalException
 779                             	.LVL48:
 780 0006 6F 1F                   		popm	r1-r15
 781 0008 7F 95                   		rte
 782                             	.LFE75:
 784                             		.section	.text.INT_Excep_TMR1_CMI1A,"ax",@progbits
 785                             		.weak	_INT_Excep_TMR1_CMI1A
 787                             	_INT_Excep_TMR1_CMI1A:
 788                             	.LFB74:
 375:C:/Workspace/FW_Platform2_5/trunk/HAL/RN_RX200/EmbOS\vector_table.c **** __attribute__((weak)) void INT_Excep_TMR1_CMI1A(void)	{	_IllegalException(); }
 789                             		.loc 1 375 0
 790                             		; Note: Interrupt Handler
 791 0000 6E 1F                   		pushm	r1-r15
 792                             	.LCFI48:
 375:C:/Workspace/FW_Platform2_5/trunk/HAL/RN_RX200/EmbOS\vector_table.c **** __attribute__((weak)) void INT_Excep_TMR1_CMI1A(void)	{	_IllegalException(); }
 793                             		.loc 1 375 0
 794 0002 05 00 00 00             		bsr	__IllegalException
 795                             	.LVL49:
 796 0006 6F 1F                   		popm	r1-r15
 797 0008 7F 95                   		rte
 798                             	.LFE74:
 800                             		.section	.text.INT_Excep_TMR0_OV0I,"ax",@progbits
 801                             		.weak	_INT_Excep_TMR0_OV0I
 803                             	_INT_Excep_TMR0_OV0I:
 804                             	.LFB73:
 373:C:/Workspace/FW_Platform2_5/trunk/HAL/RN_RX200/EmbOS\vector_table.c **** __attribute__((weak)) void INT_Excep_TMR0_OV0I(void)	{	_IllegalException(); }
 805                             		.loc 1 373 0
 806                             		; Note: Interrupt Handler
 807 0000 6E 1F                   		pushm	r1-r15
 808                             	.LCFI49:
 373:C:/Workspace/FW_Platform2_5/trunk/HAL/RN_RX200/EmbOS\vector_table.c **** __attribute__((weak)) void INT_Excep_TMR0_OV0I(void)	{	_IllegalException(); }
 809                             		.loc 1 373 0
 810 0002 05 00 00 00             		bsr	__IllegalException
 811                             	.LVL50:
 812 0006 6F 1F                   		popm	r1-r15
 813 0008 7F 95                   		rte
 814                             	.LFE73:
 816                             		.section	.text.INT_Excep_MTU5_TGIW5,"ax",@progbits
 817                             		.weak	_INT_Excep_MTU5_TGIW5
 819                             	_INT_Excep_MTU5_TGIW5:
 820                             	.LFB71:
 369:C:/Workspace/FW_Platform2_5/trunk/HAL/RN_RX200/EmbOS\vector_table.c **** __attribute__((weak)) void INT_Excep_MTU5_TGIW5(void)	{	_IllegalException();}
 821                             		.loc 1 369 0
 822                             		; Note: Interrupt Handler
 823 0000 6E 1F                   		pushm	r1-r15
 824                             	.LCFI50:
 369:C:/Workspace/FW_Platform2_5/trunk/HAL/RN_RX200/EmbOS\vector_table.c **** __attribute__((weak)) void INT_Excep_MTU5_TGIW5(void)	{	_IllegalException();}
 825                             		.loc 1 369 0
 826 0002 05 00 00 00             		bsr	__IllegalException
 827                             	.LVL51:
 828 0006 6F 1F                   		popm	r1-r15
 829 0008 7F 95                   		rte
 830                             	.LFE71:
 832                             		.section	.text.INT_Excep_OEI2,"ax",@progbits
 833                             		.weak	_INT_Excep_OEI2
 835                             	_INT_Excep_OEI2:
 836                             	.LFB70:
 367:C:/Workspace/FW_Platform2_5/trunk/HAL/RN_RX200/EmbOS\vector_table.c **** __attribute__((weak)) void INT_Excep_OEI2(void)			{	_IllegalException();}
 837                             		.loc 1 367 0
 838                             		; Note: Interrupt Handler
 839 0000 6E 1F                   		pushm	r1-r15
 840                             	.LCFI51:
 367:C:/Workspace/FW_Platform2_5/trunk/HAL/RN_RX200/EmbOS\vector_table.c **** __attribute__((weak)) void INT_Excep_OEI2(void)			{	_IllegalException();}
 841                             		.loc 1 367 0
 842 0002 05 00 00 00             		bsr	__IllegalException
 843                             	.LVL52:
 844 0006 6F 1F                   		popm	r1-r15
 845 0008 7F 95                   		rte
 846                             	.LFE70:
 848                             		.section	.text.INT_Excep_OEI1,"ax",@progbits
 849                             		.weak	_INT_Excep_OEI1
 851                             	_INT_Excep_OEI1:
 852                             	.LFB69:
 365:C:/Workspace/FW_Platform2_5/trunk/HAL/RN_RX200/EmbOS\vector_table.c **** __attribute__((weak)) void INT_Excep_OEI1(void)			{	_IllegalException();}
 853                             		.loc 1 365 0
 854                             		; Note: Interrupt Handler
 855 0000 6E 1F                   		pushm	r1-r15
 856                             	.LCFI52:
 365:C:/Workspace/FW_Platform2_5/trunk/HAL/RN_RX200/EmbOS\vector_table.c **** __attribute__((weak)) void INT_Excep_OEI1(void)			{	_IllegalException();}
 857                             		.loc 1 365 0
 858 0002 05 00 00 00             		bsr	__IllegalException
 859                             	.LVL53:
 860 0006 6F 1F                   		popm	r1-r15
 861 0008 7F 95                   		rte
 862                             	.LFE69:
 864                             		.section	.text.INT_Excep_MTU5_TGIV5,"ax",@progbits
 865                             		.weak	_INT_Excep_MTU5_TGIV5
 867                             	_INT_Excep_MTU5_TGIV5:
 868                             	.LFB68:
 363:C:/Workspace/FW_Platform2_5/trunk/HAL/RN_RX200/EmbOS\vector_table.c **** __attribute__((weak)) void INT_Excep_MTU5_TGIV5(void)	{	_IllegalException();}
 869                             		.loc 1 363 0
 870                             		; Note: Interrupt Handler
 871 0000 6E 1F                   		pushm	r1-r15
 872                             	.LCFI53:
 363:C:/Workspace/FW_Platform2_5/trunk/HAL/RN_RX200/EmbOS\vector_table.c **** __attribute__((weak)) void INT_Excep_MTU5_TGIV5(void)	{	_IllegalException();}
 873                             		.loc 1 363 0
 874 0002 05 00 00 00             		bsr	__IllegalException
 875                             	.LVL54:
 876 0006 6F 1F                   		popm	r1-r15
 877 0008 7F 95                   		rte
 878                             	.LFE68:
 880                             		.section	.text.INT_Excep_MTU5_TGIU5,"ax",@progbits
 881                             		.weak	_INT_Excep_MTU5_TGIU5
 883                             	_INT_Excep_MTU5_TGIU5:
 884                             	.LFB67:
 361:C:/Workspace/FW_Platform2_5/trunk/HAL/RN_RX200/EmbOS\vector_table.c **** __attribute__((weak)) void INT_Excep_MTU5_TGIU5(void)	{	_IllegalException();}
 885                             		.loc 1 361 0
 886                             		; Note: Interrupt Handler
 887 0000 6E 1F                   		pushm	r1-r15
 888                             	.LCFI54:
 361:C:/Workspace/FW_Platform2_5/trunk/HAL/RN_RX200/EmbOS\vector_table.c **** __attribute__((weak)) void INT_Excep_MTU5_TGIU5(void)	{	_IllegalException();}
 889                             		.loc 1 361 0
 890 0002 05 00 00 00             		bsr	__IllegalException
 891                             	.LVL55:
 892 0006 6F 1F                   		popm	r1-r15
 893 0008 7F 95                   		rte
 894                             	.LFE67:
 896                             		.section	.text.INT_Excep_MTU4_TCIV4,"ax",@progbits
 897                             		.weak	_INT_Excep_MTU4_TCIV4
 899                             	_INT_Excep_MTU4_TCIV4:
 900                             	.LFB66:
 359:C:/Workspace/FW_Platform2_5/trunk/HAL/RN_RX200/EmbOS\vector_table.c **** __attribute__((weak)) void INT_Excep_MTU4_TCIV4(void)	{	_IllegalException();}
 901                             		.loc 1 359 0
 902                             		; Note: Interrupt Handler
 903 0000 6E 1F                   		pushm	r1-r15
 904                             	.LCFI55:
 359:C:/Workspace/FW_Platform2_5/trunk/HAL/RN_RX200/EmbOS\vector_table.c **** __attribute__((weak)) void INT_Excep_MTU4_TCIV4(void)	{	_IllegalException();}
 905                             		.loc 1 359 0
 906 0002 05 00 00 00             		bsr	__IllegalException
 907                             	.LVL56:
 908 0006 6F 1F                   		popm	r1-r15
 909 0008 7F 95                   		rte
 910                             	.LFE66:
 912                             		.section	.text.INT_Excep_MTU4_TGID4,"ax",@progbits
 913                             		.weak	_INT_Excep_MTU4_TGID4
 915                             	_INT_Excep_MTU4_TGID4:
 916                             	.LFB65:
 357:C:/Workspace/FW_Platform2_5/trunk/HAL/RN_RX200/EmbOS\vector_table.c **** __attribute__((weak)) void INT_Excep_MTU4_TGID4(void)	{	_IllegalException();}
 917                             		.loc 1 357 0
 918                             		; Note: Interrupt Handler
 919 0000 6E 1F                   		pushm	r1-r15
 920                             	.LCFI56:
 357:C:/Workspace/FW_Platform2_5/trunk/HAL/RN_RX200/EmbOS\vector_table.c **** __attribute__((weak)) void INT_Excep_MTU4_TGID4(void)	{	_IllegalException();}
 921                             		.loc 1 357 0
 922 0002 05 00 00 00             		bsr	__IllegalException
 923                             	.LVL57:
 924 0006 6F 1F                   		popm	r1-r15
 925 0008 7F 95                   		rte
 926                             	.LFE65:
 928                             		.section	.text.INT_Excep_MTU4_TGIC4,"ax",@progbits
 929                             		.weak	_INT_Excep_MTU4_TGIC4
 931                             	_INT_Excep_MTU4_TGIC4:
 932                             	.LFB64:
 355:C:/Workspace/FW_Platform2_5/trunk/HAL/RN_RX200/EmbOS\vector_table.c **** __attribute__((weak)) void INT_Excep_MTU4_TGIC4(void)	{	_IllegalException();}
 933                             		.loc 1 355 0
 934                             		; Note: Interrupt Handler
 935 0000 6E 1F                   		pushm	r1-r15
 936                             	.LCFI57:
 355:C:/Workspace/FW_Platform2_5/trunk/HAL/RN_RX200/EmbOS\vector_table.c **** __attribute__((weak)) void INT_Excep_MTU4_TGIC4(void)	{	_IllegalException();}
 937                             		.loc 1 355 0
 938 0002 05 00 00 00             		bsr	__IllegalException
 939                             	.LVL58:
 940 0006 6F 1F                   		popm	r1-r15
 941 0008 7F 95                   		rte
 942                             	.LFE64:
 944                             		.section	.text.INT_Excep_MTU4_TGIB4,"ax",@progbits
 945                             		.weak	_INT_Excep_MTU4_TGIB4
 947                             	_INT_Excep_MTU4_TGIB4:
 948                             	.LFB63:
 353:C:/Workspace/FW_Platform2_5/trunk/HAL/RN_RX200/EmbOS\vector_table.c **** __attribute__((weak)) void INT_Excep_MTU4_TGIB4(void)	{	_IllegalException();}
 949                             		.loc 1 353 0
 950                             		; Note: Interrupt Handler
 951 0000 6E 1F                   		pushm	r1-r15
 952                             	.LCFI58:
 353:C:/Workspace/FW_Platform2_5/trunk/HAL/RN_RX200/EmbOS\vector_table.c **** __attribute__((weak)) void INT_Excep_MTU4_TGIB4(void)	{	_IllegalException();}
 953                             		.loc 1 353 0
 954 0002 05 00 00 00             		bsr	__IllegalException
 955                             	.LVL59:
 956 0006 6F 1F                   		popm	r1-r15
 957 0008 7F 95                   		rte
 958                             	.LFE63:
 960                             		.section	.text.INT_Excep_MTU4_TGIA4,"ax",@progbits
 961                             		.weak	_INT_Excep_MTU4_TGIA4
 963                             	_INT_Excep_MTU4_TGIA4:
 964                             	.LFB62:
 351:C:/Workspace/FW_Platform2_5/trunk/HAL/RN_RX200/EmbOS\vector_table.c **** __attribute__((weak)) void INT_Excep_MTU4_TGIA4(void)	{	_IllegalException();}
 965                             		.loc 1 351 0
 966                             		; Note: Interrupt Handler
 967 0000 6E 1F                   		pushm	r1-r15
 968                             	.LCFI59:
 351:C:/Workspace/FW_Platform2_5/trunk/HAL/RN_RX200/EmbOS\vector_table.c **** __attribute__((weak)) void INT_Excep_MTU4_TGIA4(void)	{	_IllegalException();}
 969                             		.loc 1 351 0
 970 0002 05 00 00 00             		bsr	__IllegalException
 971                             	.LVL60:
 972 0006 6F 1F                   		popm	r1-r15
 973 0008 7F 95                   		rte
 974                             	.LFE62:
 976                             		.section	.text.INT_Excep_MTU3_TCIV3,"ax",@progbits
 977                             		.weak	_INT_Excep_MTU3_TCIV3
 979                             	_INT_Excep_MTU3_TCIV3:
 980                             	.LFB61:
 349:C:/Workspace/FW_Platform2_5/trunk/HAL/RN_RX200/EmbOS\vector_table.c **** __attribute__((weak)) void INT_Excep_MTU3_TCIV3(void)	{	_IllegalException();}
 981                             		.loc 1 349 0
 982                             		; Note: Interrupt Handler
 983 0000 6E 1F                   		pushm	r1-r15
 984                             	.LCFI60:
 349:C:/Workspace/FW_Platform2_5/trunk/HAL/RN_RX200/EmbOS\vector_table.c **** __attribute__((weak)) void INT_Excep_MTU3_TCIV3(void)	{	_IllegalException();}
 985                             		.loc 1 349 0
 986 0002 05 00 00 00             		bsr	__IllegalException
 987                             	.LVL61:
 988 0006 6F 1F                   		popm	r1-r15
 989 0008 7F 95                   		rte
 990                             	.LFE61:
 992                             		.section	.text.INT_Excep_MTU3_TGID3,"ax",@progbits
 993                             		.weak	_INT_Excep_MTU3_TGID3
 995                             	_INT_Excep_MTU3_TGID3:
 996                             	.LFB60:
 347:C:/Workspace/FW_Platform2_5/trunk/HAL/RN_RX200/EmbOS\vector_table.c **** __attribute__((weak)) void INT_Excep_MTU3_TGID3(void)	{	_IllegalException();}
 997                             		.loc 1 347 0
 998                             		; Note: Interrupt Handler
 999 0000 6E 1F                   		pushm	r1-r15
 1000                             	.LCFI61:
 347:C:/Workspace/FW_Platform2_5/trunk/HAL/RN_RX200/EmbOS\vector_table.c **** __attribute__((weak)) void INT_Excep_MTU3_TGID3(void)	{	_IllegalException();}
 1001                             		.loc 1 347 0
 1002 0002 05 00 00 00             		bsr	__IllegalException
 1003                             	.LVL62:
 1004 0006 6F 1F                   		popm	r1-r15
 1005 0008 7F 95                   		rte
 1006                             	.LFE60:
 1008                             		.section	.text.INT_Excep_MTU3_TGIC3,"ax",@progbits
 1009                             		.weak	_INT_Excep_MTU3_TGIC3
 1011                             	_INT_Excep_MTU3_TGIC3:
 1012                             	.LFB59:
 345:C:/Workspace/FW_Platform2_5/trunk/HAL/RN_RX200/EmbOS\vector_table.c **** __attribute__((weak)) void INT_Excep_MTU3_TGIC3(void)	{	_IllegalException();}
 1013                             		.loc 1 345 0
 1014                             		; Note: Interrupt Handler
 1015 0000 6E 1F                   		pushm	r1-r15
 1016                             	.LCFI62:
 345:C:/Workspace/FW_Platform2_5/trunk/HAL/RN_RX200/EmbOS\vector_table.c **** __attribute__((weak)) void INT_Excep_MTU3_TGIC3(void)	{	_IllegalException();}
 1017                             		.loc 1 345 0
 1018 0002 05 00 00 00             		bsr	__IllegalException
 1019                             	.LVL63:
 1020 0006 6F 1F                   		popm	r1-r15
 1021 0008 7F 95                   		rte
 1022                             	.LFE59:
 1024                             		.section	.text.INT_Excep_MTU3_TGIB3,"ax",@progbits
 1025                             		.weak	_INT_Excep_MTU3_TGIB3
 1027                             	_INT_Excep_MTU3_TGIB3:
 1028                             	.LFB58:
 343:C:/Workspace/FW_Platform2_5/trunk/HAL/RN_RX200/EmbOS\vector_table.c **** __attribute__((weak)) void INT_Excep_MTU3_TGIB3(void)	{	_IllegalException();}
 1029                             		.loc 1 343 0
 1030                             		; Note: Interrupt Handler
 1031 0000 6E 1F                   		pushm	r1-r15
 1032                             	.LCFI63:
 343:C:/Workspace/FW_Platform2_5/trunk/HAL/RN_RX200/EmbOS\vector_table.c **** __attribute__((weak)) void INT_Excep_MTU3_TGIB3(void)	{	_IllegalException();}
 1033                             		.loc 1 343 0
 1034 0002 05 00 00 00             		bsr	__IllegalException
 1035                             	.LVL64:
 1036 0006 6F 1F                   		popm	r1-r15
 1037 0008 7F 95                   		rte
 1038                             	.LFE58:
 1040                             		.section	.text.INT_Excep_MTU3_TGIA3,"ax",@progbits
 1041                             		.weak	_INT_Excep_MTU3_TGIA3
 1043                             	_INT_Excep_MTU3_TGIA3:
 1044                             	.LFB57:
 341:C:/Workspace/FW_Platform2_5/trunk/HAL/RN_RX200/EmbOS\vector_table.c **** __attribute__((weak)) void INT_Excep_MTU3_TGIA3(void)	{	_IllegalException();}
 1045                             		.loc 1 341 0
 1046                             		; Note: Interrupt Handler
 1047 0000 6E 1F                   		pushm	r1-r15
 1048                             	.LCFI64:
 341:C:/Workspace/FW_Platform2_5/trunk/HAL/RN_RX200/EmbOS\vector_table.c **** __attribute__((weak)) void INT_Excep_MTU3_TGIA3(void)	{	_IllegalException();}
 1049                             		.loc 1 341 0
 1050 0002 05 00 00 00             		bsr	__IllegalException
 1051                             	.LVL65:
 1052 0006 6F 1F                   		popm	r1-r15
 1053 0008 7F 95                   		rte
 1054                             	.LFE57:
 1056                             		.section	.text.INT_Excep_MTU2_TCIU2,"ax",@progbits
 1057                             		.weak	_INT_Excep_MTU2_TCIU2
 1059                             	_INT_Excep_MTU2_TCIU2:
 1060                             	.LFB56:
 339:C:/Workspace/FW_Platform2_5/trunk/HAL/RN_RX200/EmbOS\vector_table.c **** __attribute__((weak)) void INT_Excep_MTU2_TCIU2(void)	{	_IllegalException();}
 1061                             		.loc 1 339 0
 1062                             		; Note: Interrupt Handler
 1063 0000 6E 1F                   		pushm	r1-r15
 1064                             	.LCFI65:
 339:C:/Workspace/FW_Platform2_5/trunk/HAL/RN_RX200/EmbOS\vector_table.c **** __attribute__((weak)) void INT_Excep_MTU2_TCIU2(void)	{	_IllegalException();}
 1065                             		.loc 1 339 0
 1066 0002 05 00 00 00             		bsr	__IllegalException
 1067                             	.LVL66:
 1068 0006 6F 1F                   		popm	r1-r15
 1069 0008 7F 95                   		rte
 1070                             	.LFE56:
 1072                             		.section	.text.INT_Excep_MTU2_TCIV2,"ax",@progbits
 1073                             		.weak	_INT_Excep_MTU2_TCIV2
 1075                             	_INT_Excep_MTU2_TCIV2:
 1076                             	.LFB55:
 337:C:/Workspace/FW_Platform2_5/trunk/HAL/RN_RX200/EmbOS\vector_table.c **** __attribute__((weak)) void INT_Excep_MTU2_TCIV2(void)	{	_IllegalException();}
 1077                             		.loc 1 337 0
 1078                             		; Note: Interrupt Handler
 1079 0000 6E 1F                   		pushm	r1-r15
 1080                             	.LCFI66:
 337:C:/Workspace/FW_Platform2_5/trunk/HAL/RN_RX200/EmbOS\vector_table.c **** __attribute__((weak)) void INT_Excep_MTU2_TCIV2(void)	{	_IllegalException();}
 1081                             		.loc 1 337 0
 1082 0002 05 00 00 00             		bsr	__IllegalException
 1083                             	.LVL67:
 1084 0006 6F 1F                   		popm	r1-r15
 1085 0008 7F 95                   		rte
 1086                             	.LFE55:
 1088                             		.section	.text.INT_Excep_MTU2_TGIB2,"ax",@progbits
 1089                             		.weak	_INT_Excep_MTU2_TGIB2
 1091                             	_INT_Excep_MTU2_TGIB2:
 1092                             	.LFB54:
 335:C:/Workspace/FW_Platform2_5/trunk/HAL/RN_RX200/EmbOS\vector_table.c **** __attribute__((weak)) void INT_Excep_MTU2_TGIB2(void)	{	_IllegalException();}
 1093                             		.loc 1 335 0
 1094                             		; Note: Interrupt Handler
 1095 0000 6E 1F                   		pushm	r1-r15
 1096                             	.LCFI67:
 335:C:/Workspace/FW_Platform2_5/trunk/HAL/RN_RX200/EmbOS\vector_table.c **** __attribute__((weak)) void INT_Excep_MTU2_TGIB2(void)	{	_IllegalException();}
 1097                             		.loc 1 335 0
 1098 0002 05 00 00 00             		bsr	__IllegalException
 1099                             	.LVL68:
 1100 0006 6F 1F                   		popm	r1-r15
 1101 0008 7F 95                   		rte
 1102                             	.LFE54:
 1104                             		.section	.text.INT_Excep_MTU2_TGIA2,"ax",@progbits
 1105                             		.weak	_INT_Excep_MTU2_TGIA2
 1107                             	_INT_Excep_MTU2_TGIA2:
 1108                             	.LFB53:
 333:C:/Workspace/FW_Platform2_5/trunk/HAL/RN_RX200/EmbOS\vector_table.c **** __attribute__((weak)) void INT_Excep_MTU2_TGIA2(void)	{	_IllegalException();}
 1109                             		.loc 1 333 0
 1110                             		; Note: Interrupt Handler
 1111 0000 6E 1F                   		pushm	r1-r15
 1112                             	.LCFI68:
 333:C:/Workspace/FW_Platform2_5/trunk/HAL/RN_RX200/EmbOS\vector_table.c **** __attribute__((weak)) void INT_Excep_MTU2_TGIA2(void)	{	_IllegalException();}
 1113                             		.loc 1 333 0
 1114 0002 05 00 00 00             		bsr	__IllegalException
 1115                             	.LVL69:
 1116 0006 6F 1F                   		popm	r1-r15
 1117 0008 7F 95                   		rte
 1118                             	.LFE53:
 1120                             		.section	.text.INT_Excep_MTU1_TCIU1,"ax",@progbits
 1121                             		.weak	_INT_Excep_MTU1_TCIU1
 1123                             	_INT_Excep_MTU1_TCIU1:
 1124                             	.LFB52:
 331:C:/Workspace/FW_Platform2_5/trunk/HAL/RN_RX200/EmbOS\vector_table.c **** __attribute__((weak)) void INT_Excep_MTU1_TCIU1(void)	{	_IllegalException();}
 1125                             		.loc 1 331 0
 1126                             		; Note: Interrupt Handler
 1127 0000 6E 1F                   		pushm	r1-r15
 1128                             	.LCFI69:
 331:C:/Workspace/FW_Platform2_5/trunk/HAL/RN_RX200/EmbOS\vector_table.c **** __attribute__((weak)) void INT_Excep_MTU1_TCIU1(void)	{	_IllegalException();}
 1129                             		.loc 1 331 0
 1130 0002 05 00 00 00             		bsr	__IllegalException
 1131                             	.LVL70:
 1132 0006 6F 1F                   		popm	r1-r15
 1133 0008 7F 95                   		rte
 1134                             	.LFE52:
 1136                             		.section	.text.INT_Excep_MTU1_TCIV1,"ax",@progbits
 1137                             		.weak	_INT_Excep_MTU1_TCIV1
 1139                             	_INT_Excep_MTU1_TCIV1:
 1140                             	.LFB51:
 329:C:/Workspace/FW_Platform2_5/trunk/HAL/RN_RX200/EmbOS\vector_table.c **** __attribute__((weak)) void INT_Excep_MTU1_TCIV1(void)	{	_IllegalException();}
 1141                             		.loc 1 329 0
 1142                             		; Note: Interrupt Handler
 1143 0000 6E 1F                   		pushm	r1-r15
 1144                             	.LCFI70:
 329:C:/Workspace/FW_Platform2_5/trunk/HAL/RN_RX200/EmbOS\vector_table.c **** __attribute__((weak)) void INT_Excep_MTU1_TCIV1(void)	{	_IllegalException();}
 1145                             		.loc 1 329 0
 1146 0002 05 00 00 00             		bsr	__IllegalException
 1147                             	.LVL71:
 1148 0006 6F 1F                   		popm	r1-r15
 1149 0008 7F 95                   		rte
 1150                             	.LFE51:
 1152                             		.section	.text.INT_Excep_MTU1_TGIB1,"ax",@progbits
 1153                             		.weak	_INT_Excep_MTU1_TGIB1
 1155                             	_INT_Excep_MTU1_TGIB1:
 1156                             	.LFB50:
 327:C:/Workspace/FW_Platform2_5/trunk/HAL/RN_RX200/EmbOS\vector_table.c **** __attribute__((weak)) void INT_Excep_MTU1_TGIB1(void)	{	_IllegalException();}
 1157                             		.loc 1 327 0
 1158                             		; Note: Interrupt Handler
 1159 0000 6E 1F                   		pushm	r1-r15
 1160                             	.LCFI71:
 327:C:/Workspace/FW_Platform2_5/trunk/HAL/RN_RX200/EmbOS\vector_table.c **** __attribute__((weak)) void INT_Excep_MTU1_TGIB1(void)	{	_IllegalException();}
 1161                             		.loc 1 327 0
 1162 0002 05 00 00 00             		bsr	__IllegalException
 1163                             	.LVL72:
 1164 0006 6F 1F                   		popm	r1-r15
 1165 0008 7F 95                   		rte
 1166                             	.LFE50:
 1168                             		.section	.text.INT_Excep_MTU1_TGIA1,"ax",@progbits
 1169                             		.weak	_INT_Excep_MTU1_TGIA1
 1171                             	_INT_Excep_MTU1_TGIA1:
 1172                             	.LFB49:
 325:C:/Workspace/FW_Platform2_5/trunk/HAL/RN_RX200/EmbOS\vector_table.c **** __attribute__((weak)) void INT_Excep_MTU1_TGIA1(void)	{	_IllegalException();}
 1173                             		.loc 1 325 0
 1174                             		; Note: Interrupt Handler
 1175 0000 6E 1F                   		pushm	r1-r15
 1176                             	.LCFI72:
 325:C:/Workspace/FW_Platform2_5/trunk/HAL/RN_RX200/EmbOS\vector_table.c **** __attribute__((weak)) void INT_Excep_MTU1_TGIA1(void)	{	_IllegalException();}
 1177                             		.loc 1 325 0
 1178 0002 05 00 00 00             		bsr	__IllegalException
 1179                             	.LVL73:
 1180 0006 6F 1F                   		popm	r1-r15
 1181 0008 7F 95                   		rte
 1182                             	.LFE49:
 1184                             		.section	.text.INT_Excep_MTU0_TGIF0,"ax",@progbits
 1185                             		.weak	_INT_Excep_MTU0_TGIF0
 1187                             	_INT_Excep_MTU0_TGIF0:
 1188                             	.LFB48:
 323:C:/Workspace/FW_Platform2_5/trunk/HAL/RN_RX200/EmbOS\vector_table.c **** __attribute__((weak)) void  INT_Excep_MTU0_TGIF0(void)	{	_IllegalException();}
 1189                             		.loc 1 323 0
 1190                             		; Note: Interrupt Handler
 1191 0000 6E 1F                   		pushm	r1-r15
 1192                             	.LCFI73:
 323:C:/Workspace/FW_Platform2_5/trunk/HAL/RN_RX200/EmbOS\vector_table.c **** __attribute__((weak)) void  INT_Excep_MTU0_TGIF0(void)	{	_IllegalException();}
 1193                             		.loc 1 323 0
 1194 0002 05 00 00 00             		bsr	__IllegalException
 1195                             	.LVL74:
 1196 0006 6F 1F                   		popm	r1-r15
 1197 0008 7F 95                   		rte
 1198                             	.LFE48:
 1200                             		.section	.text.INT_Excep_MTU0_TGIE0,"ax",@progbits
 1201                             		.weak	_INT_Excep_MTU0_TGIE0
 1203                             	_INT_Excep_MTU0_TGIE0:
 1204                             	.LFB47:
 321:C:/Workspace/FW_Platform2_5/trunk/HAL/RN_RX200/EmbOS\vector_table.c **** __attribute__((weak)) void  INT_Excep_MTU0_TGIE0(void)	{	_IllegalException();}
 1205                             		.loc 1 321 0
 1206                             		; Note: Interrupt Handler
 1207 0000 6E 1F                   		pushm	r1-r15
 1208                             	.LCFI74:
 321:C:/Workspace/FW_Platform2_5/trunk/HAL/RN_RX200/EmbOS\vector_table.c **** __attribute__((weak)) void  INT_Excep_MTU0_TGIE0(void)	{	_IllegalException();}
 1209                             		.loc 1 321 0
 1210 0002 05 00 00 00             		bsr	__IllegalException
 1211                             	.LVL75:
 1212 0006 6F 1F                   		popm	r1-r15
 1213 0008 7F 95                   		rte
 1214                             	.LFE47:
 1216                             		.section	.text.INT_Excep_MTU0_TCIV0,"ax",@progbits
 1217                             		.weak	_INT_Excep_MTU0_TCIV0
 1219                             	_INT_Excep_MTU0_TCIV0:
 1220                             	.LFB46:
 319:C:/Workspace/FW_Platform2_5/trunk/HAL/RN_RX200/EmbOS\vector_table.c **** __attribute__((weak)) void  INT_Excep_MTU0_TCIV0(void)	{	_IllegalException();}
 1221                             		.loc 1 319 0
 1222                             		; Note: Interrupt Handler
 1223 0000 6E 1F                   		pushm	r1-r15
 1224                             	.LCFI75:
 319:C:/Workspace/FW_Platform2_5/trunk/HAL/RN_RX200/EmbOS\vector_table.c **** __attribute__((weak)) void  INT_Excep_MTU0_TCIV0(void)	{	_IllegalException();}
 1225                             		.loc 1 319 0
 1226 0002 05 00 00 00             		bsr	__IllegalException
 1227                             	.LVL76:
 1228 0006 6F 1F                   		popm	r1-r15
 1229 0008 7F 95                   		rte
 1230                             	.LFE46:
 1232                             		.section	.text.INT_Excep_MTU0_TGID0,"ax",@progbits
 1233                             		.weak	_INT_Excep_MTU0_TGID0
 1235                             	_INT_Excep_MTU0_TGID0:
 1236                             	.LFB45:
 317:C:/Workspace/FW_Platform2_5/trunk/HAL/RN_RX200/EmbOS\vector_table.c **** __attribute__((weak)) void  INT_Excep_MTU0_TGID0(void)	{	_IllegalException();}
 1237                             		.loc 1 317 0
 1238                             		; Note: Interrupt Handler
 1239 0000 6E 1F                   		pushm	r1-r15
 1240                             	.LCFI76:
 317:C:/Workspace/FW_Platform2_5/trunk/HAL/RN_RX200/EmbOS\vector_table.c **** __attribute__((weak)) void  INT_Excep_MTU0_TGID0(void)	{	_IllegalException();}
 1241                             		.loc 1 317 0
 1242 0002 05 00 00 00             		bsr	__IllegalException
 1243                             	.LVL77:
 1244 0006 6F 1F                   		popm	r1-r15
 1245 0008 7F 95                   		rte
 1246                             	.LFE45:
 1248                             		.section	.text.INT_Excep_MTU0_TGIC0,"ax",@progbits
 1249                             		.weak	_INT_Excep_MTU0_TGIC0
 1251                             	_INT_Excep_MTU0_TGIC0:
 1252                             	.LFB44:
 315:C:/Workspace/FW_Platform2_5/trunk/HAL/RN_RX200/EmbOS\vector_table.c **** __attribute__((weak)) void  INT_Excep_MTU0_TGIC0(void)	{	_IllegalException();}
 1253                             		.loc 1 315 0
 1254                             		; Note: Interrupt Handler
 1255 0000 6E 1F                   		pushm	r1-r15
 1256                             	.LCFI77:
 315:C:/Workspace/FW_Platform2_5/trunk/HAL/RN_RX200/EmbOS\vector_table.c **** __attribute__((weak)) void  INT_Excep_MTU0_TGIC0(void)	{	_IllegalException();}
 1257                             		.loc 1 315 0
 1258 0002 05 00 00 00             		bsr	__IllegalException
 1259                             	.LVL78:
 1260 0006 6F 1F                   		popm	r1-r15
 1261 0008 7F 95                   		rte
 1262                             	.LFE44:
 1264                             		.section	.text.INT_Excep_MTU0_TGIB0,"ax",@progbits
 1265                             		.weak	_INT_Excep_MTU0_TGIB0
 1267                             	_INT_Excep_MTU0_TGIB0:
 1268                             	.LFB43:
 313:C:/Workspace/FW_Platform2_5/trunk/HAL/RN_RX200/EmbOS\vector_table.c **** __attribute__((weak)) void  INT_Excep_MTU0_TGIB0(void)	{	_IllegalException();}
 1269                             		.loc 1 313 0
 1270                             		; Note: Interrupt Handler
 1271 0000 6E 1F                   		pushm	r1-r15
 1272                             	.LCFI78:
 313:C:/Workspace/FW_Platform2_5/trunk/HAL/RN_RX200/EmbOS\vector_table.c **** __attribute__((weak)) void  INT_Excep_MTU0_TGIB0(void)	{	_IllegalException();}
 1273                             		.loc 1 313 0
 1274 0002 05 00 00 00             		bsr	__IllegalException
 1275                             	.LVL79:
 1276 0006 6F 1F                   		popm	r1-r15
 1277 0008 7F 95                   		rte
 1278                             	.LFE43:
 1280                             		.section	.text.INT_Excep_MTU0_TGIA0,"ax",@progbits
 1281                             		.weak	_INT_Excep_MTU0_TGIA0
 1283                             	_INT_Excep_MTU0_TGIA0:
 1284                             	.LFB42:
 311:C:/Workspace/FW_Platform2_5/trunk/HAL/RN_RX200/EmbOS\vector_table.c **** __attribute__((weak)) void  INT_Excep_MTU0_TGIA0(void)	{	_IllegalException();}
 1285                             		.loc 1 311 0
 1286                             		; Note: Interrupt Handler
 1287 0000 6E 1F                   		pushm	r1-r15
 1288                             	.LCFI79:
 311:C:/Workspace/FW_Platform2_5/trunk/HAL/RN_RX200/EmbOS\vector_table.c **** __attribute__((weak)) void  INT_Excep_MTU0_TGIA0(void)	{	_IllegalException();}
 1289                             		.loc 1 311 0
 1290 0002 05 00 00 00             		bsr	__IllegalException
 1291                             	.LVL80:
 1292 0006 6F 1F                   		popm	r1-r15
 1293 0008 7F 95                   		rte
 1294                             	.LFE42:
 1296                             		.section	.text.INT_Excep_ELSR19I,"ax",@progbits
 1297                             		.weak	_INT_Excep_ELSR19I
 1299                             	_INT_Excep_ELSR19I:
 1300                             	.LFB41:
 309:C:/Workspace/FW_Platform2_5/trunk/HAL/RN_RX200/EmbOS\vector_table.c **** __attribute__((weak)) void INT_Excep_ELSR19I(void)		{	_IllegalException();}
 1301                             		.loc 1 309 0
 1302                             		; Note: Interrupt Handler
 1303 0000 6E 1F                   		pushm	r1-r15
 1304                             	.LCFI80:
 309:C:/Workspace/FW_Platform2_5/trunk/HAL/RN_RX200/EmbOS\vector_table.c **** __attribute__((weak)) void INT_Excep_ELSR19I(void)		{	_IllegalException();}
 1305                             		.loc 1 309 0
 1306 0002 05 00 00 00             		bsr	__IllegalException
 1307                             	.LVL81:
 1308 0006 6F 1F                   		popm	r1-r15
 1309 0008 7F 95                   		rte
 1310                             	.LFE41:
 1312                             		.section	.text.INT_Excep_ELSR18I,"ax",@progbits
 1313                             		.weak	_INT_Excep_ELSR18I
 1315                             	_INT_Excep_ELSR18I:
 1316                             	.LFB40:
 307:C:/Workspace/FW_Platform2_5/trunk/HAL/RN_RX200/EmbOS\vector_table.c **** __attribute__((weak)) void INT_Excep_ELSR18I(void)		{	_IllegalException();}
 1317                             		.loc 1 307 0
 1318                             		; Note: Interrupt Handler
 1319 0000 6E 1F                   		pushm	r1-r15
 1320                             	.LCFI81:
 307:C:/Workspace/FW_Platform2_5/trunk/HAL/RN_RX200/EmbOS\vector_table.c **** __attribute__((weak)) void INT_Excep_ELSR18I(void)		{	_IllegalException();}
 1321                             		.loc 1 307 0
 1322 0002 05 00 00 00             		bsr	__IllegalException
 1323                             	.LVL82:
 1324 0006 6F 1F                   		popm	r1-r15
 1325 0008 7F 95                   		rte
 1326                             	.LFE40:
 1328                             		.section	.text.INT_Excep_S12AD0_GBADI,"ax",@progbits
 1329                             		.weak	_INT_Excep_S12AD0_GBADI
 1331                             	_INT_Excep_S12AD0_GBADI:
 1332                             	.LFB39:
 305:C:/Workspace/FW_Platform2_5/trunk/HAL/RN_RX200/EmbOS\vector_table.c **** __attribute__((weak)) void INT_Excep_S12AD0_GBADI(void)	{	_IllegalException();}
 1333                             		.loc 1 305 0
 1334                             		; Note: Interrupt Handler
 1335 0000 6E 1F                   		pushm	r1-r15
 1336                             	.LCFI82:
 305:C:/Workspace/FW_Platform2_5/trunk/HAL/RN_RX200/EmbOS\vector_table.c **** __attribute__((weak)) void INT_Excep_S12AD0_GBADI(void)	{	_IllegalException();}
 1337                             		.loc 1 305 0
 1338 0002 05 00 00 00             		bsr	__IllegalException
 1339                             	.LVL83:
 1340 0006 6F 1F                   		popm	r1-r15
 1341 0008 7F 95                   		rte
 1342                             	.LFE39:
 1344                             		.section	.text.INT_Excep_S12AD0_S12ADI0,"ax",@progbits
 1345                             		.weak	_INT_Excep_S12AD0_S12ADI0
 1347                             	_INT_Excep_S12AD0_S12ADI0:
 1348                             	.LFB38:
 303:C:/Workspace/FW_Platform2_5/trunk/HAL/RN_RX200/EmbOS\vector_table.c **** __attribute__((weak)) void INT_Excep_S12AD0_S12ADI0(void)	{	_IllegalException();}
 1349                             		.loc 1 303 0
 1350                             		; Note: Interrupt Handler
 1351 0000 6E 1F                   		pushm	r1-r15
 1352                             	.LCFI83:
 303:C:/Workspace/FW_Platform2_5/trunk/HAL/RN_RX200/EmbOS\vector_table.c **** __attribute__((weak)) void INT_Excep_S12AD0_S12ADI0(void)	{	_IllegalException();}
 1353                             		.loc 1 303 0
 1354 0002 05 00 00 00             		bsr	__IllegalException
 1355                             	.LVL84:
 1356 0006 6F 1F                   		popm	r1-r15
 1357 0008 7F 95                   		rte
 1358                             	.LFE38:
 1360                             		.section	.text.INT_Excep_WDT_WOVI,"ax",@progbits
 1361                             		.weak	_INT_Excep_WDT_WOVI
 1363                             	_INT_Excep_WDT_WOVI:
 1364                             	.LFB33:
 293:C:/Workspace/FW_Platform2_5/trunk/HAL/RN_RX200/EmbOS\vector_table.c **** __attribute__((weak)) void INT_Excep_WDT_WOVI(void)		{	_IllegalException();}
 1365                             		.loc 1 293 0
 1366                             		; Note: Interrupt Handler
 1367 0000 6E 1F                   		pushm	r1-r15
 1368                             	.LCFI84:
 293:C:/Workspace/FW_Platform2_5/trunk/HAL/RN_RX200/EmbOS\vector_table.c **** __attribute__((weak)) void INT_Excep_WDT_WOVI(void)		{	_IllegalException();}
 1369                             		.loc 1 293 0
 1370 0002 05 00 00 00             		bsr	__IllegalException
 1371                             	.LVL85:
 1372 0006 6F 1F                   		popm	r1-r15
 1373 0008 7F 95                   		rte
 1374                             	.LFE33:
 1376                             		.section	.text.INT_Excep_LVD2,"ax",@progbits
 1377                             		.weak	_INT_Excep_LVD2
 1379                             	_INT_Excep_LVD2:
 1380                             	.LFB32:
 291:C:/Workspace/FW_Platform2_5/trunk/HAL/RN_RX200/EmbOS\vector_table.c **** __attribute__((weak)) void INT_Excep_LVD2(void)			{	_IllegalException();}
 1381                             		.loc 1 291 0
 1382                             		; Note: Interrupt Handler
 1383 0000 6E 1F                   		pushm	r1-r15
 1384                             	.LCFI85:
 291:C:/Workspace/FW_Platform2_5/trunk/HAL/RN_RX200/EmbOS\vector_table.c **** __attribute__((weak)) void INT_Excep_LVD2(void)			{	_IllegalException();}
 1385                             		.loc 1 291 0
 1386 0002 05 00 00 00             		bsr	__IllegalException
 1387                             	.LVL86:
 1388 0006 6F 1F                   		popm	r1-r15
 1389 0008 7F 95                   		rte
 1390                             	.LFE32:
 1392                             		.section	.text.INT_Excep_LVD1,"ax",@progbits
 1393                             		.weak	_INT_Excep_LVD1
 1395                             	_INT_Excep_LVD1:
 1396                             	.LFB31:
 289:C:/Workspace/FW_Platform2_5/trunk/HAL/RN_RX200/EmbOS\vector_table.c **** __attribute__((weak)) void INT_Excep_LVD1(void)			{	_IllegalException();}
 1397                             		.loc 1 289 0
 1398                             		; Note: Interrupt Handler
 1399 0000 6E 1F                   		pushm	r1-r15
 1400                             	.LCFI86:
 289:C:/Workspace/FW_Platform2_5/trunk/HAL/RN_RX200/EmbOS\vector_table.c **** __attribute__((weak)) void INT_Excep_LVD1(void)			{	_IllegalException();}
 1401                             		.loc 1 289 0
 1402 0002 05 00 00 00             		bsr	__IllegalException
 1403                             	.LVL87:
 1404 0006 6F 1F                   		popm	r1-r15
 1405 0008 7F 95                   		rte
 1406                             	.LFE31:
 1408                             		.section	.text.INT_Excep_PRD,"ax",@progbits
 1409                             		.weak	_INT_Excep_PRD
 1411                             	_INT_Excep_PRD:
 1412                             	.LFB30:
 287:C:/Workspace/FW_Platform2_5/trunk/HAL/RN_RX200/EmbOS\vector_table.c **** __attribute__((weak))  void INT_Excep_PRD(void)			{	_IllegalException();}
 1413                             		.loc 1 287 0
 1414                             		; Note: Interrupt Handler
 1415 0000 6E 1F                   		pushm	r1-r15
 1416                             	.LCFI87:
 287:C:/Workspace/FW_Platform2_5/trunk/HAL/RN_RX200/EmbOS\vector_table.c **** __attribute__((weak))  void INT_Excep_PRD(void)			{	_IllegalException();}
 1417                             		.loc 1 287 0
 1418 0002 05 00 00 00             		bsr	__IllegalException
 1419                             	.LVL88:
 1420 0006 6F 1F                   		popm	r1-r15
 1421 0008 7F 95                   		rte
 1422                             	.LFE30:
 1424                             		.section	.text.INT_Excep_ALM,"ax",@progbits
 1425                             		.weak	_INT_Excep_ALM
 1427                             	_INT_Excep_ALM:
 1428                             	.LFB29:
 285:C:/Workspace/FW_Platform2_5/trunk/HAL/RN_RX200/EmbOS\vector_table.c **** __attribute__((weak))  void INT_Excep_ALM(void)			{	_IllegalException();}
 1429                             		.loc 1 285 0
 1430                             		; Note: Interrupt Handler
 1431 0000 6E 1F                   		pushm	r1-r15
 1432                             	.LCFI88:
 285:C:/Workspace/FW_Platform2_5/trunk/HAL/RN_RX200/EmbOS\vector_table.c **** __attribute__((weak))  void INT_Excep_ALM(void)			{	_IllegalException();}
 1433                             		.loc 1 285 0
 1434 0002 05 00 00 00             		bsr	__IllegalException
 1435                             	.LVL89:
 1436 0006 6F 1F                   		popm	r1-r15
 1437 0008 7F 95                   		rte
 1438                             	.LFE29:
 1440                             		.section	.text.INT_Excep_IRQ7,"ax",@progbits
 1441                             		.weak	_INT_Excep_IRQ7
 1443                             	_INT_Excep_IRQ7:
 1444                             	.LFB28:
 283:C:/Workspace/FW_Platform2_5/trunk/HAL/RN_RX200/EmbOS\vector_table.c **** __attribute__((weak)) void INT_Excep_IRQ7(void)			{	_IllegalException();}
 1445                             		.loc 1 283 0
 1446                             		; Note: Interrupt Handler
 1447 0000 6E 1F                   		pushm	r1-r15
 1448                             	.LCFI89:
 283:C:/Workspace/FW_Platform2_5/trunk/HAL/RN_RX200/EmbOS\vector_table.c **** __attribute__((weak)) void INT_Excep_IRQ7(void)			{	_IllegalException();}
 1449                             		.loc 1 283 0
 1450 0002 05 00 00 00             		bsr	__IllegalException
 1451                             	.LVL90:
 1452 0006 6F 1F                   		popm	r1-r15
 1453 0008 7F 95                   		rte
 1454                             	.LFE28:
 1456                             		.section	.text.INT_Excep_IRQ6,"ax",@progbits
 1457                             		.weak	_INT_Excep_IRQ6
 1459                             	_INT_Excep_IRQ6:
 1460                             	.LFB27:
 281:C:/Workspace/FW_Platform2_5/trunk/HAL/RN_RX200/EmbOS\vector_table.c **** __attribute__((weak)) void INT_Excep_IRQ6(void)			{	_IllegalException();}
 1461                             		.loc 1 281 0
 1462                             		; Note: Interrupt Handler
 1463 0000 6E 1F                   		pushm	r1-r15
 1464                             	.LCFI90:
 281:C:/Workspace/FW_Platform2_5/trunk/HAL/RN_RX200/EmbOS\vector_table.c **** __attribute__((weak)) void INT_Excep_IRQ6(void)			{	_IllegalException();}
 1465                             		.loc 1 281 0
 1466 0002 05 00 00 00             		bsr	__IllegalException
 1467                             	.LVL91:
 1468 0006 6F 1F                   		popm	r1-r15
 1469 0008 7F 95                   		rte
 1470                             	.LFE27:
 1472                             		.section	.text.INT_Excep_IRQ5,"ax",@progbits
 1473                             		.weak	_INT_Excep_IRQ5
 1475                             	_INT_Excep_IRQ5:
 1476                             	.LFB26:
 279:C:/Workspace/FW_Platform2_5/trunk/HAL/RN_RX200/EmbOS\vector_table.c **** __attribute__((weak)) void INT_Excep_IRQ5(void)			{	_IllegalException();}
 1477                             		.loc 1 279 0
 1478                             		; Note: Interrupt Handler
 1479 0000 6E 1F                   		pushm	r1-r15
 1480                             	.LCFI91:
 279:C:/Workspace/FW_Platform2_5/trunk/HAL/RN_RX200/EmbOS\vector_table.c **** __attribute__((weak)) void INT_Excep_IRQ5(void)			{	_IllegalException();}
 1481                             		.loc 1 279 0
 1482 0002 05 00 00 00             		bsr	__IllegalException
 1483                             	.LVL92:
 1484 0006 6F 1F                   		popm	r1-r15
 1485 0008 7F 95                   		rte
 1486                             	.LFE26:
 1488                             		.section	.text.INT_Excep_IRQ4,"ax",@progbits
 1489                             		.weak	_INT_Excep_IRQ4
 1491                             	_INT_Excep_IRQ4:
 1492                             	.LFB25:
 277:C:/Workspace/FW_Platform2_5/trunk/HAL/RN_RX200/EmbOS\vector_table.c **** __attribute__((weak)) void INT_Excep_IRQ4(void)			{	_IllegalException();}
 1493                             		.loc 1 277 0
 1494                             		; Note: Interrupt Handler
 1495 0000 6E 1F                   		pushm	r1-r15
 1496                             	.LCFI92:
 277:C:/Workspace/FW_Platform2_5/trunk/HAL/RN_RX200/EmbOS\vector_table.c **** __attribute__((weak)) void INT_Excep_IRQ4(void)			{	_IllegalException();}
 1497                             		.loc 1 277 0
 1498 0002 05 00 00 00             		bsr	__IllegalException
 1499                             	.LVL93:
 1500 0006 6F 1F                   		popm	r1-r15
 1501 0008 7F 95                   		rte
 1502                             	.LFE25:
 1504                             		.section	.text.INT_Excep_IRQ3,"ax",@progbits
 1505                             		.weak	_INT_Excep_IRQ3
 1507                             	_INT_Excep_IRQ3:
 1508                             	.LFB24:
 275:C:/Workspace/FW_Platform2_5/trunk/HAL/RN_RX200/EmbOS\vector_table.c **** __attribute__((weak)) void INT_Excep_IRQ3(void)			{	_IllegalException();}
 1509                             		.loc 1 275 0
 1510                             		; Note: Interrupt Handler
 1511 0000 6E 1F                   		pushm	r1-r15
 1512                             	.LCFI93:
 275:C:/Workspace/FW_Platform2_5/trunk/HAL/RN_RX200/EmbOS\vector_table.c **** __attribute__((weak)) void INT_Excep_IRQ3(void)			{	_IllegalException();}
 1513                             		.loc 1 275 0
 1514 0002 05 00 00 00             		bsr	__IllegalException
 1515                             	.LVL94:
 1516 0006 6F 1F                   		popm	r1-r15
 1517 0008 7F 95                   		rte
 1518                             	.LFE24:
 1520                             		.section	.text.INT_Excep_IRQ2,"ax",@progbits
 1521                             		.weak	_INT_Excep_IRQ2
 1523                             	_INT_Excep_IRQ2:
 1524                             	.LFB23:
 273:C:/Workspace/FW_Platform2_5/trunk/HAL/RN_RX200/EmbOS\vector_table.c **** __attribute__((weak)) void INT_Excep_IRQ2(void)			{	_IllegalException();}
 1525                             		.loc 1 273 0
 1526                             		; Note: Interrupt Handler
 1527 0000 6E 1F                   		pushm	r1-r15
 1528                             	.LCFI94:
 273:C:/Workspace/FW_Platform2_5/trunk/HAL/RN_RX200/EmbOS\vector_table.c **** __attribute__((weak)) void INT_Excep_IRQ2(void)			{	_IllegalException();}
 1529                             		.loc 1 273 0
 1530 0002 05 00 00 00             		bsr	__IllegalException
 1531                             	.LVL95:
 1532 0006 6F 1F                   		popm	r1-r15
 1533 0008 7F 95                   		rte
 1534                             	.LFE23:
 1536                             		.section	.text.INT_Excep_IRQ1,"ax",@progbits
 1537                             		.weak	_INT_Excep_IRQ1
 1539                             	_INT_Excep_IRQ1:
 1540                             	.LFB22:
 271:C:/Workspace/FW_Platform2_5/trunk/HAL/RN_RX200/EmbOS\vector_table.c **** __attribute__((weak)) void INT_Excep_IRQ1(void)			{	_IllegalException();}
 1541                             		.loc 1 271 0
 1542                             		; Note: Interrupt Handler
 1543 0000 6E 1F                   		pushm	r1-r15
 1544                             	.LCFI95:
 271:C:/Workspace/FW_Platform2_5/trunk/HAL/RN_RX200/EmbOS\vector_table.c **** __attribute__((weak)) void INT_Excep_IRQ1(void)			{	_IllegalException();}
 1545                             		.loc 1 271 0
 1546 0002 05 00 00 00             		bsr	__IllegalException
 1547                             	.LVL96:
 1548 0006 6F 1F                   		popm	r1-r15
 1549 0008 7F 95                   		rte
 1550                             	.LFE22:
 1552                             		.section	.text.INT_Excep_IRQ0,"ax",@progbits
 1553                             		.weak	_INT_Excep_IRQ0
 1555                             	_INT_Excep_IRQ0:
 1556                             	.LFB21:
 269:C:/Workspace/FW_Platform2_5/trunk/HAL/RN_RX200/EmbOS\vector_table.c **** __attribute__((weak)) void INT_Excep_IRQ0(void)			{	_IllegalException();}
 1557                             		.loc 1 269 0
 1558                             		; Note: Interrupt Handler
 1559 0000 6E 1F                   		pushm	r1-r15
 1560                             	.LCFI96:
 269:C:/Workspace/FW_Platform2_5/trunk/HAL/RN_RX200/EmbOS\vector_table.c **** __attribute__((weak)) void INT_Excep_IRQ0(void)			{	_IllegalException();}
 1561                             		.loc 1 269 0
 1562 0002 05 00 00 00             		bsr	__IllegalException
 1563                             	.LVL97:
 1564 0006 6F 1F                   		popm	r1-r15
 1565 0008 7F 95                   		rte
 1566                             	.LFE21:
 1568                             		.section	.text.INT_Excep_COUNTUP,"ax",@progbits
 1569                             		.weak	_INT_Excep_COUNTUP
 1571                             	_INT_Excep_COUNTUP:
 1572                             	.LFB20:
 267:C:/Workspace/FW_Platform2_5/trunk/HAL/RN_RX200/EmbOS\vector_table.c **** __attribute__((weak)) void INT_Excep_COUNTUP(void)		{	_IllegalException();}
 1573                             		.loc 1 267 0
 1574                             		; Note: Interrupt Handler
 1575 0000 6E 1F                   		pushm	r1-r15
 1576                             	.LCFI97:
 267:C:/Workspace/FW_Platform2_5/trunk/HAL/RN_RX200/EmbOS\vector_table.c **** __attribute__((weak)) void INT_Excep_COUNTUP(void)		{	_IllegalException();}
 1577                             		.loc 1 267 0
 1578 0002 05 00 00 00             		bsr	__IllegalException
 1579                             	.LVL98:
 1580 0006 6F 1F                   		popm	r1-r15
 1581 0008 7F 95                   		rte
 1582                             	.LFE20:
 1584                             		.section	.text.INT_Excep_CMPB1,"ax",@progbits
 1585                             		.weak	_INT_Excep_CMPB1
 1587                             	_INT_Excep_CMPB1:
 1588                             	.LFB19:
 265:C:/Workspace/FW_Platform2_5/trunk/HAL/RN_RX200/EmbOS\vector_table.c **** __attribute__((weak)) void INT_Excep_CMPB1(void)		{	_IllegalException();}
 1589                             		.loc 1 265 0
 1590                             		; Note: Interrupt Handler
 1591 0000 6E 1F                   		pushm	r1-r15
 1592                             	.LCFI98:
 265:C:/Workspace/FW_Platform2_5/trunk/HAL/RN_RX200/EmbOS\vector_table.c **** __attribute__((weak)) void INT_Excep_CMPB1(void)		{	_IllegalException();}
 1593                             		.loc 1 265 0
 1594 0002 05 00 00 00             		bsr	__IllegalException
 1595                             	.LVL99:
 1596 0006 6F 1F                   		popm	r1-r15
 1597 0008 7F 95                   		rte
 1598                             	.LFE19:
 1600                             		.section	.text.INT_Excep_CMPB0,"ax",@progbits
 1601                             		.weak	_INT_Excep_CMPB0
 1603                             	_INT_Excep_CMPB0:
 1604                             	.LFB18:
 263:C:/Workspace/FW_Platform2_5/trunk/HAL/RN_RX200/EmbOS\vector_table.c **** __attribute__((weak)) void INT_Excep_CMPB0(void)		{	_IllegalException();}
 1605                             		.loc 1 263 0
 1606                             		; Note: Interrupt Handler
 1607 0000 6E 1F                   		pushm	r1-r15
 1608                             	.LCFI99:
 263:C:/Workspace/FW_Platform2_5/trunk/HAL/RN_RX200/EmbOS\vector_table.c **** __attribute__((weak)) void INT_Excep_CMPB0(void)		{	_IllegalException();}
 1609                             		.loc 1 263 0
 1610 0002 05 00 00 00             		bsr	__IllegalException
 1611                             	.LVL100:
 1612 0006 6F 1F                   		popm	r1-r15
 1613 0008 7F 95                   		rte
 1614                             	.LFE18:
 1616                             		.section	.text.INT_Excep_DOPCF,"ax",@progbits
 1617                             		.weak	_INT_Excep_DOPCF
 1619                             	_INT_Excep_DOPCF:
 1620                             	.LFB17:
 261:C:/Workspace/FW_Platform2_5/trunk/HAL/RN_RX200/EmbOS\vector_table.c **** __attribute__((weak)) void INT_Excep_DOPCF(void)		{	_IllegalException();}
 1621                             		.loc 1 261 0
 1622                             		; Note: Interrupt Handler
 1623 0000 6E 1F                   		pushm	r1-r15
 1624                             	.LCFI100:
 261:C:/Workspace/FW_Platform2_5/trunk/HAL/RN_RX200/EmbOS\vector_table.c **** __attribute__((weak)) void INT_Excep_DOPCF(void)		{	_IllegalException();}
 1625                             		.loc 1 261 0
 1626 0002 05 00 00 00             		bsr	__IllegalException
 1627                             	.LVL101:
 1628 0006 6F 1F                   		popm	r1-r15
 1629 0008 7F 95                   		rte
 1630                             	.LFE17:
 1632                             		.section	.text.INT_Excep_SPTI0,"ax",@progbits
 1633                             		.weak	_INT_Excep_SPTI0
 1635                             	_INT_Excep_SPTI0:
 1636                             	.LFB16:
 259:C:/Workspace/FW_Platform2_5/trunk/HAL/RN_RX200/EmbOS\vector_table.c **** __attribute__((weak)) void INT_Excep_SPTI0(void)		{	_IllegalException();}
 1637                             		.loc 1 259 0
 1638                             		; Note: Interrupt Handler
 1639 0000 6E 1F                   		pushm	r1-r15
 1640                             	.LCFI101:
 259:C:/Workspace/FW_Platform2_5/trunk/HAL/RN_RX200/EmbOS\vector_table.c **** __attribute__((weak)) void INT_Excep_SPTI0(void)		{	_IllegalException();}
 1641                             		.loc 1 259 0
 1642 0002 05 00 00 00             		bsr	__IllegalException
 1643                             	.LVL102:
 1644 0006 6F 1F                   		popm	r1-r15
 1645 0008 7F 95                   		rte
 1646                             	.LFE16:
 1648                             		.section	.text.INT_Excep_SPRI0,"ax",@progbits
 1649                             		.weak	_INT_Excep_SPRI0
 1651                             	_INT_Excep_SPRI0:
 1652                             	.LFB15:
 257:C:/Workspace/FW_Platform2_5/trunk/HAL/RN_RX200/EmbOS\vector_table.c **** __attribute__((weak)) void INT_Excep_SPRI0(void)		{	_IllegalException();}
 1653                             		.loc 1 257 0
 1654                             		; Note: Interrupt Handler
 1655 0000 6E 1F                   		pushm	r1-r15
 1656                             	.LCFI102:
 257:C:/Workspace/FW_Platform2_5/trunk/HAL/RN_RX200/EmbOS\vector_table.c **** __attribute__((weak)) void INT_Excep_SPRI0(void)		{	_IllegalException();}
 1657                             		.loc 1 257 0
 1658 0002 05 00 00 00             		bsr	__IllegalException
 1659                             	.LVL103:
 1660 0006 6F 1F                   		popm	r1-r15
 1661 0008 7F 95                   		rte
 1662                             	.LFE15:
 1664                             		.section	.text.INT_Excep_SPII0,"ax",@progbits
 1665                             		.weak	_INT_Excep_SPII0
 1667                             	_INT_Excep_SPII0:
 1668                             	.LFB14:
 255:C:/Workspace/FW_Platform2_5/trunk/HAL/RN_RX200/EmbOS\vector_table.c **** __attribute__((weak)) void INT_Excep_SPII0(void)		{	_IllegalException();}
 1669                             		.loc 1 255 0
 1670                             		; Note: Interrupt Handler
 1671 0000 6E 1F                   		pushm	r1-r15
 1672                             	.LCFI103:
 255:C:/Workspace/FW_Platform2_5/trunk/HAL/RN_RX200/EmbOS\vector_table.c **** __attribute__((weak)) void INT_Excep_SPII0(void)		{	_IllegalException();}
 1673                             		.loc 1 255 0
 1674 0002 05 00 00 00             		bsr	__IllegalException
 1675                             	.LVL104:
 1676 0006 6F 1F                   		popm	r1-r15
 1677 0008 7F 95                   		rte
 1678                             	.LFE14:
 1680                             		.section	.text.INT_Excep_SPEI0,"ax",@progbits
 1681                             		.weak	_INT_Excep_SPEI0
 1683                             	_INT_Excep_SPEI0:
 1684                             	.LFB13:
 253:C:/Workspace/FW_Platform2_5/trunk/HAL/RN_RX200/EmbOS\vector_table.c **** __attribute__((weak)) void INT_Excep_SPEI0(void)		{	_IllegalException();}
 1685                             		.loc 1 253 0
 1686                             		; Note: Interrupt Handler
 1687 0000 6E 1F                   		pushm	r1-r15
 1688                             	.LCFI104:
 253:C:/Workspace/FW_Platform2_5/trunk/HAL/RN_RX200/EmbOS\vector_table.c **** __attribute__((weak)) void INT_Excep_SPEI0(void)		{	_IllegalException();}
 1689                             		.loc 1 253 0
 1690 0002 05 00 00 00             		bsr	__IllegalException
 1691                             	.LVL105:
 1692 0006 6F 1F                   		popm	r1-r15
 1693 0008 7F 95                   		rte
 1694                             	.LFE13:
 1696                             		.section	.text.INT_Excep_OVFF,"ax",@progbits
 1697                             		.weak	_INT_Excep_OVFF
 1699                             	_INT_Excep_OVFF:
 1700                             	.LFB12:
 251:C:/Workspace/FW_Platform2_5/trunk/HAL/RN_RX200/EmbOS\vector_table.c **** __attribute__((weak)) void INT_Excep_OVFF(void)			{	_IllegalException();}
 1701                             		.loc 1 251 0
 1702                             		; Note: Interrupt Handler
 1703 0000 6E 1F                   		pushm	r1-r15
 1704                             	.LCFI105:
 251:C:/Workspace/FW_Platform2_5/trunk/HAL/RN_RX200/EmbOS\vector_table.c **** __attribute__((weak)) void INT_Excep_OVFF(void)			{	_IllegalException();}
 1705                             		.loc 1 251 0
 1706 0002 05 00 00 00             		bsr	__IllegalException
 1707                             	.LVL106:
 1708 0006 6F 1F                   		popm	r1-r15
 1709 0008 7F 95                   		rte
 1710                             	.LFE12:
 1712                             		.section	.text.INT_Excep_MENDF,"ax",@progbits
 1713                             		.weak	_INT_Excep_MENDF
 1715                             	_INT_Excep_MENDF:
 1716                             	.LFB11:
 249:C:/Workspace/FW_Platform2_5/trunk/HAL/RN_RX200/EmbOS\vector_table.c **** __attribute__((weak)) void INT_Excep_MENDF(void)		{	_IllegalException();}
 1717                             		.loc 1 249 0
 1718                             		; Note: Interrupt Handler
 1719 0000 6E 1F                   		pushm	r1-r15
 1720                             	.LCFI106:
 249:C:/Workspace/FW_Platform2_5/trunk/HAL/RN_RX200/EmbOS\vector_table.c **** __attribute__((weak)) void INT_Excep_MENDF(void)		{	_IllegalException();}
 1721                             		.loc 1 249 0
 1722 0002 05 00 00 00             		bsr	__IllegalException
 1723                             	.LVL107:
 1724 0006 6F 1F                   		popm	r1-r15
 1725 0008 7F 95                   		rte
 1726                             	.LFE11:
 1728                             		.section	.text.INT_Excep_FERRF,"ax",@progbits
 1729                             		.weak	_INT_Excep_FERRF
 1731                             	_INT_Excep_FERRF:
 1732                             	.LFB10:
 247:C:/Workspace/FW_Platform2_5/trunk/HAL/RN_RX200/EmbOS\vector_table.c **** __attribute__((weak)) void INT_Excep_FERRF(void)		{	_IllegalException();}
 1733                             		.loc 1 247 0
 1734                             		; Note: Interrupt Handler
 1735 0000 6E 1F                   		pushm	r1-r15
 1736                             	.LCFI107:
 247:C:/Workspace/FW_Platform2_5/trunk/HAL/RN_RX200/EmbOS\vector_table.c **** __attribute__((weak)) void INT_Excep_FERRF(void)		{	_IllegalException();}
 1737                             		.loc 1 247 0
 1738 0002 05 00 00 00             		bsr	__IllegalException
 1739                             	.LVL108:
 1740 0006 6F 1F                   		popm	r1-r15
 1741 0008 7F 95                   		rte
 1742                             	.LFE10:
 1744                             		.section	.text.INT_Excep_CMTU1_CMT3,"ax",@progbits
 1745                             		.weak	_INT_Excep_CMTU1_CMT3
 1747                             	_INT_Excep_CMTU1_CMT3:
 1748                             	.LFB9:
 245:C:/Workspace/FW_Platform2_5/trunk/HAL/RN_RX200/EmbOS\vector_table.c **** __attribute__((weak)) void INT_Excep_CMTU1_CMT3(void)	{	_IllegalException();}
 1749                             		.loc 1 245 0
 1750                             		; Note: Interrupt Handler
 1751 0000 6E 1F                   		pushm	r1-r15
 1752                             	.LCFI108:
 245:C:/Workspace/FW_Platform2_5/trunk/HAL/RN_RX200/EmbOS\vector_table.c **** __attribute__((weak)) void INT_Excep_CMTU1_CMT3(void)	{	_IllegalException();}
 1753                             		.loc 1 245 0
 1754 0002 05 00 00 00             		bsr	__IllegalException
 1755                             	.LVL109:
 1756 0006 6F 1F                   		popm	r1-r15
 1757 0008 7F 95                   		rte
 1758                             	.LFE9:
 1760                             		.section	.text.INT_Excep_CMTU1_CMT2,"ax",@progbits
 1761                             		.weak	_INT_Excep_CMTU1_CMT2
 1763                             	_INT_Excep_CMTU1_CMT2:
 1764                             	.LFB8:
 243:C:/Workspace/FW_Platform2_5/trunk/HAL/RN_RX200/EmbOS\vector_table.c **** __attribute__((weak)) void INT_Excep_CMTU1_CMT2(void)	{	_IllegalException();}
 1765                             		.loc 1 243 0
 1766                             		; Note: Interrupt Handler
 1767 0000 6E 1F                   		pushm	r1-r15
 1768                             	.LCFI109:
 243:C:/Workspace/FW_Platform2_5/trunk/HAL/RN_RX200/EmbOS\vector_table.c **** __attribute__((weak)) void INT_Excep_CMTU1_CMT2(void)	{	_IllegalException();}
 1769                             		.loc 1 243 0
 1770 0002 05 00 00 00             		bsr	__IllegalException
 1771                             	.LVL110:
 1772 0006 6F 1F                   		popm	r1-r15
 1773 0008 7F 95                   		rte
 1774                             	.LFE8:
 1776                             		.section	.text.INT_Excep_CMTU0_CMT1,"ax",@progbits
 1777                             		.weak	_INT_Excep_CMTU0_CMT1
 1779                             	_INT_Excep_CMTU0_CMT1:
 1780                             	.LFB7:
 241:C:/Workspace/FW_Platform2_5/trunk/HAL/RN_RX200/EmbOS\vector_table.c **** __attribute__((weak)) void INT_Excep_CMTU0_CMT1(void)	{	_IllegalException();}
 1781                             		.loc 1 241 0
 1782                             		; Note: Interrupt Handler
 1783 0000 6E 1F                   		pushm	r1-r15
 1784                             	.LCFI110:
 241:C:/Workspace/FW_Platform2_5/trunk/HAL/RN_RX200/EmbOS\vector_table.c **** __attribute__((weak)) void INT_Excep_CMTU0_CMT1(void)	{	_IllegalException();}
 1785                             		.loc 1 241 0
 1786 0002 05 00 00 00             		bsr	__IllegalException
 1787                             	.LVL111:
 1788 0006 6F 1F                   		popm	r1-r15
 1789 0008 7F 95                   		rte
 1790                             	.LFE7:
 1792                             		.section	.text.INT_Excep_CMTU0_CMT0,"ax",@progbits
 1793                             		.weak	_INT_Excep_CMTU0_CMT0
 1795                             	_INT_Excep_CMTU0_CMT0:
 1796                             	.LFB6:
 239:C:/Workspace/FW_Platform2_5/trunk/HAL/RN_RX200/EmbOS\vector_table.c **** __attribute__((weak)) void INT_Excep_CMTU0_CMT0(void)	{	_IllegalException();}
 1797                             		.loc 1 239 0
 1798                             		; Note: Interrupt Handler
 1799 0000 6E 1F                   		pushm	r1-r15
 1800                             	.LCFI111:
 239:C:/Workspace/FW_Platform2_5/trunk/HAL/RN_RX200/EmbOS\vector_table.c **** __attribute__((weak)) void INT_Excep_CMTU0_CMT0(void)	{	_IllegalException();}
 1801                             		.loc 1 239 0
 1802 0002 05 00 00 00             		bsr	__IllegalException
 1803                             	.LVL112:
 1804 0006 6F 1F                   		popm	r1-r15
 1805 0008 7F 95                   		rte
 1806                             	.LFE6:
 1808                             		.section	.text.INT_Excep_SWINT,"ax",@progbits
 1809                             		.weak	_INT_Excep_SWINT
 1811                             	_INT_Excep_SWINT:
 1812                             	.LFB5:
 237:C:/Workspace/FW_Platform2_5/trunk/HAL/RN_RX200/EmbOS\vector_table.c **** __attribute__((weak)) void INT_Excep_SWINT(void)		{	_IllegalException();}
 1813                             		.loc 1 237 0
 1814                             		; Note: Interrupt Handler
 1815 0000 6E 1F                   		pushm	r1-r15
 1816                             	.LCFI112:
 237:C:/Workspace/FW_Platform2_5/trunk/HAL/RN_RX200/EmbOS\vector_table.c **** __attribute__((weak)) void INT_Excep_SWINT(void)		{	_IllegalException();}
 1817                             		.loc 1 237 0
 1818 0002 05 00 00 00             		bsr	__IllegalException
 1819                             	.LVL113:
 1820 0006 6F 1F                   		popm	r1-r15
 1821 0008 7F 95                   		rte
 1822                             	.LFE5:
 1824                             		.section	.text.INT_Excep_FCU_FRDYI,"ax",@progbits
 1825                             		.weak	_INT_Excep_FCU_FRDYI
 1827                             	_INT_Excep_FCU_FRDYI:
 1828                             	.LFB4:
 235:C:/Workspace/FW_Platform2_5/trunk/HAL/RN_RX200/EmbOS\vector_table.c **** __attribute__((weak)) void INT_Excep_FCU_FRDYI(void)	{	_IllegalException();}
 1829                             		.loc 1 235 0
 1830                             		; Note: Interrupt Handler
 1831 0000 6E 1F                   		pushm	r1-r15
 1832                             	.LCFI113:
 235:C:/Workspace/FW_Platform2_5/trunk/HAL/RN_RX200/EmbOS\vector_table.c **** __attribute__((weak)) void INT_Excep_FCU_FRDYI(void)	{	_IllegalException();}
 1833                             		.loc 1 235 0
 1834 0002 05 00 00 00             		bsr	__IllegalException
 1835                             	.LVL114:
 1836 0006 6F 1F                   		popm	r1-r15
 1837 0008 7F 95                   		rte
 1838                             	.LFE4:
 1840                             		.section	.text.INT_Excep_FCU_FCUERR,"ax",@progbits
 1841                             		.weak	_INT_Excep_FCU_FCUERR
 1843                             	_INT_Excep_FCU_FCUERR:
 1844                             	.LFB3:
 233:C:/Workspace/FW_Platform2_5/trunk/HAL/RN_RX200/EmbOS\vector_table.c **** __attribute__((weak)) void INT_Excep_FCU_FCUERR(void)	{ 	_IllegalException();}
 1845                             		.loc 1 233 0
 1846                             		; Note: Interrupt Handler
 1847 0000 6E 1F                   		pushm	r1-r15
 1848                             	.LCFI114:
 233:C:/Workspace/FW_Platform2_5/trunk/HAL/RN_RX200/EmbOS\vector_table.c **** __attribute__((weak)) void INT_Excep_FCU_FCUERR(void)	{ 	_IllegalException();}
 1849                             		.loc 1 233 0
 1850 0002 05 00 00 00             		bsr	__IllegalException
 1851                             	.LVL115:
 1852 0006 6F 1F                   		popm	r1-r15
 1853 0008 7F 95                   		rte
 1854                             	.LFE3:
 1856                             		.section	.text.INT_Excep_BUSERR,"ax",@progbits
 1857                             		.weak	_INT_Excep_BUSERR
 1859                             	_INT_Excep_BUSERR:
 1860                             	.LFB2:
 231:C:/Workspace/FW_Platform2_5/trunk/HAL/RN_RX200/EmbOS\vector_table.c **** __attribute__((weak)) void INT_Excep_BUSERR(void)		{ 	_IllegalException();}
 1861                             		.loc 1 231 0
 1862                             		; Note: Interrupt Handler
 1863 0000 6E 1F                   		pushm	r1-r15
 1864                             	.LCFI115:
 231:C:/Workspace/FW_Platform2_5/trunk/HAL/RN_RX200/EmbOS\vector_table.c **** __attribute__((weak)) void INT_Excep_BUSERR(void)		{ 	_IllegalException();}
 1865                             		.loc 1 231 0
 1866 0002 05 00 00 00             		bsr	__IllegalException
 1867                             	.LVL116:
 1868 0006 6F 1F                   		popm	r1-r15
 1869 0008 7F 95                   		rte
 1870                             	.LFE2:
 1872                             		.section	.text.INT_Excep_FloatingPoint,"ax",@progbits
 1873                             		.weak	_INT_Excep_FloatingPoint
 1875                             	_INT_Excep_FloatingPoint:
 1876                             	.LFB1:
  72:C:/Workspace/FW_Platform2_5/trunk/HAL/RN_RX200/EmbOS\vector_table.c **** {
 1877                             		.loc 1 72 0
 1878                             		; Note: Interrupt Handler
 1879 0000 6E 1F                   		pushm	r1-r15
 1880                             	.LCFI116:
  73:C:/Workspace/FW_Platform2_5/trunk/HAL/RN_RX200/EmbOS\vector_table.c **** 	_IllegalException();
 1881                             		.loc 1 73 0
 1882 0002 05 00 00 00             		bsr	__IllegalException
 1883                             	.LVL117:
  74:C:/Workspace/FW_Platform2_5/trunk/HAL/RN_RX200/EmbOS\vector_table.c **** }
 1884                             		.loc 1 74 0
 1885 0006 6F 1F                   		popm	r1-r15
 1886 0008 7F 95                   		rte
 1887                             	.LFE1:
 1889                             		.section	.text.INT_Excep_AD0_ADI0,"ax",@progbits
 1890                             		.weak	_INT_Excep_AD0_ADI0
 1892                             	_INT_Excep_AD0_ADI0:
 1893                             	.LFB34:
 295:C:/Workspace/FW_Platform2_5/trunk/HAL/RN_RX200/EmbOS\vector_table.c **** __attribute__((weak)) void INT_Excep_AD0_ADI0(void)		{	_IllegalException();}
 1894                             		.loc 1 295 0
 1895                             		; Note: Interrupt Handler
 1896 0000 6E 1F                   		pushm	r1-r15
 1897                             	.LCFI117:
 295:C:/Workspace/FW_Platform2_5/trunk/HAL/RN_RX200/EmbOS\vector_table.c **** __attribute__((weak)) void INT_Excep_AD0_ADI0(void)		{	_IllegalException();}
 1898                             		.loc 1 295 0
 1899 0002 05 00 00 00             		bsr	__IllegalException
 1900                             	.LVL118:
 1901 0006 6F 1F                   		popm	r1-r15
 1902 0008 7F 95                   		rte
 1903                             	.LFE34:
 1905                             		.section	.text.INT_Excep_AD1_ADI1,"ax",@progbits
 1906                             		.weak	_INT_Excep_AD1_ADI1
 1908                             	_INT_Excep_AD1_ADI1:
 1909                             	.LFB35:
 297:C:/Workspace/FW_Platform2_5/trunk/HAL/RN_RX200/EmbOS\vector_table.c **** __attribute__((weak)) void INT_Excep_AD1_ADI1(void)		{	_IllegalException();}
 1910                             		.loc 1 297 0
 1911                             		; Note: Interrupt Handler
 1912 0000 6E 1F                   		pushm	r1-r15
 1913                             	.LCFI118:
 297:C:/Workspace/FW_Platform2_5/trunk/HAL/RN_RX200/EmbOS\vector_table.c **** __attribute__((weak)) void INT_Excep_AD1_ADI1(void)		{	_IllegalException();}
 1914                             		.loc 1 297 0
 1915 0002 05 00 00 00             		bsr	__IllegalException
 1916                             	.LVL119:
 1917 0006 6F 1F                   		popm	r1-r15
 1918 0008 7F 95                   		rte
 1919                             	.LFE35:
 1921                             		.section	.text.INT_Excep_AD2_ADI2,"ax",@progbits
 1922                             		.weak	_INT_Excep_AD2_ADI2
 1924                             	_INT_Excep_AD2_ADI2:
 1925                             	.LFB36:
 299:C:/Workspace/FW_Platform2_5/trunk/HAL/RN_RX200/EmbOS\vector_table.c **** __attribute__((weak)) void INT_Excep_AD2_ADI2(void)		{	_IllegalException();}
 1926                             		.loc 1 299 0
 1927                             		; Note: Interrupt Handler
 1928 0000 6E 1F                   		pushm	r1-r15
 1929                             	.LCFI119:
 299:C:/Workspace/FW_Platform2_5/trunk/HAL/RN_RX200/EmbOS\vector_table.c **** __attribute__((weak)) void INT_Excep_AD2_ADI2(void)		{	_IllegalException();}
 1930                             		.loc 1 299 0
 1931 0002 05 00 00 00             		bsr	__IllegalException
 1932                             	.LVL120:
 1933 0006 6F 1F                   		popm	r1-r15
 1934 0008 7F 95                   		rte
 1935                             	.LFE36:
 1937                             		.section	.text.INT_Excep_AD3_ADI3,"ax",@progbits
 1938                             		.weak	_INT_Excep_AD3_ADI3
 1940                             	_INT_Excep_AD3_ADI3:
 1941                             	.LFB37:
 301:C:/Workspace/FW_Platform2_5/trunk/HAL/RN_RX200/EmbOS\vector_table.c **** __attribute__((weak)) void INT_Excep_AD3_ADI3(void)		{	_IllegalException();}
 1942                             		.loc 1 301 0
 1943                             		; Note: Interrupt Handler
 1944 0000 6E 1F                   		pushm	r1-r15
 1945                             	.LCFI120:
 301:C:/Workspace/FW_Platform2_5/trunk/HAL/RN_RX200/EmbOS\vector_table.c **** __attribute__((weak)) void INT_Excep_AD3_ADI3(void)		{	_IllegalException();}
 1946                             		.loc 1 301 0
 1947 0002 05 00 00 00             		bsr	__IllegalException
 1948                             	.LVL121:
 1949 0006 6F 1F                   		popm	r1-r15
 1950 0008 7F 95                   		rte
 1951                             	.LFE37:
 1953                             		.section	.text.INT_Excep_TMR0_CMI0B,"ax",@progbits
 1954                             		.weak	_INT_Excep_TMR0_CMI0B
 1956                             	_INT_Excep_TMR0_CMI0B:
 1957                             	.LFB72:
 371:C:/Workspace/FW_Platform2_5/trunk/HAL/RN_RX200/EmbOS\vector_table.c **** __attribute__((weak)) void INT_Excep_TMR0_CMI0B(void)	{	_IllegalException(); }
 1958                             		.loc 1 371 0
 1959                             		; Note: Interrupt Handler
 1960 0000 6E 1F                   		pushm	r1-r15
 1961                             	.LCFI121:
 371:C:/Workspace/FW_Platform2_5/trunk/HAL/RN_RX200/EmbOS\vector_table.c **** __attribute__((weak)) void INT_Excep_TMR0_CMI0B(void)	{	_IllegalException(); }
 1962                             		.loc 1 371 0
 1963 0002 05 00 00 00             		bsr	__IllegalException
 1964                             	.LVL122:
 1965 0006 6F 1F                   		popm	r1-r15
 1966 0008 7F 95                   		rte
 1967                             	.LFE72:
 1969                             		.global	_RelocatableVectors
 1970                             		.section	.rvectors,"a",@progbits
 1971                             		.balign 4
 1974                             	_RelocatableVectors:
 1975 0000 FF FF FF FF             		.long	-1
 1976 0004 FF FF FF FF             		.long	-1
 1977 0008 FF FF FF FF             		.long	-1
 1978 000c FF FF FF FF             		.long	-1
 1979 0010 FF FF FF FF             		.long	-1
 1980 0014 FF FF FF FF             		.long	-1
 1981 0018 FF FF FF FF             		.long	-1
 1982 001c FF FF FF FF             		.long	-1
 1983 0020 FF FF FF FF             		.long	-1
 1984 0024 FF FF FF FF             		.long	-1
 1985 0028 FF FF FF FF             		.long	-1
 1986 002c FF FF FF FF             		.long	-1
 1987 0030 FF FF FF FF             		.long	-1
 1988 0034 FF FF FF FF             		.long	-1
 1989 0038 FF FF FF FF             		.long	-1
 1990 003c FF FF FF FF             		.long	-1
 1991 0040 00 00 00 00             		.long	_INT_Excep_BUSERR
 1992 0044 FF FF FF FF             		.long	-1
 1993 0048 FF FF FF FF             		.long	-1
 1994 004c FF FF FF FF             		.long	-1
 1995 0050 FF FF FF FF             		.long	-1
 1996 0054 00 00 00 00             		.long	_INT_Excep_FCU_FCUERR
 1997 0058 FF FF FF FF             		.long	-1
 1998 005c 00 00 00 00             		.long	_INT_Excep_FCU_FRDYI
 1999 0060 FF FF FF FF             		.long	-1
 2000 0064 FF FF FF FF             		.long	-1
 2001 0068 FF FF FF FF             		.long	-1
 2002 006c 00 00 00 00             		.long	_INT_Excep_SWINT
 2003 0070 00 00 00 00             		.long	_INT_Excep_CMTU0_CMT0
 2004 0074 00 00 00 00             		.long	_INT_Excep_CMTU0_CMT1
 2005 0078 00 00 00 00             		.long	_INT_Excep_CMTU1_CMT2
 2006 007c 00 00 00 00             		.long	_INT_Excep_CMTU1_CMT3
 2007 0080 00 00 00 00             		.long	_INT_Excep_FERRF
 2008 0084 00 00 00 00             		.long	_INT_Excep_MENDF
 2009 0088 00 00 00 00             		.long	_INT_Excep_OVFF
 2010 008c FF FF FF FF             		.long	-1
 2011 0090 FF FF FF FF             		.long	-1
 2012 0094 FF FF FF FF             		.long	-1
 2013 0098 FF FF FF FF             		.long	-1
 2014 009c FF FF FF FF             		.long	-1
 2015 00a0 FF FF FF FF             		.long	-1
 2016 00a4 FF FF FF FF             		.long	-1
 2017 00a8 FF FF FF FF             		.long	-1
 2018 00ac FF FF FF FF             		.long	-1
 2019 00b0 00 00 00 00             		.long	_INT_Excep_SPEI0
 2020 00b4 00 00 00 00             		.long	_INT_Excep_SPRI0
 2021 00b8 00 00 00 00             		.long	_INT_Excep_SPTI0
 2022 00bc 00 00 00 00             		.long	_INT_Excep_SPII0
 2023 00c0 FF FF FF FF             		.long	-1
 2024 00c4 FF FF FF FF             		.long	-1
 2025 00c8 FF FF FF FF             		.long	-1
 2026 00cc FF FF FF FF             		.long	-1
 2027 00d0 FF FF FF FF             		.long	-1
 2028 00d4 FF FF FF FF             		.long	-1
 2029 00d8 FF FF FF FF             		.long	-1
 2030 00dc FF FF FF FF             		.long	-1
 2031 00e0 FF FF FF FF             		.long	-1
 2032 00e4 00 00 00 00             		.long	_INT_Excep_DOPCF
 2033 00e8 00 00 00 00             		.long	_INT_Excep_CMPB0
 2034 00ec 00 00 00 00             		.long	_INT_Excep_CMPB1
 2035 00f0 FF FF FF FF             		.long	-1
 2036 00f4 FF FF FF FF             		.long	-1
 2037 00f8 FF FF FF FF             		.long	-1
 2038 00fc 00 00 00 00             		.long	_INT_Excep_COUNTUP
 2039 0100 00 00 00 00             		.long	_INT_Excep_IRQ0
 2040 0104 00 00 00 00             		.long	_INT_Excep_IRQ1
 2041 0108 00 00 00 00             		.long	_INT_Excep_IRQ2
 2042 010c 00 00 00 00             		.long	_INT_Excep_IRQ3
 2043 0110 00 00 00 00             		.long	_INT_Excep_IRQ4
 2044 0114 00 00 00 00             		.long	_INT_Excep_IRQ5
 2045 0118 00 00 00 00             		.long	_INT_Excep_IRQ6
 2046 011c 00 00 00 00             		.long	_INT_Excep_IRQ7
 2047 0120 FF FF FF FF             		.long	-1
 2048 0124 FF FF FF FF             		.long	-1
 2049 0128 FF FF FF FF             		.long	-1
 2050 012c FF FF FF FF             		.long	-1
 2051 0130 FF FF FF FF             		.long	-1
 2052 0134 FF FF FF FF             		.long	-1
 2053 0138 FF FF FF FF             		.long	-1
 2054 013c FF FF FF FF             		.long	-1
 2055 0140 FF FF FF FF             		.long	-1
 2056 0144 FF FF FF FF             		.long	-1
 2057 0148 FF FF FF FF             		.long	-1
 2058 014c FF FF FF FF             		.long	-1
 2059 0150 FF FF FF FF             		.long	-1
 2060 0154 FF FF FF FF             		.long	-1
 2061 0158 FF FF FF FF             		.long	-1
 2062 015c FF FF FF FF             		.long	-1
 2063 0160 00 00 00 00             		.long	_INT_Excep_LVD1
 2064 0164 00 00 00 00             		.long	_INT_Excep_LVD2
 2065 0168 FF FF FF FF             		.long	-1
 2066 016c FF FF FF FF             		.long	-1
 2067 0170 00 00 00 00             		.long	_INT_Excep_ALM
 2068 0174 00 00 00 00             		.long	_INT_Excep_PRD
 2069 0178 FF FF FF FF             		.long	-1
 2070 017c FF FF FF FF             		.long	-1
 2071 0180 00 00 00 00             		.long	_INT_Excep_WDT_WOVI
 2072 0184 FF FF FF FF             		.long	-1
 2073 0188 FF FF FF FF             		.long	-1
 2074 018c FF FF FF FF             		.long	-1
 2075 0190 FF FF FF FF             		.long	-1
 2076 0194 FF FF FF FF             		.long	-1
 2077 0198 00 00 00 00             		.long	_INT_Excep_S12AD0_S12ADI0
 2078 019c 00 00 00 00             		.long	_INT_Excep_S12AD0_GBADI
 2079 01a0 FF FF FF FF             		.long	-1
 2080 01a4 FF FF FF FF             		.long	-1
 2081 01a8 00 00 00 00             		.long	_INT_Excep_ELSR18I
 2082 01ac 00 00 00 00             		.long	_INT_Excep_ELSR19I
 2083 01b0 FF FF FF FF             		.long	-1
 2084 01b4 FF FF FF FF             		.long	-1
 2085 01b8 FF FF FF FF             		.long	-1
 2086 01bc FF FF FF FF             		.long	-1
 2087 01c0 FF FF FF FF             		.long	-1
 2088 01c4 FF FF FF FF             		.long	-1
 2089 01c8 00 00 00 00             		.long	_INT_Excep_MTU0_TGIA0
 2090 01cc 00 00 00 00             		.long	_INT_Excep_MTU0_TGIB0
 2091 01d0 00 00 00 00             		.long	_INT_Excep_MTU0_TGIC0
 2092 01d4 00 00 00 00             		.long	_INT_Excep_MTU0_TGID0
 2093 01d8 00 00 00 00             		.long	_INT_Excep_MTU0_TCIV0
 2094 01dc 00 00 00 00             		.long	_INT_Excep_MTU0_TGIE0
 2095 01e0 00 00 00 00             		.long	_INT_Excep_MTU0_TGIF0
 2096 01e4 00 00 00 00             		.long	_INT_Excep_MTU1_TGIA1
 2097 01e8 00 00 00 00             		.long	_INT_Excep_MTU1_TGIB1
 2098 01ec 00 00 00 00             		.long	_INT_Excep_MTU1_TCIV1
 2099 01f0 00 00 00 00             		.long	_INT_Excep_MTU1_TCIU1
 2100 01f4 00 00 00 00             		.long	_INT_Excep_MTU2_TGIA2
 2101 01f8 00 00 00 00             		.long	_INT_Excep_MTU2_TGIB2
 2102 01fc 00 00 00 00             		.long	_INT_Excep_MTU2_TCIV2
 2103 0200 00 00 00 00             		.long	_INT_Excep_MTU2_TCIU2
 2104 0204 00 00 00 00             		.long	_INT_Excep_MTU3_TGIA3
 2105 0208 00 00 00 00             		.long	_INT_Excep_MTU3_TGIB3
 2106 020c 00 00 00 00             		.long	_INT_Excep_MTU3_TGIC3
 2107 0210 00 00 00 00             		.long	_INT_Excep_MTU3_TGID3
 2108 0214 00 00 00 00             		.long	_INT_Excep_MTU3_TCIV3
 2109 0218 00 00 00 00             		.long	_INT_Excep_MTU4_TGIA4
 2110 021c 00 00 00 00             		.long	_INT_Excep_MTU4_TGIB4
 2111 0220 00 00 00 00             		.long	_INT_Excep_MTU4_TGIC4
 2112 0224 00 00 00 00             		.long	_INT_Excep_MTU4_TGID4
 2113 0228 00 00 00 00             		.long	_INT_Excep_MTU4_TCIV4
 2114 022c 00 00 00 00             		.long	_INT_Excep_MTU5_TGIU5
 2115 0230 00 00 00 00             		.long	_INT_Excep_MTU5_TGIV5
 2116 0234 00 00 00 00             		.long	_INT_Excep_MTU5_TGIW5
 2117 0238 FF FF FF FF             		.long	-1
 2118 023c FF FF FF FF             		.long	-1
 2119 0240 FF FF FF FF             		.long	-1
 2120 0244 FF FF FF FF             		.long	-1
 2121 0248 FF FF FF FF             		.long	-1
 2122 024c FF FF FF FF             		.long	-1
 2123 0250 FF FF FF FF             		.long	-1
 2124 0254 FF FF FF FF             		.long	-1
 2125 0258 FF FF FF FF             		.long	-1
 2126 025c FF FF FF FF             		.long	-1
 2127 0260 FF FF FF FF             		.long	-1
 2128 0264 FF FF FF FF             		.long	-1
 2129 0268 FF FF FF FF             		.long	-1
 2130 026c FF FF FF FF             		.long	-1
 2131 0270 FF FF FF FF             		.long	-1
 2132 0274 FF FF FF FF             		.long	-1
 2133 0278 FF FF FF FF             		.long	-1
 2134 027c FF FF FF FF             		.long	-1
 2135 0280 FF FF FF FF             		.long	-1
 2136 0284 FF FF FF FF             		.long	-1
 2137 0288 FF FF FF FF             		.long	-1
 2138 028c FF FF FF FF             		.long	-1
 2139 0290 FF FF FF FF             		.long	-1
 2140 0294 FF FF FF FF             		.long	-1
 2141 0298 FF FF FF FF             		.long	-1
 2142 029c FF FF FF FF             		.long	-1
 2143 02a0 FF FF FF FF             		.long	-1
 2144 02a4 FF FF FF FF             		.long	-1
 2145 02a8 00 00 00 00             		.long	_INT_Excep_OEI1
 2146 02ac 00 00 00 00             		.long	_INT_Excep_OEI2
 2147 02b0 FF FF FF FF             		.long	-1
 2148 02b4 FF FF FF FF             		.long	-1
 2149 02b8 00 00 00 00             		.long	_OS_ISR_Tick
 2150 02bc 00 00 00 00             		.long	__OS_SystemAlarmHandler
 2151 02c0 00 00 00 00             		.long	_INT_Excep_TMR0_OV0I
 2152 02c4 00 00 00 00             		.long	_INT_Excep_TMR1_CMI1A
 2153 02c8 00 00 00 00             		.long	_INT_Excep_TMR1_CMI1B
 2154 02cc 00 00 00 00             		.long	_INT_Excep_TMR1_OV1I
 2155 02d0 00 00 00 00             		.long	_INT_Excep_TMR2_CMI2A
 2156 02d4 00 00 00 00             		.long	_INT_Excep_TMR2_CMI2B
 2157 02d8 00 00 00 00             		.long	_INT_Excep_TMR2_OV2I
 2158 02dc 00 00 00 00             		.long	_INT_Excep_TMR3_CMI3A
 2159 02e0 00 00 00 00             		.long	_INT_Excep_TMR3_CMI3B
 2160 02e4 00 00 00 00             		.long	_INT_Excep_TMR3_OV3I
 2161 02e8 FF FF FF FF             		.long	-1
 2162 02ec FF FF FF FF             		.long	-1
 2163 02f0 FF FF FF FF             		.long	-1
 2164 02f4 FF FF FF FF             		.long	-1
 2165 02f8 FF FF FF FF             		.long	-1
 2166 02fc FF FF FF FF             		.long	-1
 2167 0300 FF FF FF FF             		.long	-1
 2168 0304 FF FF FF FF             		.long	-1
 2169 0308 FF FF FF FF             		.long	-1
 2170 030c FF FF FF FF             		.long	-1
 2171 0310 FF FF FF FF             		.long	-1
 2172 0314 FF FF FF FF             		.long	-1
 2173 0318 00 00 00 00             		.long	_INT_Excep_DMAC_DMTEND0
 2174 031c 00 00 00 00             		.long	_INT_Excep_DMAC_DMTEND1
 2175 0320 00 00 00 00             		.long	_INT_Excep_DMAC_DMTEND2
 2176 0324 00 00 00 00             		.long	_INT_Excep_DMAC_DMTEND3
 2177 0328 FF FF FF FF             		.long	-1
 2178 032c FF FF FF FF             		.long	-1
 2179 0330 FF FF FF FF             		.long	-1
 2180 0334 FF FF FF FF             		.long	-1
 2181 0338 FF FF FF FF             		.long	-1
 2182 033c FF FF FF FF             		.long	-1
 2183 0340 FF FF FF FF             		.long	-1
 2184 0344 FF FF FF FF             		.long	-1
 2185 0348 FF FF FF FF             		.long	-1
 2186 034c FF FF FF FF             		.long	-1
 2187 0350 FF FF FF FF             		.long	-1
 2188 0354 FF FF FF FF             		.long	-1
 2189 0358 00 00 00 00             		.long	_INT_Excep_SCI0_ERI0
 2190 035c 00 00 00 00             		.long	_INT_Excep_SCI0_RXI0
 2191 0360 00 00 00 00             		.long	_INT_Excep_SCI0_TXI0
 2192 0364 00 00 00 00             		.long	_INT_Excep_SCI0_TEI0
 2193 0368 00 00 00 00             		.long	_INT_Excep_SCI1_ERI1
 2194 036c 00 00 00 00             		.long	_INT_Excep_SCI1_RXI1
 2195 0370 00 00 00 00             		.long	_INT_Excep_SCI1_TXI1
 2196 0374 00 00 00 00             		.long	_INT_Excep_SCI1_TEI1
 2197 0378 00 00 00 00             		.long	_INT_Excep_SCI5_ERI5
 2198 037c 00 00 00 00             		.long	_INT_Excep_SCI5_RXI5
 2199 0380 00 00 00 00             		.long	_INT_Excep_SCI5_TXI5
 2200 0384 00 00 00 00             		.long	_INT_Excep_SCI5_TEI5
 2201 0388 00 00 00 00             		.long	_INT_Excep_SCI6_ERI6
 2202 038c 00 00 00 00             		.long	_INT_Excep_SCI6_RXI6
 2203 0390 00 00 00 00             		.long	_INT_Excep_SCI6_TXI6
 2204 0394 00 00 00 00             		.long	_INT_Excep_SCI6_TEI6
 2205 0398 00 00 00 00             		.long	_INT_Excep_SCI8_ERI8
 2206 039c 00 00 00 00             		.long	_INT_Excep_SCI8_RXI8
 2207 03a0 00 00 00 00             		.long	_INT_Excep_SCI8_TXI8
 2208 03a4 00 00 00 00             		.long	_INT_Excep_SCI8_TEI8
 2209 03a8 00 00 00 00             		.long	_INT_Excep_SCI9_ERI9
 2210 03ac 00 00 00 00             		.long	_INT_Excep_SCI9_RXI9
 2211 03b0 00 00 00 00             		.long	_INT_Excep_SCI9_TXI9
 2212 03b4 00 00 00 00             		.long	_INT_Excep_SCI9_TEI9
 2213 03b8 00 00 00 00             		.long	_INT_Excep_SCI12_ERI12
 2214 03bc 00 00 00 00             		.long	_INT_Excep_SCI12_RXI12
 2215 03c0 00 00 00 00             		.long	_INT_Excep_SCI12_TXI12
 2216 03c4 00 00 00 00             		.long	_INT_Excep_SCI12_TEI12
 2217 03c8 00 00 00 00             		.long	_INT_Excep_SCIX0
 2218 03cc 00 00 00 00             		.long	_INT_Excep_SCIX1
 2219 03d0 00 00 00 00             		.long	_INT_Excep_SCIX2
 2220 03d4 00 00 00 00             		.long	_INT_Excep_SCIX3
 2221 03d8 00 00 00 00             		.long	_IIC0_Error_ISR
 2222 03dc 00 00 00 00             		.long	_IIC0_RX_ISR
 2223 03e0 00 00 00 00             		.long	_IIC0_TX_ISR
 2224 03e4 00 00 00 00             		.long	_IIC0_TX_END_ISR
 2225 03e8 FF FF FF FF             		.long	-1
 2226 03ec FF FF FF FF             		.long	-1
 2227 03f0 FF FF FF FF             		.long	-1
 2228 03f4 FF FF FF FF             		.long	-1
 2229 03f8 FF FF FF FF             		.long	-1
 2230 03fc FF FF FF FF             		.long	-1
 2231                             		.global	_RealHardwareVectors
 2232                             		.section	.EndianSelect,"a",@progbits
 2233                             		.balign 4
 2236                             	_RealHardwareVectors:
 2237 0000 FF FF FF F8             		.long	-8
 2238 0004 FF FF FF FF             		.long	-1
 2239 0008 FF FF FF FF             		.long	-1
 2240 000c FF FF FF FF             		.long	-1
 2241 0010 FF FF FF FF             		.long	-1
 2242 0014 FF FF FF FF             		.long	-1
 2243 0018 FF FF FF FF             		.long	-1
 2244 001c FF FF FF FF             		.long	-1
 2245 0020 FF FF FF FF             		.long	-1
 2246 0024 FF FF FF FF             		.long	-1
 2247 0028 FF FF FF FF             		.long	-1
 2248 002c FF FF FF FF             		.long	-1
 2249 0030 FF FF FF FF             		.long	-1
 2250 0034 FF FF FF FF             		.long	-1
 2251 0038 FF FF FF FF             		.long	-1
 2252 003c FF FF FF FF             		.long	-1
 2253 0040 FF FF FF FF             		.long	-1
 2254 0044 FF FF FF FF             		.long	-1
 2255 0048 FF FF FF FF             		.long	-1
 2256 004c FF FF FF FF             		.long	-1
 2257 0050 00 00 00 00             		.long	_INT_Excep_SuperVisorInst
 2258 0054 FF FF FF FF             		.long	-1
 2259 0058 FF FF FF FF             		.long	-1
 2260 005c 00 00 00 00             		.long	_INT_Excep_UndefinedInst
 2261 0060 FF FF FF FF             		.long	-1
 2262 0064 00 00 00 00             		.long	_INT_Excep_FloatingPoint
 2263 0068 FF FF FF FF             		.long	-1
 2264 006c FF FF FF FF             		.long	-1
 2265 0070 FF FF FF FF             		.long	-1
 2266 0074 FF FF FF FF             		.long	-1
 2267 0078 00 00 00 00             		.long	_INT_NonMaskableInterrupt
 2268 007c 00 00 00 00             		.long	_PowerON_Reset
 2269                             		.global	_HardwareVectors
 2270                             		.section	.fvectors,"a",@progbits
 2271                             		.balign 4
 2274                             	_HardwareVectors:
 2275 0000 FF FF FF F8             		.long	-8
 2276 0004 FF FF FF FF             		.long	-1
 2277 0008 FF FF FF FF             		.long	-1
 2278 000c FF FF FF FF             		.long	-1
 2279 0010 FF FF FF FF             		.long	-1
 2280 0014 FF FF FF FF             		.long	-1
 2281 0018 FF FF FF FF             		.long	-1
 2282 001c FF FF FF FF             		.long	-1
 2283 0020 FF FF FF FF             		.long	-1
 2284 0024 FF FF FF FF             		.long	-1
 2285 0028 FF FF FF FF             		.long	-1
 2286 002c FF FF FF FF             		.long	-1
 2287 0030 FF FF FF FF             		.long	-1
 2288 0034 FF FF FF FF             		.long	-1
 2289 0038 FF FF FF FF             		.long	-1
 2290 003c FF FF FF FF             		.long	-1
 2291 0040 FF FF FF FF             		.long	-1
 2292 0044 FF FF FF FF             		.long	-1
 2293 0048 FF FF FF FF             		.long	-1
 2294 004c FF FF FF FF             		.long	-1
 2295 0050 00 00 00 00             		.long	_INT_Excep_SuperVisorInst
 2296 0054 FF FF FF FF             		.long	-1
 2297 0058 FF FF FF FF             		.long	-1
 2298 005c 00 00 00 00             		.long	_INT_Excep_UndefinedInst
 2299 0060 FF FF FF FF             		.long	-1
 2300 0064 00 00 00 00             		.long	_INT_Excep_FloatingPoint
 2301 0068 FF FF FF FF             		.long	-1
 2302 006c FF FF FF FF             		.long	-1
 2303 0070 FF FF FF FF             		.long	-1
 2304 0074 FF FF FF FF             		.long	-1
 2305 0078 00 00 00 00             		.long	_INT_NonMaskableInterrupt
 2306 007c 00 00 00 00             		.long	_PowerON_Reset
 2307                             		.global	_IllegalException
 2308                             		.section	.bss.IllegalException,"aw",@nobits
 2309                             		.balign 4
 2312                             	_IllegalException:
 2313 0000 00 00 00 00             		.zero	4
 7464                             	.Letext0:
 7465                             		.file 2 "C:\\Workspace\\FW_Platform2_5\\trunk\\HAL\\HAL_General/StandardTypes.h"
 7466                             		.file 3 "C:\\Workspace\\FW_Platform2_5\\trunk\\PlatformLibrary\\LIB_Error/LIB_Error.h"
