   1                             		.file	"APP_Interpreter.c"
   2                             		.section P,"ax"
   3                             	.Ltext0:
   4                             		.section	.text.ITP_interpreterFlagsInit,"ax",@progbits
   5                             		.global	_ITP_interpreterFlagsInit
   7                             	_ITP_interpreterFlagsInit:
   8                             	.LFB1:
   9                             		.file 1 "C:/Workspace/FW_Inertia/branch_indesit/Application_Platform/APP_Interpreter.c"
   1:C:/Workspace/FW_Inertia/branch_indesit/Application_Platform\APP_Interpreter.c **** /**
   2:C:/Workspace/FW_Inertia/branch_indesit/Application_Platform\APP_Interpreter.c **** \defgroup	APP_Interpreter Modulo Interprete
   3:C:/Workspace/FW_Inertia/branch_indesit/Application_Platform\APP_Interpreter.c **** \ingroup	ApplPlatform
   4:C:/Workspace/FW_Inertia/branch_indesit/Application_Platform\APP_Interpreter.c **** 
   5:C:/Workspace/FW_Inertia/branch_indesit/Application_Platform\APP_Interpreter.c **** Il modulo processa l'esecuzione dei microprogrammi per i cicli scritti
   6:C:/Workspace/FW_Inertia/branch_indesit/Application_Platform\APP_Interpreter.c **** nel file di setting.
   7:C:/Workspace/FW_Inertia/branch_indesit/Application_Platform\APP_Interpreter.c **** */
   8:C:/Workspace/FW_Inertia/branch_indesit/Application_Platform\APP_Interpreter.c **** 
   9:C:/Workspace/FW_Inertia/branch_indesit/Application_Platform\APP_Interpreter.c **** /**
  10:C:/Workspace/FW_Inertia/branch_indesit/Application_Platform\APP_Interpreter.c **** Source file del modulo Interprete
  11:C:/Workspace/FW_Inertia/branch_indesit/Application_Platform\APP_Interpreter.c **** 
  12:C:/Workspace/FW_Inertia/branch_indesit/Application_Platform\APP_Interpreter.c **** \file		APP_Interpreter.c
  13:C:/Workspace/FW_Inertia/branch_indesit/Application_Platform\APP_Interpreter.c **** \ingroup	APP_Interpreter
  14:C:/Workspace/FW_Inertia/branch_indesit/Application_Platform\APP_Interpreter.c **** \date		23/07/2008
  15:C:/Workspace/FW_Inertia/branch_indesit/Application_Platform\APP_Interpreter.c **** \version	01.00.00
  16:C:/Workspace/FW_Inertia/branch_indesit/Application_Platform\APP_Interpreter.c **** \author		Valeria Catani, Simone Costantini, Stefano Ughi, Marco Quintini
  17:C:/Workspace/FW_Inertia/branch_indesit/Application_Platform\APP_Interpreter.c **** 
  18:C:/Workspace/FW_Inertia/branch_indesit/Application_Platform\APP_Interpreter.c **** \par		History
  19:C:/Workspace/FW_Inertia/branch_indesit/Application_Platform\APP_Interpreter.c **** 
  20:C:/Workspace/FW_Inertia/branch_indesit/Application_Platform\APP_Interpreter.c **** \par		PCLint
  21:C:/Workspace/FW_Inertia/branch_indesit/Application_Platform\APP_Interpreter.c **** 			Report 16/01/2009: 0 Errors, 0 Warnings, 0 Info
  22:C:/Workspace/FW_Inertia/branch_indesit/Application_Platform\APP_Interpreter.c **** 
  23:C:/Workspace/FW_Inertia/branch_indesit/Application_Platform\APP_Interpreter.c **** */
  24:C:/Workspace/FW_Inertia/branch_indesit/Application_Platform\APP_Interpreter.c **** 
  25:C:/Workspace/FW_Inertia/branch_indesit/Application_Platform\APP_Interpreter.c **** /*
  26:C:/Workspace/FW_Inertia/branch_indesit/Application_Platform\APP_Interpreter.c **** Copyright (c) 2004-2007, Indesit Company, EDT.
  27:C:/Workspace/FW_Inertia/branch_indesit/Application_Platform\APP_Interpreter.c **** Tutti i diritti sono riservati. All rights reserved.
  28:C:/Workspace/FW_Inertia/branch_indesit/Application_Platform\APP_Interpreter.c **** */
  29:C:/Workspace/FW_Inertia/branch_indesit/Application_Platform\APP_Interpreter.c **** 
  30:C:/Workspace/FW_Inertia/branch_indesit/Application_Platform\APP_Interpreter.c **** /* ******** */
  31:C:/Workspace/FW_Inertia/branch_indesit/Application_Platform\APP_Interpreter.c **** /* Includes */
  32:C:/Workspace/FW_Inertia/branch_indesit/Application_Platform\APP_Interpreter.c **** /* ******** */
  33:C:/Workspace/FW_Inertia/branch_indesit/Application_Platform\APP_Interpreter.c **** #include "CstmHeaders.h"
  34:C:/Workspace/FW_Inertia/branch_indesit/Application_Platform\APP_Interpreter.c **** 
  35:C:/Workspace/FW_Inertia/branch_indesit/Application_Platform\APP_Interpreter.c **** /* ****************** */
  36:C:/Workspace/FW_Inertia/branch_indesit/Application_Platform\APP_Interpreter.c **** /* Defines and Macros */
  37:C:/Workspace/FW_Inertia/branch_indesit/Application_Platform\APP_Interpreter.c **** /* ****************** */
  38:C:/Workspace/FW_Inertia/branch_indesit/Application_Platform\APP_Interpreter.c **** /**
  39:C:/Workspace/FW_Inertia/branch_indesit/Application_Platform\APP_Interpreter.c **** \name Posizione bit interruzione flusso interprete (per JumpIf o Reset)
  40:C:/Workspace/FW_Inertia/branch_indesit/Application_Platform\APP_Interpreter.c **** */
  41:C:/Workspace/FW_Inertia/branch_indesit/Application_Platform\APP_Interpreter.c **** /*@{*/ 
  42:C:/Workspace/FW_Inertia/branch_indesit/Application_Platform\APP_Interpreter.c **** #define B_JUMPIF_FLAG		0	/**< Bit interruzione per JumpIf */
  43:C:/Workspace/FW_Inertia/branch_indesit/Application_Platform\APP_Interpreter.c **** #define B_RESET_FLAG		1	/**< Bit interruzione per Reset */
  44:C:/Workspace/FW_Inertia/branch_indesit/Application_Platform\APP_Interpreter.c **** #if ( ITP_JIF_RET_ENABLE == 1 )
  45:C:/Workspace/FW_Inertia/branch_indesit/Application_Platform\APP_Interpreter.c **** 	#define B_RETURN_FLAG   2	/**< Bit Return JumpIF */
  46:C:/Workspace/FW_Inertia/branch_indesit/Application_Platform\APP_Interpreter.c **** #endif /* ( ITP_JIF_RET_ENABLE == 1 ) */
  47:C:/Workspace/FW_Inertia/branch_indesit/Application_Platform\APP_Interpreter.c **** 
  48:C:/Workspace/FW_Inertia/branch_indesit/Application_Platform\APP_Interpreter.c **** #if (ITP_UI_PHASE_TRAKER_ENABLE == 1)
  49:C:/Workspace/FW_Inertia/branch_indesit/Application_Platform\APP_Interpreter.c **** /* Posizione nel buffer dei dati di backup UI del ciclo corrente*/
  50:C:/Workspace/FW_Inertia/branch_indesit/Application_Platform\APP_Interpreter.c **** 	#define ITP_CYCLE_ACTIVE_POS		4
  51:C:/Workspace/FW_Inertia/branch_indesit/Application_Platform\APP_Interpreter.c **** #endif /* (ITP_UI_PHASE_TRAKER_ENABLE == 1) */
  52:C:/Workspace/FW_Inertia/branch_indesit/Application_Platform\APP_Interpreter.c **** 
  53:C:/Workspace/FW_Inertia/branch_indesit/Application_Platform\APP_Interpreter.c **** /*@}*/ 
  54:C:/Workspace/FW_Inertia/branch_indesit/Application_Platform\APP_Interpreter.c **** 
  55:C:/Workspace/FW_Inertia/branch_indesit/Application_Platform\APP_Interpreter.c **** /* *************************** */
  56:C:/Workspace/FW_Inertia/branch_indesit/Application_Platform\APP_Interpreter.c **** /* Typedef, Structs and Unions */
  57:C:/Workspace/FW_Inertia/branch_indesit/Application_Platform\APP_Interpreter.c **** /* *************************** */
  58:C:/Workspace/FW_Inertia/branch_indesit/Application_Platform\APP_Interpreter.c **** 
  59:C:/Workspace/FW_Inertia/branch_indesit/Application_Platform\APP_Interpreter.c **** /* **************************** */
  60:C:/Workspace/FW_Inertia/branch_indesit/Application_Platform\APP_Interpreter.c **** /* Prototype of local functions */
  61:C:/Workspace/FW_Inertia/branch_indesit/Application_Platform\APP_Interpreter.c **** /* **************************** */
  62:C:/Workspace/FW_Inertia/branch_indesit/Application_Platform\APP_Interpreter.c **** #if ( ITP_JIF_RET_ENABLE == 1 )
  63:C:/Workspace/FW_Inertia/branch_indesit/Application_Platform\APP_Interpreter.c **** uint8_t ITP_saveReturnPoint(uint8_t compartment);
  64:C:/Workspace/FW_Inertia/branch_indesit/Application_Platform\APP_Interpreter.c **** uint8_t ITP_getReturnPoint(uint8_t compartment);
  65:C:/Workspace/FW_Inertia/branch_indesit/Application_Platform\APP_Interpreter.c **** #endif /* ( ITP_JIF_RET_ENABLE == 1 ) */
  66:C:/Workspace/FW_Inertia/branch_indesit/Application_Platform\APP_Interpreter.c **** 
  67:C:/Workspace/FW_Inertia/branch_indesit/Application_Platform\APP_Interpreter.c **** /* ****************** */
  68:C:/Workspace/FW_Inertia/branch_indesit/Application_Platform\APP_Interpreter.c **** /* Exported variables */
  69:C:/Workspace/FW_Inertia/branch_indesit/Application_Platform\APP_Interpreter.c **** /* ****************** */
  70:C:/Workspace/FW_Inertia/branch_indesit/Application_Platform\APP_Interpreter.c **** 
  71:C:/Workspace/FW_Inertia/branch_indesit/Application_Platform\APP_Interpreter.c **** /* **************** */
  72:C:/Workspace/FW_Inertia/branch_indesit/Application_Platform\APP_Interpreter.c **** /* Global variables */
  73:C:/Workspace/FW_Inertia/branch_indesit/Application_Platform\APP_Interpreter.c **** /* **************** */
  74:C:/Workspace/FW_Inertia/branch_indesit/Application_Platform\APP_Interpreter.c **** 
  75:C:/Workspace/FW_Inertia/branch_indesit/Application_Platform\APP_Interpreter.c **** #if (ITP_UI_PHASE_TRAKER_ENABLE == 1)
  76:C:/Workspace/FW_Inertia/branch_indesit/Application_Platform\APP_Interpreter.c **** 
  77:C:/Workspace/FW_Inertia/branch_indesit/Application_Platform\APP_Interpreter.c **** 	const uint8_t Tab_phase2byte[] = {
  78:C:/Workspace/FW_Inertia/branch_indesit/Application_Platform\APP_Interpreter.c **** 	/*0*/ 1,	/* Phase: 0..7 */
  79:C:/Workspace/FW_Inertia/branch_indesit/Application_Platform\APP_Interpreter.c **** 	/*1*/ 0,	/* Phase: 8..15 */
  80:C:/Workspace/FW_Inertia/branch_indesit/Application_Platform\APP_Interpreter.c **** 	/*2*/ 3,	/* Phase: 16..23 */
  81:C:/Workspace/FW_Inertia/branch_indesit/Application_Platform\APP_Interpreter.c **** 	/*3*/ 2,	/* Phase: 24..31 */
  82:C:/Workspace/FW_Inertia/branch_indesit/Application_Platform\APP_Interpreter.c **** 	/*4*/ 7,	/* Phase: 32..39 */
  83:C:/Workspace/FW_Inertia/branch_indesit/Application_Platform\APP_Interpreter.c **** 	/*5*/ 6,	/* Phase: 40..47 */
  84:C:/Workspace/FW_Inertia/branch_indesit/Application_Platform\APP_Interpreter.c **** 	/*6*/ 9,	/* Phase: 48..55 */
  85:C:/Workspace/FW_Inertia/branch_indesit/Application_Platform\APP_Interpreter.c **** 	/*7*/ 8,	/* Phase: 56..63 */
  86:C:/Workspace/FW_Inertia/branch_indesit/Application_Platform\APP_Interpreter.c **** 	};
  87:C:/Workspace/FW_Inertia/branch_indesit/Application_Platform\APP_Interpreter.c **** 
  88:C:/Workspace/FW_Inertia/branch_indesit/Application_Platform\APP_Interpreter.c **** #endif /* (ITP_UI_PHASE_TRAKER_ENABLE == 1) */
  89:C:/Workspace/FW_Inertia/branch_indesit/Application_Platform\APP_Interpreter.c **** 
  90:C:/Workspace/FW_Inertia/branch_indesit/Application_Platform\APP_Interpreter.c **** /** Struttura per il caricamento dei dati della fase corrente */
  91:C:/Workspace/FW_Inertia/branch_indesit/Application_Platform\APP_Interpreter.c **** static PhaseLoader_Struct TableData[APP_N_COMP];
  92:C:/Workspace/FW_Inertia/branch_indesit/Application_Platform\APP_Interpreter.c **** /** Puntatore agli High Statement per il passo corrente */
  93:C:/Workspace/FW_Inertia/branch_indesit/Application_Platform\APP_Interpreter.c **** static uint8_t *pStepHigh[APP_N_COMP];
  94:C:/Workspace/FW_Inertia/branch_indesit/Application_Platform\APP_Interpreter.c **** /** Puntatore ai Low Statement per il passo corrente */
  95:C:/Workspace/FW_Inertia/branch_indesit/Application_Platform\APP_Interpreter.c **** static uint8_t *pStepLow[APP_N_COMP];
  96:C:/Workspace/FW_Inertia/branch_indesit/Application_Platform\APP_Interpreter.c **** 
  97:C:/Workspace/FW_Inertia/branch_indesit/Application_Platform\APP_Interpreter.c **** #if (ITP_JIF_RET_ENABLE == 1)
  98:C:/Workspace/FW_Inertia/branch_indesit/Application_Platform\APP_Interpreter.c **** /** Variabile lunghezza passo corrente */
  99:C:/Workspace/FW_Inertia/branch_indesit/Application_Platform\APP_Interpreter.c **** static uint8_t StepLength[APP_N_COMP];
 100:C:/Workspace/FW_Inertia/branch_indesit/Application_Platform\APP_Interpreter.c **** #endif /* (ITP_JIF_RET_ENABLE == 1) */
 101:C:/Workspace/FW_Inertia/branch_indesit/Application_Platform\APP_Interpreter.c **** 
 102:C:/Workspace/FW_Inertia/branch_indesit/Application_Platform\APP_Interpreter.c **** /** Buffer delle funzioni che implementano i vari microprogrammi (definito in CstmGlobal.c)*/
 103:C:/Workspace/FW_Inertia/branch_indesit/Application_Platform\APP_Interpreter.c **** extern const MICROPROG Microprog_array[N_MAX_MICROPROG];
 104:C:/Workspace/FW_Inertia/branch_indesit/Application_Platform\APP_Interpreter.c **** 
 105:C:/Workspace/FW_Inertia/branch_indesit/Application_Platform\APP_Interpreter.c **** /* ***************** */
 106:C:/Workspace/FW_Inertia/branch_indesit/Application_Platform\APP_Interpreter.c **** /* Exported function */
 107:C:/Workspace/FW_Inertia/branch_indesit/Application_Platform\APP_Interpreter.c **** /* ***************** */
 108:C:/Workspace/FW_Inertia/branch_indesit/Application_Platform\APP_Interpreter.c **** 
 109:C:/Workspace/FW_Inertia/branch_indesit/Application_Platform\APP_Interpreter.c **** /**
 110:C:/Workspace/FW_Inertia/branch_indesit/Application_Platform\APP_Interpreter.c **** E' il cuore dell'applicazione: gestisce il flusso e l'esecuzione dei microprogrammi.
 111:C:/Workspace/FW_Inertia/branch_indesit/Application_Platform\APP_Interpreter.c **** 
 112:C:/Workspace/FW_Inertia/branch_indesit/Application_Platform\APP_Interpreter.c **** \param [in]		compartment e' il vano di cui si esegue l'interprete ( se MULTI_COMPARTMENT_APPL == 1 
 113:C:/Workspace/FW_Inertia/branch_indesit/Application_Platform\APP_Interpreter.c **** \attention		Interpreter_Data (global, struttura con i dati sullo stato
 114:C:/Workspace/FW_Inertia/branch_indesit/Application_Platform\APP_Interpreter.c **** 				corrente dell'interprete) e' usata come input/output
 115:C:/Workspace/FW_Inertia/branch_indesit/Application_Platform\APP_Interpreter.c **** 
 116:C:/Workspace/FW_Inertia/branch_indesit/Application_Platform\APP_Interpreter.c **** \attention		TableData (global, struttura per il caricamento dei dati della
 117:C:/Workspace/FW_Inertia/branch_indesit/Application_Platform\APP_Interpreter.c **** 				fase corrente) e' usata come input/output
 118:C:/Workspace/FW_Inertia/branch_indesit/Application_Platform\APP_Interpreter.c **** \attention		pStepHigh (global, puntatore agli High Statement per il passo
 119:C:/Workspace/FW_Inertia/branch_indesit/Application_Platform\APP_Interpreter.c **** 				corrente) e' usata come input/output
 120:C:/Workspace/FW_Inertia/branch_indesit/Application_Platform\APP_Interpreter.c **** \attention		pStepLow (global, puntatore ai Low Statement per il passo
 121:C:/Workspace/FW_Inertia/branch_indesit/Application_Platform\APP_Interpreter.c **** 				corrente) e' usata come input/output
 122:C:/Workspace/FW_Inertia/branch_indesit/Application_Platform\APP_Interpreter.c **** \attention		Microprog_array (global, buffer delle funzioni che implementano
 123:C:/Workspace/FW_Inertia/branch_indesit/Application_Platform\APP_Interpreter.c **** 				i vari microprogrammi) e' usata come input
 124:C:/Workspace/FW_Inertia/branch_indesit/Application_Platform\APP_Interpreter.c **** \attention		Table_JumpIf (global, buffer tabelle destinazione Jump If per i
 125:C:/Workspace/FW_Inertia/branch_indesit/Application_Platform\APP_Interpreter.c **** 				diversi vani) e' usata come input
 126:C:/Workspace/FW_Inertia/branch_indesit/Application_Platform\APP_Interpreter.c **** 
 127:C:/Workspace/FW_Inertia/branch_indesit/Application_Platform\APP_Interpreter.c **** \return			un codice che specifica lo stato di esecuzione del passo/fase/ciclo o
 128:C:/Workspace/FW_Inertia/branch_indesit/Application_Platform\APP_Interpreter.c **** 				eventualmente l'errore incontrato
 129:C:/Workspace/FW_Inertia/branch_indesit/Application_Platform\APP_Interpreter.c **** 
 130:C:/Workspace/FW_Inertia/branch_indesit/Application_Platform\APP_Interpreter.c **** \warning		none		
 131:C:/Workspace/FW_Inertia/branch_indesit/Application_Platform\APP_Interpreter.c **** 
 132:C:/Workspace/FW_Inertia/branch_indesit/Application_Platform\APP_Interpreter.c **** \version		1.1.0
 133:C:/Workspace/FW_Inertia/branch_indesit/Application_Platform\APP_Interpreter.c **** \date			06/03/2008
 134:C:/Workspace/FW_Inertia/branch_indesit/Application_Platform\APP_Interpreter.c **** \author			Valeria Catani - Marco Quintini
 135:C:/Workspace/FW_Inertia/branch_indesit/Application_Platform\APP_Interpreter.c **** */
 136:C:/Workspace/FW_Inertia/branch_indesit/Application_Platform\APP_Interpreter.c **** 
 137:C:/Workspace/FW_Inertia/branch_indesit/Application_Platform\APP_Interpreter.c **** /*lint -save -e946 */ /* Suppress messages about operation on pointers for ITP_programFlowInterpret
 138:C:/Workspace/FW_Inertia/branch_indesit/Application_Platform\APP_Interpreter.c **** 
 139:C:/Workspace/FW_Inertia/branch_indesit/Application_Platform\APP_Interpreter.c **** #if (MULTI_COMPARTMENT_APPL == 1)	
 140:C:/Workspace/FW_Inertia/branch_indesit/Application_Platform\APP_Interpreter.c ****   uint8_t ITP_programFlowInterpreter(uint8_t compartment)
 141:C:/Workspace/FW_Inertia/branch_indesit/Application_Platform\APP_Interpreter.c **** #else
 142:C:/Workspace/FW_Inertia/branch_indesit/Application_Platform\APP_Interpreter.c ****   uint8_t ITP_programFlowInterpreter(void)
 143:C:/Workspace/FW_Inertia/branch_indesit/Application_Platform\APP_Interpreter.c **** #endif /* (MULTI_COMPARTMENT_APPL == 1) */
 144:C:/Workspace/FW_Inertia/branch_indesit/Application_Platform\APP_Interpreter.c **** {
 145:C:/Workspace/FW_Inertia/branch_indesit/Application_Platform\APP_Interpreter.c **** uint8_t phLoader_Result;
 146:C:/Workspace/FW_Inertia/branch_indesit/Application_Platform\APP_Interpreter.c **** uint8_t *pTempHighStat, *pTempLowStat;
 147:C:/Workspace/FW_Inertia/branch_indesit/Application_Platform\APP_Interpreter.c **** uint8_t *pEndPhaseHighStat;
 148:C:/Workspace/FW_Inertia/branch_indesit/Application_Platform\APP_Interpreter.c **** uint8_t T_Flag, phaseFlags, newStep;
 149:C:/Workspace/FW_Inertia/branch_indesit/Application_Platform\APP_Interpreter.c **** uint8_t opCode, completeOpcode;
 150:C:/Workspace/FW_Inertia/branch_indesit/Application_Platform\APP_Interpreter.c **** uint8_t resultStm = S_FALSE;
 151:C:/Workspace/FW_Inertia/branch_indesit/Application_Platform\APP_Interpreter.c **** 
 152:C:/Workspace/FW_Inertia/branch_indesit/Application_Platform\APP_Interpreter.c **** #if (MULTI_COMPARTMENT_APPL == 0)
 153:C:/Workspace/FW_Inertia/branch_indesit/Application_Platform\APP_Interpreter.c ****   uint8_t compartment = 0;
 154:C:/Workspace/FW_Inertia/branch_indesit/Application_Platform\APP_Interpreter.c **** #endif /* (MULTI_COMPARTMENT_APPL == 0) */  	
 155:C:/Workspace/FW_Inertia/branch_indesit/Application_Platform\APP_Interpreter.c **** 
 156:C:/Workspace/FW_Inertia/branch_indesit/Application_Platform\APP_Interpreter.c **** #if (ITP_JIF_PHASE_ENABLE == 1)
 157:C:/Workspace/FW_Inertia/branch_indesit/Application_Platform\APP_Interpreter.c ****   uint8_t i;
 158:C:/Workspace/FW_Inertia/branch_indesit/Application_Platform\APP_Interpreter.c ****   bool_t jumpAlreadyIn;
 159:C:/Workspace/FW_Inertia/branch_indesit/Application_Platform\APP_Interpreter.c ****   JumpIfPhase_Struct *pCompJmpPhase = &JmpPhase[compartment];
 160:C:/Workspace/FW_Inertia/branch_indesit/Application_Platform\APP_Interpreter.c **** #endif  /* (ITP_JIF_PHASE_ENABLE == 1) */
 161:C:/Workspace/FW_Inertia/branch_indesit/Application_Platform\APP_Interpreter.c **** 
 162:C:/Workspace/FW_Inertia/branch_indesit/Application_Platform\APP_Interpreter.c **** PhaseLoader_Struct *pCompTableData = &TableData[compartment];
 163:C:/Workspace/FW_Inertia/branch_indesit/Application_Platform\APP_Interpreter.c **** Interpreter_Struct *pCompItpData = &Interpreter_Data[compartment];
 164:C:/Workspace/FW_Inertia/branch_indesit/Application_Platform\APP_Interpreter.c **** uint8_t **ppCompStepHigh = &pStepHigh[compartment];
 165:C:/Workspace/FW_Inertia/branch_indesit/Application_Platform\APP_Interpreter.c **** uint8_t **ppCompStepLow = &pStepLow[compartment];
 166:C:/Workspace/FW_Inertia/branch_indesit/Application_Platform\APP_Interpreter.c **** 
 167:C:/Workspace/FW_Inertia/branch_indesit/Application_Platform\APP_Interpreter.c **** #if (ITP_JIF_RET_ENABLE == 1) 
 168:C:/Workspace/FW_Inertia/branch_indesit/Application_Platform\APP_Interpreter.c **** RetPoint_Struct *pCompRetPoint = &ReturnPoint[compartment];
 169:C:/Workspace/FW_Inertia/branch_indesit/Application_Platform\APP_Interpreter.c **** #endif /* ITP_JIF_RET_ENABLE == 1 */
 170:C:/Workspace/FW_Inertia/branch_indesit/Application_Platform\APP_Interpreter.c **** 
 171:C:/Workspace/FW_Inertia/branch_indesit/Application_Platform\APP_Interpreter.c **** 	/* 
 172:C:/Workspace/FW_Inertia/branch_indesit/Application_Platform\APP_Interpreter.c **** 	---------------------------------------------------------------
 173:C:/Workspace/FW_Inertia/branch_indesit/Application_Platform\APP_Interpreter.c **** 		Caricamento dei dati della fase indicata dal Supervisor
 174:C:/Workspace/FW_Inertia/branch_indesit/Application_Platform\APP_Interpreter.c **** 	---------------------------------------------------------------
 175:C:/Workspace/FW_Inertia/branch_indesit/Application_Platform\APP_Interpreter.c **** 	 */
 176:C:/Workspace/FW_Inertia/branch_indesit/Application_Platform\APP_Interpreter.c **** 	/*lint -save -e912 */
 177:C:/Workspace/FW_Inertia/branch_indesit/Application_Platform\APP_Interpreter.c **** 	if( pCompItpData->phaseDataInitialized == 0)
 178:C:/Workspace/FW_Inertia/branch_indesit/Application_Platform\APP_Interpreter.c **** 	/*lint -restore */
 179:C:/Workspace/FW_Inertia/branch_indesit/Application_Platform\APP_Interpreter.c **** 	{ 
 180:C:/Workspace/FW_Inertia/branch_indesit/Application_Platform\APP_Interpreter.c **** 
 181:C:/Workspace/FW_Inertia/branch_indesit/Application_Platform\APP_Interpreter.c **** #if (ITP_JIF_PHASE_ENABLE == 1)
 182:C:/Workspace/FW_Inertia/branch_indesit/Application_Platform\APP_Interpreter.c ****     	
 183:C:/Workspace/FW_Inertia/branch_indesit/Application_Platform\APP_Interpreter.c **** 		/* Gestione JumpIF valido per fase in init */    	
 184:C:/Workspace/FW_Inertia/branch_indesit/Application_Platform\APP_Interpreter.c **** 		if( pCompItpData->jumpIF_phase_ctrl == 0 )
 185:C:/Workspace/FW_Inertia/branch_indesit/Application_Platform\APP_Interpreter.c **** 		{/*Reset condizioni JumpIF valide per fase*/ 
 186:C:/Workspace/FW_Inertia/branch_indesit/Application_Platform\APP_Interpreter.c **** 			for( i=0; i<MAX_NUM_JIF_PHASE; i++ )
 187:C:/Workspace/FW_Inertia/branch_indesit/Application_Platform\APP_Interpreter.c **** 			{	
 188:C:/Workspace/FW_Inertia/branch_indesit/Application_Platform\APP_Interpreter.c ****   				pCompJmpPhase->statements[i][0] = (0xFF - UP_JUMPIF);	
 189:C:/Workspace/FW_Inertia/branch_indesit/Application_Platform\APP_Interpreter.c **** 				pCompJmpPhase->statements[i][1] = 0xFF;			/* High Statement a 0xFF not possible !! */		
 190:C:/Workspace/FW_Inertia/branch_indesit/Application_Platform\APP_Interpreter.c **** 			}
 191:C:/Workspace/FW_Inertia/branch_indesit/Application_Platform\APP_Interpreter.c **** 			pCompJmpPhase->index = 0; 		 	
 192:C:/Workspace/FW_Inertia/branch_indesit/Application_Platform\APP_Interpreter.c **** 		}
 193:C:/Workspace/FW_Inertia/branch_indesit/Application_Platform\APP_Interpreter.c ****     	
 194:C:/Workspace/FW_Inertia/branch_indesit/Application_Platform\APP_Interpreter.c ****     	pCompItpData->jumpIF_phase_ctrl = 0;
 195:C:/Workspace/FW_Inertia/branch_indesit/Application_Platform\APP_Interpreter.c ****     	
 196:C:/Workspace/FW_Inertia/branch_indesit/Application_Platform\APP_Interpreter.c **** #endif /*INT_JIF_PHASE_ENABLE	*/
 197:C:/Workspace/FW_Inertia/branch_indesit/Application_Platform\APP_Interpreter.c **** 
 198:C:/Workspace/FW_Inertia/branch_indesit/Application_Platform\APP_Interpreter.c **** #if (MULTI_COMPARTMENT_APPL == 1)	
 199:C:/Workspace/FW_Inertia/branch_indesit/Application_Platform\APP_Interpreter.c **** 		phLoader_Result = LDR_phaseLoader(compartment, pCompItpData->cycle, pCompItpData->phase, pCompItp
 200:C:/Workspace/FW_Inertia/branch_indesit/Application_Platform\APP_Interpreter.c **** #else
 201:C:/Workspace/FW_Inertia/branch_indesit/Application_Platform\APP_Interpreter.c ****     phLoader_Result = LDR_phaseLoader(pCompItpData->cycle, pCompItpData->phase, pCompItpData->mSett
 202:C:/Workspace/FW_Inertia/branch_indesit/Application_Platform\APP_Interpreter.c **** #endif /* (MULTI_COMPARTMENT_APPL == 1) */    
 203:C:/Workspace/FW_Inertia/branch_indesit/Application_Platform\APP_Interpreter.c **** 
 204:C:/Workspace/FW_Inertia/branch_indesit/Application_Platform\APP_Interpreter.c **** 		if( phLoader_Result != S_OK )
 205:C:/Workspace/FW_Inertia/branch_indesit/Application_Platform\APP_Interpreter.c **** 		{
 206:C:/Workspace/FW_Inertia/branch_indesit/Application_Platform\APP_Interpreter.c **** #ifdef _ITP_CHECKERRORS_	
 207:C:/Workspace/FW_Inertia/branch_indesit/Application_Platform\APP_Interpreter.c **** 			DBG_CheckErr(phLoader_Result);
 208:C:/Workspace/FW_Inertia/branch_indesit/Application_Platform\APP_Interpreter.c **** #endif /* _ITP_CHECKERRORS_ */
 209:C:/Workspace/FW_Inertia/branch_indesit/Application_Platform\APP_Interpreter.c **** 
 210:C:/Workspace/FW_Inertia/branch_indesit/Application_Platform\APP_Interpreter.c **** 			return ITP_ERR_PHASE_LOADER;
 211:C:/Workspace/FW_Inertia/branch_indesit/Application_Platform\APP_Interpreter.c **** 		}
 212:C:/Workspace/FW_Inertia/branch_indesit/Application_Platform\APP_Interpreter.c **** 		
 213:C:/Workspace/FW_Inertia/branch_indesit/Application_Platform\APP_Interpreter.c **** 		/* Inizializzazione puntatori del passo corrente (con puntatori iniziali fase) */
 214:C:/Workspace/FW_Inertia/branch_indesit/Application_Platform\APP_Interpreter.c **** 		*ppCompStepHigh = pCompTableData->pHiStat;
 215:C:/Workspace/FW_Inertia/branch_indesit/Application_Platform\APP_Interpreter.c **** 		*ppCompStepLow = pCompTableData->pLoStat;
 216:C:/Workspace/FW_Inertia/branch_indesit/Application_Platform\APP_Interpreter.c **** 		
 217:C:/Workspace/FW_Inertia/branch_indesit/Application_Platform\APP_Interpreter.c **** 		if(pCompItpData->first_statement < pCompTableData->nPhaseStatements)
 218:C:/Workspace/FW_Inertia/branch_indesit/Application_Platform\APP_Interpreter.c **** 		{
 219:C:/Workspace/FW_Inertia/branch_indesit/Application_Platform\APP_Interpreter.c **** 			/*
 220:C:/Workspace/FW_Inertia/branch_indesit/Application_Platform\APP_Interpreter.c **** 			Statement iniziale del passo in range rispetto al numero di statement
 221:C:/Workspace/FW_Inertia/branch_indesit/Application_Platform\APP_Interpreter.c **** 			previsti per la fase corrente, i puntatori al passo vengono allineati
 222:C:/Workspace/FW_Inertia/branch_indesit/Application_Platform\APP_Interpreter.c **** 			allo statement iniziale dello stesso.
 223:C:/Workspace/FW_Inertia/branch_indesit/Application_Platform\APP_Interpreter.c **** 			*/
 224:C:/Workspace/FW_Inertia/branch_indesit/Application_Platform\APP_Interpreter.c **** 		 	*ppCompStepHigh += pCompItpData->first_statement;
 225:C:/Workspace/FW_Inertia/branch_indesit/Application_Platform\APP_Interpreter.c **** 		 	*ppCompStepLow += pCompItpData->first_statement;
 226:C:/Workspace/FW_Inertia/branch_indesit/Application_Platform\APP_Interpreter.c **** 		}
 227:C:/Workspace/FW_Inertia/branch_indesit/Application_Platform\APP_Interpreter.c **** 		else
 228:C:/Workspace/FW_Inertia/branch_indesit/Application_Platform\APP_Interpreter.c **** 		{
 229:C:/Workspace/FW_Inertia/branch_indesit/Application_Platform\APP_Interpreter.c **** 			/* Errore: statement iniziale del passo out of range */
 230:C:/Workspace/FW_Inertia/branch_indesit/Application_Platform\APP_Interpreter.c **** #ifdef _ITP_CHECKERRORS_	
 231:C:/Workspace/FW_Inertia/branch_indesit/Application_Platform\APP_Interpreter.c **** 			DBG_CheckErr(ITP_ERR_PH_STAT_OUT_OF_RANGE);
 232:C:/Workspace/FW_Inertia/branch_indesit/Application_Platform\APP_Interpreter.c **** #endif /* _ITP_CHECKERRORS_ */
 233:C:/Workspace/FW_Inertia/branch_indesit/Application_Platform\APP_Interpreter.c **** 
 234:C:/Workspace/FW_Inertia/branch_indesit/Application_Platform\APP_Interpreter.c **** 			return ITP_ERR_PH_STAT_OUT_OF_RANGE;
 235:C:/Workspace/FW_Inertia/branch_indesit/Application_Platform\APP_Interpreter.c **** 		}
 236:C:/Workspace/FW_Inertia/branch_indesit/Application_Platform\APP_Interpreter.c **** 
 237:C:/Workspace/FW_Inertia/branch_indesit/Application_Platform\APP_Interpreter.c **** #if (ITP_UI_PHASE_TRAKER_ENABLE == 1)
 238:C:/Workspace/FW_Inertia/branch_indesit/Application_Platform\APP_Interpreter.c **** /* attualmente solo per applicazioni mono-vano*/
 239:C:/Workspace/FW_Inertia/branch_indesit/Application_Platform\APP_Interpreter.c **** 	
 240:C:/Workspace/FW_Inertia/branch_indesit/Application_Platform\APP_Interpreter.c **** 		ITP_syncUICyclePos(compartment); /* comune */
 241:C:/Workspace/FW_Inertia/branch_indesit/Application_Platform\APP_Interpreter.c **** 			
 242:C:/Workspace/FW_Inertia/branch_indesit/Application_Platform\APP_Interpreter.c **** 		ITP_phaseTrackerUI(); /* custom*/
 243:C:/Workspace/FW_Inertia/branch_indesit/Application_Platform\APP_Interpreter.c **** 		
 244:C:/Workspace/FW_Inertia/branch_indesit/Application_Platform\APP_Interpreter.c **** #endif		
 245:C:/Workspace/FW_Inertia/branch_indesit/Application_Platform\APP_Interpreter.c **** 		
 246:C:/Workspace/FW_Inertia/branch_indesit/Application_Platform\APP_Interpreter.c **** 		pCompItpData->phaseDataInitialized = 1;
 247:C:/Workspace/FW_Inertia/branch_indesit/Application_Platform\APP_Interpreter.c **** 	}
 248:C:/Workspace/FW_Inertia/branch_indesit/Application_Platform\APP_Interpreter.c **** 	/* End caricamento dati fase */
 249:C:/Workspace/FW_Inertia/branch_indesit/Application_Platform\APP_Interpreter.c **** 
 250:C:/Workspace/FW_Inertia/branch_indesit/Application_Platform\APP_Interpreter.c **** 	/*
 251:C:/Workspace/FW_Inertia/branch_indesit/Application_Platform\APP_Interpreter.c **** 	Callback per funzioni specifiche dell'applicazione da eseguire
 252:C:/Workspace/FW_Inertia/branch_indesit/Application_Platform\APP_Interpreter.c **** 	prima di processare il passo
 253:C:/Workspace/FW_Inertia/branch_indesit/Application_Platform\APP_Interpreter.c **** 	*/
 254:C:/Workspace/FW_Inertia/branch_indesit/Application_Platform\APP_Interpreter.c **** 	ITP_preStepInit();
 255:C:/Workspace/FW_Inertia/branch_indesit/Application_Platform\APP_Interpreter.c **** 	 
 256:C:/Workspace/FW_Inertia/branch_indesit/Application_Platform\APP_Interpreter.c **** 	/*
 257:C:/Workspace/FW_Inertia/branch_indesit/Application_Platform\APP_Interpreter.c **** 	I puntatori allo statement corrente vengono inizializzati allo statement
 258:C:/Workspace/FW_Inertia/branch_indesit/Application_Platform\APP_Interpreter.c **** 	iniziale del passo corrente
 259:C:/Workspace/FW_Inertia/branch_indesit/Application_Platform\APP_Interpreter.c **** 	*/
 260:C:/Workspace/FW_Inertia/branch_indesit/Application_Platform\APP_Interpreter.c **** 	pTempHighStat = *ppCompStepHigh;
 261:C:/Workspace/FW_Inertia/branch_indesit/Application_Platform\APP_Interpreter.c **** 	pTempLowStat = *ppCompStepLow;
 262:C:/Workspace/FW_Inertia/branch_indesit/Application_Platform\APP_Interpreter.c **** 
 263:C:/Workspace/FW_Inertia/branch_indesit/Application_Platform\APP_Interpreter.c **** 	/*
 264:C:/Workspace/FW_Inertia/branch_indesit/Application_Platform\APP_Interpreter.c **** 	Di default è sempre abilitato l'avanzamento di passo (newStep = TRUE)
 265:C:/Workspace/FW_Inertia/branch_indesit/Application_Platform\APP_Interpreter.c ****    	solo un microprogramma con N a '1' e ritorno FALSE può bloccare tale avanzamento
 266:C:/Workspace/FW_Inertia/branch_indesit/Application_Platform\APP_Interpreter.c ****    	*/ 
 267:C:/Workspace/FW_Inertia/branch_indesit/Application_Platform\APP_Interpreter.c **** 	newStep = TRUE;
 268:C:/Workspace/FW_Inertia/branch_indesit/Application_Platform\APP_Interpreter.c **** 	phaseFlags = 0;
 269:C:/Workspace/FW_Inertia/branch_indesit/Application_Platform\APP_Interpreter.c **** 
 270:C:/Workspace/FW_Inertia/branch_indesit/Application_Platform\APP_Interpreter.c **** 	/* Get T Flag per il passo corrente */	
 271:C:/Workspace/FW_Inertia/branch_indesit/Application_Platform\APP_Interpreter.c **** 	T_Flag = ( *pTempHighStat & T_MASK ); 
 272:C:/Workspace/FW_Inertia/branch_indesit/Application_Platform\APP_Interpreter.c **** 
 273:C:/Workspace/FW_Inertia/branch_indesit/Application_Platform\APP_Interpreter.c **** 	/* Viene calcolato il puntatore all'ultimo statement della fase */
 274:C:/Workspace/FW_Inertia/branch_indesit/Application_Platform\APP_Interpreter.c **** 	pEndPhaseHighStat = pCompTableData->pHiStat + (pCompTableData->nPhaseStatements - 1);
 275:C:/Workspace/FW_Inertia/branch_indesit/Application_Platform\APP_Interpreter.c **** 
 276:C:/Workspace/FW_Inertia/branch_indesit/Application_Platform\APP_Interpreter.c **** #if (ITP_JIF_RET_ENABLE == 1) 
 277:C:/Workspace/FW_Inertia/branch_indesit/Application_Platform\APP_Interpreter.c **** 	/* Inizializzazione variabile lunghezza passo corrente */	
 278:C:/Workspace/FW_Inertia/branch_indesit/Application_Platform\APP_Interpreter.c **** 	StepLength[compartment] = 0;
 279:C:/Workspace/FW_Inertia/branch_indesit/Application_Platform\APP_Interpreter.c **** #endif /* (ITP_JIF_RET_ENABLE == 1) */  
 280:C:/Workspace/FW_Inertia/branch_indesit/Application_Platform\APP_Interpreter.c **** 
 281:C:/Workspace/FW_Inertia/branch_indesit/Application_Platform\APP_Interpreter.c **** 	/* 
 282:C:/Workspace/FW_Inertia/branch_indesit/Application_Platform\APP_Interpreter.c **** 	----------------------------------------------------------------------
 283:C:/Workspace/FW_Inertia/branch_indesit/Application_Platform\APP_Interpreter.c **** 		Esecuzione del passo corrente: microprogrammi con stesso T Flag
 284:C:/Workspace/FW_Inertia/branch_indesit/Application_Platform\APP_Interpreter.c **** 	----------------------------------------------------------------------
 285:C:/Workspace/FW_Inertia/branch_indesit/Application_Platform\APP_Interpreter.c **** 	*/
 286:C:/Workspace/FW_Inertia/branch_indesit/Application_Platform\APP_Interpreter.c **** 	while( ( pTempHighStat <= pEndPhaseHighStat ) && ( ( ( *pTempHighStat ) & T_MASK ) == T_Flag ) )
 287:C:/Workspace/FW_Inertia/branch_indesit/Application_Platform\APP_Interpreter.c **** 	{
 288:C:/Workspace/FW_Inertia/branch_indesit/Application_Platform\APP_Interpreter.c **** 
 289:C:/Workspace/FW_Inertia/branch_indesit/Application_Platform\APP_Interpreter.c **** 		opCode = OPCODE(*pTempHighStat);
 290:C:/Workspace/FW_Inertia/branch_indesit/Application_Platform\APP_Interpreter.c **** 		completeOpcode = COMPLETE_OPCODE(*pTempHighStat);	/* Opcode + Flags F0-F1 */
 291:C:/Workspace/FW_Inertia/branch_indesit/Application_Platform\APP_Interpreter.c **** 
 292:C:/Workspace/FW_Inertia/branch_indesit/Application_Platform\APP_Interpreter.c **** 		/*lint -save -e912 */
 293:C:/Workspace/FW_Inertia/branch_indesit/Application_Platform\APP_Interpreter.c **** 		if ( opCode < SIZE(Microprog_array) )
 294:C:/Workspace/FW_Inertia/branch_indesit/Application_Platform\APP_Interpreter.c **** 		/*lint -restore */
 295:C:/Workspace/FW_Inertia/branch_indesit/Application_Platform\APP_Interpreter.c **** 		{
 296:C:/Workspace/FW_Inertia/branch_indesit/Application_Platform\APP_Interpreter.c **** #if (ITP_JIF_PHASE_ENABLE ==1)
 297:C:/Workspace/FW_Inertia/branch_indesit/Application_Platform\APP_Interpreter.c **** 
 298:C:/Workspace/FW_Inertia/branch_indesit/Application_Platform\APP_Interpreter.c **** 			if ( completeOpcode == UP_JUMPIF_PHASE )
 299:C:/Workspace/FW_Inertia/branch_indesit/Application_Platform\APP_Interpreter.c **** 			{/*JumpIF valido per fase */
 300:C:/Workspace/FW_Inertia/branch_indesit/Application_Platform\APP_Interpreter.c **** 			
 301:C:/Workspace/FW_Inertia/branch_indesit/Application_Platform\APP_Interpreter.c **** 				if ( pCompItpData->stepInitialized == 0 )
 302:C:/Workspace/FW_Inertia/branch_indesit/Application_Platform\APP_Interpreter.c **** 				{/*Init uP del passo : la prima volta che incontro il uP vengono sistemate le strutture dati*/
 303:C:/Workspace/FW_Inertia/branch_indesit/Application_Platform\APP_Interpreter.c **** 				
 304:C:/Workspace/FW_Inertia/branch_indesit/Application_Platform\APP_Interpreter.c **** 					if( pCompJmpPhase->index < MAX_NUM_JIF_PHASE )
 305:C:/Workspace/FW_Inertia/branch_indesit/Application_Platform\APP_Interpreter.c **** 					{
 306:C:/Workspace/FW_Inertia/branch_indesit/Application_Platform\APP_Interpreter.c **** 						jumpAlreadyIn = FALSE;
 307:C:/Workspace/FW_Inertia/branch_indesit/Application_Platform\APP_Interpreter.c **** 						/* Controllo che il Jump If non sia già presente */
 308:C:/Workspace/FW_Inertia/branch_indesit/Application_Platform\APP_Interpreter.c **** 						for( i=0; i < pCompJmpPhase->index; i++ )
 309:C:/Workspace/FW_Inertia/branch_indesit/Application_Platform\APP_Interpreter.c **** 						{
 310:C:/Workspace/FW_Inertia/branch_indesit/Application_Platform\APP_Interpreter.c **** 							if( pCompJmpPhase->statements[i][1] == *pTempLowStat )
 311:C:/Workspace/FW_Inertia/branch_indesit/Application_Platform\APP_Interpreter.c **** 							{
 312:C:/Workspace/FW_Inertia/branch_indesit/Application_Platform\APP_Interpreter.c **** 								jumpAlreadyIn = TRUE;	
 313:C:/Workspace/FW_Inertia/branch_indesit/Application_Platform\APP_Interpreter.c **** 							}
 314:C:/Workspace/FW_Inertia/branch_indesit/Application_Platform\APP_Interpreter.c **** 						
 315:C:/Workspace/FW_Inertia/branch_indesit/Application_Platform\APP_Interpreter.c **** 						}
 316:C:/Workspace/FW_Inertia/branch_indesit/Application_Platform\APP_Interpreter.c **** 						if( jumpAlreadyIn == FALSE )
 317:C:/Workspace/FW_Inertia/branch_indesit/Application_Platform\APP_Interpreter.c **** 						{/*Nuovo JumpIF : Salvo HighStatment e LowStatment */
 318:C:/Workspace/FW_Inertia/branch_indesit/Application_Platform\APP_Interpreter.c **** 							pCompJmpPhase->statements[pCompJmpPhase->index][0] = *pTempHighStat;	 
 319:C:/Workspace/FW_Inertia/branch_indesit/Application_Platform\APP_Interpreter.c **** 							pCompJmpPhase->statements[pCompJmpPhase->index][1] = *pTempLowStat;
 320:C:/Workspace/FW_Inertia/branch_indesit/Application_Platform\APP_Interpreter.c **** 							pCompJmpPhase->index ++;
 321:C:/Workspace/FW_Inertia/branch_indesit/Application_Platform\APP_Interpreter.c **** 						}
 322:C:/Workspace/FW_Inertia/branch_indesit/Application_Platform\APP_Interpreter.c **** 					}
 323:C:/Workspace/FW_Inertia/branch_indesit/Application_Platform\APP_Interpreter.c **** 				}
 324:C:/Workspace/FW_Inertia/branch_indesit/Application_Platform\APP_Interpreter.c **** 			}
 325:C:/Workspace/FW_Inertia/branch_indesit/Application_Platform\APP_Interpreter.c **** 			else if ( completeOpcode == UP_JUMPIF_PHASE_RESET )
 326:C:/Workspace/FW_Inertia/branch_indesit/Application_Platform\APP_Interpreter.c **** 			{/*Reset JumpIF valido per fase - prima volta che lo incontro elimino le strutture dati*/
 327:C:/Workspace/FW_Inertia/branch_indesit/Application_Platform\APP_Interpreter.c **** 			
 328:C:/Workspace/FW_Inertia/branch_indesit/Application_Platform\APP_Interpreter.c **** 				if (pCompItpData->stepInitialized == 0)
 329:C:/Workspace/FW_Inertia/branch_indesit/Application_Platform\APP_Interpreter.c **** 				{/*Init uP del passo : la prima volta che incontro il uP vengono sistemate le strutture dati*/
 330:C:/Workspace/FW_Inertia/branch_indesit/Application_Platform\APP_Interpreter.c **** 				
 331:C:/Workspace/FW_Inertia/branch_indesit/Application_Platform\APP_Interpreter.c **** 					if( pCompJmpPhase->index != 0 )
 332:C:/Workspace/FW_Inertia/branch_indesit/Application_Platform\APP_Interpreter.c **** 					{/*un Jump IF è presente nell'array*/
 333:C:/Workspace/FW_Inertia/branch_indesit/Application_Platform\APP_Interpreter.c **** 						pCompJmpPhase->index --;
 334:C:/Workspace/FW_Inertia/branch_indesit/Application_Platform\APP_Interpreter.c **** 						pCompJmpPhase->statements[pCompJmpPhase->index][0] = (0xFF - UP_JUMPIF);	
 335:C:/Workspace/FW_Inertia/branch_indesit/Application_Platform\APP_Interpreter.c **** 						pCompJmpPhase->statements[pCompJmpPhase->index][1] = 0xFF;
 336:C:/Workspace/FW_Inertia/branch_indesit/Application_Platform\APP_Interpreter.c **** 					}
 337:C:/Workspace/FW_Inertia/branch_indesit/Application_Platform\APP_Interpreter.c **** 				}	
 338:C:/Workspace/FW_Inertia/branch_indesit/Application_Platform\APP_Interpreter.c **** 			}
 339:C:/Workspace/FW_Inertia/branch_indesit/Application_Platform\APP_Interpreter.c **** 			else
 340:C:/Workspace/FW_Inertia/branch_indesit/Application_Platform\APP_Interpreter.c **** 			{
 341:C:/Workspace/FW_Inertia/branch_indesit/Application_Platform\APP_Interpreter.c **** #endif /* ITP_JIF_PHASE_ENABLE == 1	*/
 342:C:/Workspace/FW_Inertia/branch_indesit/Application_Platform\APP_Interpreter.c **** 				
 343:C:/Workspace/FW_Inertia/branch_indesit/Application_Platform\APP_Interpreter.c **** 			/* Eseguo nel loop tutti i uP tranne JumpIF e Reset JumpIF valido per fase */	
 344:C:/Workspace/FW_Inertia/branch_indesit/Application_Platform\APP_Interpreter.c **** 
 345:C:/Workspace/FW_Inertia/branch_indesit/Application_Platform\APP_Interpreter.c **** 			/* Esecuzione uP individuato da pTempHighStat */
 346:C:/Workspace/FW_Inertia/branch_indesit/Application_Platform\APP_Interpreter.c **** #if (MULTI_COMPARTMENT_APPL == 1)
 347:C:/Workspace/FW_Inertia/branch_indesit/Application_Platform\APP_Interpreter.c **** 			resultStm = Microprog_array[opCode](*pTempHighStat, *pTempLowStat, compartment);
 348:C:/Workspace/FW_Inertia/branch_indesit/Application_Platform\APP_Interpreter.c **** #else
 349:C:/Workspace/FW_Inertia/branch_indesit/Application_Platform\APP_Interpreter.c **** 			resultStm = Microprog_array[opCode](*pTempHighStat, *pTempLowStat);
 350:C:/Workspace/FW_Inertia/branch_indesit/Application_Platform\APP_Interpreter.c **** #endif /* (MULTI_COMPARTMENT_APPL == 1) */
 351:C:/Workspace/FW_Inertia/branch_indesit/Application_Platform\APP_Interpreter.c **** 
 352:C:/Workspace/FW_Inertia/branch_indesit/Application_Platform\APP_Interpreter.c **** #if (ITP_JIF_PHASE_ENABLE == 1)
 353:C:/Workspace/FW_Inertia/branch_indesit/Application_Platform\APP_Interpreter.c **** 			}		
 354:C:/Workspace/FW_Inertia/branch_indesit/Application_Platform\APP_Interpreter.c **** #endif /* ITP_JIF_PHASE_ENABLE == 1*/
 355:C:/Workspace/FW_Inertia/branch_indesit/Application_Platform\APP_Interpreter.c **** 			
 356:C:/Workspace/FW_Inertia/branch_indesit/Application_Platform\APP_Interpreter.c **** 			/* Gestione uP particolari */
 357:C:/Workspace/FW_Inertia/branch_indesit/Application_Platform\APP_Interpreter.c **** 			if( completeOpcode == UP_SETSTATE_RESET )	/* uP RESET */
 358:C:/Workspace/FW_Inertia/branch_indesit/Application_Platform\APP_Interpreter.c **** 			{
 359:C:/Workspace/FW_Inertia/branch_indesit/Application_Platform\APP_Interpreter.c **** 				/* SetState->Reset -> si esce dall'esecuzione del passo */
 360:C:/Workspace/FW_Inertia/branch_indesit/Application_Platform\APP_Interpreter.c **** 				/*
 361:C:/Workspace/FW_Inertia/branch_indesit/Application_Platform\APP_Interpreter.c **** 				N.B.A.: resultStm vale sicuramente S_OK perchè UP_SETSTATE_RESET può
 362:C:/Workspace/FW_Inertia/branch_indesit/Application_Platform\APP_Interpreter.c **** 				restituire solo questo valore
 363:C:/Workspace/FW_Inertia/branch_indesit/Application_Platform\APP_Interpreter.c **** 				*/
 364:C:/Workspace/FW_Inertia/branch_indesit/Application_Platform\APP_Interpreter.c **** 				pTempHighStat = pEndPhaseHighStat;	/* sufficiente pEndPhaseHighStat perchè ho ++ al termine del
 365:C:/Workspace/FW_Inertia/branch_indesit/Application_Platform\APP_Interpreter.c **** 				SETBIT(phaseFlags, B_RESET_FLAG);
 366:C:/Workspace/FW_Inertia/branch_indesit/Application_Platform\APP_Interpreter.c **** 				
 367:C:/Workspace/FW_Inertia/branch_indesit/Application_Platform\APP_Interpreter.c **** 				newStep = TRUE;	
 368:C:/Workspace/FW_Inertia/branch_indesit/Application_Platform\APP_Interpreter.c **** 			}
 369:C:/Workspace/FW_Inertia/branch_indesit/Application_Platform\APP_Interpreter.c **** 			
 370:C:/Workspace/FW_Inertia/branch_indesit/Application_Platform\APP_Interpreter.c **** #if (ITP_JIF_RET_ENABLE == 1)
 371:C:/Workspace/FW_Inertia/branch_indesit/Application_Platform\APP_Interpreter.c **** 			else if ( completeOpcode == UP_SETSTATE_RETURN )	 
 372:C:/Workspace/FW_Inertia/branch_indesit/Application_Platform\APP_Interpreter.c **** 			{/* RICORDA: IL RETURN DEVE ESSERE INSERITO IN UN PASSO COME UNICO UP!! */
 373:C:/Workspace/FW_Inertia/branch_indesit/Application_Platform\APP_Interpreter.c **** 
 374:C:/Workspace/FW_Inertia/branch_indesit/Application_Platform\APP_Interpreter.c **** 				/* resultStm = TRUE;	//mi serve solo se non lo processo come uP, ma nell'array c'è */
 375:C:/Workspace/FW_Inertia/branch_indesit/Application_Platform\APP_Interpreter.c **** 
 376:C:/Workspace/FW_Inertia/branch_indesit/Application_Platform\APP_Interpreter.c **** 				pTempHighStat = pEndPhaseHighStat;
 377:C:/Workspace/FW_Inertia/branch_indesit/Application_Platform\APP_Interpreter.c **** 
 378:C:/Workspace/FW_Inertia/branch_indesit/Application_Platform\APP_Interpreter.c **** 				SETBIT(phaseFlags, B_RETURN_FLAG);
 379:C:/Workspace/FW_Inertia/branch_indesit/Application_Platform\APP_Interpreter.c **** 
 380:C:/Workspace/FW_Inertia/branch_indesit/Application_Platform\APP_Interpreter.c **** 				newStep = TRUE;
 381:C:/Workspace/FW_Inertia/branch_indesit/Application_Platform\APP_Interpreter.c **** 			}
 382:C:/Workspace/FW_Inertia/branch_indesit/Application_Platform\APP_Interpreter.c **** #endif /* (ITP_JIF_RET_ENABLE == 1) */		
 383:C:/Workspace/FW_Inertia/branch_indesit/Application_Platform\APP_Interpreter.c **** 	
 384:C:/Workspace/FW_Inertia/branch_indesit/Application_Platform\APP_Interpreter.c **** 			else if ( (completeOpcode == UP_JUMPIF_STEP) && (resultStm == S_OK) )	/* uP JUMPIF valido per PA
 385:C:/Workspace/FW_Inertia/branch_indesit/Application_Platform\APP_Interpreter.c **** 			{
 386:C:/Workspace/FW_Inertia/branch_indesit/Application_Platform\APP_Interpreter.c **** 				/* JumpIf OK -> si esce dall'esecuzione del passo */
 387:C:/Workspace/FW_Inertia/branch_indesit/Application_Platform\APP_Interpreter.c **** 				/*
 388:C:/Workspace/FW_Inertia/branch_indesit/Application_Platform\APP_Interpreter.c **** 				N.B.A.: se nello stesso passo sono presenti un JumpIf e un SetState->Reset,
 389:C:/Workspace/FW_Inertia/branch_indesit/Application_Platform\APP_Interpreter.c **** 				il JumpIf non viene valutato perchè posto (dall'Editor) sempre dopo
 390:C:/Workspace/FW_Inertia/branch_indesit/Application_Platform\APP_Interpreter.c **** 				il SetState->Reset.
 391:C:/Workspace/FW_Inertia/branch_indesit/Application_Platform\APP_Interpreter.c **** 				*/
 392:C:/Workspace/FW_Inertia/branch_indesit/Application_Platform\APP_Interpreter.c **** 				pTempHighStat = pEndPhaseHighStat;	/* sufficiente pEndPhaseHighStat perchè ho ++ al termine del
 393:C:/Workspace/FW_Inertia/branch_indesit/Application_Platform\APP_Interpreter.c **** 				SETBIT(phaseFlags, B_JUMPIF_FLAG);
 394:C:/Workspace/FW_Inertia/branch_indesit/Application_Platform\APP_Interpreter.c **** 
 395:C:/Workspace/FW_Inertia/branch_indesit/Application_Platform\APP_Interpreter.c **** 				newStep = TRUE;		
 396:C:/Workspace/FW_Inertia/branch_indesit/Application_Platform\APP_Interpreter.c **** 			}
 397:C:/Workspace/FW_Inertia/branch_indesit/Application_Platform\APP_Interpreter.c **** 			else
 398:C:/Workspace/FW_Inertia/branch_indesit/Application_Platform\APP_Interpreter.c **** 			{
 399:C:/Workspace/FW_Inertia/branch_indesit/Application_Platform\APP_Interpreter.c **** 				/* Nothing to do */
 400:C:/Workspace/FW_Inertia/branch_indesit/Application_Platform\APP_Interpreter.c **** 			}
 401:C:/Workspace/FW_Inertia/branch_indesit/Application_Platform\APP_Interpreter.c **** 		}
 402:C:/Workspace/FW_Inertia/branch_indesit/Application_Platform\APP_Interpreter.c **** 		else
 403:C:/Workspace/FW_Inertia/branch_indesit/Application_Platform\APP_Interpreter.c **** 		{
 404:C:/Workspace/FW_Inertia/branch_indesit/Application_Platform\APP_Interpreter.c **** 			/*
 405:C:/Workspace/FW_Inertia/branch_indesit/Application_Platform\APP_Interpreter.c **** 			Il codice del uP non è tra quelli noti: se il uP ha l'N-flag settato
 406:C:/Workspace/FW_Inertia/branch_indesit/Application_Platform\APP_Interpreter.c **** 			non viene abilitato l'avanzamento del passo, ma in generale il
 407:C:/Workspace/FW_Inertia/branch_indesit/Application_Platform\APP_Interpreter.c **** 			processamento del passo prosegue
 408:C:/Workspace/FW_Inertia/branch_indesit/Application_Platform\APP_Interpreter.c **** 			*/
 409:C:/Workspace/FW_Inertia/branch_indesit/Application_Platform\APP_Interpreter.c **** #ifdef _ITP_CHECKERRORS_			    	
 410:C:/Workspace/FW_Inertia/branch_indesit/Application_Platform\APP_Interpreter.c **** 			DBG_CheckErr(ITP_ERR_UNKNOWN_OPCODE);
 411:C:/Workspace/FW_Inertia/branch_indesit/Application_Platform\APP_Interpreter.c **** #endif /* _ITP_CHECKERRORS_ */
 412:C:/Workspace/FW_Inertia/branch_indesit/Application_Platform\APP_Interpreter.c **** 
 413:C:/Workspace/FW_Inertia/branch_indesit/Application_Platform\APP_Interpreter.c **** 			resultStm = S_FALSE;
 414:C:/Workspace/FW_Inertia/branch_indesit/Application_Platform\APP_Interpreter.c **** 		}
 415:C:/Workspace/FW_Inertia/branch_indesit/Application_Platform\APP_Interpreter.c **** 
 416:C:/Workspace/FW_Inertia/branch_indesit/Application_Platform\APP_Interpreter.c **** 		if( ( resultStm != S_OK ) && ((( *pTempHighStat ) & N_MASK ) != 0 ) )
 417:C:/Workspace/FW_Inertia/branch_indesit/Application_Platform\APP_Interpreter.c **** 		{	
 418:C:/Workspace/FW_Inertia/branch_indesit/Application_Platform\APP_Interpreter.c **** 			/* uP bloccante (N=1) && resultStm!=S_OK => non abilita avanzamento passo */
 419:C:/Workspace/FW_Inertia/branch_indesit/Application_Platform\APP_Interpreter.c **** 			newStep = FALSE;		
 420:C:/Workspace/FW_Inertia/branch_indesit/Application_Platform\APP_Interpreter.c **** 		}
 421:C:/Workspace/FW_Inertia/branch_indesit/Application_Platform\APP_Interpreter.c **** 		else
 422:C:/Workspace/FW_Inertia/branch_indesit/Application_Platform\APP_Interpreter.c **** 		{
 423:C:/Workspace/FW_Inertia/branch_indesit/Application_Platform\APP_Interpreter.c **** 			/* newStep rimane TRUE => abilitato il passaggio allo step successivo */
 424:C:/Workspace/FW_Inertia/branch_indesit/Application_Platform\APP_Interpreter.c **** 		}
 425:C:/Workspace/FW_Inertia/branch_indesit/Application_Platform\APP_Interpreter.c **** 
 426:C:/Workspace/FW_Inertia/branch_indesit/Application_Platform\APP_Interpreter.c **** 		pTempHighStat ++;	
 427:C:/Workspace/FW_Inertia/branch_indesit/Application_Platform\APP_Interpreter.c **** 		pTempLowStat ++;
 428:C:/Workspace/FW_Inertia/branch_indesit/Application_Platform\APP_Interpreter.c **** 		
 429:C:/Workspace/FW_Inertia/branch_indesit/Application_Platform\APP_Interpreter.c **** #if (ITP_JIF_RET_ENABLE == 1) 
 430:C:/Workspace/FW_Inertia/branch_indesit/Application_Platform\APP_Interpreter.c **** 		/* incremento var. lunghezza passo corrente */
 431:C:/Workspace/FW_Inertia/branch_indesit/Application_Platform\APP_Interpreter.c **** 		StepLength[compartment]++;
 432:C:/Workspace/FW_Inertia/branch_indesit/Application_Platform\APP_Interpreter.c **** #endif /* (ITP_JIF_RET_ENABLE == 1) */		
 433:C:/Workspace/FW_Inertia/branch_indesit/Application_Platform\APP_Interpreter.c **** 		
 434:C:/Workspace/FW_Inertia/branch_indesit/Application_Platform\APP_Interpreter.c **** 	}
 435:C:/Workspace/FW_Inertia/branch_indesit/Application_Platform\APP_Interpreter.c **** 	/* Scansione dei microprogrammi con identico T (passo) effettuata */
 436:C:/Workspace/FW_Inertia/branch_indesit/Application_Platform\APP_Interpreter.c **** 
 437:C:/Workspace/FW_Inertia/branch_indesit/Application_Platform\APP_Interpreter.c **** 
 438:C:/Workspace/FW_Inertia/branch_indesit/Application_Platform\APP_Interpreter.c **** #if (ITP_JIF_PHASE_ENABLE == 1)
 439:C:/Workspace/FW_Inertia/branch_indesit/Application_Platform\APP_Interpreter.c **** 	/*
 440:C:/Workspace/FW_Inertia/branch_indesit/Application_Platform\APP_Interpreter.c **** 	Controlla se ci sono JumpIF validi per fase da processare prioritari rispetto a quelli
 441:C:/Workspace/FW_Inertia/branch_indesit/Application_Platform\APP_Interpreter.c **** 	del passo.
 442:C:/Workspace/FW_Inertia/branch_indesit/Application_Platform\APP_Interpreter.c **** 	Per ora N flag non viene preso in considerazione.
 443:C:/Workspace/FW_Inertia/branch_indesit/Application_Platform\APP_Interpreter.c **** 	*/
 444:C:/Workspace/FW_Inertia/branch_indesit/Application_Platform\APP_Interpreter.c **** 
 445:C:/Workspace/FW_Inertia/branch_indesit/Application_Platform\APP_Interpreter.c **** 	for( i=0; i<MAX_NUM_JIF_PHASE; i++ )
 446:C:/Workspace/FW_Inertia/branch_indesit/Application_Platform\APP_Interpreter.c **** 	{
 447:C:/Workspace/FW_Inertia/branch_indesit/Application_Platform\APP_Interpreter.c **** 		if( (COMPLETE_OPCODE (pCompJmpPhase->statements[i][0])) == UP_JUMPIF_PHASE )
 448:C:/Workspace/FW_Inertia/branch_indesit/Application_Platform\APP_Interpreter.c **** 		{/*Esecuzione uP JumpIF con gli statement salvati da JumpIF valido per Fase*/
 449:C:/Workspace/FW_Inertia/branch_indesit/Application_Platform\APP_Interpreter.c **** 
 450:C:/Workspace/FW_Inertia/branch_indesit/Application_Platform\APP_Interpreter.c **** #if (MULTI_COMPARTMENT_APPL == 1) 			
 451:C:/Workspace/FW_Inertia/branch_indesit/Application_Platform\APP_Interpreter.c **** 			resultStm = JIF_JumpIf_Exe(pCompJmpPhase->statements[i][0],pCompJmpPhase->statements[i][1],compa
 452:C:/Workspace/FW_Inertia/branch_indesit/Application_Platform\APP_Interpreter.c **** #else
 453:C:/Workspace/FW_Inertia/branch_indesit/Application_Platform\APP_Interpreter.c **** 			resultStm = JIF_JumpIf_Exe(pCompJmpPhase->statements[i][0],pCompJmpPhase->statements[i][1]);
 454:C:/Workspace/FW_Inertia/branch_indesit/Application_Platform\APP_Interpreter.c **** #endif /* (MULTI_COMPARTMENT_APPL == 1)  */			
 455:C:/Workspace/FW_Inertia/branch_indesit/Application_Platform\APP_Interpreter.c **** 
 456:C:/Workspace/FW_Inertia/branch_indesit/Application_Platform\APP_Interpreter.c **** 			if ( resultStm == S_OK )
 457:C:/Workspace/FW_Inertia/branch_indesit/Application_Platform\APP_Interpreter.c **** 			{/*condizione ok: salto abilitato*/
 458:C:/Workspace/FW_Inertia/branch_indesit/Application_Platform\APP_Interpreter.c **** 				pTempHighStat = (pEndPhaseHighStat+1);
 459:C:/Workspace/FW_Inertia/branch_indesit/Application_Platform\APP_Interpreter.c **** 
 460:C:/Workspace/FW_Inertia/branch_indesit/Application_Platform\APP_Interpreter.c **** 				SETBIT(phaseFlags, B_JUMPIF_FLAG);
 461:C:/Workspace/FW_Inertia/branch_indesit/Application_Platform\APP_Interpreter.c **** 
 462:C:/Workspace/FW_Inertia/branch_indesit/Application_Platform\APP_Interpreter.c **** 				newStep = TRUE;
 463:C:/Workspace/FW_Inertia/branch_indesit/Application_Platform\APP_Interpreter.c **** 			}
 464:C:/Workspace/FW_Inertia/branch_indesit/Application_Platform\APP_Interpreter.c **** 		}	
 465:C:/Workspace/FW_Inertia/branch_indesit/Application_Platform\APP_Interpreter.c **** 	} 
 466:C:/Workspace/FW_Inertia/branch_indesit/Application_Platform\APP_Interpreter.c **** 	
 467:C:/Workspace/FW_Inertia/branch_indesit/Application_Platform\APP_Interpreter.c **** #endif /* ITP_JIF_PHASE_ENABLE == 1	*/
 468:C:/Workspace/FW_Inertia/branch_indesit/Application_Platform\APP_Interpreter.c **** 
 469:C:/Workspace/FW_Inertia/branch_indesit/Application_Platform\APP_Interpreter.c **** #if (ITP_LOADS_MGMT_ENABLE == 1)
 470:C:/Workspace/FW_Inertia/branch_indesit/Application_Platform\APP_Interpreter.c **** 	/*lint -save -e912 */
 471:C:/Workspace/FW_Inertia/branch_indesit/Application_Platform\APP_Interpreter.c **** 	if ( pCompItpData->stepInitialized == FALSE )
 472:C:/Workspace/FW_Inertia/branch_indesit/Application_Platform\APP_Interpreter.c **** 	/*lint -restore */
 473:C:/Workspace/FW_Inertia/branch_indesit/Application_Platform\APP_Interpreter.c **** 	{/* continuità dei carichi nella prima iterazione del passo rispetto al passo precedente (new = ol
 474:C:/Workspace/FW_Inertia/branch_indesit/Application_Platform\APP_Interpreter.c **** 
 475:C:/Workspace/FW_Inertia/branch_indesit/Application_Platform\APP_Interpreter.c **** 		pCompItpData->loads_mgmt_activation = TRUE;	
 476:C:/Workspace/FW_Inertia/branch_indesit/Application_Platform\APP_Interpreter.c **** #if (MULTI_COMPARTMENT_APPL == 1) 		    
 477:C:/Workspace/FW_Inertia/branch_indesit/Application_Platform\APP_Interpreter.c **** 		ITP_loadsMgmt(compartment);		
 478:C:/Workspace/FW_Inertia/branch_indesit/Application_Platform\APP_Interpreter.c **** #else
 479:C:/Workspace/FW_Inertia/branch_indesit/Application_Platform\APP_Interpreter.c **** 		ITP_loadsMgmt();	
 480:C:/Workspace/FW_Inertia/branch_indesit/Application_Platform\APP_Interpreter.c **** #endif
 481:C:/Workspace/FW_Inertia/branch_indesit/Application_Platform\APP_Interpreter.c **** 	}
 482:C:/Workspace/FW_Inertia/branch_indesit/Application_Platform\APP_Interpreter.c **** #endif /* (ITP_LOADS_MGMT_ENABLE == 1) */	
 483:C:/Workspace/FW_Inertia/branch_indesit/Application_Platform\APP_Interpreter.c **** 
 484:C:/Workspace/FW_Inertia/branch_indesit/Application_Platform\APP_Interpreter.c **** 	/* Inizializzazione eseguita per tutti i uProgrammi del passo corrente	*/
 485:C:/Workspace/FW_Inertia/branch_indesit/Application_Platform\APP_Interpreter.c **** 	pCompItpData->optionalStepInitialized = 1;
 486:C:/Workspace/FW_Inertia/branch_indesit/Application_Platform\APP_Interpreter.c **** 
 487:C:/Workspace/FW_Inertia/branch_indesit/Application_Platform\APP_Interpreter.c **** 	if( newStep == FALSE )
 488:C:/Workspace/FW_Inertia/branch_indesit/Application_Platform\APP_Interpreter.c **** 	{
 489:C:/Workspace/FW_Inertia/branch_indesit/Application_Platform\APP_Interpreter.c **** 		/* Il passo non è terminato */
 490:C:/Workspace/FW_Inertia/branch_indesit/Application_Platform\APP_Interpreter.c **** 		pCompItpData->stepInitialized = 1;	
 491:C:/Workspace/FW_Inertia/branch_indesit/Application_Platform\APP_Interpreter.c **** 
 492:C:/Workspace/FW_Inertia/branch_indesit/Application_Platform\APP_Interpreter.c **** 		return SAME_STEP;    
 493:C:/Workspace/FW_Inertia/branch_indesit/Application_Platform\APP_Interpreter.c **** 	}
 494:C:/Workspace/FW_Inertia/branch_indesit/Application_Platform\APP_Interpreter.c **** 
 495:C:/Workspace/FW_Inertia/branch_indesit/Application_Platform\APP_Interpreter.c **** 	/* Il passo è terminato (newStep = TRUE => abilitazione a processare nuovo passo) */
 496:C:/Workspace/FW_Inertia/branch_indesit/Application_Platform\APP_Interpreter.c **** 
 497:C:/Workspace/FW_Inertia/branch_indesit/Application_Platform\APP_Interpreter.c **** 	/*
 498:C:/Workspace/FW_Inertia/branch_indesit/Application_Platform\APP_Interpreter.c **** 	Si forza la richiesta di inizializzazione dei uProgrammi del nuovo passo.
 499:C:/Workspace/FW_Inertia/branch_indesit/Application_Platform\APP_Interpreter.c **** 	Non serve azzerare anche optionalStepInitialized, se un uProgramma processa
 500:C:/Workspace/FW_Inertia/branch_indesit/Application_Platform\APP_Interpreter.c **** 	optionalStepInitialized processa anche stepInitialized (non è vero il viceversa).
 501:C:/Workspace/FW_Inertia/branch_indesit/Application_Platform\APP_Interpreter.c **** 	*/	
 502:C:/Workspace/FW_Inertia/branch_indesit/Application_Platform\APP_Interpreter.c **** 	pCompItpData->stepInitialized = 0;
 503:C:/Workspace/FW_Inertia/branch_indesit/Application_Platform\APP_Interpreter.c **** 	
 504:C:/Workspace/FW_Inertia/branch_indesit/Application_Platform\APP_Interpreter.c **** 	/* Callback per inizializzazione variabili nel passaggio ad un nuovo step */
 505:C:/Workspace/FW_Inertia/branch_indesit/Application_Platform\APP_Interpreter.c **** 	ITP_newStepInit();
 506:C:/Workspace/FW_Inertia/branch_indesit/Application_Platform\APP_Interpreter.c **** 	
 507:C:/Workspace/FW_Inertia/branch_indesit/Application_Platform\APP_Interpreter.c **** 	if( pTempHighStat <= pEndPhaseHighStat )
 508:C:/Workspace/FW_Inertia/branch_indesit/Application_Platform\APP_Interpreter.c **** 	{
 509:C:/Workspace/FW_Inertia/branch_indesit/Application_Platform\APP_Interpreter.c **** 		/* La Fase corrente NON è stata processata completamente */
 510:C:/Workspace/FW_Inertia/branch_indesit/Application_Platform\APP_Interpreter.c **** 
 511:C:/Workspace/FW_Inertia/branch_indesit/Application_Platform\APP_Interpreter.c **** 		/* Avanzamento al nuovo passo */
 512:C:/Workspace/FW_Inertia/branch_indesit/Application_Platform\APP_Interpreter.c **** 		/* Aggiornamento puntatori al passo (HighStat, LowStat) */
 513:C:/Workspace/FW_Inertia/branch_indesit/Application_Platform\APP_Interpreter.c **** 		*ppCompStepHigh = pTempHighStat;
 514:C:/Workspace/FW_Inertia/branch_indesit/Application_Platform\APP_Interpreter.c **** 		*ppCompStepLow = pTempLowStat; 
 515:C:/Workspace/FW_Inertia/branch_indesit/Application_Platform\APP_Interpreter.c **** 		
 516:C:/Workspace/FW_Inertia/branch_indesit/Application_Platform\APP_Interpreter.c **** 		/* Aggiornamento indice statement iniziale del passo */
 517:C:/Workspace/FW_Inertia/branch_indesit/Application_Platform\APP_Interpreter.c **** 		pCompItpData->first_statement = (uint8_t)(*ppCompStepHigh - pCompTableData->pHiStat);
 518:C:/Workspace/FW_Inertia/branch_indesit/Application_Platform\APP_Interpreter.c **** 
 519:C:/Workspace/FW_Inertia/branch_indesit/Application_Platform\APP_Interpreter.c **** 		return END_STEP;
 520:C:/Workspace/FW_Inertia/branch_indesit/Application_Platform\APP_Interpreter.c **** 	}
 521:C:/Workspace/FW_Inertia/branch_indesit/Application_Platform\APP_Interpreter.c **** 
 522:C:/Workspace/FW_Inertia/branch_indesit/Application_Platform\APP_Interpreter.c **** 	/*
 523:C:/Workspace/FW_Inertia/branch_indesit/Application_Platform\APP_Interpreter.c **** 	La Fase corrente è stata processata completamente: conclusione naturale,
 524:C:/Workspace/FW_Inertia/branch_indesit/Application_Platform\APP_Interpreter.c **** 	o per JumpIF o per Reset.
 525:C:/Workspace/FW_Inertia/branch_indesit/Application_Platform\APP_Interpreter.c **** 	*/
 526:C:/Workspace/FW_Inertia/branch_indesit/Application_Platform\APP_Interpreter.c **** 
 527:C:/Workspace/FW_Inertia/branch_indesit/Application_Platform\APP_Interpreter.c **** 	if( TESTBIT(phaseFlags, B_RESET_FLAG) )
 528:C:/Workspace/FW_Inertia/branch_indesit/Application_Platform\APP_Interpreter.c **** 	{
 529:C:/Workspace/FW_Inertia/branch_indesit/Application_Platform\APP_Interpreter.c **** 		/*
 530:C:/Workspace/FW_Inertia/branch_indesit/Application_Platform\APP_Interpreter.c **** 		Sarebbe superfluo, phaseFlags è locale e non viene più usata.
 531:C:/Workspace/FW_Inertia/branch_indesit/Application_Platform\APP_Interpreter.c **** 		Infatti il compilatore ottimizza eliminandola.
 532:C:/Workspace/FW_Inertia/branch_indesit/Application_Platform\APP_Interpreter.c **** 		*/
 533:C:/Workspace/FW_Inertia/branch_indesit/Application_Platform\APP_Interpreter.c **** 		CLRBIT(phaseFlags, B_RESET_FLAG);
 534:C:/Workspace/FW_Inertia/branch_indesit/Application_Platform\APP_Interpreter.c **** 		
 535:C:/Workspace/FW_Inertia/branch_indesit/Application_Platform\APP_Interpreter.c **** 		/*
 536:C:/Workspace/FW_Inertia/branch_indesit/Application_Platform\APP_Interpreter.c **** 		Il ciclo termina forzatamente.
 537:C:/Workspace/FW_Inertia/branch_indesit/Application_Platform\APP_Interpreter.c **** 		N.B.A.: questo codice di ritorno deve essere necessariamente processato dalla
 538:C:/Workspace/FW_Inertia/branch_indesit/Application_Platform\APP_Interpreter.c **** 		funzione che chiama ITP_programFlowInterpreter, perchè va stabilito il
 539:C:/Workspace/FW_Inertia/branch_indesit/Application_Platform\APP_Interpreter.c **** 		nuovo ciclo da eseguire (non può essere l'Interprete a farlo): in quel
 540:C:/Workspace/FW_Inertia/branch_indesit/Application_Platform\APP_Interpreter.c **** 		punto va anche opportunamente reimpostata la fase (non necessariamente
 541:C:/Workspace/FW_Inertia/branch_indesit/Application_Platform\APP_Interpreter.c **** 		azzerata), e di conseguenza va azzerato phaseDataInitialized.
 542:C:/Workspace/FW_Inertia/branch_indesit/Application_Platform\APP_Interpreter.c **** 		Per questo phaseDataInitialized non viene esplicitamente azzerato in questo punto.
 543:C:/Workspace/FW_Inertia/branch_indesit/Application_Platform\APP_Interpreter.c **** 		*/
 544:C:/Workspace/FW_Inertia/branch_indesit/Application_Platform\APP_Interpreter.c **** 		return END_CYCLE_RESET;	
 545:C:/Workspace/FW_Inertia/branch_indesit/Application_Platform\APP_Interpreter.c **** 	}
 546:C:/Workspace/FW_Inertia/branch_indesit/Application_Platform\APP_Interpreter.c **** 
 547:C:/Workspace/FW_Inertia/branch_indesit/Application_Platform\APP_Interpreter.c **** 	/* Gestione fase conclusa per Jump IF */
 548:C:/Workspace/FW_Inertia/branch_indesit/Application_Platform\APP_Interpreter.c **** 
 549:C:/Workspace/FW_Inertia/branch_indesit/Application_Platform\APP_Interpreter.c **** 	if (TESTBIT(phaseFlags, B_JUMPIF_FLAG))
 550:C:/Workspace/FW_Inertia/branch_indesit/Application_Platform\APP_Interpreter.c **** 	{
 551:C:/Workspace/FW_Inertia/branch_indesit/Application_Platform\APP_Interpreter.c **** #if (ITP_JIF_RET_ENABLE == 1)
 552:C:/Workspace/FW_Inertia/branch_indesit/Application_Platform\APP_Interpreter.c **** 
 553:C:/Workspace/FW_Inertia/branch_indesit/Application_Platform\APP_Interpreter.c **** 		if( Table_JumpIf[compartment].ret == TRUE )
 554:C:/Workspace/FW_Inertia/branch_indesit/Application_Platform\APP_Interpreter.c **** 		{/* Processato un JumpIF con ritorno */
 555:C:/Workspace/FW_Inertia/branch_indesit/Application_Platform\APP_Interpreter.c **** 		
 556:C:/Workspace/FW_Inertia/branch_indesit/Application_Platform\APP_Interpreter.c **** 			Table_JumpIf[compartment].ret = FALSE;	/*resetto la variabile (VEDI SE SPOSTARE IL RESET NEL UP)
 557:C:/Workspace/FW_Inertia/branch_indesit/Application_Platform\APP_Interpreter.c **** 
 558:C:/Workspace/FW_Inertia/branch_indesit/Application_Platform\APP_Interpreter.c **** 			if( ( Table_JumpIf[compartment].cycle == pCompItpData->cycle) && ( Table_JumpIf[compartment].pha
 559:C:/Workspace/FW_Inertia/branch_indesit/Application_Platform\APP_Interpreter.c **** 			{/* è stato richiesto un JSR allo stesso ciclo/fase: non ammesso! */
 560:C:/Workspace/FW_Inertia/branch_indesit/Application_Platform\APP_Interpreter.c **** 
 561:C:/Workspace/FW_Inertia/branch_indesit/Application_Platform\APP_Interpreter.c **** 				return ITP_ERR_WRONG_COMMAND;	
 562:C:/Workspace/FW_Inertia/branch_indesit/Application_Platform\APP_Interpreter.c **** 			}
 563:C:/Workspace/FW_Inertia/branch_indesit/Application_Platform\APP_Interpreter.c **** 			
 564:C:/Workspace/FW_Inertia/branch_indesit/Application_Platform\APP_Interpreter.c **** 			if ( ITP_saveReturnPoint(compartment)!= S_OK )
 565:C:/Workspace/FW_Inertia/branch_indesit/Application_Platform\APP_Interpreter.c **** 			{/* Salvataggio punto di ritorno nella var Jsr */
 566:C:/Workspace/FW_Inertia/branch_indesit/Application_Platform\APP_Interpreter.c **** 
 567:C:/Workspace/FW_Inertia/branch_indesit/Application_Platform\APP_Interpreter.c **** 				return ITP_ERR_WRONG_COMMAND;
 568:C:/Workspace/FW_Inertia/branch_indesit/Application_Platform\APP_Interpreter.c **** 			}
 569:C:/Workspace/FW_Inertia/branch_indesit/Application_Platform\APP_Interpreter.c **** 
 570:C:/Workspace/FW_Inertia/branch_indesit/Application_Platform\APP_Interpreter.c **** #if ( ITP_JIF_PHASE_ENABLE == 1)
 571:C:/Workspace/FW_Inertia/branch_indesit/Application_Platform\APP_Interpreter.c **** 			
 572:C:/Workspace/FW_Inertia/branch_indesit/Application_Platform\APP_Interpreter.c **** 			JmpPhase_Return[compartment] = JmpPhase[compartment];
 573:C:/Workspace/FW_Inertia/branch_indesit/Application_Platform\APP_Interpreter.c **** 					
 574:C:/Workspace/FW_Inertia/branch_indesit/Application_Platform\APP_Interpreter.c **** #endif /* ITP_JIF_PHASE_ENABLE == 1 */
 575:C:/Workspace/FW_Inertia/branch_indesit/Application_Platform\APP_Interpreter.c **** 
 576:C:/Workspace/FW_Inertia/branch_indesit/Application_Platform\APP_Interpreter.c **** 		}
 577:C:/Workspace/FW_Inertia/branch_indesit/Application_Platform\APP_Interpreter.c **** #endif /* ITP_JIF_RET_ENABLE == 1 */
 578:C:/Workspace/FW_Inertia/branch_indesit/Application_Platform\APP_Interpreter.c **** 
 579:C:/Workspace/FW_Inertia/branch_indesit/Application_Platform\APP_Interpreter.c **** #if ( ITP_JIF_PHASE_ENABLE == 1)
 580:C:/Workspace/FW_Inertia/branch_indesit/Application_Platform\APP_Interpreter.c **** 
 581:C:/Workspace/FW_Inertia/branch_indesit/Application_Platform\APP_Interpreter.c **** 		if( (Table_JumpIf[compartment].cycle == pCompItpData->cycle ) && (Table_JumpIf[compartment].phase
 582:C:/Workspace/FW_Inertia/branch_indesit/Application_Platform\APP_Interpreter.c **** 		{/* se, con un JumpIF valido per passo, salto ad un passo interno al ciclo-fase corrente,
 583:C:/Workspace/FW_Inertia/branch_indesit/Application_Platform\APP_Interpreter.c **** 			non devo resettare JumpIF valido per fase eventualmente presente, 
 584:C:/Workspace/FW_Inertia/branch_indesit/Application_Platform\APP_Interpreter.c **** 			nel momento dell'inizializzazione del passo di destinazione */
 585:C:/Workspace/FW_Inertia/branch_indesit/Application_Platform\APP_Interpreter.c **** 
 586:C:/Workspace/FW_Inertia/branch_indesit/Application_Platform\APP_Interpreter.c **** 			pCompItpData->jumpIF_phase_ctrl = 1;
 587:C:/Workspace/FW_Inertia/branch_indesit/Application_Platform\APP_Interpreter.c **** 		}
 588:C:/Workspace/FW_Inertia/branch_indesit/Application_Platform\APP_Interpreter.c **** 
 589:C:/Workspace/FW_Inertia/branch_indesit/Application_Platform\APP_Interpreter.c **** #endif /* ITP_JIF_PHASE_ENABLE == 1 */		
 590:C:/Workspace/FW_Inertia/branch_indesit/Application_Platform\APP_Interpreter.c **** 
 591:C:/Workspace/FW_Inertia/branch_indesit/Application_Platform\APP_Interpreter.c **** #ifdef CONFIG_PM_POWER_PROFILE_SUPPORT
 592:C:/Workspace/FW_Inertia/branch_indesit/Application_Platform\APP_Interpreter.c ****         /* Backup poichè nel caso in cui si deve attivare il Timeout tra le fasi e riportarsi alla
 593:C:/Workspace/FW_Inertia/branch_indesit/Application_Platform\APP_Interpreter.c ****            "fase precedente" saranno questi i valori corretti da caricare */
 594:C:/Workspace/FW_Inertia/branch_indesit/Application_Platform\APP_Interpreter.c ****         bkp_CompItpDataCycle = Interpreter_Data[0].cycle;
 595:C:/Workspace/FW_Inertia/branch_indesit/Application_Platform\APP_Interpreter.c ****         bkp_CompItpDataPhase = Interpreter_Data[0].phase;
 596:C:/Workspace/FW_Inertia/branch_indesit/Application_Platform\APP_Interpreter.c ****         bkp_CompItpDatamSetting  = Interpreter_Data[0].mSetting;
 597:C:/Workspace/FW_Inertia/branch_indesit/Application_Platform\APP_Interpreter.c ****         bkp_CompItpDataFirstStatement = Interpreter_Data[0].first_statement;
 598:C:/Workspace/FW_Inertia/branch_indesit/Application_Platform\APP_Interpreter.c **** #endif /* CONFIG_PM_POWER_PROFILE_SUPPORT */
 599:C:/Workspace/FW_Inertia/branch_indesit/Application_Platform\APP_Interpreter.c **** 	
 600:C:/Workspace/FW_Inertia/branch_indesit/Application_Platform\APP_Interpreter.c **** 		/*
 601:C:/Workspace/FW_Inertia/branch_indesit/Application_Platform\APP_Interpreter.c **** 		Fase conclusa per JumpIF
 602:C:/Workspace/FW_Inertia/branch_indesit/Application_Platform\APP_Interpreter.c **** 		Aggiornamento indici di Ciclo/Fase/Passo in base alle indic. del up Jump If
 603:C:/Workspace/FW_Inertia/branch_indesit/Application_Platform\APP_Interpreter.c **** 		*/
 604:C:/Workspace/FW_Inertia/branch_indesit/Application_Platform\APP_Interpreter.c **** 		pCompItpData->cycle = Table_JumpIf[compartment].cycle;
 605:C:/Workspace/FW_Inertia/branch_indesit/Application_Platform\APP_Interpreter.c **** 		pCompItpData->phase = Table_JumpIf[compartment].phase;
 606:C:/Workspace/FW_Inertia/branch_indesit/Application_Platform\APP_Interpreter.c **** 		pCompItpData->first_statement = Table_JumpIf[compartment].first_statement;
 607:C:/Workspace/FW_Inertia/branch_indesit/Application_Platform\APP_Interpreter.c **** 
 608:C:/Workspace/FW_Inertia/branch_indesit/Application_Platform\APP_Interpreter.c **** 		/*
 609:C:/Workspace/FW_Inertia/branch_indesit/Application_Platform\APP_Interpreter.c **** 		Viene richiesto comunque di ricaricare i dati della fase, anche se nel
 610:C:/Workspace/FW_Inertia/branch_indesit/Application_Platform\APP_Interpreter.c **** 		caso di salto ad un altro passo della stessa ciclo+fase basterebbe
 611:C:/Workspace/FW_Inertia/branch_indesit/Application_Platform\APP_Interpreter.c **** 		aggiornare first_statement.
 612:C:/Workspace/FW_Inertia/branch_indesit/Application_Platform\APP_Interpreter.c **** 		*/	
 613:C:/Workspace/FW_Inertia/branch_indesit/Application_Platform\APP_Interpreter.c **** 		pCompItpData->phaseDataInitialized = 0;
 614:C:/Workspace/FW_Inertia/branch_indesit/Application_Platform\APP_Interpreter.c **** 
 615:C:/Workspace/FW_Inertia/branch_indesit/Application_Platform\APP_Interpreter.c **** 		/*
 616:C:/Workspace/FW_Inertia/branch_indesit/Application_Platform\APP_Interpreter.c **** 		Sarebbe superfluo, phaseFlags è locale e non viene più usata. 
 617:C:/Workspace/FW_Inertia/branch_indesit/Application_Platform\APP_Interpreter.c **** 		Infatti il compilatore ottimizza eliminandola.
 618:C:/Workspace/FW_Inertia/branch_indesit/Application_Platform\APP_Interpreter.c **** 		*/
 619:C:/Workspace/FW_Inertia/branch_indesit/Application_Platform\APP_Interpreter.c **** 		CLRBIT(phaseFlags, B_JUMPIF_FLAG);
 620:C:/Workspace/FW_Inertia/branch_indesit/Application_Platform\APP_Interpreter.c **** 
 621:C:/Workspace/FW_Inertia/branch_indesit/Application_Platform\APP_Interpreter.c **** 		/* 
 622:C:/Workspace/FW_Inertia/branch_indesit/Application_Platform\APP_Interpreter.c **** 		E' utile ritornare un codice diverso dal semplice END_PHASE, in generale 
 623:C:/Workspace/FW_Inertia/branch_indesit/Application_Platform\APP_Interpreter.c **** 		il Supervisor potrebbe aver bisogno di distinguere questa sistuazione (ad esempio
 624:C:/Workspace/FW_Inertia/branch_indesit/Application_Platform\APP_Interpreter.c **** 		nella gestione delle fasi dei cicli di PROGRAMMING, END, ecc, per le applicazioni
 625:C:/Workspace/FW_Inertia/branch_indesit/Application_Platform\APP_Interpreter.c **** 		in cui sono presenti)
 626:C:/Workspace/FW_Inertia/branch_indesit/Application_Platform\APP_Interpreter.c **** 		*/
 627:C:/Workspace/FW_Inertia/branch_indesit/Application_Platform\APP_Interpreter.c ****   		return PROGRAM_FLOW_BREAK;
 628:C:/Workspace/FW_Inertia/branch_indesit/Application_Platform\APP_Interpreter.c **** 	}
 629:C:/Workspace/FW_Inertia/branch_indesit/Application_Platform\APP_Interpreter.c **** 	/* END gestione fase conclusa per Jump IF */
 630:C:/Workspace/FW_Inertia/branch_indesit/Application_Platform\APP_Interpreter.c **** 
 631:C:/Workspace/FW_Inertia/branch_indesit/Application_Platform\APP_Interpreter.c **** #if ( ITP_JIF_RET_ENABLE == 1 )
 632:C:/Workspace/FW_Inertia/branch_indesit/Application_Platform\APP_Interpreter.c **** 
 633:C:/Workspace/FW_Inertia/branch_indesit/Application_Platform\APP_Interpreter.c **** 	/* Gestione fase conclusa con RETURN */
 634:C:/Workspace/FW_Inertia/branch_indesit/Application_Platform\APP_Interpreter.c **** 
 635:C:/Workspace/FW_Inertia/branch_indesit/Application_Platform\APP_Interpreter.c **** 	if ( TESTBIT(phaseFlags, B_RETURN_FLAG) )
 636:C:/Workspace/FW_Inertia/branch_indesit/Application_Platform\APP_Interpreter.c **** 	{
 637:C:/Workspace/FW_Inertia/branch_indesit/Application_Platform\APP_Interpreter.c **** 		if ( ITP_getReturnPoint(compartment)!= S_OK )
 638:C:/Workspace/FW_Inertia/branch_indesit/Application_Platform\APP_Interpreter.c **** 		{/* Recupero punto di ritorno nella var ReturnPoint */
 639:C:/Workspace/FW_Inertia/branch_indesit/Application_Platform\APP_Interpreter.c **** 
 640:C:/Workspace/FW_Inertia/branch_indesit/Application_Platform\APP_Interpreter.c **** 			return ITP_ERR_WRONG_COMMAND;		
 641:C:/Workspace/FW_Inertia/branch_indesit/Application_Platform\APP_Interpreter.c **** 		}
 642:C:/Workspace/FW_Inertia/branch_indesit/Application_Platform\APP_Interpreter.c **** 		
 643:C:/Workspace/FW_Inertia/branch_indesit/Application_Platform\APP_Interpreter.c **** 		if( ( pCompRetPoint->cycle == pCompItpData->cycle ) && ( pCompRetPoint->phase == pCompItpData->ph
 644:C:/Workspace/FW_Inertia/branch_indesit/Application_Platform\APP_Interpreter.c **** 		{/* Non ammesso Return allo stesso ciclo-fase */
 645:C:/Workspace/FW_Inertia/branch_indesit/Application_Platform\APP_Interpreter.c **** 
 646:C:/Workspace/FW_Inertia/branch_indesit/Application_Platform\APP_Interpreter.c **** 			return ITP_ERR_WRONG_COMMAND;
 647:C:/Workspace/FW_Inertia/branch_indesit/Application_Platform\APP_Interpreter.c **** 		}
 648:C:/Workspace/FW_Inertia/branch_indesit/Application_Platform\APP_Interpreter.c **** 
 649:C:/Workspace/FW_Inertia/branch_indesit/Application_Platform\APP_Interpreter.c **** 		if (pCompRetPoint->cycle == RETURN_END_CYCLE)
 650:C:/Workspace/FW_Inertia/branch_indesit/Application_Platform\APP_Interpreter.c **** 		{/* Return point dopo ultima fase: vado in END */
 651:C:/Workspace/FW_Inertia/branch_indesit/Application_Platform\APP_Interpreter.c **** 
 652:C:/Workspace/FW_Inertia/branch_indesit/Application_Platform\APP_Interpreter.c **** 			CLRBIT(phaseFlags, B_RETURN_FLAG);
 653:C:/Workspace/FW_Inertia/branch_indesit/Application_Platform\APP_Interpreter.c **** 
 654:C:/Workspace/FW_Inertia/branch_indesit/Application_Platform\APP_Interpreter.c **** 			return END_CYCLE;
 655:C:/Workspace/FW_Inertia/branch_indesit/Application_Platform\APP_Interpreter.c **** 		}
 656:C:/Workspace/FW_Inertia/branch_indesit/Application_Platform\APP_Interpreter.c **** 
 657:C:/Workspace/FW_Inertia/branch_indesit/Application_Platform\APP_Interpreter.c **** 		/*Aggiornamento indici di Ciclo/Fase/Passo in base a quanto salvato in Return Point*/
 658:C:/Workspace/FW_Inertia/branch_indesit/Application_Platform\APP_Interpreter.c **** 		pCompItpData->cycle = pCompRetPoint->cycle;
 659:C:/Workspace/FW_Inertia/branch_indesit/Application_Platform\APP_Interpreter.c **** 		pCompItpData->phase = pCompRetPoint->phase;
 660:C:/Workspace/FW_Inertia/branch_indesit/Application_Platform\APP_Interpreter.c **** 		pCompItpData->first_statement = pCompRetPoint->first_statement;
 661:C:/Workspace/FW_Inertia/branch_indesit/Application_Platform\APP_Interpreter.c **** 		
 662:C:/Workspace/FW_Inertia/branch_indesit/Application_Platform\APP_Interpreter.c **** 		pCompItpData->phaseDataInitialized = 0;	/* ritorno nell'inizializzazione ciclo-fase
 663:C:/Workspace/FW_Inertia/branch_indesit/Application_Platform\APP_Interpreter.c **** 													per richiamare il PhaseLoader alla prox iterazione */
 664:C:/Workspace/FW_Inertia/branch_indesit/Application_Platform\APP_Interpreter.c **** 
 665:C:/Workspace/FW_Inertia/branch_indesit/Application_Platform\APP_Interpreter.c **** #if (ITP_JIF_PHASE_ENABLE == 1)
 666:C:/Workspace/FW_Inertia/branch_indesit/Application_Platform\APP_Interpreter.c **** 		JmpPhase[compartment] = JmpPhase_Return[compartment];  /* ripristino dati relativi al JumpIF vali
 667:C:/Workspace/FW_Inertia/branch_indesit/Application_Platform\APP_Interpreter.c **** 
 668:C:/Workspace/FW_Inertia/branch_indesit/Application_Platform\APP_Interpreter.c **** 		pCompItpData->jumpIF_phase_ctrl = 1;	/* non devo cancellare i dati relativi al JUMPIF 
 669:C:/Workspace/FW_Inertia/branch_indesit/Application_Platform\APP_Interpreter.c **** 												valido per fase eventualmente presente */			
 670:C:/Workspace/FW_Inertia/branch_indesit/Application_Platform\APP_Interpreter.c **** #endif /* ITP_JIF_PHASE_ENABLE == 1 */
 671:C:/Workspace/FW_Inertia/branch_indesit/Application_Platform\APP_Interpreter.c **** 
 672:C:/Workspace/FW_Inertia/branch_indesit/Application_Platform\APP_Interpreter.c **** 		CLRBIT(phaseFlags, B_RETURN_FLAG);
 673:C:/Workspace/FW_Inertia/branch_indesit/Application_Platform\APP_Interpreter.c **** 
 674:C:/Workspace/FW_Inertia/branch_indesit/Application_Platform\APP_Interpreter.c **** 		return PROGRAM_FLOW_BREAK;
 675:C:/Workspace/FW_Inertia/branch_indesit/Application_Platform\APP_Interpreter.c **** 	}
 676:C:/Workspace/FW_Inertia/branch_indesit/Application_Platform\APP_Interpreter.c **** 	/* END Gestione fase conclusa con RETURN */	
 677:C:/Workspace/FW_Inertia/branch_indesit/Application_Platform\APP_Interpreter.c **** 
 678:C:/Workspace/FW_Inertia/branch_indesit/Application_Platform\APP_Interpreter.c **** #endif /* ITP_JIF_RET_ENABLE == 1 */
 679:C:/Workspace/FW_Inertia/branch_indesit/Application_Platform\APP_Interpreter.c **** 	
 680:C:/Workspace/FW_Inertia/branch_indesit/Application_Platform\APP_Interpreter.c **** 	if (pCompItpData->phase >= (pCompTableData->nCyclePhases - 1) )
 681:C:/Workspace/FW_Inertia/branch_indesit/Application_Platform\APP_Interpreter.c **** 	{
 682:C:/Workspace/FW_Inertia/branch_indesit/Application_Platform\APP_Interpreter.c **** 		/*
 683:C:/Workspace/FW_Inertia/branch_indesit/Application_Platform\APP_Interpreter.c **** 		Il ciclo termina naturalmente.
 684:C:/Workspace/FW_Inertia/branch_indesit/Application_Platform\APP_Interpreter.c **** 		Vedi nota a prposito di END_CYCLE_RESET.
 685:C:/Workspace/FW_Inertia/branch_indesit/Application_Platform\APP_Interpreter.c **** 		*/
 686:C:/Workspace/FW_Inertia/branch_indesit/Application_Platform\APP_Interpreter.c **** 		return END_CYCLE;
 687:C:/Workspace/FW_Inertia/branch_indesit/Application_Platform\APP_Interpreter.c **** 	}
 688:C:/Workspace/FW_Inertia/branch_indesit/Application_Platform\APP_Interpreter.c **** 
 689:C:/Workspace/FW_Inertia/branch_indesit/Application_Platform\APP_Interpreter.c **** 	/* Avanzamento alla Fase successiva */
 690:C:/Workspace/FW_Inertia/branch_indesit/Application_Platform\APP_Interpreter.c **** 	pCompItpData->phase ++;
 691:C:/Workspace/FW_Inertia/branch_indesit/Application_Platform\APP_Interpreter.c **** 	pCompItpData->first_statement = 0;
 692:C:/Workspace/FW_Inertia/branch_indesit/Application_Platform\APP_Interpreter.c **** 
 693:C:/Workspace/FW_Inertia/branch_indesit/Application_Platform\APP_Interpreter.c **** 	pCompItpData->phaseDataInitialized = 0;
 694:C:/Workspace/FW_Inertia/branch_indesit/Application_Platform\APP_Interpreter.c **** 
 695:C:/Workspace/FW_Inertia/branch_indesit/Application_Platform\APP_Interpreter.c **** 	return END_PHASE;
 696:C:/Workspace/FW_Inertia/branch_indesit/Application_Platform\APP_Interpreter.c **** }
 697:C:/Workspace/FW_Inertia/branch_indesit/Application_Platform\APP_Interpreter.c **** /*lint -restore */
 698:C:/Workspace/FW_Inertia/branch_indesit/Application_Platform\APP_Interpreter.c **** 
 699:C:/Workspace/FW_Inertia/branch_indesit/Application_Platform\APP_Interpreter.c **** 
 700:C:/Workspace/FW_Inertia/branch_indesit/Application_Platform\APP_Interpreter.c **** /**
 701:C:/Workspace/FW_Inertia/branch_indesit/Application_Platform\APP_Interpreter.c **** Viene eseguita quando occorre inizializzare l'interprete. Impone sempre di
 702:C:/Workspace/FW_Inertia/branch_indesit/Application_Platform\APP_Interpreter.c **** ricaricare la fase. E' possibile indicare in ingresso se l'inizializzazione
 703:C:/Workspace/FW_Inertia/branch_indesit/Application_Platform\APP_Interpreter.c **** della fase comporti anche la ripartenza dallo statement iniziale o no.
 704:C:/Workspace/FW_Inertia/branch_indesit/Application_Platform\APP_Interpreter.c ****  
 705:C:/Workspace/FW_Inertia/branch_indesit/Application_Platform\APP_Interpreter.c **** \param [in]		compartment e' il vano in cui viene eseguito l'interprete (solo per ( MULTI_COMPARTMEN
 706:C:/Workspace/FW_Inertia/branch_indesit/Application_Platform\APP_Interpreter.c **** \param [in] 	mode specifica la modalita' di inizializzazione (ITP_FULL_INIT o ITP_PARTIAL_INIT)
 707:C:/Workspace/FW_Inertia/branch_indesit/Application_Platform\APP_Interpreter.c **** \attention		Interpreter_Data (global, struttura con i dati sullo stato
 708:C:/Workspace/FW_Inertia/branch_indesit/Application_Platform\APP_Interpreter.c **** 				corrente dell'interprete) e' usata come output
 709:C:/Workspace/FW_Inertia/branch_indesit/Application_Platform\APP_Interpreter.c **** 
 710:C:/Workspace/FW_Inertia/branch_indesit/Application_Platform\APP_Interpreter.c **** \return			none
 711:C:/Workspace/FW_Inertia/branch_indesit/Application_Platform\APP_Interpreter.c **** 
 712:C:/Workspace/FW_Inertia/branch_indesit/Application_Platform\APP_Interpreter.c **** \warning		ATTENZIONE all'uso di ITP_PARTIAL_INIT se nella deviazione del flusso
 713:C:/Workspace/FW_Inertia/branch_indesit/Application_Platform\APP_Interpreter.c **** 				di esecuzione ci puo' essere una sovrapposizione tra dati di uP con
 714:C:/Workspace/FW_Inertia/branch_indesit/Application_Platform\APP_Interpreter.c **** 				lo stesso OpCode.!!!!
 715:C:/Workspace/FW_Inertia/branch_indesit/Application_Platform\APP_Interpreter.c **** 
 716:C:/Workspace/FW_Inertia/branch_indesit/Application_Platform\APP_Interpreter.c **** \version		1.0.0
 717:C:/Workspace/FW_Inertia/branch_indesit/Application_Platform\APP_Interpreter.c **** \date			30/07/2009
 718:C:/Workspace/FW_Inertia/branch_indesit/Application_Platform\APP_Interpreter.c **** \author			Valeria Catani
 719:C:/Workspace/FW_Inertia/branch_indesit/Application_Platform\APP_Interpreter.c **** */
 720:C:/Workspace/FW_Inertia/branch_indesit/Application_Platform\APP_Interpreter.c **** #if ( MULTI_COMPARTMENT_APPL == 1)
 721:C:/Workspace/FW_Inertia/branch_indesit/Application_Platform\APP_Interpreter.c **** void ITP_interpreterFlagsInit(uint8_t compartment, uint8_t mode)
 722:C:/Workspace/FW_Inertia/branch_indesit/Application_Platform\APP_Interpreter.c **** #else
 723:C:/Workspace/FW_Inertia/branch_indesit/Application_Platform\APP_Interpreter.c **** void ITP_interpreterFlagsInit(uint8_t mode)
 724:C:/Workspace/FW_Inertia/branch_indesit/Application_Platform\APP_Interpreter.c **** #endif /* MULTI_COMPARTMENT_APPL == 1 */
 725:C:/Workspace/FW_Inertia/branch_indesit/Application_Platform\APP_Interpreter.c **** {
  10                             		.loc 1 725 0
  11                             	.LVL0:
 726:C:/Workspace/FW_Inertia/branch_indesit/Application_Platform\APP_Interpreter.c **** #if (MULTI_COMPARTMENT_APPL == 0)
 727:C:/Workspace/FW_Inertia/branch_indesit/Application_Platform\APP_Interpreter.c **** uint8_t compartment = 0;
 728:C:/Workspace/FW_Inertia/branch_indesit/Application_Platform\APP_Interpreter.c **** #endif /* (MULTI_COMPARTMENT_APPL == 0) */  	
 729:C:/Workspace/FW_Inertia/branch_indesit/Application_Platform\APP_Interpreter.c **** Interpreter_Struct *pCompItpData = &Interpreter_Data[compartment];
 730:C:/Workspace/FW_Inertia/branch_indesit/Application_Platform\APP_Interpreter.c **** 
 731:C:/Workspace/FW_Inertia/branch_indesit/Application_Platform\APP_Interpreter.c **** 	/* Forza il caricamento della fase */
 732:C:/Workspace/FW_Inertia/branch_indesit/Application_Platform\APP_Interpreter.c **** 	pCompItpData->phaseDataInitialized = 0;
  12                             		.loc 1 732 0
  13 0000 FB E2 00 00 00 00       		mov.L	#_Interpreter_Data, r14
  14 0006 CD E4 04                		mov.B	4[r14], r4
  15 0009 7A 04                   		bclr	#0, r4
  16 000b C7 E4 04                		mov.B	r4, 4[r14]
 733:C:/Workspace/FW_Inertia/branch_indesit/Application_Platform\APP_Interpreter.c **** 
 734:C:/Workspace/FW_Inertia/branch_indesit/Application_Platform\APP_Interpreter.c **** 	if( mode == ITP_FULL_INIT )
  17                             		.loc 1 734 0
  18 000e 5B 13                   		movu.B	r1, r3
  19 0010 61 03                   		cmp	#0, r3
  20 0012 19                      		bne	.L2
 735:C:/Workspace/FW_Inertia/branch_indesit/Application_Platform\APP_Interpreter.c **** 	{
 736:C:/Workspace/FW_Inertia/branch_indesit/Application_Platform\APP_Interpreter.c **** 		/* Per ripartire dal passo 0 */
 737:C:/Workspace/FW_Inertia/branch_indesit/Application_Platform\APP_Interpreter.c **** 		pCompItpData->first_statement = 0;
  21                             		.loc 1 737 0
  22 0013 C7 E1 03                		mov.B	r1, 3[r14]
 738:C:/Workspace/FW_Inertia/branch_indesit/Application_Platform\APP_Interpreter.c **** 		/* Forza l'inizializzazione dei uProgrammi: processato da tutti */
 739:C:/Workspace/FW_Inertia/branch_indesit/Application_Platform\APP_Interpreter.c **** 		pCompItpData->stepInitialized = 0;
  23                             		.loc 1 739 0
  24 0016 7A 14                   		bclr	#1, r4
 740:C:/Workspace/FW_Inertia/branch_indesit/Application_Platform\APP_Interpreter.c **** 		/*
 741:C:/Workspace/FW_Inertia/branch_indesit/Application_Platform\APP_Interpreter.c **** 		Non serve azzerare optionalStepInitialized se già stepInitialized = 0.
 742:C:/Workspace/FW_Inertia/branch_indesit/Application_Platform\APP_Interpreter.c **** 		Infatti tutti i uProgrammi che processano optionalStepInitialized processano
 743:C:/Workspace/FW_Inertia/branch_indesit/Application_Platform\APP_Interpreter.c **** 		anche stepInitialized, mentre non è vero il viceversa.
 744:C:/Workspace/FW_Inertia/branch_indesit/Application_Platform\APP_Interpreter.c **** 		*/
 745:C:/Workspace/FW_Inertia/branch_indesit/Application_Platform\APP_Interpreter.c **** 
 746:C:/Workspace/FW_Inertia/branch_indesit/Application_Platform\APP_Interpreter.c **** #if (ITP_JIF_PHASE_ENABLE == 1)
 747:C:/Workspace/FW_Inertia/branch_indesit/Application_Platform\APP_Interpreter.c **** 		pCompItpData->jumpIF_phase_ctrl = 0;
  25                             		.loc 1 747 0
  26 0018 7A 34                   		bclr	#3, r4
  27 001a 0E                      		bra	.L4
  28                             	.L2:
 748:C:/Workspace/FW_Inertia/branch_indesit/Application_Platform\APP_Interpreter.c **** #endif /* ITP_JIF_PHASE_ENABLE == 1 */
 749:C:/Workspace/FW_Inertia/branch_indesit/Application_Platform\APP_Interpreter.c ****     }
 750:C:/Workspace/FW_Inertia/branch_indesit/Application_Platform\APP_Interpreter.c **** 	else if( mode == ITP_PARTIAL_INIT )
  29                             		.loc 1 750 0
  30 001b 61 13                   		cmp	#1, r3
  31 001d 1E                      		bne	.L1
 751:C:/Workspace/FW_Inertia/branch_indesit/Application_Platform\APP_Interpreter.c **** 	{
 752:C:/Workspace/FW_Inertia/branch_indesit/Application_Platform\APP_Interpreter.c **** 		/* Forza l'inizializzazione dei uProgrammi: potrebbe non essere processato da tutti */
 753:C:/Workspace/FW_Inertia/branch_indesit/Application_Platform\APP_Interpreter.c **** 	  pCompItpData->optionalStepInitialized = 0;
  32                             		.loc 1 753 0
  33 001e 7A 24                   		bclr	#2, r4
  34                             		.balign 2,3,5
  35                             	.L4:
  36 0020 C7 E4 04                		mov.B	r4, 4[r14]
  37                             	.L1:
  38 0023 02                      		rts
  39                             	.LFE1:
  41                             		.section	.text.DummyMP,"ax",@progbits
  42                             		.global	_DummyMP
  44                             	_DummyMP:
  45                             	.LFB2:
 754:C:/Workspace/FW_Inertia/branch_indesit/Application_Platform\APP_Interpreter.c **** 	}
 755:C:/Workspace/FW_Inertia/branch_indesit/Application_Platform\APP_Interpreter.c **** 	else
 756:C:/Workspace/FW_Inertia/branch_indesit/Application_Platform\APP_Interpreter.c **** 	{
 757:C:/Workspace/FW_Inertia/branch_indesit/Application_Platform\APP_Interpreter.c **** 		/* Do nothing */
 758:C:/Workspace/FW_Inertia/branch_indesit/Application_Platform\APP_Interpreter.c **** 	}
 759:C:/Workspace/FW_Inertia/branch_indesit/Application_Platform\APP_Interpreter.c **** 
 760:C:/Workspace/FW_Inertia/branch_indesit/Application_Platform\APP_Interpreter.c **** #if (SST_COOLSTATE_ENABLE == 1)
 761:C:/Workspace/FW_Inertia/branch_indesit/Application_Platform\APP_Interpreter.c **** 
 762:C:/Workspace/FW_Inertia/branch_indesit/Application_Platform\APP_Interpreter.c **** 	/* stato di OFF */
 763:C:/Workspace/FW_Inertia/branch_indesit/Application_Platform\APP_Interpreter.c **** 
 764:C:/Workspace/FW_Inertia/branch_indesit/Application_Platform\APP_Interpreter.c **** 	Cool_Status = COOLSTATE_OFF;
 765:C:/Workspace/FW_Inertia/branch_indesit/Application_Platform\APP_Interpreter.c **** 
 766:C:/Workspace/FW_Inertia/branch_indesit/Application_Platform\APP_Interpreter.c **** #endif /* (SST_COOLSTATE_ENABLE == 1) */
 767:C:/Workspace/FW_Inertia/branch_indesit/Application_Platform\APP_Interpreter.c **** }
 768:C:/Workspace/FW_Inertia/branch_indesit/Application_Platform\APP_Interpreter.c **** 
 769:C:/Workspace/FW_Inertia/branch_indesit/Application_Platform\APP_Interpreter.c **** 
 770:C:/Workspace/FW_Inertia/branch_indesit/Application_Platform\APP_Interpreter.c **** /**
 771:C:/Workspace/FW_Inertia/branch_indesit/Application_Platform\APP_Interpreter.c **** Viene eseguita nel caso in cui l'interprete incontri un microprogramma con
 772:C:/Workspace/FW_Inertia/branch_indesit/Application_Platform\APP_Interpreter.c **** un codice sconosciuto, dunque normalmente mai.
 773:C:/Workspace/FW_Inertia/branch_indesit/Application_Platform\APP_Interpreter.c **** In caso contrario significa che il file di setting presenta dei problemi.
 774:C:/Workspace/FW_Inertia/branch_indesit/Application_Platform\APP_Interpreter.c **** 
 775:C:/Workspace/FW_Inertia/branch_indesit/Application_Platform\APP_Interpreter.c **** \param [in]		highStatement e' l'High Statement del microprogramma (T flag +
 776:C:/Workspace/FW_Inertia/branch_indesit/Application_Platform\APP_Interpreter.c **** 				N flag + modificatori F1-F0 + opcode).
 777:C:/Workspace/FW_Inertia/branch_indesit/Application_Platform\APP_Interpreter.c **** \param [in]		lowStatement e' il Low Statement del microprogramma (indice
 778:C:/Workspace/FW_Inertia/branch_indesit/Application_Platform\APP_Interpreter.c **** 				dello spiazzamento della tabella dati associata)
 779:C:/Workspace/FW_Inertia/branch_indesit/Application_Platform\APP_Interpreter.c **** \param [in]		compartment e' il vano in cui viene eseguito il microprogramma (solo per ( MULTI_COMPA
 780:C:/Workspace/FW_Inertia/branch_indesit/Application_Platform\APP_Interpreter.c **** 
 781:C:/Workspace/FW_Inertia/branch_indesit/Application_Platform\APP_Interpreter.c **** \return			S_FALSE
 782:C:/Workspace/FW_Inertia/branch_indesit/Application_Platform\APP_Interpreter.c **** 
 783:C:/Workspace/FW_Inertia/branch_indesit/Application_Platform\APP_Interpreter.c **** \warning		none		
 784:C:/Workspace/FW_Inertia/branch_indesit/Application_Platform\APP_Interpreter.c **** 
 785:C:/Workspace/FW_Inertia/branch_indesit/Application_Platform\APP_Interpreter.c **** \version		1.1.0
 786:C:/Workspace/FW_Inertia/branch_indesit/Application_Platform\APP_Interpreter.c **** \date			08/05/2008
 787:C:/Workspace/FW_Inertia/branch_indesit/Application_Platform\APP_Interpreter.c **** \author			Marco Quintini
 788:C:/Workspace/FW_Inertia/branch_indesit/Application_Platform\APP_Interpreter.c **** */
 789:C:/Workspace/FW_Inertia/branch_indesit/Application_Platform\APP_Interpreter.c **** /*lint -save -e715 */
 790:C:/Workspace/FW_Inertia/branch_indesit/Application_Platform\APP_Interpreter.c **** #if (MULTI_COMPARTMENT_APPL == 1)		
 791:C:/Workspace/FW_Inertia/branch_indesit/Application_Platform\APP_Interpreter.c **** uint8_t DummyMP( uint8_t highStatement, uint8_t lowStatement, uint8_t compartment)
 792:C:/Workspace/FW_Inertia/branch_indesit/Application_Platform\APP_Interpreter.c **** #else
 793:C:/Workspace/FW_Inertia/branch_indesit/Application_Platform\APP_Interpreter.c **** uint8_t DummyMP( uint8_t highStatement, uint8_t lowStatement)
 794:C:/Workspace/FW_Inertia/branch_indesit/Application_Platform\APP_Interpreter.c **** #endif /* (MULTI_COMPARTMENT_APPL == 1) */
 795:C:/Workspace/FW_Inertia/branch_indesit/Application_Platform\APP_Interpreter.c **** {
  46                             		.loc 1 795 0
  47                             	.LVL1:
 796:C:/Workspace/FW_Inertia/branch_indesit/Application_Platform\APP_Interpreter.c **** #ifdef _ITP_CHECKERRORS_			    	
 797:C:/Workspace/FW_Inertia/branch_indesit/Application_Platform\APP_Interpreter.c **** 	DBG_CheckErr(ITP_ERR_UNKNOWN_OPCODE);
 798:C:/Workspace/FW_Inertia/branch_indesit/Application_Platform\APP_Interpreter.c **** #endif /* _ITP_CHECKERRORS_ */
 799:C:/Workspace/FW_Inertia/branch_indesit/Application_Platform\APP_Interpreter.c **** 
 800:C:/Workspace/FW_Inertia/branch_indesit/Application_Platform\APP_Interpreter.c **** 	return S_FALSE;
 801:C:/Workspace/FW_Inertia/branch_indesit/Application_Platform\APP_Interpreter.c **** }
  48                             		.loc 1 801 0
  49 0000 66 11                   		mov.L	#1, r1
  50                             	.LVL2:
  51 0002 02                      		rts
  52                             	.LFE2:
  54                             		.section	.text.ITP_saveReturnPoint,"ax",@progbits
  55                             		.global	_ITP_saveReturnPoint
  57                             	_ITP_saveReturnPoint:
  58                             	.LFB3:
 802:C:/Workspace/FW_Inertia/branch_indesit/Application_Platform\APP_Interpreter.c **** /*lint -restore */
 803:C:/Workspace/FW_Inertia/branch_indesit/Application_Platform\APP_Interpreter.c **** 
 804:C:/Workspace/FW_Inertia/branch_indesit/Application_Platform\APP_Interpreter.c **** 
 805:C:/Workspace/FW_Inertia/branch_indesit/Application_Platform\APP_Interpreter.c **** /* ************** */
 806:C:/Workspace/FW_Inertia/branch_indesit/Application_Platform\APP_Interpreter.c **** /* Local Function */
 807:C:/Workspace/FW_Inertia/branch_indesit/Application_Platform\APP_Interpreter.c **** /* ************** */
 808:C:/Workspace/FW_Inertia/branch_indesit/Application_Platform\APP_Interpreter.c **** 
 809:C:/Workspace/FW_Inertia/branch_indesit/Application_Platform\APP_Interpreter.c **** #if ( ITP_JIF_RET_ENABLE == 1 )
 810:C:/Workspace/FW_Inertia/branch_indesit/Application_Platform\APP_Interpreter.c **** /**
 811:C:/Workspace/FW_Inertia/branch_indesit/Application_Platform\APP_Interpreter.c **** Questa funzione salva il punto di ritorno (ciclo, fase, passo)
 812:C:/Workspace/FW_Inertia/branch_indesit/Application_Platform\APP_Interpreter.c **** per un microprogramma JumpIF con ritorno (JSR).
 813:C:/Workspace/FW_Inertia/branch_indesit/Application_Platform\APP_Interpreter.c **** Viene gestito uno Stack di possibili JSR.
 814:C:/Workspace/FW_Inertia/branch_indesit/Application_Platform\APP_Interpreter.c **** Si ritornerà al punto salvato incontrando il uP dedicato RETURN
 815:C:/Workspace/FW_Inertia/branch_indesit/Application_Platform\APP_Interpreter.c **** 
 816:C:/Workspace/FW_Inertia/branch_indesit/Application_Platform\APP_Interpreter.c **** \param [in]		compartment e' il vano/ cavità che si sta processando 
 817:C:/Workspace/FW_Inertia/branch_indesit/Application_Platform\APP_Interpreter.c **** \(per funzioni mono vano compartment =0)
 818:C:/Workspace/FW_Inertia/branch_indesit/Application_Platform\APP_Interpreter.c **** 
 819:C:/Workspace/FW_Inertia/branch_indesit/Application_Platform\APP_Interpreter.c **** \param [out] (global) Jsr[compartment]
 820:C:/Workspace/FW_Inertia/branch_indesit/Application_Platform\APP_Interpreter.c **** 
 821:C:/Workspace/FW_Inertia/branch_indesit/Application_Platform\APP_Interpreter.c **** \return		S_OK o S_FALSE in caso di out of range rispetto allo stack dedicato
 822:C:/Workspace/FW_Inertia/branch_indesit/Application_Platform\APP_Interpreter.c ****  
 823:C:/Workspace/FW_Inertia/branch_indesit/Application_Platform\APP_Interpreter.c **** \version	1.0.0
 824:C:/Workspace/FW_Inertia/branch_indesit/Application_Platform\APP_Interpreter.c **** \date 		30/07/2009
 825:C:/Workspace/FW_Inertia/branch_indesit/Application_Platform\APP_Interpreter.c **** \author	Valeria Catani
 826:C:/Workspace/FW_Inertia/branch_indesit/Application_Platform\APP_Interpreter.c **** */
 827:C:/Workspace/FW_Inertia/branch_indesit/Application_Platform\APP_Interpreter.c **** uint8_t ITP_saveReturnPoint(uint8_t compartment)
 828:C:/Workspace/FW_Inertia/branch_indesit/Application_Platform\APP_Interpreter.c **** {
  59                             		.loc 1 828 0
 829:C:/Workspace/FW_Inertia/branch_indesit/Application_Platform\APP_Interpreter.c **** uint8_t endPhaseReturn,endCycleReturn;
 830:C:/Workspace/FW_Inertia/branch_indesit/Application_Platform\APP_Interpreter.c **** JsrStack_Struct *pCompJsr = &Jsr[compartment];
  60                             		.loc 1 830 0
  61 0000 5B 11                   		movu.B	r1, r1
  62 0002 EF 1E                   		mov.L	r1, r14
  63 0004 63 7E                   		mul	#7, r14
  64 0006 70 EE 00 00 00 00       		add	#_Jsr, r14
 831:C:/Workspace/FW_Inertia/branch_indesit/Application_Platform\APP_Interpreter.c **** Interpreter_Struct *pCompItpData = &Interpreter_Data[compartment];
 832:C:/Workspace/FW_Inertia/branch_indesit/Application_Platform\APP_Interpreter.c **** PhaseLoader_Struct *pCompTableData = &TableData[compartment];
 833:C:/Workspace/FW_Inertia/branch_indesit/Application_Platform\APP_Interpreter.c **** uint8_t *pStepLength = &StepLength[compartment];
 834:C:/Workspace/FW_Inertia/branch_indesit/Application_Platform\APP_Interpreter.c **** 
 835:C:/Workspace/FW_Inertia/branch_indesit/Application_Platform\APP_Interpreter.c **** 	endPhaseReturn = FALSE;
 836:C:/Workspace/FW_Inertia/branch_indesit/Application_Platform\APP_Interpreter.c **** 	endCycleReturn = FALSE;
 837:C:/Workspace/FW_Inertia/branch_indesit/Application_Platform\APP_Interpreter.c **** 
 838:C:/Workspace/FW_Inertia/branch_indesit/Application_Platform\APP_Interpreter.c **** 	if( pCompJsr->index < sizeof( pCompJsr->stack ) )
  65                             		.loc 1 838 0
  66 000c CD E4 06                		mov.B	6[r14], r4
  67 000f 5B 43                   		movu.B	r4, r3
  68 0011 61 53                   		cmp	#5, r3
  69 0013 25 0A                   		bleu	.L7
  70 0015 38 98 00                		bra	.L24
  71                             	.L11:
  72                             	.LCFI0:
 839:C:/Workspace/FW_Inertia/branch_indesit/Application_Platform\APP_Interpreter.c **** 	{
 840:C:/Workspace/FW_Inertia/branch_indesit/Application_Platform\APP_Interpreter.c **** 		/*
 841:C:/Workspace/FW_Inertia/branch_indesit/Application_Platform\APP_Interpreter.c **** 		Salva statement iniziale passo successivo per avere immediatamente
 842:C:/Workspace/FW_Inertia/branch_indesit/Application_Platform\APP_Interpreter.c **** 		il punto di ritorno
 843:C:/Workspace/FW_Inertia/branch_indesit/Application_Platform\APP_Interpreter.c **** 		*/
 844:C:/Workspace/FW_Inertia/branch_indesit/Application_Platform\APP_Interpreter.c **** 
 845:C:/Workspace/FW_Inertia/branch_indesit/Application_Platform\APP_Interpreter.c **** 		if ( (pCompItpData->first_statement + *pStepLength) ==  pCompTableData->nPhaseStatements )	/* ver
 846:C:/Workspace/FW_Inertia/branch_indesit/Application_Platform\APP_Interpreter.c **** 		{/* return point al termine della fase -> punto alla fase successiva */
 847:C:/Workspace/FW_Inertia/branch_indesit/Application_Platform\APP_Interpreter.c **** 
 848:C:/Workspace/FW_Inertia/branch_indesit/Application_Platform\APP_Interpreter.c **** 			pCompJsr->stack[pCompJsr->index] = 0;
 849:C:/Workspace/FW_Inertia/branch_indesit/Application_Platform\APP_Interpreter.c **** 
 850:C:/Workspace/FW_Inertia/branch_indesit/Application_Platform\APP_Interpreter.c **** 			endPhaseReturn = TRUE;
 851:C:/Workspace/FW_Inertia/branch_indesit/Application_Platform\APP_Interpreter.c **** 		}
 852:C:/Workspace/FW_Inertia/branch_indesit/Application_Platform\APP_Interpreter.c **** 		else
 853:C:/Workspace/FW_Inertia/branch_indesit/Application_Platform\APP_Interpreter.c **** 		{
 854:C:/Workspace/FW_Inertia/branch_indesit/Application_Platform\APP_Interpreter.c **** 			pCompJsr->stack[pCompJsr->index] = ( pCompItpData->first_statement + *pStepLength );	/* verifica
 855:C:/Workspace/FW_Inertia/branch_indesit/Application_Platform\APP_Interpreter.c **** 		}
 856:C:/Workspace/FW_Inertia/branch_indesit/Application_Platform\APP_Interpreter.c **** 
 857:C:/Workspace/FW_Inertia/branch_indesit/Application_Platform\APP_Interpreter.c **** 		pCompJsr->index ++;
 858:C:/Workspace/FW_Inertia/branch_indesit/Application_Platform\APP_Interpreter.c **** 	}
 859:C:/Workspace/FW_Inertia/branch_indesit/Application_Platform\APP_Interpreter.c **** 	else
 860:C:/Workspace/FW_Inertia/branch_indesit/Application_Platform\APP_Interpreter.c **** 	{
 861:C:/Workspace/FW_Inertia/branch_indesit/Application_Platform\APP_Interpreter.c **** 		return S_FALSE;
  73                             		.loc 1 861 0
  74 0018 66 11                   		mov	#1, r1
  75 001a 38 8E 00                		bra	.L8
  76                             	.L7:
  77                             	.LCFI1:
 828:C:/Workspace/FW_Inertia/branch_indesit/Application_Platform\APP_Interpreter.c **** {
  78                             		.loc 1 828 0
  79 001d 6E 7A                   		pushm	r7-r10
  80                             	.LCFI2:
 831:C:/Workspace/FW_Inertia/branch_indesit/Application_Platform\APP_Interpreter.c **** Interpreter_Struct *pCompItpData = &Interpreter_Data[compartment];
  81                             		.loc 1 831 0
  82 001f EF 12                   		mov.L	r1, r2
  83 0021 63 62                   		mul	#6, r2
  84 0023 70 22 00 00 00 00       		add	#_Interpreter_Data, r2
 832:C:/Workspace/FW_Inertia/branch_indesit/Application_Platform\APP_Interpreter.c **** PhaseLoader_Struct *pCompTableData = &TableData[compartment];
  85                             		.loc 1 832 0
  86 0029 EF 1F                   		mov.L	r1, r15
  87 002b 63 CF                   		mul	#12, r15
  88 002d 70 FF 00 00 00 00       		add	#_TableData, r15
 845:C:/Workspace/FW_Inertia/branch_indesit/Application_Platform\APP_Interpreter.c **** 		if ( (pCompItpData->first_statement + *pStepLength) ==  pCompTableData->nPhaseStatements )	/* ver
  89                             		.loc 1 845 0
  90 0033 88 AD                   		mov.B	3[r2], r5
  91 0035 FB 72 00 00 00 00       		mov.L	#_StepLength, r7
  92 003b FE 41 71                		mov.B	[r1,r7], r1
  93 003e 5B 5A                   		movu.B	r5, r10
  94 0040 5B 17                   		movu.B	r1, r7
  95 0042 4B 7A                   		add	r7, r10
  96 0044 45 FA 01                		cmp	1[r15].UB, r10
  97 0047 19                      		bne	.L9
 848:C:/Workspace/FW_Inertia/branch_indesit/Application_Platform\APP_Interpreter.c **** 			pCompJsr->stack[pCompJsr->index] = 0;
  98                             		.loc 1 848 0
  99 0048 66 07                   		mov	#0, r7
 100 004a FE 03 E7                		mov.B	r7, [r3,r14]
 850:C:/Workspace/FW_Inertia/branch_indesit/Application_Platform\APP_Interpreter.c **** 			endPhaseReturn = TRUE;
 101                             		.loc 1 850 0
 102 004d 66 11                   		mov	#1, r1
 103 004f 09                      		bra	.L10
 104                             	.L9:
 854:C:/Workspace/FW_Inertia/branch_indesit/Application_Platform\APP_Interpreter.c **** 			pCompJsr->stack[pCompJsr->index] = ( pCompItpData->first_statement + *pStepLength );	/* verifica
 105                             		.loc 1 854 0
 106 0050 4B 15                   		add	r1, r5
 107 0052 FE 03 E5                		mov.B	r5, [r3,r14]
 835:C:/Workspace/FW_Inertia/branch_indesit/Application_Platform\APP_Interpreter.c **** 	endPhaseReturn = FALSE;
 108                             		.loc 1 835 0
 109 0055 66 01                   		mov	#0, r1
 110 0057 03                      		.balign 2,3,2
 111                             	.L10:
 857:C:/Workspace/FW_Inertia/branch_indesit/Application_Platform\APP_Interpreter.c **** 		pCompJsr->index ++;
 112                             		.loc 1 857 0
 113 0058 71 43 01                		add	#1, r4, r3
 114 005b C7 E3 06                		mov.B	r3, 6[r14]
 862:C:/Workspace/FW_Inertia/branch_indesit/Application_Platform\APP_Interpreter.c **** 	}
 863:C:/Workspace/FW_Inertia/branch_indesit/Application_Platform\APP_Interpreter.c **** 
 864:C:/Workspace/FW_Inertia/branch_indesit/Application_Platform\APP_Interpreter.c **** 	if( pCompJsr->index < sizeof( pCompJsr->stack ) )
 115                             		.loc 1 864 0
 116 005e 5B 33                   		movu.B	r3, r3
 117 0060 61 63                   		cmp	#6, r3
 118 0062 20 B6                   		beq	.L11
 865:C:/Workspace/FW_Inertia/branch_indesit/Application_Platform\APP_Interpreter.c **** 	{
 866:C:/Workspace/FW_Inertia/branch_indesit/Application_Platform\APP_Interpreter.c **** 		/* Salva fase di ritorno */
 867:C:/Workspace/FW_Inertia/branch_indesit/Application_Platform\APP_Interpreter.c **** 
 868:C:/Workspace/FW_Inertia/branch_indesit/Application_Platform\APP_Interpreter.c **** 		if (endPhaseReturn == TRUE)
 119                             		.loc 1 868 0
 120 0064 5B 11                   		movu.B	r1, r1
 121 0066 88 A5                   		mov.B	2[r2], r5
 122 0068 61 11                   		cmp	#1, r1
 123 006a 21 12                   		bne	.L12
 869:C:/Workspace/FW_Inertia/branch_indesit/Application_Platform\APP_Interpreter.c **** 		{/* return point al termine della fase -> punto alla fase successiva */
 870:C:/Workspace/FW_Inertia/branch_indesit/Application_Platform\APP_Interpreter.c **** 			if ( (pCompItpData->phase + 1) == pCompTableData->nCyclePhases )
 124                             		.loc 1 870 0
 125 006c 5B 57                   		movu.B	r5, r7
 126 006e 62 17                   		add	#1, r7
 127 0070 44 F7                   		cmp	[r15].UB, r7
 128 0072 1F                      		bne	.L13
 871:C:/Workspace/FW_Inertia/branch_indesit/Application_Platform\APP_Interpreter.c **** 			{/* return point al termine del ciclo -> devo andare in END */
 872:C:/Workspace/FW_Inertia/branch_indesit/Application_Platform\APP_Interpreter.c **** 
 873:C:/Workspace/FW_Inertia/branch_indesit/Application_Platform\APP_Interpreter.c **** 				pCompJsr->stack[pCompJsr->index] = 0;
 129                             		.loc 1 873 0
 130 0073 66 07                   		mov	#0, r7
 131 0075 FE 03 E7                		mov.B	r7, [r3,r14]
 132 0078 0A                      		bra	.L14
 133                             	.L13:
 874:C:/Workspace/FW_Inertia/branch_indesit/Application_Platform\APP_Interpreter.c **** 				endCycleReturn = TRUE;
 875:C:/Workspace/FW_Inertia/branch_indesit/Application_Platform\APP_Interpreter.c **** 			}
 876:C:/Workspace/FW_Inertia/branch_indesit/Application_Platform\APP_Interpreter.c **** 			else
 877:C:/Workspace/FW_Inertia/branch_indesit/Application_Platform\APP_Interpreter.c **** 			{/* posso incrementare la fase */
 878:C:/Workspace/FW_Inertia/branch_indesit/Application_Platform\APP_Interpreter.c **** 				pCompJsr->stack[pCompJsr->index] = (pCompItpData->phase + 1);
 134                             		.loc 1 878 0
 135 0079 62 15                   		add	#1, r5
 136 007b 03                      		.balign 2,3,5
 137                             	.L12:
 879:C:/Workspace/FW_Inertia/branch_indesit/Application_Platform\APP_Interpreter.c **** 			}
 880:C:/Workspace/FW_Inertia/branch_indesit/Application_Platform\APP_Interpreter.c **** 		}
 881:C:/Workspace/FW_Inertia/branch_indesit/Application_Platform\APP_Interpreter.c **** 		else
 882:C:/Workspace/FW_Inertia/branch_indesit/Application_Platform\APP_Interpreter.c **** 		{
 883:C:/Workspace/FW_Inertia/branch_indesit/Application_Platform\APP_Interpreter.c **** 			pCompJsr->stack[pCompJsr->index] = pCompItpData->phase;
 138                             		.loc 1 883 0
 139 007c FE 03 E5                		mov.B	r5, [r3,r14]
 836:C:/Workspace/FW_Inertia/branch_indesit/Application_Platform\APP_Interpreter.c **** 	endCycleReturn = FALSE;
 140                             		.loc 1 836 0
 141 007f 66 01                   		mov	#0, r1
 142 0081 03                      		.balign 2,3,2
 143                             	.L14:
 884:C:/Workspace/FW_Inertia/branch_indesit/Application_Platform\APP_Interpreter.c **** 		}
 885:C:/Workspace/FW_Inertia/branch_indesit/Application_Platform\APP_Interpreter.c **** 
 886:C:/Workspace/FW_Inertia/branch_indesit/Application_Platform\APP_Interpreter.c **** 		pCompJsr->index ++;
 144                             		.loc 1 886 0
 145 0082 71 43 02                		add	#2, r4, r3
 146 0085 C7 E3 06                		mov.B	r3, 6[r14]
 887:C:/Workspace/FW_Inertia/branch_indesit/Application_Platform\APP_Interpreter.c **** 	}					   
 888:C:/Workspace/FW_Inertia/branch_indesit/Application_Platform\APP_Interpreter.c **** 	else
 889:C:/Workspace/FW_Inertia/branch_indesit/Application_Platform\APP_Interpreter.c **** 	{
 890:C:/Workspace/FW_Inertia/branch_indesit/Application_Platform\APP_Interpreter.c **** 		return S_FALSE;
 891:C:/Workspace/FW_Inertia/branch_indesit/Application_Platform\APP_Interpreter.c **** 	}
 892:C:/Workspace/FW_Inertia/branch_indesit/Application_Platform\APP_Interpreter.c **** 
 893:C:/Workspace/FW_Inertia/branch_indesit/Application_Platform\APP_Interpreter.c **** 	if( pCompJsr->index < sizeof( pCompJsr->stack ) )
 147                             		.loc 1 893 0
 148 0088 5B 33                   		movu.B	r3, r3
 149 008a 61 63                   		cmp	#6, r3
 150 008c 20 8C                   		beq	.L11
 894:C:/Workspace/FW_Inertia/branch_indesit/Application_Platform\APP_Interpreter.c **** 	{
 895:C:/Workspace/FW_Inertia/branch_indesit/Application_Platform\APP_Interpreter.c **** 		/* Salva ciclo di ritorno */
 896:C:/Workspace/FW_Inertia/branch_indesit/Application_Platform\APP_Interpreter.c **** 
 897:C:/Workspace/FW_Inertia/branch_indesit/Application_Platform\APP_Interpreter.c **** 		if (endCycleReturn == TRUE)
 151                             		.loc 1 897 0
 152 008e 5B 11                   		movu.B	r1, r1
 153 0090 61 11                   		cmp	#1, r1
 154 0092 18                      		bne	.L15
 898:C:/Workspace/FW_Inertia/branch_indesit/Application_Platform\APP_Interpreter.c **** 		{
 899:C:/Workspace/FW_Inertia/branch_indesit/Application_Platform\APP_Interpreter.c **** 			pCompJsr->stack[pCompJsr->index] = RETURN_END_CYCLE;
 155                             		.loc 1 899 0
 156 0093 FB 76 FF                		mov	#-1, r7
 157 0096 FE 03 E7                		mov.B	r7, [r3,r14]
 158 0099 0F                      		bra	.L16
 159                             	.L15:
 900:C:/Workspace/FW_Inertia/branch_indesit/Application_Platform\APP_Interpreter.c **** 		}
 901:C:/Workspace/FW_Inertia/branch_indesit/Application_Platform\APP_Interpreter.c **** 		else
 902:C:/Workspace/FW_Inertia/branch_indesit/Application_Platform\APP_Interpreter.c **** 		{
 903:C:/Workspace/FW_Inertia/branch_indesit/Application_Platform\APP_Interpreter.c **** 			pCompJsr->stack[pCompJsr->index] = pCompItpData->cycle;
 160                             		.loc 1 903 0
 161 009a 88 2A                   		mov.B	1[r2], r2
 162 009c FE 03 E2                		mov.B	r2, [r3,r14]
 163 009f 03                      		.balign 2,3,1
 164                             	.L16:
 904:C:/Workspace/FW_Inertia/branch_indesit/Application_Platform\APP_Interpreter.c **** 		}
 905:C:/Workspace/FW_Inertia/branch_indesit/Application_Platform\APP_Interpreter.c **** 
 906:C:/Workspace/FW_Inertia/branch_indesit/Application_Platform\APP_Interpreter.c **** 		pCompJsr->index ++;
 165                             		.loc 1 906 0
 166 00a0 62 34                   		add	#3, r4
 167 00a2 C7 E4 06                		mov.B	r4, 6[r14]
 907:C:/Workspace/FW_Inertia/branch_indesit/Application_Platform\APP_Interpreter.c **** 	    
 908:C:/Workspace/FW_Inertia/branch_indesit/Application_Platform\APP_Interpreter.c **** 		return S_OK;
 168                             		.loc 1 908 0
 169 00a5 66 01                   		mov	#0, r1
 170 00a7 03                      		.balign 2,3,1
 171                             	.L8:
 909:C:/Workspace/FW_Inertia/branch_indesit/Application_Platform\APP_Interpreter.c **** 	}
 910:C:/Workspace/FW_Inertia/branch_indesit/Application_Platform\APP_Interpreter.c **** 	else
 911:C:/Workspace/FW_Inertia/branch_indesit/Application_Platform\APP_Interpreter.c **** 	{
 912:C:/Workspace/FW_Inertia/branch_indesit/Application_Platform\APP_Interpreter.c **** 		return S_FALSE;
 913:C:/Workspace/FW_Inertia/branch_indesit/Application_Platform\APP_Interpreter.c **** 	}
 914:C:/Workspace/FW_Inertia/branch_indesit/Application_Platform\APP_Interpreter.c **** }
 172                             		.loc 1 914 0
 173 00a8 64 11                   		and #1, r1
 174 00aa 3F 7A 04                		rtsd	#16, r7-r10
 175                             	.L24:
 176                             	.LCFI3:
 861:C:/Workspace/FW_Inertia/branch_indesit/Application_Platform\APP_Interpreter.c **** 		return S_FALSE;
 177                             		.loc 1 861 0
 178 00ad 66 11                   		mov	#1, r1
 179                             		.loc 1 914 0
 180 00af 64 11                   		and #1, r1
 181 00b1 02                      		rts
 182                             	.LFE3:
 184                             		.section	.text.ITP_getReturnPoint,"ax",@progbits
 185                             		.global	_ITP_getReturnPoint
 187                             	_ITP_getReturnPoint:
 188                             	.LFB4:
 915:C:/Workspace/FW_Inertia/branch_indesit/Application_Platform\APP_Interpreter.c **** 
 916:C:/Workspace/FW_Inertia/branch_indesit/Application_Platform\APP_Interpreter.c **** 
 917:C:/Workspace/FW_Inertia/branch_indesit/Application_Platform\APP_Interpreter.c **** /**
 918:C:/Workspace/FW_Inertia/branch_indesit/Application_Platform\APP_Interpreter.c **** Questa funzione restituisce il punto di ritorno (ciclo, fase, passo)
 919:C:/Workspace/FW_Inertia/branch_indesit/Application_Platform\APP_Interpreter.c **** in corrispondenza del microprogramma RETURN, conseguenza di un JSR.
 920:C:/Workspace/FW_Inertia/branch_indesit/Application_Platform\APP_Interpreter.c **** Viene gestito uno Stack di possibili JSR.
 921:C:/Workspace/FW_Inertia/branch_indesit/Application_Platform\APP_Interpreter.c ****  
 922:C:/Workspace/FW_Inertia/branch_indesit/Application_Platform\APP_Interpreter.c **** \param [in]		compartment e' il vano/ cavità che si sta processando 
 923:C:/Workspace/FW_Inertia/branch_indesit/Application_Platform\APP_Interpreter.c **** \(per funzioni mono vano compartment =0)
 924:C:/Workspace/FW_Inertia/branch_indesit/Application_Platform\APP_Interpreter.c ****  
 925:C:/Workspace/FW_Inertia/branch_indesit/Application_Platform\APP_Interpreter.c **** \param [out] (global) ReturnPoint[compartment]
 926:C:/Workspace/FW_Inertia/branch_indesit/Application_Platform\APP_Interpreter.c **** 
 927:C:/Workspace/FW_Inertia/branch_indesit/Application_Platform\APP_Interpreter.c **** \return		S_OK o S_FALSE in caso di out of range rispetto allo stack dedicato
 928:C:/Workspace/FW_Inertia/branch_indesit/Application_Platform\APP_Interpreter.c ****  
 929:C:/Workspace/FW_Inertia/branch_indesit/Application_Platform\APP_Interpreter.c **** \version    	1.0.0
 930:C:/Workspace/FW_Inertia/branch_indesit/Application_Platform\APP_Interpreter.c **** \date 			30/07/2009
 931:C:/Workspace/FW_Inertia/branch_indesit/Application_Platform\APP_Interpreter.c **** \author			Valeria Catani
 932:C:/Workspace/FW_Inertia/branch_indesit/Application_Platform\APP_Interpreter.c **** */
 933:C:/Workspace/FW_Inertia/branch_indesit/Application_Platform\APP_Interpreter.c **** uint8_t ITP_getReturnPoint(uint8_t compartment)
 934:C:/Workspace/FW_Inertia/branch_indesit/Application_Platform\APP_Interpreter.c **** {
 189                             		.loc 1 934 0
 935:C:/Workspace/FW_Inertia/branch_indesit/Application_Platform\APP_Interpreter.c **** JsrStack_Struct *pCompJsr = &Jsr[compartment];
 190                             		.loc 1 935 0
 191 0000 5B 11                   		movu.B	r1, r1
 192 0002 EF 1E                   		mov.L	r1, r14
 193 0004 63 7E                   		mul	#7, r14
 194 0006 70 EE 00 00 00 00       		add	#_Jsr, r14
 936:C:/Workspace/FW_Inertia/branch_indesit/Application_Platform\APP_Interpreter.c **** RetPoint_Struct *pCompRetPoint = &ReturnPoint[compartment];
 937:C:/Workspace/FW_Inertia/branch_indesit/Application_Platform\APP_Interpreter.c **** 
 938:C:/Workspace/FW_Inertia/branch_indesit/Application_Platform\APP_Interpreter.c **** 	if( pCompJsr->index )
 195                             		.loc 1 938 0
 196 000c CD E4 06                		mov.B	6[r14], r4
 197 000f 5B 43                   		movu.B	r4, r3
 198 0011 61 03                   		cmp	#0, r3
 199 0013 1F                      		bne	.L26
 200 0014 2E 47                   		bra	.L36
 201                             	.L28:
 202                             	.LCFI4:
 939:C:/Workspace/FW_Inertia/branch_indesit/Application_Platform\APP_Interpreter.c **** 	{
 940:C:/Workspace/FW_Inertia/branch_indesit/Application_Platform\APP_Interpreter.c **** 		pCompJsr->index --;
 941:C:/Workspace/FW_Inertia/branch_indesit/Application_Platform\APP_Interpreter.c **** 		pCompRetPoint->cycle = pCompJsr->stack[pCompJsr->index];
 942:C:/Workspace/FW_Inertia/branch_indesit/Application_Platform\APP_Interpreter.c **** 	}
 943:C:/Workspace/FW_Inertia/branch_indesit/Application_Platform\APP_Interpreter.c **** 	else
 944:C:/Workspace/FW_Inertia/branch_indesit/Application_Platform\APP_Interpreter.c **** 	{
 945:C:/Workspace/FW_Inertia/branch_indesit/Application_Platform\APP_Interpreter.c **** 		return S_FALSE;
 203                             		.loc 1 945 0
 204 0016 66 11                   		mov	#1, r1
 205 0018 2E 3E                   		bra	.L27
 206                             	.L26:
 207                             	.LCFI5:
 934:C:/Workspace/FW_Inertia/branch_indesit/Application_Platform\APP_Interpreter.c **** {
 208                             		.loc 1 934 0
 209 001a 7E A7                   		push.l	r7
 210                             	.LCFI6:
 936:C:/Workspace/FW_Inertia/branch_indesit/Application_Platform\APP_Interpreter.c **** RetPoint_Struct *pCompRetPoint = &ReturnPoint[compartment];
 211                             		.loc 1 936 0
 212 001c EF 13                   		mov.L	r1, r3
 213 001e 63 33                   		mul	#3, r3
 214 0020 70 33 00 00 00 00       		add	#_ReturnPoint, r3
 940:C:/Workspace/FW_Inertia/branch_indesit/Application_Platform\APP_Interpreter.c **** 		pCompJsr->index --;
 215                             		.loc 1 940 0
 216 0026 71 42 FF                		add	#-1, r4, r2
 217 0029 C7 E2 06                		mov.B	r2, 6[r14]
 941:C:/Workspace/FW_Inertia/branch_indesit/Application_Platform\APP_Interpreter.c **** 		pCompRetPoint->cycle = pCompJsr->stack[pCompJsr->index];
 218                             		.loc 1 941 0
 219 002c 5B 22                   		movu.B	r2, r2
 220 002e FE 42 E7                		mov.B	[r2,r14], r7
 221 0031 C3 37                   		mov.B	r7, [r3]
 946:C:/Workspace/FW_Inertia/branch_indesit/Application_Platform\APP_Interpreter.c **** 	}
 947:C:/Workspace/FW_Inertia/branch_indesit/Application_Platform\APP_Interpreter.c **** 
 948:C:/Workspace/FW_Inertia/branch_indesit/Application_Platform\APP_Interpreter.c **** 	if( pCompJsr->index )
 222                             		.loc 1 948 0
 223 0033 61 02                   		cmp	#0, r2
 224 0035 20 E1                   		beq	.L28
 949:C:/Workspace/FW_Inertia/branch_indesit/Application_Platform\APP_Interpreter.c **** 	{
 950:C:/Workspace/FW_Inertia/branch_indesit/Application_Platform\APP_Interpreter.c **** 		pCompJsr->index --;
 225                             		.loc 1 950 0
 226 0037 71 42 FE                		add	#-2, r4, r2
 227 003a C7 E2 06                		mov.B	r2, 6[r14]
 951:C:/Workspace/FW_Inertia/branch_indesit/Application_Platform\APP_Interpreter.c **** 		pCompRetPoint->phase = pCompJsr->stack[pCompJsr->index];
 228                             		.loc 1 951 0
 229 003d 5B 22                   		movu.B	r2, r2
 230 003f FE 42 E7                		mov.B	[r2,r14], r7
 231 0042 80 3F                   		mov.B	r7, 1[r3]
 952:C:/Workspace/FW_Inertia/branch_indesit/Application_Platform\APP_Interpreter.c **** 	}
 953:C:/Workspace/FW_Inertia/branch_indesit/Application_Platform\APP_Interpreter.c **** 	else
 954:C:/Workspace/FW_Inertia/branch_indesit/Application_Platform\APP_Interpreter.c **** 	{
 955:C:/Workspace/FW_Inertia/branch_indesit/Application_Platform\APP_Interpreter.c **** 		return S_FALSE;
 956:C:/Workspace/FW_Inertia/branch_indesit/Application_Platform\APP_Interpreter.c **** 	}	
 957:C:/Workspace/FW_Inertia/branch_indesit/Application_Platform\APP_Interpreter.c **** 
 958:C:/Workspace/FW_Inertia/branch_indesit/Application_Platform\APP_Interpreter.c **** 	if( pCompJsr->index )
 232                             		.loc 1 958 0
 233 0044 61 02                   		cmp	#0, r2
 234 0046 20 D0                   		beq	.L28
 959:C:/Workspace/FW_Inertia/branch_indesit/Application_Platform\APP_Interpreter.c **** 	{
 960:C:/Workspace/FW_Inertia/branch_indesit/Application_Platform\APP_Interpreter.c **** 		pCompJsr->index --;
 235                             		.loc 1 960 0
 236 0048 60 34                   		sub	#3, r4
 237 004a C7 E4 06                		mov.B	r4, 6[r14]
 961:C:/Workspace/FW_Inertia/branch_indesit/Application_Platform\APP_Interpreter.c **** 		pCompRetPoint->first_statement = pCompJsr->stack[pCompJsr->index];
 238                             		.loc 1 961 0
 239 004d 5B 44                   		movu.B	r4, r4
 240 004f FE 44 E4                		mov.B	[r4,r14], r4
 241 0052 80 B4                   		mov.B	r4, 2[r3]
 962:C:/Workspace/FW_Inertia/branch_indesit/Application_Platform\APP_Interpreter.c **** 
 963:C:/Workspace/FW_Inertia/branch_indesit/Application_Platform\APP_Interpreter.c **** 		return S_OK;
 242                             		.loc 1 963 0
 243 0054 66 01                   		mov	#0, r1
 244                             		.balign 2,3,1
 245                             	.L27:
 964:C:/Workspace/FW_Inertia/branch_indesit/Application_Platform\APP_Interpreter.c **** 	}
 965:C:/Workspace/FW_Inertia/branch_indesit/Application_Platform\APP_Interpreter.c **** 	else
 966:C:/Workspace/FW_Inertia/branch_indesit/Application_Platform\APP_Interpreter.c **** 	{
 967:C:/Workspace/FW_Inertia/branch_indesit/Application_Platform\APP_Interpreter.c **** 		return S_FALSE;
 968:C:/Workspace/FW_Inertia/branch_indesit/Application_Platform\APP_Interpreter.c **** 	}
 969:C:/Workspace/FW_Inertia/branch_indesit/Application_Platform\APP_Interpreter.c **** }
 246                             		.loc 1 969 0
 247 0056 64 11                   		and #1, r1
 248 0058 3F 77 01                		rtsd	#4, r7-r7
 249                             	.L36:
 250                             	.LCFI7:
 945:C:/Workspace/FW_Inertia/branch_indesit/Application_Platform\APP_Interpreter.c **** 		return S_FALSE;
 251                             		.loc 1 945 0
 252 005b 66 11                   		mov	#1, r1
 253                             		.loc 1 969 0
 254 005d 64 11                   		and #1, r1
 255 005f 02                      		rts
 256                             	.LFE4:
 258                             		.section	.text.ITP_syncUICyclePos,"ax",@progbits
 259                             		.global	_ITP_syncUICyclePos
 261                             	_ITP_syncUICyclePos:
 262                             	.LFB5:
 970:C:/Workspace/FW_Inertia/branch_indesit/Application_Platform\APP_Interpreter.c **** #endif /* ( ITP_JIF_RET_ENABLE == 1 ) */
 971:C:/Workspace/FW_Inertia/branch_indesit/Application_Platform\APP_Interpreter.c **** 
 972:C:/Workspace/FW_Inertia/branch_indesit/Application_Platform\APP_Interpreter.c **** 
 973:C:/Workspace/FW_Inertia/branch_indesit/Application_Platform\APP_Interpreter.c **** #if (ITP_UI_PHASE_TRAKER_ENABLE == 1)
 974:C:/Workspace/FW_Inertia/branch_indesit/Application_Platform\APP_Interpreter.c **** 
 975:C:/Workspace/FW_Inertia/branch_indesit/Application_Platform\APP_Interpreter.c **** /**
 976:C:/Workspace/FW_Inertia/branch_indesit/Application_Platform\APP_Interpreter.c **** Sincronizza ciclo e fase che vengono passati alla UI
 977:C:/Workspace/FW_Inertia/branch_indesit/Application_Platform\APP_Interpreter.c **** con quelli dell'Interprete.
 978:C:/Workspace/FW_Inertia/branch_indesit/Application_Platform\APP_Interpreter.c **** 
 979:C:/Workspace/FW_Inertia/branch_indesit/Application_Platform\APP_Interpreter.c **** \param [in]		compartment e' il vano/ cavità che si sta processando 
 980:C:/Workspace/FW_Inertia/branch_indesit/Application_Platform\APP_Interpreter.c **** \(per funzioni mono vano compartment =0)
 981:C:/Workspace/FW_Inertia/branch_indesit/Application_Platform\APP_Interpreter.c **** 
 982:C:/Workspace/FW_Inertia/branch_indesit/Application_Platform\APP_Interpreter.c **** \param [out] (global) UICycle
 983:C:/Workspace/FW_Inertia/branch_indesit/Application_Platform\APP_Interpreter.c **** \param [out] (global) UIPhase
 984:C:/Workspace/FW_Inertia/branch_indesit/Application_Platform\APP_Interpreter.c **** 
 985:C:/Workspace/FW_Inertia/branch_indesit/Application_Platform\APP_Interpreter.c **** \return     	none
 986:C:/Workspace/FW_Inertia/branch_indesit/Application_Platform\APP_Interpreter.c **** 
 987:C:/Workspace/FW_Inertia/branch_indesit/Application_Platform\APP_Interpreter.c **** \version    	1.0.0
 988:C:/Workspace/FW_Inertia/branch_indesit/Application_Platform\APP_Interpreter.c **** \date   		24/09/2009
 989:C:/Workspace/FW_Inertia/branch_indesit/Application_Platform\APP_Interpreter.c **** \author			Valeria Catani
 990:C:/Workspace/FW_Inertia/branch_indesit/Application_Platform\APP_Interpreter.c **** */
 991:C:/Workspace/FW_Inertia/branch_indesit/Application_Platform\APP_Interpreter.c **** void ITP_syncUICyclePos(uint8_t compartment)
 992:C:/Workspace/FW_Inertia/branch_indesit/Application_Platform\APP_Interpreter.c **** {
 263                             		.loc 1 992 0
 264                             	.LVL3:
 993:C:/Workspace/FW_Inertia/branch_indesit/Application_Platform\APP_Interpreter.c **** 	UICycle = Interpreter_Data[compartment].cycle;
 265                             		.loc 1 993 0
 266 0000 5B 11                   		movu.B	r1, r1
 267 0002 63 61                   		mul	#6, r1
 268                             	.LVL4:
 269 0004 70 11 00 00 00 00       		add	#_Interpreter_Data, r1
 270 000a FB E2 00 00 00 00       		mov.L	#_UICycle, r14
 271 0010 C1 1E 01                		mov.B	1[r1], [r14]
 994:C:/Workspace/FW_Inertia/branch_indesit/Application_Platform\APP_Interpreter.c **** 	UIPhase = Interpreter_Data[compartment].phase;
 272                             		.loc 1 994 0
 273 0013 FB E2 00 00 00 00       		mov.L	#_UIPhase, r14
 274 0019 C1 1E 02                		mov.B	2[r1], [r14]
 275 001c 02                      		rts
 276                             	.LFE5:
 278                             		.section	.text.ITP_programFlowInterpreter,"ax",@progbits
 279                             		.global	_ITP_programFlowInterpreter
 281                             	_ITP_programFlowInterpreter:
 282                             	.LFB0:
 144:C:/Workspace/FW_Inertia/branch_indesit/Application_Platform\APP_Interpreter.c **** {
 283                             		.loc 1 144 0
 284 0000 6E 6D                   		pushm	r6-r13
 285                             	.LCFI8:
 286                             	.LVL5:
 177:C:/Workspace/FW_Inertia/branch_indesit/Application_Platform\APP_Interpreter.c **** 	if( pCompItpData->phaseDataInitialized == 0)
 287                             		.loc 1 177 0
 288 0002 FB 72 00 00 00 00       		mov.L	#_Interpreter_Data, r7
 289 0008 CD 7A 04                		mov.B	4[r7], r10
 290 000b FD 74 CA 01             		tst	#1, r10
 291 000f 3B 83 00                		bne	.L39
 184:C:/Workspace/FW_Inertia/branch_indesit/Application_Platform\APP_Interpreter.c **** 		if( pCompItpData->jumpIF_phase_ctrl == 0 )
 292                             		.loc 1 184 0
 293 0012 64 8A                   		and	#8, r10
 294 0014 21 1A                   		bne	.L40
 295                             	.LVL6:
 188:C:/Workspace/FW_Inertia/branch_indesit/Application_Platform\APP_Interpreter.c ****   				pCompJmpPhase->statements[i][0] = (0xFF - UP_JUMPIF);	
 296                             		.loc 1 188 0 discriminator 1
 297 0016 FB 72 00 00 00 00       		mov.L	#_JmpPhase, r7
 298 001c F8 74 F4                		mov.B	#-12, [r7]
 189:C:/Workspace/FW_Inertia/branch_indesit/Application_Platform\APP_Interpreter.c **** 				pCompJmpPhase->statements[i][1] = 0xFF;			/* High Statement a 0xFF not possible !! */		
 299                             		.loc 1 189 0 discriminator 1
 300 001f F9 74 01 FF             		mov.B	#-1, 1[r7]
 301                             	.LVL7:
 188:C:/Workspace/FW_Inertia/branch_indesit/Application_Platform\APP_Interpreter.c ****   				pCompJmpPhase->statements[i][0] = (0xFF - UP_JUMPIF);	
 302                             		.loc 1 188 0 discriminator 1
 303 0023 F9 74 02 F4             		mov.B	#-12, 2[r7]
 189:C:/Workspace/FW_Inertia/branch_indesit/Application_Platform\APP_Interpreter.c **** 				pCompJmpPhase->statements[i][1] = 0xFF;			/* High Statement a 0xFF not possible !! */		
 304                             		.loc 1 189 0 discriminator 1
 305 0027 F9 74 03 FF             		mov.B	#-1, 3[r7]
 306                             	.LVL8:
 191:C:/Workspace/FW_Inertia/branch_indesit/Application_Platform\APP_Interpreter.c **** 			pCompJmpPhase->index = 0; 		 	
 307                             		.loc 1 191 0 discriminator 1
 308 002b C7 7A 04                		mov.B	r10, 4[r7]
 309                             	.LVL9:
 310                             		.balign 2,3,5
 311                             	.L40:
 194:C:/Workspace/FW_Inertia/branch_indesit/Application_Platform\APP_Interpreter.c ****     	pCompItpData->jumpIF_phase_ctrl = 0;
 312                             		.loc 1 194 0
 313 002e FB 72 00 00 00 00       		mov.L	#_Interpreter_Data, r7
 314 0034 CD 7A 04                		mov.B	4[r7], r10
 315 0037 7A 3A                   		bclr	#3, r10
 316 0039 C7 7A 04                		mov.B	r10, 4[r7]
 201:C:/Workspace/FW_Inertia/branch_indesit/Application_Platform\APP_Interpreter.c ****     phLoader_Result = LDR_phaseLoader(pCompItpData->cycle, pCompItpData->phase, pCompItpData->mSett
 317                             		.loc 1 201 0
 318 003c 88 79                   		mov.B	1[r7], r1
 319 003e 88 F2                   		mov.B	2[r7], r2
 320 0040 89 7B                   		mov.B	5[r7], r3
 321 0042 FB 42 00 00 00 00       		mov.L	#_TableData, r4
 322 0048 05 00 00 00             		bsr	_LDR_phaseLoader
 323                             	.LVL10:
 204:C:/Workspace/FW_Inertia/branch_indesit/Application_Platform\APP_Interpreter.c **** 		if( phLoader_Result != S_OK )
 324                             		.loc 1 204 0
 325 004c 5B 11                   		movu.B	r1, r1
 326 004e 61 01                   		cmp	#0, r1
 327 0050 3B 68 03                		bne	.L73
 214:C:/Workspace/FW_Inertia/branch_indesit/Application_Platform\APP_Interpreter.c **** 		*ppCompStepHigh = pCompTableData->pHiStat;
 328                             		.loc 1 214 0
 329 0053 FB B2 00 00 00 00       		mov.L	#_TableData, r11
 330 0059 ED B4 01                		mov.L	4[r11], r4
 331 005c FB E2 00 00 00 00       		mov.L	#_pStepHigh, r14
 332 0062 E3 E4                   		mov.L	r4, [r14]
 215:C:/Workspace/FW_Inertia/branch_indesit/Application_Platform\APP_Interpreter.c **** 		*ppCompStepLow = pCompTableData->pLoStat;
 333                             		.loc 1 215 0
 334 0064 ED BD 02                		mov.L	8[r11], r13
 335 0067 FB C2 00 00 00 00       		mov.L	#_pStepLow, r12
 336 006d E3 CD                   		mov.L	r13, [r12]
 217:C:/Workspace/FW_Inertia/branch_indesit/Application_Platform\APP_Interpreter.c **** 		if(pCompItpData->first_statement < pCompTableData->nPhaseStatements)
 337                             		.loc 1 217 0
 338 006f 59 7A 03                		movu.B	3[r7], r10
 339 0072 45 BA 01                		cmp	1[r11].UB, r10
 340 0075 23 05 38 45 03          		bgeu	.L74
 224:C:/Workspace/FW_Inertia/branch_indesit/Application_Platform\APP_Interpreter.c **** 		 	*ppCompStepHigh += pCompItpData->first_statement;
 341                             		.loc 1 224 0
 342 007a 4B A4                   		add	r10, r4
 343 007c E3 E4                   		mov.L	r4, [r14]
 225:C:/Workspace/FW_Inertia/branch_indesit/Application_Platform\APP_Interpreter.c **** 		 	*ppCompStepLow += pCompItpData->first_statement;
 344                             		.loc 1 225 0
 345 007e 4B DA                   		add	r13, r10
 346 0080 E3 CA                   		mov.L	r10, [r12]
 240:C:/Workspace/FW_Inertia/branch_indesit/Application_Platform\APP_Interpreter.c **** 		ITP_syncUICyclePos(compartment); /* comune */
 347                             		.loc 1 240 0
 348 0082 05 00 00 00             		bsr	_ITP_syncUICyclePos
 349                             	.LVL11:
 242:C:/Workspace/FW_Inertia/branch_indesit/Application_Platform\APP_Interpreter.c **** 		ITP_phaseTrackerUI(); /* custom*/
 350                             		.loc 1 242 0
 351 0086 05 00 00 00             		bsr	_ITP_phaseTrackerUI
 352                             	.LVL12:
 246:C:/Workspace/FW_Inertia/branch_indesit/Application_Platform\APP_Interpreter.c **** 		pCompItpData->phaseDataInitialized = 1;
 353                             		.loc 1 246 0
 354 008a CD 7A 04                		mov.B	4[r7], r10
 355 008d 78 0A                   		bset	#0, r10
 356 008f C7 7A 04                		mov.B	r10, 4[r7]
 357                             		.balign 2,3,3
 358                             	.L39:
 254:C:/Workspace/FW_Inertia/branch_indesit/Application_Platform\APP_Interpreter.c **** 	ITP_preStepInit();
 359                             		.loc 1 254 0
 360 0092 05 00 00 00             		bsr	_ITP_preStepInit
 361                             	.LVL13:
 260:C:/Workspace/FW_Inertia/branch_indesit/Application_Platform\APP_Interpreter.c **** 	pTempHighStat = *ppCompStepHigh;
 362                             		.loc 1 260 0
 363 0096 FB 72 00 00 00 00       		mov.L	#_pStepHigh, r7
 364 009c EC 77                   		mov.L	[r7], r7
 365                             	.LVL14:
 261:C:/Workspace/FW_Inertia/branch_indesit/Application_Platform\APP_Interpreter.c **** 	pTempLowStat = *ppCompStepLow;
 366                             		.loc 1 261 0
 367 009e FB A2 00 00 00 00       		mov.L	#_pStepLow, r10
 368 00a4 EC A9                   		mov.L	[r10], r9
 369                             	.LVL15:
 271:C:/Workspace/FW_Inertia/branch_indesit/Application_Platform\APP_Interpreter.c **** 	T_Flag = ( *pTempHighStat & T_MASK ); 
 370                             		.loc 1 271 0
 371 00a6 CC 78                   		mov.B [r7], r8
 372 00a8 76 28 80 00             		and #0x80, r8
 373                             	.LVL16:
 274:C:/Workspace/FW_Inertia/branch_indesit/Application_Platform\APP_Interpreter.c **** 	pEndPhaseHighStat = pCompTableData->pHiStat + (pCompTableData->nPhaseStatements - 1);
 374                             		.loc 1 274 0
 375 00ac FB A2 00 00 00 00       		mov.L	#_TableData, r10
 376 00b2 59 AD 01                		movu.B	1[r10], r13
 377 00b5 60 1D                   		sub	#1, r13
 378 00b7 ED AA 01                		mov.L	4[r10], r10
 379 00ba 4B AD                   		add	r10, r13
 380                             	.LVL17:
 278:C:/Workspace/FW_Inertia/branch_indesit/Application_Platform\APP_Interpreter.c **** 	StepLength[compartment] = 0;
 381                             		.loc 1 278 0
 382 00bc FB A2 00 00 00 00       		mov.L	#_StepLength, r10
 383 00c2 F8 A4 00                		mov.B	#0, [r10]
 150:C:/Workspace/FW_Inertia/branch_indesit/Application_Platform\APP_Interpreter.c **** uint8_t resultStm = S_FALSE;
 384                             		.loc 1 150 0
 385 00c5 66 11                   		mov	#1, r1
 267:C:/Workspace/FW_Inertia/branch_indesit/Application_Platform\APP_Interpreter.c **** 	newStep = TRUE;
 386                             		.loc 1 267 0
 387 00c7 CF 1C                   		mov.B	r1, r12
 268:C:/Workspace/FW_Inertia/branch_indesit/Application_Platform\APP_Interpreter.c **** 	phaseFlags = 0;
 388                             		.loc 1 268 0
 389 00c9 66 0A                   		mov	#0, r10
 286:C:/Workspace/FW_Inertia/branch_indesit/Application_Platform\APP_Interpreter.c **** 	while( ( pTempHighStat <= pEndPhaseHighStat ) && ( ( ( *pTempHighStat ) & T_MASK ) == T_Flag ) )
 390                             		.loc 1 286 0
 391 00cb 5B 88                   		movu.B	r8, r8
 349:C:/Workspace/FW_Inertia/branch_indesit/Application_Platform\APP_Interpreter.c **** 			resultStm = Microprog_array[opCode](*pTempHighStat, *pTempLowStat);
 392                             		.loc 1 349 0
 393 00cd FB 62 00 00 00 00       		mov.L	#_Microprog_array, r6
 286:C:/Workspace/FW_Inertia/branch_indesit/Application_Platform\APP_Interpreter.c **** 	while( ( pTempHighStat <= pEndPhaseHighStat ) && ( ( ( *pTempHighStat ) & T_MASK ) == T_Flag ) )
 394                             		.loc 1 286 0
 395 00d3 38 DD 00                		bra	.L42
 396                             	.LVL18:
 397                             	.L59:
 298:C:/Workspace/FW_Inertia/branch_indesit/Application_Platform\APP_Interpreter.c **** 			if ( completeOpcode == UP_JUMPIF_PHASE )
 398                             		.loc 1 298 0
 399 00d6 EF EB                   		mov.L	r14, r11
 400 00d8 75 2B 3F                		and #63, r11
 401 00db 61 BB                   		cmp	#11, r11
 402 00dd 21 4E                   		bne	.L43
 301:C:/Workspace/FW_Inertia/branch_indesit/Application_Platform\APP_Interpreter.c **** 				if ( pCompItpData->stepInitialized == 0 )
 403                             		.loc 1 301 0
 404 00df FB B2 00 00 00 00       		mov.L	#_Interpreter_Data, r11
 405 00e5 CD BB 04                		mov.B 4[r11], r11
 406 00e8 64 2B                   		and #2, r11
 407 00ea 3B A9 00                		bne	.L51
 304:C:/Workspace/FW_Inertia/branch_indesit/Application_Platform\APP_Interpreter.c **** 					if( pCompJmpPhase->index < MAX_NUM_JIF_PHASE )
 408                             		.loc 1 304 0
 409 00ed FB 32 00 00 00 00       		mov.L	#_JmpPhase, r3
 410 00f3 CD 3B 04                		mov.B	4[r3], r11
 411 00f6 5B B4                   		movu.B	r11, r4
 412 00f8 61 14                   		cmp	#1, r4
 413 00fa 25 05 38 97 00          		bgtu	.L51
 414 00ff 09                      		bra	.L45
 415                             	.LVL19:
 416                             	.L47:
 316:C:/Workspace/FW_Inertia/branch_indesit/Application_Platform\APP_Interpreter.c **** 						if( jumpAlreadyIn == FALSE )
 417                             		.loc 1 316 0
 418 0100 B0 3B                   		movu.B	1[r3], r3
 419 0102 44 93                   		cmp	[r9].UB, r3
 420 0104 3A 8F 00                		beq	.L51
 421 0107 0D                      		bra	.L46
 422                             	.LVL20:
 423                             	.L45:
 308:C:/Workspace/FW_Inertia/branch_indesit/Application_Platform\APP_Interpreter.c **** 						for( i=0; i < pCompJmpPhase->index; i++ )
 424                             		.loc 1 308 0 discriminator 1
 425 0108 61 04                   		cmp	#0, r4
 426 010a 21 F6                   		bne	.L47
 427                             	.LVL21:
 428                             		.balign 2,3,5
 429                             	.L46:
 318:C:/Workspace/FW_Inertia/branch_indesit/Application_Platform\APP_Interpreter.c **** 							pCompJmpPhase->statements[pCompJmpPhase->index][0] = *pTempHighStat;	 
 430                             		.loc 1 318 0
 431 010c FB 42 00 00 00 00       		mov.L	#_JmpPhase, r4
 432 0112 5B B3                   		movu.B	r11, r3
 433 0114 4B 33                   		add	r3, r3
 434 0116 4B 43                   		add	r4, r3
 435 0118 C3 3E                   		mov.B	r14, [r3]
 319:C:/Workspace/FW_Inertia/branch_indesit/Application_Platform\APP_Interpreter.c **** 							pCompJmpPhase->statements[pCompJmpPhase->index][1] = *pTempLowStat;
 436                             		.loc 1 319 0
 437 011a 59 4E 04                		movu.B	4[r4], r14
 438                             	.LVL22:
 439 011d 4B EE                   		add	r14, r14
 440 011f 4B 4E                   		add	r4, r14
 441 0121 C4 9E 01                		mov.B	[r9], 1[r14]
 320:C:/Workspace/FW_Inertia/branch_indesit/Application_Platform\APP_Interpreter.c **** 							pCompJmpPhase->index ++;
 442                             		.loc 1 320 0
 443 0124 62 1B                   		add	#1, r11
 444 0126 C7 4B 04                		mov.B	r11, 4[r4]
 445 0129 2E 6A                   		bra	.L51
 446                             	.LVL23:
 447                             	.L43:
 325:C:/Workspace/FW_Inertia/branch_indesit/Application_Platform\APP_Interpreter.c **** 			else if ( completeOpcode == UP_JUMPIF_PHASE_RESET )
 448                             		.loc 1 325 0
 449 012b 75 5B 2B                		cmp	#43, r11
 450 012e 21 32                   		bne	.L48
 328:C:/Workspace/FW_Inertia/branch_indesit/Application_Platform\APP_Interpreter.c **** 				if (pCompItpData->stepInitialized == 0)
 451                             		.loc 1 328 0
 452 0130 FB B2 00 00 00 00       		mov.L	#_Interpreter_Data, r11
 453 0136 CD BB 04                		mov.B 4[r11], r11
 454 0139 64 2B                   		and #2, r11
 455 013b 21 58                   		bne	.L51
 331:C:/Workspace/FW_Inertia/branch_indesit/Application_Platform\APP_Interpreter.c **** 					if( pCompJmpPhase->index != 0 )
 456                             		.loc 1 331 0
 457 013d FB E2 00 00 00 00       		mov.L	#_JmpPhase, r14
 458                             	.LVL24:
 459 0143 CD EB 04                		mov.B	4[r14], r11
 460 0146 5B B4                   		movu.B	r11, r4
 461 0148 61 04                   		cmp	#0, r4
 462 014a 20 49                   		beq	.L51
 333:C:/Workspace/FW_Inertia/branch_indesit/Application_Platform\APP_Interpreter.c **** 						pCompJmpPhase->index --;
 463                             		.loc 1 333 0
 464 014c 60 1B                   		sub	#1, r11
 465 014e C7 EB 04                		mov.B	r11, 4[r14]
 334:C:/Workspace/FW_Inertia/branch_indesit/Application_Platform\APP_Interpreter.c **** 						pCompJmpPhase->statements[pCompJmpPhase->index][0] = (0xFF - UP_JUMPIF);	
 466                             		.loc 1 334 0
 467 0151 5B BB                   		movu.B	r11, r11
 468 0153 4B BB                   		add	r11, r11
 469 0155 4B EB                   		add	r14, r11
 470 0157 F8 B4 F4                		mov.B	#-12, [r11]
 335:C:/Workspace/FW_Inertia/branch_indesit/Application_Platform\APP_Interpreter.c **** 						pCompJmpPhase->statements[pCompJmpPhase->index][1] = 0xFF;
 471                             		.loc 1 335 0
 472 015a F9 B4 01 FF             		mov.B	#-1, 1[r11]
 473 015e 2E 35                   		bra	.L51
 474                             	.LVL25:
 475                             	.L48:
 349:C:/Workspace/FW_Inertia/branch_indesit/Application_Platform\APP_Interpreter.c **** 			resultStm = Microprog_array[opCode](*pTempHighStat, *pTempLowStat);
 476                             		.loc 1 349 0
 477 0160 EF E4                   		mov.L	r14, r4
 478 0162 64 F4                   		and #15, r4
 479 0164 FE 64 64                		mov.L	[r4,r6], r4
 480 0167 CF E1                   		mov.B	r14, r1
 481                             	.LVL26:
 482 0169 CC 92                   		mov.B	[r9], r2
 483 016b 7F 14                   		jsr	r4
 484                             	.LVL27:
 357:C:/Workspace/FW_Inertia/branch_indesit/Application_Platform\APP_Interpreter.c **** 			if( completeOpcode == UP_SETSTATE_RESET )	/* uP RESET */
 485                             		.loc 1 357 0
 486 016d 75 5B 10                		cmp	#16, r11
 487 0170 1C                      		bne	.L50
 488                             	.LVL28:
 365:C:/Workspace/FW_Inertia/branch_indesit/Application_Platform\APP_Interpreter.c **** 				SETBIT(phaseFlags, B_RESET_FLAG);
 489                             		.loc 1 365 0
 490 0171 78 1A                   		bset #1, r10
 491                             	.LVL29:
 492 0173 0F                      		bra	.L84
 493                             	.LVL30:
 494                             	.L50:
 371:C:/Workspace/FW_Inertia/branch_indesit/Application_Platform\APP_Interpreter.c **** 			else if ( completeOpcode == UP_SETSTATE_RETURN )	 
 495                             		.loc 1 371 0
 496 0174 75 5B 20                		cmp	#32, r11
 497 0177 19                      		bne	.L52
 498                             	.LVL31:
 378:C:/Workspace/FW_Inertia/branch_indesit/Application_Platform\APP_Interpreter.c **** 				SETBIT(phaseFlags, B_RETURN_FLAG);
 499                             		.loc 1 378 0
 500 0178 78 2A                   		bset #2, r10
 501                             	.LVL32:
 502                             		.balign 2,3,1
 503                             	.L84:
 504 017a EF D7                   		mov.L	r13, r7
 380:C:/Workspace/FW_Inertia/branch_indesit/Application_Platform\APP_Interpreter.c **** 				newStep = TRUE;
 505                             		.loc 1 380 0
 506 017c 66 1C                   		mov	#1, r12
 507 017e 2E 15                   		bra	.L51
 508                             	.LVL33:
 509                             	.L52:
 384:C:/Workspace/FW_Inertia/branch_indesit/Application_Platform\APP_Interpreter.c **** 			else if ( (completeOpcode == UP_JUMPIF_STEP) && (resultStm == S_OK) )	/* uP JUMPIF valido per PA
 510                             		.loc 1 384 0
 511 0180 75 5B 1B                		cmp	#27, r11
 512 0183 21 10                   		bne	.L51
 384:C:/Workspace/FW_Inertia/branch_indesit/Application_Platform\APP_Interpreter.c **** 			else if ( (completeOpcode == UP_JUMPIF_STEP) && (resultStm == S_OK) )	/* uP JUMPIF valido per PA
 513                             		.loc 1 384 0 is_stmt 0 discriminator 1
 514 0185 5B 1B                   		movu.B	r1, r11
 515 0187 61 0B                   		cmp	#0, r11
 516 0189 21 0F                   		bne	.L53
 517                             	.LVL34:
 393:C:/Workspace/FW_Inertia/branch_indesit/Application_Platform\APP_Interpreter.c **** 				SETBIT(phaseFlags, B_JUMPIF_FLAG);
 518                             		.loc 1 393 0 is_stmt 1
 519 018b 78 0A                   		bset #0, r10
 520                             	.LVL35:
 521 018d EF D7                   		mov.L	r13, r7
 395:C:/Workspace/FW_Inertia/branch_indesit/Application_Platform\APP_Interpreter.c **** 				newStep = TRUE;		
 522                             		.loc 1 395 0
 523 018f 66 1C                   		mov	#1, r12
 524 0191 2E 0F                   		bra	.L54
 525                             	.LVL36:
 526                             	.L51:
 416:C:/Workspace/FW_Inertia/branch_indesit/Application_Platform\APP_Interpreter.c **** 		if( ( resultStm != S_OK ) && ((( *pTempHighStat ) & N_MASK ) != 0 ) )
 527                             		.loc 1 416 0
 528 0193 5B 1B                   		movu.B	r1, r11
 529 0195 61 0B                   		cmp	#0, r11
 530 0197 11                      		beq	.L54
 531                             		.balign 2,3,5
 532                             	.L53:
 416:C:/Workspace/FW_Inertia/branch_indesit/Application_Platform\APP_Interpreter.c **** 		if( ( resultStm != S_OK ) && ((( *pTempHighStat ) & N_MASK ) != 0 ) )
 533                             		.loc 1 416 0 is_stmt 0 discriminator 1
 534 0198 CC 7B                   		mov.B [r7], r11
 535 019a 75 2B 40                		and #64, r11
 536 019d 13                      		beq	.L54
 419:C:/Workspace/FW_Inertia/branch_indesit/Application_Platform\APP_Interpreter.c **** 			newStep = FALSE;		
 537                             		.loc 1 419 0 is_stmt 1
 538 019e 66 0C                   		mov	#0, r12
 539                             	.LVL37:
 540                             		.balign 2,3,1
 541                             	.L54:
 426:C:/Workspace/FW_Inertia/branch_indesit/Application_Platform\APP_Interpreter.c **** 		pTempHighStat ++;	
 542                             		.loc 1 426 0
 543 01a0 62 17                   		add	#1, r7
 544                             	.LVL38:
 427:C:/Workspace/FW_Inertia/branch_indesit/Application_Platform\APP_Interpreter.c **** 		pTempLowStat ++;
 545                             		.loc 1 427 0
 546 01a2 62 19                   		add	#1, r9
 547                             	.LVL39:
 431:C:/Workspace/FW_Inertia/branch_indesit/Application_Platform\APP_Interpreter.c **** 		StepLength[compartment]++;
 548                             		.loc 1 431 0
 549 01a4 FB B2 00 00 00 00       		mov.L	#_StepLength, r11
 550 01aa CC BE                   		mov.B	[r11], r14
 551 01ac 62 1E                   		add	#1, r14
 552 01ae C3 BE                   		mov.B	r14, [r11]
 553                             	.LVL40:
 554                             		.balign 2,3,1
 555                             	.L42:
 286:C:/Workspace/FW_Inertia/branch_indesit/Application_Platform\APP_Interpreter.c **** 	while( ( pTempHighStat <= pEndPhaseHighStat ) && ( ( ( *pTempHighStat ) & T_MASK ) == T_Flag ) )
 556                             		.loc 1 286 0 discriminator 1
 557 01b0 47 D7                   		cmp	r13, r7
 558 01b2 25 3A                   		bleu	.L55
 559                             		.balign 2,3,5
 560                             	.L60:
 561                             	.LVL41:
 447:C:/Workspace/FW_Inertia/branch_indesit/Application_Platform\APP_Interpreter.c **** 		if( (COMPLETE_OPCODE (pCompJmpPhase->statements[i][0])) == UP_JUMPIF_PHASE )
 562                             		.loc 1 447 0
 563 01b4 FB B2 00 00 00 00       		mov.L	#_JmpPhase, r11
 564 01ba CC B1                   		mov.B	[r11], r1
 565                             	.LVL42:
 566 01bc EF 1E                   		mov.L	r1, r14
 567 01be 75 2E 3F                		and #63, r14
 568 01c1 61 BE                   		cmp	#11, r14
 569 01c3 21 15                   		bne	.L56
 453:C:/Workspace/FW_Inertia/branch_indesit/Application_Platform\APP_Interpreter.c **** 			resultStm = JIF_JumpIf_Exe(pCompJmpPhase->statements[i][0],pCompJmpPhase->statements[i][1]);
 570                             		.loc 1 453 0
 571 01c5 CD B2 01                		mov.B	1[r11], r2
 572 01c8 05 00 00 00             		bsr	_JIF_JumpIf_Exe
 573                             	.LVL43:
 456:C:/Workspace/FW_Inertia/branch_indesit/Application_Platform\APP_Interpreter.c **** 			if ( resultStm == S_OK )
 574                             		.loc 1 456 0
 575 01cc 76 21 FF 00             		and #0xff, r1
 576                             	.LVL44:
 577 01d0 18                      		bne	.L56
 458:C:/Workspace/FW_Inertia/branch_indesit/Application_Platform\APP_Interpreter.c **** 				pTempHighStat = (pEndPhaseHighStat+1);
 578                             		.loc 1 458 0
 579 01d1 71 D7 01                		add	#1, r13, r7
 580                             	.LVL45:
 460:C:/Workspace/FW_Inertia/branch_indesit/Application_Platform\APP_Interpreter.c **** 				SETBIT(phaseFlags, B_JUMPIF_FLAG);
 581                             		.loc 1 460 0
 582 01d4 78 0A                   		bset #0, r10
 583                             	.LVL46:
 462:C:/Workspace/FW_Inertia/branch_indesit/Application_Platform\APP_Interpreter.c **** 				newStep = TRUE;
 584                             		.loc 1 462 0
 585 01d6 66 1C                   		mov	#1, r12
 586                             	.LVL47:
 587                             		.balign 2,3,5
 588                             	.L56:
 447:C:/Workspace/FW_Inertia/branch_indesit/Application_Platform\APP_Interpreter.c **** 		if( (COMPLETE_OPCODE (pCompJmpPhase->statements[i][0])) == UP_JUMPIF_PHASE )
 589                             		.loc 1 447 0
 590 01d8 FB B2 00 00 00 00       		mov.L	#_JmpPhase, r11
 591 01de CD B1 02                		mov.B	2[r11], r1
 592 01e1 EF 1E                   		mov.L	r1, r14
 593 01e3 75 2E 3F                		and #63, r14
 594 01e6 61 BE                   		cmp	#11, r14
 595 01e8 21 26                   		bne	.L58
 596 01ea 2E 11                   		bra	.L57
 597                             	.LVL48:
 598                             	.L55:
 286:C:/Workspace/FW_Inertia/branch_indesit/Application_Platform\APP_Interpreter.c **** 	while( ( pTempHighStat <= pEndPhaseHighStat ) && ( ( ( *pTempHighStat ) & T_MASK ) == T_Flag ) )
 599                             		.loc 1 286 0 discriminator 2
 600 01ec CC 7E                   		mov.B	[r7], r14
 601 01ee EF EB                   		mov.L	r14, r11
 602 01f0 76 2B 80 00             		and #0x80, r11
 603 01f4 47 8B                   		cmp	r8, r11
 604 01f6 3A E0 FE                		beq	.L59
 605 01f9 2E BB                   		bra	.L60
 606                             	.LVL49:
 607                             	.L57:
 453:C:/Workspace/FW_Inertia/branch_indesit/Application_Platform\APP_Interpreter.c **** 			resultStm = JIF_JumpIf_Exe(pCompJmpPhase->statements[i][0],pCompJmpPhase->statements[i][1]);
 608                             		.loc 1 453 0
 609 01fb CD B2 03                		mov.B	3[r11], r2
 610 01fe 05 00 00 00             		bsr	_JIF_JumpIf_Exe
 611                             	.LVL50:
 456:C:/Workspace/FW_Inertia/branch_indesit/Application_Platform\APP_Interpreter.c **** 			if ( resultStm == S_OK )
 612                             		.loc 1 456 0
 613 0202 76 21 FF 00             		and #0xff, r1
 614                             	.LVL51:
 615 0206 18                      		bne	.L58
 458:C:/Workspace/FW_Inertia/branch_indesit/Application_Platform\APP_Interpreter.c **** 				pTempHighStat = (pEndPhaseHighStat+1);
 616                             		.loc 1 458 0
 617 0207 71 D7 01                		add	#1, r13, r7
 618                             	.LVL52:
 460:C:/Workspace/FW_Inertia/branch_indesit/Application_Platform\APP_Interpreter.c **** 				SETBIT(phaseFlags, B_JUMPIF_FLAG);
 619                             		.loc 1 460 0
 620 020a 78 0A                   		bset #0, r10
 621                             	.LVL53:
 462:C:/Workspace/FW_Inertia/branch_indesit/Application_Platform\APP_Interpreter.c **** 				newStep = TRUE;
 622                             		.loc 1 462 0
 623 020c 66 1C                   		mov	#1, r12
 624                             	.LVL54:
 625                             		.balign 2,3,5
 626                             	.L58:
 471:C:/Workspace/FW_Inertia/branch_indesit/Application_Platform\APP_Interpreter.c **** 	if ( pCompItpData->stepInitialized == FALSE )
 627                             		.loc 1 471 0
 628 020e FB B2 00 00 00 00       		mov.L	#_Interpreter_Data, r11
 629 0214 CD BE 04                		mov.B	4[r11], r14
 630 0217 EF E4                   		mov.L	r14, r4
 631 0219 64 24                   		and #2, r4
 632 021b 21 0B                   		bne	.L61
 475:C:/Workspace/FW_Inertia/branch_indesit/Application_Platform\APP_Interpreter.c **** 		pCompItpData->loads_mgmt_activation = TRUE;	
 633                             		.loc 1 475 0
 634 021d 78 5E                   		bset	#5, r14
 635 021f C7 BE 04                		mov.B	r14, 4[r11]
 479:C:/Workspace/FW_Inertia/branch_indesit/Application_Platform\APP_Interpreter.c **** 		ITP_loadsMgmt();	
 636                             		.loc 1 479 0
 637 0222 05 00 00 00             		bsr	_ITP_loadsMgmt
 638                             	.LVL55:
 639                             		.balign 2,3,5
 640                             	.L61:
 485:C:/Workspace/FW_Inertia/branch_indesit/Application_Platform\APP_Interpreter.c **** 	pCompItpData->optionalStepInitialized = 1;
 641                             		.loc 1 485 0
 642 0226 FB B2 00 00 00 00       		mov.L	#_Interpreter_Data, r11
 643 022c CD BE 04                		mov.B	4[r11], r14
 644 022f 78 2E                   		bset	#2, r14
 487:C:/Workspace/FW_Inertia/branch_indesit/Application_Platform\APP_Interpreter.c **** 	if( newStep == FALSE )
 645                             		.loc 1 487 0
 646 0231 76 2C FF 00             		and #0xff, r12
 647                             	.LVL56:
 648 0235 21 0C                   		bne	.L62
 490:C:/Workspace/FW_Inertia/branch_indesit/Application_Platform\APP_Interpreter.c **** 		pCompItpData->stepInitialized = 1;	
 649                             		.loc 1 490 0
 650 0237 78 1E                   		bset	#1, r14
 651 0239 C7 BE 04                		mov.B	r14, 4[r11]
 492:C:/Workspace/FW_Inertia/branch_indesit/Application_Platform\APP_Interpreter.c **** 		return SAME_STEP;    
 652                             		.loc 1 492 0
 653 023c 66 41                   		mov	#4, r1
 654 023e 38 84 01                		bra	.L41
 655                             	.L62:
 502:C:/Workspace/FW_Inertia/branch_indesit/Application_Platform\APP_Interpreter.c **** 	pCompItpData->stepInitialized = 0;
 656                             		.loc 1 502 0
 657 0241 7A 1E                   		bclr	#1, r14
 658 0243 C7 BE 04                		mov.B	r14, 4[r11]
 505:C:/Workspace/FW_Inertia/branch_indesit/Application_Platform\APP_Interpreter.c **** 	ITP_newStepInit();
 659                             		.loc 1 505 0
 660 0246 05 00 00 00             		bsr	_ITP_newStepInit
 661                             	.LVL57:
 507:C:/Workspace/FW_Inertia/branch_indesit/Application_Platform\APP_Interpreter.c **** 	if( pTempHighStat <= pEndPhaseHighStat )
 662                             		.loc 1 507 0
 663 024a 47 D7                   		cmp	r13, r7
 664 024c 24 24                   		bgtu	.L63
 513:C:/Workspace/FW_Inertia/branch_indesit/Application_Platform\APP_Interpreter.c **** 		*ppCompStepHigh = pTempHighStat;
 665                             		.loc 1 513 0
 666 024e FB A2 00 00 00 00       		mov.L	#_pStepHigh, r10
 667                             	.LVL58:
 668 0254 E3 A7                   		mov.L	r7, [r10]
 514:C:/Workspace/FW_Inertia/branch_indesit/Application_Platform\APP_Interpreter.c **** 		*ppCompStepLow = pTempLowStat; 
 669                             		.loc 1 514 0
 670 0256 FB A2 00 00 00 00       		mov.L	#_pStepLow, r10
 671 025c E3 A9                   		mov.L	r9, [r10]
 517:C:/Workspace/FW_Inertia/branch_indesit/Application_Platform\APP_Interpreter.c **** 		pCompItpData->first_statement = (uint8_t)(*ppCompStepHigh - pCompTableData->pHiStat);
 672                             		.loc 1 517 0
 673 025e FB A2 00 00 00 00       		mov.L	#_TableData, r10
 674 0264 06 81 A7 01             		sub	4[r10].L, r7
 675                             	.LVL59:
 676 0268 C7 B7 03                		mov.B	r7, 3[r11]
 519:C:/Workspace/FW_Inertia/branch_indesit/Application_Platform\APP_Interpreter.c **** 		return END_STEP;
 677                             		.loc 1 519 0
 678 026b 66 01                   		mov	#0, r1
 679 026d 38 55 01                		bra	.L41
 680                             	.LVL60:
 681                             	.L63:
 527:C:/Workspace/FW_Inertia/branch_indesit/Application_Platform\APP_Interpreter.c **** 	if( TESTBIT(phaseFlags, B_RESET_FLAG) )
 682                             		.loc 1 527 0
 683 0270 EF AC                   		mov.L	r10, r12
 684 0272 64 2C                   		and	#2, r12
 685 0274 3B 4C 01                		bne	.L76
 549:C:/Workspace/FW_Inertia/branch_indesit/Application_Platform\APP_Interpreter.c **** 	if (TESTBIT(phaseFlags, B_JUMPIF_FLAG))
 686                             		.loc 1 549 0
 687 0277 EF A1                   		mov.L	r10, r1
 688 0279 64 11                   		and	#1, r1
 689 027b 3A AC 00                		beq	.L64
 553:C:/Workspace/FW_Inertia/branch_indesit/Application_Platform\APP_Interpreter.c **** 		if( Table_JumpIf[compartment].ret == TRUE )
 690                             		.loc 1 553 0
 691 027e FB 72 00 00 00 00       		mov.L	#_Table_JumpIf, r7
 692                             	.LVL61:
 693 0284 59 7A 03                		movu.B	3[r7], r10
 694                             	.LVL62:
 695 0287 61 1A                   		cmp	#1, r10
 696 0289 21 35                   		bne	.L65
 556:C:/Workspace/FW_Inertia/branch_indesit/Application_Platform\APP_Interpreter.c **** 			Table_JumpIf[compartment].ret = FALSE;	/*resetto la variabile (VEDI SE SPOSTARE IL RESET NEL UP)
 697                             		.loc 1 556 0
 698 028b C7 7C 03                		mov.B	r12, 3[r7]
 558:C:/Workspace/FW_Inertia/branch_indesit/Application_Platform\APP_Interpreter.c **** 			if( ( Table_JumpIf[compartment].cycle == pCompItpData->cycle) && ( Table_JumpIf[compartment].pha
 699                             		.loc 1 558 0
 700 028e 58 7C                   		movu.B	[r7], r12
 701 0290 45 BC 01                		cmp	1[r11].UB, r12
 702 0293 21 0F                   		bne	.L66
 558:C:/Workspace/FW_Inertia/branch_indesit/Application_Platform\APP_Interpreter.c **** 			if( ( Table_JumpIf[compartment].cycle == pCompItpData->cycle) && ( Table_JumpIf[compartment].pha
 703                             		.loc 1 558 0 is_stmt 0 discriminator 1
 704 0295 59 7A 01                		movu.B	1[r7], r10
 705 0298 45 BA 02                		cmp	2[r11].UB, r10
 706 029b 1F                      		bne	.L66
 707                             		.balign 2,3,2
 708                             	.L67:
 561:C:/Workspace/FW_Inertia/branch_indesit/Application_Platform\APP_Interpreter.c **** 				return ITP_ERR_WRONG_COMMAND;	
 709                             		.loc 1 561 0 is_stmt 1
 710 029c FB 16 8F                		mov	#0xffffff8f, r1
 711 029f 38 23 01                		bra	.L41
 712                             	.L66:
 564:C:/Workspace/FW_Inertia/branch_indesit/Application_Platform\APP_Interpreter.c **** 			if ( ITP_saveReturnPoint(compartment)!= S_OK )
 713                             		.loc 1 564 0
 714 02a2 66 01                   		mov	#0, r1
 715 02a4 05 00 00 00             		bsr	_ITP_saveReturnPoint
 716                             	.LVL63:
 717 02a8 76 21 FF 00             		and #0xff, r1
 718 02ac 21 F0                   		bne	.L67
 572:C:/Workspace/FW_Inertia/branch_indesit/Application_Platform\APP_Interpreter.c **** 			JmpPhase_Return[compartment] = JmpPhase[compartment];
 719                             		.loc 1 572 0
 720 02ae FB 12 00 00 00 00       		mov.L	#_JmpPhase_Return, r1
 721 02b4 FB 22 00 00 00 00       		mov.L	#_JmpPhase, r2
 722 02ba 66 53                   		mov.L	#5, r3
 723 02bc 7F 8F                   		smovf
 724                             		.balign 2,3,5
 725                             	.L65:
 581:C:/Workspace/FW_Inertia/branch_indesit/Application_Platform\APP_Interpreter.c **** 		if( (Table_JumpIf[compartment].cycle == pCompItpData->cycle ) && (Table_JumpIf[compartment].phase
 726                             		.loc 1 581 0
 727 02be FB C2 00 00 00 00       		mov.L	#_Table_JumpIf, r12
 728 02c4 CC CA                   		mov.B	[r12], r10
 729 02c6 FB 72 00 00 00 00       		mov.L	#_Interpreter_Data, r7
 730 02cc CD 7B 01                		mov.B	1[r7], r11
 731 02cf 5B AE                   		movu.B	r10, r14
 732 02d1 5B BD                   		movu.B	r11, r13
 733                             	.LVL64:
 734 02d3 47 DE                   		cmp	r13, r14
 735 02d5 21 11                   		bne	.L68
 581:C:/Workspace/FW_Inertia/branch_indesit/Application_Platform\APP_Interpreter.c **** 		if( (Table_JumpIf[compartment].cycle == pCompItpData->cycle ) && (Table_JumpIf[compartment].phase
 736                             		.loc 1 581 0 is_stmt 0 discriminator 1
 737 02d7 59 CD 01                		movu.B	1[r12], r13
 738 02da 45 7D 02                		cmp	2[r7].UB, r13
 739 02dd 19                      		bne	.L68
 586:C:/Workspace/FW_Inertia/branch_indesit/Application_Platform\APP_Interpreter.c **** 			pCompItpData->jumpIF_phase_ctrl = 1;
 740                             		.loc 1 586 0 is_stmt 1
 741 02de CD 7C 04                		mov.B	4[r7], r12
 742 02e1 78 3C                   		bset	#3, r12
 743 02e3 C7 7C 04                		mov.B	r12, 4[r7]
 744                             		.balign 2,3,5
 745                             	.L68:
 594:C:/Workspace/FW_Inertia/branch_indesit/Application_Platform\APP_Interpreter.c ****         bkp_CompItpDataCycle = Interpreter_Data[0].cycle;
 746                             		.loc 1 594 0
 747 02e6 FB 72 00 00 00 00       		mov.L	#_bkp_CompItpDataCycle, r7
 748 02ec C3 7B                   		mov.B	r11, [r7]
 595:C:/Workspace/FW_Inertia/branch_indesit/Application_Platform\APP_Interpreter.c ****         bkp_CompItpDataPhase = Interpreter_Data[0].phase;
 749                             		.loc 1 595 0
 750 02ee FB 72 00 00 00 00       		mov.L	#_Interpreter_Data, r7
 751 02f4 FB B2 00 00 00 00       		mov.L	#_bkp_CompItpDataPhase, r11
 752 02fa C1 7B 02                		mov.B	2[r7], [r11]
 596:C:/Workspace/FW_Inertia/branch_indesit/Application_Platform\APP_Interpreter.c ****         bkp_CompItpDatamSetting  = Interpreter_Data[0].mSetting;
 753                             		.loc 1 596 0
 754 02fd FB B2 00 00 00 00       		mov.L	#_bkp_CompItpDatamSetting, r11
 755 0303 C1 7B 05                		mov.B	5[r7], [r11]
 597:C:/Workspace/FW_Inertia/branch_indesit/Application_Platform\APP_Interpreter.c ****         bkp_CompItpDataFirstStatement = Interpreter_Data[0].first_statement;
 756                             		.loc 1 597 0
 757 0306 FB B2 00 00 00 00       		mov.L	#_bkp_CompItpDataFirstStatement, r11
 758 030c C1 7B 03                		mov.B	3[r7], [r11]
 604:C:/Workspace/FW_Inertia/branch_indesit/Application_Platform\APP_Interpreter.c **** 		pCompItpData->cycle = Table_JumpIf[compartment].cycle;
 759                             		.loc 1 604 0
 760 030f C7 7A 01                		mov.B	r10, 1[r7]
 605:C:/Workspace/FW_Inertia/branch_indesit/Application_Platform\APP_Interpreter.c **** 		pCompItpData->phase = Table_JumpIf[compartment].phase;
 761                             		.loc 1 605 0
 762 0312 FB A2 00 00 00 00       		mov.L	#_Table_JumpIf, r10
 763 0318 C5 A7 01 02             		mov.B	1[r10], 2[r7]
 606:C:/Workspace/FW_Inertia/branch_indesit/Application_Platform\APP_Interpreter.c **** 		pCompItpData->first_statement = Table_JumpIf[compartment].first_statement;
 764                             		.loc 1 606 0
 765 031c C5 A7 02 03             		mov.B	2[r10], 3[r7]
 613:C:/Workspace/FW_Inertia/branch_indesit/Application_Platform\APP_Interpreter.c **** 		pCompItpData->phaseDataInitialized = 0;
 766                             		.loc 1 613 0
 767 0320 CD 7A 04                		mov.B	4[r7], r10
 768 0323 7A 0A                   		bclr	#0, r10
 769 0325 2E 65                   		bra	.L85
 770                             	.LVL65:
 771                             	.L64:
 635:C:/Workspace/FW_Inertia/branch_indesit/Application_Platform\APP_Interpreter.c **** 	if ( TESTBIT(phaseFlags, B_RETURN_FLAG) )
 772                             		.loc 1 635 0
 773 0327 64 4A                   		and	#4, r10
 774                             	.LVL66:
 775 0329 20 68                   		beq	.L69
 637:C:/Workspace/FW_Inertia/branch_indesit/Application_Platform\APP_Interpreter.c **** 		if ( ITP_getReturnPoint(compartment)!= S_OK )
 776                             		.loc 1 637 0
 777 032b 05 00 00 00             		bsr	_ITP_getReturnPoint
 778                             	.LVL67:
 779 032f 76 21 FF 00             		and #0xff, r1
 780 0333 3B 69 FF                		bne	.L67
 643:C:/Workspace/FW_Inertia/branch_indesit/Application_Platform\APP_Interpreter.c **** 		if( ( pCompRetPoint->cycle == pCompItpData->cycle ) && ( pCompRetPoint->phase == pCompItpData->ph
 781                             		.loc 1 643 0
 782 0336 FB C2 00 00 00 00       		mov.L	#_ReturnPoint, r12
 783 033c CC CA                   		mov.B	[r12], r10
 784 033e 5B A7                   		movu.B	r10, r7
 785                             	.LVL68:
 786 0340 45 B7 01                		cmp	1[r11].UB, r7
 787 0343 21 0B                   		bne	.L70
 643:C:/Workspace/FW_Inertia/branch_indesit/Application_Platform\APP_Interpreter.c **** 		if( ( pCompRetPoint->cycle == pCompItpData->cycle ) && ( pCompRetPoint->phase == pCompItpData->ph
 788                             		.loc 1 643 0 is_stmt 0 discriminator 1
 789 0345 59 CC 01                		movu.B	1[r12], r12
 790 0348 45 BC 02                		cmp	2[r11].UB, r12
 791 034b 3A 51 FF                		beq	.L67
 792                             		.balign 2,3,2
 793                             	.L70:
 649:C:/Workspace/FW_Inertia/branch_indesit/Application_Platform\APP_Interpreter.c **** 		if (pCompRetPoint->cycle == RETURN_END_CYCLE)
 794                             		.loc 1 649 0 is_stmt 1
 795 034e 75 57 FF                		cmp	#0xff, r7
 796 0351 1D                      		bne	.L71
 797                             	.LVL69:
 798                             		.balign 2,3,1
 799                             	.L72:
 654:C:/Workspace/FW_Inertia/branch_indesit/Application_Platform\APP_Interpreter.c **** 			return END_CYCLE;
 800                             		.loc 1 654 0
 801 0352 66 21                   		mov	#2, r1
 802 0354 2E 6E                   		bra	.L41
 803                             	.LVL70:
 804                             	.L71:
 658:C:/Workspace/FW_Inertia/branch_indesit/Application_Platform\APP_Interpreter.c **** 		pCompItpData->cycle = pCompRetPoint->cycle;
 805                             		.loc 1 658 0
 806 0356 FB 72 00 00 00 00       		mov.L	#_Interpreter_Data, r7
 807 035c C7 7A 01                		mov.B	r10, 1[r7]
 659:C:/Workspace/FW_Inertia/branch_indesit/Application_Platform\APP_Interpreter.c **** 		pCompItpData->phase = pCompRetPoint->phase;
 808                             		.loc 1 659 0
 809 035f FB A2 00 00 00 00       		mov.L	#_ReturnPoint, r10
 810 0365 C5 A7 01 02             		mov.B	1[r10], 2[r7]
 660:C:/Workspace/FW_Inertia/branch_indesit/Application_Platform\APP_Interpreter.c **** 		pCompItpData->first_statement = pCompRetPoint->first_statement;
 811                             		.loc 1 660 0
 812 0369 C5 A7 02 03             		mov.B	2[r10], 3[r7]
 662:C:/Workspace/FW_Inertia/branch_indesit/Application_Platform\APP_Interpreter.c **** 		pCompItpData->phaseDataInitialized = 0;	/* ritorno nell'inizializzazione ciclo-fase
 813                             		.loc 1 662 0
 814 036d CD 7A 04                		mov.B	4[r7], r10
 815 0370 7A 0A                   		bclr	#0, r10
 816 0372 C7 7A 04                		mov.B	r10, 4[r7]
 666:C:/Workspace/FW_Inertia/branch_indesit/Application_Platform\APP_Interpreter.c **** 		JmpPhase[compartment] = JmpPhase_Return[compartment];  /* ripristino dati relativi al JumpIF vali
 817                             		.loc 1 666 0
 818 0375 FB 12 00 00 00 00       		mov.L	#_JmpPhase, r1
 819 037b FB 22 00 00 00 00       		mov.L	#_JmpPhase_Return, r2
 820 0381 66 53                   		mov.L	#5, r3
 821 0383 7F 8F                   		smovf
 668:C:/Workspace/FW_Inertia/branch_indesit/Application_Platform\APP_Interpreter.c **** 		pCompItpData->jumpIF_phase_ctrl = 1;	/* non devo cancellare i dati relativi al JUMPIF 
 822                             		.loc 1 668 0
 823 0385 CD 7A 04                		mov.B	4[r7], r10
 824 0388 78 3A                   		bset	#3, r10
 825                             	.LVL71:
 826                             		.balign 2,3,5
 827                             	.L85:
 828 038a C7 7A 04                		mov.B	r10, 4[r7]
 674:C:/Workspace/FW_Inertia/branch_indesit/Application_Platform\APP_Interpreter.c **** 		return PROGRAM_FLOW_BREAK;
 829                             		.loc 1 674 0
 830 038d 66 51                   		mov	#5, r1
 831 038f 2E 33                   		bra	.L41
 832                             	.LVL72:
 833                             	.L69:
 680:C:/Workspace/FW_Inertia/branch_indesit/Application_Platform\APP_Interpreter.c **** 	if (pCompItpData->phase >= (pCompTableData->nCyclePhases - 1) )
 834                             		.loc 1 680 0
 835 0391 CD B7 02                		mov.B	2[r11], r7
 836                             	.LVL73:
 837 0394 5B 7D                   		movu.B	r7, r13
 838                             	.LVL74:
 839 0396 FB C2 00 00 00 00       		mov.L	#_TableData, r12
 840 039c 58 CC                   		movu.B	[r12], r12
 841 039e 60 1C                   		sub	#1, r12
 842 03a0 47 CD                   		cmp	r12, r13
 843 03a2 28 B0                   		bge	.L72
 690:C:/Workspace/FW_Inertia/branch_indesit/Application_Platform\APP_Interpreter.c **** 	pCompItpData->phase ++;
 844                             		.loc 1 690 0
 845 03a4 62 17                   		add	#1, r7
 846 03a6 C7 B7 02                		mov.B	r7, 2[r11]
 691:C:/Workspace/FW_Inertia/branch_indesit/Application_Platform\APP_Interpreter.c **** 	pCompItpData->first_statement = 0;
 847                             		.loc 1 691 0
 848 03a9 C7 BA 03                		mov.B	r10, 3[r11]
 693:C:/Workspace/FW_Inertia/branch_indesit/Application_Platform\APP_Interpreter.c **** 	pCompItpData->phaseDataInitialized = 0;
 849                             		.loc 1 693 0
 850 03ac CD B7 04                		mov.B	4[r11], r7
 851 03af 7A 07                   		bclr	#0, r7
 852 03b1 C7 B7 04                		mov.B	r7, 4[r11]
 695:C:/Workspace/FW_Inertia/branch_indesit/Application_Platform\APP_Interpreter.c **** 	return END_PHASE;
 853                             		.loc 1 695 0
 854 03b4 66 11                   		mov	#1, r1
 855 03b6 2E 0C                   		bra	.L41
 856                             	.LVL75:
 857                             	.L73:
 210:C:/Workspace/FW_Inertia/branch_indesit/Application_Platform\APP_Interpreter.c **** 			return ITP_ERR_PHASE_LOADER;
 858                             		.loc 1 210 0
 859 03b8 FB 16 8E                		mov	#0xffffff8e, r1
 860                             	.LVL76:
 861 03bb 0F                      		bra	.L41
 862                             	.LVL77:
 863                             	.L74:
 234:C:/Workspace/FW_Inertia/branch_indesit/Application_Platform\APP_Interpreter.c **** 			return ITP_ERR_PH_STAT_OUT_OF_RANGE;
 864                             		.loc 1 234 0
 865 03bc FB 16 8D                		mov	#0xffffff8d, r1
 866                             	.LVL78:
 867 03bf 0B                      		bra	.L41
 868                             	.LVL79:
 869                             	.L76:
 544:C:/Workspace/FW_Inertia/branch_indesit/Application_Platform\APP_Interpreter.c **** 		return END_CYCLE_RESET;	
 870                             		.loc 1 544 0
 871 03c0 66 31                   		mov	#3, r1
 872                             	.LVL80:
 873                             		.balign 2,3,3
 874                             	.L41:
 696:C:/Workspace/FW_Inertia/branch_indesit/Application_Platform\APP_Interpreter.c **** }
 875                             		.loc 1 696 0
 876 03c2 76 21 8F 00             		and #0x8f, r1
 877 03c6 3F 6D 08                		rtsd	#32, r6-r13
 878                             	.LFE0:
 880 03c9 03                      		.section	.text.ITP_phaseTrackerReset,"ax",@progbits
 881                             		.global	_ITP_phaseTrackerReset
 883                             	_ITP_phaseTrackerReset:
 884                             	.LFB6:
 995:C:/Workspace/FW_Inertia/branch_indesit/Application_Platform\APP_Interpreter.c **** }
 996:C:/Workspace/FW_Inertia/branch_indesit/Application_Platform\APP_Interpreter.c **** /**/
 997:C:/Workspace/FW_Inertia/branch_indesit/Application_Platform\APP_Interpreter.c **** 
 998:C:/Workspace/FW_Inertia/branch_indesit/Application_Platform\APP_Interpreter.c **** 
 999:C:/Workspace/FW_Inertia/branch_indesit/Application_Platform\APP_Interpreter.c **** /**
1000:C:/Workspace/FW_Inertia/branch_indesit/Application_Platform\APP_Interpreter.c **** 
1001:C:/Workspace/FW_Inertia/branch_indesit/Application_Platform\APP_Interpreter.c **** \return     	none
1002:C:/Workspace/FW_Inertia/branch_indesit/Application_Platform\APP_Interpreter.c **** 
1003:C:/Workspace/FW_Inertia/branch_indesit/Application_Platform\APP_Interpreter.c **** \version    	1.0.0
1004:C:/Workspace/FW_Inertia/branch_indesit/Application_Platform\APP_Interpreter.c **** \date   		24/09/2009
1005:C:/Workspace/FW_Inertia/branch_indesit/Application_Platform\APP_Interpreter.c **** \author			Valeria Catani
1006:C:/Workspace/FW_Inertia/branch_indesit/Application_Platform\APP_Interpreter.c **** */
1007:C:/Workspace/FW_Inertia/branch_indesit/Application_Platform\APP_Interpreter.c **** void ITP_phaseTrackerReset(void)
1008:C:/Workspace/FW_Inertia/branch_indesit/Application_Platform\APP_Interpreter.c **** {
 885                             		.loc 1 1008 0
1009:C:/Workspace/FW_Inertia/branch_indesit/Application_Platform\APP_Interpreter.c **** 	memset(&UIBackupData[0], 0, N_UI_PHASE_BMP);
 886                             		.loc 1 1009 0
 887 0000 FB 12 00 00 00 00       		mov.L	#_UIBackupData, r1
 888 0006 66 A3                   		mov.L	#10, r3
 889 0008 66 02                   		mov	#0, r2
 890 000a 7F 88                   		sstr.b
 891 000c 02                      		rts
 892                             	.LFE6:
 894                             		.global	_Tab_phase2byte
 895                             		.section	.rodata.Tab_phase2byte,"a",@progbits
 898                             	_Tab_phase2byte:
 899 0000 01                      		.byte	1
 900 0001 00                      		.byte	0
 901 0002 03                      		.byte	3
 902 0003 02                      		.byte	2
 903 0004 07                      		.byte	7
 904 0005 06                      		.byte	6
 905 0006 09                      		.byte	9
 906 0007 08                      		.byte	8
 907                             		.section	.bss.TableData,"aw",@nobits
 908                             		.balign 4
 911                             	_TableData:
 912 0000 00 00 00 00 00 00 00 00 		.zero	12
 912      00 00 00 00 
 913                             		.section	.bss.pStepHigh,"aw",@nobits
 914                             		.balign 4
 917                             	_pStepHigh:
 918 0000 00 00 00 00             		.zero	4
 919                             		.section	.bss.pStepLow,"aw",@nobits
 920                             		.balign 4
 923                             	_pStepLow:
 924 0000 00 00 00 00             		.zero	4
 925                             		.section	.bss.StepLength,"aw",@nobits
 928                             	_StepLength:
 929 0000 00                      		.zero	1
 1086                             	.Letext0:
 1087                             		.file 2 "C:\\Workspace\\FW_Inertia\\branch_indesit\\HAL\\HAL_General/StandardTypes.h"
 1088                             		.file 3 "C:\\Workspace\\FW_Inertia\\branch_indesit\\CFG_DishWasher\\CFG_Inertia/ProductSafety_cfg.
 1089                             		.file 4 "C:\\Workspace\\FW_Inertia\\branch_indesit\\Inertia\\General/CstmDefines.h"
 1090                             		.file 5 "C:\\Workspace\\FW_Inertia\\branch_indesit\\Application_Platform/APP_Types.h"
 1091                             		.file 6 "C:\\Workspace\\FW_Inertia\\branch_indesit\\ProductModules\\PM_BusCOMM/BCP_General.h"
 1092                             		.file 7 "C:\\Workspace\\FW_Inertia\\branch_indesit\\CFG_DishWasher\\CFG_Inertia/BusCommPltf_cfg.h"
 1093                             		.file 8 "C:\\Workspace\\FW_Inertia\\branch_indesit\\ProductModules\\PM_BusCOMM/BCP_BusCommMng.h"
 1094                             		.file 9 "C:\\Workspace\\FW_Inertia\\branch_indesit\\Application_Platform/APP_Global.h"
 1095                             		.file 10 "C:\\Workspace\\FW_Inertia\\branch_indesit\\Inertia\\General/CstmGlobal.h"
 1096                             		.file 11 "C:\\Workspace\\FW_Inertia\\branch_indesit\\Application_Platform/APP_callback.h"
 1097                             		.file 12 "C:\\Workspace\\FW_Inertia\\branch_indesit\\Application_Platform/APP_Loader.h"
 1098                             		.file 13 "C:\\Workspace\\FW_Inertia\\branch_indesit\\Application_Platform/APP_JumpIf.h"
DEFINED SYMBOLS
                            *ABS*:00000000 APP_Interpreter.c
C:\Users\Andrea\AppData\Local\Temp\cckRfDBa.s:7      .text.ITP_interpreterFlagsInit:00000000 _ITP_interpreterFlagsInit
C:\Users\Andrea\AppData\Local\Temp\cckRfDBa.s:13     .text.ITP_interpreterFlagsInit:00000000 L0
C:\Users\Andrea\AppData\Local\Temp\cckRfDBa.s:44     .text.DummyMP:00000000 _DummyMP
C:\Users\Andrea\AppData\Local\Temp\cckRfDBa.s:49     .text.DummyMP:00000000 L0
C:\Users\Andrea\AppData\Local\Temp\cckRfDBa.s:57     .text.ITP_saveReturnPoint:00000000 _ITP_saveReturnPoint
C:\Users\Andrea\AppData\Local\Temp\cckRfDBa.s:61     .text.ITP_saveReturnPoint:00000000 L0
C:\Users\Andrea\AppData\Local\Temp\cckRfDBa.s:911    .bss.TableData:00000000 _TableData
C:\Users\Andrea\AppData\Local\Temp\cckRfDBa.s:928    .bss.StepLength:00000000 _StepLength
C:\Users\Andrea\AppData\Local\Temp\cckRfDBa.s:187    .text.ITP_getReturnPoint:00000000 _ITP_getReturnPoint
C:\Users\Andrea\AppData\Local\Temp\cckRfDBa.s:191    .text.ITP_getReturnPoint:00000000 L0
C:\Users\Andrea\AppData\Local\Temp\cckRfDBa.s:261    .text.ITP_syncUICyclePos:00000000 _ITP_syncUICyclePos
C:\Users\Andrea\AppData\Local\Temp\cckRfDBa.s:266    .text.ITP_syncUICyclePos:00000000 L0
C:\Users\Andrea\AppData\Local\Temp\cckRfDBa.s:281    .text.ITP_programFlowInterpreter:00000000 _ITP_programFlowInterpreter
C:\Users\Andrea\AppData\Local\Temp\cckRfDBa.s:284    .text.ITP_programFlowInterpreter:00000000 L0
C:\Users\Andrea\AppData\Local\Temp\cckRfDBa.s:917    .bss.pStepHigh:00000000 _pStepHigh
C:\Users\Andrea\AppData\Local\Temp\cckRfDBa.s:923    .bss.pStepLow:00000000 _pStepLow
C:\Users\Andrea\AppData\Local\Temp\cckRfDBa.s:883    .text.ITP_phaseTrackerReset:00000000 _ITP_phaseTrackerReset
C:\Users\Andrea\AppData\Local\Temp\cckRfDBa.s:887    .text.ITP_phaseTrackerReset:00000000 L0
C:\Users\Andrea\AppData\Local\Temp\cckRfDBa.s:898    .rodata.Tab_phase2byte:00000000 _Tab_phase2byte
C:\Users\Andrea\AppData\Local\Temp\cckRfDBa.s:931    .debug_frame:00000000 .Lframe0
C:\Users\Andrea\AppData\Local\Temp\cckRfDBa.s:8      .text.ITP_interpreterFlagsInit:00000000 .LFB1
C:\Users\Andrea\AppData\Local\Temp\cckRfDBa.s:45     .text.DummyMP:00000000 .LFB2
C:\Users\Andrea\AppData\Local\Temp\cckRfDBa.s:58     .text.ITP_saveReturnPoint:00000000 .LFB3
C:\Users\Andrea\AppData\Local\Temp\cckRfDBa.s:188    .text.ITP_getReturnPoint:00000000 .LFB4
C:\Users\Andrea\AppData\Local\Temp\cckRfDBa.s:262    .text.ITP_syncUICyclePos:00000000 .LFB5
C:\Users\Andrea\AppData\Local\Temp\cckRfDBa.s:282    .text.ITP_programFlowInterpreter:00000000 .LFB0
C:\Users\Andrea\AppData\Local\Temp\cckRfDBa.s:884    .text.ITP_phaseTrackerReset:00000000 .LFB6
C:\Users\Andrea\AppData\Local\Temp\cckRfDBa.s:2483   .debug_abbrev:00000000 .Ldebug_abbrev0
C:\Users\Andrea\AppData\Local\Temp\cckRfDBa.s:3827   .debug_str:00000348 .LASF162
C:\Users\Andrea\AppData\Local\Temp\cckRfDBa.s:3807   .debug_str:0000026c .LASF163
C:\Users\Andrea\AppData\Local\Temp\cckRfDBa.s:3703   .debug_ranges:00000000 .Ldebug_ranges0
C:\Users\Andrea\AppData\Local\Temp\cckRfDBa.s:3721   .debug_line:00000000 .Ldebug_line0
C:\Users\Andrea\AppData\Local\Temp\cckRfDBa.s:3973   .debug_str:000007d9 .LASF0
C:\Users\Andrea\AppData\Local\Temp\cckRfDBa.s:3873   .debug_str:000004c4 .LASF1
C:\Users\Andrea\AppData\Local\Temp\cckRfDBa.s:3797   .debug_str:0000022c .LASF3
C:\Users\Andrea\AppData\Local\Temp\cckRfDBa.s:3853   .debug_str:00000431 .LASF2
C:\Users\Andrea\AppData\Local\Temp\cckRfDBa.s:4005   .debug_str:000008f3 .LASF4
C:\Users\Andrea\AppData\Local\Temp\cckRfDBa.s:3845   .debug_str:000003dc .LASF5
C:\Users\Andrea\AppData\Local\Temp\cckRfDBa.s:4035   .debug_str:000009d2 .LASF6
C:\Users\Andrea\AppData\Local\Temp\cckRfDBa.s:3831   .debug_str:00000377 .LASF7
C:\Users\Andrea\AppData\Local\Temp\cckRfDBa.s:3759   .debug_str:00000114 .LASF8
C:\Users\Andrea\AppData\Local\Temp\cckRfDBa.s:4017   .debug_str:00000938 .LASF9
C:\Users\Andrea\AppData\Local\Temp\cckRfDBa.s:3927   .debug_str:0000065b .LASF10
C:\Users\Andrea\AppData\Local\Temp\cckRfDBa.s:3761   .debug_str:00000122 .LASF11
C:\Users\Andrea\AppData\Local\Temp\cckRfDBa.s:3765   .debug_str:0000013e .LASF12
C:\Users\Andrea\AppData\Local\Temp\cckRfDBa.s:3891   .debug_str:0000054e .LASF13
C:\Users\Andrea\AppData\Local\Temp\cckRfDBa.s:3857   .debug_str:00000452 .LASF22
C:\Users\Andrea\AppData\Local\Temp\cckRfDBa.s:3931   .debug_str:00000679 .LASF14
C:\Users\Andrea\AppData\Local\Temp\cckRfDBa.s:3767   .debug_str:00000145 .LASF15
C:\Users\Andrea\AppData\Local\Temp\cckRfDBa.s:3893   .debug_str:00000557 .LASF16
C:\Users\Andrea\AppData\Local\Temp\cckRfDBa.s:3949   .debug_str:00000728 .LASF17
C:\Users\Andrea\AppData\Local\Temp\cckRfDBa.s:4047   .debug_str:00000a0f .LASF18
C:\Users\Andrea\AppData\Local\Temp\cckRfDBa.s:3981   .debug_str:00000810 .LASF19
C:\Users\Andrea\AppData\Local\Temp\cckRfDBa.s:4029   .debug_str:00000997 .LASF20
C:\Users\Andrea\AppData\Local\Temp\cckRfDBa.s:3967   .debug_str:000007b4 .LASF21
C:\Users\Andrea\AppData\Local\Temp\cckRfDBa.s:3735   .debug_str:0000006a .LASF23
C:\Users\Andrea\AppData\Local\Temp\cckRfDBa.s:4013   .debug_str:00000919 .LASF24
C:\Users\Andrea\AppData\Local\Temp\cckRfDBa.s:3745   .debug_str:000000a7 .LASF25
C:\Users\Andrea\AppData\Local\Temp\cckRfDBa.s:3989   .debug_str:00000867 .LASF26
C:\Users\Andrea\AppData\Local\Temp\cckRfDBa.s:4001   .debug_str:000008d5 .LASF27
C:\Users\Andrea\AppData\Local\Temp\cckRfDBa.s:3935   .debug_str:000006a0 .LASF28
C:\Users\Andrea\AppData\Local\Temp\cckRfDBa.s:3879   .debug_str:000004ec .LASF29
C:\Users\Andrea\AppData\Local\Temp\cckRfDBa.s:3961   .debug_str:00000786 .LASF30
C:\Users\Andrea\AppData\Local\Temp\cckRfDBa.s:3995   .debug_str:0000089f .LASF31
C:\Users\Andrea\AppData\Local\Temp\cckRfDBa.s:3919   .debug_str:00000627 .LASF32
C:\Users\Andrea\AppData\Local\Temp\cckRfDBa.s:3749   .debug_str:000000c8 .LASF33
C:\Users\Andrea\AppData\Local\Temp\cckRfDBa.s:3819   .debug_str:000002fc .LASF34
C:\Users\Andrea\AppData\Local\Temp\cckRfDBa.s:3939   .debug_str:000006d4 .LASF35
C:\Users\Andrea\AppData\Local\Temp\cckRfDBa.s:3871   .debug_str:000004b7 .LASF36
C:\Users\Andrea\AppData\Local\Temp\cckRfDBa.s:3775   .debug_str:00000189 .LASF37
C:\Users\Andrea\AppData\Local\Temp\cckRfDBa.s:3943   .debug_str:000006f5 .LASF38
C:\Users\Andrea\AppData\Local\Temp\cckRfDBa.s:3877   .debug_str:000004dd .LASF39
C:\Users\Andrea\AppData\Local\Temp\cckRfDBa.s:3847   .debug_str:000003ee .LASF40
C:\Users\Andrea\AppData\Local\Temp\cckRfDBa.s:3881   .debug_str:00000502 .LASF41
C:\Users\Andrea\AppData\Local\Temp\cckRfDBa.s:3987   .debug_str:0000084c .LASF42
C:\Users\Andrea\AppData\Local\Temp\cckRfDBa.s:3883   .debug_str:0000050e .LASF43
C:\Users\Andrea\AppData\Local\Temp\cckRfDBa.s:3991   .debug_str:00000878 .LASF44
C:\Users\Andrea\AppData\Local\Temp\cckRfDBa.s:3825   .debug_str:0000032d .LASF45
C:\Users\Andrea\AppData\Local\Temp\cckRfDBa.s:4023   .debug_str:0000095c .LASF46
C:\Users\Andrea\AppData\Local\Temp\cckRfDBa.s:3937   .debug_str:000006b8 .LASF47
C:\Users\Andrea\AppData\Local\Temp\cckRfDBa.s:3731   .debug_str:00000043 .LASF48
C:\Users\Andrea\AppData\Local\Temp\cckRfDBa.s:3823   .debug_str:0000031c .LASF49
C:\Users\Andrea\AppData\Local\Temp\cckRfDBa.s:4009   .debug_str:00000902 .LASF50
C:\Users\Andrea\AppData\Local\Temp\cckRfDBa.s:3947   .debug_str:00000717 .LASF51
C:\Users\Andrea\AppData\Local\Temp\cckRfDBa.s:3739   .debug_str:0000008b .LASF52
C:\Users\Andrea\AppData\Local\Temp\cckRfDBa.s:4015   .debug_str:00000928 .LASF53
C:\Users\Andrea\AppData\Local\Temp\cckRfDBa.s:3921   .debug_str:00000635 .LASF54
C:\Users\Andrea\AppData\Local\Temp\cckRfDBa.s:3875   .debug_str:000004ce .LASF55
C:\Users\Andrea\AppData\Local\Temp\cckRfDBa.s:3903   .debug_str:000005b1 .LASF64
C:\Users\Andrea\AppData\Local\Temp\cckRfDBa.s:3901   .debug_str:000005a4 .LASF56
C:\Users\Andrea\AppData\Local\Temp\cckRfDBa.s:3747   .debug_str:000000b7 .LASF57
C:\Users\Andrea\AppData\Local\Temp\cckRfDBa.s:3777   .debug_str:00000198 .LASF58
C:\Users\Andrea\AppData\Local\Temp\cckRfDBa.s:3963   .debug_str:00000797 .LASF59
C:\Users\Andrea\AppData\Local\Temp\cckRfDBa.s:3977   .debug_str:000007ef .LASF60
C:\Users\Andrea\AppData\Local\Temp\cckRfDBa.s:3755   .debug_str:000000fe .LASF61
C:\Users\Andrea\AppData\Local\Temp\cckRfDBa.s:3957   .debug_str:0000076b .LASF62
C:\Users\Andrea\AppData\Local\Temp\cckRfDBa.s:3867   .debug_str:000004a1 .LASF63
C:\Users\Andrea\AppData\Local\Temp\cckRfDBa.s:4033   .debug_str:000009be .LASF65
C:\Users\Andrea\AppData\Local\Temp\cckRfDBa.s:3811   .debug_str:000002c8 .LASF66
C:\Users\Andrea\AppData\Local\Temp\cckRfDBa.s:4007   .debug_str:000008fc .LASF67
C:\Users\Andrea\AppData\Local\Temp\cckRfDBa.s:3781   .debug_str:000001b6 .LASF68
C:\Users\Andrea\AppData\Local\Temp\cckRfDBa.s:4019   .debug_str:00000940 .LASF69
C:\Users\Andrea\AppData\Local\Temp\cckRfDBa.s:3769   .debug_str:0000015b .LASF70
C:\Users\Andrea\AppData\Local\Temp\cckRfDBa.s:3933   .debug_str:0000068a .LASF71
C:\Users\Andrea\AppData\Local\Temp\cckRfDBa.s:3729   .debug_str:00000037 .LASF72
C:\Users\Andrea\AppData\Local\Temp\cckRfDBa.s:3787   .debug_str:000001d9 .LASF73
C:\Users\Andrea\AppData\Local\Temp\cckRfDBa.s:3983   .debug_str:00000825 .LASF74
C:\Users\Andrea\AppData\Local\Temp\cckRfDBa.s:4031   .debug_str:000009ae .LASF75
C:\Users\Andrea\AppData\Local\Temp\cckRfDBa.s:3895   .debug_str:00000565 .LASF76
C:\Users\Andrea\AppData\Local\Temp\cckRfDBa.s:3975   .debug_str:000007e6 .LASF77
C:\Users\Andrea\AppData\Local\Temp\cckRfDBa.s:3789   .debug_str:000001eb .LASF78
C:\Users\Andrea\AppData\Local\Temp\cckRfDBa.s:3945   .debug_str:00000703 .LASF79
C:\Users\Andrea\AppData\Local\Temp\cckRfDBa.s:3833   .debug_str:0000038e .LASF80
C:\Users\Andrea\AppData\Local\Temp\cckRfDBa.s:3741   .debug_str:00000098 .LASF81
C:\Users\Andrea\AppData\Local\Temp\cckRfDBa.s:3915   .debug_str:00000607 .LASF82
C:\Users\Andrea\AppData\Local\Temp\cckRfDBa.s:4027   .debug_str:00000986 .LASF83
C:\Users\Andrea\AppData\Local\Temp\cckRfDBa.s:4043   .debug_str:000009fc .LASF84
C:\Users\Andrea\AppData\Local\Temp\cckRfDBa.s:3763   .debug_str:0000012e .LASF85
C:\Users\Andrea\AppData\Local\Temp\cckRfDBa.s:3821   .debug_str:0000030b .LASF86
C:\Users\Andrea\AppData\Local\Temp\cckRfDBa.s:3783   .debug_str:000001bc .LASF87
C:\Users\Andrea\AppData\Local\Temp\cckRfDBa.s:3839   .debug_str:000003b5 .LASF88
C:\Users\Andrea\AppData\Local\Temp\cckRfDBa.s:3737   .debug_str:0000007d .LASF89
C:\Users\Andrea\AppData\Local\Temp\cckRfDBa.s:3835   .debug_str:00000399 .LASF90
C:\Users\Andrea\AppData\Local\Temp\cckRfDBa.s:3955   .debug_str:00000754 .LASF91
C:\Users\Andrea\AppData\Local\Temp\cckRfDBa.s:3751   .debug_str:000000d8 .LASF92
C:\Users\Andrea\AppData\Local\Temp\cckRfDBa.s:3849   .debug_str:000003ff .LASF93
C:\Users\Andrea\AppData\Local\Temp\cckRfDBa.s:3969   .debug_str:000007b9 .LASF94
C:\Users\Andrea\AppData\Local\Temp\cckRfDBa.s:3953   .debug_str:00000747 .LASF95
C:\Users\Andrea\AppData\Local\Temp\cckRfDBa.s:3843   .debug_str:000003cf .LASF96
C:\Users\Andrea\AppData\Local\Temp\cckRfDBa.s:4045   .debug_str:00000a02 .LASF97
C:\Users\Andrea\AppData\Local\Temp\cckRfDBa.s:3917   .debug_str:0000061a .LASF98
C:\Users\Andrea\AppData\Local\Temp\cckRfDBa.s:3801   .debug_str:00000243 .LASF99
C:\Users\Andrea\AppData\Local\Temp\cckRfDBa.s:3913   .debug_str:000005f6 .LASF100
C:\Users\Andrea\AppData\Local\Temp\cckRfDBa.s:3723   .debug_str:00000000 .LASF101
C:\Users\Andrea\AppData\Local\Temp\cckRfDBa.s:3855   .debug_str:00000444 .LASF102
C:\Users\Andrea\AppData\Local\Temp\cckRfDBa.s:3785   .debug_str:000001cc .LASF103
C:\Users\Andrea\AppData\Local\Temp\cckRfDBa.s:4025   .debug_str:00000977 .LASF104
C:\Users\Andrea\AppData\Local\Temp\cckRfDBa.s:4051   .debug_str:00000a33 .LASF105
C:\Users\Andrea\AppData\Local\Temp\cckRfDBa.s:3771   .debug_str:00000167 .LASF120
C:\Users\Andrea\AppData\Local\Temp\cckRfDBa.s:39     .text.ITP_interpreterFlagsInit:00000024 .LFE1
C:\Users\Andrea\AppData\Local\Temp\cckRfDBa.s:3971   .debug_str:000007d4 .LASF106
C:\Users\Andrea\AppData\Local\Temp\cckRfDBa.s:4021   .debug_str:00000950 .LASF111
C:\Users\Andrea\AppData\Local\Temp\cckRfDBa.s:3803   .debug_str:00000250 .LASF115
C:\Users\Andrea\AppData\Local\Temp\cckRfDBa.s:4037   .debug_str:000009db .LASF109
C:\Users\Andrea\AppData\Local\Temp\cckRfDBa.s:52     .text.DummyMP:00000003 .LFE2
C:\Users\Andrea\AppData\Local\Temp\cckRfDBa.s:4049   .debug_str:00000a25 .LASF107
C:\Users\Andrea\AppData\Local\Temp\cckRfDBa.s:3203   .debug_loc:00000000 .LLST0
C:\Users\Andrea\AppData\Local\Temp\cckRfDBa.s:3951   .debug_str:0000073a .LASF108
C:\Users\Andrea\AppData\Local\Temp\cckRfDBa.s:3999   .debug_str:000008c1 .LASF110
C:\Users\Andrea\AppData\Local\Temp\cckRfDBa.s:182    .text.ITP_saveReturnPoint:000000b2 .LFE3
C:\Users\Andrea\AppData\Local\Temp\cckRfDBa.s:3217   .debug_loc:00000021 .LLST1
C:\Users\Andrea\AppData\Local\Temp\cckRfDBa.s:3813   .debug_str:000002d6 .LASF112
C:\Users\Andrea\AppData\Local\Temp\cckRfDBa.s:3985   .debug_str:0000083d .LASF113
C:\Users\Andrea\AppData\Local\Temp\cckRfDBa.s:3743   .debug_str:0000009e .LASF114
C:\Users\Andrea\AppData\Local\Temp\cckRfDBa.s:3863   .debug_str:0000047a .LASF116
C:\Users\Andrea\AppData\Local\Temp\cckRfDBa.s:3757   .debug_str:00000108 .LASF117
C:\Users\Andrea\AppData\Local\Temp\cckRfDBa.s:3725   .debug_str:00000011 .LASF118
C:\Users\Andrea\AppData\Local\Temp\cckRfDBa.s:256    .text.ITP_getReturnPoint:00000060 .LFE4
C:\Users\Andrea\AppData\Local\Temp\cckRfDBa.s:3245   .debug_loc:00000065 .LLST2
C:\Users\Andrea\AppData\Local\Temp\cckRfDBa.s:3887   .debug_str:00000530 .LASF119
C:\Users\Andrea\AppData\Local\Temp\cckRfDBa.s:3727   .debug_str:00000024 .LASF121
C:\Users\Andrea\AppData\Local\Temp\cckRfDBa.s:276    .text.ITP_syncUICyclePos:0000001d .LFE5
C:\Users\Andrea\AppData\Local\Temp\cckRfDBa.s:3273   .debug_loc:000000a9 .LLST3
C:\Users\Andrea\AppData\Local\Temp\cckRfDBa.s:3897   .debug_str:0000057a .LASF122
C:\Users\Andrea\AppData\Local\Temp\cckRfDBa.s:878    .text.ITP_programFlowInterpreter:000003c9 .LFE0
C:\Users\Andrea\AppData\Local\Temp\cckRfDBa.s:3287   .debug_loc:000000ca .LLST4
C:\Users\Andrea\AppData\Local\Temp\cckRfDBa.s:3923   .debug_str:00000644 .LASF123
C:\Users\Andrea\AppData\Local\Temp\cckRfDBa.s:3300   .debug_loc:000000ea .LLST5
C:\Users\Andrea\AppData\Local\Temp\cckRfDBa.s:3907   .debug_str:000005d3 .LASF124
C:\Users\Andrea\AppData\Local\Temp\cckRfDBa.s:3315   .debug_loc:00000113 .LLST6
C:\Users\Andrea\AppData\Local\Temp\cckRfDBa.s:3753   .debug_str:000000f1 .LASF125
C:\Users\Andrea\AppData\Local\Temp\cckRfDBa.s:3367   .debug_loc:000001a3 .LLST7
C:\Users\Andrea\AppData\Local\Temp\cckRfDBa.s:3959   .debug_str:00000774 .LASF126
C:\Users\Andrea\AppData\Local\Temp\cckRfDBa.s:3378   .debug_loc:000001c1 .LLST8
C:\Users\Andrea\AppData\Local\Temp\cckRfDBa.s:3925   .debug_str:00000654 .LASF127
C:\Users\Andrea\AppData\Local\Temp\cckRfDBa.s:3401   .debug_loc:00000200 .LLST9
C:\Users\Andrea\AppData\Local\Temp\cckRfDBa.s:3841   .debug_str:000003c4 .LASF128
C:\Users\Andrea\AppData\Local\Temp\cckRfDBa.s:3412   .debug_loc:0000021e .LLST10
C:\Users\Andrea\AppData\Local\Temp\cckRfDBa.s:3861   .debug_str:00000472 .LASF129
C:\Users\Andrea\AppData\Local\Temp\cckRfDBa.s:3436   .debug_loc:0000025e .LLST11
C:\Users\Andrea\AppData\Local\Temp\cckRfDBa.s:4003   .debug_str:000008ec .LASF130
C:\Users\Andrea\AppData\Local\Temp\cckRfDBa.s:3493   .debug_loc:000002f0 .LLST12
C:\Users\Andrea\AppData\Local\Temp\cckRfDBa.s:3993   .debug_str:00000890 .LASF131
C:\Users\Andrea\AppData\Local\Temp\cckRfDBa.s:3530   .debug_loc:00000336 .LLST13
C:\Users\Andrea\AppData\Local\Temp\cckRfDBa.s:3837   .debug_str:000003ab .LASF132
C:\Users\Andrea\AppData\Local\Temp\cckRfDBa.s:3571   .debug_loc:00000380 .LLST14
C:\Users\Andrea\AppData\Local\Temp\cckRfDBa.s:3617   .debug_loc:000003f9 .LLST15
C:\Users\Andrea\AppData\Local\Temp\cckRfDBa.s:3809   .debug_str:000002ba .LASF133
C:\Users\Andrea\AppData\Local\Temp\cckRfDBa.s:3670   .debug_loc:00000479 .LLST16
C:\Users\Andrea\AppData\Local\Temp\cckRfDBa.s:3979   .debug_str:00000802 .LASF134
C:\Users\Andrea\AppData\Local\Temp\cckRfDBa.s:3885   .debug_str:00000521 .LASF135
C:\Users\Andrea\AppData\Local\Temp\cckRfDBa.s:3905   .debug_str:000005c5 .LASF136
C:\Users\Andrea\AppData\Local\Temp\cckRfDBa.s:323    .text.ITP_programFlowInterpreter:0000004c .LVL10
C:\Users\Andrea\AppData\Local\Temp\cckRfDBa.s:349    .text.ITP_programFlowInterpreter:00000086 .LVL11
C:\Users\Andrea\AppData\Local\Temp\cckRfDBa.s:352    .text.ITP_programFlowInterpreter:0000008a .LVL12
C:\Users\Andrea\AppData\Local\Temp\cckRfDBa.s:361    .text.ITP_programFlowInterpreter:00000096 .LVL13
C:\Users\Andrea\AppData\Local\Temp\cckRfDBa.s:573    .text.ITP_programFlowInterpreter:000001cc .LVL43
C:\Users\Andrea\AppData\Local\Temp\cckRfDBa.s:611    .text.ITP_programFlowInterpreter:00000202 .LVL50
C:\Users\Andrea\AppData\Local\Temp\cckRfDBa.s:638    .text.ITP_programFlowInterpreter:00000226 .LVL55
C:\Users\Andrea\AppData\Local\Temp\cckRfDBa.s:661    .text.ITP_programFlowInterpreter:0000024a .LVL57
C:\Users\Andrea\AppData\Local\Temp\cckRfDBa.s:716    .text.ITP_programFlowInterpreter:000002a8 .LVL63
C:\Users\Andrea\AppData\Local\Temp\cckRfDBa.s:778    .text.ITP_programFlowInterpreter:0000032f .LVL67
C:\Users\Andrea\AppData\Local\Temp\cckRfDBa.s:3779   .debug_str:000001a0 .LASF164
C:\Users\Andrea\AppData\Local\Temp\cckRfDBa.s:892    .text.ITP_phaseTrackerReset:0000000d .LFE6
C:\Users\Andrea\AppData\Local\Temp\cckRfDBa.s:3815   .debug_str:000002e5 .LASF137
C:\Users\Andrea\AppData\Local\Temp\cckRfDBa.s:3911   .debug_str:000005ec .LASF138
C:\Users\Andrea\AppData\Local\Temp\cckRfDBa.s:3829   .debug_str:0000036e .LASF139
C:\Users\Andrea\AppData\Local\Temp\cckRfDBa.s:3909   .debug_str:000005e1 .LASF140
C:\Users\Andrea\AppData\Local\Temp\cckRfDBa.s:4011   .debug_str:00000911 .LASF141
C:\Users\Andrea\AppData\Local\Temp\cckRfDBa.s:3965   .debug_str:0000079f .LASF142
C:\Users\Andrea\AppData\Local\Temp\cckRfDBa.s:3851   .debug_str:0000041c .LASF143
C:\Users\Andrea\AppData\Local\Temp\cckRfDBa.s:3865   .debug_str:00000489 .LASF144
C:\Users\Andrea\AppData\Local\Temp\cckRfDBa.s:3793   .debug_str:00000206 .LASF145
C:\Users\Andrea\AppData\Local\Temp\cckRfDBa.s:3859   .debug_str:00000461 .LASF146
C:\Users\Andrea\AppData\Local\Temp\cckRfDBa.s:4041   .debug_str:000009ef .LASF147
C:\Users\Andrea\AppData\Local\Temp\cckRfDBa.s:3773   .debug_str:00000180 .LASF148
C:\Users\Andrea\AppData\Local\Temp\cckRfDBa.s:3941   .debug_str:000006e5 .LASF149
C:\Users\Andrea\AppData\Local\Temp\cckRfDBa.s:4039   .debug_str:000009e3 .LASF150
C:\Users\Andrea\AppData\Local\Temp\cckRfDBa.s:3791   .debug_str:000001fe .LASF151
C:\Users\Andrea\AppData\Local\Temp\cckRfDBa.s:3795   .debug_str:00000224 .LASF152
C:\Users\Andrea\AppData\Local\Temp\cckRfDBa.s:3817   .debug_str:000002ef .LASF153
C:\Users\Andrea\AppData\Local\Temp\cckRfDBa.s:3805   .debug_str:0000025d .LASF154
C:\Users\Andrea\AppData\Local\Temp\cckRfDBa.s:3869   .debug_str:000004a7 .LASF155
C:\Users\Andrea\AppData\Local\Temp\cckRfDBa.s:3889   .debug_str:0000053e .LASF158
C:\Users\Andrea\AppData\Local\Temp\cckRfDBa.s:3733   .debug_str:00000057 .LASF156
C:\Users\Andrea\AppData\Local\Temp\cckRfDBa.s:3997   .debug_str:000008b1 .LASF157
C:\Users\Andrea\AppData\Local\Temp\cckRfDBa.s:3899   .debug_str:00000595 .LASF159
C:\Users\Andrea\AppData\Local\Temp\cckRfDBa.s:3799   .debug_str:00000235 .LASF160
C:\Users\Andrea\AppData\Local\Temp\cckRfDBa.s:3929   .debug_str:00000669 .LASF161
C:\Users\Andrea\AppData\Local\Temp\cckRfDBa.s:47     .text.DummyMP:00000000 .LVL1
C:\Users\Andrea\AppData\Local\Temp\cckRfDBa.s:50     .text.DummyMP:00000002 .LVL2
C:\Users\Andrea\AppData\Local\Temp\cckRfDBa.s:72     .text.ITP_saveReturnPoint:00000018 .LCFI0
C:\Users\Andrea\AppData\Local\Temp\cckRfDBa.s:77     .text.ITP_saveReturnPoint:0000001d .LCFI1
C:\Users\Andrea\AppData\Local\Temp\cckRfDBa.s:80     .text.ITP_saveReturnPoint:0000001f .LCFI2
C:\Users\Andrea\AppData\Local\Temp\cckRfDBa.s:176    .text.ITP_saveReturnPoint:000000ad .LCFI3
C:\Users\Andrea\AppData\Local\Temp\cckRfDBa.s:202    .text.ITP_getReturnPoint:00000016 .LCFI4
C:\Users\Andrea\AppData\Local\Temp\cckRfDBa.s:207    .text.ITP_getReturnPoint:0000001a .LCFI5
C:\Users\Andrea\AppData\Local\Temp\cckRfDBa.s:210    .text.ITP_getReturnPoint:0000001c .LCFI6
C:\Users\Andrea\AppData\Local\Temp\cckRfDBa.s:250    .text.ITP_getReturnPoint:0000005b .LCFI7
C:\Users\Andrea\AppData\Local\Temp\cckRfDBa.s:264    .text.ITP_syncUICyclePos:00000000 .LVL3
C:\Users\Andrea\AppData\Local\Temp\cckRfDBa.s:268    .text.ITP_syncUICyclePos:00000004 .LVL4
C:\Users\Andrea\AppData\Local\Temp\cckRfDBa.s:285    .text.ITP_programFlowInterpreter:00000002 .LCFI8
C:\Users\Andrea\AppData\Local\Temp\cckRfDBa.s:856    .text.ITP_programFlowInterpreter:000003b8 .LVL75
C:\Users\Andrea\AppData\Local\Temp\cckRfDBa.s:860    .text.ITP_programFlowInterpreter:000003bb .LVL76
C:\Users\Andrea\AppData\Local\Temp\cckRfDBa.s:862    .text.ITP_programFlowInterpreter:000003bc .LVL77
C:\Users\Andrea\AppData\Local\Temp\cckRfDBa.s:866    .text.ITP_programFlowInterpreter:000003bf .LVL78
C:\Users\Andrea\AppData\Local\Temp\cckRfDBa.s:365    .text.ITP_programFlowInterpreter:0000009e .LVL14
C:\Users\Andrea\AppData\Local\Temp\cckRfDBa.s:488    .text.ITP_programFlowInterpreter:00000171 .LVL28
C:\Users\Andrea\AppData\Local\Temp\cckRfDBa.s:493    .text.ITP_programFlowInterpreter:00000174 .LVL30
C:\Users\Andrea\AppData\Local\Temp\cckRfDBa.s:498    .text.ITP_programFlowInterpreter:00000178 .LVL31
C:\Users\Andrea\AppData\Local\Temp\cckRfDBa.s:508    .text.ITP_programFlowInterpreter:00000180 .LVL33
C:\Users\Andrea\AppData\Local\Temp\cckRfDBa.s:517    .text.ITP_programFlowInterpreter:0000018b .LVL34
C:\Users\Andrea\AppData\Local\Temp\cckRfDBa.s:525    .text.ITP_programFlowInterpreter:00000193 .LVL36
C:\Users\Andrea\AppData\Local\Temp\cckRfDBa.s:675    .text.ITP_programFlowInterpreter:00000268 .LVL59
C:\Users\Andrea\AppData\Local\Temp\cckRfDBa.s:680    .text.ITP_programFlowInterpreter:00000270 .LVL60
C:\Users\Andrea\AppData\Local\Temp\cckRfDBa.s:692    .text.ITP_programFlowInterpreter:00000284 .LVL61
C:\Users\Andrea\AppData\Local\Temp\cckRfDBa.s:770    .text.ITP_programFlowInterpreter:00000327 .LVL65
C:\Users\Andrea\AppData\Local\Temp\cckRfDBa.s:785    .text.ITP_programFlowInterpreter:00000340 .LVL68
C:\Users\Andrea\AppData\Local\Temp\cckRfDBa.s:832    .text.ITP_programFlowInterpreter:00000391 .LVL72
C:\Users\Andrea\AppData\Local\Temp\cckRfDBa.s:836    .text.ITP_programFlowInterpreter:00000394 .LVL73
C:\Users\Andrea\AppData\Local\Temp\cckRfDBa.s:868    .text.ITP_programFlowInterpreter:000003c0 .LVL79
C:\Users\Andrea\AppData\Local\Temp\cckRfDBa.s:872    .text.ITP_programFlowInterpreter:000003c2 .LVL80
C:\Users\Andrea\AppData\Local\Temp\cckRfDBa.s:369    .text.ITP_programFlowInterpreter:000000a6 .LVL15
C:\Users\Andrea\AppData\Local\Temp\cckRfDBa.s:380    .text.ITP_programFlowInterpreter:000000bc .LVL17
C:\Users\Andrea\AppData\Local\Temp\cckRfDBa.s:733    .text.ITP_programFlowInterpreter:000002d3 .LVL64
C:\Users\Andrea\AppData\Local\Temp\cckRfDBa.s:797    .text.ITP_programFlowInterpreter:00000352 .LVL69
C:\Users\Andrea\AppData\Local\Temp\cckRfDBa.s:803    .text.ITP_programFlowInterpreter:00000356 .LVL70
C:\Users\Andrea\AppData\Local\Temp\cckRfDBa.s:825    .text.ITP_programFlowInterpreter:0000038a .LVL71
C:\Users\Andrea\AppData\Local\Temp\cckRfDBa.s:838    .text.ITP_programFlowInterpreter:00000396 .LVL74
C:\Users\Andrea\AppData\Local\Temp\cckRfDBa.s:373    .text.ITP_programFlowInterpreter:000000ac .LVL16
C:\Users\Andrea\AppData\Local\Temp\cckRfDBa.s:396    .text.ITP_programFlowInterpreter:000000d6 .LVL18
C:\Users\Andrea\AppData\Local\Temp\cckRfDBa.s:667    .text.ITP_programFlowInterpreter:00000254 .LVL58
C:\Users\Andrea\AppData\Local\Temp\cckRfDBa.s:694    .text.ITP_programFlowInterpreter:00000287 .LVL62
C:\Users\Andrea\AppData\Local\Temp\cckRfDBa.s:774    .text.ITP_programFlowInterpreter:00000329 .LVL66
C:\Users\Andrea\AppData\Local\Temp\cckRfDBa.s:491    .text.ITP_programFlowInterpreter:00000173 .LVL29
C:\Users\Andrea\AppData\Local\Temp\cckRfDBa.s:501    .text.ITP_programFlowInterpreter:0000017a .LVL32
C:\Users\Andrea\AppData\Local\Temp\cckRfDBa.s:520    .text.ITP_programFlowInterpreter:0000018d .LVL35
C:\Users\Andrea\AppData\Local\Temp\cckRfDBa.s:583    .text.ITP_programFlowInterpreter:000001d6 .LVL46
C:\Users\Andrea\AppData\Local\Temp\cckRfDBa.s:586    .text.ITP_programFlowInterpreter:000001d8 .LVL47
C:\Users\Andrea\AppData\Local\Temp\cckRfDBa.s:621    .text.ITP_programFlowInterpreter:0000020c .LVL53
C:\Users\Andrea\AppData\Local\Temp\cckRfDBa.s:624    .text.ITP_programFlowInterpreter:0000020e .LVL54
C:\Users\Andrea\AppData\Local\Temp\cckRfDBa.s:647    .text.ITP_programFlowInterpreter:00000235 .LVL56
C:\Users\Andrea\AppData\Local\Temp\cckRfDBa.s:438    .text.ITP_programFlowInterpreter:0000011d .LVL22
C:\Users\Andrea\AppData\Local\Temp\cckRfDBa.s:446    .text.ITP_programFlowInterpreter:0000012b .LVL23
C:\Users\Andrea\AppData\Local\Temp\cckRfDBa.s:458    .text.ITP_programFlowInterpreter:00000143 .LVL24
C:\Users\Andrea\AppData\Local\Temp\cckRfDBa.s:474    .text.ITP_programFlowInterpreter:00000160 .LVL25
C:\Users\Andrea\AppData\Local\Temp\cckRfDBa.s:484    .text.ITP_programFlowInterpreter:0000016d .LVL27
C:\Users\Andrea\AppData\Local\Temp\cckRfDBa.s:286    .text.ITP_programFlowInterpreter:00000002 .LVL5
C:\Users\Andrea\AppData\Local\Temp\cckRfDBa.s:481    .text.ITP_programFlowInterpreter:00000169 .LVL26
C:\Users\Andrea\AppData\Local\Temp\cckRfDBa.s:539    .text.ITP_programFlowInterpreter:000001a0 .LVL37
C:\Users\Andrea\AppData\Local\Temp\cckRfDBa.s:553    .text.ITP_programFlowInterpreter:000001b0 .LVL40
C:\Users\Andrea\AppData\Local\Temp\cckRfDBa.s:565    .text.ITP_programFlowInterpreter:000001bc .LVL42
C:\Users\Andrea\AppData\Local\Temp\cckRfDBa.s:576    .text.ITP_programFlowInterpreter:000001d0 .LVL44
C:\Users\Andrea\AppData\Local\Temp\cckRfDBa.s:597    .text.ITP_programFlowInterpreter:000001ec .LVL48
C:\Users\Andrea\AppData\Local\Temp\cckRfDBa.s:606    .text.ITP_programFlowInterpreter:000001fb .LVL49
C:\Users\Andrea\AppData\Local\Temp\cckRfDBa.s:614    .text.ITP_programFlowInterpreter:00000206 .LVL51
C:\Users\Andrea\AppData\Local\Temp\cckRfDBa.s:295    .text.ITP_programFlowInterpreter:00000016 .LVL6
C:\Users\Andrea\AppData\Local\Temp\cckRfDBa.s:301    .text.ITP_programFlowInterpreter:00000023 .LVL7
C:\Users\Andrea\AppData\Local\Temp\cckRfDBa.s:306    .text.ITP_programFlowInterpreter:0000002b .LVL8
C:\Users\Andrea\AppData\Local\Temp\cckRfDBa.s:309    .text.ITP_programFlowInterpreter:0000002e .LVL9
C:\Users\Andrea\AppData\Local\Temp\cckRfDBa.s:415    .text.ITP_programFlowInterpreter:00000100 .LVL19
C:\Users\Andrea\AppData\Local\Temp\cckRfDBa.s:422    .text.ITP_programFlowInterpreter:00000108 .LVL20
C:\Users\Andrea\AppData\Local\Temp\cckRfDBa.s:427    .text.ITP_programFlowInterpreter:0000010c .LVL21
C:\Users\Andrea\AppData\Local\Temp\cckRfDBa.s:561    .text.ITP_programFlowInterpreter:000001b4 .LVL41
C:\Users\Andrea\AppData\Local\Temp\cckRfDBa.s:1100   .debug_info:00000000 .Ldebug_info0

UNDEFINED SYMBOLS
_Interpreter_Data
_Jsr
_ReturnPoint
_UICycle
_UIPhase
_JmpPhase
_LDR_phaseLoader
_ITP_phaseTrackerUI
_ITP_preStepInit
_Microprog_array
_JIF_JumpIf_Exe
_ITP_loadsMgmt
_ITP_newStepInit
_Table_JumpIf
_JmpPhase_Return
_bkp_CompItpDataCycle
_bkp_CompItpDataPhase
_bkp_CompItpDatamSetting
_bkp_CompItpDataFirstStatement
_UIBackupData
