   1                             		.file	"BCP_BusCommMng.c"
   2                             		.section P,"ax"
   3                             	.Ltext0:
   4                             		.section	.text.BCP_InitChSync,"ax",@progbits
   5                             		.global	_BCP_InitChSync
   7                             	_BCP_InitChSync:
   8                             	.LFB0:
   9                             		.file 1 "C:/Workspace/FW_Inertia/branch_indesit/ProductModules/PM_BusCOMM/BCP_BusCommMng.c"
   1:C:/Workspace/FW_Inertia/branch_indesit/ProductModules/PM_BusCOMM\BCP_BusCommMng.c **** /*
   2:C:/Workspace/FW_Inertia/branch_indesit/ProductModules/PM_BusCOMM\BCP_BusCommMng.c **** Copyright (c) 2004-2009, Indesit Company, I.D.D.
   3:C:/Workspace/FW_Inertia/branch_indesit/ProductModules/PM_BusCOMM\BCP_BusCommMng.c **** Tutti i diritti sono riservati. All rights reserved.
   4:C:/Workspace/FW_Inertia/branch_indesit/ProductModules/PM_BusCOMM\BCP_BusCommMng.c **** */
   5:C:/Workspace/FW_Inertia/branch_indesit/ProductModules/PM_BusCOMM\BCP_BusCommMng.c **** /**
   6:C:/Workspace/FW_Inertia/branch_indesit/ProductModules/PM_BusCOMM\BCP_BusCommMng.c **** \defgroup	PM_BusCOMM
   7:C:/Workspace/FW_Inertia/branch_indesit/ProductModules/PM_BusCOMM\BCP_BusCommMng.c **** @{
   8:C:/Workspace/FW_Inertia/branch_indesit/ProductModules/PM_BusCOMM\BCP_BusCommMng.c **** \n	  Communication Platform is a Platform2 component providing a communication framework with multi
   9:C:/Workspace/FW_Inertia/branch_indesit/ProductModules/PM_BusCOMM\BCP_BusCommMng.c **** \n    All the relevant structures (buffer dimension, buffer sharing,..), priorities and modules (un
  10:C:/Workspace/FW_Inertia/branch_indesit/ProductModules/PM_BusCOMM\BCP_BusCommMng.c ****       are parametrized and can be changed from the caller application
  11:C:/Workspace/FW_Inertia/branch_indesit/ProductModules/PM_BusCOMM\BCP_BusCommMng.c **** \n    Communication Platform is organized in three separated levels:
  12:C:/Workspace/FW_Inertia/branch_indesit/ProductModules/PM_BusCOMM\BCP_BusCommMng.c ****       \li Communication Manager,
  13:C:/Workspace/FW_Inertia/branch_indesit/ProductModules/PM_BusCOMM\BCP_BusCommMng.c ****       \li Platform Protocol,
  14:C:/Workspace/FW_Inertia/branch_indesit/ProductModules/PM_BusCOMM\BCP_BusCommMng.c ****       \li Driver.
  15:C:/Workspace/FW_Inertia/branch_indesit/ProductModules/PM_BusCOMM\BCP_BusCommMng.c **** 
  16:C:/Workspace/FW_Inertia/branch_indesit/ProductModules/PM_BusCOMM\BCP_BusCommMng.c **** \link CM Communication Manager \endlink and Platform Protocol are part of the Communication Platfor
  17:C:/Workspace/FW_Inertia/branch_indesit/ProductModules/PM_BusCOMM\BCP_BusCommMng.c **** Drivers is another component of Platform2 containing drivers not only related to the commnunication
  18:C:/Workspace/FW_Inertia/branch_indesit/ProductModules/PM_BusCOMM\BCP_BusCommMng.c **** 
  19:C:/Workspace/FW_Inertia/branch_indesit/ProductModules/PM_BusCOMM\BCP_BusCommMng.c **** \n
  20:C:/Workspace/FW_Inertia/branch_indesit/ProductModules/PM_BusCOMM\BCP_BusCommMng.c **** The mail goal of this component is:
  21:C:/Workspace/FW_Inertia/branch_indesit/ProductModules/PM_BusCOMM\BCP_BusCommMng.c **** \li Platformize this crucial piece of code among all the applications
  22:C:/Workspace/FW_Inertia/branch_indesit/ProductModules/PM_BusCOMM\BCP_BusCommMng.c **** \li Reduce the communication stress on the bus
  23:C:/Workspace/FW_Inertia/branch_indesit/ProductModules/PM_BusCOMM\BCP_BusCommMng.c **** \li Easy way to build an application in partnership that communicate with Indesit I2C Bus
  24:C:/Workspace/FW_Inertia/branch_indesit/ProductModules/PM_BusCOMM\BCP_BusCommMng.c **** 
  25:C:/Workspace/FW_Inertia/branch_indesit/ProductModules/PM_BusCOMM\BCP_BusCommMng.c **** \n
  26:C:/Workspace/FW_Inertia/branch_indesit/ProductModules/PM_BusCOMM\BCP_BusCommMng.c **** \n    Bus Communication Platform needs the following Platform 2 components:
  27:C:/Workspace/FW_Inertia/branch_indesit/ProductModules/PM_BusCOMM\BCP_BusCommMng.c **** \li HAL_General: general Hardware Abstraction Layer support.
  28:C:/Workspace/FW_Inertia/branch_indesit/ProductModules/PM_BusCOMM\BCP_BusCommMng.c **** \li MCU-specific HAL: HAL of the target MCU.
  29:C:/Workspace/FW_Inertia/branch_indesit/ProductModules/PM_BusCOMM\BCP_BusCommMng.c **** \li Drivers: peripheral drivers
  30:C:/Workspace/FW_Inertia/branch_indesit/ProductModules/PM_BusCOMM\BCP_BusCommMng.c **** \li PM_Library, Library
  31:C:/Workspace/FW_Inertia/branch_indesit/ProductModules/PM_BusCOMM\BCP_BusCommMng.c **** 
  32:C:/Workspace/FW_Inertia/branch_indesit/ProductModules/PM_BusCOMM\BCP_BusCommMng.c **** \par Configuration:
  33:C:/Workspace/FW_Inertia/branch_indesit/ProductModules/PM_BusCOMM\BCP_BusCommMng.c **** \n
  34:C:/Workspace/FW_Inertia/branch_indesit/ProductModules/PM_BusCOMM\BCP_BusCommMng.c **** \n
  35:C:/Workspace/FW_Inertia/branch_indesit/ProductModules/PM_BusCOMM\BCP_BusCommMng.c **** \par Exported Functions:
  36:C:/Workspace/FW_Inertia/branch_indesit/ProductModules/PM_BusCOMM\BCP_BusCommMng.c **** \n
  37:C:/Workspace/FW_Inertia/branch_indesit/ProductModules/PM_BusCOMM\BCP_BusCommMng.c **** \n
  38:C:/Workspace/FW_Inertia/branch_indesit/ProductModules/PM_BusCOMM\BCP_BusCommMng.c **** 
  39:C:/Workspace/FW_Inertia/branch_indesit/ProductModules/PM_BusCOMM\BCP_BusCommMng.c **** @}
  40:C:/Workspace/FW_Inertia/branch_indesit/ProductModules/PM_BusCOMM\BCP_BusCommMng.c **** \ingroup ProductM
  41:C:/Workspace/FW_Inertia/branch_indesit/ProductModules/PM_BusCOMM\BCP_BusCommMng.c **** */
  42:C:/Workspace/FW_Inertia/branch_indesit/ProductModules/PM_BusCOMM\BCP_BusCommMng.c **** 
  43:C:/Workspace/FW_Inertia/branch_indesit/ProductModules/PM_BusCOMM\BCP_BusCommMng.c **** /**
  44:C:/Workspace/FW_Inertia/branch_indesit/ProductModules/PM_BusCOMM\BCP_BusCommMng.c **** \defgroup	CM Communication Manager
  45:C:/Workspace/FW_Inertia/branch_indesit/ProductModules/PM_BusCOMM\BCP_BusCommMng.c **** @{
  46:C:/Workspace/FW_Inertia/branch_indesit/ProductModules/PM_BusCOMM\BCP_BusCommMng.c **** 
  47:C:/Workspace/FW_Inertia/branch_indesit/ProductModules/PM_BusCOMM\BCP_BusCommMng.c **** \par		Description
  48:C:/Workspace/FW_Inertia/branch_indesit/ProductModules/PM_BusCOMM\BCP_BusCommMng.c **** \n      Communication Manager is the application interface of the Bus Communication Platform.
  49:C:/Workspace/FW_Inertia/branch_indesit/ProductModules/PM_BusCOMM\BCP_BusCommMng.c **** \n      It can work in two ways:
  50:C:/Workspace/FW_Inertia/branch_indesit/ProductModules/PM_BusCOMM\BCP_BusCommMng.c ****         \li master mode
  51:C:/Workspace/FW_Inertia/branch_indesit/ProductModules/PM_BusCOMM\BCP_BusCommMng.c ****         \li slave mode
  52:C:/Workspace/FW_Inertia/branch_indesit/ProductModules/PM_BusCOMM\BCP_BusCommMng.c **** 
  53:C:/Workspace/FW_Inertia/branch_indesit/ProductModules/PM_BusCOMM\BCP_BusCommMng.c **** \n      Master mode is described in \link CRM  Communication Request Manager \endlink
  54:C:/Workspace/FW_Inertia/branch_indesit/ProductModules/PM_BusCOMM\BCP_BusCommMng.c **** \n      Slave mode is described in \ref CP_CSM
  55:C:/Workspace/FW_Inertia/branch_indesit/ProductModules/PM_BusCOMM\BCP_BusCommMng.c **** 
  56:C:/Workspace/FW_Inertia/branch_indesit/ProductModules/PM_BusCOMM\BCP_BusCommMng.c **** \link CM More... \endlink
  57:C:/Workspace/FW_Inertia/branch_indesit/ProductModules/PM_BusCOMM\BCP_BusCommMng.c **** @}
  58:C:/Workspace/FW_Inertia/branch_indesit/ProductModules/PM_BusCOMM\BCP_BusCommMng.c **** \ingroup PM_BusCOMM
  59:C:/Workspace/FW_Inertia/branch_indesit/ProductModules/PM_BusCOMM\BCP_BusCommMng.c **** */
  60:C:/Workspace/FW_Inertia/branch_indesit/ProductModules/PM_BusCOMM\BCP_BusCommMng.c **** 
  61:C:/Workspace/FW_Inertia/branch_indesit/ProductModules/PM_BusCOMM\BCP_BusCommMng.c **** /**
  62:C:/Workspace/FW_Inertia/branch_indesit/ProductModules/PM_BusCOMM\BCP_BusCommMng.c **** \defgroup CSM Communication Slave Manager
  63:C:/Workspace/FW_Inertia/branch_indesit/ProductModules/PM_BusCOMM\BCP_BusCommMng.c **** \ingroup  CM
  64:C:/Workspace/FW_Inertia/branch_indesit/ProductModules/PM_BusCOMM\BCP_BusCommMng.c **** 
  65:C:/Workspace/FW_Inertia/branch_indesit/ProductModules/PM_BusCOMM\BCP_BusCommMng.c **** 
  66:C:/Workspace/FW_Inertia/branch_indesit/ProductModules/PM_BusCOMM\BCP_BusCommMng.c **** 
  67:C:/Workspace/FW_Inertia/branch_indesit/ProductModules/PM_BusCOMM\BCP_BusCommMng.c **** \par		Description
  68:C:/Workspace/FW_Inertia/branch_indesit/ProductModules/PM_BusCOMM\BCP_BusCommMng.c **** \n    Communication Slave Manager is the application interface of Bus Communication Platform workin
  69:C:/Workspace/FW_Inertia/branch_indesit/ProductModules/PM_BusCOMM\BCP_BusCommMng.c **** Features:
  70:C:/Workspace/FW_Inertia/branch_indesit/ProductModules/PM_BusCOMM\BCP_BusCommMng.c **** 	\li \ref CSM_SAM
  71:C:/Workspace/FW_Inertia/branch_indesit/ProductModules/PM_BusCOMM\BCP_BusCommMng.c **** 	\li \ref CSM_EOSN
  72:C:/Workspace/FW_Inertia/branch_indesit/ProductModules/PM_BusCOMM\BCP_BusCommMng.c **** */
  73:C:/Workspace/FW_Inertia/branch_indesit/ProductModules/PM_BusCOMM\BCP_BusCommMng.c **** 
  74:C:/Workspace/FW_Inertia/branch_indesit/ProductModules/PM_BusCOMM\BCP_BusCommMng.c **** /**
  75:C:/Workspace/FW_Inertia/branch_indesit/ProductModules/PM_BusCOMM\BCP_BusCommMng.c ****     \defgroup CRM  Communication Request Manager
  76:C:/Workspace/FW_Inertia/branch_indesit/ProductModules/PM_BusCOMM\BCP_BusCommMng.c ****     \ingroup CM
  77:C:/Workspace/FW_Inertia/branch_indesit/ProductModules/PM_BusCOMM\BCP_BusCommMng.c ****     Communication Slave Manager is the application interface of Bus Communication Platform working 
  78:C:/Workspace/FW_Inertia/branch_indesit/ProductModules/PM_BusCOMM\BCP_BusCommMng.c **** */
  79:C:/Workspace/FW_Inertia/branch_indesit/ProductModules/PM_BusCOMM\BCP_BusCommMng.c **** 
  80:C:/Workspace/FW_Inertia/branch_indesit/ProductModules/PM_BusCOMM\BCP_BusCommMng.c **** 
  81:C:/Workspace/FW_Inertia/branch_indesit/ProductModules/PM_BusCOMM\BCP_BusCommMng.c **** /**
  82:C:/Workspace/FW_Inertia/branch_indesit/ProductModules/PM_BusCOMM\BCP_BusCommMng.c **** \n
  83:C:/Workspace/FW_Inertia/branch_indesit/ProductModules/PM_BusCOMM\BCP_BusCommMng.c **** \par		Description
  84:C:/Workspace/FW_Inertia/branch_indesit/ProductModules/PM_BusCOMM\BCP_BusCommMng.c **** \n		This file is part of the Communication Request Manager and contains the implementations of the 
  85:C:/Workspace/FW_Inertia/branch_indesit/ProductModules/PM_BusCOMM\BCP_BusCommMng.c **** \n
  86:C:/Workspace/FW_Inertia/branch_indesit/ProductModules/PM_BusCOMM\BCP_BusCommMng.c **** \file		BCP_BusCommMng.c
  87:C:/Workspace/FW_Inertia/branch_indesit/ProductModules/PM_BusCOMM\BCP_BusCommMng.c **** \ingroup	CM
  88:C:/Workspace/FW_Inertia/branch_indesit/ProductModules/PM_BusCOMM\BCP_BusCommMng.c **** \date		05/05/2009
  89:C:/Workspace/FW_Inertia/branch_indesit/ProductModules/PM_BusCOMM\BCP_BusCommMng.c **** \version	01.00.00
  90:C:/Workspace/FW_Inertia/branch_indesit/ProductModules/PM_BusCOMM\BCP_BusCommMng.c **** \author		Gabriele Merlonghi
  91:C:/Workspace/FW_Inertia/branch_indesit/ProductModules/PM_BusCOMM\BCP_BusCommMng.c **** \n
  92:C:/Workspace/FW_Inertia/branch_indesit/ProductModules/PM_BusCOMM\BCP_BusCommMng.c **** \n
  93:C:/Workspace/FW_Inertia/branch_indesit/ProductModules/PM_BusCOMM\BCP_BusCommMng.c **** \par		History
  94:C:/Workspace/FW_Inertia/branch_indesit/ProductModules/PM_BusCOMM\BCP_BusCommMng.c **** \n 		00.00.75
  95:C:/Workspace/FW_Inertia/branch_indesit/ProductModules/PM_BusCOMM\BCP_BusCommMng.c **** \n		28/10/2010
  96:C:/Workspace/FW_Inertia/branch_indesit/ProductModules/PM_BusCOMM\BCP_BusCommMng.c **** \n		Roberto Fioravanti
  97:C:/Workspace/FW_Inertia/branch_indesit/ProductModules/PM_BusCOMM\BCP_BusCommMng.c **** \n		changes
  98:C:/Workspace/FW_Inertia/branch_indesit/ProductModules/PM_BusCOMM\BCP_BusCommMng.c **** \n 		- deleted obsolete code
  99:C:/Workspace/FW_Inertia/branch_indesit/ProductModules/PM_BusCOMM\BCP_BusCommMng.c **** \n		- updated documentation
 100:C:/Workspace/FW_Inertia/branch_indesit/ProductModules/PM_BusCOMM\BCP_BusCommMng.c **** \n
 101:C:/Workspace/FW_Inertia/branch_indesit/ProductModules/PM_BusCOMM\BCP_BusCommMng.c **** \n 		00.00.43
 102:C:/Workspace/FW_Inertia/branch_indesit/ProductModules/PM_BusCOMM\BCP_BusCommMng.c **** \n		28/04/2010
 103:C:/Workspace/FW_Inertia/branch_indesit/ProductModules/PM_BusCOMM\BCP_BusCommMng.c **** \n		Roberto Fioravanti
 104:C:/Workspace/FW_Inertia/branch_indesit/ProductModules/PM_BusCOMM\BCP_BusCommMng.c **** \n		changes
 105:C:/Workspace/FW_Inertia/branch_indesit/ProductModules/PM_BusCOMM\BCP_BusCommMng.c **** \n 		- BCM_SetPacketRequest (no more available).
 106:C:/Workspace/FW_Inertia/branch_indesit/ProductModules/PM_BusCOMM\BCP_BusCommMng.c **** \n
 107:C:/Workspace/FW_Inertia/branch_indesit/ProductModules/PM_BusCOMM\BCP_BusCommMng.c **** \n 		00.00.38
 108:C:/Workspace/FW_Inertia/branch_indesit/ProductModules/PM_BusCOMM\BCP_BusCommMng.c **** \n		08/03/2010
 109:C:/Workspace/FW_Inertia/branch_indesit/ProductModules/PM_BusCOMM\BCP_BusCommMng.c **** \n		Roberto Fioravanti
 110:C:/Workspace/FW_Inertia/branch_indesit/ProductModules/PM_BusCOMM\BCP_BusCommMng.c **** \n		changes
 111:C:/Workspace/FW_Inertia/branch_indesit/ProductModules/PM_BusCOMM\BCP_BusCommMng.c **** \n 		- CRM_SetPacketParamSync replaces BCM_SetPacketRequest (deprecated).
 112:C:/Workspace/FW_Inertia/branch_indesit/ProductModules/PM_BusCOMM\BCP_BusCommMng.c **** \n
 113:C:/Workspace/FW_Inertia/branch_indesit/ProductModules/PM_BusCOMM\BCP_BusCommMng.c **** \n 		00.00.26
 114:C:/Workspace/FW_Inertia/branch_indesit/ProductModules/PM_BusCOMM\BCP_BusCommMng.c **** \n		08/12/2010
 115:C:/Workspace/FW_Inertia/branch_indesit/ProductModules/PM_BusCOMM\BCP_BusCommMng.c **** \n		Roberto Fioravanti
 116:C:/Workspace/FW_Inertia/branch_indesit/ProductModules/PM_BusCOMM\BCP_BusCommMng.c **** \n		changes
 117:C:/Workspace/FW_Inertia/branch_indesit/ProductModules/PM_BusCOMM\BCP_BusCommMng.c **** \n 		- Doc updated
 118:C:/Workspace/FW_Inertia/branch_indesit/ProductModules/PM_BusCOMM\BCP_BusCommMng.c **** \n
 119:C:/Workspace/FW_Inertia/branch_indesit/ProductModules/PM_BusCOMM\BCP_BusCommMng.c **** \n 		00.00.26
 120:C:/Workspace/FW_Inertia/branch_indesit/ProductModules/PM_BusCOMM\BCP_BusCommMng.c **** \n		08/12/2010
 121:C:/Workspace/FW_Inertia/branch_indesit/ProductModules/PM_BusCOMM\BCP_BusCommMng.c **** \n		Roberto Fioravanti
 122:C:/Workspace/FW_Inertia/branch_indesit/ProductModules/PM_BusCOMM\BCP_BusCommMng.c **** \n		changes
 123:C:/Workspace/FW_Inertia/branch_indesit/ProductModules/PM_BusCOMM\BCP_BusCommMng.c **** \n 		- Unblock Routines updated
 124:C:/Workspace/FW_Inertia/branch_indesit/ProductModules/PM_BusCOMM\BCP_BusCommMng.c **** \n
 125:C:/Workspace/FW_Inertia/branch_indesit/ProductModules/PM_BusCOMM\BCP_BusCommMng.c **** \n 		00.00.14
 126:C:/Workspace/FW_Inertia/branch_indesit/ProductModules/PM_BusCOMM\BCP_BusCommMng.c **** \n		23/10/2009
 127:C:/Workspace/FW_Inertia/branch_indesit/ProductModules/PM_BusCOMM\BCP_BusCommMng.c **** \n		Gabriele Merlonghi
 128:C:/Workspace/FW_Inertia/branch_indesit/ProductModules/PM_BusCOMM\BCP_BusCommMng.c **** \n		changes
 129:C:/Workspace/FW_Inertia/branch_indesit/ProductModules/PM_BusCOMM\BCP_BusCommMng.c **** \n 		- Requests priority in array COMM_MNG(idChannel).PacketReq refered to order defined by applica
 130:C:/Workspace/FW_Inertia/branch_indesit/ProductModules/PM_BusCOMM\BCP_BusCommMng.c **** \n
 131:C:/Workspace/FW_Inertia/branch_indesit/ProductModules/PM_BusCOMM\BCP_BusCommMng.c **** \n 		00.00.12
 132:C:/Workspace/FW_Inertia/branch_indesit/ProductModules/PM_BusCOMM\BCP_BusCommMng.c **** \n		08/10/2009
 133:C:/Workspace/FW_Inertia/branch_indesit/ProductModules/PM_BusCOMM\BCP_BusCommMng.c **** \n		Gabriele Merlonghi
 134:C:/Workspace/FW_Inertia/branch_indesit/ProductModules/PM_BusCOMM\BCP_BusCommMng.c **** \n		changes
 135:C:/Workspace/FW_Inertia/branch_indesit/ProductModules/PM_BusCOMM\BCP_BusCommMng.c **** \n 		- BCP_BusMonitor uses (OCI2C_InitHwSync)
 136:C:/Workspace/FW_Inertia/branch_indesit/ProductModules/PM_BusCOMM\BCP_BusCommMng.c **** \n
 137:C:/Workspace/FW_Inertia/branch_indesit/ProductModules/PM_BusCOMM\BCP_BusCommMng.c **** \n 		00.00.01
 138:C:/Workspace/FW_Inertia/branch_indesit/ProductModules/PM_BusCOMM\BCP_BusCommMng.c **** \n		05/05/2009
 139:C:/Workspace/FW_Inertia/branch_indesit/ProductModules/PM_BusCOMM\BCP_BusCommMng.c **** \n		Gabriele Merlonghi
 140:C:/Workspace/FW_Inertia/branch_indesit/ProductModules/PM_BusCOMM\BCP_BusCommMng.c **** \n		changes
 141:C:/Workspace/FW_Inertia/branch_indesit/ProductModules/PM_BusCOMM\BCP_BusCommMng.c **** \n 		- creation
 142:C:/Workspace/FW_Inertia/branch_indesit/ProductModules/PM_BusCOMM\BCP_BusCommMng.c **** \n		- request manager state machine implementation
 143:C:/Workspace/FW_Inertia/branch_indesit/ProductModules/PM_BusCOMM\BCP_BusCommMng.c **** \n    	- addiction of methods to set requests
 144:C:/Workspace/FW_Inertia/branch_indesit/ProductModules/PM_BusCOMM\BCP_BusCommMng.c **** */
 145:C:/Workspace/FW_Inertia/branch_indesit/ProductModules/PM_BusCOMM\BCP_BusCommMng.c **** 
 146:C:/Workspace/FW_Inertia/branch_indesit/ProductModules/PM_BusCOMM\BCP_BusCommMng.c **** /* ******** */
 147:C:/Workspace/FW_Inertia/branch_indesit/ProductModules/PM_BusCOMM\BCP_BusCommMng.c **** /* Includes */
 148:C:/Workspace/FW_Inertia/branch_indesit/ProductModules/PM_BusCOMM\BCP_BusCommMng.c **** /* ******** */
 149:C:/Workspace/FW_Inertia/branch_indesit/ProductModules/PM_BusCOMM\BCP_BusCommMng.c **** 
 150:C:/Workspace/FW_Inertia/branch_indesit/ProductModules/PM_BusCOMM\BCP_BusCommMng.c **** #include <string.h>
 151:C:/Workspace/FW_Inertia/branch_indesit/ProductModules/PM_BusCOMM\BCP_BusCommMng.c **** 
 152:C:/Workspace/FW_Inertia/branch_indesit/ProductModules/PM_BusCOMM\BCP_BusCommMng.c **** 
 153:C:/Workspace/FW_Inertia/branch_indesit/ProductModules/PM_BusCOMM\BCP_BusCommMng.c **** #include "OCI2C_drv.h"
 154:C:/Workspace/FW_Inertia/branch_indesit/ProductModules/PM_BusCOMM\BCP_BusCommMng.c **** #include "BusCommPltf_cfg.h"
 155:C:/Workspace/FW_Inertia/branch_indesit/ProductModules/PM_BusCOMM\BCP_BusCommMng.c **** #include "BCP_BusCommMng.h"
 156:C:/Workspace/FW_Inertia/branch_indesit/ProductModules/PM_BusCOMM\BCP_BusCommMng.c **** 
 157:C:/Workspace/FW_Inertia/branch_indesit/ProductModules/PM_BusCOMM\BCP_BusCommMng.c **** 
 158:C:/Workspace/FW_Inertia/branch_indesit/ProductModules/PM_BusCOMM\BCP_BusCommMng.c **** 
 159:C:/Workspace/FW_Inertia/branch_indesit/ProductModules/PM_BusCOMM\BCP_BusCommMng.c **** 
 160:C:/Workspace/FW_Inertia/branch_indesit/ProductModules/PM_BusCOMM\BCP_BusCommMng.c **** /* ****************** */
 161:C:/Workspace/FW_Inertia/branch_indesit/ProductModules/PM_BusCOMM\BCP_BusCommMng.c **** /* Defines and Macros */
 162:C:/Workspace/FW_Inertia/branch_indesit/ProductModules/PM_BusCOMM\BCP_BusCommMng.c **** /* ****************** */
 163:C:/Workspace/FW_Inertia/branch_indesit/ProductModules/PM_BusCOMM\BCP_BusCommMng.c **** 
 164:C:/Workspace/FW_Inertia/branch_indesit/ProductModules/PM_BusCOMM\BCP_BusCommMng.c **** /** \addtogroup CRM
 165:C:/Workspace/FW_Inertia/branch_indesit/ProductModules/PM_BusCOMM\BCP_BusCommMng.c ****   @{
 166:C:/Workspace/FW_Inertia/branch_indesit/ProductModules/PM_BusCOMM\BCP_BusCommMng.c **** */
 167:C:/Workspace/FW_Inertia/branch_indesit/ProductModules/PM_BusCOMM\BCP_BusCommMng.c **** 
 168:C:/Workspace/FW_Inertia/branch_indesit/ProductModules/PM_BusCOMM\BCP_BusCommMng.c **** 
 169:C:/Workspace/FW_Inertia/branch_indesit/ProductModules/PM_BusCOMM\BCP_BusCommMng.c **** 
 170:C:/Workspace/FW_Inertia/branch_indesit/ProductModules/PM_BusCOMM\BCP_BusCommMng.c **** /** @name Requests Management
 171:C:/Workspace/FW_Inertia/branch_indesit/ProductModules/PM_BusCOMM\BCP_BusCommMng.c ****   @{
 172:C:/Workspace/FW_Inertia/branch_indesit/ProductModules/PM_BusCOMM\BCP_BusCommMng.c **** */
 173:C:/Workspace/FW_Inertia/branch_indesit/ProductModules/PM_BusCOMM\BCP_BusCommMng.c **** #define CP_REQ_COMPLETED_OK    0xFF    /**< requests array value for successfully completed request
 174:C:/Workspace/FW_Inertia/branch_indesit/ProductModules/PM_BusCOMM\BCP_BusCommMng.c **** #define CP_REQ_COMPLETED_KO    0xFE    /**< requests array value for unsuccessfully completed reque
 175:C:/Workspace/FW_Inertia/branch_indesit/ProductModules/PM_BusCOMM\BCP_BusCommMng.c **** #define CP_REQ_TIMEOUT_KO      0xFD    /**< requests array value for unsuccessfully completed reque
 176:C:/Workspace/FW_Inertia/branch_indesit/ProductModules/PM_BusCOMM\BCP_BusCommMng.c **** #define CP_REQ_PENDING      0x01    /**< requests array value for pending request*/
 177:C:/Workspace/FW_Inertia/branch_indesit/ProductModules/PM_BusCOMM\BCP_BusCommMng.c **** /*@}*/
 178:C:/Workspace/FW_Inertia/branch_indesit/ProductModules/PM_BusCOMM\BCP_BusCommMng.c **** 
 179:C:/Workspace/FW_Inertia/branch_indesit/ProductModules/PM_BusCOMM\BCP_BusCommMng.c **** /** Request manager state machine states*/
 180:C:/Workspace/FW_Inertia/branch_indesit/ProductModules/PM_BusCOMM\BCP_BusCommMng.c **** enum eCRM_States
 181:C:/Workspace/FW_Inertia/branch_indesit/ProductModules/PM_BusCOMM\BCP_BusCommMng.c **** {
 182:C:/Workspace/FW_Inertia/branch_indesit/ProductModules/PM_BusCOMM\BCP_BusCommMng.c **** 	COMM_PERIPHERAL_INIT=0,
 183:C:/Workspace/FW_Inertia/branch_indesit/ProductModules/PM_BusCOMM\BCP_BusCommMng.c **** 	COMM_INIT,
 184:C:/Workspace/FW_Inertia/branch_indesit/ProductModules/PM_BusCOMM\BCP_BusCommMng.c **** 	COMM_IDLE,
 185:C:/Workspace/FW_Inertia/branch_indesit/ProductModules/PM_BusCOMM\BCP_BusCommMng.c **** 	COMM_PHYSICAL_LAYER_ACCESS,
 186:C:/Workspace/FW_Inertia/branch_indesit/ProductModules/PM_BusCOMM\BCP_BusCommMng.c **** 	COMM_PHYSICAL_LAYER_MNG,
 187:C:/Workspace/FW_Inertia/branch_indesit/ProductModules/PM_BusCOMM\BCP_BusCommMng.c **** 	COMM_REPETITION_MNG,
 188:C:/Workspace/FW_Inertia/branch_indesit/ProductModules/PM_BusCOMM\BCP_BusCommMng.c **** 	COMM_REPETITION_TIMED
 189:C:/Workspace/FW_Inertia/branch_indesit/ProductModules/PM_BusCOMM\BCP_BusCommMng.c **** };
 190:C:/Workspace/FW_Inertia/branch_indesit/ProductModules/PM_BusCOMM\BCP_BusCommMng.c **** /*@} addtogroup CRM */
 191:C:/Workspace/FW_Inertia/branch_indesit/ProductModules/PM_BusCOMM\BCP_BusCommMng.c **** 
 192:C:/Workspace/FW_Inertia/branch_indesit/ProductModules/PM_BusCOMM\BCP_BusCommMng.c **** 
 193:C:/Workspace/FW_Inertia/branch_indesit/ProductModules/PM_BusCOMM\BCP_BusCommMng.c **** /* *************************** */
 194:C:/Workspace/FW_Inertia/branch_indesit/ProductModules/PM_BusCOMM\BCP_BusCommMng.c **** /* Typedef, Structs and Unions */
 195:C:/Workspace/FW_Inertia/branch_indesit/ProductModules/PM_BusCOMM\BCP_BusCommMng.c **** /* *************************** */
 196:C:/Workspace/FW_Inertia/branch_indesit/ProductModules/PM_BusCOMM\BCP_BusCommMng.c **** 
 197:C:/Workspace/FW_Inertia/branch_indesit/ProductModules/PM_BusCOMM\BCP_BusCommMng.c **** 
 198:C:/Workspace/FW_Inertia/branch_indesit/ProductModules/PM_BusCOMM\BCP_BusCommMng.c **** /**
 199:C:/Workspace/FW_Inertia/branch_indesit/ProductModules/PM_BusCOMM\BCP_BusCommMng.c ****  * Communication Request Manager Class
 200:C:/Workspace/FW_Inertia/branch_indesit/ProductModules/PM_BusCOMM\BCP_BusCommMng.c ****  */
 201:C:/Workspace/FW_Inertia/branch_indesit/ProductModules/PM_BusCOMM\BCP_BusCommMng.c **** #if BCP_MASTER_SUPPORT == TRUE
 202:C:/Workspace/FW_Inertia/branch_indesit/ProductModules/PM_BusCOMM\BCP_BusCommMng.c **** typedef struct BCM_Data_tag
 203:C:/Workspace/FW_Inertia/branch_indesit/ProductModules/PM_BusCOMM\BCP_BusCommMng.c **** {
 204:C:/Workspace/FW_Inertia/branch_indesit/ProductModules/PM_BusCOMM\BCP_BusCommMng.c **** 	uint16_t  timeout;          		/* calcolo del timeout da impostare sul contatore per eseguire la ri
 205:C:/Workspace/FW_Inertia/branch_indesit/ProductModules/PM_BusCOMM\BCP_BusCommMng.c **** 	uint8_t  PendingReqState;
 206:C:/Workspace/FW_Inertia/branch_indesit/ProductModules/PM_BusCOMM\BCP_BusCommMng.c **** 	struct
 207:C:/Workspace/FW_Inertia/branch_indesit/ProductModules/PM_BusCOMM\BCP_BusCommMng.c **** 	{
 208:C:/Workspace/FW_Inertia/branch_indesit/ProductModules/PM_BusCOMM\BCP_BusCommMng.c **** 		uint8_t  MasterDisable  :1;
 209:C:/Workspace/FW_Inertia/branch_indesit/ProductModules/PM_BusCOMM\BCP_BusCommMng.c **** 		uint8_t  ReqPending     :1;
 210:C:/Workspace/FW_Inertia/branch_indesit/ProductModules/PM_BusCOMM\BCP_BusCommMng.c **** 		uint8_t  TxTimeout      :3;    /*  1: Timeouted request (busy)
 211:C:/Workspace/FW_Inertia/branch_indesit/ProductModules/PM_BusCOMM\BCP_BusCommMng.c **** 		                                    2: Timeouted request (duration)
 212:C:/Workspace/FW_Inertia/branch_indesit/ProductModules/PM_BusCOMM\BCP_BusCommMng.c **** 		                                    3: Repetitions
 213:C:/Workspace/FW_Inertia/branch_indesit/ProductModules/PM_BusCOMM\BCP_BusCommMng.c **** 		                                */
 214:C:/Workspace/FW_Inertia/branch_indesit/ProductModules/PM_BusCOMM\BCP_BusCommMng.c **** 		uint8_t  Rebuild        :1;     /* rebuild forced */
 215:C:/Workspace/FW_Inertia/branch_indesit/ProductModules/PM_BusCOMM\BCP_BusCommMng.c **** 		uint8_t  DontValidate   :1;
 216:C:/Workspace/FW_Inertia/branch_indesit/ProductModules/PM_BusCOMM\BCP_BusCommMng.c **** 		uint8_t                 :1;
 217:C:/Workspace/FW_Inertia/branch_indesit/ProductModules/PM_BusCOMM\BCP_BusCommMng.c **** 	} flag;
 218:C:/Workspace/FW_Inertia/branch_indesit/ProductModules/PM_BusCOMM\BCP_BusCommMng.c **** 
 219:C:/Workspace/FW_Inertia/branch_indesit/ProductModules/PM_BusCOMM\BCP_BusCommMng.c **** 	uint8_t  Wait;						/* Contatore di attesa per eventi Master/Slave */
 220:C:/Workspace/FW_Inertia/branch_indesit/ProductModules/PM_BusCOMM\BCP_BusCommMng.c **** 
 221:C:/Workspace/FW_Inertia/branch_indesit/ProductModules/PM_BusCOMM\BCP_BusCommMng.c **** 	uint8_t  PacketReq[BCM_REQ_NUM];    /* il numero di richieste su un determinato canale dipende dal
 222:C:/Workspace/FW_Inertia/branch_indesit/ProductModules/PM_BusCOMM\BCP_BusCommMng.c **** 
 223:C:/Workspace/FW_Inertia/branch_indesit/ProductModules/PM_BusCOMM\BCP_BusCommMng.c **** 	uint8_t  comm_repetitions; 			/* ripetizioni rimanenti */
 224:C:/Workspace/FW_Inertia/branch_indesit/ProductModules/PM_BusCOMM\BCP_BusCommMng.c **** 
 225:C:/Workspace/FW_Inertia/branch_indesit/ProductModules/PM_BusCOMM\BCP_BusCommMng.c **** 	uint8_t  PacketReqCurrentIndex; 	/* indice richiesta corrente */
 226:C:/Workspace/FW_Inertia/branch_indesit/ProductModules/PM_BusCOMM\BCP_BusCommMng.c **** 	IO_ChannelType  idBoard;          	/* current board id */
 227:C:/Workspace/FW_Inertia/branch_indesit/ProductModules/PM_BusCOMM\BCP_BusCommMng.c **** 	BCP_PacketOptionType CurrentOption;	/* current option */
 228:C:/Workspace/FW_Inertia/branch_indesit/ProductModules/PM_BusCOMM\BCP_BusCommMng.c **** }CRM_ClassType;
 229:C:/Workspace/FW_Inertia/branch_indesit/ProductModules/PM_BusCOMM\BCP_BusCommMng.c **** #endif
 230:C:/Workspace/FW_Inertia/branch_indesit/ProductModules/PM_BusCOMM\BCP_BusCommMng.c **** 
 231:C:/Workspace/FW_Inertia/branch_indesit/ProductModules/PM_BusCOMM\BCP_BusCommMng.c **** 
 232:C:/Workspace/FW_Inertia/branch_indesit/ProductModules/PM_BusCOMM\BCP_BusCommMng.c **** /* ********* */
 233:C:/Workspace/FW_Inertia/branch_indesit/ProductModules/PM_BusCOMM\BCP_BusCommMng.c **** /* Variables */
 234:C:/Workspace/FW_Inertia/branch_indesit/ProductModules/PM_BusCOMM\BCP_BusCommMng.c **** /* ********* */
 235:C:/Workspace/FW_Inertia/branch_indesit/ProductModules/PM_BusCOMM\BCP_BusCommMng.c **** 
 236:C:/Workspace/FW_Inertia/branch_indesit/ProductModules/PM_BusCOMM\BCP_BusCommMng.c **** /* Exported */
 237:C:/Workspace/FW_Inertia/branch_indesit/ProductModules/PM_BusCOMM\BCP_BusCommMng.c **** #if BCP_MASTER_SUPPORT == TRUE
 238:C:/Workspace/FW_Inertia/branch_indesit/ProductModules/PM_BusCOMM\BCP_BusCommMng.c **** /*Master Request variable*/
 239:C:/Workspace/FW_Inertia/branch_indesit/ProductModules/PM_BusCOMM\BCP_BusCommMng.c **** CRM_ClassType CommMng[TOTAL_CHANNELS];
 240:C:/Workspace/FW_Inertia/branch_indesit/ProductModules/PM_BusCOMM\BCP_BusCommMng.c **** #endif
 241:C:/Workspace/FW_Inertia/branch_indesit/ProductModules/PM_BusCOMM\BCP_BusCommMng.c **** 
 242:C:/Workspace/FW_Inertia/branch_indesit/ProductModules/PM_BusCOMM\BCP_BusCommMng.c **** CM_Err_ClassType CommErr[TOTAL_CHANNELS][BCP_COUNTERS_NUM];
 243:C:/Workspace/FW_Inertia/branch_indesit/ProductModules/PM_BusCOMM\BCP_BusCommMng.c **** 
 244:C:/Workspace/FW_Inertia/branch_indesit/ProductModules/PM_BusCOMM\BCP_BusCommMng.c **** /* Static */
 245:C:/Workspace/FW_Inertia/branch_indesit/ProductModules/PM_BusCOMM\BCP_BusCommMng.c **** 
 246:C:/Workspace/FW_Inertia/branch_indesit/ProductModules/PM_BusCOMM\BCP_BusCommMng.c **** 
 247:C:/Workspace/FW_Inertia/branch_indesit/ProductModules/PM_BusCOMM\BCP_BusCommMng.c **** 
 248:C:/Workspace/FW_Inertia/branch_indesit/ProductModules/PM_BusCOMM\BCP_BusCommMng.c **** 
 249:C:/Workspace/FW_Inertia/branch_indesit/ProductModules/PM_BusCOMM\BCP_BusCommMng.c **** 
 250:C:/Workspace/FW_Inertia/branch_indesit/ProductModules/PM_BusCOMM\BCP_BusCommMng.c **** /* ******************* */
 251:C:/Workspace/FW_Inertia/branch_indesit/ProductModules/PM_BusCOMM\BCP_BusCommMng.c **** /* Functions Prototype */
 252:C:/Workspace/FW_Inertia/branch_indesit/ProductModules/PM_BusCOMM\BCP_BusCommMng.c **** /* ******************* */
 253:C:/Workspace/FW_Inertia/branch_indesit/ProductModules/PM_BusCOMM\BCP_BusCommMng.c **** 
 254:C:/Workspace/FW_Inertia/branch_indesit/ProductModules/PM_BusCOMM\BCP_BusCommMng.c **** 
 255:C:/Workspace/FW_Inertia/branch_indesit/ProductModules/PM_BusCOMM\BCP_BusCommMng.c **** 
 256:C:/Workspace/FW_Inertia/branch_indesit/ProductModules/PM_BusCOMM\BCP_BusCommMng.c **** /* *************** */
 257:C:/Workspace/FW_Inertia/branch_indesit/ProductModules/PM_BusCOMM\BCP_BusCommMng.c **** /* Function Bodies */
 258:C:/Workspace/FW_Inertia/branch_indesit/ProductModules/PM_BusCOMM\BCP_BusCommMng.c **** /* *************** */
 259:C:/Workspace/FW_Inertia/branch_indesit/ProductModules/PM_BusCOMM\BCP_BusCommMng.c **** 
 260:C:/Workspace/FW_Inertia/branch_indesit/ProductModules/PM_BusCOMM\BCP_BusCommMng.c **** /* Exported function */
 261:C:/Workspace/FW_Inertia/branch_indesit/ProductModules/PM_BusCOMM\BCP_BusCommMng.c **** /**
 262:C:/Workspace/FW_Inertia/branch_indesit/ProductModules/PM_BusCOMM\BCP_BusCommMng.c **** Initialization of the CP channel (protocol and CRM state machine).
 263:C:/Workspace/FW_Inertia/branch_indesit/ProductModules/PM_BusCOMM\BCP_BusCommMng.c **** 
 264:C:/Workspace/FW_Inertia/branch_indesit/ProductModules/PM_BusCOMM\BCP_BusCommMng.c **** If slave mode only call to this function can be omitted.
 265:C:/Workspace/FW_Inertia/branch_indesit/ProductModules/PM_BusCOMM\BCP_BusCommMng.c **** 
 266:C:/Workspace/FW_Inertia/branch_indesit/ProductModules/PM_BusCOMM\BCP_BusCommMng.c **** \param [in]   ch channel index (must be ch < BCP_CH_NUM)
 267:C:/Workspace/FW_Inertia/branch_indesit/ProductModules/PM_BusCOMM\BCP_BusCommMng.c **** 
 268:C:/Workspace/FW_Inertia/branch_indesit/ProductModules/PM_BusCOMM\BCP_BusCommMng.c **** \return   IO_ErrorType
 269:C:/Workspace/FW_Inertia/branch_indesit/ProductModules/PM_BusCOMM\BCP_BusCommMng.c **** 
 270:C:/Workspace/FW_Inertia/branch_indesit/ProductModules/PM_BusCOMM\BCP_BusCommMng.c **** \retval   IO_E_OK initialization successfully completed.
 271:C:/Workspace/FW_Inertia/branch_indesit/ProductModules/PM_BusCOMM\BCP_BusCommMng.c **** \retval   IO_E_INVALID_CHANNEL_ID wrong value for ch (maybe ch >= BCP_CH_NUM)
 272:C:/Workspace/FW_Inertia/branch_indesit/ProductModules/PM_BusCOMM\BCP_BusCommMng.c **** 
 273:C:/Workspace/FW_Inertia/branch_indesit/ProductModules/PM_BusCOMM\BCP_BusCommMng.c **** \par Example
 274:C:/Workspace/FW_Inertia/branch_indesit/ProductModules/PM_BusCOMM\BCP_BusCommMng.c **** \code
 275:C:/Workspace/FW_Inertia/branch_indesit/ProductModules/PM_BusCOMM\BCP_BusCommMng.c **** 	BCP_InitChSync(BCP_I2C_CH_ID);
 276:C:/Workspace/FW_Inertia/branch_indesit/ProductModules/PM_BusCOMM\BCP_BusCommMng.c **** \endcode
 277:C:/Workspace/FW_Inertia/branch_indesit/ProductModules/PM_BusCOMM\BCP_BusCommMng.c **** 
 278:C:/Workspace/FW_Inertia/branch_indesit/ProductModules/PM_BusCOMM\BCP_BusCommMng.c **** \warning
 279:C:/Workspace/FW_Inertia/branch_indesit/ProductModules/PM_BusCOMM\BCP_BusCommMng.c **** 
 280:C:/Workspace/FW_Inertia/branch_indesit/ProductModules/PM_BusCOMM\BCP_BusCommMng.c **** \note
 281:C:/Workspace/FW_Inertia/branch_indesit/ProductModules/PM_BusCOMM\BCP_BusCommMng.c **** 
 282:C:/Workspace/FW_Inertia/branch_indesit/ProductModules/PM_BusCOMM\BCP_BusCommMng.c **** \version		1.0.0
 283:C:/Workspace/FW_Inertia/branch_indesit/ProductModules/PM_BusCOMM\BCP_BusCommMng.c **** \date 			30/dec/2009
 284:C:/Workspace/FW_Inertia/branch_indesit/ProductModules/PM_BusCOMM\BCP_BusCommMng.c **** \author			Roberto Fioravanti
 285:C:/Workspace/FW_Inertia/branch_indesit/ProductModules/PM_BusCOMM\BCP_BusCommMng.c **** 
 286:C:/Workspace/FW_Inertia/branch_indesit/ProductModules/PM_BusCOMM\BCP_BusCommMng.c **** */
 287:C:/Workspace/FW_Inertia/branch_indesit/ProductModules/PM_BusCOMM\BCP_BusCommMng.c **** IO_ErrorType BCP_InitChSync(IO_ChannelType ch)
 288:C:/Workspace/FW_Inertia/branch_indesit/ProductModules/PM_BusCOMM\BCP_BusCommMng.c **** {
  10                             		.loc 1 288 0
  11                             	.LVL0:
 289:C:/Workspace/FW_Inertia/branch_indesit/ProductModules/PM_BusCOMM\BCP_BusCommMng.c ****   if(ch>=(IO_ChannelType)BCP_CH_NUM)
  12                             		.loc 1 289 0
  13 0000 5B 11                   		movu.B	r1, r1
  14 0002 61 11                   		cmp	#1, r1
  15 0004 25 06                   		bleu	.L3
 290:C:/Workspace/FW_Inertia/branch_indesit/ProductModules/PM_BusCOMM\BCP_BusCommMng.c ****   {
 291:C:/Workspace/FW_Inertia/branch_indesit/ProductModules/PM_BusCOMM\BCP_BusCommMng.c ****     return (IO_ErrorType)IO_E_INVALID_CHANNEL_ID;
  16                             		.loc 1 291 0
  17 0006 75 41 12                		mov	#18, r1
  18                             	.LVL1:
  19 0009 0B                      		bra	.L2
  20                             	.L3:
 292:C:/Workspace/FW_Inertia/branch_indesit/ProductModules/PM_BusCOMM\BCP_BusCommMng.c ****   }
 293:C:/Workspace/FW_Inertia/branch_indesit/ProductModules/PM_BusCOMM\BCP_BusCommMng.c **** 
 294:C:/Workspace/FW_Inertia/branch_indesit/ProductModules/PM_BusCOMM\BCP_BusCommMng.c **** #if BCP_MASTER_SUPPORT == TRUE
 295:C:/Workspace/FW_Inertia/branch_indesit/ProductModules/PM_BusCOMM\BCP_BusCommMng.c ****     memset(&CommMng[ch], 0, sizeof(CommMng[ch]));
 296:C:/Workspace/FW_Inertia/branch_indesit/ProductModules/PM_BusCOMM\BCP_BusCommMng.c **** 	CommMng[ch].PendingReqState = COMM_PERIPHERAL_INIT;
 297:C:/Workspace/FW_Inertia/branch_indesit/ProductModules/PM_BusCOMM\BCP_BusCommMng.c **** 	CommMng[ch].PacketReqCurrentIndex=0xFF; /* Empty request */
 298:C:/Workspace/FW_Inertia/branch_indesit/ProductModules/PM_BusCOMM\BCP_BusCommMng.c **** 	return PP_InitChSync(ch);
 299:C:/Workspace/FW_Inertia/branch_indesit/ProductModules/PM_BusCOMM\BCP_BusCommMng.c **** #else
 300:C:/Workspace/FW_Inertia/branch_indesit/ProductModules/PM_BusCOMM\BCP_BusCommMng.c ****   return (IO_ErrorType)IO_E_OK;
  21                             		.loc 1 300 0
  22 000a 66 01                   		mov	#0, r1
  23                             		.balign 2,3,2
  24                             	.L2:
 301:C:/Workspace/FW_Inertia/branch_indesit/ProductModules/PM_BusCOMM\BCP_BusCommMng.c **** #endif
 302:C:/Workspace/FW_Inertia/branch_indesit/ProductModules/PM_BusCOMM\BCP_BusCommMng.c **** }
  25                             		.loc 1 302 0
  26 000c 75 21 12                		and #18, r1
  27 000f 02                      		rts
  28                             	.LFE0:
  30                             		.section	.text.BCM_CountersUpdater,"ax",@progbits
  31                             		.global	_BCM_CountersUpdater
  33                             	_BCM_CountersUpdater:
  34                             	.LFB1:
 303:C:/Workspace/FW_Inertia/branch_indesit/ProductModules/PM_BusCOMM\BCP_BusCommMng.c **** 
 304:C:/Workspace/FW_Inertia/branch_indesit/ProductModules/PM_BusCOMM\BCP_BusCommMng.c **** /**
 305:C:/Workspace/FW_Inertia/branch_indesit/ProductModules/PM_BusCOMM\BCP_BusCommMng.c **** Disables the Communication Request Manager for a specified channel.
 306:C:/Workspace/FW_Inertia/branch_indesit/ProductModules/PM_BusCOMM\BCP_BusCommMng.c **** This method can be used to inhibit requests .
 307:C:/Workspace/FW_Inertia/branch_indesit/ProductModules/PM_BusCOMM\BCP_BusCommMng.c **** 
 308:C:/Workspace/FW_Inertia/branch_indesit/ProductModules/PM_BusCOMM\BCP_BusCommMng.c **** \param [in] 	idChannel Index of the channel to be initialized.
 309:C:/Workspace/FW_Inertia/branch_indesit/ProductModules/PM_BusCOMM\BCP_BusCommMng.c **** 
 310:C:/Workspace/FW_Inertia/branch_indesit/ProductModules/PM_BusCOMM\BCP_BusCommMng.c **** \attention global variables used:
 311:C:/Workspace/FW_Inertia/branch_indesit/ProductModules/PM_BusCOMM\BCP_BusCommMng.c **** - CommMng
 312:C:/Workspace/FW_Inertia/branch_indesit/ProductModules/PM_BusCOMM\BCP_BusCommMng.c **** 
 313:C:/Workspace/FW_Inertia/branch_indesit/ProductModules/PM_BusCOMM\BCP_BusCommMng.c **** \return 	void
 314:C:/Workspace/FW_Inertia/branch_indesit/ProductModules/PM_BusCOMM\BCP_BusCommMng.c **** 
 315:C:/Workspace/FW_Inertia/branch_indesit/ProductModules/PM_BusCOMM\BCP_BusCommMng.c **** \warning	[Type warnings]
 316:C:/Workspace/FW_Inertia/branch_indesit/ProductModules/PM_BusCOMM\BCP_BusCommMng.c **** 
 317:C:/Workspace/FW_Inertia/branch_indesit/ProductModules/PM_BusCOMM\BCP_BusCommMng.c **** \author 	Roberto Fioravanti
 318:C:/Workspace/FW_Inertia/branch_indesit/ProductModules/PM_BusCOMM\BCP_BusCommMng.c **** \date			20/Apr/2009
 319:C:/Workspace/FW_Inertia/branch_indesit/ProductModules/PM_BusCOMM\BCP_BusCommMng.c **** \version	1.0.0
 320:C:/Workspace/FW_Inertia/branch_indesit/ProductModules/PM_BusCOMM\BCP_BusCommMng.c **** 
 321:C:/Workspace/FW_Inertia/branch_indesit/ProductModules/PM_BusCOMM\BCP_BusCommMng.c **** \bug		[Type bugs]
 322:C:/Workspace/FW_Inertia/branch_indesit/ProductModules/PM_BusCOMM\BCP_BusCommMng.c **** 
 323:C:/Workspace/FW_Inertia/branch_indesit/ProductModules/PM_BusCOMM\BCP_BusCommMng.c **** \note		\par \b Note 1:
 324:C:/Workspace/FW_Inertia/branch_indesit/ProductModules/PM_BusCOMM\BCP_BusCommMng.c **** 			documentation by: Roberto Fioravanti
 325:C:/Workspace/FW_Inertia/branch_indesit/ProductModules/PM_BusCOMM\BCP_BusCommMng.c **** 			\par \b Note 2:
 326:C:/Workspace/FW_Inertia/branch_indesit/ProductModules/PM_BusCOMM\BCP_BusCommMng.c **** Available only if BCP_MASTER_SUPPORT == TRUE
 327:C:/Workspace/FW_Inertia/branch_indesit/ProductModules/PM_BusCOMM\BCP_BusCommMng.c **** 
 328:C:/Workspace/FW_Inertia/branch_indesit/ProductModules/PM_BusCOMM\BCP_BusCommMng.c **** \public \memberof CRM_ClassType
 329:C:/Workspace/FW_Inertia/branch_indesit/ProductModules/PM_BusCOMM\BCP_BusCommMng.c **** */
 330:C:/Workspace/FW_Inertia/branch_indesit/ProductModules/PM_BusCOMM\BCP_BusCommMng.c **** #if BCP_MASTER_SUPPORT == TRUE
 331:C:/Workspace/FW_Inertia/branch_indesit/ProductModules/PM_BusCOMM\BCP_BusCommMng.c **** void BCM_MasterDisable(IO_ChannelType idChannel)
 332:C:/Workspace/FW_Inertia/branch_indesit/ProductModules/PM_BusCOMM\BCP_BusCommMng.c **** {
 333:C:/Workspace/FW_Inertia/branch_indesit/ProductModules/PM_BusCOMM\BCP_BusCommMng.c **** 	CommMng[idChannel].flag.MasterDisable = TRUE;
 334:C:/Workspace/FW_Inertia/branch_indesit/ProductModules/PM_BusCOMM\BCP_BusCommMng.c **** }
 335:C:/Workspace/FW_Inertia/branch_indesit/ProductModules/PM_BusCOMM\BCP_BusCommMng.c **** #endif
 336:C:/Workspace/FW_Inertia/branch_indesit/ProductModules/PM_BusCOMM\BCP_BusCommMng.c **** 
 337:C:/Workspace/FW_Inertia/branch_indesit/ProductModules/PM_BusCOMM\BCP_BusCommMng.c **** /**
 338:C:/Workspace/FW_Inertia/branch_indesit/ProductModules/PM_BusCOMM\BCP_BusCommMng.c **** Force rebuild of master requests, if they have been started.
 339:C:/Workspace/FW_Inertia/branch_indesit/ProductModules/PM_BusCOMM\BCP_BusCommMng.c **** This method is used to avoid master/slave conflicts
 340:C:/Workspace/FW_Inertia/branch_indesit/ProductModules/PM_BusCOMM\BCP_BusCommMng.c **** 
 341:C:/Workspace/FW_Inertia/branch_indesit/ProductModules/PM_BusCOMM\BCP_BusCommMng.c **** \param [in] 	idChannel Index of the channel to request rebuild.
 342:C:/Workspace/FW_Inertia/branch_indesit/ProductModules/PM_BusCOMM\BCP_BusCommMng.c **** 
 343:C:/Workspace/FW_Inertia/branch_indesit/ProductModules/PM_BusCOMM\BCP_BusCommMng.c **** \attention global variables used:
 344:C:/Workspace/FW_Inertia/branch_indesit/ProductModules/PM_BusCOMM\BCP_BusCommMng.c **** - CommMng
 345:C:/Workspace/FW_Inertia/branch_indesit/ProductModules/PM_BusCOMM\BCP_BusCommMng.c **** 
 346:C:/Workspace/FW_Inertia/branch_indesit/ProductModules/PM_BusCOMM\BCP_BusCommMng.c **** \return 	void
 347:C:/Workspace/FW_Inertia/branch_indesit/ProductModules/PM_BusCOMM\BCP_BusCommMng.c **** 
 348:C:/Workspace/FW_Inertia/branch_indesit/ProductModules/PM_BusCOMM\BCP_BusCommMng.c **** \warning	[Type warnings]
 349:C:/Workspace/FW_Inertia/branch_indesit/ProductModules/PM_BusCOMM\BCP_BusCommMng.c **** 
 350:C:/Workspace/FW_Inertia/branch_indesit/ProductModules/PM_BusCOMM\BCP_BusCommMng.c **** \author 	Alessandro Sabbatini
 351:C:/Workspace/FW_Inertia/branch_indesit/ProductModules/PM_BusCOMM\BCP_BusCommMng.c **** \date			22/May/2014
 352:C:/Workspace/FW_Inertia/branch_indesit/ProductModules/PM_BusCOMM\BCP_BusCommMng.c **** \version	1.0.0
 353:C:/Workspace/FW_Inertia/branch_indesit/ProductModules/PM_BusCOMM\BCP_BusCommMng.c **** 
 354:C:/Workspace/FW_Inertia/branch_indesit/ProductModules/PM_BusCOMM\BCP_BusCommMng.c **** \bug		[Type bugs]
 355:C:/Workspace/FW_Inertia/branch_indesit/ProductModules/PM_BusCOMM\BCP_BusCommMng.c **** 
 356:C:/Workspace/FW_Inertia/branch_indesit/ProductModules/PM_BusCOMM\BCP_BusCommMng.c **** \note		\par \b Note 1:
 357:C:/Workspace/FW_Inertia/branch_indesit/ProductModules/PM_BusCOMM\BCP_BusCommMng.c **** 			documentation by: Alessandro Sabbatini
 358:C:/Workspace/FW_Inertia/branch_indesit/ProductModules/PM_BusCOMM\BCP_BusCommMng.c **** 			\par \b Note 2:
 359:C:/Workspace/FW_Inertia/branch_indesit/ProductModules/PM_BusCOMM\BCP_BusCommMng.c **** Available only if BCP_MASTER_SUPPORT == TRUE
 360:C:/Workspace/FW_Inertia/branch_indesit/ProductModules/PM_BusCOMM\BCP_BusCommMng.c **** 
 361:C:/Workspace/FW_Inertia/branch_indesit/ProductModules/PM_BusCOMM\BCP_BusCommMng.c **** \public \memberof CRM_ClassType
 362:C:/Workspace/FW_Inertia/branch_indesit/ProductModules/PM_BusCOMM\BCP_BusCommMng.c **** */
 363:C:/Workspace/FW_Inertia/branch_indesit/ProductModules/PM_BusCOMM\BCP_BusCommMng.c **** #if BCP_MASTER_SUPPORT == TRUE
 364:C:/Workspace/FW_Inertia/branch_indesit/ProductModules/PM_BusCOMM\BCP_BusCommMng.c **** void BCM_ForceRebuild(IO_ChannelType idChannel)
 365:C:/Workspace/FW_Inertia/branch_indesit/ProductModules/PM_BusCOMM\BCP_BusCommMng.c **** {
 366:C:/Workspace/FW_Inertia/branch_indesit/ProductModules/PM_BusCOMM\BCP_BusCommMng.c **** 	CRM_ClassType* pCommMng = &CommMng[idChannel];
 367:C:/Workspace/FW_Inertia/branch_indesit/ProductModules/PM_BusCOMM\BCP_BusCommMng.c **** 
 368:C:/Workspace/FW_Inertia/branch_indesit/ProductModules/PM_BusCOMM\BCP_BusCommMng.c **** 	pCommMng->flag.Rebuild = TRUE;
 369:C:/Workspace/FW_Inertia/branch_indesit/ProductModules/PM_BusCOMM\BCP_BusCommMng.c **** 	pCommMng->Wait = 5;
 370:C:/Workspace/FW_Inertia/branch_indesit/ProductModules/PM_BusCOMM\BCP_BusCommMng.c **** 	if ( pCommMng->PendingReqState > COMM_PHYSICAL_LAYER_ACCESS)
 371:C:/Workspace/FW_Inertia/branch_indesit/ProductModules/PM_BusCOMM\BCP_BusCommMng.c **** 	{
 372:C:/Workspace/FW_Inertia/branch_indesit/ProductModules/PM_BusCOMM\BCP_BusCommMng.c **** 		pCommMng->PendingReqState = COMM_INIT;
 373:C:/Workspace/FW_Inertia/branch_indesit/ProductModules/PM_BusCOMM\BCP_BusCommMng.c **** 	}
 374:C:/Workspace/FW_Inertia/branch_indesit/ProductModules/PM_BusCOMM\BCP_BusCommMng.c **** }
 375:C:/Workspace/FW_Inertia/branch_indesit/ProductModules/PM_BusCOMM\BCP_BusCommMng.c **** 
 376:C:/Workspace/FW_Inertia/branch_indesit/ProductModules/PM_BusCOMM\BCP_BusCommMng.c **** void BCM_SetWait(IO_ChannelType idChannel, uint8_t newWaitValue)
 377:C:/Workspace/FW_Inertia/branch_indesit/ProductModules/PM_BusCOMM\BCP_BusCommMng.c **** {
 378:C:/Workspace/FW_Inertia/branch_indesit/ProductModules/PM_BusCOMM\BCP_BusCommMng.c **** 	CommMng[idChannel].Wait = newWaitValue;
 379:C:/Workspace/FW_Inertia/branch_indesit/ProductModules/PM_BusCOMM\BCP_BusCommMng.c **** }
 380:C:/Workspace/FW_Inertia/branch_indesit/ProductModules/PM_BusCOMM\BCP_BusCommMng.c **** #endif
 381:C:/Workspace/FW_Inertia/branch_indesit/ProductModules/PM_BusCOMM\BCP_BusCommMng.c **** 
 382:C:/Workspace/FW_Inertia/branch_indesit/ProductModules/PM_BusCOMM\BCP_BusCommMng.c **** /**
 383:C:/Workspace/FW_Inertia/branch_indesit/ProductModules/PM_BusCOMM\BCP_BusCommMng.c **** Allows to verify the state of the specified request id.
 384:C:/Workspace/FW_Inertia/branch_indesit/ProductModules/PM_BusCOMM\BCP_BusCommMng.c **** it changes the status of the request in order that all calls to this method,
 385:C:/Workspace/FW_Inertia/branch_indesit/ProductModules/PM_BusCOMM\BCP_BusCommMng.c **** before any call to BCM_SetChannelRequest method, return IO_E_NOT_QUEUED
 386:C:/Workspace/FW_Inertia/branch_indesit/ProductModules/PM_BusCOMM\BCP_BusCommMng.c **** 
 387:C:/Workspace/FW_Inertia/branch_indesit/ProductModules/PM_BusCOMM\BCP_BusCommMng.c **** \param [in]		idChannel CP channel
 388:C:/Workspace/FW_Inertia/branch_indesit/ProductModules/PM_BusCOMM\BCP_BusCommMng.c **** \param [in] 	idRequest Request index
 389:C:/Workspace/FW_Inertia/branch_indesit/ProductModules/PM_BusCOMM\BCP_BusCommMng.c **** 
 390:C:/Workspace/FW_Inertia/branch_indesit/ProductModules/PM_BusCOMM\BCP_BusCommMng.c **** 
 391:C:/Workspace/FW_Inertia/branch_indesit/ProductModules/PM_BusCOMM\BCP_BusCommMng.c **** \attention global variables used:
 392:C:/Workspace/FW_Inertia/branch_indesit/ProductModules/PM_BusCOMM\BCP_BusCommMng.c **** - CommMng (R/W)
 393:C:/Workspace/FW_Inertia/branch_indesit/ProductModules/PM_BusCOMM\BCP_BusCommMng.c **** 
 394:C:/Workspace/FW_Inertia/branch_indesit/ProductModules/PM_BusCOMM\BCP_BusCommMng.c **** \return 	IO_ErrorType
 395:C:/Workspace/FW_Inertia/branch_indesit/ProductModules/PM_BusCOMM\BCP_BusCommMng.c **** 
 396:C:/Workspace/FW_Inertia/branch_indesit/ProductModules/PM_BusCOMM\BCP_BusCommMng.c **** \retval     IO_E_OK
 397:C:/Workspace/FW_Inertia/branch_indesit/ProductModules/PM_BusCOMM\BCP_BusCommMng.c **** Request completed with success.
 398:C:/Workspace/FW_Inertia/branch_indesit/ProductModules/PM_BusCOMM\BCP_BusCommMng.c **** \retval     IO_E_ALREADY_PENDING
 399:C:/Workspace/FW_Inertia/branch_indesit/ProductModules/PM_BusCOMM\BCP_BusCommMng.c **** Request already pending
 400:C:/Workspace/FW_Inertia/branch_indesit/ProductModules/PM_BusCOMM\BCP_BusCommMng.c **** \retval     IO_E_NOT_QUEUED
 401:C:/Workspace/FW_Inertia/branch_indesit/ProductModules/PM_BusCOMM\BCP_BusCommMng.c **** Request not queued
 402:C:/Workspace/FW_Inertia/branch_indesit/ProductModules/PM_BusCOMM\BCP_BusCommMng.c **** \retval     IO_E_FAIL
 403:C:/Workspace/FW_Inertia/branch_indesit/ProductModules/PM_BusCOMM\BCP_BusCommMng.c **** Request not completed or completed with error.
 404:C:/Workspace/FW_Inertia/branch_indesit/ProductModules/PM_BusCOMM\BCP_BusCommMng.c **** 
 405:C:/Workspace/FW_Inertia/branch_indesit/ProductModules/PM_BusCOMM\BCP_BusCommMng.c **** \warning	[Type warnings]
 406:C:/Workspace/FW_Inertia/branch_indesit/ProductModules/PM_BusCOMM\BCP_BusCommMng.c **** 
 407:C:/Workspace/FW_Inertia/branch_indesit/ProductModules/PM_BusCOMM\BCP_BusCommMng.c **** \author 	Roberto Fioravanti
 408:C:/Workspace/FW_Inertia/branch_indesit/ProductModules/PM_BusCOMM\BCP_BusCommMng.c **** \date		20/Apr/2009
 409:C:/Workspace/FW_Inertia/branch_indesit/ProductModules/PM_BusCOMM\BCP_BusCommMng.c **** \version	1.0.0
 410:C:/Workspace/FW_Inertia/branch_indesit/ProductModules/PM_BusCOMM\BCP_BusCommMng.c **** 
 411:C:/Workspace/FW_Inertia/branch_indesit/ProductModules/PM_BusCOMM\BCP_BusCommMng.c **** \bug		[Type bugs]
 412:C:/Workspace/FW_Inertia/branch_indesit/ProductModules/PM_BusCOMM\BCP_BusCommMng.c **** 
 413:C:/Workspace/FW_Inertia/branch_indesit/ProductModules/PM_BusCOMM\BCP_BusCommMng.c **** \note		\par \b Note 1:
 414:C:/Workspace/FW_Inertia/branch_indesit/ProductModules/PM_BusCOMM\BCP_BusCommMng.c **** 			documentation by: Roberto Fioravanti
 415:C:/Workspace/FW_Inertia/branch_indesit/ProductModules/PM_BusCOMM\BCP_BusCommMng.c **** 			\par \b Note n:
 416:C:/Workspace/FW_Inertia/branch_indesit/ProductModules/PM_BusCOMM\BCP_BusCommMng.c **** 
 417:C:/Workspace/FW_Inertia/branch_indesit/ProductModules/PM_BusCOMM\BCP_BusCommMng.c **** \public \memberof CRM_ClassType
 418:C:/Workspace/FW_Inertia/branch_indesit/ProductModules/PM_BusCOMM\BCP_BusCommMng.c **** */
 419:C:/Workspace/FW_Inertia/branch_indesit/ProductModules/PM_BusCOMM\BCP_BusCommMng.c **** #if BCP_MASTER_SUPPORT == TRUE
 420:C:/Workspace/FW_Inertia/branch_indesit/ProductModules/PM_BusCOMM\BCP_BusCommMng.c **** IO_ErrorType BCM_TestRequest(IO_ChannelType idChannel, BCM_RequestType idRequest)
 421:C:/Workspace/FW_Inertia/branch_indesit/ProductModules/PM_BusCOMM\BCP_BusCommMng.c **** {
 422:C:/Workspace/FW_Inertia/branch_indesit/ProductModules/PM_BusCOMM\BCP_BusCommMng.c **** 	IO_ErrorType ret;
 423:C:/Workspace/FW_Inertia/branch_indesit/ProductModules/PM_BusCOMM\BCP_BusCommMng.c **** 
 424:C:/Workspace/FW_Inertia/branch_indesit/ProductModules/PM_BusCOMM\BCP_BusCommMng.c **** 	switch (CommMng[idChannel].PacketReq[idRequest])
 425:C:/Workspace/FW_Inertia/branch_indesit/ProductModules/PM_BusCOMM\BCP_BusCommMng.c **** 	{
 426:C:/Workspace/FW_Inertia/branch_indesit/ProductModules/PM_BusCOMM\BCP_BusCommMng.c **** 	case CP_REQ_PENDING:
 427:C:/Workspace/FW_Inertia/branch_indesit/ProductModules/PM_BusCOMM\BCP_BusCommMng.c **** 	  return (IO_ErrorType)IO_E_ALREADY_PENDING;
 428:C:/Workspace/FW_Inertia/branch_indesit/ProductModules/PM_BusCOMM\BCP_BusCommMng.c **** 
 429:C:/Workspace/FW_Inertia/branch_indesit/ProductModules/PM_BusCOMM\BCP_BusCommMng.c **** 	case CP_REQ_COMPLETED_OK:
 430:C:/Workspace/FW_Inertia/branch_indesit/ProductModules/PM_BusCOMM\BCP_BusCommMng.c **** 	  /* request has been completed without error*/
 431:C:/Workspace/FW_Inertia/branch_indesit/ProductModules/PM_BusCOMM\BCP_BusCommMng.c **** 	  ret = (IO_ErrorType)IO_E_OK;
 432:C:/Workspace/FW_Inertia/branch_indesit/ProductModules/PM_BusCOMM\BCP_BusCommMng.c **** 	  break;
 433:C:/Workspace/FW_Inertia/branch_indesit/ProductModules/PM_BusCOMM\BCP_BusCommMng.c **** 
 434:C:/Workspace/FW_Inertia/branch_indesit/ProductModules/PM_BusCOMM\BCP_BusCommMng.c **** 	case CP_REQ_COMPLETED_KO:
 435:C:/Workspace/FW_Inertia/branch_indesit/ProductModules/PM_BusCOMM\BCP_BusCommMng.c **** 	  /* the request has been completed with error */
 436:C:/Workspace/FW_Inertia/branch_indesit/ProductModules/PM_BusCOMM\BCP_BusCommMng.c **** 	  ret = (IO_ErrorType)IO_E_FAIL;
 437:C:/Workspace/FW_Inertia/branch_indesit/ProductModules/PM_BusCOMM\BCP_BusCommMng.c **** 	  break;
 438:C:/Workspace/FW_Inertia/branch_indesit/ProductModules/PM_BusCOMM\BCP_BusCommMng.c **** 
 439:C:/Workspace/FW_Inertia/branch_indesit/ProductModules/PM_BusCOMM\BCP_BusCommMng.c **** 	case CP_REQ_TIMEOUT_KO:
 440:C:/Workspace/FW_Inertia/branch_indesit/ProductModules/PM_BusCOMM\BCP_BusCommMng.c **** 		/* the request has been completed with error */
 441:C:/Workspace/FW_Inertia/branch_indesit/ProductModules/PM_BusCOMM\BCP_BusCommMng.c **** 		ret = (IO_ErrorType)IO_E_TIMEOUT_EXPIRED;
 442:C:/Workspace/FW_Inertia/branch_indesit/ProductModules/PM_BusCOMM\BCP_BusCommMng.c **** 		break;
 443:C:/Workspace/FW_Inertia/branch_indesit/ProductModules/PM_BusCOMM\BCP_BusCommMng.c **** 
 444:C:/Workspace/FW_Inertia/branch_indesit/ProductModules/PM_BusCOMM\BCP_BusCommMng.c **** 	default:
 445:C:/Workspace/FW_Inertia/branch_indesit/ProductModules/PM_BusCOMM\BCP_BusCommMng.c **** 	  /* not queued request */
 446:C:/Workspace/FW_Inertia/branch_indesit/ProductModules/PM_BusCOMM\BCP_BusCommMng.c **** 	  ret = (IO_ErrorType)IO_E_NOT_QUEUED;
 447:C:/Workspace/FW_Inertia/branch_indesit/ProductModules/PM_BusCOMM\BCP_BusCommMng.c **** 	}
 448:C:/Workspace/FW_Inertia/branch_indesit/ProductModules/PM_BusCOMM\BCP_BusCommMng.c **** 
 449:C:/Workspace/FW_Inertia/branch_indesit/ProductModules/PM_BusCOMM\BCP_BusCommMng.c **** 	CommMng[idChannel].PacketReq[idRequest] = FALSE;
 450:C:/Workspace/FW_Inertia/branch_indesit/ProductModules/PM_BusCOMM\BCP_BusCommMng.c **** 	return ret;
 451:C:/Workspace/FW_Inertia/branch_indesit/ProductModules/PM_BusCOMM\BCP_BusCommMng.c **** }
 452:C:/Workspace/FW_Inertia/branch_indesit/ProductModules/PM_BusCOMM\BCP_BusCommMng.c **** #endif
 453:C:/Workspace/FW_Inertia/branch_indesit/ProductModules/PM_BusCOMM\BCP_BusCommMng.c **** 
 454:C:/Workspace/FW_Inertia/branch_indesit/ProductModules/PM_BusCOMM\BCP_BusCommMng.c **** 
 455:C:/Workspace/FW_Inertia/branch_indesit/ProductModules/PM_BusCOMM\BCP_BusCommMng.c **** 
 456:C:/Workspace/FW_Inertia/branch_indesit/ProductModules/PM_BusCOMM\BCP_BusCommMng.c **** 
 457:C:/Workspace/FW_Inertia/branch_indesit/ProductModules/PM_BusCOMM\BCP_BusCommMng.c **** 
 458:C:/Workspace/FW_Inertia/branch_indesit/ProductModules/PM_BusCOMM\BCP_BusCommMng.c **** /**
 459:C:/Workspace/FW_Inertia/branch_indesit/ProductModules/PM_BusCOMM\BCP_BusCommMng.c **** Check for valid request without changing its current status.
 460:C:/Workspace/FW_Inertia/branch_indesit/ProductModules/PM_BusCOMM\BCP_BusCommMng.c **** 
 461:C:/Workspace/FW_Inertia/branch_indesit/ProductModules/PM_BusCOMM\BCP_BusCommMng.c **** \param [in] 	idRequest Request index. The value for this parameter must satisfy the condition:
 462:C:/Workspace/FW_Inertia/branch_indesit/ProductModules/PM_BusCOMM\BCP_BusCommMng.c **** 0 <= idRequest < BCM_REQ_NUM
 463:C:/Workspace/FW_Inertia/branch_indesit/ProductModules/PM_BusCOMM\BCP_BusCommMng.c **** \param [in] 	ch CP channel index. The value for this parameter must satisfy the condition:
 464:C:/Workspace/FW_Inertia/branch_indesit/ProductModules/PM_BusCOMM\BCP_BusCommMng.c **** 0 <= ch < TOTAL_CHANNELS
 465:C:/Workspace/FW_Inertia/branch_indesit/ProductModules/PM_BusCOMM\BCP_BusCommMng.c **** 
 466:C:/Workspace/FW_Inertia/branch_indesit/ProductModules/PM_BusCOMM\BCP_BusCommMng.c **** \retval     IO_E_INVALID_CHANNEL_ID
 467:C:/Workspace/FW_Inertia/branch_indesit/ProductModules/PM_BusCOMM\BCP_BusCommMng.c **** out of range for input param (idRequest or ch).
 468:C:/Workspace/FW_Inertia/branch_indesit/ProductModules/PM_BusCOMM\BCP_BusCommMng.c **** One of the following condition are not satisfied.
 469:C:/Workspace/FW_Inertia/branch_indesit/ProductModules/PM_BusCOMM\BCP_BusCommMng.c **** 0 <= idRequest < BCM_REQ_NUM
 470:C:/Workspace/FW_Inertia/branch_indesit/ProductModules/PM_BusCOMM\BCP_BusCommMng.c **** 0 <= ch < TOTAL_CHANNELS
 471:C:/Workspace/FW_Inertia/branch_indesit/ProductModules/PM_BusCOMM\BCP_BusCommMng.c **** 
 472:C:/Workspace/FW_Inertia/branch_indesit/ProductModules/PM_BusCOMM\BCP_BusCommMng.c **** \attention global variables used:
 473:C:/Workspace/FW_Inertia/branch_indesit/ProductModules/PM_BusCOMM\BCP_BusCommMng.c **** - CommMng (R)
 474:C:/Workspace/FW_Inertia/branch_indesit/ProductModules/PM_BusCOMM\BCP_BusCommMng.c **** 
 475:C:/Workspace/FW_Inertia/branch_indesit/ProductModules/PM_BusCOMM\BCP_BusCommMng.c **** \return 	IO_ErrorType
 476:C:/Workspace/FW_Inertia/branch_indesit/ProductModules/PM_BusCOMM\BCP_BusCommMng.c **** 
 477:C:/Workspace/FW_Inertia/branch_indesit/ProductModules/PM_BusCOMM\BCP_BusCommMng.c **** \retval     IO_E_OK
 478:C:/Workspace/FW_Inertia/branch_indesit/ProductModules/PM_BusCOMM\BCP_BusCommMng.c **** Request successfully completed
 479:C:/Workspace/FW_Inertia/branch_indesit/ProductModules/PM_BusCOMM\BCP_BusCommMng.c **** \retval     IO_E_NOT_QUEUED
 480:C:/Workspace/FW_Inertia/branch_indesit/ProductModules/PM_BusCOMM\BCP_BusCommMng.c **** not queued or not valid request
 481:C:/Workspace/FW_Inertia/branch_indesit/ProductModules/PM_BusCOMM\BCP_BusCommMng.c **** 
 482:C:/Workspace/FW_Inertia/branch_indesit/ProductModules/PM_BusCOMM\BCP_BusCommMng.c **** 
 483:C:/Workspace/FW_Inertia/branch_indesit/ProductModules/PM_BusCOMM\BCP_BusCommMng.c **** 
 484:C:/Workspace/FW_Inertia/branch_indesit/ProductModules/PM_BusCOMM\BCP_BusCommMng.c **** \warning	[Type warnings]
 485:C:/Workspace/FW_Inertia/branch_indesit/ProductModules/PM_BusCOMM\BCP_BusCommMng.c **** 
 486:C:/Workspace/FW_Inertia/branch_indesit/ProductModules/PM_BusCOMM\BCP_BusCommMng.c **** \author 	Roberto Fioravanti
 487:C:/Workspace/FW_Inertia/branch_indesit/ProductModules/PM_BusCOMM\BCP_BusCommMng.c **** \date		  26/Feb/2010
 488:C:/Workspace/FW_Inertia/branch_indesit/ProductModules/PM_BusCOMM\BCP_BusCommMng.c **** \version	0.0.0
 489:C:/Workspace/FW_Inertia/branch_indesit/ProductModules/PM_BusCOMM\BCP_BusCommMng.c **** 
 490:C:/Workspace/FW_Inertia/branch_indesit/ProductModules/PM_BusCOMM\BCP_BusCommMng.c **** \bug		[Type bugs]
 491:C:/Workspace/FW_Inertia/branch_indesit/ProductModules/PM_BusCOMM\BCP_BusCommMng.c **** 
 492:C:/Workspace/FW_Inertia/branch_indesit/ProductModules/PM_BusCOMM\BCP_BusCommMng.c **** \note		\par \b Note 1:
 493:C:/Workspace/FW_Inertia/branch_indesit/ProductModules/PM_BusCOMM\BCP_BusCommMng.c **** 			documentation by: Roberto Fioravanti
 494:C:/Workspace/FW_Inertia/branch_indesit/ProductModules/PM_BusCOMM\BCP_BusCommMng.c **** 			\par \b Note n:
 495:C:/Workspace/FW_Inertia/branch_indesit/ProductModules/PM_BusCOMM\BCP_BusCommMng.c **** 
 496:C:/Workspace/FW_Inertia/branch_indesit/ProductModules/PM_BusCOMM\BCP_BusCommMng.c **** \public \memberof CRM_ClassType
 497:C:/Workspace/FW_Inertia/branch_indesit/ProductModules/PM_BusCOMM\BCP_BusCommMng.c **** */
 498:C:/Workspace/FW_Inertia/branch_indesit/ProductModules/PM_BusCOMM\BCP_BusCommMng.c **** #if BCP_MASTER_SUPPORT == TRUE
 499:C:/Workspace/FW_Inertia/branch_indesit/ProductModules/PM_BusCOMM\BCP_BusCommMng.c **** IO_ErrorType CRM_IsPacketRequestSync(IO_ChannelType ch, BCM_RequestType idRequest)
 500:C:/Workspace/FW_Inertia/branch_indesit/ProductModules/PM_BusCOMM\BCP_BusCommMng.c **** {
 501:C:/Workspace/FW_Inertia/branch_indesit/ProductModules/PM_BusCOMM\BCP_BusCommMng.c **** 
 502:C:/Workspace/FW_Inertia/branch_indesit/ProductModules/PM_BusCOMM\BCP_BusCommMng.c ****   if(ch >= TOTAL_CHANNELS)
 503:C:/Workspace/FW_Inertia/branch_indesit/ProductModules/PM_BusCOMM\BCP_BusCommMng.c ****   {
 504:C:/Workspace/FW_Inertia/branch_indesit/ProductModules/PM_BusCOMM\BCP_BusCommMng.c ****     return (IO_ErrorType)IO_E_INVALID_CHANNEL_ID;
 505:C:/Workspace/FW_Inertia/branch_indesit/ProductModules/PM_BusCOMM\BCP_BusCommMng.c ****   }
 506:C:/Workspace/FW_Inertia/branch_indesit/ProductModules/PM_BusCOMM\BCP_BusCommMng.c **** 
 507:C:/Workspace/FW_Inertia/branch_indesit/ProductModules/PM_BusCOMM\BCP_BusCommMng.c ****   if(idRequest >= BCM_REQ_NUM)
 508:C:/Workspace/FW_Inertia/branch_indesit/ProductModules/PM_BusCOMM\BCP_BusCommMng.c ****   {
 509:C:/Workspace/FW_Inertia/branch_indesit/ProductModules/PM_BusCOMM\BCP_BusCommMng.c ****     return (IO_ErrorType)IO_E_INVALID_CHANNEL_ID;
 510:C:/Workspace/FW_Inertia/branch_indesit/ProductModules/PM_BusCOMM\BCP_BusCommMng.c ****   }
 511:C:/Workspace/FW_Inertia/branch_indesit/ProductModules/PM_BusCOMM\BCP_BusCommMng.c **** 
 512:C:/Workspace/FW_Inertia/branch_indesit/ProductModules/PM_BusCOMM\BCP_BusCommMng.c ****   if (CommMng[ch].PacketReq[idRequest]) /* check for already pending requests */
 513:C:/Workspace/FW_Inertia/branch_indesit/ProductModules/PM_BusCOMM\BCP_BusCommMng.c ****   {
 514:C:/Workspace/FW_Inertia/branch_indesit/ProductModules/PM_BusCOMM\BCP_BusCommMng.c **** 	  return (IO_ErrorType)IO_E_OK;
 515:C:/Workspace/FW_Inertia/branch_indesit/ProductModules/PM_BusCOMM\BCP_BusCommMng.c ****   }
 516:C:/Workspace/FW_Inertia/branch_indesit/ProductModules/PM_BusCOMM\BCP_BusCommMng.c **** 
 517:C:/Workspace/FW_Inertia/branch_indesit/ProductModules/PM_BusCOMM\BCP_BusCommMng.c ****   return (IO_ErrorType)IO_E_NOT_QUEUED;
 518:C:/Workspace/FW_Inertia/branch_indesit/ProductModules/PM_BusCOMM\BCP_BusCommMng.c **** }
 519:C:/Workspace/FW_Inertia/branch_indesit/ProductModules/PM_BusCOMM\BCP_BusCommMng.c **** #endif
 520:C:/Workspace/FW_Inertia/branch_indesit/ProductModules/PM_BusCOMM\BCP_BusCommMng.c **** 
 521:C:/Workspace/FW_Inertia/branch_indesit/ProductModules/PM_BusCOMM\BCP_BusCommMng.c **** /**
 522:C:/Workspace/FW_Inertia/branch_indesit/ProductModules/PM_BusCOMM\BCP_BusCommMng.c **** Inserts the specified request in the queue of the specified CP channel.
 523:C:/Workspace/FW_Inertia/branch_indesit/ProductModules/PM_BusCOMM\BCP_BusCommMng.c **** 
 524:C:/Workspace/FW_Inertia/branch_indesit/ProductModules/PM_BusCOMM\BCP_BusCommMng.c **** \param [in] 	idRequest Request index. The value for this param must satisfy the condition:
 525:C:/Workspace/FW_Inertia/branch_indesit/ProductModules/PM_BusCOMM\BCP_BusCommMng.c **** 0 <= idRequest < BCM_REQ_NUM
 526:C:/Workspace/FW_Inertia/branch_indesit/ProductModules/PM_BusCOMM\BCP_BusCommMng.c **** \param [in] 	ch channel index. The value for this param must satisfy the condition:
 527:C:/Workspace/FW_Inertia/branch_indesit/ProductModules/PM_BusCOMM\BCP_BusCommMng.c **** 0 <= ch < TOTAL_CHANNELS
 528:C:/Workspace/FW_Inertia/branch_indesit/ProductModules/PM_BusCOMM\BCP_BusCommMng.c **** 
 529:C:/Workspace/FW_Inertia/branch_indesit/ProductModules/PM_BusCOMM\BCP_BusCommMng.c **** \attention global variables used:
 530:C:/Workspace/FW_Inertia/branch_indesit/ProductModules/PM_BusCOMM\BCP_BusCommMng.c **** - CommMng (R/W)
 531:C:/Workspace/FW_Inertia/branch_indesit/ProductModules/PM_BusCOMM\BCP_BusCommMng.c **** 
 532:C:/Workspace/FW_Inertia/branch_indesit/ProductModules/PM_BusCOMM\BCP_BusCommMng.c **** \return 	IO_ErrorType
 533:C:/Workspace/FW_Inertia/branch_indesit/ProductModules/PM_BusCOMM\BCP_BusCommMng.c **** 
 534:C:/Workspace/FW_Inertia/branch_indesit/ProductModules/PM_BusCOMM\BCP_BusCommMng.c **** \retval     IO_E_OK
 535:C:/Workspace/FW_Inertia/branch_indesit/ProductModules/PM_BusCOMM\BCP_BusCommMng.c **** Request successfully completed
 536:C:/Workspace/FW_Inertia/branch_indesit/ProductModules/PM_BusCOMM\BCP_BusCommMng.c **** \retval     IO_E_ALREADY_PENDING
 537:C:/Workspace/FW_Inertia/branch_indesit/ProductModules/PM_BusCOMM\BCP_BusCommMng.c **** Already pending request
 538:C:/Workspace/FW_Inertia/branch_indesit/ProductModules/PM_BusCOMM\BCP_BusCommMng.c **** 
 539:C:/Workspace/FW_Inertia/branch_indesit/ProductModules/PM_BusCOMM\BCP_BusCommMng.c **** \retval     IO_E_INVALID_CHANNEL_ID
 540:C:/Workspace/FW_Inertia/branch_indesit/ProductModules/PM_BusCOMM\BCP_BusCommMng.c **** out of range for input param (idRequest or ch).
 541:C:/Workspace/FW_Inertia/branch_indesit/ProductModules/PM_BusCOMM\BCP_BusCommMng.c **** One of the following condition are not satisfied.
 542:C:/Workspace/FW_Inertia/branch_indesit/ProductModules/PM_BusCOMM\BCP_BusCommMng.c **** 0 <= idRequest < BCM_REQ_NUM
 543:C:/Workspace/FW_Inertia/branch_indesit/ProductModules/PM_BusCOMM\BCP_BusCommMng.c **** 0 <= ch < TOTAL_CHANNELS
 544:C:/Workspace/FW_Inertia/branch_indesit/ProductModules/PM_BusCOMM\BCP_BusCommMng.c **** 
 545:C:/Workspace/FW_Inertia/branch_indesit/ProductModules/PM_BusCOMM\BCP_BusCommMng.c **** 
 546:C:/Workspace/FW_Inertia/branch_indesit/ProductModules/PM_BusCOMM\BCP_BusCommMng.c **** \warning	[Type warnings]
 547:C:/Workspace/FW_Inertia/branch_indesit/ProductModules/PM_BusCOMM\BCP_BusCommMng.c **** 
 548:C:/Workspace/FW_Inertia/branch_indesit/ProductModules/PM_BusCOMM\BCP_BusCommMng.c **** \author 	Roberto Fioravanti
 549:C:/Workspace/FW_Inertia/branch_indesit/ProductModules/PM_BusCOMM\BCP_BusCommMng.c **** \date		  26/Feb/2010
 550:C:/Workspace/FW_Inertia/branch_indesit/ProductModules/PM_BusCOMM\BCP_BusCommMng.c **** \version	0.0.0
 551:C:/Workspace/FW_Inertia/branch_indesit/ProductModules/PM_BusCOMM\BCP_BusCommMng.c **** 
 552:C:/Workspace/FW_Inertia/branch_indesit/ProductModules/PM_BusCOMM\BCP_BusCommMng.c **** \bug		[Type bugs]
 553:C:/Workspace/FW_Inertia/branch_indesit/ProductModules/PM_BusCOMM\BCP_BusCommMng.c **** 
 554:C:/Workspace/FW_Inertia/branch_indesit/ProductModules/PM_BusCOMM\BCP_BusCommMng.c **** \todo		[To do action]
 555:C:/Workspace/FW_Inertia/branch_indesit/ProductModules/PM_BusCOMM\BCP_BusCommMng.c **** 
 556:C:/Workspace/FW_Inertia/branch_indesit/ProductModules/PM_BusCOMM\BCP_BusCommMng.c **** \note		\par \b Note 1:
 557:C:/Workspace/FW_Inertia/branch_indesit/ProductModules/PM_BusCOMM\BCP_BusCommMng.c **** 			documentation by: Roberto Fioravanti
 558:C:/Workspace/FW_Inertia/branch_indesit/ProductModules/PM_BusCOMM\BCP_BusCommMng.c **** 			\par \b Note n:
 559:C:/Workspace/FW_Inertia/branch_indesit/ProductModules/PM_BusCOMM\BCP_BusCommMng.c **** 
 560:C:/Workspace/FW_Inertia/branch_indesit/ProductModules/PM_BusCOMM\BCP_BusCommMng.c **** \public \memberof CRM_ClassType
 561:C:/Workspace/FW_Inertia/branch_indesit/ProductModules/PM_BusCOMM\BCP_BusCommMng.c **** */
 562:C:/Workspace/FW_Inertia/branch_indesit/ProductModules/PM_BusCOMM\BCP_BusCommMng.c **** #if BCP_MASTER_SUPPORT == TRUE
 563:C:/Workspace/FW_Inertia/branch_indesit/ProductModules/PM_BusCOMM\BCP_BusCommMng.c **** IO_ErrorType CRM_SetPacketRequestSync(IO_ChannelType ch, BCM_RequestType idRequest)
 564:C:/Workspace/FW_Inertia/branch_indesit/ProductModules/PM_BusCOMM\BCP_BusCommMng.c **** {
 565:C:/Workspace/FW_Inertia/branch_indesit/ProductModules/PM_BusCOMM\BCP_BusCommMng.c **** 
 566:C:/Workspace/FW_Inertia/branch_indesit/ProductModules/PM_BusCOMM\BCP_BusCommMng.c **** /* check for already pending requests */
 567:C:/Workspace/FW_Inertia/branch_indesit/ProductModules/PM_BusCOMM\BCP_BusCommMng.c **** 
 568:C:/Workspace/FW_Inertia/branch_indesit/ProductModules/PM_BusCOMM\BCP_BusCommMng.c ****   if(ch >= TOTAL_CHANNELS)
 569:C:/Workspace/FW_Inertia/branch_indesit/ProductModules/PM_BusCOMM\BCP_BusCommMng.c ****   {
 570:C:/Workspace/FW_Inertia/branch_indesit/ProductModules/PM_BusCOMM\BCP_BusCommMng.c ****     return (IO_ErrorType)IO_E_INVALID_CHANNEL_ID;
 571:C:/Workspace/FW_Inertia/branch_indesit/ProductModules/PM_BusCOMM\BCP_BusCommMng.c ****   }
 572:C:/Workspace/FW_Inertia/branch_indesit/ProductModules/PM_BusCOMM\BCP_BusCommMng.c **** 
 573:C:/Workspace/FW_Inertia/branch_indesit/ProductModules/PM_BusCOMM\BCP_BusCommMng.c ****   if(idRequest >= BCM_REQ_NUM)
 574:C:/Workspace/FW_Inertia/branch_indesit/ProductModules/PM_BusCOMM\BCP_BusCommMng.c ****   {
 575:C:/Workspace/FW_Inertia/branch_indesit/ProductModules/PM_BusCOMM\BCP_BusCommMng.c ****     return (IO_ErrorType)IO_E_INVALID_CHANNEL_ID;
 576:C:/Workspace/FW_Inertia/branch_indesit/ProductModules/PM_BusCOMM\BCP_BusCommMng.c ****   }
 577:C:/Workspace/FW_Inertia/branch_indesit/ProductModules/PM_BusCOMM\BCP_BusCommMng.c **** 
 578:C:/Workspace/FW_Inertia/branch_indesit/ProductModules/PM_BusCOMM\BCP_BusCommMng.c ****   if (CommMng[ch].PacketReq[idRequest]) /* check for already pending requests */
 579:C:/Workspace/FW_Inertia/branch_indesit/ProductModules/PM_BusCOMM\BCP_BusCommMng.c ****   {
 580:C:/Workspace/FW_Inertia/branch_indesit/ProductModules/PM_BusCOMM\BCP_BusCommMng.c **** 	  return (IO_ErrorType)IO_E_ALREADY_PENDING;
 581:C:/Workspace/FW_Inertia/branch_indesit/ProductModules/PM_BusCOMM\BCP_BusCommMng.c ****   }
 582:C:/Workspace/FW_Inertia/branch_indesit/ProductModules/PM_BusCOMM\BCP_BusCommMng.c **** 
 583:C:/Workspace/FW_Inertia/branch_indesit/ProductModules/PM_BusCOMM\BCP_BusCommMng.c ****   CommMng[ch].PacketReq[idRequest] = CP_REQ_PENDING;
 584:C:/Workspace/FW_Inertia/branch_indesit/ProductModules/PM_BusCOMM\BCP_BusCommMng.c **** 
 585:C:/Workspace/FW_Inertia/branch_indesit/ProductModules/PM_BusCOMM\BCP_BusCommMng.c ****   CommMng[ch].flag.ReqPending = TRUE;
 586:C:/Workspace/FW_Inertia/branch_indesit/ProductModules/PM_BusCOMM\BCP_BusCommMng.c **** 
 587:C:/Workspace/FW_Inertia/branch_indesit/ProductModules/PM_BusCOMM\BCP_BusCommMng.c ****   return (IO_ErrorType)IO_E_OK;
 588:C:/Workspace/FW_Inertia/branch_indesit/ProductModules/PM_BusCOMM\BCP_BusCommMng.c **** }
 589:C:/Workspace/FW_Inertia/branch_indesit/ProductModules/PM_BusCOMM\BCP_BusCommMng.c **** #endif
 590:C:/Workspace/FW_Inertia/branch_indesit/ProductModules/PM_BusCOMM\BCP_BusCommMng.c **** 
 591:C:/Workspace/FW_Inertia/branch_indesit/ProductModules/PM_BusCOMM\BCP_BusCommMng.c **** 
 592:C:/Workspace/FW_Inertia/branch_indesit/ProductModules/PM_BusCOMM\BCP_BusCommMng.c **** 
 593:C:/Workspace/FW_Inertia/branch_indesit/ProductModules/PM_BusCOMM\BCP_BusCommMng.c **** 
 594:C:/Workspace/FW_Inertia/branch_indesit/ProductModules/PM_BusCOMM\BCP_BusCommMng.c **** /**
 595:C:/Workspace/FW_Inertia/branch_indesit/ProductModules/PM_BusCOMM\BCP_BusCommMng.c **** Sets the parameters for the specified request.
 596:C:/Workspace/FW_Inertia/branch_indesit/ProductModules/PM_BusCOMM\BCP_BusCommMng.c **** This parameters passed by this function will be processed by the Platform Protocol to build the the
 597:C:/Workspace/FW_Inertia/branch_indesit/ProductModules/PM_BusCOMM\BCP_BusCommMng.c **** 
 598:C:/Workspace/FW_Inertia/branch_indesit/ProductModules/PM_BusCOMM\BCP_BusCommMng.c **** \param [in] 	idRequest Request index.
 599:C:/Workspace/FW_Inertia/branch_indesit/ProductModules/PM_BusCOMM\BCP_BusCommMng.c **** \param [in] 	pParam pointer to the paramenters
 600:C:/Workspace/FW_Inertia/branch_indesit/ProductModules/PM_BusCOMM\BCP_BusCommMng.c **** \param [in] 	len size in byte of the paramenters.
 601:C:/Workspace/FW_Inertia/branch_indesit/ProductModules/PM_BusCOMM\BCP_BusCommMng.c **** 
 602:C:/Workspace/FW_Inertia/branch_indesit/ProductModules/PM_BusCOMM\BCP_BusCommMng.c **** \attention global variables used:
 603:C:/Workspace/FW_Inertia/branch_indesit/ProductModules/PM_BusCOMM\BCP_BusCommMng.c **** - CommMng
 604:C:/Workspace/FW_Inertia/branch_indesit/ProductModules/PM_BusCOMM\BCP_BusCommMng.c **** 
 605:C:/Workspace/FW_Inertia/branch_indesit/ProductModules/PM_BusCOMM\BCP_BusCommMng.c **** \return 	IO_ErrorType
 606:C:/Workspace/FW_Inertia/branch_indesit/ProductModules/PM_BusCOMM\BCP_BusCommMng.c **** 
 607:C:/Workspace/FW_Inertia/branch_indesit/ProductModules/PM_BusCOMM\BCP_BusCommMng.c **** \retval     IO_E_OK
 608:C:/Workspace/FW_Inertia/branch_indesit/ProductModules/PM_BusCOMM\BCP_BusCommMng.c **** Request successfully completed
 609:C:/Workspace/FW_Inertia/branch_indesit/ProductModules/PM_BusCOMM\BCP_BusCommMng.c **** \retval     IO_E_NOT_QUEUED
 610:C:/Workspace/FW_Inertia/branch_indesit/ProductModules/PM_BusCOMM\BCP_BusCommMng.c **** Already pending request
 611:C:/Workspace/FW_Inertia/branch_indesit/ProductModules/PM_BusCOMM\BCP_BusCommMng.c **** 
 612:C:/Workspace/FW_Inertia/branch_indesit/ProductModules/PM_BusCOMM\BCP_BusCommMng.c **** 
 613:C:/Workspace/FW_Inertia/branch_indesit/ProductModules/PM_BusCOMM\BCP_BusCommMng.c **** \warning	[Type warnings]
 614:C:/Workspace/FW_Inertia/branch_indesit/ProductModules/PM_BusCOMM\BCP_BusCommMng.c **** 
 615:C:/Workspace/FW_Inertia/branch_indesit/ProductModules/PM_BusCOMM\BCP_BusCommMng.c **** \author 	Roberto Fioravanti
 616:C:/Workspace/FW_Inertia/branch_indesit/ProductModules/PM_BusCOMM\BCP_BusCommMng.c **** \date		26/Feb/2010
 617:C:/Workspace/FW_Inertia/branch_indesit/ProductModules/PM_BusCOMM\BCP_BusCommMng.c **** \version	1.0.0
 618:C:/Workspace/FW_Inertia/branch_indesit/ProductModules/PM_BusCOMM\BCP_BusCommMng.c **** 
 619:C:/Workspace/FW_Inertia/branch_indesit/ProductModules/PM_BusCOMM\BCP_BusCommMng.c **** \bug		[Type bugs]
 620:C:/Workspace/FW_Inertia/branch_indesit/ProductModules/PM_BusCOMM\BCP_BusCommMng.c **** 
 621:C:/Workspace/FW_Inertia/branch_indesit/ProductModules/PM_BusCOMM\BCP_BusCommMng.c **** \note		\par \b Note 1:
 622:C:/Workspace/FW_Inertia/branch_indesit/ProductModules/PM_BusCOMM\BCP_BusCommMng.c **** 			documentation by: Roberto Fioravanti
 623:C:/Workspace/FW_Inertia/branch_indesit/ProductModules/PM_BusCOMM\BCP_BusCommMng.c **** 			\par \b Note n:
 624:C:/Workspace/FW_Inertia/branch_indesit/ProductModules/PM_BusCOMM\BCP_BusCommMng.c **** 
 625:C:/Workspace/FW_Inertia/branch_indesit/ProductModules/PM_BusCOMM\BCP_BusCommMng.c **** \public \memberof CRM_ClassType
 626:C:/Workspace/FW_Inertia/branch_indesit/ProductModules/PM_BusCOMM\BCP_BusCommMng.c **** */
 627:C:/Workspace/FW_Inertia/branch_indesit/ProductModules/PM_BusCOMM\BCP_BusCommMng.c **** #if BCP_MASTER_SUPPORT == TRUE
 628:C:/Workspace/FW_Inertia/branch_indesit/ProductModules/PM_BusCOMM\BCP_BusCommMng.c **** IO_ErrorType CRM_SetPacketParamSync(IO_ChannelType ch, BCM_RequestType idRequest, void * pParam, IO
 629:C:/Workspace/FW_Inertia/branch_indesit/ProductModules/PM_BusCOMM\BCP_BusCommMng.c **** {
 630:C:/Workspace/FW_Inertia/branch_indesit/ProductModules/PM_BusCOMM\BCP_BusCommMng.c **** 
 631:C:/Workspace/FW_Inertia/branch_indesit/ProductModules/PM_BusCOMM\BCP_BusCommMng.c ****   IO_ChannelType idProtReq = BCM_MasterRequestTable[idRequest].PPReqIndex; /* get index in the prot
 632:C:/Workspace/FW_Inertia/branch_indesit/ProductModules/PM_BusCOMM\BCP_BusCommMng.c **** 
 633:C:/Workspace/FW_Inertia/branch_indesit/ProductModules/PM_BusCOMM\BCP_BusCommMng.c ****   return PP_MasterSetParamRequestSync(ch, idProtReq, pParam, len);
 634:C:/Workspace/FW_Inertia/branch_indesit/ProductModules/PM_BusCOMM\BCP_BusCommMng.c **** }
 635:C:/Workspace/FW_Inertia/branch_indesit/ProductModules/PM_BusCOMM\BCP_BusCommMng.c **** #endif
 636:C:/Workspace/FW_Inertia/branch_indesit/ProductModules/PM_BusCOMM\BCP_BusCommMng.c **** 
 637:C:/Workspace/FW_Inertia/branch_indesit/ProductModules/PM_BusCOMM\BCP_BusCommMng.c **** /**
 638:C:/Workspace/FW_Inertia/branch_indesit/ProductModules/PM_BusCOMM\BCP_BusCommMng.c **** Removes the specified request from the queue.
 639:C:/Workspace/FW_Inertia/branch_indesit/ProductModules/PM_BusCOMM\BCP_BusCommMng.c **** \param [in] 	idChannel CP Channel.
 640:C:/Workspace/FW_Inertia/branch_indesit/ProductModules/PM_BusCOMM\BCP_BusCommMng.c **** \param [in] 	idRequest Request index.
 641:C:/Workspace/FW_Inertia/branch_indesit/ProductModules/PM_BusCOMM\BCP_BusCommMng.c **** 
 642:C:/Workspace/FW_Inertia/branch_indesit/ProductModules/PM_BusCOMM\BCP_BusCommMng.c **** \attention global variables used:
 643:C:/Workspace/FW_Inertia/branch_indesit/ProductModules/PM_BusCOMM\BCP_BusCommMng.c **** - CommMng (R/W)
 644:C:/Workspace/FW_Inertia/branch_indesit/ProductModules/PM_BusCOMM\BCP_BusCommMng.c **** 
 645:C:/Workspace/FW_Inertia/branch_indesit/ProductModules/PM_BusCOMM\BCP_BusCommMng.c **** \return 	void
 646:C:/Workspace/FW_Inertia/branch_indesit/ProductModules/PM_BusCOMM\BCP_BusCommMng.c **** 
 647:C:/Workspace/FW_Inertia/branch_indesit/ProductModules/PM_BusCOMM\BCP_BusCommMng.c **** \warning	[Type warnings]
 648:C:/Workspace/FW_Inertia/branch_indesit/ProductModules/PM_BusCOMM\BCP_BusCommMng.c **** 
 649:C:/Workspace/FW_Inertia/branch_indesit/ProductModules/PM_BusCOMM\BCP_BusCommMng.c **** \author 	Gabriele Merlonghi, Roberto Fioravanti
 650:C:/Workspace/FW_Inertia/branch_indesit/ProductModules/PM_BusCOMM\BCP_BusCommMng.c **** \date		20/Mar/2010
 651:C:/Workspace/FW_Inertia/branch_indesit/ProductModules/PM_BusCOMM\BCP_BusCommMng.c **** \version	00.00.35
 652:C:/Workspace/FW_Inertia/branch_indesit/ProductModules/PM_BusCOMM\BCP_BusCommMng.c **** 
 653:C:/Workspace/FW_Inertia/branch_indesit/ProductModules/PM_BusCOMM\BCP_BusCommMng.c **** \bug		[Type bugs]
 654:C:/Workspace/FW_Inertia/branch_indesit/ProductModules/PM_BusCOMM\BCP_BusCommMng.c **** 
 655:C:/Workspace/FW_Inertia/branch_indesit/ProductModules/PM_BusCOMM\BCP_BusCommMng.c **** \note		\par \b Note 1:
 656:C:/Workspace/FW_Inertia/branch_indesit/ProductModules/PM_BusCOMM\BCP_BusCommMng.c **** 			documentation by: Roberto Fioravanti
 657:C:/Workspace/FW_Inertia/branch_indesit/ProductModules/PM_BusCOMM\BCP_BusCommMng.c **** 			\par \b Note n:
 658:C:/Workspace/FW_Inertia/branch_indesit/ProductModules/PM_BusCOMM\BCP_BusCommMng.c **** 
 659:C:/Workspace/FW_Inertia/branch_indesit/ProductModules/PM_BusCOMM\BCP_BusCommMng.c **** \public \memberof CRM_ClassType
 660:C:/Workspace/FW_Inertia/branch_indesit/ProductModules/PM_BusCOMM\BCP_BusCommMng.c **** */
 661:C:/Workspace/FW_Inertia/branch_indesit/ProductModules/PM_BusCOMM\BCP_BusCommMng.c **** #if BCP_MASTER_SUPPORT == TRUE
 662:C:/Workspace/FW_Inertia/branch_indesit/ProductModules/PM_BusCOMM\BCP_BusCommMng.c **** void BCM_KillPacketRequest(IO_ChannelType idChannel, BCM_RequestType idRequest)
 663:C:/Workspace/FW_Inertia/branch_indesit/ProductModules/PM_BusCOMM\BCP_BusCommMng.c **** {
 664:C:/Workspace/FW_Inertia/branch_indesit/ProductModules/PM_BusCOMM\BCP_BusCommMng.c **** 
 665:C:/Workspace/FW_Inertia/branch_indesit/ProductModules/PM_BusCOMM\BCP_BusCommMng.c ****   CommMng[idChannel].PacketReq[idRequest] = FALSE;
 666:C:/Workspace/FW_Inertia/branch_indesit/ProductModules/PM_BusCOMM\BCP_BusCommMng.c ****   CommMng[idChannel].PacketReqCurrentIndex = 0xFF;
 667:C:/Workspace/FW_Inertia/branch_indesit/ProductModules/PM_BusCOMM\BCP_BusCommMng.c **** }
 668:C:/Workspace/FW_Inertia/branch_indesit/ProductModules/PM_BusCOMM\BCP_BusCommMng.c **** #endif
 669:C:/Workspace/FW_Inertia/branch_indesit/ProductModules/PM_BusCOMM\BCP_BusCommMng.c **** 
 670:C:/Workspace/FW_Inertia/branch_indesit/ProductModules/PM_BusCOMM\BCP_BusCommMng.c **** 
 671:C:/Workspace/FW_Inertia/branch_indesit/ProductModules/PM_BusCOMM\BCP_BusCommMng.c **** /**
 672:C:/Workspace/FW_Inertia/branch_indesit/ProductModules/PM_BusCOMM\BCP_BusCommMng.c **** Executes the Communication Request Manager state machine of the specified channel.
 673:C:/Workspace/FW_Inertia/branch_indesit/ProductModules/PM_BusCOMM\BCP_BusCommMng.c **** 
 674:C:/Workspace/FW_Inertia/branch_indesit/ProductModules/PM_BusCOMM\BCP_BusCommMng.c **** \param [in] 	idChannel Index of the channel.
 675:C:/Workspace/FW_Inertia/branch_indesit/ProductModules/PM_BusCOMM\BCP_BusCommMng.c **** 
 676:C:/Workspace/FW_Inertia/branch_indesit/ProductModules/PM_BusCOMM\BCP_BusCommMng.c **** 
 677:C:/Workspace/FW_Inertia/branch_indesit/ProductModules/PM_BusCOMM\BCP_BusCommMng.c **** \attention global variables used:
 678:C:/Workspace/FW_Inertia/branch_indesit/ProductModules/PM_BusCOMM\BCP_BusCommMng.c **** - CommMng (R/W)
 679:C:/Workspace/FW_Inertia/branch_indesit/ProductModules/PM_BusCOMM\BCP_BusCommMng.c **** 
 680:C:/Workspace/FW_Inertia/branch_indesit/ProductModules/PM_BusCOMM\BCP_BusCommMng.c **** \return 	void
 681:C:/Workspace/FW_Inertia/branch_indesit/ProductModules/PM_BusCOMM\BCP_BusCommMng.c **** 
 682:C:/Workspace/FW_Inertia/branch_indesit/ProductModules/PM_BusCOMM\BCP_BusCommMng.c **** \warning	[Type warnings]
 683:C:/Workspace/FW_Inertia/branch_indesit/ProductModules/PM_BusCOMM\BCP_BusCommMng.c **** 
 684:C:/Workspace/FW_Inertia/branch_indesit/ProductModules/PM_BusCOMM\BCP_BusCommMng.c **** \author 	Roberto Fioravanti
 685:C:/Workspace/FW_Inertia/branch_indesit/ProductModules/PM_BusCOMM\BCP_BusCommMng.c **** \date		16/Apr/2010
 686:C:/Workspace/FW_Inertia/branch_indesit/ProductModules/PM_BusCOMM\BCP_BusCommMng.c **** \version	1.0.0
 687:C:/Workspace/FW_Inertia/branch_indesit/ProductModules/PM_BusCOMM\BCP_BusCommMng.c **** 
 688:C:/Workspace/FW_Inertia/branch_indesit/ProductModules/PM_BusCOMM\BCP_BusCommMng.c **** \bug		[Type bugs]
 689:C:/Workspace/FW_Inertia/branch_indesit/ProductModules/PM_BusCOMM\BCP_BusCommMng.c **** 
 690:C:/Workspace/FW_Inertia/branch_indesit/ProductModules/PM_BusCOMM\BCP_BusCommMng.c **** \note		\par \b Note 1:
 691:C:/Workspace/FW_Inertia/branch_indesit/ProductModules/PM_BusCOMM\BCP_BusCommMng.c **** 			documentation by: Roberto Fioravanti
 692:C:/Workspace/FW_Inertia/branch_indesit/ProductModules/PM_BusCOMM\BCP_BusCommMng.c **** 			\par \b Note n:
 693:C:/Workspace/FW_Inertia/branch_indesit/ProductModules/PM_BusCOMM\BCP_BusCommMng.c **** 
 694:C:/Workspace/FW_Inertia/branch_indesit/ProductModules/PM_BusCOMM\BCP_BusCommMng.c **** \public \memberof CRM_ClassType
 695:C:/Workspace/FW_Inertia/branch_indesit/ProductModules/PM_BusCOMM\BCP_BusCommMng.c **** */
 696:C:/Workspace/FW_Inertia/branch_indesit/ProductModules/PM_BusCOMM\BCP_BusCommMng.c **** #if BCP_MASTER_SUPPORT == TRUE
 697:C:/Workspace/FW_Inertia/branch_indesit/ProductModules/PM_BusCOMM\BCP_BusCommMng.c **** void BCM_RequestManager(uint8_t idChannel)
 698:C:/Workspace/FW_Inertia/branch_indesit/ProductModules/PM_BusCOMM\BCP_BusCommMng.c **** {
 699:C:/Workspace/FW_Inertia/branch_indesit/ProductModules/PM_BusCOMM\BCP_BusCommMng.c **** 	CRM_ClassType* pCommMng = &CommMng[idChannel];
 700:C:/Workspace/FW_Inertia/branch_indesit/ProductModules/PM_BusCOMM\BCP_BusCommMng.c **** 
 701:C:/Workspace/FW_Inertia/branch_indesit/ProductModules/PM_BusCOMM\BCP_BusCommMng.c **** 	switch(pCommMng->PendingReqState)
 702:C:/Workspace/FW_Inertia/branch_indesit/ProductModules/PM_BusCOMM\BCP_BusCommMng.c **** 	{
 703:C:/Workspace/FW_Inertia/branch_indesit/ProductModules/PM_BusCOMM\BCP_BusCommMng.c **** 	case COMM_PERIPHERAL_INIT:
 704:C:/Workspace/FW_Inertia/branch_indesit/ProductModules/PM_BusCOMM\BCP_BusCommMng.c **** 	{
 705:C:/Workspace/FW_Inertia/branch_indesit/ProductModules/PM_BusCOMM\BCP_BusCommMng.c **** 		IO_PhyInitSyncType drvParam={0};
 706:C:/Workspace/FW_Inertia/branch_indesit/ProductModules/PM_BusCOMM\BCP_BusCommMng.c **** 
 707:C:/Workspace/FW_Inertia/branch_indesit/ProductModules/PM_BusCOMM\BCP_BusCommMng.c **** 		drvParam.eventCB=PP_SlaveNotification;
 708:C:/Workspace/FW_Inertia/branch_indesit/ProductModules/PM_BusCOMM\BCP_BusCommMng.c **** 		drvParam.id=idChannel;
 709:C:/Workspace/FW_Inertia/branch_indesit/ProductModules/PM_BusCOMM\BCP_BusCommMng.c **** 
 710:C:/Workspace/FW_Inertia/branch_indesit/ProductModules/PM_BusCOMM\BCP_BusCommMng.c **** 		pCommMng->flag.TxTimeout=0;
 711:C:/Workspace/FW_Inertia/branch_indesit/ProductModules/PM_BusCOMM\BCP_BusCommMng.c **** 		pCommMng->PacketReqCurrentIndex = 0xFF;
 712:C:/Workspace/FW_Inertia/branch_indesit/ProductModules/PM_BusCOMM\BCP_BusCommMng.c **** 
 713:C:/Workspace/FW_Inertia/branch_indesit/ProductModules/PM_BusCOMM\BCP_BusCommMng.c **** 
 714:C:/Workspace/FW_Inertia/branch_indesit/ProductModules/PM_BusCOMM\BCP_BusCommMng.c **** 		(void)PP_InitChSync(idChannel); 				/* TODO: check ret val */
 715:C:/Workspace/FW_Inertia/branch_indesit/ProductModules/PM_BusCOMM\BCP_BusCommMng.c **** 
 716:C:/Workspace/FW_Inertia/branch_indesit/ProductModules/PM_BusCOMM\BCP_BusCommMng.c **** 		/* physical channel initialization */
 717:C:/Workspace/FW_Inertia/branch_indesit/ProductModules/PM_BusCOMM\BCP_BusCommMng.c **** 		(void)(IO_PhyInitSync)(BCP_ChannelTable[idChannel].InitSync)(&drvParam);
 718:C:/Workspace/FW_Inertia/branch_indesit/ProductModules/PM_BusCOMM\BCP_BusCommMng.c **** 	}
 719:C:/Workspace/FW_Inertia/branch_indesit/ProductModules/PM_BusCOMM\BCP_BusCommMng.c ****     /* -fallthrough */
 720:C:/Workspace/FW_Inertia/branch_indesit/ProductModules/PM_BusCOMM\BCP_BusCommMng.c ****     case COMM_INIT:
 721:C:/Workspace/FW_Inertia/branch_indesit/ProductModules/PM_BusCOMM\BCP_BusCommMng.c **** 		DISABLE_TIMER;									/* disable timer */
 722:C:/Workspace/FW_Inertia/branch_indesit/ProductModules/PM_BusCOMM\BCP_BusCommMng.c **** 		pCommMng->flag.TxTimeout=0;
 723:C:/Workspace/FW_Inertia/branch_indesit/ProductModules/PM_BusCOMM\BCP_BusCommMng.c **** 		pCommMng->PendingReqState = COMM_IDLE;
 724:C:/Workspace/FW_Inertia/branch_indesit/ProductModules/PM_BusCOMM\BCP_BusCommMng.c **** 
 725:C:/Workspace/FW_Inertia/branch_indesit/ProductModules/PM_BusCOMM\BCP_BusCommMng.c ****     /* -fallthrough */
 726:C:/Workspace/FW_Inertia/branch_indesit/ProductModules/PM_BusCOMM\BCP_BusCommMng.c ****     case COMM_IDLE:
 727:C:/Workspace/FW_Inertia/branch_indesit/ProductModules/PM_BusCOMM\BCP_BusCommMng.c **** 
 728:C:/Workspace/FW_Inertia/branch_indesit/ProductModules/PM_BusCOMM\BCP_BusCommMng.c **** 		if ((pCommMng->flag.ReqPending == FALSE) ||
 729:C:/Workspace/FW_Inertia/branch_indesit/ProductModules/PM_BusCOMM\BCP_BusCommMng.c **** 			(pCommMng->flag.MasterDisable))
 730:C:/Workspace/FW_Inertia/branch_indesit/ProductModules/PM_BusCOMM\BCP_BusCommMng.c **** 		{
 731:C:/Workspace/FW_Inertia/branch_indesit/ProductModules/PM_BusCOMM\BCP_BusCommMng.c **** 			break;
 732:C:/Workspace/FW_Inertia/branch_indesit/ProductModules/PM_BusCOMM\BCP_BusCommMng.c **** 			/* exit because:
 733:C:/Workspace/FW_Inertia/branch_indesit/ProductModules/PM_BusCOMM\BCP_BusCommMng.c **** 			 * - no requests
 734:C:/Workspace/FW_Inertia/branch_indesit/ProductModules/PM_BusCOMM\BCP_BusCommMng.c **** 			 * - master disabled
 735:C:/Workspace/FW_Inertia/branch_indesit/ProductModules/PM_BusCOMM\BCP_BusCommMng.c **** 			 */
 736:C:/Workspace/FW_Inertia/branch_indesit/ProductModules/PM_BusCOMM\BCP_BusCommMng.c **** 		}
 737:C:/Workspace/FW_Inertia/branch_indesit/ProductModules/PM_BusCOMM\BCP_BusCommMng.c ****       /*  SET_TIMER_VAL(COMM_TIMEOUT); */
 738:C:/Workspace/FW_Inertia/branch_indesit/ProductModules/PM_BusCOMM\BCP_BusCommMng.c **** 
 739:C:/Workspace/FW_Inertia/branch_indesit/ProductModules/PM_BusCOMM\BCP_BusCommMng.c **** 	/* -fallthrough */
 740:C:/Workspace/FW_Inertia/branch_indesit/ProductModules/PM_BusCOMM\BCP_BusCommMng.c ****     case COMM_PHYSICAL_LAYER_ACCESS:
 741:C:/Workspace/FW_Inertia/branch_indesit/ProductModules/PM_BusCOMM\BCP_BusCommMng.c **** 		if ((bool_t)IS_TIMER_EXPIRED)
 742:C:/Workspace/FW_Inertia/branch_indesit/ProductModules/PM_BusCOMM\BCP_BusCommMng.c **** 		{
 743:C:/Workspace/FW_Inertia/branch_indesit/ProductModules/PM_BusCOMM\BCP_BusCommMng.c **** 			/* communication timeout has expired:
 744:C:/Workspace/FW_Inertia/branch_indesit/ProductModules/PM_BusCOMM\BCP_BusCommMng.c **** 			 * then unlock the peripheral
 745:C:/Workspace/FW_Inertia/branch_indesit/ProductModules/PM_BusCOMM\BCP_BusCommMng.c **** 			 */
 746:C:/Workspace/FW_Inertia/branch_indesit/ProductModules/PM_BusCOMM\BCP_BusCommMng.c **** 			if(pCommMng->flag.TxTimeout == 2)
 747:C:/Workspace/FW_Inertia/branch_indesit/ProductModules/PM_BusCOMM\BCP_BusCommMng.c **** 			{
 748:C:/Workspace/FW_Inertia/branch_indesit/ProductModules/PM_BusCOMM\BCP_BusCommMng.c **** 				pCommMng->PendingReqState = COMM_PERIPHERAL_INIT;
 749:C:/Workspace/FW_Inertia/branch_indesit/ProductModules/PM_BusCOMM\BCP_BusCommMng.c **** 				break;
 750:C:/Workspace/FW_Inertia/branch_indesit/ProductModules/PM_BusCOMM\BCP_BusCommMng.c **** 			}
 751:C:/Workspace/FW_Inertia/branch_indesit/ProductModules/PM_BusCOMM\BCP_BusCommMng.c **** 		}
 752:C:/Workspace/FW_Inertia/branch_indesit/ProductModules/PM_BusCOMM\BCP_BusCommMng.c **** 
 753:C:/Workspace/FW_Inertia/branch_indesit/ProductModules/PM_BusCOMM\BCP_BusCommMng.c **** 		if (pCommMng->Wait)
 754:C:/Workspace/FW_Inertia/branch_indesit/ProductModules/PM_BusCOMM\BCP_BusCommMng.c **** 		{
 755:C:/Workspace/FW_Inertia/branch_indesit/ProductModules/PM_BusCOMM\BCP_BusCommMng.c **** 			pCommMng->Wait--;
 756:C:/Workspace/FW_Inertia/branch_indesit/ProductModules/PM_BusCOMM\BCP_BusCommMng.c **** 			break;
 757:C:/Workspace/FW_Inertia/branch_indesit/ProductModules/PM_BusCOMM\BCP_BusCommMng.c **** 			/* exit because:
 758:C:/Workspace/FW_Inertia/branch_indesit/ProductModules/PM_BusCOMM\BCP_BusCommMng.c **** 			 * - requests pending
 759:C:/Workspace/FW_Inertia/branch_indesit/ProductModules/PM_BusCOMM\BCP_BusCommMng.c **** 			 * - slave is carrying on
 760:C:/Workspace/FW_Inertia/branch_indesit/ProductModules/PM_BusCOMM\BCP_BusCommMng.c **** 			 */
 761:C:/Workspace/FW_Inertia/branch_indesit/ProductModules/PM_BusCOMM\BCP_BusCommMng.c **** 		}
 762:C:/Workspace/FW_Inertia/branch_indesit/ProductModules/PM_BusCOMM\BCP_BusCommMng.c **** 
 763:C:/Workspace/FW_Inertia/branch_indesit/ProductModules/PM_BusCOMM\BCP_BusCommMng.c **** 		/*communication scheduler (lower array index means higher priority)*/
 764:C:/Workspace/FW_Inertia/branch_indesit/ProductModules/PM_BusCOMM\BCP_BusCommMng.c **** 		{
 765:C:/Workspace/FW_Inertia/branch_indesit/ProductModules/PM_BusCOMM\BCP_BusCommMng.c **** 			uint8_t i, noReq = TRUE;
 766:C:/Workspace/FW_Inertia/branch_indesit/ProductModules/PM_BusCOMM\BCP_BusCommMng.c **** 			IO_ChannelType indexReq;
 767:C:/Workspace/FW_Inertia/branch_indesit/ProductModules/PM_BusCOMM\BCP_BusCommMng.c **** 			IO_ChannelType idProtReq;
 768:C:/Workspace/FW_Inertia/branch_indesit/ProductModules/PM_BusCOMM\BCP_BusCommMng.c **** 
 769:C:/Workspace/FW_Inertia/branch_indesit/ProductModules/PM_BusCOMM\BCP_BusCommMng.c **** 			CommDriverParamType param={0};
 770:C:/Workspace/FW_Inertia/branch_indesit/ProductModules/PM_BusCOMM\BCP_BusCommMng.c **** 
 771:C:/Workspace/FW_Inertia/branch_indesit/ProductModules/PM_BusCOMM\BCP_BusCommMng.c **** 			for (i=0; i<sizeof(pCommMng->PacketReq); i++)
 772:C:/Workspace/FW_Inertia/branch_indesit/ProductModules/PM_BusCOMM\BCP_BusCommMng.c **** 			{
 773:C:/Workspace/FW_Inertia/branch_indesit/ProductModules/PM_BusCOMM\BCP_BusCommMng.c **** 				indexReq = pCommMng->PacketReq[i];
 774:C:/Workspace/FW_Inertia/branch_indesit/ProductModules/PM_BusCOMM\BCP_BusCommMng.c **** 				if ((indexReq > 0) && (indexReq < 0xFE))
 775:C:/Workspace/FW_Inertia/branch_indesit/ProductModules/PM_BusCOMM\BCP_BusCommMng.c **** 				{
 776:C:/Workspace/FW_Inertia/branch_indesit/ProductModules/PM_BusCOMM\BCP_BusCommMng.c **** 					noReq = FALSE;
 777:C:/Workspace/FW_Inertia/branch_indesit/ProductModules/PM_BusCOMM\BCP_BusCommMng.c **** 					break;  /* exit for-cycle */
 778:C:/Workspace/FW_Inertia/branch_indesit/ProductModules/PM_BusCOMM\BCP_BusCommMng.c **** 				}
 779:C:/Workspace/FW_Inertia/branch_indesit/ProductModules/PM_BusCOMM\BCP_BusCommMng.c **** 			}
 780:C:/Workspace/FW_Inertia/branch_indesit/ProductModules/PM_BusCOMM\BCP_BusCommMng.c **** 
 781:C:/Workspace/FW_Inertia/branch_indesit/ProductModules/PM_BusCOMM\BCP_BusCommMng.c **** 			if (noReq == TRUE)
 782:C:/Workspace/FW_Inertia/branch_indesit/ProductModules/PM_BusCOMM\BCP_BusCommMng.c **** 			{
 783:C:/Workspace/FW_Inertia/branch_indesit/ProductModules/PM_BusCOMM\BCP_BusCommMng.c **** 				pCommMng->flag.ReqPending = FALSE;
 784:C:/Workspace/FW_Inertia/branch_indesit/ProductModules/PM_BusCOMM\BCP_BusCommMng.c **** 				pCommMng->PendingReqState= COMM_IDLE;
 785:C:/Workspace/FW_Inertia/branch_indesit/ProductModules/PM_BusCOMM\BCP_BusCommMng.c **** 				pCommMng->PacketReqCurrentIndex = 0xFF;
 786:C:/Workspace/FW_Inertia/branch_indesit/ProductModules/PM_BusCOMM\BCP_BusCommMng.c **** 				pCommMng->CurrentOption = 0;
 787:C:/Workspace/FW_Inertia/branch_indesit/ProductModules/PM_BusCOMM\BCP_BusCommMng.c **** 				break;   /* exit case COMM_PHYSICAL_LAYER_ACCESS */
 788:C:/Workspace/FW_Inertia/branch_indesit/ProductModules/PM_BusCOMM\BCP_BusCommMng.c **** 			}
 789:C:/Workspace/FW_Inertia/branch_indesit/ProductModules/PM_BusCOMM\BCP_BusCommMng.c **** 			/* prepare request*/
 790:C:/Workspace/FW_Inertia/branch_indesit/ProductModules/PM_BusCOMM\BCP_BusCommMng.c **** 
 791:C:/Workspace/FW_Inertia/branch_indesit/ProductModules/PM_BusCOMM\BCP_BusCommMng.c **** 
 792:C:/Workspace/FW_Inertia/branch_indesit/ProductModules/PM_BusCOMM\BCP_BusCommMng.c **** 			indexReq = i;
 793:C:/Workspace/FW_Inertia/branch_indesit/ProductModules/PM_BusCOMM\BCP_BusCommMng.c **** 
 794:C:/Workspace/FW_Inertia/branch_indesit/ProductModules/PM_BusCOMM\BCP_BusCommMng.c **** 			/* update the current idBoard */
 795:C:/Workspace/FW_Inertia/branch_indesit/ProductModules/PM_BusCOMM\BCP_BusCommMng.c **** 			pCommMng->idBoard = BCM_MasterRequestTable[indexReq].idBoard;
 796:C:/Workspace/FW_Inertia/branch_indesit/ProductModules/PM_BusCOMM\BCP_BusCommMng.c **** 			/* id Protocol Request */
 797:C:/Workspace/FW_Inertia/branch_indesit/ProductModules/PM_BusCOMM\BCP_BusCommMng.c **** 			idProtReq = BCM_MasterRequestTable[indexReq].PPReqIndex;
 798:C:/Workspace/FW_Inertia/branch_indesit/ProductModules/PM_BusCOMM\BCP_BusCommMng.c **** 
 799:C:/Workspace/FW_Inertia/branch_indesit/ProductModules/PM_BusCOMM\BCP_BusCommMng.c **** #ifdef CP_PRE_BUILD_REQUEST_CB
 800:C:/Workspace/FW_Inertia/branch_indesit/ProductModules/PM_BusCOMM\BCP_BusCommMng.c **** 			if(CP_PRE_BUILD_REQUEST_CB(idChannel, (PP_MasterProtocolTableType *) &PP_MasterProtocolTable[idP
 801:C:/Workspace/FW_Inertia/branch_indesit/ProductModules/PM_BusCOMM\BCP_BusCommMng.c **** 			{
 802:C:/Workspace/FW_Inertia/branch_indesit/ProductModules/PM_BusCOMM\BCP_BusCommMng.c **** 				pCommMng->flag.DontValidate=1;
 803:C:/Workspace/FW_Inertia/branch_indesit/ProductModules/PM_BusCOMM\BCP_BusCommMng.c **** 				pCommMng->PacketReqCurrentIndex=indexReq;			
 804:C:/Workspace/FW_Inertia/branch_indesit/ProductModules/PM_BusCOMM\BCP_BusCommMng.c **** 			}
 805:C:/Workspace/FW_Inertia/branch_indesit/ProductModules/PM_BusCOMM\BCP_BusCommMng.c **** 			else
 806:C:/Workspace/FW_Inertia/branch_indesit/ProductModules/PM_BusCOMM\BCP_BusCommMng.c **** #endif
 807:C:/Workspace/FW_Inertia/branch_indesit/ProductModules/PM_BusCOMM\BCP_BusCommMng.c **** 			{
 808:C:/Workspace/FW_Inertia/branch_indesit/ProductModules/PM_BusCOMM\BCP_BusCommMng.c **** 			    pCommMng->flag.DontValidate=0;
 809:C:/Workspace/FW_Inertia/branch_indesit/ProductModules/PM_BusCOMM\BCP_BusCommMng.c **** 				/* Prepare request parameters */
 810:C:/Workspace/FW_Inertia/branch_indesit/ProductModules/PM_BusCOMM\BCP_BusCommMng.c **** 				(void)PP_MasterPrepareRequest(idProtReq, idChannel, &param);
 811:C:/Workspace/FW_Inertia/branch_indesit/ProductModules/PM_BusCOMM\BCP_BusCommMng.c **** 
 812:C:/Workspace/FW_Inertia/branch_indesit/ProductModules/PM_BusCOMM\BCP_BusCommMng.c **** 				if( (pCommMng->PacketReqCurrentIndex == 0xFF) ||   			/* current request empty */
 813:C:/Workspace/FW_Inertia/branch_indesit/ProductModules/PM_BusCOMM\BCP_BusCommMng.c **** 					(pCommMng->PacketReqCurrentIndex != indexReq)	||		/* current request changed */
 814:C:/Workspace/FW_Inertia/branch_indesit/ProductModules/PM_BusCOMM\BCP_BusCommMng.c **** 					(pCommMng->flag.Rebuild)
 815:C:/Workspace/FW_Inertia/branch_indesit/ProductModules/PM_BusCOMM\BCP_BusCommMng.c **** 				)
 816:C:/Workspace/FW_Inertia/branch_indesit/ProductModules/PM_BusCOMM\BCP_BusCommMng.c **** 				{
 817:C:/Workspace/FW_Inertia/branch_indesit/ProductModules/PM_BusCOMM\BCP_BusCommMng.c **** 					/* build is request */
 818:C:/Workspace/FW_Inertia/branch_indesit/ProductModules/PM_BusCOMM\BCP_BusCommMng.c **** 
 819:C:/Workspace/FW_Inertia/branch_indesit/ProductModules/PM_BusCOMM\BCP_BusCommMng.c **** 					pCommMng->PacketReqCurrentIndex=indexReq;
 820:C:/Workspace/FW_Inertia/branch_indesit/ProductModules/PM_BusCOMM\BCP_BusCommMng.c **** 
 821:C:/Workspace/FW_Inertia/branch_indesit/ProductModules/PM_BusCOMM\BCP_BusCommMng.c **** 					pCommMng->CurrentOption = (&PP_MasterProtocolTable[idProtReq])->option;
 822:C:/Workspace/FW_Inertia/branch_indesit/ProductModules/PM_BusCOMM\BCP_BusCommMng.c **** 					pCommMng->flag.TxTimeout=0;
 823:C:/Workspace/FW_Inertia/branch_indesit/ProductModules/PM_BusCOMM\BCP_BusCommMng.c **** 					pCommMng->flag.Rebuild=0;
 824:C:/Workspace/FW_Inertia/branch_indesit/ProductModules/PM_BusCOMM\BCP_BusCommMng.c **** 					DISABLE_TIMER;
 825:C:/Workspace/FW_Inertia/branch_indesit/ProductModules/PM_BusCOMM\BCP_BusCommMng.c **** 
 826:C:/Workspace/FW_Inertia/branch_indesit/ProductModules/PM_BusCOMM\BCP_BusCommMng.c **** 
 827:C:/Workspace/FW_Inertia/branch_indesit/ProductModules/PM_BusCOMM\BCP_BusCommMng.c **** 					(void)PP_PrepareRequest(param.buffer, &PP_MasterProtocolTable[idProtReq]);
 828:C:/Workspace/FW_Inertia/branch_indesit/ProductModules/PM_BusCOMM\BCP_BusCommMng.c **** 				}
 829:C:/Workspace/FW_Inertia/branch_indesit/ProductModules/PM_BusCOMM\BCP_BusCommMng.c **** 				else 																/* build is not request */
 830:C:/Workspace/FW_Inertia/branch_indesit/ProductModules/PM_BusCOMM\BCP_BusCommMng.c **** 				if (pCommMng->flag.TxTimeout == 3)
 831:C:/Workspace/FW_Inertia/branch_indesit/ProductModules/PM_BusCOMM\BCP_BusCommMng.c **** 				{
 832:C:/Workspace/FW_Inertia/branch_indesit/ProductModules/PM_BusCOMM\BCP_BusCommMng.c **** 					if(IS_TIMER_NOT_EXPIRED)		/* Timer is not expired */
 833:C:/Workspace/FW_Inertia/branch_indesit/ProductModules/PM_BusCOMM\BCP_BusCommMng.c **** 					{
 834:C:/Workspace/FW_Inertia/branch_indesit/ProductModules/PM_BusCOMM\BCP_BusCommMng.c **** 						break;
 835:C:/Workspace/FW_Inertia/branch_indesit/ProductModules/PM_BusCOMM\BCP_BusCommMng.c **** 					}
 836:C:/Workspace/FW_Inertia/branch_indesit/ProductModules/PM_BusCOMM\BCP_BusCommMng.c **** 					else
 837:C:/Workspace/FW_Inertia/branch_indesit/ProductModules/PM_BusCOMM\BCP_BusCommMng.c **** 					{
 838:C:/Workspace/FW_Inertia/branch_indesit/ProductModules/PM_BusCOMM\BCP_BusCommMng.c **** 						pCommMng->flag.TxTimeout = 0;
 839:C:/Workspace/FW_Inertia/branch_indesit/ProductModules/PM_BusCOMM\BCP_BusCommMng.c **** 					}
 840:C:/Workspace/FW_Inertia/branch_indesit/ProductModules/PM_BusCOMM\BCP_BusCommMng.c **** 				}
 841:C:/Workspace/FW_Inertia/branch_indesit/ProductModules/PM_BusCOMM\BCP_BusCommMng.c **** 
 842:C:/Workspace/FW_Inertia/branch_indesit/ProductModules/PM_BusCOMM\BCP_BusCommMng.c **** 				/* calculate length */
 843:C:/Workspace/FW_Inertia/branch_indesit/ProductModules/PM_BusCOMM\BCP_BusCommMng.c **** 				param.len = PP_GetRequestLen(param.buffer, (PP_MasterProtocolTableType *) &PP_MasterProtocolTab
 844:C:/Workspace/FW_Inertia/branch_indesit/ProductModules/PM_BusCOMM\BCP_BusCommMng.c **** 
 845:C:/Workspace/FW_Inertia/branch_indesit/ProductModules/PM_BusCOMM\BCP_BusCommMng.c **** 				/* address resolution*/
 846:C:/Workspace/FW_Inertia/branch_indesit/ProductModules/PM_BusCOMM\BCP_BusCommMng.c **** 				param.slaveAddress =  PP_GetSlaveAddress(pCommMng->idBoard, (PP_MasterProtocolTableType *) &PP_
 847:C:/Workspace/FW_Inertia/branch_indesit/ProductModules/PM_BusCOMM\BCP_BusCommMng.c **** 
 848:C:/Workspace/FW_Inertia/branch_indesit/ProductModules/PM_BusCOMM\BCP_BusCommMng.c **** 				/* Start driver request*/
 849:C:/Workspace/FW_Inertia/branch_indesit/ProductModules/PM_BusCOMM\BCP_BusCommMng.c **** 				if ( (PP_StartDriverRequestSync(idChannel, &param) != (IO_ErrorType)IO_E_WORKING) || (pCommMng-
 850:C:/Workspace/FW_Inertia/branch_indesit/ProductModules/PM_BusCOMM\BCP_BusCommMng.c **** 				{
 851:C:/Workspace/FW_Inertia/branch_indesit/ProductModules/PM_BusCOMM\BCP_BusCommMng.c **** 					if( pCommMng->CurrentOption & PRT_OPTION_TIMEOUTED )
 852:C:/Workspace/FW_Inertia/branch_indesit/ProductModules/PM_BusCOMM\BCP_BusCommMng.c ****         			{
 853:C:/Workspace/FW_Inertia/branch_indesit/ProductModules/PM_BusCOMM\BCP_BusCommMng.c ****         				if( pCommMng->flag.TxTimeout != 1 )
 854:C:/Workspace/FW_Inertia/branch_indesit/ProductModules/PM_BusCOMM\BCP_BusCommMng.c ****         				{
 855:C:/Workspace/FW_Inertia/branch_indesit/ProductModules/PM_BusCOMM\BCP_BusCommMng.c **** 
 856:C:/Workspace/FW_Inertia/branch_indesit/ProductModules/PM_BusCOMM\BCP_BusCommMng.c ****         					SET_TIMER_VAL(CP_MASTER_ATTEMPTS_TIMEOUT);
 857:C:/Workspace/FW_Inertia/branch_indesit/ProductModules/PM_BusCOMM\BCP_BusCommMng.c ****         					/* timeout started */
 858:C:/Workspace/FW_Inertia/branch_indesit/ProductModules/PM_BusCOMM\BCP_BusCommMng.c ****         					pCommMng->flag.TxTimeout = 1;
 859:C:/Workspace/FW_Inertia/branch_indesit/ProductModules/PM_BusCOMM\BCP_BusCommMng.c ****         				}
 860:C:/Workspace/FW_Inertia/branch_indesit/ProductModules/PM_BusCOMM\BCP_BusCommMng.c **** 
 861:C:/Workspace/FW_Inertia/branch_indesit/ProductModules/PM_BusCOMM\BCP_BusCommMng.c ****         				if (IS_TIMER_EXPIRED)
 862:C:/Workspace/FW_Inertia/branch_indesit/ProductModules/PM_BusCOMM\BCP_BusCommMng.c ****         				{
 863:C:/Workspace/FW_Inertia/branch_indesit/ProductModules/PM_BusCOMM\BCP_BusCommMng.c ****         					pCommMng->PendingReqState = COMM_PERIPHERAL_INIT;
 864:C:/Workspace/FW_Inertia/branch_indesit/ProductModules/PM_BusCOMM\BCP_BusCommMng.c ****         					pCommMng->PacketReq[pCommMng->PacketReqCurrentIndex] = CP_REQ_TIMEOUT_KO;
 865:C:/Workspace/FW_Inertia/branch_indesit/ProductModules/PM_BusCOMM\BCP_BusCommMng.c ****         					pCommMng->PacketReqCurrentIndex = 0xFF;
 866:C:/Workspace/FW_Inertia/branch_indesit/ProductModules/PM_BusCOMM\BCP_BusCommMng.c ****         				} else
 867:C:/Workspace/FW_Inertia/branch_indesit/ProductModules/PM_BusCOMM\BCP_BusCommMng.c ****         				{
 868:C:/Workspace/FW_Inertia/branch_indesit/ProductModules/PM_BusCOMM\BCP_BusCommMng.c ****         					pCommMng->PendingReqState = COMM_PHYSICAL_LAYER_ACCESS;
 869:C:/Workspace/FW_Inertia/branch_indesit/ProductModules/PM_BusCOMM\BCP_BusCommMng.c ****         				}
 870:C:/Workspace/FW_Inertia/branch_indesit/ProductModules/PM_BusCOMM\BCP_BusCommMng.c ****         			}
 871:C:/Workspace/FW_Inertia/branch_indesit/ProductModules/PM_BusCOMM\BCP_BusCommMng.c **** 										
 872:C:/Workspace/FW_Inertia/branch_indesit/ProductModules/PM_BusCOMM\BCP_BusCommMng.c **** 					break;  /* bus busy, exit retry next loop */
 873:C:/Workspace/FW_Inertia/branch_indesit/ProductModules/PM_BusCOMM\BCP_BusCommMng.c **** 				}
 874:C:/Workspace/FW_Inertia/branch_indesit/ProductModules/PM_BusCOMM\BCP_BusCommMng.c **** 				else
 875:C:/Workspace/FW_Inertia/branch_indesit/ProductModules/PM_BusCOMM\BCP_BusCommMng.c **** 				{
 876:C:/Workspace/FW_Inertia/branch_indesit/ProductModules/PM_BusCOMM\BCP_BusCommMng.c **** 					BCM_CountersUpdater(idChannel, BCP_PACKET_NUM_ALL_CNT);
 877:C:/Workspace/FW_Inertia/branch_indesit/ProductModules/PM_BusCOMM\BCP_BusCommMng.c **** 				}
 878:C:/Workspace/FW_Inertia/branch_indesit/ProductModules/PM_BusCOMM\BCP_BusCommMng.c **** 
 879:C:/Workspace/FW_Inertia/branch_indesit/ProductModules/PM_BusCOMM\BCP_BusCommMng.c **** 				/* request successfully started */
 880:C:/Workspace/FW_Inertia/branch_indesit/ProductModules/PM_BusCOMM\BCP_BusCommMng.c **** 
 881:C:/Workspace/FW_Inertia/branch_indesit/ProductModules/PM_BusCOMM\BCP_BusCommMng.c **** 
 882:C:/Workspace/FW_Inertia/branch_indesit/ProductModules/PM_BusCOMM\BCP_BusCommMng.c **** 				if(!pCommMng->flag.TxTimeout)
 883:C:/Workspace/FW_Inertia/branch_indesit/ProductModules/PM_BusCOMM\BCP_BusCommMng.c **** 				{
 884:C:/Workspace/FW_Inertia/branch_indesit/ProductModules/PM_BusCOMM\BCP_BusCommMng.c **** 					/* Start timeout if not already running */
 885:C:/Workspace/FW_Inertia/branch_indesit/ProductModules/PM_BusCOMM\BCP_BusCommMng.c **** 					SET_TIMER_VAL(CP_MASTER_TIMEOUT_REQUEST);
 886:C:/Workspace/FW_Inertia/branch_indesit/ProductModules/PM_BusCOMM\BCP_BusCommMng.c **** 					pCommMng->flag.TxTimeout=2;
 887:C:/Workspace/FW_Inertia/branch_indesit/ProductModules/PM_BusCOMM\BCP_BusCommMng.c **** 				}
 888:C:/Workspace/FW_Inertia/branch_indesit/ProductModules/PM_BusCOMM\BCP_BusCommMng.c **** 			}
 889:C:/Workspace/FW_Inertia/branch_indesit/ProductModules/PM_BusCOMM\BCP_BusCommMng.c **** 			/*next loop wait for result */
 890:C:/Workspace/FW_Inertia/branch_indesit/ProductModules/PM_BusCOMM\BCP_BusCommMng.c **** 
 891:C:/Workspace/FW_Inertia/branch_indesit/ProductModules/PM_BusCOMM\BCP_BusCommMng.c **** 			if (pCommMng->flag.Rebuild == 0)
 892:C:/Workspace/FW_Inertia/branch_indesit/ProductModules/PM_BusCOMM\BCP_BusCommMng.c **** 			{
 893:C:/Workspace/FW_Inertia/branch_indesit/ProductModules/PM_BusCOMM\BCP_BusCommMng.c **** 				pCommMng->PendingReqState=COMM_PHYSICAL_LAYER_MNG;
 894:C:/Workspace/FW_Inertia/branch_indesit/ProductModules/PM_BusCOMM\BCP_BusCommMng.c **** 			}
 895:C:/Workspace/FW_Inertia/branch_indesit/ProductModules/PM_BusCOMM\BCP_BusCommMng.c **** 		}
 896:C:/Workspace/FW_Inertia/branch_indesit/ProductModules/PM_BusCOMM\BCP_BusCommMng.c **** 	/* -fallthrough */
 897:C:/Workspace/FW_Inertia/branch_indesit/ProductModules/PM_BusCOMM\BCP_BusCommMng.c **** 	case COMM_PHYSICAL_LAYER_MNG:		
 898:C:/Workspace/FW_Inertia/branch_indesit/ProductModules/PM_BusCOMM\BCP_BusCommMng.c **** 		
 899:C:/Workspace/FW_Inertia/branch_indesit/ProductModules/PM_BusCOMM\BCP_BusCommMng.c **** 		
 900:C:/Workspace/FW_Inertia/branch_indesit/ProductModules/PM_BusCOMM\BCP_BusCommMng.c **** 		switch (PP_GetEsit(idChannel))
 901:C:/Workspace/FW_Inertia/branch_indesit/ProductModules/PM_BusCOMM\BCP_BusCommMng.c **** 		{
 902:C:/Workspace/FW_Inertia/branch_indesit/ProductModules/PM_BusCOMM\BCP_BusCommMng.c **** 			/* Protocol Errors */
 903:C:/Workspace/FW_Inertia/branch_indesit/ProductModules/PM_BusCOMM\BCP_BusCommMng.c **** 		case IO_E_ACK_PP:
 904:C:/Workspace/FW_Inertia/branch_indesit/ProductModules/PM_BusCOMM\BCP_BusCommMng.c **** 		    PP_MasterValidateAnswer(idChannel);
 905:C:/Workspace/FW_Inertia/branch_indesit/ProductModules/PM_BusCOMM\BCP_BusCommMng.c **** 			pCommMng->PacketReq[pCommMng->PacketReqCurrentIndex] = CP_REQ_COMPLETED_KO;
 906:C:/Workspace/FW_Inertia/branch_indesit/ProductModules/PM_BusCOMM\BCP_BusCommMng.c **** 			pCommMng->PendingReqState = COMM_IDLE;
 907:C:/Workspace/FW_Inertia/branch_indesit/ProductModules/PM_BusCOMM\BCP_BusCommMng.c **** 			pCommMng->PacketReqCurrentIndex=0xFF;
 908:C:/Workspace/FW_Inertia/branch_indesit/ProductModules/PM_BusCOMM\BCP_BusCommMng.c ****     		pCommMng->flag.TxTimeout = 0;
 909:C:/Workspace/FW_Inertia/branch_indesit/ProductModules/PM_BusCOMM\BCP_BusCommMng.c **** 			BCM_OnRequestCompleted(idChannel);
 910:C:/Workspace/FW_Inertia/branch_indesit/ProductModules/PM_BusCOMM\BCP_BusCommMng.c ****     	break;
 911:C:/Workspace/FW_Inertia/branch_indesit/ProductModules/PM_BusCOMM\BCP_BusCommMng.c **** 	
 912:C:/Workspace/FW_Inertia/branch_indesit/ProductModules/PM_BusCOMM\BCP_BusCommMng.c **** 		case IO_E_OK:
 913:C:/Workspace/FW_Inertia/branch_indesit/ProductModules/PM_BusCOMM\BCP_BusCommMng.c **** 		{	
 914:C:/Workspace/FW_Inertia/branch_indesit/ProductModules/PM_BusCOMM\BCP_BusCommMng.c **** 		    IO_ErrorType err = IO_E_OK;
 915:C:/Workspace/FW_Inertia/branch_indesit/ProductModules/PM_BusCOMM\BCP_BusCommMng.c **** 		    if(pCommMng->flag.DontValidate==1)
 916:C:/Workspace/FW_Inertia/branch_indesit/ProductModules/PM_BusCOMM\BCP_BusCommMng.c **** 		    {
 917:C:/Workspace/FW_Inertia/branch_indesit/ProductModules/PM_BusCOMM\BCP_BusCommMng.c **** 		        err = IO_E_OK;
 918:C:/Workspace/FW_Inertia/branch_indesit/ProductModules/PM_BusCOMM\BCP_BusCommMng.c **** 		    } else
 919:C:/Workspace/FW_Inertia/branch_indesit/ProductModules/PM_BusCOMM\BCP_BusCommMng.c **** 		    {
 920:C:/Workspace/FW_Inertia/branch_indesit/ProductModules/PM_BusCOMM\BCP_BusCommMng.c **** 		        err = PP_MasterValidateAnswer(idChannel);
 921:C:/Workspace/FW_Inertia/branch_indesit/ProductModules/PM_BusCOMM\BCP_BusCommMng.c **** 		    }
 922:C:/Workspace/FW_Inertia/branch_indesit/ProductModules/PM_BusCOMM\BCP_BusCommMng.c **** 		    
 923:C:/Workspace/FW_Inertia/branch_indesit/ProductModules/PM_BusCOMM\BCP_BusCommMng.c **** 		    if((IO_E_OK == err ) || (IO_E_ACK_PP == err ) )
 924:C:/Workspace/FW_Inertia/branch_indesit/ProductModules/PM_BusCOMM\BCP_BusCommMng.c ****  		    {
 925:C:/Workspace/FW_Inertia/branch_indesit/ProductModules/PM_BusCOMM\BCP_BusCommMng.c ****  		    
 926:C:/Workspace/FW_Inertia/branch_indesit/ProductModules/PM_BusCOMM\BCP_BusCommMng.c ****  		        if(IO_E_OK == err )
 927:C:/Workspace/FW_Inertia/branch_indesit/ProductModules/PM_BusCOMM\BCP_BusCommMng.c ****  		        {
 928:C:/Workspace/FW_Inertia/branch_indesit/ProductModules/PM_BusCOMM\BCP_BusCommMng.c ****  		            pCommMng->PacketReq[pCommMng->PacketReqCurrentIndex] = CP_REQ_COMPLETED_OK;    
 929:C:/Workspace/FW_Inertia/branch_indesit/ProductModules/PM_BusCOMM\BCP_BusCommMng.c ****  		        } else if(IO_E_ACK_PP == err )
 930:C:/Workspace/FW_Inertia/branch_indesit/ProductModules/PM_BusCOMM\BCP_BusCommMng.c ****  		        {
 931:C:/Workspace/FW_Inertia/branch_indesit/ProductModules/PM_BusCOMM\BCP_BusCommMng.c ****  		            pCommMng->PacketReq[pCommMng->PacketReqCurrentIndex] = CP_REQ_COMPLETED_KO;
 932:C:/Workspace/FW_Inertia/branch_indesit/ProductModules/PM_BusCOMM\BCP_BusCommMng.c ****  		        }
 933:C:/Workspace/FW_Inertia/branch_indesit/ProductModules/PM_BusCOMM\BCP_BusCommMng.c ****   		        
 934:C:/Workspace/FW_Inertia/branch_indesit/ProductModules/PM_BusCOMM\BCP_BusCommMng.c ****     			pCommMng->PacketReqCurrentIndex=0xFF;
 935:C:/Workspace/FW_Inertia/branch_indesit/ProductModules/PM_BusCOMM\BCP_BusCommMng.c ****     			pCommMng->flag.TxTimeout = 0;
 936:C:/Workspace/FW_Inertia/branch_indesit/ProductModules/PM_BusCOMM\BCP_BusCommMng.c ****     			pCommMng->PendingReqState = COMM_IDLE;
 937:C:/Workspace/FW_Inertia/branch_indesit/ProductModules/PM_BusCOMM\BCP_BusCommMng.c ****     			
 938:C:/Workspace/FW_Inertia/branch_indesit/ProductModules/PM_BusCOMM\BCP_BusCommMng.c ****     			BCM_OnRequestCompleted(idChannel);
 939:C:/Workspace/FW_Inertia/branch_indesit/ProductModules/PM_BusCOMM\BCP_BusCommMng.c ****     			
 940:C:/Workspace/FW_Inertia/branch_indesit/ProductModules/PM_BusCOMM\BCP_BusCommMng.c ****     			DISABLE_TIMER;
 941:C:/Workspace/FW_Inertia/branch_indesit/ProductModules/PM_BusCOMM\BCP_BusCommMng.c ****     			break;
 942:C:/Workspace/FW_Inertia/branch_indesit/ProductModules/PM_BusCOMM\BCP_BusCommMng.c **** 		    }
 943:C:/Workspace/FW_Inertia/branch_indesit/ProductModules/PM_BusCOMM\BCP_BusCommMng.c **** 		    /* else IO_E_CHECK_PP is returned, then */
 944:C:/Workspace/FW_Inertia/branch_indesit/ProductModules/PM_BusCOMM\BCP_BusCommMng.c **** 		}
 945:C:/Workspace/FW_Inertia/branch_indesit/ProductModules/PM_BusCOMM\BCP_BusCommMng.c ****         case IO_E_CHECK_PP:
 946:C:/Workspace/FW_Inertia/branch_indesit/ProductModules/PM_BusCOMM\BCP_BusCommMng.c ****             pCommMng->flag.Rebuild=1;
 947:C:/Workspace/FW_Inertia/branch_indesit/ProductModules/PM_BusCOMM\BCP_BusCommMng.c ****             BCM_OnRequestCompleted(idChannel);
 948:C:/Workspace/FW_Inertia/branch_indesit/ProductModules/PM_BusCOMM\BCP_BusCommMng.c **** 		/* Peripheral Errors */
 949:C:/Workspace/FW_Inertia/branch_indesit/ProductModules/PM_BusCOMM\BCP_BusCommMng.c **** 		case IO_E_OV_AL:
 950:C:/Workspace/FW_Inertia/branch_indesit/ProductModules/PM_BusCOMM\BCP_BusCommMng.c **** 		case IO_E_ACK_BUS:
 951:C:/Workspace/FW_Inertia/branch_indesit/ProductModules/PM_BusCOMM\BCP_BusCommMng.c **** 
 952:C:/Workspace/FW_Inertia/branch_indesit/ProductModules/PM_BusCOMM\BCP_BusCommMng.c **** 			if( !(pCommMng->CurrentOption & PRT_OPTION_TIMEOUTED) )
 953:C:/Workspace/FW_Inertia/branch_indesit/ProductModules/PM_BusCOMM\BCP_BusCommMng.c **** 			{
 954:C:/Workspace/FW_Inertia/branch_indesit/ProductModules/PM_BusCOMM\BCP_BusCommMng.c **** 				pCommMng->PendingReqState = COMM_REPETITION_MNG;
 955:C:/Workspace/FW_Inertia/branch_indesit/ProductModules/PM_BusCOMM\BCP_BusCommMng.c **** 				break;
 956:C:/Workspace/FW_Inertia/branch_indesit/ProductModules/PM_BusCOMM\BCP_BusCommMng.c **** 			}
 957:C:/Workspace/FW_Inertia/branch_indesit/ProductModules/PM_BusCOMM\BCP_BusCommMng.c **** 		/* Peripheral Busy */
 958:C:/Workspace/FW_Inertia/branch_indesit/ProductModules/PM_BusCOMM\BCP_BusCommMng.c **** 		case IO_E_BUSY:
 959:C:/Workspace/FW_Inertia/branch_indesit/ProductModules/PM_BusCOMM\BCP_BusCommMng.c **** 			if( pCommMng->CurrentOption & PRT_OPTION_TIMEOUTED )
 960:C:/Workspace/FW_Inertia/branch_indesit/ProductModules/PM_BusCOMM\BCP_BusCommMng.c **** 			{
 961:C:/Workspace/FW_Inertia/branch_indesit/ProductModules/PM_BusCOMM\BCP_BusCommMng.c **** 				if( pCommMng->flag.TxTimeout != 1 )
 962:C:/Workspace/FW_Inertia/branch_indesit/ProductModules/PM_BusCOMM\BCP_BusCommMng.c **** 				{
 963:C:/Workspace/FW_Inertia/branch_indesit/ProductModules/PM_BusCOMM\BCP_BusCommMng.c **** 
 964:C:/Workspace/FW_Inertia/branch_indesit/ProductModules/PM_BusCOMM\BCP_BusCommMng.c **** 					SET_TIMER_VAL(CP_MASTER_ATTEMPTS_TIMEOUT);
 965:C:/Workspace/FW_Inertia/branch_indesit/ProductModules/PM_BusCOMM\BCP_BusCommMng.c **** 					/* timeout started */
 966:C:/Workspace/FW_Inertia/branch_indesit/ProductModules/PM_BusCOMM\BCP_BusCommMng.c **** 					pCommMng->flag.TxTimeout = 1;
 967:C:/Workspace/FW_Inertia/branch_indesit/ProductModules/PM_BusCOMM\BCP_BusCommMng.c **** 				}
 968:C:/Workspace/FW_Inertia/branch_indesit/ProductModules/PM_BusCOMM\BCP_BusCommMng.c **** 
 969:C:/Workspace/FW_Inertia/branch_indesit/ProductModules/PM_BusCOMM\BCP_BusCommMng.c **** 				if (IS_TIMER_EXPIRED)
 970:C:/Workspace/FW_Inertia/branch_indesit/ProductModules/PM_BusCOMM\BCP_BusCommMng.c **** 				{
 971:C:/Workspace/FW_Inertia/branch_indesit/ProductModules/PM_BusCOMM\BCP_BusCommMng.c **** 					pCommMng->PendingReqState = COMM_PERIPHERAL_INIT;
 972:C:/Workspace/FW_Inertia/branch_indesit/ProductModules/PM_BusCOMM\BCP_BusCommMng.c **** 					pCommMng->PacketReq[pCommMng->PacketReqCurrentIndex] = CP_REQ_TIMEOUT_KO;
 973:C:/Workspace/FW_Inertia/branch_indesit/ProductModules/PM_BusCOMM\BCP_BusCommMng.c **** 					pCommMng->PacketReqCurrentIndex = 0xFF;
 974:C:/Workspace/FW_Inertia/branch_indesit/ProductModules/PM_BusCOMM\BCP_BusCommMng.c **** 				} else
 975:C:/Workspace/FW_Inertia/branch_indesit/ProductModules/PM_BusCOMM\BCP_BusCommMng.c **** 				{
 976:C:/Workspace/FW_Inertia/branch_indesit/ProductModules/PM_BusCOMM\BCP_BusCommMng.c **** 					pCommMng->PendingReqState = COMM_PHYSICAL_LAYER_ACCESS;
 977:C:/Workspace/FW_Inertia/branch_indesit/ProductModules/PM_BusCOMM\BCP_BusCommMng.c **** 				}
 978:C:/Workspace/FW_Inertia/branch_indesit/ProductModules/PM_BusCOMM\BCP_BusCommMng.c **** 			}
 979:C:/Workspace/FW_Inertia/branch_indesit/ProductModules/PM_BusCOMM\BCP_BusCommMng.c **** 			else
 980:C:/Workspace/FW_Inertia/branch_indesit/ProductModules/PM_BusCOMM\BCP_BusCommMng.c **** 			{
 981:C:/Workspace/FW_Inertia/branch_indesit/ProductModules/PM_BusCOMM\BCP_BusCommMng.c **** 				pCommMng->PendingReqState=COMM_IDLE;
 982:C:/Workspace/FW_Inertia/branch_indesit/ProductModules/PM_BusCOMM\BCP_BusCommMng.c **** 			}
 983:C:/Workspace/FW_Inertia/branch_indesit/ProductModules/PM_BusCOMM\BCP_BusCommMng.c **** 		break;
 984:C:/Workspace/FW_Inertia/branch_indesit/ProductModules/PM_BusCOMM\BCP_BusCommMng.c **** 		/* working good */
 985:C:/Workspace/FW_Inertia/branch_indesit/ProductModules/PM_BusCOMM\BCP_BusCommMng.c **** 		case IO_E_WORKING:
 986:C:/Workspace/FW_Inertia/branch_indesit/ProductModules/PM_BusCOMM\BCP_BusCommMng.c **** 		default:
 987:C:/Workspace/FW_Inertia/branch_indesit/ProductModules/PM_BusCOMM\BCP_BusCommMng.c **** 		  /* test if comm timeout has expired */
 988:C:/Workspace/FW_Inertia/branch_indesit/ProductModules/PM_BusCOMM\BCP_BusCommMng.c **** 
 989:C:/Workspace/FW_Inertia/branch_indesit/ProductModules/PM_BusCOMM\BCP_BusCommMng.c **** 			if (IS_TIMER_EXPIRED)
 990:C:/Workspace/FW_Inertia/branch_indesit/ProductModules/PM_BusCOMM\BCP_BusCommMng.c **** 			{
 991:C:/Workspace/FW_Inertia/branch_indesit/ProductModules/PM_BusCOMM\BCP_BusCommMng.c **** 				/*comm timeout has expired: reason could be the slave or anomalous behavior of the bus
 992:C:/Workspace/FW_Inertia/branch_indesit/ProductModules/PM_BusCOMM\BCP_BusCommMng.c **** 				* unlock the peripheral */
 993:C:/Workspace/FW_Inertia/branch_indesit/ProductModules/PM_BusCOMM\BCP_BusCommMng.c **** 				pCommMng->PendingReqState = COMM_PERIPHERAL_INIT;
 994:C:/Workspace/FW_Inertia/branch_indesit/ProductModules/PM_BusCOMM\BCP_BusCommMng.c **** 
 995:C:/Workspace/FW_Inertia/branch_indesit/ProductModules/PM_BusCOMM\BCP_BusCommMng.c **** 				if( pCommMng->CurrentOption & PRT_OPTION_TIMEOUTED )
 996:C:/Workspace/FW_Inertia/branch_indesit/ProductModules/PM_BusCOMM\BCP_BusCommMng.c **** 				{
 997:C:/Workspace/FW_Inertia/branch_indesit/ProductModules/PM_BusCOMM\BCP_BusCommMng.c **** 					pCommMng->PacketReq[pCommMng->PacketReqCurrentIndex] = CP_REQ_TIMEOUT_KO;
 998:C:/Workspace/FW_Inertia/branch_indesit/ProductModules/PM_BusCOMM\BCP_BusCommMng.c **** 				}
 999:C:/Workspace/FW_Inertia/branch_indesit/ProductModules/PM_BusCOMM\BCP_BusCommMng.c **** 
1000:C:/Workspace/FW_Inertia/branch_indesit/ProductModules/PM_BusCOMM\BCP_BusCommMng.c **** 				pCommMng->PacketReqCurrentIndex = 0xFF;
1001:C:/Workspace/FW_Inertia/branch_indesit/ProductModules/PM_BusCOMM\BCP_BusCommMng.c **** 
1002:C:/Workspace/FW_Inertia/branch_indesit/ProductModules/PM_BusCOMM\BCP_BusCommMng.c **** 			}
1003:C:/Workspace/FW_Inertia/branch_indesit/ProductModules/PM_BusCOMM\BCP_BusCommMng.c **** 			break;
1004:C:/Workspace/FW_Inertia/branch_indesit/ProductModules/PM_BusCOMM\BCP_BusCommMng.c **** 		}
1005:C:/Workspace/FW_Inertia/branch_indesit/ProductModules/PM_BusCOMM\BCP_BusCommMng.c **** 		break;
1006:C:/Workspace/FW_Inertia/branch_indesit/ProductModules/PM_BusCOMM\BCP_BusCommMng.c **** 
1007:C:/Workspace/FW_Inertia/branch_indesit/ProductModules/PM_BusCOMM\BCP_BusCommMng.c **** 	case COMM_REPETITION_MNG:
1008:C:/Workspace/FW_Inertia/branch_indesit/ProductModules/PM_BusCOMM\BCP_BusCommMng.c **** 		++pCommMng->comm_repetitions;
1009:C:/Workspace/FW_Inertia/branch_indesit/ProductModules/PM_BusCOMM\BCP_BusCommMng.c **** 		pCommMng->comm_repetitions %= CP_MASTER_NUM_REPETITIONS_PER_ATTEMPS;
1010:C:/Workspace/FW_Inertia/branch_indesit/ProductModules/PM_BusCOMM\BCP_BusCommMng.c **** 		if (!pCommMng->comm_repetitions)
1011:C:/Workspace/FW_Inertia/branch_indesit/ProductModules/PM_BusCOMM\BCP_BusCommMng.c **** 		{
1012:C:/Workspace/FW_Inertia/branch_indesit/ProductModules/PM_BusCOMM\BCP_BusCommMng.c **** 			pCommMng->timeout = minValue(CP_MASTER_MAX_DELAY_ATTEMPTS,(pCommMng->timeout+CP_MASTER_STEP_DELA
1013:C:/Workspace/FW_Inertia/branch_indesit/ProductModules/PM_BusCOMM\BCP_BusCommMng.c **** 			pCommMng->flag.TxTimeout = 3;
1014:C:/Workspace/FW_Inertia/branch_indesit/ProductModules/PM_BusCOMM\BCP_BusCommMng.c **** 			SET_TIMER_VAL(pCommMng->timeout);
1015:C:/Workspace/FW_Inertia/branch_indesit/ProductModules/PM_BusCOMM\BCP_BusCommMng.c **** 		}
1016:C:/Workspace/FW_Inertia/branch_indesit/ProductModules/PM_BusCOMM\BCP_BusCommMng.c **** 		else
1017:C:/Workspace/FW_Inertia/branch_indesit/ProductModules/PM_BusCOMM\BCP_BusCommMng.c **** 		{
1018:C:/Workspace/FW_Inertia/branch_indesit/ProductModules/PM_BusCOMM\BCP_BusCommMng.c **** 			DISABLE_TIMER;
1019:C:/Workspace/FW_Inertia/branch_indesit/ProductModules/PM_BusCOMM\BCP_BusCommMng.c **** 			pCommMng->flag.TxTimeout=0;
1020:C:/Workspace/FW_Inertia/branch_indesit/ProductModules/PM_BusCOMM\BCP_BusCommMng.c **** 		}
1021:C:/Workspace/FW_Inertia/branch_indesit/ProductModules/PM_BusCOMM\BCP_BusCommMng.c **** 		pCommMng->PendingReqState=COMM_IDLE;
1022:C:/Workspace/FW_Inertia/branch_indesit/ProductModules/PM_BusCOMM\BCP_BusCommMng.c **** 		break;
1023:C:/Workspace/FW_Inertia/branch_indesit/ProductModules/PM_BusCOMM\BCP_BusCommMng.c ****   }
1024:C:/Workspace/FW_Inertia/branch_indesit/ProductModules/PM_BusCOMM\BCP_BusCommMng.c **** }
1025:C:/Workspace/FW_Inertia/branch_indesit/ProductModules/PM_BusCOMM\BCP_BusCommMng.c **** #endif
1026:C:/Workspace/FW_Inertia/branch_indesit/ProductModules/PM_BusCOMM\BCP_BusCommMng.c **** 
1027:C:/Workspace/FW_Inertia/branch_indesit/ProductModules/PM_BusCOMM\BCP_BusCommMng.c **** 
1028:C:/Workspace/FW_Inertia/branch_indesit/ProductModules/PM_BusCOMM\BCP_BusCommMng.c **** 
1029:C:/Workspace/FW_Inertia/branch_indesit/ProductModules/PM_BusCOMM\BCP_BusCommMng.c **** 
1030:C:/Workspace/FW_Inertia/branch_indesit/ProductModules/PM_BusCOMM\BCP_BusCommMng.c **** 
1031:C:/Workspace/FW_Inertia/branch_indesit/ProductModules/PM_BusCOMM\BCP_BusCommMng.c **** 
1032:C:/Workspace/FW_Inertia/branch_indesit/ProductModules/PM_BusCOMM\BCP_BusCommMng.c **** 
1033:C:/Workspace/FW_Inertia/branch_indesit/ProductModules/PM_BusCOMM\BCP_BusCommMng.c **** 
1034:C:/Workspace/FW_Inertia/branch_indesit/ProductModules/PM_BusCOMM\BCP_BusCommMng.c **** /* Local Functions */
1035:C:/Workspace/FW_Inertia/branch_indesit/ProductModules/PM_BusCOMM\BCP_BusCommMng.c **** 
1036:C:/Workspace/FW_Inertia/branch_indesit/ProductModules/PM_BusCOMM\BCP_BusCommMng.c **** 
1037:C:/Workspace/FW_Inertia/branch_indesit/ProductModules/PM_BusCOMM\BCP_BusCommMng.c **** /**
1038:C:/Workspace/FW_Inertia/branch_indesit/ProductModules/PM_BusCOMM\BCP_BusCommMng.c **** Increment of communication error counters
1039:C:/Workspace/FW_Inertia/branch_indesit/ProductModules/PM_BusCOMM\BCP_BusCommMng.c **** 
1040:C:/Workspace/FW_Inertia/branch_indesit/ProductModules/PM_BusCOMM\BCP_BusCommMng.c **** \param [in] 	idChannel Physical channel communication identifier (ie: i2c, uart, spi, etc..) see CH
1041:C:/Workspace/FW_Inertia/branch_indesit/ProductModules/PM_BusCOMM\BCP_BusCommMng.c **** \param [in] 	idError Error code id
1042:C:/Workspace/FW_Inertia/branch_indesit/ProductModules/PM_BusCOMM\BCP_BusCommMng.c **** 
1043:C:/Workspace/FW_Inertia/branch_indesit/ProductModules/PM_BusCOMM\BCP_BusCommMng.c **** \attention global variables used:
1044:C:/Workspace/FW_Inertia/branch_indesit/ProductModules/PM_BusCOMM\BCP_BusCommMng.c **** - CommErr (R/W)
1045:C:/Workspace/FW_Inertia/branch_indesit/ProductModules/PM_BusCOMM\BCP_BusCommMng.c **** 
1046:C:/Workspace/FW_Inertia/branch_indesit/ProductModules/PM_BusCOMM\BCP_BusCommMng.c **** \return 	void
1047:C:/Workspace/FW_Inertia/branch_indesit/ProductModules/PM_BusCOMM\BCP_BusCommMng.c **** 
1048:C:/Workspace/FW_Inertia/branch_indesit/ProductModules/PM_BusCOMM\BCP_BusCommMng.c **** \warning	[Type warnings]
1049:C:/Workspace/FW_Inertia/branch_indesit/ProductModules/PM_BusCOMM\BCP_BusCommMng.c **** 
1050:C:/Workspace/FW_Inertia/branch_indesit/ProductModules/PM_BusCOMM\BCP_BusCommMng.c **** \author 	Gabriele Merlonghi
1051:C:/Workspace/FW_Inertia/branch_indesit/ProductModules/PM_BusCOMM\BCP_BusCommMng.c **** \date		20/Apr/2009
1052:C:/Workspace/FW_Inertia/branch_indesit/ProductModules/PM_BusCOMM\BCP_BusCommMng.c **** \version	1.0.0
1053:C:/Workspace/FW_Inertia/branch_indesit/ProductModules/PM_BusCOMM\BCP_BusCommMng.c **** 
1054:C:/Workspace/FW_Inertia/branch_indesit/ProductModules/PM_BusCOMM\BCP_BusCommMng.c **** \bug		[Type bugs]
1055:C:/Workspace/FW_Inertia/branch_indesit/ProductModules/PM_BusCOMM\BCP_BusCommMng.c **** 
1056:C:/Workspace/FW_Inertia/branch_indesit/ProductModules/PM_BusCOMM\BCP_BusCommMng.c **** \note		\par \b Note 1:
1057:C:/Workspace/FW_Inertia/branch_indesit/ProductModules/PM_BusCOMM\BCP_BusCommMng.c **** 			documentation by: Roberto Fioravanti
1058:C:/Workspace/FW_Inertia/branch_indesit/ProductModules/PM_BusCOMM\BCP_BusCommMng.c **** 			\par \b Note n:
1059:C:/Workspace/FW_Inertia/branch_indesit/ProductModules/PM_BusCOMM\BCP_BusCommMng.c **** 
1060:C:/Workspace/FW_Inertia/branch_indesit/ProductModules/PM_BusCOMM\BCP_BusCommMng.c **** \private \memberof CM_Err_ClassType
1061:C:/Workspace/FW_Inertia/branch_indesit/ProductModules/PM_BusCOMM\BCP_BusCommMng.c **** */
1062:C:/Workspace/FW_Inertia/branch_indesit/ProductModules/PM_BusCOMM\BCP_BusCommMng.c **** 
1063:C:/Workspace/FW_Inertia/branch_indesit/ProductModules/PM_BusCOMM\BCP_BusCommMng.c **** void BCM_CountersUpdater(IO_ChannelType idChannel, IO_ErrorType idError)
1064:C:/Workspace/FW_Inertia/branch_indesit/ProductModules/PM_BusCOMM\BCP_BusCommMng.c **** {
  35                             		.loc 1 1064 0
  36                             	.LVL2:
1065:C:/Workspace/FW_Inertia/branch_indesit/ProductModules/PM_BusCOMM\BCP_BusCommMng.c **** 	if (CommErr[idChannel][idError] < 0xFFFF)
  37                             		.loc 1 1065 0
  38 0000 5B 11                   		movu.B	r1, r1
  39 0002 5B 22                   		movu.B	r2, r2
  40 0004 FB E2 00 00 00 00       		mov.L	#_CommErr, r14
  41 000a 63 91                   		mul	#9, r1
  42                             	.LVL3:
  43 000c 4B 21                   		add	r2, r1
  44 000e FE 51 E4                		mov.W	[r1,r14], r4
  45 0011 5F 43                   		movu.W	r4, r3
  46 0013 77 03 FF FF 00          		cmp	#0xffff, r3
  47 0018 16                      		beq	.L4
1066:C:/Workspace/FW_Inertia/branch_indesit/ProductModules/PM_BusCOMM\BCP_BusCommMng.c **** 	{
1067:C:/Workspace/FW_Inertia/branch_indesit/ProductModules/PM_BusCOMM\BCP_BusCommMng.c **** 		++CommErr[idChannel][idError];
  48                             		.loc 1 1067 0
  49 0019 62 14                   		add	#1, r4
  50 001b FE 11 E4                		mov.W	r4, [r1,r14]
  51                             	.L4:
  52 001e 02                      		rts
  53                             	.LFE1:
  55                             		.section	.text.BCP_BusMonitor,"ax",@progbits
  56                             		.global	_BCP_BusMonitor
  58                             	_BCP_BusMonitor:
  59                             	.LFB2:
1068:C:/Workspace/FW_Inertia/branch_indesit/ProductModules/PM_BusCOMM\BCP_BusCommMng.c **** 	}
1069:C:/Workspace/FW_Inertia/branch_indesit/ProductModules/PM_BusCOMM\BCP_BusCommMng.c **** }
1070:C:/Workspace/FW_Inertia/branch_indesit/ProductModules/PM_BusCOMM\BCP_BusCommMng.c **** 
1071:C:/Workspace/FW_Inertia/branch_indesit/ProductModules/PM_BusCOMM\BCP_BusCommMng.c **** 
1072:C:/Workspace/FW_Inertia/branch_indesit/ProductModules/PM_BusCOMM\BCP_BusCommMng.c **** 
1073:C:/Workspace/FW_Inertia/branch_indesit/ProductModules/PM_BusCOMM\BCP_BusCommMng.c **** 
1074:C:/Workspace/FW_Inertia/branch_indesit/ProductModules/PM_BusCOMM\BCP_BusCommMng.c **** /**
1075:C:/Workspace/FW_Inertia/branch_indesit/ProductModules/PM_BusCOMM\BCP_BusCommMng.c **** Communication monitor detecting the following condition:
1076:C:/Workspace/FW_Inertia/branch_indesit/ProductModules/PM_BusCOMM\BCP_BusCommMng.c **** \li I2C:
1077:C:/Workspace/FW_Inertia/branch_indesit/ProductModules/PM_BusCOMM\BCP_BusCommMng.c **** - Block 1: this condition occurs whan at least one line is low indefinitely.
1078:C:/Workspace/FW_Inertia/branch_indesit/ProductModules/PM_BusCOMM\BCP_BusCommMng.c **** - Block 2: when busy bit high indefinitely although bus is free.
1079:C:/Workspace/FW_Inertia/branch_indesit/ProductModules/PM_BusCOMM\BCP_BusCommMng.c **** - Block 3: wrong peripheral configuration: ACK enable bit = 0 and Slave-TX o Master-TX.
1080:C:/Workspace/FW_Inertia/branch_indesit/ProductModules/PM_BusCOMM\BCP_BusCommMng.c **** - Block 4: wrong peripheral configuration in slave mode: 	ACK enable bit = 1 and Slave-RX.
1081:C:/Workspace/FW_Inertia/branch_indesit/ProductModules/PM_BusCOMM\BCP_BusCommMng.c **** - Block 5: wrong peripheral configuration in slave mode: when bus is free (busy = 0), only slave Rx
1082:C:/Workspace/FW_Inertia/branch_indesit/ProductModules/PM_BusCOMM\BCP_BusCommMng.c **** - Block 6: timeout for no request to slave
1083:C:/Workspace/FW_Inertia/branch_indesit/ProductModules/PM_BusCOMM\BCP_BusCommMng.c **** 
1084:C:/Workspace/FW_Inertia/branch_indesit/ProductModules/PM_BusCOMM\BCP_BusCommMng.c **** \return 	void
1085:C:/Workspace/FW_Inertia/branch_indesit/ProductModules/PM_BusCOMM\BCP_BusCommMng.c **** 
1086:C:/Workspace/FW_Inertia/branch_indesit/ProductModules/PM_BusCOMM\BCP_BusCommMng.c **** \warning	[Type warnings]
1087:C:/Workspace/FW_Inertia/branch_indesit/ProductModules/PM_BusCOMM\BCP_BusCommMng.c **** 
1088:C:/Workspace/FW_Inertia/branch_indesit/ProductModules/PM_BusCOMM\BCP_BusCommMng.c **** \author 	Roberto Fioravanti
1089:C:/Workspace/FW_Inertia/branch_indesit/ProductModules/PM_BusCOMM\BCP_BusCommMng.c **** \date		20/Apr/2009
1090:C:/Workspace/FW_Inertia/branch_indesit/ProductModules/PM_BusCOMM\BCP_BusCommMng.c **** \version	1.0.0
1091:C:/Workspace/FW_Inertia/branch_indesit/ProductModules/PM_BusCOMM\BCP_BusCommMng.c **** 
1092:C:/Workspace/FW_Inertia/branch_indesit/ProductModules/PM_BusCOMM\BCP_BusCommMng.c **** \bug		[Type bugs]
1093:C:/Workspace/FW_Inertia/branch_indesit/ProductModules/PM_BusCOMM\BCP_BusCommMng.c **** 
1094:C:/Workspace/FW_Inertia/branch_indesit/ProductModules/PM_BusCOMM\BCP_BusCommMng.c **** \note		\par \b Note 1:
1095:C:/Workspace/FW_Inertia/branch_indesit/ProductModules/PM_BusCOMM\BCP_BusCommMng.c **** 			documentation by: Roberto Fioravanti
1096:C:/Workspace/FW_Inertia/branch_indesit/ProductModules/PM_BusCOMM\BCP_BusCommMng.c **** 			\par \b Note n:
1097:C:/Workspace/FW_Inertia/branch_indesit/ProductModules/PM_BusCOMM\BCP_BusCommMng.c **** */
1098:C:/Workspace/FW_Inertia/branch_indesit/ProductModules/PM_BusCOMM\BCP_BusCommMng.c **** void BCP_BusMonitor(void)
1099:C:/Workspace/FW_Inertia/branch_indesit/ProductModules/PM_BusCOMM\BCP_BusCommMng.c **** {
  60                             		.loc 1 1099 0
1100:C:/Workspace/FW_Inertia/branch_indesit/ProductModules/PM_BusCOMM\BCP_BusCommMng.c ****     if(OCI2C_Level1BlockMonitorSync())
  61                             		.loc 1 1100 0
  62 0000 05 00 00 00             		bsr	_OCI2C_Level1BlockMonitorSync
  63                             	.LVL4:
  64 0004 61 01                   		cmp	#0, r1
  65 0006 12                      		beq	.L10
1101:C:/Workspace/FW_Inertia/branch_indesit/ProductModules/PM_BusCOMM\BCP_BusCommMng.c ****     {
1102:C:/Workspace/FW_Inertia/branch_indesit/ProductModules/PM_BusCOMM\BCP_BusCommMng.c ****         BCM_CountersUpdater((IO_ChannelType)BCP_I2C_CH_ID, (IO_ErrorType)BCP_I2C_UNBLOCK_LEV1_CNT);
  66                             		.loc 1 1102 0
  67 0007 66 01                   		mov	#0, r1
  68 0009 66 62                   		mov	#6, r2
  69 000b 05 00 00 00             		bsr	_BCM_CountersUpdater
  70                             	.LVL5:
  71 000f 03                      		.balign 2,3,3
  72                             	.L10:
1103:C:/Workspace/FW_Inertia/branch_indesit/ProductModules/PM_BusCOMM\BCP_BusCommMng.c ****     }
1104:C:/Workspace/FW_Inertia/branch_indesit/ProductModules/PM_BusCOMM\BCP_BusCommMng.c **** 
1105:C:/Workspace/FW_Inertia/branch_indesit/ProductModules/PM_BusCOMM\BCP_BusCommMng.c ****     if(TRUE == OCI2C_Level2BlockMonitorSync())
  73                             		.loc 1 1105 0
  74 0010 05 00 00 00             		bsr	_OCI2C_Level2BlockMonitorSync
  75                             	.LVL6:
  76 0014 61 11                   		cmp	#1, r1
  77 0016 1A                      		bne	.L11
1106:C:/Workspace/FW_Inertia/branch_indesit/ProductModules/PM_BusCOMM\BCP_BusCommMng.c ****     {
1107:C:/Workspace/FW_Inertia/branch_indesit/ProductModules/PM_BusCOMM\BCP_BusCommMng.c ****         BCM_CountersUpdater((IO_ChannelType)BCP_I2C_CH_ID, (IO_ErrorType)BCP_I2C_UNBLOCK_LEV2_CNT);
  78                             		.loc 1 1107 0
  79 0017 66 01                   		mov	#0, r1
  80 0019 66 72                   		mov	#7, r2
  81 001b 05 00 00 00             		bsr	_BCM_CountersUpdater
  82                             	.LVL7:
  83 001f 03                      		.balign 2,3,3
  84                             	.L11:
1108:C:/Workspace/FW_Inertia/branch_indesit/ProductModules/PM_BusCOMM\BCP_BusCommMng.c **** #if defined(CP_LEV2_I2CDRIVER_ACTION_ENABLE)
1109:C:/Workspace/FW_Inertia/branch_indesit/ProductModules/PM_BusCOMM\BCP_BusCommMng.c ****         OCI2C_Action_Lev2();
1110:C:/Workspace/FW_Inertia/branch_indesit/ProductModules/PM_BusCOMM\BCP_BusCommMng.c **** #endif /* defined(CP_LEV2_I2CDRIVER_ACTION_ENABLE) */
1111:C:/Workspace/FW_Inertia/branch_indesit/ProductModules/PM_BusCOMM\BCP_BusCommMng.c ****     }
1112:C:/Workspace/FW_Inertia/branch_indesit/ProductModules/PM_BusCOMM\BCP_BusCommMng.c **** 
1113:C:/Workspace/FW_Inertia/branch_indesit/ProductModules/PM_BusCOMM\BCP_BusCommMng.c **** 	/* Blocco 3
1114:C:/Workspace/FW_Inertia/branch_indesit/ProductModules/PM_BusCOMM\BCP_BusCommMng.c **** 	slave configuration wrong: cannot be transimmted ACK bit  = 0
1115:C:/Workspace/FW_Inertia/branch_indesit/ProductModules/PM_BusCOMM\BCP_BusCommMng.c **** 	during Slave-TX o Master-TX
1116:C:/Workspace/FW_Inertia/branch_indesit/ProductModules/PM_BusCOMM\BCP_BusCommMng.c **** 	*/
1117:C:/Workspace/FW_Inertia/branch_indesit/ProductModules/PM_BusCOMM\BCP_BusCommMng.c ****     if(OCI2C_Level3BlockMonitorSync())
  85                             		.loc 1 1117 0
  86 0020 05 00 00 00             		bsr	_OCI2C_Level3BlockMonitorSync
  87                             	.LVL8:
  88 0024 61 01                   		cmp	#0, r1
  89 0026 20 0E                   		beq	.L12
1118:C:/Workspace/FW_Inertia/branch_indesit/ProductModules/PM_BusCOMM\BCP_BusCommMng.c **** 	{
1119:C:/Workspace/FW_Inertia/branch_indesit/ProductModules/PM_BusCOMM\BCP_BusCommMng.c **** 		BCM_CountersUpdater((IO_ChannelType)BCP_I2C_CH_ID, (IO_ErrorType)BCP_I2C_UNBLOCK_LEV3_CNT);
  90                             		.loc 1 1119 0
  91 0028 66 01                   		mov	#0, r1
  92 002a 66 82                   		mov	#8, r2
  93 002c 05 00 00 00             		bsr	_BCM_CountersUpdater
  94                             	.LVL9:
1120:C:/Workspace/FW_Inertia/branch_indesit/ProductModules/PM_BusCOMM\BCP_BusCommMng.c **** 		OCI2C_InitHwSync();	  
  95                             		.loc 1 1120 0
  96 0030 05 00 00 00             		bsr	_OCI2C_InitHwSync
  97                             	.LVL10:
  98                             		.balign 2,3,3
  99                             	.L12:
1121:C:/Workspace/FW_Inertia/branch_indesit/ProductModules/PM_BusCOMM\BCP_BusCommMng.c **** 	}
1122:C:/Workspace/FW_Inertia/branch_indesit/ProductModules/PM_BusCOMM\BCP_BusCommMng.c **** 	/* Blocco 4
1123:C:/Workspace/FW_Inertia/branch_indesit/ProductModules/PM_BusCOMM\BCP_BusCommMng.c **** 	slave configuration wrong: cannot be transimmted ACK bit = 1
1124:C:/Workspace/FW_Inertia/branch_indesit/ProductModules/PM_BusCOMM\BCP_BusCommMng.c **** 	during Slave-RX
1125:C:/Workspace/FW_Inertia/branch_indesit/ProductModules/PM_BusCOMM\BCP_BusCommMng.c **** 	*/
1126:C:/Workspace/FW_Inertia/branch_indesit/ProductModules/PM_BusCOMM\BCP_BusCommMng.c **** 	if(OCI2C_Level4BlockMonitorSync())
 100                             		.loc 1 1126 0
 101 0034 05 00 00 00             		bsr	_OCI2C_Level4BlockMonitorSync
 102                             	.LVL11:
 103 0038 61 01                   		cmp	#0, r1
 104 003a 20 0E                   		beq	.L13
1127:C:/Workspace/FW_Inertia/branch_indesit/ProductModules/PM_BusCOMM\BCP_BusCommMng.c **** 	{
1128:C:/Workspace/FW_Inertia/branch_indesit/ProductModules/PM_BusCOMM\BCP_BusCommMng.c **** 		BCM_CountersUpdater((IO_ChannelType)BCP_I2C_CH_ID, (IO_ErrorType)BCP_I2C_UNBLOCK_LEV4_CNT);
 105                             		.loc 1 1128 0
 106 003c 66 01                   		mov	#0, r1
 107 003e 66 82                   		mov	#8, r2
 108 0040 05 00 00 00             		bsr	_BCM_CountersUpdater
 109                             	.LVL12:
1129:C:/Workspace/FW_Inertia/branch_indesit/ProductModules/PM_BusCOMM\BCP_BusCommMng.c **** 		OCI2C_InitHwSync();
 110                             		.loc 1 1129 0
 111 0044 05 00 00 00             		bsr	_OCI2C_InitHwSync
 112                             	.LVL13:
 113                             		.balign 2,3,3
 114                             	.L13:
1130:C:/Workspace/FW_Inertia/branch_indesit/ProductModules/PM_BusCOMM\BCP_BusCommMng.c **** 	}
1131:C:/Workspace/FW_Inertia/branch_indesit/ProductModules/PM_BusCOMM\BCP_BusCommMng.c **** 	/* slave configuration wrong: when bus is freee (busy = 0),
1132:C:/Workspace/FW_Inertia/branch_indesit/ProductModules/PM_BusCOMM\BCP_BusCommMng.c **** 	periphral must be  Slave-RX
1133:C:/Workspace/FW_Inertia/branch_indesit/ProductModules/PM_BusCOMM\BCP_BusCommMng.c **** 	(any other configuration Slave-TX, Master-TX o Master-RX is not allowed)
1134:C:/Workspace/FW_Inertia/branch_indesit/ProductModules/PM_BusCOMM\BCP_BusCommMng.c **** 	*/
1135:C:/Workspace/FW_Inertia/branch_indesit/ProductModules/PM_BusCOMM\BCP_BusCommMng.c **** 	if(OCI2C_Level5BlockMonitorSync())
 115                             		.loc 1 1135 0
 116 0048 05 00 00 00             		bsr	_OCI2C_Level5BlockMonitorSync
 117                             	.LVL14:
 118 004c 61 01                   		cmp	#0, r1
 119 004e 20 0E                   		beq	.L14
1136:C:/Workspace/FW_Inertia/branch_indesit/ProductModules/PM_BusCOMM\BCP_BusCommMng.c **** 	{
1137:C:/Workspace/FW_Inertia/branch_indesit/ProductModules/PM_BusCOMM\BCP_BusCommMng.c **** 		BCM_CountersUpdater((IO_ChannelType)BCP_I2C_CH_ID, (IO_ErrorType)BCP_I2C_UNBLOCK_LEV5_CNT);
 120                             		.loc 1 1137 0
 121 0050 66 01                   		mov	#0, r1
 122 0052 66 82                   		mov	#8, r2
 123 0054 05 00 00 00             		bsr	_BCM_CountersUpdater
 124                             	.LVL15:
1138:C:/Workspace/FW_Inertia/branch_indesit/ProductModules/PM_BusCOMM\BCP_BusCommMng.c **** 		OCI2C_InitHwSync();
 125                             		.loc 1 1138 0
 126 0058 05 00 00 00             		bsr	_OCI2C_InitHwSync
 127                             	.LVL16:
 128                             		.balign 2,3,3
 129                             	.L14:
1139:C:/Workspace/FW_Inertia/branch_indesit/ProductModules/PM_BusCOMM\BCP_BusCommMng.c **** 	}
1140:C:/Workspace/FW_Inertia/branch_indesit/ProductModules/PM_BusCOMM\BCP_BusCommMng.c **** 
1141:C:/Workspace/FW_Inertia/branch_indesit/ProductModules/PM_BusCOMM\BCP_BusCommMng.c **** 	/* Blocco 6
1142:C:/Workspace/FW_Inertia/branch_indesit/ProductModules/PM_BusCOMM\BCP_BusCommMng.c **** 	no request for more than 5 sec: */
1143:C:/Workspace/FW_Inertia/branch_indesit/ProductModules/PM_BusCOMM\BCP_BusCommMng.c **** #if BCP_SLAVE_SUPPORT	== TRUE
1144:C:/Workspace/FW_Inertia/branch_indesit/ProductModules/PM_BusCOMM\BCP_BusCommMng.c ****   if(OCI2C_Level6BlockMonitorSync())
 130                             		.loc 1 1144 0
 131 005c 04 00 00 00             		bra	_OCI2C_Level6BlockMonitorSync
 132                             	.LVL17:
 133                             	.LFE2:
 135                             		.section	.text.CP_SlaveManager__Read_ApplData,"ax",@progbits
 136                             		.global	_CP_SlaveManager__Read_ApplData
 138                             	_CP_SlaveManager__Read_ApplData:
 139                             	.LFB3:
1145:C:/Workspace/FW_Inertia/branch_indesit/ProductModules/PM_BusCOMM\BCP_BusCommMng.c **** 	{
1146:C:/Workspace/FW_Inertia/branch_indesit/ProductModules/PM_BusCOMM\BCP_BusCommMng.c **** #if defined(BCP_COUNTER_OPTION__LEV_6)
1147:C:/Workspace/FW_Inertia/branch_indesit/ProductModules/PM_BusCOMM\BCP_BusCommMng.c **** 	  BCM_CountersUpdater((IO_ChannelType)BCP_I2C_CH_ID, BCP_I2C_UNBLOCK_LEV6_CNT);
1148:C:/Workspace/FW_Inertia/branch_indesit/ProductModules/PM_BusCOMM\BCP_BusCommMng.c **** #endif	  /* defined(BCP_COUNTER_OPTION__LEV_6) */
1149:C:/Workspace/FW_Inertia/branch_indesit/ProductModules/PM_BusCOMM\BCP_BusCommMng.c **** 	}
1150:C:/Workspace/FW_Inertia/branch_indesit/ProductModules/PM_BusCOMM\BCP_BusCommMng.c **** #endif /* BCP_SLAVE_SUPPORT	== TRUE */
1151:C:/Workspace/FW_Inertia/branch_indesit/ProductModules/PM_BusCOMM\BCP_BusCommMng.c **** }
1152:C:/Workspace/FW_Inertia/branch_indesit/ProductModules/PM_BusCOMM\BCP_BusCommMng.c **** 
1153:C:/Workspace/FW_Inertia/branch_indesit/ProductModules/PM_BusCOMM\BCP_BusCommMng.c **** 
1154:C:/Workspace/FW_Inertia/branch_indesit/ProductModules/PM_BusCOMM\BCP_BusCommMng.c **** 
1155:C:/Workspace/FW_Inertia/branch_indesit/ProductModules/PM_BusCOMM\BCP_BusCommMng.c **** /* FF: meaningless 
1156:C:/Workspace/FW_Inertia/branch_indesit/ProductModules/PM_BusCOMM\BCP_BusCommMng.c ****    other values: position */
1157:C:/Workspace/FW_Inertia/branch_indesit/ProductModules/PM_BusCOMM\BCP_BusCommMng.c **** const CP_InProtParamPType ProtParam[2]={
1158:C:/Workspace/FW_Inertia/branch_indesit/ProductModules/PM_BusCOMM\BCP_BusCommMng.c **** /*                  hdr typ len dat stx     ee  */
1159:C:/Workspace/FW_Inertia/branch_indesit/ProductModules/PM_BusCOMM\BCP_BusCommMng.c **** 	{0xFF,	0xFF,	2,	3,	4,	5,	0,		1},		/*std format*/
1160:C:/Workspace/FW_Inertia/branch_indesit/ProductModules/PM_BusCOMM\BCP_BusCommMng.c **** 	{1,		2, 		3,	4,	5,	6,	0xFF,	0xFF}	/*GP format*/
1161:C:/Workspace/FW_Inertia/branch_indesit/ProductModules/PM_BusCOMM\BCP_BusCommMng.c **** };
1162:C:/Workspace/FW_Inertia/branch_indesit/ProductModules/PM_BusCOMM\BCP_BusCommMng.c **** 
1163:C:/Workspace/FW_Inertia/branch_indesit/ProductModules/PM_BusCOMM\BCP_BusCommMng.c ****                        
1164:C:/Workspace/FW_Inertia/branch_indesit/ProductModules/PM_BusCOMM\BCP_BusCommMng.c **** void CP_SlaveManager__Read_ApplData(uint8_t pos, IO_MemPtrType pRxBuff, IO_MemPtrType pData, PP_Sla
1165:C:/Workspace/FW_Inertia/branch_indesit/ProductModules/PM_BusCOMM\BCP_BusCommMng.c **** {
 140                             		.loc 1 1165 0
 141                             	.LVL18:
 142 0000 60 40                   		sub	#4, r0
 143                             	.LCFI0:
 144 0002 DD 0E 04                		mov.W	8[r0], r14
1166:C:/Workspace/FW_Inertia/branch_indesit/ProductModules/PM_BusCOMM\BCP_BusCommMng.c ****   pinfo->error = (IO_ErrorType)IO_E_OK;
 145                             		.loc 1 1166 0
 146 0005 3C 46 00                		mov.B	#0, 6[r4]
1167:C:/Workspace/FW_Inertia/branch_indesit/ProductModules/PM_BusCOMM\BCP_BusCommMng.c ****   pinfo->len = pRxBuff[pos];
 147                             		.loc 1 1167 0
 148 0008 5B 11                   		movu.B	r1, r1
 149 000a FE C1 22                		movu.B	[r1,r2], r2
 150                             	.LVL19:
1168:C:/Workspace/FW_Inertia/branch_indesit/ProductModules/PM_BusCOMM\BCP_BusCommMng.c ****   if((pinfo->len == 0) || (pinfo->len >= maxlen))
 151                             		.loc 1 1168 0
 152 000d 71 21 00                		add	#0, r2, r1
 153                             	.LVL20:
 154 0010 12                      		beq	.L28
 155                             		.loc 1 1168 0 is_stmt 0 discriminator 1
 156 0011 5F E5                   		movu.W	r14, r5
 157 0013 47 51                   		cmp	r5, r1
 158 0015 22 05                   		bgeu	.L28
1167:C:/Workspace/FW_Inertia/branch_indesit/ProductModules/PM_BusCOMM\BCP_BusCommMng.c ****   pinfo->len = pRxBuff[pos];
 159                             		.loc 1 1167 0 is_stmt 1
 160 0017 90 C2                   		mov.W	r2, 4[r4]
 161 0019 0D                      		bra	.L29
 162                             	.L28:
1169:C:/Workspace/FW_Inertia/branch_indesit/ProductModules/PM_BusCOMM\BCP_BusCommMng.c ****   {
1170:C:/Workspace/FW_Inertia/branch_indesit/ProductModules/PM_BusCOMM\BCP_BusCommMng.c ****     pinfo->len=maxlen;
 163                             		.loc 1 1170 0
 164 001a D7 4E 02                		mov.W	r14, 4[r4]
 165 001d 03                      		.balign 2,3,1
 166                             	.L29:
1171:C:/Workspace/FW_Inertia/branch_indesit/ProductModules/PM_BusCOMM\BCP_BusCommMng.c ****   }
1172:C:/Workspace/FW_Inertia/branch_indesit/ProductModules/PM_BusCOMM\BCP_BusCommMng.c ****   pinfo->address = pData;
 167                             		.loc 1 1172 0
 168 001e E3 43                   		mov.L	r3, [r4]
1173:C:/Workspace/FW_Inertia/branch_indesit/ProductModules/PM_BusCOMM\BCP_BusCommMng.c ****   pinfo->option|=PP_SL_RESP_ANSW_OPT;
 169                             		.loc 1 1173 0
 170 0020 F1 40 07                		bset #0, 7[r4].B
1174:C:/Workspace/FW_Inertia/branch_indesit/ProductModules/PM_BusCOMM\BCP_BusCommMng.c **** }
 171                             		.loc 1 1174 0
 172 0023 67 01                   		rtsd	#4
 173                             	.LFE3:
 175 0025 03                      		.section	.text.CP_SlaveManager__Write_ApplData,"ax",@progbits
 176                             		.global	_CP_SlaveManager__Write_ApplData
 178                             	_CP_SlaveManager__Write_ApplData:
 179                             	.LFB4:
1175:C:/Workspace/FW_Inertia/branch_indesit/ProductModules/PM_BusCOMM\BCP_BusCommMng.c ****                              
1176:C:/Workspace/FW_Inertia/branch_indesit/ProductModules/PM_BusCOMM\BCP_BusCommMng.c **** void CP_SlaveManager__Write_ApplData(uint8_t pos, IO_MemPtrType pRxBuff, IO_MemPtrType pData, PP_Sl
1177:C:/Workspace/FW_Inertia/branch_indesit/ProductModules/PM_BusCOMM\BCP_BusCommMng.c **** {
 180                             		.loc 1 1177 0
 181                             	.LVL21:
 182 0000 7E A7                   		push.l	r7
 183                             	.LCFI1:
 184 0002 60 40                   		sub	#4, r0
 185                             	.LCFI2:
 186 0004 99 87                   		mov.W	12[r0], r7
1178:C:/Workspace/FW_Inertia/branch_indesit/ProductModules/PM_BusCOMM\BCP_BusCommMng.c ****     if((pRxBuff[pos]!=0) && (pRxBuff[pos] <= maxlen))
 187                             		.loc 1 1178 0
 188 0006 5B 11                   		movu.B	r1, r1
 189 0008 FF 2E 12                		add	r1, r2, r14
 190 000b 58 EF                   		movu.B	[r14], r15
 191 000d 61 0F                   		cmp	#0, r15
 192 000f 20 17                   		beq	.L34
 193                             		.loc 1 1178 0 is_stmt 0 discriminator 1
 194 0011 5F 77                   		movu.W	r7, r7
 195 0013 47 7F                   		cmp	r7, r15
 196 0015 24 11                   		bgtu	.L34
1179:C:/Workspace/FW_Inertia/branch_indesit/ProductModules/PM_BusCOMM\BCP_BusCommMng.c ****     {
1180:C:/Workspace/FW_Inertia/branch_indesit/ProductModules/PM_BusCOMM\BCP_BusCommMng.c ****       pinfo->error = (IO_ErrorType)IO_E_OK;
 197                             		.loc 1 1180 0 is_stmt 1
 198 0017 3C 46 00                		mov.B	#0, 6[r4]
1181:C:/Workspace/FW_Inertia/branch_indesit/ProductModules/PM_BusCOMM\BCP_BusCommMng.c ****       (void)memcpy((void*)pData, &pRxBuff[pos+1], pRxBuff[pos]);
 199                             		.loc 1 1181 0
 200 001a 71 15 01                		add	#1, r1, r5
 201 001d EF 31                   		mov.L	r3, r1
 202                             	.LVL22:
 203 001f 4B 52                   		add	r5, r2
 204                             	.LVL23:
 205 0021 58 E3                   		movu.B	[r14], r3
 206                             	.LVL24:
 207 0023 7F 8F                   		smovf
 208                             	.LVL25:
 209 0025 03                      		.balign 2,3,2
 210                             	.L34:
1182:C:/Workspace/FW_Inertia/branch_indesit/ProductModules/PM_BusCOMM\BCP_BusCommMng.c ****     }
1183:C:/Workspace/FW_Inertia/branch_indesit/ProductModules/PM_BusCOMM\BCP_BusCommMng.c **** }
 211                             		.loc 1 1183 0
 212 0026 3F 77 02                		rtsd	#8, r7-r7
 213                             	.LFE4:
 215 0029 03                      		.section	.text.BCP_SlaveManager__Read_ApplData,"ax",@progbits
 216                             		.global	_BCP_SlaveManager__Read_ApplData
 218                             	_BCP_SlaveManager__Read_ApplData:
 219                             	.LFB5:
1184:C:/Workspace/FW_Inertia/branch_indesit/ProductModules/PM_BusCOMM\BCP_BusCommMng.c **** 
1185:C:/Workspace/FW_Inertia/branch_indesit/ProductModules/PM_BusCOMM\BCP_BusCommMng.c **** 
1186:C:/Workspace/FW_Inertia/branch_indesit/ProductModules/PM_BusCOMM\BCP_BusCommMng.c **** void BCP_SlaveManager__Read_ApplData(IO_ChannelType ch, IO_MemPtrType pData, PP_SlaveBuilderInfoTyp
1187:C:/Workspace/FW_Inertia/branch_indesit/ProductModules/PM_BusCOMM\BCP_BusCommMng.c **** {
 220                             		.loc 1 1187 0
 221                             	.LVL26:
1188:C:/Workspace/FW_Inertia/branch_indesit/ProductModules/PM_BusCOMM\BCP_BusCommMng.c ****   pinfo->error = (IO_ErrorType)IO_E_OK;
 222                             		.loc 1 1188 0
 223 0000 3C 36 00                		mov.B	#0, 6[r3]
1189:C:/Workspace/FW_Inertia/branch_indesit/ProductModules/PM_BusCOMM\BCP_BusCommMng.c ****   pinfo->len = BCP_ChannelTable[ch].rxBuffer[PP_DAT_INDEX];
 224                             		.loc 1 1189 0
 225 0003 5B 11                   		movu.B	r1, r1
 226 0005 75 11 1C                		mul	#28, r1
 227                             	.LVL27:
 228 0008 70 11 00 00 00 00       		add	#_BCP_ChannelTable, r1
 229 000e ED 1E 05                		mov.L	20[r1], r14
 230 0011 59 E1 05                		movu.B	5[r14], r1
 231 0014 90 B1                   		mov.W	r1, 4[r3]
1190:C:/Workspace/FW_Inertia/branch_indesit/ProductModules/PM_BusCOMM\BCP_BusCommMng.c ****   if((BCP_ChannelTable[ch].rxBuffer[PP_DAT_INDEX] == 0) ||
 232                             		.loc 1 1190 0
 233 0016 59 EE 05                		movu.B	5[r14], r14
 234 0019 61 0E                   		cmp	#0, r14
 235 001b 17                      		beq	.L41
 236                             		.loc 1 1190 0 is_stmt 0 discriminator 1
 237 001c 5F 41                   		movu.W	r4, r1
 238 001e 47 1E                   		cmp	r1, r14
 239 0020 23 04                   		bltu	.L42
 240                             		.balign 2,3,5
 241                             	.L41:
1191:C:/Workspace/FW_Inertia/branch_indesit/ProductModules/PM_BusCOMM\BCP_BusCommMng.c ****   (BCP_ChannelTable[ch].rxBuffer[PP_DAT_INDEX] >= maxlen))
1192:C:/Workspace/FW_Inertia/branch_indesit/ProductModules/PM_BusCOMM\BCP_BusCommMng.c ****   {
1193:C:/Workspace/FW_Inertia/branch_indesit/ProductModules/PM_BusCOMM\BCP_BusCommMng.c ****     pinfo->len=maxlen;
 242                             		.loc 1 1193 0 is_stmt 1
 243 0022 90 B4                   		mov.W	r4, 4[r3]
 244                             		.balign 2,3,1
 245                             	.L42:
1194:C:/Workspace/FW_Inertia/branch_indesit/ProductModules/PM_BusCOMM\BCP_BusCommMng.c ****   }
1195:C:/Workspace/FW_Inertia/branch_indesit/ProductModules/PM_BusCOMM\BCP_BusCommMng.c ****   pinfo->address=pData;
 246                             		.loc 1 1195 0
 247 0024 E3 32                   		mov.L	r2, [r3]
1196:C:/Workspace/FW_Inertia/branch_indesit/ProductModules/PM_BusCOMM\BCP_BusCommMng.c ****   pinfo->option|=PP_SL_RESP_ANSW_OPT;
 248                             		.loc 1 1196 0
 249 0026 F1 30 07                		bset #0, 7[r3].B
 250 0029 02                      		rts
 251                             	.LFE5:
 253                             		.section	.text.BCP_SlaveManager__Write_ApplData,"ax",@progbits
 254                             		.global	_BCP_SlaveManager__Write_ApplData
 256                             	_BCP_SlaveManager__Write_ApplData:
 257                             	.LFB6:
1197:C:/Workspace/FW_Inertia/branch_indesit/ProductModules/PM_BusCOMM\BCP_BusCommMng.c **** }
1198:C:/Workspace/FW_Inertia/branch_indesit/ProductModules/PM_BusCOMM\BCP_BusCommMng.c **** 
1199:C:/Workspace/FW_Inertia/branch_indesit/ProductModules/PM_BusCOMM\BCP_BusCommMng.c **** void BCP_SlaveManager__Write_ApplData(IO_ChannelType ch, IO_MemPtrType pData, PP_SlaveBuilderInfoTy
1200:C:/Workspace/FW_Inertia/branch_indesit/ProductModules/PM_BusCOMM\BCP_BusCommMng.c **** {
 258                             		.loc 1 1200 0
 259                             	.LVL28:
1201:C:/Workspace/FW_Inertia/branch_indesit/ProductModules/PM_BusCOMM\BCP_BusCommMng.c ****     if((BCP_ChannelTable[ch].rxBuffer[PP_LEN_INDEX]!=0) &&
 260                             		.loc 1 1201 0
 261 0000 5B 11                   		movu.B	r1, r1
 262 0002 75 11 1C                		mul	#28, r1
 263                             	.LVL29:
 264 0005 70 1E 00 00 00 00       		add	#_BCP_ChannelTable, r1, r14
 265 000b ED EE 05                		mov.L	20[r14], r14
 266 000e 59 E5 04                		movu.B	4[r14], r5
 267 0011 61 05                   		cmp	#0, r5
 268 0013 20 15                   		beq	.L46
 269                             		.loc 1 1201 0 is_stmt 0 discriminator 1
 270 0015 5F 44                   		movu.W	r4, r4
 271 0017 47 45                   		cmp	r4, r5
 272 0019 24 0F                   		bgtu	.L46
1202:C:/Workspace/FW_Inertia/branch_indesit/ProductModules/PM_BusCOMM\BCP_BusCommMng.c ****     (BCP_ChannelTable[ch].rxBuffer[PP_LEN_INDEX] <= maxlen))
1203:C:/Workspace/FW_Inertia/branch_indesit/ProductModules/PM_BusCOMM\BCP_BusCommMng.c ****     {
1204:C:/Workspace/FW_Inertia/branch_indesit/ProductModules/PM_BusCOMM\BCP_BusCommMng.c ****       pinfo->error = (IO_ErrorType)IO_E_OK;
 273                             		.loc 1 1204 0 is_stmt 1
 274 001b 3C 36 00                		mov.B	#0, 6[r3]
1205:C:/Workspace/FW_Inertia/branch_indesit/ProductModules/PM_BusCOMM\BCP_BusCommMng.c ****       (void)memcpy((void*)pData, &BCP_ChannelTable[ch].rxBuffer[PP_DAT_INDEX], BCP_ChannelTable[ch]
 275                             		.loc 1 1205 0
 276 001e EF 21                   		mov.L	r2, r1
 277 0020 71 E2 05                		add	#5, r14, r2
 278                             	.LVL30:
 279 0023 59 E3 04                		movu.B	4[r14], r3
 280                             	.LVL31:
 281 0026 7F 8F                   		smovf
 282                             	.LVL32:
 283                             	.L46:
 284 0028 02                      		rts
 285                             	.LFE6:
 287                             		.section	.text.PP_MappingGetOffset,"ax",@progbits
 288                             		.global	_PP_MappingGetOffset
 290                             	_PP_MappingGetOffset:
 291                             	.LFB7:
1206:C:/Workspace/FW_Inertia/branch_indesit/ProductModules/PM_BusCOMM\BCP_BusCommMng.c ****     }
1207:C:/Workspace/FW_Inertia/branch_indesit/ProductModules/PM_BusCOMM\BCP_BusCommMng.c **** }
1208:C:/Workspace/FW_Inertia/branch_indesit/ProductModules/PM_BusCOMM\BCP_BusCommMng.c **** 
1209:C:/Workspace/FW_Inertia/branch_indesit/ProductModules/PM_BusCOMM\BCP_BusCommMng.c **** 
1210:C:/Workspace/FW_Inertia/branch_indesit/ProductModules/PM_BusCOMM\BCP_BusCommMng.c **** 
1211:C:/Workspace/FW_Inertia/branch_indesit/ProductModules/PM_BusCOMM\BCP_BusCommMng.c **** int8_t PP_MappingGetOffset(IO_MemPtrType pStart, IO_MemPtrType pEnd, const PP_RemapTableType* pTabl
1212:C:/Workspace/FW_Inertia/branch_indesit/ProductModules/PM_BusCOMM\BCP_BusCommMng.c **** {
 292                             		.loc 1 1212 0
 293                             	.LVL33:
 294 0000 60 40                   		sub	#4, r0
 295                             	.LCFI3:
 296 0002 A8 85                   		mov.L	8[r0], r5
1213:C:/Workspace/FW_Inertia/branch_indesit/ProductModules/PM_BusCOMM\BCP_BusCommMng.c **** 
1214:C:/Workspace/FW_Inertia/branch_indesit/ProductModules/PM_BusCOMM\BCP_BusCommMng.c ****     while(size-->0)
1215:C:/Workspace/FW_Inertia/branch_indesit/ProductModules/PM_BusCOMM\BCP_BusCommMng.c ****     {
1216:C:/Workspace/FW_Inertia/branch_indesit/ProductModules/PM_BusCOMM\BCP_BusCommMng.c ****     	if(((void*)pStart >= (void*)((unsigned int)(pTable[size].start))) && ((void*)pEnd <= (void*)((
 297                             		.loc 1 1216 0
 298 0004 CF 4E                   		mov.B	r4, r14
 299 0006 6C 3E                   		shll	#3, r14
 300 0008 4B E3                   		add	r14, r3
 301                             	.LVL34:
1211:C:/Workspace/FW_Inertia/branch_indesit/ProductModules/PM_BusCOMM\BCP_BusCommMng.c **** int8_t PP_MappingGetOffset(IO_MemPtrType pStart, IO_MemPtrType pEnd, const PP_RemapTableType* pTabl
 302                             		.loc 1 1211 0
 303 000a 60 23                   		sub	#2, r3
1214:C:/Workspace/FW_Inertia/branch_indesit/ProductModules/PM_BusCOMM\BCP_BusCommMng.c ****     while(size-->0)
 304                             		.loc 1 1214 0
 305 000c 2E 18                   		bra	.L52
 306                             	.L55:
1211:C:/Workspace/FW_Inertia/branch_indesit/ProductModules/PM_BusCOMM\BCP_BusCommMng.c **** int8_t PP_MappingGetOffset(IO_MemPtrType pStart, IO_MemPtrType pEnd, const PP_RemapTableType* pTabl
 307                             		.loc 1 1211 0
 308 000e 71 3E FA                		add	#-6, r3, r14
 309 0011 71 3F FE                		add	#-2, r3, r15
 310                             		.loc 1 1216 0
 311 0014 06 C4 F1                		cmp	[r15].UW, r1
 312 0017 23 0B                   		bltu	.L53
 313                             		.loc 1 1216 0 is_stmt 0 discriminator 1
 314 0019 06 C4 32                		cmp	[r3].UW, r2
 315 001c 24 06                   		bgtu	.L53
1217:C:/Workspace/FW_Inertia/branch_indesit/ProductModules/PM_BusCOMM\BCP_BusCommMng.c ****         {
1218:C:/Workspace/FW_Inertia/branch_indesit/ProductModules/PM_BusCOMM\BCP_BusCommMng.c ****             *pOffset = pTable[size].offset;
 316                             		.loc 1 1218 0 is_stmt 1
 317 001e E0 E5                   		mov.L	[r14], [r5]
1219:C:/Workspace/FW_Inertia/branch_indesit/ProductModules/PM_BusCOMM\BCP_BusCommMng.c ****             break;
 318                             		.loc 1 1219 0
 319 0020 2E 12                   		bra	.L54
 320                             	.L53:
 321 0022 60 83                   		sub	#8, r3
 322                             		.balign 2,3,2
 323                             	.L52:
1214:C:/Workspace/FW_Inertia/branch_indesit/ProductModules/PM_BusCOMM\BCP_BusCommMng.c ****     while(size-->0)
 324                             		.loc 1 1214 0 discriminator 1
 325 0024 71 4E FF                		add	#-1, r4, r14
 326 0027 CF E4                   		mov.B	r14, r4
 327                             	.LVL35:
1211:C:/Workspace/FW_Inertia/branch_indesit/ProductModules/PM_BusCOMM\BCP_BusCommMng.c **** int8_t PP_MappingGetOffset(IO_MemPtrType pStart, IO_MemPtrType pEnd, const PP_RemapTableType* pTabl
 328                             		.loc 1 1211 0 discriminator 1
 329 0029 62 1E                   		add	#1, r14
1214:C:/Workspace/FW_Inertia/branch_indesit/ProductModules/PM_BusCOMM\BCP_BusCommMng.c ****     while(size-->0)
 330                             		.loc 1 1214 0 discriminator 1
 331 002b CF EE                   		mov.B	r14, r14
 332 002d 61 0E                   		cmp	#0, r14
 333 002f 2A DF                   		bgt	.L55
 334 0031 03                      		.balign 2,3,1
 335                             	.L54:
1220:C:/Workspace/FW_Inertia/branch_indesit/ProductModules/PM_BusCOMM\BCP_BusCommMng.c ****         }
1221:C:/Workspace/FW_Inertia/branch_indesit/ProductModules/PM_BusCOMM\BCP_BusCommMng.c ****     }   
1222:C:/Workspace/FW_Inertia/branch_indesit/ProductModules/PM_BusCOMM\BCP_BusCommMng.c ****     return size;
1223:C:/Workspace/FW_Inertia/branch_indesit/ProductModules/PM_BusCOMM\BCP_BusCommMng.c **** }
 336                             		.loc 1 1223 0
 337 0032 CF 41                   		mov.B	r4, r1
 338                             	.LVL36:
 339 0034 67 01                   		rtsd	#4
 340                             	.LFE7:
 342                             		.section	.text.PP_IsAccessAllowed,"ax",@progbits
 343                             		.global	_PP_IsAccessAllowed
 345                             	_PP_IsAccessAllowed:
 346                             	.LFB8:
1224:C:/Workspace/FW_Inertia/branch_indesit/ProductModules/PM_BusCOMM\BCP_BusCommMng.c **** 
1225:C:/Workspace/FW_Inertia/branch_indesit/ProductModules/PM_BusCOMM\BCP_BusCommMng.c **** 
1226:C:/Workspace/FW_Inertia/branch_indesit/ProductModules/PM_BusCOMM\BCP_BusCommMng.c **** /*
1227:C:/Workspace/FW_Inertia/branch_indesit/ProductModules/PM_BusCOMM\BCP_BusCommMng.c **** \param pTable pointer to memory range type
1228:C:/Workspace/FW_Inertia/branch_indesit/ProductModules/PM_BusCOMM\BCP_BusCommMng.c **** \param tablelength number og items in pTable, must be at least 1
1229:C:/Workspace/FW_Inertia/branch_indesit/ProductModules/PM_BusCOMM\BCP_BusCommMng.c **** \param pStart start address
1230:C:/Workspace/FW_Inertia/branch_indesit/ProductModules/PM_BusCOMM\BCP_BusCommMng.c **** \param size size in bytes , must be at least 1
1231:C:/Workspace/FW_Inertia/branch_indesit/ProductModules/PM_BusCOMM\BCP_BusCommMng.c **** 
1232:C:/Workspace/FW_Inertia/branch_indesit/ProductModules/PM_BusCOMM\BCP_BusCommMng.c **** \return int_8_t
1233:C:/Workspace/FW_Inertia/branch_indesit/ProductModules/PM_BusCOMM\BCP_BusCommMng.c **** \retval	>=0 access is allowed
1234:C:/Workspace/FW_Inertia/branch_indesit/ProductModules/PM_BusCOMM\BCP_BusCommMng.c **** \retval	< access is denied
1235:C:/Workspace/FW_Inertia/branch_indesit/ProductModules/PM_BusCOMM\BCP_BusCommMng.c **** 
1236:C:/Workspace/FW_Inertia/branch_indesit/ProductModules/PM_BusCOMM\BCP_BusCommMng.c **** */
1237:C:/Workspace/FW_Inertia/branch_indesit/ProductModules/PM_BusCOMM\BCP_BusCommMng.c **** int8_t PP_IsAccessAllowed(const PP_MemoryRangeType* pTable, int8_t tablelength, IO_MemPtrType pStar
1238:C:/Workspace/FW_Inertia/branch_indesit/ProductModules/PM_BusCOMM\BCP_BusCommMng.c **** {
 347                             		.loc 1 1238 0
 348                             	.LVL37:
1239:C:/Workspace/FW_Inertia/branch_indesit/ProductModules/PM_BusCOMM\BCP_BusCommMng.c **** 	void* pend;
1240:C:/Workspace/FW_Inertia/branch_indesit/ProductModules/PM_BusCOMM\BCP_BusCommMng.c **** 	pend=pStart+size-1;
 349                             		.loc 1 1240 0
 350 0000 5F 44                   		movu.W	r4, r4
 351 0002 71 4E FF                		add	#-1, r4, r14
 352 0005 4B 3E                   		add	r3, r14
 353                             	.LVL38:
1241:C:/Workspace/FW_Inertia/branch_indesit/ProductModules/PM_BusCOMM\BCP_BusCommMng.c ****     while(tablelength-- > 0)
1242:C:/Workspace/FW_Inertia/branch_indesit/ProductModules/PM_BusCOMM\BCP_BusCommMng.c ****     {
1243:C:/Workspace/FW_Inertia/branch_indesit/ProductModules/PM_BusCOMM\BCP_BusCommMng.c ****     	if(	((void*)pStart >= (void*)((unsigned int)(pTable[tablelength].start))) &&
1244:C:/Workspace/FW_Inertia/branch_indesit/ProductModules/PM_BusCOMM\BCP_BusCommMng.c ****     			( (pend) <= (void*)((unsigned int)(pTable[tablelength].end))) &&
 354                             		.loc 1 1244 0
 355 0007 CF 24                   		mov.B	r2, r4
 356                             	.LVL39:
 357 0009 6C 34                   		shll	#3, r4
 358 000b 4B 41                   		add	r4, r1
 359                             	.LVL40:
1237:C:/Workspace/FW_Inertia/branch_indesit/ProductModules/PM_BusCOMM\BCP_BusCommMng.c **** int8_t PP_IsAccessAllowed(const PP_MemoryRangeType* pTable, int8_t tablelength, IO_MemPtrType pStar
 360                             		.loc 1 1237 0
 361 000d 60 41                   		sub	#4, r1
1241:C:/Workspace/FW_Inertia/branch_indesit/ProductModules/PM_BusCOMM\BCP_BusCommMng.c ****     while(tablelength-- > 0)
 362                             		.loc 1 1241 0
 363 000f 2E 15                   		bra	.L58
 364                             	.L61:
1237:C:/Workspace/FW_Inertia/branch_indesit/ProductModules/PM_BusCOMM\BCP_BusCommMng.c **** int8_t PP_IsAccessAllowed(const PP_MemoryRangeType* pTable, int8_t tablelength, IO_MemPtrType pStar
 365                             		.loc 1 1237 0
 366 0011 71 14 FC                		add	#-4, r1, r4
1243:C:/Workspace/FW_Inertia/branch_indesit/ProductModules/PM_BusCOMM\BCP_BusCommMng.c ****     	if(	((void*)pStart >= (void*)((unsigned int)(pTable[tablelength].start))) &&
 367                             		.loc 1 1243 0
 368 0014 06 84 43                		cmp	[r4].L, r3
 369 0017 23 0B                   		bltu	.L59
1243:C:/Workspace/FW_Inertia/branch_indesit/ProductModules/PM_BusCOMM\BCP_BusCommMng.c ****     	if(	((void*)pStart >= (void*)((unsigned int)(pTable[tablelength].start))) &&
 370                             		.loc 1 1243 0 is_stmt 0 discriminator 1
 371 0019 06 84 1E                		cmp	[r1].L, r14
 372 001c 24 06                   		bgtu	.L59
 373                             		.loc 1 1244 0 is_stmt 1
 374 001e 47 3E                   		cmp	r3, r14
 375 0020 22 12                   		bgeu	.L60
 376                             		.balign 2,3,1
 377                             	.L59:
 378 0022 60 81                   		sub	#8, r1
 379                             		.balign 2,3,2
 380                             	.L58:
1241:C:/Workspace/FW_Inertia/branch_indesit/ProductModules/PM_BusCOMM\BCP_BusCommMng.c ****     while(tablelength-- > 0)
 381                             		.loc 1 1241 0 discriminator 1
 382 0024 71 24 FF                		add	#-1, r2, r4
 383 0027 CF 42                   		mov.B	r4, r2
 384                             	.LVL41:
1237:C:/Workspace/FW_Inertia/branch_indesit/ProductModules/PM_BusCOMM\BCP_BusCommMng.c **** int8_t PP_IsAccessAllowed(const PP_MemoryRangeType* pTable, int8_t tablelength, IO_MemPtrType pStar
 385                             		.loc 1 1237 0 discriminator 1
 386 0029 62 14                   		add	#1, r4
1241:C:/Workspace/FW_Inertia/branch_indesit/ProductModules/PM_BusCOMM\BCP_BusCommMng.c ****     while(tablelength-- > 0)
 387                             		.loc 1 1241 0 discriminator 1
 388 002b CF 44                   		mov.B	r4, r4
 389 002d 61 04                   		cmp	#0, r4
 390 002f 2A E2                   		bgt	.L61
 391 0031 03                      		.balign 2,3,1
 392                             	.L60:
1245:C:/Workspace/FW_Inertia/branch_indesit/ProductModules/PM_BusCOMM\BCP_BusCommMng.c ****     			!((pend) < (void*)(pStart)))
1246:C:/Workspace/FW_Inertia/branch_indesit/ProductModules/PM_BusCOMM\BCP_BusCommMng.c ****         {
1247:C:/Workspace/FW_Inertia/branch_indesit/ProductModules/PM_BusCOMM\BCP_BusCommMng.c ****             break;
1248:C:/Workspace/FW_Inertia/branch_indesit/ProductModules/PM_BusCOMM\BCP_BusCommMng.c ****         }
1249:C:/Workspace/FW_Inertia/branch_indesit/ProductModules/PM_BusCOMM\BCP_BusCommMng.c ****     }
1250:C:/Workspace/FW_Inertia/branch_indesit/ProductModules/PM_BusCOMM\BCP_BusCommMng.c ****     return tablelength;
1251:C:/Workspace/FW_Inertia/branch_indesit/ProductModules/PM_BusCOMM\BCP_BusCommMng.c **** }
 393                             		.loc 1 1251 0
 394 0032 CF 21                   		mov.B	r2, r1
 395 0034 02                      		rts
 396                             	.LFE8:
 398 0035 03                      		.section	.text.PP_MappingGetPPAddr,"ax",@progbits
 399                             		.global	_PP_MappingGetPPAddr
 401                             	_PP_MappingGetPPAddr:
 402                             	.LFB9:
1252:C:/Workspace/FW_Inertia/branch_indesit/ProductModules/PM_BusCOMM\BCP_BusCommMng.c **** 
1253:C:/Workspace/FW_Inertia/branch_indesit/ProductModules/PM_BusCOMM\BCP_BusCommMng.c **** uint16_t PP_MappingGetPPAddr(const IO_MemPtrType realAddr, const PP_RemapTableType* pTable, int8_t 
1254:C:/Workspace/FW_Inertia/branch_indesit/ProductModules/PM_BusCOMM\BCP_BusCommMng.c **** {
 403                             		.loc 1 1254 0
 404                             	.LVL42:
1255:C:/Workspace/FW_Inertia/branch_indesit/ProductModules/PM_BusCOMM\BCP_BusCommMng.c **** 	uint16_t retValue = 0xffff;
1256:C:/Workspace/FW_Inertia/branch_indesit/ProductModules/PM_BusCOMM\BCP_BusCommMng.c **** 
1257:C:/Workspace/FW_Inertia/branch_indesit/ProductModules/PM_BusCOMM\BCP_BusCommMng.c ****     while(size-->0)
1258:C:/Workspace/FW_Inertia/branch_indesit/ProductModules/PM_BusCOMM\BCP_BusCommMng.c ****     {
1259:C:/Workspace/FW_Inertia/branch_indesit/ProductModules/PM_BusCOMM\BCP_BusCommMng.c ****         if((realAddr >= ((IO_MemPtrType) pTable[size].offset + pTable[size].start))
1260:C:/Workspace/FW_Inertia/branch_indesit/ProductModules/PM_BusCOMM\BCP_BusCommMng.c ****         		&& (realAddr <= ( (IO_MemPtrType) pTable[size].offset + pTable[size].end)) )
 405                             		.loc 1 1260 0
 406 0000 CF 3E                   		mov.B	r3, r14
 407 0002 6C 3E                   		shll	#3, r14
 408 0004 4B E2                   		add	r14, r2
 409                             	.LVL43:
1253:C:/Workspace/FW_Inertia/branch_indesit/ProductModules/PM_BusCOMM\BCP_BusCommMng.c **** uint16_t PP_MappingGetPPAddr(const IO_MemPtrType realAddr, const PP_RemapTableType* pTable, int8_t 
 410                             		.loc 1 1253 0
 411 0006 60 22                   		sub	#2, r2
1257:C:/Workspace/FW_Inertia/branch_indesit/ProductModules/PM_BusCOMM\BCP_BusCommMng.c ****     while(size-->0)
 412                             		.loc 1 1257 0
 413 0008 2E 22                   		bra	.L63
 414                             	.LVL44:
 415                             	.L66:
1253:C:/Workspace/FW_Inertia/branch_indesit/ProductModules/PM_BusCOMM\BCP_BusCommMng.c **** uint16_t PP_MappingGetPPAddr(const IO_MemPtrType realAddr, const PP_RemapTableType* pTable, int8_t 
 416                             		.loc 1 1253 0
 417 000a 71 2E FA                		add	#-6, r2, r14
1259:C:/Workspace/FW_Inertia/branch_indesit/ProductModules/PM_BusCOMM\BCP_BusCommMng.c ****         if((realAddr >= ((IO_MemPtrType) pTable[size].offset + pTable[size].start))
 418                             		.loc 1 1259 0
 419 000d EC EE                   		mov.L	[r14], r14
1253:C:/Workspace/FW_Inertia/branch_indesit/ProductModules/PM_BusCOMM\BCP_BusCommMng.c **** uint16_t PP_MappingGetPPAddr(const IO_MemPtrType realAddr, const PP_RemapTableType* pTable, int8_t 
 420                             		.loc 1 1253 0
 421 000f 71 24 FE                		add	#-2, r2, r4
1259:C:/Workspace/FW_Inertia/branch_indesit/ProductModules/PM_BusCOMM\BCP_BusCommMng.c ****         if((realAddr >= ((IO_MemPtrType) pTable[size].offset + pTable[size].start))
 422                             		.loc 1 1259 0
 423 0012 5C 44                   		movu.W	[r4], r4
 424 0014 4B E4                   		add	r14, r4
 425 0016 47 41                   		cmp	r4, r1
 426 0018 23 0E                   		bltu	.L64
 427                             		.loc 1 1260 0
 428 001a 5C 24                   		movu.W	[r2], r4
 429 001c 4B E4                   		add	r14, r4
 430 001e 47 41                   		cmp	r4, r1
 431 0020 24 06                   		bgtu	.L64
1261:C:/Workspace/FW_Inertia/branch_indesit/ProductModules/PM_BusCOMM\BCP_BusCommMng.c ****         {
1262:C:/Workspace/FW_Inertia/branch_indesit/ProductModules/PM_BusCOMM\BCP_BusCommMng.c ****         	retValue = (uint16_t) (realAddr - (IO_MemPtrType) pTable[size].offset);
 432                             		.loc 1 1262 0
 433 0022 43 E1                   		sub	r14, r1
 434                             	.LVL45:
1263:C:/Workspace/FW_Inertia/branch_indesit/ProductModules/PM_BusCOMM\BCP_BusCommMng.c ****             break;
 435                             		.loc 1 1263 0
 436 0024 2E 10                   		bra	.L65
 437                             	.LVL46:
 438                             	.L64:
 439 0026 60 13                   		sub	#1, r3
 440 0028 60 82                   		sub	#8, r2
 441                             		.balign 2,3,1
 442                             	.L63:
1257:C:/Workspace/FW_Inertia/branch_indesit/ProductModules/PM_BusCOMM\BCP_BusCommMng.c ****     while(size-->0)
 443                             		.loc 1 1257 0 discriminator 1
 444 002a CF 3E                   		mov.B	r3, r14
 445 002c 61 0E                   		cmp	#0, r14
 446 002e 2A DC                   		bgt	.L66
1255:C:/Workspace/FW_Inertia/branch_indesit/ProductModules/PM_BusCOMM\BCP_BusCommMng.c **** 	uint16_t retValue = 0xffff;
 447                             		.loc 1 1255 0
 448 0030 FB 16 FF                		mov	#-1, r1
 449                             	.LVL47:
 450 0033 03                      		.balign 2,3,1
 451                             	.L65:
1264:C:/Workspace/FW_Inertia/branch_indesit/ProductModules/PM_BusCOMM\BCP_BusCommMng.c ****         }
1265:C:/Workspace/FW_Inertia/branch_indesit/ProductModules/PM_BusCOMM\BCP_BusCommMng.c ****     }
1266:C:/Workspace/FW_Inertia/branch_indesit/ProductModules/PM_BusCOMM\BCP_BusCommMng.c ****     return retValue;
1267:C:/Workspace/FW_Inertia/branch_indesit/ProductModules/PM_BusCOMM\BCP_BusCommMng.c **** }
 452                             		.loc 1 1267 0
 453 0034 5F 11                   		movu.W	r1, r1
 454 0036 02                      		rts
 455                             	.LFE9:
 457                             		.global	_ProtParam
 458 0037 03                      		.section	.rodata.ProtParam,"a",@progbits
 461                             	_ProtParam:
 462 0000 FF                      		.byte	-1
 463 0001 FF                      		.byte	-1
 464 0002 02                      		.byte	2
 465 0003 03                      		.byte	3
 466 0004 04                      		.byte	4
 467 0005 05                      		.byte	5
 468 0006 00                      		.byte	0
 469 0007 01                      		.byte	1
 470 0008 01                      		.byte	1
 471 0009 02                      		.byte	2
 472 000a 03                      		.byte	3
 473 000b 04                      		.byte	4
 474 000c 05                      		.byte	5
 475 000d 06                      		.byte	6
 476 000e FF                      		.byte	-1
 477 000f FF                      		.byte	-1
 478                             		.comm	_CommErr,36,2
 595                             	.Letext0:
 596                             		.file 2 "C:\\Workspace\\FW_Inertia\\branch_indesit\\HAL\\HAL_General/StandardTypes.h"
 597                             		.file 3 "C:\\Workspace\\FW_Inertia\\branch_indesit\\HAL\\RN_RX200/RN_RX200_cfg.h"
 598                             		.file 4 "C:\\Workspace\\FW_Inertia\\branch_indesit\\Drivers/io_driver.h"
 599                             		.file 5 "C:\\Workspace\\FW_Inertia\\branch_indesit\\ProductModules\\PM_BusCOMM/BCP_General.h"
 600                             		.file 6 "C:\\Workspace\\FW_Inertia\\branch_indesit\\ProductModules\\PM_BusCOMM/BCP_PlatformProtoco
 601                             		.file 7 "C:\\Workspace\\FW_Inertia\\branch_indesit\\ProductModules\\PM_BusCOMM/CSM_PlatformProtoco
 602                             		.file 8 "C:\\Workspace\\FW_Inertia\\branch_indesit\\CFG_DishWasher\\CFG_Inertia/BusCommPltf_cfg.h"
 603                             		.file 9 "C:\\Workspace\\FW_Inertia\\branch_indesit\\Drivers\\OCI2C/OCI2C_drv.h"
DEFINED SYMBOLS
                            *ABS*:00000000 BCP_BusCommMng.c
C:\Users\Andrea\AppData\Local\Temp\ccxQbkaM.s:7      .text.BCP_InitChSync:00000000 _BCP_InitChSync
C:\Users\Andrea\AppData\Local\Temp\ccxQbkaM.s:13     .text.BCP_InitChSync:00000000 L0
C:\Users\Andrea\AppData\Local\Temp\ccxQbkaM.s:33     .text.BCM_CountersUpdater:00000000 _BCM_CountersUpdater
C:\Users\Andrea\AppData\Local\Temp\ccxQbkaM.s:38     .text.BCM_CountersUpdater:00000000 L0
                            *COM*:00000024 _CommErr
C:\Users\Andrea\AppData\Local\Temp\ccxQbkaM.s:58     .text.BCP_BusMonitor:00000000 _BCP_BusMonitor
C:\Users\Andrea\AppData\Local\Temp\ccxQbkaM.s:62     .text.BCP_BusMonitor:00000000 L0
C:\Users\Andrea\AppData\Local\Temp\ccxQbkaM.s:138    .text.CP_SlaveManager__Read_ApplData:00000000 _CP_SlaveManager__Read_ApplData
C:\Users\Andrea\AppData\Local\Temp\ccxQbkaM.s:142    .text.CP_SlaveManager__Read_ApplData:00000000 L0
C:\Users\Andrea\AppData\Local\Temp\ccxQbkaM.s:178    .text.CP_SlaveManager__Write_ApplData:00000000 _CP_SlaveManager__Write_ApplData
C:\Users\Andrea\AppData\Local\Temp\ccxQbkaM.s:182    .text.CP_SlaveManager__Write_ApplData:00000000 L0
C:\Users\Andrea\AppData\Local\Temp\ccxQbkaM.s:218    .text.BCP_SlaveManager__Read_ApplData:00000000 _BCP_SlaveManager__Read_ApplData
C:\Users\Andrea\AppData\Local\Temp\ccxQbkaM.s:223    .text.BCP_SlaveManager__Read_ApplData:00000000 L0
C:\Users\Andrea\AppData\Local\Temp\ccxQbkaM.s:256    .text.BCP_SlaveManager__Write_ApplData:00000000 _BCP_SlaveManager__Write_ApplData
C:\Users\Andrea\AppData\Local\Temp\ccxQbkaM.s:261    .text.BCP_SlaveManager__Write_ApplData:00000000 L0
C:\Users\Andrea\AppData\Local\Temp\ccxQbkaM.s:290    .text.PP_MappingGetOffset:00000000 _PP_MappingGetOffset
C:\Users\Andrea\AppData\Local\Temp\ccxQbkaM.s:294    .text.PP_MappingGetOffset:00000000 L0
C:\Users\Andrea\AppData\Local\Temp\ccxQbkaM.s:345    .text.PP_IsAccessAllowed:00000000 _PP_IsAccessAllowed
C:\Users\Andrea\AppData\Local\Temp\ccxQbkaM.s:350    .text.PP_IsAccessAllowed:00000000 L0
C:\Users\Andrea\AppData\Local\Temp\ccxQbkaM.s:401    .text.PP_MappingGetPPAddr:00000000 _PP_MappingGetPPAddr
C:\Users\Andrea\AppData\Local\Temp\ccxQbkaM.s:406    .text.PP_MappingGetPPAddr:00000000 L0
C:\Users\Andrea\AppData\Local\Temp\ccxQbkaM.s:461    .rodata.ProtParam:00000000 _ProtParam
C:\Users\Andrea\AppData\Local\Temp\ccxQbkaM.s:480    .debug_frame:00000000 .Lframe0
C:\Users\Andrea\AppData\Local\Temp\ccxQbkaM.s:8      .text.BCP_InitChSync:00000000 .LFB0
C:\Users\Andrea\AppData\Local\Temp\ccxQbkaM.s:34     .text.BCM_CountersUpdater:00000000 .LFB1
C:\Users\Andrea\AppData\Local\Temp\ccxQbkaM.s:59     .text.BCP_BusMonitor:00000000 .LFB2
C:\Users\Andrea\AppData\Local\Temp\ccxQbkaM.s:139    .text.CP_SlaveManager__Read_ApplData:00000000 .LFB3
C:\Users\Andrea\AppData\Local\Temp\ccxQbkaM.s:179    .text.CP_SlaveManager__Write_ApplData:00000000 .LFB4
C:\Users\Andrea\AppData\Local\Temp\ccxQbkaM.s:219    .text.BCP_SlaveManager__Read_ApplData:00000000 .LFB5
C:\Users\Andrea\AppData\Local\Temp\ccxQbkaM.s:257    .text.BCP_SlaveManager__Write_ApplData:00000000 .LFB6
C:\Users\Andrea\AppData\Local\Temp\ccxQbkaM.s:291    .text.PP_MappingGetOffset:00000000 .LFB7
C:\Users\Andrea\AppData\Local\Temp\ccxQbkaM.s:346    .text.PP_IsAccessAllowed:00000000 .LFB8
C:\Users\Andrea\AppData\Local\Temp\ccxQbkaM.s:402    .text.PP_MappingGetPPAddr:00000000 .LFB9
C:\Users\Andrea\AppData\Local\Temp\ccxQbkaM.s:2034   .debug_abbrev:00000000 .Ldebug_abbrev0
C:\Users\Andrea\AppData\Local\Temp\ccxQbkaM.s:3093   .debug_str:0000025e .LASF161
C:\Users\Andrea\AppData\Local\Temp\ccxQbkaM.s:3273   .debug_str:000007ff .LASF162
C:\Users\Andrea\AppData\Local\Temp\ccxQbkaM.s:2983   .debug_ranges:00000000 .Ldebug_ranges0
C:\Users\Andrea\AppData\Local\Temp\ccxQbkaM.s:3007   .debug_line:00000000 .Ldebug_line0
C:\Users\Andrea\AppData\Local\Temp\ccxQbkaM.s:3259   .debug_str:00000799 .LASF0
C:\Users\Andrea\AppData\Local\Temp\ccxQbkaM.s:3215   .debug_str:0000062f .LASF1
C:\Users\Andrea\AppData\Local\Temp\ccxQbkaM.s:3071   .debug_str:000001ce .LASF7
C:\Users\Andrea\AppData\Local\Temp\ccxQbkaM.s:3123   .debug_str:00000386 .LASF2
C:\Users\Andrea\AppData\Local\Temp\ccxQbkaM.s:3247   .debug_str:00000737 .LASF3
C:\Users\Andrea\AppData\Local\Temp\ccxQbkaM.s:3059   .debug_str:00000185 .LASF4
C:\Users\Andrea\AppData\Local\Temp\ccxQbkaM.s:3029   .debug_str:000000b0 .LASF5
C:\Users\Andrea\AppData\Local\Temp\ccxQbkaM.s:3043   .debug_str:00000118 .LASF6
C:\Users\Andrea\AppData\Local\Temp\ccxQbkaM.s:3305   .debug_str:00000918 .LASF8
C:\Users\Andrea\AppData\Local\Temp\ccxQbkaM.s:3211   .debug_str:00000614 .LASF9
C:\Users\Andrea\AppData\Local\Temp\ccxQbkaM.s:3281   .debug_str:00000873 .LASF10
C:\Users\Andrea\AppData\Local\Temp\ccxQbkaM.s:3045   .debug_str:00000126 .LASF11
C:\Users\Andrea\AppData\Local\Temp\ccxQbkaM.s:3051   .debug_str:00000146 .LASF12
C:\Users\Andrea\AppData\Local\Temp\ccxQbkaM.s:3161   .debug_str:0000046c .LASF13
C:\Users\Andrea\AppData\Local\Temp\ccxQbkaM.s:3249   .debug_str:00000749 .LASF14
C:\Users\Andrea\AppData\Local\Temp\ccxQbkaM.s:3169   .debug_str:000004b9 .LASF15
C:\Users\Andrea\AppData\Local\Temp\ccxQbkaM.s:3159   .debug_str:00000462 .LASF62
C:\Users\Andrea\AppData\Local\Temp\ccxQbkaM.s:3081   .debug_str:00000213 .LASF16
C:\Users\Andrea\AppData\Local\Temp\ccxQbkaM.s:3181   .debug_str:00000518 .LASF17
C:\Users\Andrea\AppData\Local\Temp\ccxQbkaM.s:3035   .debug_str:000000dd .LASF18
C:\Users\Andrea\AppData\Local\Temp\ccxQbkaM.s:3111   .debug_str:00000311 .LASF19
C:\Users\Andrea\AppData\Local\Temp\ccxQbkaM.s:3019   .debug_str:0000006b .LASF20
C:\Users\Andrea\AppData\Local\Temp\ccxQbkaM.s:3041   .debug_str:00000105 .LASF21
C:\Users\Andrea\AppData\Local\Temp\ccxQbkaM.s:3271   .debug_str:000007e7 .LASF22
C:\Users\Andrea\AppData\Local\Temp\ccxQbkaM.s:3183   .debug_str:00000522 .LASF23
C:\Users\Andrea\AppData\Local\Temp\ccxQbkaM.s:3329   .debug_str:000009d2 .LASF24
C:\Users\Andrea\AppData\Local\Temp\ccxQbkaM.s:3217   .debug_str:00000639 .LASF25
C:\Users\Andrea\AppData\Local\Temp\ccxQbkaM.s:3151   .debug_str:0000042b .LASF26
C:\Users\Andrea\AppData\Local\Temp\ccxQbkaM.s:3261   .debug_str:000007a6 .LASF27
C:\Users\Andrea\AppData\Local\Temp\ccxQbkaM.s:3015   .debug_str:00000042 .LASF28
C:\Users\Andrea\AppData\Local\Temp\ccxQbkaM.s:3333   .debug_str:000009f1 .LASF29
C:\Users\Andrea\AppData\Local\Temp\ccxQbkaM.s:3125   .debug_str:00000399 .LASF30
C:\Users\Andrea\AppData\Local\Temp\ccxQbkaM.s:3205   .debug_str:000005e3 .LASF31
C:\Users\Andrea\AppData\Local\Temp\ccxQbkaM.s:3203   .debug_str:000005d5 .LASF32
C:\Users\Andrea\AppData\Local\Temp\ccxQbkaM.s:3299   .debug_str:000008f3 .LASF33
C:\Users\Andrea\AppData\Local\Temp\ccxQbkaM.s:3157   .debug_str:00000455 .LASF34
C:\Users\Andrea\AppData\Local\Temp\ccxQbkaM.s:3135   .debug_str:000003df .LASF35
C:\Users\Andrea\AppData\Local\Temp\ccxQbkaM.s:3293   .debug_str:000008ca .LASF36
C:\Users\Andrea\AppData\Local\Temp\ccxQbkaM.s:3107   .debug_str:000002f7 .LASF37
C:\Users\Andrea\AppData\Local\Temp\ccxQbkaM.s:3077   .debug_str:000001f1 .LASF38
C:\Users\Andrea\AppData\Local\Temp\ccxQbkaM.s:3279   .debug_str:00000862 .LASF39
C:\Users\Andrea\AppData\Local\Temp\ccxQbkaM.s:3235   .debug_str:000006d2 .LASF40
C:\Users\Andrea\AppData\Local\Temp\ccxQbkaM.s:3173   .debug_str:000004d6 .LASF41
C:\Users\Andrea\AppData\Local\Temp\ccxQbkaM.s:3031   .debug_str:000000c7 .LASF42
C:\Users\Andrea\AppData\Local\Temp\ccxQbkaM.s:3231   .debug_str:000006b6 .LASF43
C:\Users\Andrea\AppData\Local\Temp\ccxQbkaM.s:3075   .debug_str:000001e4 .LASF44
C:\Users\Andrea\AppData\Local\Temp\ccxQbkaM.s:3285   .debug_str:00000888 .LASF45
C:\Users\Andrea\AppData\Local\Temp\ccxQbkaM.s:3017   .debug_str:00000057 .LASF46
C:\Users\Andrea\AppData\Local\Temp\ccxQbkaM.s:3301   .debug_str:000008ff .LASF47
C:\Users\Andrea\AppData\Local\Temp\ccxQbkaM.s:3141   .debug_str:000003fa .LASF48
C:\Users\Andrea\AppData\Local\Temp\ccxQbkaM.s:3055   .debug_str:00000156 .LASF49
C:\Users\Andrea\AppData\Local\Temp\ccxQbkaM.s:3307   .debug_str:00000920 .LASF50
C:\Users\Andrea\AppData\Local\Temp\ccxQbkaM.s:3319   .debug_str:00000987 .LASF51
C:\Users\Andrea\AppData\Local\Temp\ccxQbkaM.s:3237   .debug_str:000006de .LASF52
C:\Users\Andrea\AppData\Local\Temp\ccxQbkaM.s:3221   .debug_str:00000656 .LASF163
C:\Users\Andrea\AppData\Local\Temp\ccxQbkaM.s:3139   .debug_str:000003f1 .LASF53
C:\Users\Andrea\AppData\Local\Temp\ccxQbkaM.s:3269   .debug_str:000007e0 .LASF54
C:\Users\Andrea\AppData\Local\Temp\ccxQbkaM.s:3109   .debug_str:0000030a .LASF55
C:\Users\Andrea\AppData\Local\Temp\ccxQbkaM.s:3209   .debug_str:00000607 .LASF56
C:\Users\Andrea\AppData\Local\Temp\ccxQbkaM.s:3115   .debug_str:00000343 .LASF57
C:\Users\Andrea\AppData\Local\Temp\ccxQbkaM.s:3171   .debug_str:000004ce .LASF58
C:\Users\Andrea\AppData\Local\Temp\ccxQbkaM.s:3083   .debug_str:0000021b .LASF59
C:\Users\Andrea\AppData\Local\Temp\ccxQbkaM.s:3033   .debug_str:000000d4 .LASF60
C:\Users\Andrea\AppData\Local\Temp\ccxQbkaM.s:3167   .debug_str:000004a6 .LASF61
C:\Users\Andrea\AppData\Local\Temp\ccxQbkaM.s:3079   .debug_str:00000200 .LASF63
C:\Users\Andrea\AppData\Local\Temp\ccxQbkaM.s:3119   .debug_str:00000374 .LASF64
C:\Users\Andrea\AppData\Local\Temp\ccxQbkaM.s:3283   .debug_str:0000087a .LASF65
C:\Users\Andrea\AppData\Local\Temp\ccxQbkaM.s:3191   .debug_str:0000057a .LASF66
C:\Users\Andrea\AppData\Local\Temp\ccxQbkaM.s:3225   .debug_str:00000683 .LASF67
C:\Users\Andrea\AppData\Local\Temp\ccxQbkaM.s:3061   .debug_str:0000018e .LASF68
C:\Users\Andrea\AppData\Local\Temp\ccxQbkaM.s:3303   .debug_str:0000090a .LASF69
C:\Users\Andrea\AppData\Local\Temp\ccxQbkaM.s:3295   .debug_str:000008dd .LASF70
C:\Users\Andrea\AppData\Local\Temp\ccxQbkaM.s:3097   .debug_str:00000295 .LASF71
C:\Users\Andrea\AppData\Local\Temp\ccxQbkaM.s:3239   .debug_str:000006f0 .LASF72
C:\Users\Andrea\AppData\Local\Temp\ccxQbkaM.s:3223   .debug_str:0000066a .LASF73
C:\Users\Andrea\AppData\Local\Temp\ccxQbkaM.s:3117   .debug_str:00000357 .LASF74
C:\Users\Andrea\AppData\Local\Temp\ccxQbkaM.s:3253   .debug_str:00000761 .LASF75
C:\Users\Andrea\AppData\Local\Temp\ccxQbkaM.s:3233   .debug_str:000006c5 .LASF76
C:\Users\Andrea\AppData\Local\Temp\ccxQbkaM.s:3105   .debug_str:000002ea .LASF77
C:\Users\Andrea\AppData\Local\Temp\ccxQbkaM.s:3331   .debug_str:000009e4 .LASF78
C:\Users\Andrea\AppData\Local\Temp\ccxQbkaM.s:3197   .debug_str:0000059e .LASF79
C:\Users\Andrea\AppData\Local\Temp\ccxQbkaM.s:3073   .debug_str:000001d7 .LASF80
C:\Users\Andrea\AppData\Local\Temp\ccxQbkaM.s:3193   .debug_str:00000587 .LASF81
C:\Users\Andrea\AppData\Local\Temp\ccxQbkaM.s:3149   .debug_str:00000426 .LASF82
C:\Users\Andrea\AppData\Local\Temp\ccxQbkaM.s:3245   .debug_str:00000726 .LASF83
C:\Users\Andrea\AppData\Local\Temp\ccxQbkaM.s:3037   .debug_str:000000ea .LASF84
C:\Users\Andrea\AppData\Local\Temp\ccxQbkaM.s:3327   .debug_str:000009c3 .LASF85
C:\Users\Andrea\AppData\Local\Temp\ccxQbkaM.s:3311   .debug_str:0000094b .LASF86
C:\Users\Andrea\AppData\Local\Temp\ccxQbkaM.s:3227   .debug_str:00000691 .LASF87
C:\Users\Andrea\AppData\Local\Temp\ccxQbkaM.s:3207   .debug_str:000005f8 .LASF88
C:\Users\Andrea\AppData\Local\Temp\ccxQbkaM.s:3087   .debug_str:0000022c .LASF89
C:\Users\Andrea\AppData\Local\Temp\ccxQbkaM.s:3069   .debug_str:000001c6 .LASF90
C:\Users\Andrea\AppData\Local\Temp\ccxQbkaM.s:3195   .debug_str:00000598 .LASF91
C:\Users\Andrea\AppData\Local\Temp\ccxQbkaM.s:3335   .debug_str:00000a01 .LASF92
C:\Users\Andrea\AppData\Local\Temp\ccxQbkaM.s:3091   .debug_str:00000250 .LASF93
C:\Users\Andrea\AppData\Local\Temp\ccxQbkaM.s:3067   .debug_str:000001b3 .LASF94
C:\Users\Andrea\AppData\Local\Temp\ccxQbkaM.s:3201   .debug_str:000005c0 .LASF95
C:\Users\Andrea\AppData\Local\Temp\ccxQbkaM.s:3199   .debug_str:000005ab .LASF96
C:\Users\Andrea\AppData\Local\Temp\ccxQbkaM.s:3255   .debug_str:0000077c .LASF97
C:\Users\Andrea\AppData\Local\Temp\ccxQbkaM.s:3163   .debug_str:00000475 .LASF98
C:\Users\Andrea\AppData\Local\Temp\ccxQbkaM.s:3145   .debug_str:00000414 .LASF99
C:\Users\Andrea\AppData\Local\Temp\ccxQbkaM.s:3147   .debug_str:0000041d .LASF100
C:\Users\Andrea\AppData\Local\Temp\ccxQbkaM.s:3291   .debug_str:000008c5 .LASF101
C:\Users\Andrea\AppData\Local\Temp\ccxQbkaM.s:3049   .debug_str:0000013e .LASF102
C:\Users\Andrea\AppData\Local\Temp\ccxQbkaM.s:3219   .debug_str:0000064f .LASF103
C:\Users\Andrea\AppData\Local\Temp\ccxQbkaM.s:3315   .debug_str:00000972 .LASF104
C:\Users\Andrea\AppData\Local\Temp\ccxQbkaM.s:3065   .debug_str:000001a9 .LASF105
C:\Users\Andrea\AppData\Local\Temp\ccxQbkaM.s:3287   .debug_str:00000896 .LASF106
C:\Users\Andrea\AppData\Local\Temp\ccxQbkaM.s:3263   .debug_str:000007c0 .LASF107
C:\Users\Andrea\AppData\Local\Temp\ccxQbkaM.s:3155   .debug_str:0000044c .LASF108
C:\Users\Andrea\AppData\Local\Temp\ccxQbkaM.s:3047   .debug_str:00000132 .LASF109
C:\Users\Andrea\AppData\Local\Temp\ccxQbkaM.s:3241   .debug_str:00000707 .LASF110
C:\Users\Andrea\AppData\Local\Temp\ccxQbkaM.s:3153   .debug_str:00000443 .LASF111
C:\Users\Andrea\AppData\Local\Temp\ccxQbkaM.s:3053   .debug_str:0000014d .LASF112
C:\Users\Andrea\AppData\Local\Temp\ccxQbkaM.s:3027   .debug_str:000000a3 .LASF113
C:\Users\Andrea\AppData\Local\Temp\ccxQbkaM.s:3213   .debug_str:00000622 .LASF114
C:\Users\Andrea\AppData\Local\Temp\ccxQbkaM.s:3131   .debug_str:000003bb .LASF115
C:\Users\Andrea\AppData\Local\Temp\ccxQbkaM.s:3009   .debug_str:00000000 .LASF116
C:\Users\Andrea\AppData\Local\Temp\ccxQbkaM.s:3323   .debug_str:0000099f .LASF117
C:\Users\Andrea\AppData\Local\Temp\ccxQbkaM.s:3089   .debug_str:00000238 .LASF118
C:\Users\Andrea\AppData\Local\Temp\ccxQbkaM.s:3275   .debug_str:00000851 .LASF119
C:\Users\Andrea\AppData\Local\Temp\ccxQbkaM.s:3321   .debug_str:00000999 .LASF120
C:\Users\Andrea\AppData\Local\Temp\ccxQbkaM.s:3229   .debug_str:000006a4 .LASF121
C:\Users\Andrea\AppData\Local\Temp\ccxQbkaM.s:3243   .debug_str:00000713 .LASF122
C:\Users\Andrea\AppData\Local\Temp\ccxQbkaM.s:3325   .debug_str:000009b5 .LASF123
C:\Users\Andrea\AppData\Local\Temp\ccxQbkaM.s:3063   .debug_str:0000019c .LASF124
C:\Users\Andrea\AppData\Local\Temp\ccxQbkaM.s:3313   .debug_str:00000963 .LASF125
C:\Users\Andrea\AppData\Local\Temp\ccxQbkaM.s:3337   .debug_str:00000a19 .LASF126
C:\Users\Andrea\AppData\Local\Temp\ccxQbkaM.s:3265   .debug_str:000007c9 .LASF139
C:\Users\Andrea\AppData\Local\Temp\ccxQbkaM.s:28     .text.BCP_InitChSync:00000010 .LFE0
C:\Users\Andrea\AppData\Local\Temp\ccxQbkaM.s:2579   .debug_loc:00000000 .LLST0
C:\Users\Andrea\AppData\Local\Temp\ccxQbkaM.s:3289   .debug_str:000008b1 .LASF129
C:\Users\Andrea\AppData\Local\Temp\ccxQbkaM.s:53     .text.BCM_CountersUpdater:0000001f .LFE1
C:\Users\Andrea\AppData\Local\Temp\ccxQbkaM.s:3257   .debug_str:0000078f .LASF127
C:\Users\Andrea\AppData\Local\Temp\ccxQbkaM.s:2593   .debug_loc:00000021 .LLST1
C:\Users\Andrea\AppData\Local\Temp\ccxQbkaM.s:3187   .debug_str:00000555 .LASF128
C:\Users\Andrea\AppData\Local\Temp\ccxQbkaM.s:3133   .debug_str:000003d0 .LASF130
C:\Users\Andrea\AppData\Local\Temp\ccxQbkaM.s:133    .text.BCP_BusMonitor:00000060 .LFE2
C:\Users\Andrea\AppData\Local\Temp\ccxQbkaM.s:63     .text.BCP_BusMonitor:00000004 .LVL4
C:\Users\Andrea\AppData\Local\Temp\ccxQbkaM.s:70     .text.BCP_BusMonitor:0000000f .LVL5
C:\Users\Andrea\AppData\Local\Temp\ccxQbkaM.s:75     .text.BCP_BusMonitor:00000014 .LVL6
C:\Users\Andrea\AppData\Local\Temp\ccxQbkaM.s:82     .text.BCP_BusMonitor:0000001f .LVL7
C:\Users\Andrea\AppData\Local\Temp\ccxQbkaM.s:87     .text.BCP_BusMonitor:00000024 .LVL8
C:\Users\Andrea\AppData\Local\Temp\ccxQbkaM.s:94     .text.BCP_BusMonitor:00000030 .LVL9
C:\Users\Andrea\AppData\Local\Temp\ccxQbkaM.s:97     .text.BCP_BusMonitor:00000034 .LVL10
C:\Users\Andrea\AppData\Local\Temp\ccxQbkaM.s:102    .text.BCP_BusMonitor:00000038 .LVL11
C:\Users\Andrea\AppData\Local\Temp\ccxQbkaM.s:109    .text.BCP_BusMonitor:00000044 .LVL12
C:\Users\Andrea\AppData\Local\Temp\ccxQbkaM.s:112    .text.BCP_BusMonitor:00000048 .LVL13
C:\Users\Andrea\AppData\Local\Temp\ccxQbkaM.s:117    .text.BCP_BusMonitor:0000004c .LVL14
C:\Users\Andrea\AppData\Local\Temp\ccxQbkaM.s:124    .text.BCP_BusMonitor:00000058 .LVL15
C:\Users\Andrea\AppData\Local\Temp\ccxQbkaM.s:127    .text.BCP_BusMonitor:0000005c .LVL16
C:\Users\Andrea\AppData\Local\Temp\ccxQbkaM.s:132    .text.BCP_BusMonitor:00000060 .LVL17
C:\Users\Andrea\AppData\Local\Temp\ccxQbkaM.s:3177   .debug_str:000004f4 .LASF131
C:\Users\Andrea\AppData\Local\Temp\ccxQbkaM.s:173    .text.CP_SlaveManager__Read_ApplData:00000025 .LFE3
C:\Users\Andrea\AppData\Local\Temp\ccxQbkaM.s:2607   .debug_loc:00000042 .LLST2
C:\Users\Andrea\AppData\Local\Temp\ccxQbkaM.s:2620   .debug_loc:00000062 .LLST3
C:\Users\Andrea\AppData\Local\Temp\ccxQbkaM.s:3021   .debug_str:0000007e .LASF132
C:\Users\Andrea\AppData\Local\Temp\ccxQbkaM.s:2634   .debug_loc:00000083 .LLST4
C:\Users\Andrea\AppData\Local\Temp\ccxQbkaM.s:3085   .debug_str:00000226 .LASF133
C:\Users\Andrea\AppData\Local\Temp\ccxQbkaM.s:3317   .debug_str:00000981 .LASF134
C:\Users\Andrea\AppData\Local\Temp\ccxQbkaM.s:3129   .debug_str:000003b4 .LASF135
C:\Users\Andrea\AppData\Local\Temp\ccxQbkaM.s:3185   .debug_str:00000535 .LASF136
C:\Users\Andrea\AppData\Local\Temp\ccxQbkaM.s:213    .text.CP_SlaveManager__Write_ApplData:00000029 .LFE4
C:\Users\Andrea\AppData\Local\Temp\ccxQbkaM.s:2648   .debug_loc:000000a4 .LLST5
C:\Users\Andrea\AppData\Local\Temp\ccxQbkaM.s:2666   .debug_loc:000000d0 .LLST6
C:\Users\Andrea\AppData\Local\Temp\ccxQbkaM.s:2686   .debug_loc:000000fe .LLST7
C:\Users\Andrea\AppData\Local\Temp\ccxQbkaM.s:2700   .debug_loc:0000011f .LLST8
C:\Users\Andrea\AppData\Local\Temp\ccxQbkaM.s:3113   .debug_str:00000323 .LASF137
C:\Users\Andrea\AppData\Local\Temp\ccxQbkaM.s:251    .text.BCP_SlaveManager__Read_ApplData:0000002a .LFE5
C:\Users\Andrea\AppData\Local\Temp\ccxQbkaM.s:2718   .debug_loc:0000014b .LLST9
C:\Users\Andrea\AppData\Local\Temp\ccxQbkaM.s:3103   .debug_str:000002c9 .LASF138
C:\Users\Andrea\AppData\Local\Temp\ccxQbkaM.s:285    .text.BCP_SlaveManager__Write_ApplData:00000029 .LFE6
C:\Users\Andrea\AppData\Local\Temp\ccxQbkaM.s:2732   .debug_loc:0000016c .LLST10
C:\Users\Andrea\AppData\Local\Temp\ccxQbkaM.s:2746   .debug_loc:0000018d .LLST11
C:\Users\Andrea\AppData\Local\Temp\ccxQbkaM.s:2764   .debug_loc:000001b9 .LLST12
C:\Users\Andrea\AppData\Local\Temp\ccxQbkaM.s:2778   .debug_loc:000001da .LLST13
C:\Users\Andrea\AppData\Local\Temp\ccxQbkaM.s:3023   .debug_str:00000086 .LASF140
C:\Users\Andrea\AppData\Local\Temp\ccxQbkaM.s:340    .text.PP_MappingGetOffset:00000036 .LFE7
C:\Users\Andrea\AppData\Local\Temp\ccxQbkaM.s:2792   .debug_loc:000001fb .LLST14
C:\Users\Andrea\AppData\Local\Temp\ccxQbkaM.s:3137   .debug_str:000003ea .LASF141
C:\Users\Andrea\AppData\Local\Temp\ccxQbkaM.s:2805   .debug_loc:0000021b .LLST15
C:\Users\Andrea\AppData\Local\Temp\ccxQbkaM.s:3101   .debug_str:000002c4 .LASF142
C:\Users\Andrea\AppData\Local\Temp\ccxQbkaM.s:3039   .debug_str:000000fe .LASF143
C:\Users\Andrea\AppData\Local\Temp\ccxQbkaM.s:2819   .debug_loc:0000023c .LLST16
C:\Users\Andrea\AppData\Local\Temp\ccxQbkaM.s:3121   .debug_str:00000381 .LASF144
C:\Users\Andrea\AppData\Local\Temp\ccxQbkaM.s:2833   .debug_loc:0000025d .LLST17
C:\Users\Andrea\AppData\Local\Temp\ccxQbkaM.s:3267   .debug_str:000007d8 .LASF145
C:\Users\Andrea\AppData\Local\Temp\ccxQbkaM.s:3251   .debug_str:0000074e .LASF146
C:\Users\Andrea\AppData\Local\Temp\ccxQbkaM.s:396    .text.PP_IsAccessAllowed:00000035 .LFE8
C:\Users\Andrea\AppData\Local\Temp\ccxQbkaM.s:2844   .debug_loc:0000027b .LLST18
C:\Users\Andrea\AppData\Local\Temp\ccxQbkaM.s:3143   .debug_str:00000408 .LASF147
C:\Users\Andrea\AppData\Local\Temp\ccxQbkaM.s:2858   .debug_loc:0000029c .LLST19
C:\Users\Andrea\AppData\Local\Temp\ccxQbkaM.s:2869   .debug_loc:000002ba .LLST20
C:\Users\Andrea\AppData\Local\Temp\ccxQbkaM.s:3179   .debug_str:00000513 .LASF150
C:\Users\Andrea\AppData\Local\Temp\ccxQbkaM.s:3011   .debug_str:00000011 .LASF148
C:\Users\Andrea\AppData\Local\Temp\ccxQbkaM.s:455    .text.PP_MappingGetPPAddr:00000037 .LFE9
C:\Users\Andrea\AppData\Local\Temp\ccxQbkaM.s:3175   .debug_str:000004eb .LASF149
C:\Users\Andrea\AppData\Local\Temp\ccxQbkaM.s:2883   .debug_loc:000002db .LLST21
C:\Users\Andrea\AppData\Local\Temp\ccxQbkaM.s:2908   .debug_loc:00000315 .LLST22
C:\Users\Andrea\AppData\Local\Temp\ccxQbkaM.s:2922   .debug_loc:00000336 .LLST23
C:\Users\Andrea\AppData\Local\Temp\ccxQbkaM.s:3025   .debug_str:0000009a .LASF151
C:\Users\Andrea\AppData\Local\Temp\ccxQbkaM.s:2929   .debug_loc:00000349 .LLST24
C:\Users\Andrea\AppData\Local\Temp\ccxQbkaM.s:3277   .debug_str:00000858 .LASF152
C:\Users\Andrea\AppData\Local\Temp\ccxQbkaM.s:3095   .debug_str:00000284 .LASF153
C:\Users\Andrea\AppData\Local\Temp\ccxQbkaM.s:3297   .debug_str:000008eb .LASF154
C:\Users\Andrea\AppData\Local\Temp\ccxQbkaM.s:3309   .debug_str:0000092e .LASF155
C:\Users\Andrea\AppData\Local\Temp\ccxQbkaM.s:3189   .debug_str:0000055d .LASF156
C:\Users\Andrea\AppData\Local\Temp\ccxQbkaM.s:3099   .debug_str:000002a7 .LASF157
C:\Users\Andrea\AppData\Local\Temp\ccxQbkaM.s:3127   .debug_str:000003a3 .LASF164
C:\Users\Andrea\AppData\Local\Temp\ccxQbkaM.s:3165   .debug_str:00000489 .LASF158
C:\Users\Andrea\AppData\Local\Temp\ccxQbkaM.s:3057   .debug_str:00000168 .LASF159
C:\Users\Andrea\AppData\Local\Temp\ccxQbkaM.s:3013   .debug_str:00000025 .LASF160
C:\Users\Andrea\AppData\Local\Temp\ccxQbkaM.s:11     .text.BCP_InitChSync:00000000 .LVL0
C:\Users\Andrea\AppData\Local\Temp\ccxQbkaM.s:18     .text.BCP_InitChSync:00000009 .LVL1
C:\Users\Andrea\AppData\Local\Temp\ccxQbkaM.s:36     .text.BCM_CountersUpdater:00000000 .LVL2
C:\Users\Andrea\AppData\Local\Temp\ccxQbkaM.s:42     .text.BCM_CountersUpdater:0000000c .LVL3
C:\Users\Andrea\AppData\Local\Temp\ccxQbkaM.s:143    .text.CP_SlaveManager__Read_ApplData:00000002 .LCFI0
C:\Users\Andrea\AppData\Local\Temp\ccxQbkaM.s:141    .text.CP_SlaveManager__Read_ApplData:00000000 .LVL18
C:\Users\Andrea\AppData\Local\Temp\ccxQbkaM.s:153    .text.CP_SlaveManager__Read_ApplData:00000010 .LVL20
C:\Users\Andrea\AppData\Local\Temp\ccxQbkaM.s:150    .text.CP_SlaveManager__Read_ApplData:0000000d .LVL19
C:\Users\Andrea\AppData\Local\Temp\ccxQbkaM.s:183    .text.CP_SlaveManager__Write_ApplData:00000002 .LCFI1
C:\Users\Andrea\AppData\Local\Temp\ccxQbkaM.s:185    .text.CP_SlaveManager__Write_ApplData:00000004 .LCFI2
C:\Users\Andrea\AppData\Local\Temp\ccxQbkaM.s:181    .text.CP_SlaveManager__Write_ApplData:00000000 .LVL21
C:\Users\Andrea\AppData\Local\Temp\ccxQbkaM.s:202    .text.CP_SlaveManager__Write_ApplData:0000001f .LVL22
C:\Users\Andrea\AppData\Local\Temp\ccxQbkaM.s:208    .text.CP_SlaveManager__Write_ApplData:00000025 .LVL25
C:\Users\Andrea\AppData\Local\Temp\ccxQbkaM.s:204    .text.CP_SlaveManager__Write_ApplData:00000021 .LVL23
C:\Users\Andrea\AppData\Local\Temp\ccxQbkaM.s:206    .text.CP_SlaveManager__Write_ApplData:00000023 .LVL24
C:\Users\Andrea\AppData\Local\Temp\ccxQbkaM.s:221    .text.BCP_SlaveManager__Read_ApplData:00000000 .LVL26
C:\Users\Andrea\AppData\Local\Temp\ccxQbkaM.s:227    .text.BCP_SlaveManager__Read_ApplData:00000008 .LVL27
C:\Users\Andrea\AppData\Local\Temp\ccxQbkaM.s:259    .text.BCP_SlaveManager__Write_ApplData:00000000 .LVL28
C:\Users\Andrea\AppData\Local\Temp\ccxQbkaM.s:263    .text.BCP_SlaveManager__Write_ApplData:00000005 .LVL29
C:\Users\Andrea\AppData\Local\Temp\ccxQbkaM.s:278    .text.BCP_SlaveManager__Write_ApplData:00000023 .LVL30
C:\Users\Andrea\AppData\Local\Temp\ccxQbkaM.s:282    .text.BCP_SlaveManager__Write_ApplData:00000028 .LVL32
C:\Users\Andrea\AppData\Local\Temp\ccxQbkaM.s:280    .text.BCP_SlaveManager__Write_ApplData:00000026 .LVL31
C:\Users\Andrea\AppData\Local\Temp\ccxQbkaM.s:295    .text.PP_MappingGetOffset:00000002 .LCFI3
C:\Users\Andrea\AppData\Local\Temp\ccxQbkaM.s:293    .text.PP_MappingGetOffset:00000000 .LVL33
C:\Users\Andrea\AppData\Local\Temp\ccxQbkaM.s:338    .text.PP_MappingGetOffset:00000034 .LVL36
C:\Users\Andrea\AppData\Local\Temp\ccxQbkaM.s:301    .text.PP_MappingGetOffset:0000000a .LVL34
C:\Users\Andrea\AppData\Local\Temp\ccxQbkaM.s:327    .text.PP_MappingGetOffset:00000029 .LVL35
C:\Users\Andrea\AppData\Local\Temp\ccxQbkaM.s:348    .text.PP_IsAccessAllowed:00000000 .LVL37
C:\Users\Andrea\AppData\Local\Temp\ccxQbkaM.s:359    .text.PP_IsAccessAllowed:0000000d .LVL40
C:\Users\Andrea\AppData\Local\Temp\ccxQbkaM.s:384    .text.PP_IsAccessAllowed:00000029 .LVL41
C:\Users\Andrea\AppData\Local\Temp\ccxQbkaM.s:356    .text.PP_IsAccessAllowed:00000009 .LVL39
C:\Users\Andrea\AppData\Local\Temp\ccxQbkaM.s:404    .text.PP_MappingGetPPAddr:00000000 .LVL42
C:\Users\Andrea\AppData\Local\Temp\ccxQbkaM.s:434    .text.PP_MappingGetPPAddr:00000024 .LVL45
C:\Users\Andrea\AppData\Local\Temp\ccxQbkaM.s:437    .text.PP_MappingGetPPAddr:00000026 .LVL46
C:\Users\Andrea\AppData\Local\Temp\ccxQbkaM.s:449    .text.PP_MappingGetPPAddr:00000033 .LVL47
C:\Users\Andrea\AppData\Local\Temp\ccxQbkaM.s:409    .text.PP_MappingGetPPAddr:00000006 .LVL43
C:\Users\Andrea\AppData\Local\Temp\ccxQbkaM.s:414    .text.PP_MappingGetPPAddr:0000000a .LVL44
C:\Users\Andrea\AppData\Local\Temp\ccxQbkaM.s:605    .debug_info:00000000 .Ldebug_info0

UNDEFINED SYMBOLS
_OCI2C_Level1BlockMonitorSync
_OCI2C_Level2BlockMonitorSync
_OCI2C_Level3BlockMonitorSync
_OCI2C_InitHwSync
_OCI2C_Level4BlockMonitorSync
_OCI2C_Level5BlockMonitorSync
_OCI2C_Level6BlockMonitorSync
_BCP_ChannelTable
