   1                             		.file	"BusCommPltf_cfg.c"
   2                             		.section P,"ax"
   3                             	.Ltext0:
   4                             		.section	.text.EndOfPowerProfileRequest,"ax",@progbits
   6                             	_EndOfPowerProfileRequest:
   7                             	.LFB15:
   8                             		.file 1 "C:/Workspace/FW_Inertia/branch_indesit/CFG_DishWasher/CFG_Inertia/BusCommPltf_cfg.c"
   1:C:/Workspace/FW_Inertia/branch_indesit/CFG_DishWasher/CFG_Inertia\BusCommPltf_cfg.c **** /*
   2:C:/Workspace/FW_Inertia/branch_indesit/CFG_DishWasher/CFG_Inertia\BusCommPltf_cfg.c **** Copyright (c) 2004-2005, Indesit Company, I.D.D..
   3:C:/Workspace/FW_Inertia/branch_indesit/CFG_DishWasher/CFG_Inertia\BusCommPltf_cfg.c **** Tutti i diritti sono riservati. All rights reserved.
   4:C:/Workspace/FW_Inertia/branch_indesit/CFG_DishWasher/CFG_Inertia\BusCommPltf_cfg.c **** */
   5:C:/Workspace/FW_Inertia/branch_indesit/CFG_DishWasher/CFG_Inertia\BusCommPltf_cfg.c **** /**
   6:C:/Workspace/FW_Inertia/branch_indesit/CFG_DishWasher/CFG_Inertia\BusCommPltf_cfg.c **** \defgroup	CP_CFG Communication Platform Configuration
   7:C:/Workspace/FW_Inertia/branch_indesit/CFG_DishWasher/CFG_Inertia\BusCommPltf_cfg.c **** @{
   8:C:/Workspace/FW_Inertia/branch_indesit/CFG_DishWasher/CFG_Inertia\BusCommPltf_cfg.c **** \par		Description
   9:C:/Workspace/FW_Inertia/branch_indesit/CFG_DishWasher/CFG_Inertia\BusCommPltf_cfg.c **** \n		It contains the EmbOS-based Communication platform configuration.
  10:C:/Workspace/FW_Inertia/branch_indesit/CFG_DishWasher/CFG_Inertia\BusCommPltf_cfg.c **** @}
  11:C:/Workspace/FW_Inertia/branch_indesit/CFG_DishWasher/CFG_Inertia\BusCommPltf_cfg.c **** \ingroup WizardPrj
  12:C:/Workspace/FW_Inertia/branch_indesit/CFG_DishWasher/CFG_Inertia\BusCommPltf_cfg.c **** */
  13:C:/Workspace/FW_Inertia/branch_indesit/CFG_DishWasher/CFG_Inertia\BusCommPltf_cfg.c **** 
  14:C:/Workspace/FW_Inertia/branch_indesit/CFG_DishWasher/CFG_Inertia\BusCommPltf_cfg.c **** /**
  15:C:/Workspace/FW_Inertia/branch_indesit/CFG_DishWasher/CFG_Inertia\BusCommPltf_cfg.c **** \par		Description
  16:C:/Workspace/FW_Inertia/branch_indesit/CFG_DishWasher/CFG_Inertia\BusCommPltf_cfg.c **** \n		Application specific variables (Buffers and structures) and methods for Communication Platform
  17:C:/Workspace/FW_Inertia/branch_indesit/CFG_DishWasher/CFG_Inertia\BusCommPltf_cfg.c **** \file		BusCommPltf_cfg.c
  18:C:/Workspace/FW_Inertia/branch_indesit/CFG_DishWasher/CFG_Inertia\BusCommPltf_cfg.c **** \ingroup	CP_CFG
  19:C:/Workspace/FW_Inertia/branch_indesit/CFG_DishWasher/CFG_Inertia\BusCommPltf_cfg.c **** \date		22/01/2011
  20:C:/Workspace/FW_Inertia/branch_indesit/CFG_DishWasher/CFG_Inertia\BusCommPltf_cfg.c **** \version	01.00.00 
  21:C:/Workspace/FW_Inertia/branch_indesit/CFG_DishWasher/CFG_Inertia\BusCommPltf_cfg.c **** \author		Roberto Fioravanti
  22:C:/Workspace/FW_Inertia/branch_indesit/CFG_DishWasher/CFG_Inertia\BusCommPltf_cfg.c **** \n
  23:C:/Workspace/FW_Inertia/branch_indesit/CFG_DishWasher/CFG_Inertia\BusCommPltf_cfg.c **** \n
  24:C:/Workspace/FW_Inertia/branch_indesit/CFG_DishWasher/CFG_Inertia\BusCommPltf_cfg.c **** \par		History
  25:C:/Workspace/FW_Inertia/branch_indesit/CFG_DishWasher/CFG_Inertia\BusCommPltf_cfg.c **** \n
  26:C:/Workspace/FW_Inertia/branch_indesit/CFG_DishWasher/CFG_Inertia\BusCommPltf_cfg.c **** \n 		00.00.64
  27:C:/Workspace/FW_Inertia/branch_indesit/CFG_DishWasher/CFG_Inertia\BusCommPltf_cfg.c **** \n		22/01/2011
  28:C:/Workspace/FW_Inertia/branch_indesit/CFG_DishWasher/CFG_Inertia\BusCommPltf_cfg.c **** \n		developper Roberto Fiorvanti
  29:C:/Workspace/FW_Inertia/branch_indesit/CFG_DishWasher/CFG_Inertia\BusCommPltf_cfg.c **** \n		changes 
  30:C:/Workspace/FW_Inertia/branch_indesit/CFG_DishWasher/CFG_Inertia\BusCommPltf_cfg.c **** \n 		- creation
  31:C:/Workspace/FW_Inertia/branch_indesit/CFG_DishWasher/CFG_Inertia\BusCommPltf_cfg.c **** \n
  32:C:/Workspace/FW_Inertia/branch_indesit/CFG_DishWasher/CFG_Inertia\BusCommPltf_cfg.c **** */
  33:C:/Workspace/FW_Inertia/branch_indesit/CFG_DishWasher/CFG_Inertia\BusCommPltf_cfg.c **** 
  34:C:/Workspace/FW_Inertia/branch_indesit/CFG_DishWasher/CFG_Inertia\BusCommPltf_cfg.c **** /* ******** */
  35:C:/Workspace/FW_Inertia/branch_indesit/CFG_DishWasher/CFG_Inertia\BusCommPltf_cfg.c **** /* Includes */
  36:C:/Workspace/FW_Inertia/branch_indesit/CFG_DishWasher/CFG_Inertia\BusCommPltf_cfg.c **** /* ******** */
  37:C:/Workspace/FW_Inertia/branch_indesit/CFG_DishWasher/CFG_Inertia\BusCommPltf_cfg.c **** 
  38:C:/Workspace/FW_Inertia/branch_indesit/CFG_DishWasher/CFG_Inertia\BusCommPltf_cfg.c **** #include "StandardDefines.h"
  39:C:/Workspace/FW_Inertia/branch_indesit/CFG_DishWasher/CFG_Inertia\BusCommPltf_cfg.c **** #include "StandardTypes.h"
  40:C:/Workspace/FW_Inertia/branch_indesit/CFG_DishWasher/CFG_Inertia\BusCommPltf_cfg.c **** 
  41:C:/Workspace/FW_Inertia/branch_indesit/CFG_DishWasher/CFG_Inertia\BusCommPltf_cfg.c **** #include "BusCommPltf_cfg.h"
  42:C:/Workspace/FW_Inertia/branch_indesit/CFG_DishWasher/CFG_Inertia\BusCommPltf_cfg.c **** #include "BCP_BusCommMng.h"
  43:C:/Workspace/FW_Inertia/branch_indesit/CFG_DishWasher/CFG_Inertia\BusCommPltf_cfg.c **** 
  44:C:/Workspace/FW_Inertia/branch_indesit/CFG_DishWasher/CFG_Inertia\BusCommPltf_cfg.c **** #include "LIB_Reset.h"
  45:C:/Workspace/FW_Inertia/branch_indesit/CFG_DishWasher/CFG_Inertia\BusCommPltf_cfg.c **** #include "OutputManagerExp.h"
  46:C:/Workspace/FW_Inertia/branch_indesit/CFG_DishWasher/CFG_Inertia\BusCommPltf_cfg.c **** 
  47:C:/Workspace/FW_Inertia/branch_indesit/CFG_DishWasher/CFG_Inertia\BusCommPltf_cfg.c **** #if defined(CONFIG_LIB_EXTERNAL_BOARD_SUPPORT)
  48:C:/Workspace/FW_Inertia/branch_indesit/CFG_DishWasher/CFG_Inertia\BusCommPltf_cfg.c **** #include "ExternalOutputManagerExp.h" 
  49:C:/Workspace/FW_Inertia/branch_indesit/CFG_DishWasher/CFG_Inertia\BusCommPltf_cfg.c **** #endif
  50:C:/Workspace/FW_Inertia/branch_indesit/CFG_DishWasher/CFG_Inertia\BusCommPltf_cfg.c **** 
  51:C:/Workspace/FW_Inertia/branch_indesit/CFG_DishWasher/CFG_Inertia\BusCommPltf_cfg.c **** #include "Main.h"
  52:C:/Workspace/FW_Inertia/branch_indesit/CFG_DishWasher/CFG_Inertia\BusCommPltf_cfg.c **** #include "MainInterface.h"
  53:C:/Workspace/FW_Inertia/branch_indesit/CFG_DishWasher/CFG_Inertia\BusCommPltf_cfg.c **** #include "callback.h"
  54:C:/Workspace/FW_Inertia/branch_indesit/CFG_DishWasher/CFG_Inertia\BusCommPltf_cfg.c **** 
  55:C:/Workspace/FW_Inertia/branch_indesit/CFG_DishWasher/CFG_Inertia\BusCommPltf_cfg.c **** 
  56:C:/Workspace/FW_Inertia/branch_indesit/CFG_DishWasher/CFG_Inertia\BusCommPltf_cfg.c **** #ifdef BUS_COM_PLT_I2C_SUPPORT
  57:C:/Workspace/FW_Inertia/branch_indesit/CFG_DishWasher/CFG_Inertia\BusCommPltf_cfg.c **** #include "OCI2C_drv.h"
  58:C:/Workspace/FW_Inertia/branch_indesit/CFG_DishWasher/CFG_Inertia\BusCommPltf_cfg.c **** #endif /* BUS_COM_PLT_I2C_SUPPORT */
  59:C:/Workspace/FW_Inertia/branch_indesit/CFG_DishWasher/CFG_Inertia\BusCommPltf_cfg.c **** 
  60:C:/Workspace/FW_Inertia/branch_indesit/CFG_DishWasher/CFG_Inertia\BusCommPltf_cfg.c **** #ifdef BUS_COM_PLT_UART_SUPPORT
  61:C:/Workspace/FW_Inertia/branch_indesit/CFG_DishWasher/CFG_Inertia\BusCommPltf_cfg.c **** #include "OCUART_drv.h"
  62:C:/Workspace/FW_Inertia/branch_indesit/CFG_DishWasher/CFG_Inertia\BusCommPltf_cfg.c **** #endif /* BUS_COM_PLT_UART_SUPPORT */
  63:C:/Workspace/FW_Inertia/branch_indesit/CFG_DishWasher/CFG_Inertia\BusCommPltf_cfg.c **** 
  64:C:/Workspace/FW_Inertia/branch_indesit/CFG_DishWasher/CFG_Inertia\BusCommPltf_cfg.c **** #if 	defined(I2C_OCDMA_SUPPORT) || defined(UART_OCDMA_SUPPORT)
  65:C:/Workspace/FW_Inertia/branch_indesit/CFG_DishWasher/CFG_Inertia\BusCommPltf_cfg.c **** #include "OCDMA_drv.h"
  66:C:/Workspace/FW_Inertia/branch_indesit/CFG_DishWasher/CFG_Inertia\BusCommPltf_cfg.c **** #endif
  67:C:/Workspace/FW_Inertia/branch_indesit/CFG_DishWasher/CFG_Inertia\BusCommPltf_cfg.c **** #include "OCFLS_drv.h"
  68:C:/Workspace/FW_Inertia/branch_indesit/CFG_DishWasher/CFG_Inertia\BusCommPltf_cfg.c **** 
  69:C:/Workspace/FW_Inertia/branch_indesit/CFG_DishWasher/CFG_Inertia\BusCommPltf_cfg.c **** #include "Lib_Utilities.h"
  70:C:/Workspace/FW_Inertia/branch_indesit/CFG_DishWasher/CFG_Inertia\BusCommPltf_cfg.c **** 
  71:C:/Workspace/FW_Inertia/branch_indesit/CFG_DishWasher/CFG_Inertia\BusCommPltf_cfg.c **** #ifdef CONFIG_PM_POWER_PROFILE_SUPPORT
  72:C:/Workspace/FW_Inertia/branch_indesit/CFG_DishWasher/CFG_Inertia\BusCommPltf_cfg.c **** #include "PM_PowerProfile.h"
  73:C:/Workspace/FW_Inertia/branch_indesit/CFG_DishWasher/CFG_Inertia\BusCommPltf_cfg.c **** #endif /* CONFIG_PM_POWER_PROFILE_SUPPORT */
  74:C:/Workspace/FW_Inertia/branch_indesit/CFG_DishWasher/CFG_Inertia\BusCommPltf_cfg.c **** 
  75:C:/Workspace/FW_Inertia/branch_indesit/CFG_DishWasher/CFG_Inertia\BusCommPltf_cfg.c **** #if defined(CONFIG_PM_ENERGY_METER_SW)
  76:C:/Workspace/FW_Inertia/branch_indesit/CFG_DishWasher/CFG_Inertia\BusCommPltf_cfg.c **** #include "PM_EnergyMeterSw.h"
  77:C:/Workspace/FW_Inertia/branch_indesit/CFG_DishWasher/CFG_Inertia\BusCommPltf_cfg.c **** #endif /*defined(CONFIG_PM_ENERGY_METER_SW)*/
  78:C:/Workspace/FW_Inertia/branch_indesit/CFG_DishWasher/CFG_Inertia\BusCommPltf_cfg.c **** 
  79:C:/Workspace/FW_Inertia/branch_indesit/CFG_DishWasher/CFG_Inertia\BusCommPltf_cfg.c **** #include "Tools.h"
  80:C:/Workspace/FW_Inertia/branch_indesit/CFG_DishWasher/CFG_Inertia\BusCommPltf_cfg.c **** 
  81:C:/Workspace/FW_Inertia/branch_indesit/CFG_DishWasher/CFG_Inertia\BusCommPltf_cfg.c **** #include "LIB_ClassBVar.h"
  82:C:/Workspace/FW_Inertia/branch_indesit/CFG_DishWasher/CFG_Inertia\BusCommPltf_cfg.c **** 
  83:C:/Workspace/FW_Inertia/branch_indesit/CFG_DishWasher/CFG_Inertia\BusCommPltf_cfg.c **** extern bool_t CBF_CurrentLoadedWater(uint32_t * LoadedWater); /*AE TODO LOCAL FOR NOW*/
  84:C:/Workspace/FW_Inertia/branch_indesit/CFG_DishWasher/CFG_Inertia\BusCommPltf_cfg.c **** 
  85:C:/Workspace/FW_Inertia/branch_indesit/CFG_DishWasher/CFG_Inertia\BusCommPltf_cfg.c **** /* ****************** */
  86:C:/Workspace/FW_Inertia/branch_indesit/CFG_DishWasher/CFG_Inertia\BusCommPltf_cfg.c **** /* Defines and Macros */
  87:C:/Workspace/FW_Inertia/branch_indesit/CFG_DishWasher/CFG_Inertia\BusCommPltf_cfg.c **** /* ****************** */
  88:C:/Workspace/FW_Inertia/branch_indesit/CFG_DishWasher/CFG_Inertia\BusCommPltf_cfg.c **** 
  89:C:/Workspace/FW_Inertia/branch_indesit/CFG_DishWasher/CFG_Inertia\BusCommPltf_cfg.c **** 
  90:C:/Workspace/FW_Inertia/branch_indesit/CFG_DishWasher/CFG_Inertia\BusCommPltf_cfg.c **** #if defined(CONFIG_LIB_EXTERNAL_BOARD_SUPPORT)
  91:C:/Workspace/FW_Inertia/branch_indesit/CFG_DishWasher/CFG_Inertia\BusCommPltf_cfg.c **** /* External board protocol */
  92:C:/Workspace/FW_Inertia/branch_indesit/CFG_DishWasher/CFG_Inertia\BusCommPltf_cfg.c **** #define EXT_PROT_CMD_SID_SIZE				              (1)
  93:C:/Workspace/FW_Inertia/branch_indesit/CFG_DishWasher/CFG_Inertia\BusCommPltf_cfg.c **** #define EXT_PROT_TOOL_ID_REQ_SIZE		                  (1)
  94:C:/Workspace/FW_Inertia/branch_indesit/CFG_DishWasher/CFG_Inertia\BusCommPltf_cfg.c **** #endif	/* defined(CONFIG_LIB_EXTERNAL_BOARD_SUPPORT) */
  95:C:/Workspace/FW_Inertia/branch_indesit/CFG_DishWasher/CFG_Inertia\BusCommPltf_cfg.c **** 
  96:C:/Workspace/FW_Inertia/branch_indesit/CFG_DishWasher/CFG_Inertia\BusCommPltf_cfg.c **** /**
  97:C:/Workspace/FW_Inertia/branch_indesit/CFG_DishWasher/CFG_Inertia\BusCommPltf_cfg.c **** EmbOS CP task events */
  98:C:/Workspace/FW_Inertia/branch_indesit/CFG_DishWasher/CFG_Inertia\BusCommPltf_cfg.c **** enum OS_CP_Events{
  99:C:/Workspace/FW_Inertia/branch_indesit/CFG_DishWasher/CFG_Inertia\BusCommPltf_cfg.c **** /**
 100:C:/Workspace/FW_Inertia/branch_indesit/CFG_DishWasher/CFG_Inertia\BusCommPltf_cfg.c **** I2C
 101:C:/Workspace/FW_Inertia/branch_indesit/CFG_DishWasher/CFG_Inertia\BusCommPltf_cfg.c **** */
 102:C:/Workspace/FW_Inertia/branch_indesit/CFG_DishWasher/CFG_Inertia\BusCommPltf_cfg.c **** MAIN_OS_EVENT_I2C_BIT=0,
 103:C:/Workspace/FW_Inertia/branch_indesit/CFG_DishWasher/CFG_Inertia\BusCommPltf_cfg.c **** /**
 104:C:/Workspace/FW_Inertia/branch_indesit/CFG_DishWasher/CFG_Inertia\BusCommPltf_cfg.c **** Uart
 105:C:/Workspace/FW_Inertia/branch_indesit/CFG_DishWasher/CFG_Inertia\BusCommPltf_cfg.c **** */
 106:C:/Workspace/FW_Inertia/branch_indesit/CFG_DishWasher/CFG_Inertia\BusCommPltf_cfg.c **** MAIN_OS_EVENT_UART_BIT
 107:C:/Workspace/FW_Inertia/branch_indesit/CFG_DishWasher/CFG_Inertia\BusCommPltf_cfg.c **** };
 108:C:/Workspace/FW_Inertia/branch_indesit/CFG_DishWasher/CFG_Inertia\BusCommPltf_cfg.c **** 
 109:C:/Workspace/FW_Inertia/branch_indesit/CFG_DishWasher/CFG_Inertia\BusCommPltf_cfg.c **** 
 110:C:/Workspace/FW_Inertia/branch_indesit/CFG_DishWasher/CFG_Inertia\BusCommPltf_cfg.c **** #define MAIN_OS_EVENT_I2C     ((OS_TASK_EVENT)(1<<MAIN_OS_EVENT_I2C_BIT))
 111:C:/Workspace/FW_Inertia/branch_indesit/CFG_DishWasher/CFG_Inertia\BusCommPltf_cfg.c **** #define MAIN_OS_EVENT_UART    ((OS_TASK_EVENT)(1<<MAIN_OS_EVENT_UART_BIT))
 112:C:/Workspace/FW_Inertia/branch_indesit/CFG_DishWasher/CFG_Inertia\BusCommPltf_cfg.c **** 
 113:C:/Workspace/FW_Inertia/branch_indesit/CFG_DishWasher/CFG_Inertia\BusCommPltf_cfg.c **** 
 114:C:/Workspace/FW_Inertia/branch_indesit/CFG_DishWasher/CFG_Inertia\BusCommPltf_cfg.c **** /* *****************************************
 115:C:/Workspace/FW_Inertia/branch_indesit/CFG_DishWasher/CFG_Inertia\BusCommPltf_cfg.c **** **	Extended Types Data buffer dimension
 116:C:/Workspace/FW_Inertia/branch_indesit/CFG_DishWasher/CFG_Inertia\BusCommPltf_cfg.c **** */
 117:C:/Workspace/FW_Inertia/branch_indesit/CFG_DishWasher/CFG_Inertia\BusCommPltf_cfg.c **** 
 118:C:/Workspace/FW_Inertia/branch_indesit/CFG_DishWasher/CFG_Inertia\BusCommPltf_cfg.c **** 
 119:C:/Workspace/FW_Inertia/branch_indesit/CFG_DishWasher/CFG_Inertia\BusCommPltf_cfg.c **** /* *************************** */
 120:C:/Workspace/FW_Inertia/branch_indesit/CFG_DishWasher/CFG_Inertia\BusCommPltf_cfg.c **** /* Typedef, Structs and Unions */
 121:C:/Workspace/FW_Inertia/branch_indesit/CFG_DishWasher/CFG_Inertia\BusCommPltf_cfg.c **** /* *************************** */
 122:C:/Workspace/FW_Inertia/branch_indesit/CFG_DishWasher/CFG_Inertia\BusCommPltf_cfg.c **** 
 123:C:/Workspace/FW_Inertia/branch_indesit/CFG_DishWasher/CFG_Inertia\BusCommPltf_cfg.c **** /* ********* */
 124:C:/Workspace/FW_Inertia/branch_indesit/CFG_DishWasher/CFG_Inertia\BusCommPltf_cfg.c **** /* Variables */
 125:C:/Workspace/FW_Inertia/branch_indesit/CFG_DishWasher/CFG_Inertia\BusCommPltf_cfg.c **** /* ********* */
 126:C:/Workspace/FW_Inertia/branch_indesit/CFG_DishWasher/CFG_Inertia\BusCommPltf_cfg.c **** 
 127:C:/Workspace/FW_Inertia/branch_indesit/CFG_DishWasher/CFG_Inertia\BusCommPltf_cfg.c **** 
 128:C:/Workspace/FW_Inertia/branch_indesit/CFG_DishWasher/CFG_Inertia\BusCommPltf_cfg.c **** /* Exported */
 129:C:/Workspace/FW_Inertia/branch_indesit/CFG_DishWasher/CFG_Inertia\BusCommPltf_cfg.c **** 
 130:C:/Workspace/FW_Inertia/branch_indesit/CFG_DishWasher/CFG_Inertia\BusCommPltf_cfg.c **** /* Vpeak normalized for Energy Meter => nominal is 230V */
 131:C:/Workspace/FW_Inertia/branch_indesit/CFG_DishWasher/CFG_Inertia\BusCommPltf_cfg.c **** uint32_t	normVpeak = (((230 * 1414) / 1000 ) * 65535 / 444 );
 132:C:/Workspace/FW_Inertia/branch_indesit/CFG_DishWasher/CFG_Inertia\BusCommPltf_cfg.c **** 
 133:C:/Workspace/FW_Inertia/branch_indesit/CFG_DishWasher/CFG_Inertia\BusCommPltf_cfg.c **** /* Static */
 134:C:/Workspace/FW_Inertia/branch_indesit/CFG_DishWasher/CFG_Inertia\BusCommPltf_cfg.c **** /**
 135:C:/Workspace/FW_Inertia/branch_indesit/CFG_DishWasher/CFG_Inertia\BusCommPltf_cfg.c **** @name Memory remap tables
 136:C:/Workspace/FW_Inertia/branch_indesit/CFG_DishWasher/CFG_Inertia\BusCommPltf_cfg.c **** Tables to adapt 16-bit address coming from protocol to 32-bit memory space.
 137:C:/Workspace/FW_Inertia/branch_indesit/CFG_DishWasher/CFG_Inertia\BusCommPltf_cfg.c **** \par Property
 138:C:/Workspace/FW_Inertia/branch_indesit/CFG_DishWasher/CFG_Inertia\BusCommPltf_cfg.c **** (target depentent)
 139:C:/Workspace/FW_Inertia/branch_indesit/CFG_DishWasher/CFG_Inertia\BusCommPltf_cfg.c **** @{
 140:C:/Workspace/FW_Inertia/branch_indesit/CFG_DishWasher/CFG_Inertia\BusCommPltf_cfg.c **** */
 141:C:/Workspace/FW_Inertia/branch_indesit/CFG_DishWasher/CFG_Inertia\BusCommPltf_cfg.c **** /**
 142:C:/Workspace/FW_Inertia/branch_indesit/CFG_DishWasher/CFG_Inertia\BusCommPltf_cfg.c **** remap table for 'read command'
 143:C:/Workspace/FW_Inertia/branch_indesit/CFG_DishWasher/CFG_Inertia\BusCommPltf_cfg.c **** \li 16-bit addesses from 0x0000 to 0x3FFF are mapped to ram
 144:C:/Workspace/FW_Inertia/branch_indesit/CFG_DishWasher/CFG_Inertia\BusCommPltf_cfg.c **** \li 16-bit addesses from 0x4000 to 0xFFFF are mapped to rom
 145:C:/Workspace/FW_Inertia/branch_indesit/CFG_DishWasher/CFG_Inertia\BusCommPltf_cfg.c **** */
 146:C:/Workspace/FW_Inertia/branch_indesit/CFG_DishWasher/CFG_Inertia\BusCommPltf_cfg.c **** #if defined(FREESCALE_MCF51_AG128)
 147:C:/Workspace/FW_Inertia/branch_indesit/CFG_DishWasher/CFG_Inertia\BusCommPltf_cfg.c **** static PP_RemapTableType const RFRemapTable[3]=
 148:C:/Workspace/FW_Inertia/branch_indesit/CFG_DishWasher/CFG_Inertia\BusCommPltf_cfg.c **** {
 149:C:/Workspace/FW_Inertia/branch_indesit/CFG_DishWasher/CFG_Inertia\BusCommPltf_cfg.c ****   REMAP_READ_RAM_BLOCK,
 150:C:/Workspace/FW_Inertia/branch_indesit/CFG_DishWasher/CFG_Inertia\BusCommPltf_cfg.c ****   REMAP_READ_BOOT_ROM_BLOCK,
 151:C:/Workspace/FW_Inertia/branch_indesit/CFG_DishWasher/CFG_Inertia\BusCommPltf_cfg.c ****   REMAP_READ_ROM_BLOCK
 152:C:/Workspace/FW_Inertia/branch_indesit/CFG_DishWasher/CFG_Inertia\BusCommPltf_cfg.c **** };
 153:C:/Workspace/FW_Inertia/branch_indesit/CFG_DishWasher/CFG_Inertia\BusCommPltf_cfg.c **** #endif
 154:C:/Workspace/FW_Inertia/branch_indesit/CFG_DishWasher/CFG_Inertia\BusCommPltf_cfg.c **** #if defined(NXP_LPC12xx_1227)
 155:C:/Workspace/FW_Inertia/branch_indesit/CFG_DishWasher/CFG_Inertia\BusCommPltf_cfg.c **** static PP_RemapTableType const RFRemapTable[2]=
 156:C:/Workspace/FW_Inertia/branch_indesit/CFG_DishWasher/CFG_Inertia\BusCommPltf_cfg.c **** {
 157:C:/Workspace/FW_Inertia/branch_indesit/CFG_DishWasher/CFG_Inertia\BusCommPltf_cfg.c ****   REMAP_READ_RAM_BLOCK,
 158:C:/Workspace/FW_Inertia/branch_indesit/CFG_DishWasher/CFG_Inertia\BusCommPltf_cfg.c ****   REMAP_READ_ROM_BLOCK
 159:C:/Workspace/FW_Inertia/branch_indesit/CFG_DishWasher/CFG_Inertia\BusCommPltf_cfg.c **** };
 160:C:/Workspace/FW_Inertia/branch_indesit/CFG_DishWasher/CFG_Inertia\BusCommPltf_cfg.c **** #endif
 161:C:/Workspace/FW_Inertia/branch_indesit/CFG_DishWasher/CFG_Inertia\BusCommPltf_cfg.c **** #if defined (RN_RX200_R5F5210) || defined (RN_RX200_R5F52Z0)
 162:C:/Workspace/FW_Inertia/branch_indesit/CFG_DishWasher/CFG_Inertia\BusCommPltf_cfg.c **** static PP_RemapTableType const RFRemapTable[4]=
 163:C:/Workspace/FW_Inertia/branch_indesit/CFG_DishWasher/CFG_Inertia\BusCommPltf_cfg.c **** {
 164:C:/Workspace/FW_Inertia/branch_indesit/CFG_DishWasher/CFG_Inertia\BusCommPltf_cfg.c **** 	{ REMAP_READ_RAM_BLOCK },
 165:C:/Workspace/FW_Inertia/branch_indesit/CFG_DishWasher/CFG_Inertia\BusCommPltf_cfg.c **** 	{ REMAP_READ_BOOT_ROM_BLOCK },
 166:C:/Workspace/FW_Inertia/branch_indesit/CFG_DishWasher/CFG_Inertia\BusCommPltf_cfg.c **** 	{ REMAP_READ_ROM_BLOCK },
 167:C:/Workspace/FW_Inertia/branch_indesit/CFG_DishWasher/CFG_Inertia\BusCommPltf_cfg.c **** 	{ REMAP_READ_DATA_BLOCK }
 168:C:/Workspace/FW_Inertia/branch_indesit/CFG_DishWasher/CFG_Inertia\BusCommPltf_cfg.c **** };
 169:C:/Workspace/FW_Inertia/branch_indesit/CFG_DishWasher/CFG_Inertia\BusCommPltf_cfg.c **** 
 170:C:/Workspace/FW_Inertia/branch_indesit/CFG_DishWasher/CFG_Inertia\BusCommPltf_cfg.c **** static PP_MemoryRangeType const ProtocolReadingAccessTable[3]=
 171:C:/Workspace/FW_Inertia/branch_indesit/CFG_DishWasher/CFG_Inertia\BusCommPltf_cfg.c **** {
 172:C:/Workspace/FW_Inertia/branch_indesit/CFG_DishWasher/CFG_Inertia\BusCommPltf_cfg.c **** 	{RAM_AREA_START_ADDRESS, 		RAM_AREA_START_ADDRESS+RAM_SIZE-1}, 				/*RAM*/
 173:C:/Workspace/FW_Inertia/branch_indesit/CFG_DishWasher/CFG_Inertia\BusCommPltf_cfg.c **** 	{FLASH_DATA_BASE_ADDRESS, 		FLASH_DATA_BASE_ADDRESS+FLASH_DATA_SIZE-1}, 		/*DATA FLASH*/
 174:C:/Workspace/FW_Inertia/branch_indesit/CFG_DishWasher/CFG_Inertia\BusCommPltf_cfg.c **** 	{ROM_AREA_START_ADDRESS, 		ROM_AREA_START_ADDRESS+(ROM_SIZE-1) }, 				/*ROM (includes fw, boot)*/
 175:C:/Workspace/FW_Inertia/branch_indesit/CFG_DishWasher/CFG_Inertia\BusCommPltf_cfg.c **** };
 176:C:/Workspace/FW_Inertia/branch_indesit/CFG_DishWasher/CFG_Inertia\BusCommPltf_cfg.c **** 
 177:C:/Workspace/FW_Inertia/branch_indesit/CFG_DishWasher/CFG_Inertia\BusCommPltf_cfg.c **** static PP_MemoryRangeType const ProtocolWritingRamAccessTable[1]=
 178:C:/Workspace/FW_Inertia/branch_indesit/CFG_DishWasher/CFG_Inertia\BusCommPltf_cfg.c **** {
 179:C:/Workspace/FW_Inertia/branch_indesit/CFG_DishWasher/CFG_Inertia\BusCommPltf_cfg.c **** 	{RAM_AREA_START_ADDRESS, 		RAM_AREA_START_ADDRESS+RAM_SIZE-1}, 				/*RAM*/
 180:C:/Workspace/FW_Inertia/branch_indesit/CFG_DishWasher/CFG_Inertia\BusCommPltf_cfg.c **** };
 181:C:/Workspace/FW_Inertia/branch_indesit/CFG_DishWasher/CFG_Inertia\BusCommPltf_cfg.c **** 
 182:C:/Workspace/FW_Inertia/branch_indesit/CFG_DishWasher/CFG_Inertia\BusCommPltf_cfg.c **** static PP_MemoryRangeType const ProtocolWritingAccessTable[3]=
 183:C:/Workspace/FW_Inertia/branch_indesit/CFG_DishWasher/CFG_Inertia\BusCommPltf_cfg.c **** {
 184:C:/Workspace/FW_Inertia/branch_indesit/CFG_DishWasher/CFG_Inertia\BusCommPltf_cfg.c **** 	{BACKUPAREA_START_ADDR, 		BACKUPAREA_START_ADDR+BACKUPAREA_SIZE_IN_BYTES-1}, 	/*BACKUP, DATA FLASH
 185:C:/Workspace/FW_Inertia/branch_indesit/CFG_DishWasher/CFG_Inertia\BusCommPltf_cfg.c **** 	{APPL_WBOX_ADDRESS,      		APPL_WBOX_END_ADDRESS},								/*WBOX, DATA FLASH*/
 186:C:/Workspace/FW_Inertia/branch_indesit/CFG_DishWasher/CFG_Inertia\BusCommPltf_cfg.c **** 	{APPL_SETTING_ADDRESS,   		APPL_SETTING_END_ADDRESS  }, 						/*ROM*/
 187:C:/Workspace/FW_Inertia/branch_indesit/CFG_DishWasher/CFG_Inertia\BusCommPltf_cfg.c **** };
 188:C:/Workspace/FW_Inertia/branch_indesit/CFG_DishWasher/CFG_Inertia\BusCommPltf_cfg.c **** 
 189:C:/Workspace/FW_Inertia/branch_indesit/CFG_DishWasher/CFG_Inertia\BusCommPltf_cfg.c **** static PP_MemoryRangeType const ProtocolErasingAccessTable[2]=
 190:C:/Workspace/FW_Inertia/branch_indesit/CFG_DishWasher/CFG_Inertia\BusCommPltf_cfg.c **** {
 191:C:/Workspace/FW_Inertia/branch_indesit/CFG_DishWasher/CFG_Inertia\BusCommPltf_cfg.c **** 	{BACKUPAREA_START_ADDR, 		BACKUPAREA_START_ADDR+BACKUPAREA_SIZE_IN_BYTES-1}, 	/*BACKUP, DATA FLASH
 192:C:/Workspace/FW_Inertia/branch_indesit/CFG_DishWasher/CFG_Inertia\BusCommPltf_cfg.c **** 	{APPL_SETTING_ADDRESS,   		APPL_SETTING_END_ADDRESS  }, 						/*ROM*/
 193:C:/Workspace/FW_Inertia/branch_indesit/CFG_DishWasher/CFG_Inertia\BusCommPltf_cfg.c **** };
 194:C:/Workspace/FW_Inertia/branch_indesit/CFG_DishWasher/CFG_Inertia\BusCommPltf_cfg.c **** #endif
 195:C:/Workspace/FW_Inertia/branch_indesit/CFG_DishWasher/CFG_Inertia\BusCommPltf_cfg.c **** 
 196:C:/Workspace/FW_Inertia/branch_indesit/CFG_DishWasher/CFG_Inertia\BusCommPltf_cfg.c **** /**
 197:C:/Workspace/FW_Inertia/branch_indesit/CFG_DishWasher/CFG_Inertia\BusCommPltf_cfg.c **** remap table for 'write ram' command
 198:C:/Workspace/FW_Inertia/branch_indesit/CFG_DishWasher/CFG_Inertia\BusCommPltf_cfg.c **** */
 199:C:/Workspace/FW_Inertia/branch_indesit/CFG_DishWasher/CFG_Inertia\BusCommPltf_cfg.c **** static PP_RemapTableType const WRRemapTable[1]=
 200:C:/Workspace/FW_Inertia/branch_indesit/CFG_DishWasher/CFG_Inertia\BusCommPltf_cfg.c **** {
 201:C:/Workspace/FW_Inertia/branch_indesit/CFG_DishWasher/CFG_Inertia\BusCommPltf_cfg.c ****   { REMAP_WRITE_RAM_BLOCK }
 202:C:/Workspace/FW_Inertia/branch_indesit/CFG_DishWasher/CFG_Inertia\BusCommPltf_cfg.c **** };
 203:C:/Workspace/FW_Inertia/branch_indesit/CFG_DishWasher/CFG_Inertia\BusCommPltf_cfg.c **** 
 204:C:/Workspace/FW_Inertia/branch_indesit/CFG_DishWasher/CFG_Inertia\BusCommPltf_cfg.c **** 
 205:C:/Workspace/FW_Inertia/branch_indesit/CFG_DishWasher/CFG_Inertia\BusCommPltf_cfg.c **** /*@}*/
 206:C:/Workspace/FW_Inertia/branch_indesit/CFG_DishWasher/CFG_Inertia\BusCommPltf_cfg.c **** 
 207:C:/Workspace/FW_Inertia/branch_indesit/CFG_DishWasher/CFG_Inertia\BusCommPltf_cfg.c **** 
 208:C:/Workspace/FW_Inertia/branch_indesit/CFG_DishWasher/CFG_Inertia\BusCommPltf_cfg.c **** /**
 209:C:/Workspace/FW_Inertia/branch_indesit/CFG_DishWasher/CFG_Inertia\BusCommPltf_cfg.c **** 	@name Communication Platform Data
 210:C:/Workspace/FW_Inertia/branch_indesit/CFG_DishWasher/CFG_Inertia\BusCommPltf_cfg.c **** 	@{
 211:C:/Workspace/FW_Inertia/branch_indesit/CFG_DishWasher/CFG_Inertia\BusCommPltf_cfg.c **** */
 212:C:/Workspace/FW_Inertia/branch_indesit/CFG_DishWasher/CFG_Inertia\BusCommPltf_cfg.c **** 
 213:C:/Workspace/FW_Inertia/branch_indesit/CFG_DishWasher/CFG_Inertia\BusCommPltf_cfg.c **** /** driver I2C communication buffer */
 214:C:/Workspace/FW_Inertia/branch_indesit/CFG_DishWasher/CFG_Inertia\BusCommPltf_cfg.c **** static uint8_t BCP_I2CTxBuffer[BCP_I2C_TX_BUF_SIZE];
 215:C:/Workspace/FW_Inertia/branch_indesit/CFG_DishWasher/CFG_Inertia\BusCommPltf_cfg.c **** 
 216:C:/Workspace/FW_Inertia/branch_indesit/CFG_DishWasher/CFG_Inertia\BusCommPltf_cfg.c **** #if defined(CONFIG_LIB_EXTERNAL_BOARD_SUPPORT)
 217:C:/Workspace/FW_Inertia/branch_indesit/CFG_DishWasher/CFG_Inertia\BusCommPltf_cfg.c **** /** driver UART communication buffer */
 218:C:/Workspace/FW_Inertia/branch_indesit/CFG_DishWasher/CFG_Inertia\BusCommPltf_cfg.c **** static uint8_t BCP_UARTRxBuffer[BCP_UART_TX_BUF_SIZE];
 219:C:/Workspace/FW_Inertia/branch_indesit/CFG_DishWasher/CFG_Inertia\BusCommPltf_cfg.c **** #define BCP_UARTTxBuffer BCP_UARTRxBuffer
 220:C:/Workspace/FW_Inertia/branch_indesit/CFG_DishWasher/CFG_Inertia\BusCommPltf_cfg.c **** #endif /*defined(CONFIG_LIB_EXTERNAL_BOARD_SUPPORT)*/
 221:C:/Workspace/FW_Inertia/branch_indesit/CFG_DishWasher/CFG_Inertia\BusCommPltf_cfg.c ****  
 222:C:/Workspace/FW_Inertia/branch_indesit/CFG_DishWasher/CFG_Inertia\BusCommPltf_cfg.c **** 
 223:C:/Workspace/FW_Inertia/branch_indesit/CFG_DishWasher/CFG_Inertia\BusCommPltf_cfg.c **** 
 224:C:/Workspace/FW_Inertia/branch_indesit/CFG_DishWasher/CFG_Inertia\BusCommPltf_cfg.c **** /** Communication Platform tasks's stack */
 225:C:/Workspace/FW_Inertia/branch_indesit/CFG_DishWasher/CFG_Inertia\BusCommPltf_cfg.c **** static STACK_SEC OS_STACKPTR int CP_CommunicationTaskStack[128] STACK_SEC_POST;
 226:C:/Workspace/FW_Inertia/branch_indesit/CFG_DishWasher/CFG_Inertia\BusCommPltf_cfg.c **** /** Communication Platform Task Contro Block*/
 227:C:/Workspace/FW_Inertia/branch_indesit/CFG_DishWasher/CFG_Inertia\BusCommPltf_cfg.c **** static OS_TASK CP_CommunicationTaskTCB;
 228:C:/Workspace/FW_Inertia/branch_indesit/CFG_DishWasher/CFG_Inertia\BusCommPltf_cfg.c **** 
 229:C:/Workspace/FW_Inertia/branch_indesit/CFG_DishWasher/CFG_Inertia\BusCommPltf_cfg.c **** #if defined(CONFIG_MAIN_PROTOCOL_STACK_MONITOR)
 230:C:/Workspace/FW_Inertia/branch_indesit/CFG_DishWasher/CFG_Inertia\BusCommPltf_cfg.c **** static 	TOOLS_STACKUSAGE_MONITOR	Main_ProtocolStackMonitor;
 231:C:/Workspace/FW_Inertia/branch_indesit/CFG_DishWasher/CFG_Inertia\BusCommPltf_cfg.c **** #endif
 232:C:/Workspace/FW_Inertia/branch_indesit/CFG_DishWasher/CFG_Inertia\BusCommPltf_cfg.c **** 
 233:C:/Workspace/FW_Inertia/branch_indesit/CFG_DishWasher/CFG_Inertia\BusCommPltf_cfg.c **** #if defined(CONFIG_LIB_EXTERNAL_BOARD_SUPPORT)
 234:C:/Workspace/FW_Inertia/branch_indesit/CFG_DishWasher/CFG_Inertia\BusCommPltf_cfg.c **** /** Communication Platform tasks's stack */
 235:C:/Workspace/FW_Inertia/branch_indesit/CFG_DishWasher/CFG_Inertia\BusCommPltf_cfg.c **** static STACK_SEC OS_STACKPTR int CP_UartParserTaskStack[80] STACK_SEC_POST;
 236:C:/Workspace/FW_Inertia/branch_indesit/CFG_DishWasher/CFG_Inertia\BusCommPltf_cfg.c **** /** Communication Platform Task Control Block*/
 237:C:/Workspace/FW_Inertia/branch_indesit/CFG_DishWasher/CFG_Inertia\BusCommPltf_cfg.c **** static OS_TASK CP_UartParserTaskTCB;
 238:C:/Workspace/FW_Inertia/branch_indesit/CFG_DishWasher/CFG_Inertia\BusCommPltf_cfg.c **** 
 239:C:/Workspace/FW_Inertia/branch_indesit/CFG_DishWasher/CFG_Inertia\BusCommPltf_cfg.c **** #if defined(CONFIG_MAIN_UARTPARSER_STACK_MONITOR)
 240:C:/Workspace/FW_Inertia/branch_indesit/CFG_DishWasher/CFG_Inertia\BusCommPltf_cfg.c **** static 	TOOLS_STACKUSAGE_MONITOR	Main_UartParserStackMonitor;
 241:C:/Workspace/FW_Inertia/branch_indesit/CFG_DishWasher/CFG_Inertia\BusCommPltf_cfg.c **** #endif
 242:C:/Workspace/FW_Inertia/branch_indesit/CFG_DishWasher/CFG_Inertia\BusCommPltf_cfg.c **** 
 243:C:/Workspace/FW_Inertia/branch_indesit/CFG_DishWasher/CFG_Inertia\BusCommPltf_cfg.c **** #endif /* defined(CONFIG_LIB_EXTERNAL_BOARD_SUPPORT)*/
 244:C:/Workspace/FW_Inertia/branch_indesit/CFG_DishWasher/CFG_Inertia\BusCommPltf_cfg.c **** 
 245:C:/Workspace/FW_Inertia/branch_indesit/CFG_DishWasher/CFG_Inertia\BusCommPltf_cfg.c **** /**Appliance data table */
 246:C:/Workspace/FW_Inertia/branch_indesit/CFG_DishWasher/CFG_Inertia\BusCommPltf_cfg.c **** static CPApplianceDataTableType CPApplianceDataTable[CP_APPLDATA_NUM];
 247:C:/Workspace/FW_Inertia/branch_indesit/CFG_DishWasher/CFG_Inertia\BusCommPltf_cfg.c **** /*@}*/
 248:C:/Workspace/FW_Inertia/branch_indesit/CFG_DishWasher/CFG_Inertia\BusCommPltf_cfg.c **** 
 249:C:/Workspace/FW_Inertia/branch_indesit/CFG_DishWasher/CFG_Inertia\BusCommPltf_cfg.c **** /* Communication Channels table */
 250:C:/Workspace/FW_Inertia/branch_indesit/CFG_DishWasher/CFG_Inertia\BusCommPltf_cfg.c **** const BCP_ChannelTableType BCP_ChannelTable[BCP_CH_NUM]=
 251:C:/Workspace/FW_Inertia/branch_indesit/CFG_DishWasher/CFG_Inertia\BusCommPltf_cfg.c **** { 
 252:C:/Workspace/FW_Inertia/branch_indesit/CFG_DishWasher/CFG_Inertia\BusCommPltf_cfg.c **** #ifdef BUS_COM_PLT_I2C_SUPPORT
 253:C:/Workspace/FW_Inertia/branch_indesit/CFG_DishWasher/CFG_Inertia\BusCommPltf_cfg.c ****   {(PP_MasterProtocolTableType*)NULL, OCI2C_InitSync, OCI2C_TxSync, OCI2C_RxSync, BCP_I2CTxBuffer, 
 254:C:/Workspace/FW_Inertia/branch_indesit/CFG_DishWasher/CFG_Inertia\BusCommPltf_cfg.c **** #endif /* BUS_COM_PLT_I2C_SUPPORT */
 255:C:/Workspace/FW_Inertia/branch_indesit/CFG_DishWasher/CFG_Inertia\BusCommPltf_cfg.c **** #if defined(CONFIG_LIB_EXTERNAL_BOARD_SUPPORT)
 256:C:/Workspace/FW_Inertia/branch_indesit/CFG_DishWasher/CFG_Inertia\BusCommPltf_cfg.c **** #ifdef BUS_COM_PLT_UART_SUPPORT
 257:C:/Workspace/FW_Inertia/branch_indesit/CFG_DishWasher/CFG_Inertia\BusCommPltf_cfg.c ****   {(PP_MasterProtocolTableType*)NULL, OCUART_InitSync, OCUART_TxSync, OCUART_RxSync, BCP_UARTTxBuff
 258:C:/Workspace/FW_Inertia/branch_indesit/CFG_DishWasher/CFG_Inertia\BusCommPltf_cfg.c **** #endif /* BUS_COM_PLT_UART_SUPPORT */
 259:C:/Workspace/FW_Inertia/branch_indesit/CFG_DishWasher/CFG_Inertia\BusCommPltf_cfg.c **** #endif /* defined(CONFIG_LIB_EXTERNAL_BOARD_SUPPORT) */
 260:C:/Workspace/FW_Inertia/branch_indesit/CFG_DishWasher/CFG_Inertia\BusCommPltf_cfg.c **** 
 261:C:/Workspace/FW_Inertia/branch_indesit/CFG_DishWasher/CFG_Inertia\BusCommPltf_cfg.c **** };
 262:C:/Workspace/FW_Inertia/branch_indesit/CFG_DishWasher/CFG_Inertia\BusCommPltf_cfg.c **** 
 263:C:/Workspace/FW_Inertia/branch_indesit/CFG_DishWasher/CFG_Inertia\BusCommPltf_cfg.c **** /**
 264:C:/Workspace/FW_Inertia/branch_indesit/CFG_DishWasher/CFG_Inertia\BusCommPltf_cfg.c **** @name Resources
 265:C:/Workspace/FW_Inertia/branch_indesit/CFG_DishWasher/CFG_Inertia\BusCommPltf_cfg.c **** @{
 266:C:/Workspace/FW_Inertia/branch_indesit/CFG_DishWasher/CFG_Inertia\BusCommPltf_cfg.c **** */
 267:C:/Workspace/FW_Inertia/branch_indesit/CFG_DishWasher/CFG_Inertia\BusCommPltf_cfg.c **** 
 268:C:/Workspace/FW_Inertia/branch_indesit/CFG_DishWasher/CFG_Inertia\BusCommPltf_cfg.c **** static OS_RSEMA SemaRegs;             /* Resource semaphore for regulations */
 269:C:/Workspace/FW_Inertia/branch_indesit/CFG_DishWasher/CFG_Inertia\BusCommPltf_cfg.c **** static OS_RSEMA SemaUiInfo;           /* Resource semaphore for UiInfo */
 270:C:/Workspace/FW_Inertia/branch_indesit/CFG_DishWasher/CFG_Inertia\BusCommPltf_cfg.c **** 
 271:C:/Workspace/FW_Inertia/branch_indesit/CFG_DishWasher/CFG_Inertia\BusCommPltf_cfg.c **** 
 272:C:/Workspace/FW_Inertia/branch_indesit/CFG_DishWasher/CFG_Inertia\BusCommPltf_cfg.c **** /*@}*/
 273:C:/Workspace/FW_Inertia/branch_indesit/CFG_DishWasher/CFG_Inertia\BusCommPltf_cfg.c **** 
 274:C:/Workspace/FW_Inertia/branch_indesit/CFG_DishWasher/CFG_Inertia\BusCommPltf_cfg.c **** 
 275:C:/Workspace/FW_Inertia/branch_indesit/CFG_DishWasher/CFG_Inertia\BusCommPltf_cfg.c **** #if	defined(CONFIG_PM_POWER_PROFILE_SUPPORT)
 276:C:/Workspace/FW_Inertia/branch_indesit/CFG_DishWasher/CFG_Inertia\BusCommPltf_cfg.c **** static const uint8_t PowerProfileError=0xFF;
 277:C:/Workspace/FW_Inertia/branch_indesit/CFG_DishWasher/CFG_Inertia\BusCommPltf_cfg.c **** static PM_PowerProfile_PowerProfileNumType num;
 278:C:/Workspace/FW_Inertia/branch_indesit/CFG_DishWasher/CFG_Inertia\BusCommPltf_cfg.c **** #endif	/* CONFIG_PM_POWER_PROFILE_SUPPORT*/
 279:C:/Workspace/FW_Inertia/branch_indesit/CFG_DishWasher/CFG_Inertia\BusCommPltf_cfg.c **** 
 280:C:/Workspace/FW_Inertia/branch_indesit/CFG_DishWasher/CFG_Inertia\BusCommPltf_cfg.c **** #if defined(CONFIG_PM_ENERGY_METER_SW)
 281:C:/Workspace/FW_Inertia/branch_indesit/CFG_DishWasher/CFG_Inertia\BusCommPltf_cfg.c **** uint8_t PowerMeterBuffer[10];
 282:C:/Workspace/FW_Inertia/branch_indesit/CFG_DishWasher/CFG_Inertia\BusCommPltf_cfg.c **** #endif /*defined(CONFIG_PM_ENERGY_METER_SW)*/
 283:C:/Workspace/FW_Inertia/branch_indesit/CFG_DishWasher/CFG_Inertia\BusCommPltf_cfg.c **** 
 284:C:/Workspace/FW_Inertia/branch_indesit/CFG_DishWasher/CFG_Inertia\BusCommPltf_cfg.c **** #if defined(CONFIG_LIB_EXTERNAL_BOARD_SUPPORT)
 285:C:/Workspace/FW_Inertia/branch_indesit/CFG_DishWasher/CFG_Inertia\BusCommPltf_cfg.c **** static uint8_t ExternalBoardCommStatus;
 286:C:/Workspace/FW_Inertia/branch_indesit/CFG_DishWasher/CFG_Inertia\BusCommPltf_cfg.c **** #endif /* defined(CONFIG_LIB_EXTERNAL_BOARD_SUPPORT)*/
 287:C:/Workspace/FW_Inertia/branch_indesit/CFG_DishWasher/CFG_Inertia\BusCommPltf_cfg.c **** 
 288:C:/Workspace/FW_Inertia/branch_indesit/CFG_DishWasher/CFG_Inertia\BusCommPltf_cfg.c **** /* ******************* */
 289:C:/Workspace/FW_Inertia/branch_indesit/CFG_DishWasher/CFG_Inertia\BusCommPltf_cfg.c **** /* Functions Prototype */
 290:C:/Workspace/FW_Inertia/branch_indesit/CFG_DishWasher/CFG_Inertia\BusCommPltf_cfg.c **** /* ******************* */
 291:C:/Workspace/FW_Inertia/branch_indesit/CFG_DishWasher/CFG_Inertia\BusCommPltf_cfg.c **** 
 292:C:/Workspace/FW_Inertia/branch_indesit/CFG_DishWasher/CFG_Inertia\BusCommPltf_cfg.c **** static void CommunicationProtocolTask (void);
 293:C:/Workspace/FW_Inertia/branch_indesit/CFG_DishWasher/CFG_Inertia\BusCommPltf_cfg.c **** 
 294:C:/Workspace/FW_Inertia/branch_indesit/CFG_DishWasher/CFG_Inertia\BusCommPltf_cfg.c **** /**
 295:C:/Workspace/FW_Inertia/branch_indesit/CFG_DishWasher/CFG_Inertia\BusCommPltf_cfg.c **** Communication Platform Slave manager
 296:C:/Workspace/FW_Inertia/branch_indesit/CFG_DishWasher/CFG_Inertia\BusCommPltf_cfg.c **** */
 297:C:/Workspace/FW_Inertia/branch_indesit/CFG_DishWasher/CFG_Inertia\BusCommPltf_cfg.c **** static DECLARE_CP_SLAVEMANAGER(CP_SlaveManager);
 298:C:/Workspace/FW_Inertia/branch_indesit/CFG_DishWasher/CFG_Inertia\BusCommPltf_cfg.c **** 
 299:C:/Workspace/FW_Inertia/branch_indesit/CFG_DishWasher/CFG_Inertia\BusCommPltf_cfg.c **** static DEF_CSM_EE_CTRL(Ctrl_IdentRequest);
 300:C:/Workspace/FW_Inertia/branch_indesit/CFG_DishWasher/CFG_Inertia\BusCommPltf_cfg.c **** 
 301:C:/Workspace/FW_Inertia/branch_indesit/CFG_DishWasher/CFG_Inertia\BusCommPltf_cfg.c **** static DEF_CSM_EE_CUSTOM_FUNC(EE_SettingDataBlock);
 302:C:/Workspace/FW_Inertia/branch_indesit/CFG_DishWasher/CFG_Inertia\BusCommPltf_cfg.c **** 
 303:C:/Workspace/FW_Inertia/branch_indesit/CFG_DishWasher/CFG_Inertia\BusCommPltf_cfg.c **** static DEF_CSM_EE_CTRL(Ctrl_ReadRegsRequest);
 304:C:/Workspace/FW_Inertia/branch_indesit/CFG_DishWasher/CFG_Inertia\BusCommPltf_cfg.c **** static DEF_CSM_EE_CTRL(Ctrl_StatusRequest);
 305:C:/Workspace/FW_Inertia/branch_indesit/CFG_DishWasher/CFG_Inertia\BusCommPltf_cfg.c **** static DEF_CSM_EE_CTRL(Ctrl_WriteRegsRequest);
 306:C:/Workspace/FW_Inertia/branch_indesit/CFG_DishWasher/CFG_Inertia\BusCommPltf_cfg.c **** static DEF_CSM_EE_CTRL(Ctrl_WriteUIInfoRequest);
 307:C:/Workspace/FW_Inertia/branch_indesit/CFG_DishWasher/CFG_Inertia\BusCommPltf_cfg.c **** 
 308:C:/Workspace/FW_Inertia/branch_indesit/CFG_DishWasher/CFG_Inertia\BusCommPltf_cfg.c **** 
 309:C:/Workspace/FW_Inertia/branch_indesit/CFG_DishWasher/CFG_Inertia\BusCommPltf_cfg.c **** DEF_CSM_EE_CUSTOM_FUNC(BS_SetLoads);
 310:C:/Workspace/FW_Inertia/branch_indesit/CFG_DishWasher/CFG_Inertia\BusCommPltf_cfg.c **** DEF_CSM_EE_CUSTOM_FUNC(EE_SystemMode);
 311:C:/Workspace/FW_Inertia/branch_indesit/CFG_DishWasher/CFG_Inertia\BusCommPltf_cfg.c **** DEF_CSM_EE_CUSTOM_FUNC(EE_SetLoads);
 312:C:/Workspace/FW_Inertia/branch_indesit/CFG_DishWasher/CFG_Inertia\BusCommPltf_cfg.c **** 
 313:C:/Workspace/FW_Inertia/branch_indesit/CFG_DishWasher/CFG_Inertia\BusCommPltf_cfg.c **** DEF_CSM_EE_CUSTOM_FUNC(Ctrl_DspReadRamRequest);
 314:C:/Workspace/FW_Inertia/branch_indesit/CFG_DishWasher/CFG_Inertia\BusCommPltf_cfg.c **** DEF_CSM_EE_CUSTOM_FUNC(Ctrl_DspWriteRamRequest);
 315:C:/Workspace/FW_Inertia/branch_indesit/CFG_DishWasher/CFG_Inertia\BusCommPltf_cfg.c **** DEF_CSM_EE_CUSTOM_FUNC(Ctrl_DspExtraRequest);
 316:C:/Workspace/FW_Inertia/branch_indesit/CFG_DishWasher/CFG_Inertia\BusCommPltf_cfg.c **** DEF_CSM_EE_CUSTOM_FUNC(Ctrl_CmdDspRequest);
 317:C:/Workspace/FW_Inertia/branch_indesit/CFG_DishWasher/CFG_Inertia\BusCommPltf_cfg.c **** DEF_CSM_EE_CUSTOM_FUNC(Ctrl_InfoDspRequest);
 318:C:/Workspace/FW_Inertia/branch_indesit/CFG_DishWasher/CFG_Inertia\BusCommPltf_cfg.c **** 
 319:C:/Workspace/FW_Inertia/branch_indesit/CFG_DishWasher/CFG_Inertia\BusCommPltf_cfg.c **** DEF_CSM_EE_CUSTOM_FUNC(Ctrl_ExpGetInfo);
 320:C:/Workspace/FW_Inertia/branch_indesit/CFG_DishWasher/CFG_Inertia\BusCommPltf_cfg.c **** DEF_CSM_EE_CUSTOM_FUNC(Ctrl_ExpSetInfo);
 321:C:/Workspace/FW_Inertia/branch_indesit/CFG_DishWasher/CFG_Inertia\BusCommPltf_cfg.c **** 
 322:C:/Workspace/FW_Inertia/branch_indesit/CFG_DishWasher/CFG_Inertia\BusCommPltf_cfg.c **** void CP_UartParserTask(void);
 323:C:/Workspace/FW_Inertia/branch_indesit/CFG_DishWasher/CFG_Inertia\BusCommPltf_cfg.c **** #ifdef CONFIG_PM_POWER_PROFILE_SUPPORT
 324:C:/Workspace/FW_Inertia/branch_indesit/CFG_DishWasher/CFG_Inertia\BusCommPltf_cfg.c **** static void EndOfPowerProfileRequest(void);
 325:C:/Workspace/FW_Inertia/branch_indesit/CFG_DishWasher/CFG_Inertia\BusCommPltf_cfg.c **** DEF_CSM_EE_CUSTOM_FUNC(EE_PowerProfileReq);
 326:C:/Workspace/FW_Inertia/branch_indesit/CFG_DishWasher/CFG_Inertia\BusCommPltf_cfg.c **** #endif /* CONFIG_PM_POWER_PROFILE_SUPPORT */
 327:C:/Workspace/FW_Inertia/branch_indesit/CFG_DishWasher/CFG_Inertia\BusCommPltf_cfg.c **** 
 328:C:/Workspace/FW_Inertia/branch_indesit/CFG_DishWasher/CFG_Inertia\BusCommPltf_cfg.c **** #if defined(CONFIG_PM_ENERGY_METER_SW)
 329:C:/Workspace/FW_Inertia/branch_indesit/CFG_DishWasher/CFG_Inertia\BusCommPltf_cfg.c **** DEF_CSM_EE_CUSTOM_FUNC(EE_ReadPowerMeter);
 330:C:/Workspace/FW_Inertia/branch_indesit/CFG_DishWasher/CFG_Inertia\BusCommPltf_cfg.c **** #endif /*defined(CONFIG_PM_ENERGY_METER_SW)*/
 331:C:/Workspace/FW_Inertia/branch_indesit/CFG_DishWasher/CFG_Inertia\BusCommPltf_cfg.c **** 
 332:C:/Workspace/FW_Inertia/branch_indesit/CFG_DishWasher/CFG_Inertia\BusCommPltf_cfg.c **** /* *************** */
 333:C:/Workspace/FW_Inertia/branch_indesit/CFG_DishWasher/CFG_Inertia\BusCommPltf_cfg.c **** /* Function Bodies */
 334:C:/Workspace/FW_Inertia/branch_indesit/CFG_DishWasher/CFG_Inertia\BusCommPltf_cfg.c **** /* *************** */
 335:C:/Workspace/FW_Inertia/branch_indesit/CFG_DishWasher/CFG_Inertia\BusCommPltf_cfg.c **** 
 336:C:/Workspace/FW_Inertia/branch_indesit/CFG_DishWasher/CFG_Inertia\BusCommPltf_cfg.c **** /* Exported function */
 337:C:/Workspace/FW_Inertia/branch_indesit/CFG_DishWasher/CFG_Inertia\BusCommPltf_cfg.c **** 
 338:C:/Workspace/FW_Inertia/branch_indesit/CFG_DishWasher/CFG_Inertia\BusCommPltf_cfg.c **** /**
 339:C:/Workspace/FW_Inertia/branch_indesit/CFG_DishWasher/CFG_Inertia\BusCommPltf_cfg.c **** Allows the CP to access the data of the application during one of the following request:
 340:C:/Workspace/FW_Inertia/branch_indesit/CFG_DishWasher/CFG_Inertia\BusCommPltf_cfg.c **** \li PP_EE_TYPE_IDENT
 341:C:/Workspace/FW_Inertia/branch_indesit/CFG_DishWasher/CFG_Inertia\BusCommPltf_cfg.c **** \li PP_EE_TYPE_READ_STATUS
 342:C:/Workspace/FW_Inertia/branch_indesit/CFG_DishWasher/CFG_Inertia\BusCommPltf_cfg.c **** \li PP_EE_TYPE_READ_REGS
 343:C:/Workspace/FW_Inertia/branch_indesit/CFG_DishWasher/CFG_Inertia\BusCommPltf_cfg.c **** \li PP_EE_TYPE_WRITE_REGS
 344:C:/Workspace/FW_Inertia/branch_indesit/CFG_DishWasher/CFG_Inertia\BusCommPltf_cfg.c **** \li PP_EE_TYPE_WRITE_UIINFO
 345:C:/Workspace/FW_Inertia/branch_indesit/CFG_DishWasher/CFG_Inertia\BusCommPltf_cfg.c **** 
 346:C:/Workspace/FW_Inertia/branch_indesit/CFG_DishWasher/CFG_Inertia\BusCommPltf_cfg.c **** PP_EE_TYPE_IDENT is preconfigured by Platform framework.
 347:C:/Workspace/FW_Inertia/branch_indesit/CFG_DishWasher/CFG_Inertia\BusCommPltf_cfg.c **** 
 348:C:/Workspace/FW_Inertia/branch_indesit/CFG_DishWasher/CFG_Inertia\BusCommPltf_cfg.c **** \param[in]  index item index, see preconfigured CPApplianceDataTableIndexType
 349:C:/Workspace/FW_Inertia/branch_indesit/CFG_DishWasher/CFG_Inertia\BusCommPltf_cfg.c **** \param[in]  pData pointer to CPApplianceDataTableType
 350:C:/Workspace/FW_Inertia/branch_indesit/CFG_DishWasher/CFG_Inertia\BusCommPltf_cfg.c **** 
 351:C:/Workspace/FW_Inertia/branch_indesit/CFG_DishWasher/CFG_Inertia\BusCommPltf_cfg.c **** 
 352:C:/Workspace/FW_Inertia/branch_indesit/CFG_DishWasher/CFG_Inertia\BusCommPltf_cfg.c **** \par Example
 353:C:/Workspace/FW_Inertia/branch_indesit/CFG_DishWasher/CFG_Inertia\BusCommPltf_cfg.c **** \code
 354:C:/Workspace/FW_Inertia/branch_indesit/CFG_DishWasher/CFG_Inertia\BusCommPltf_cfg.c ****     CPApplianceDataTableType ident= {(void*)&IdentTable, sizeof(IdentTable)};
 355:C:/Workspace/FW_Inertia/branch_indesit/CFG_DishWasher/CFG_Inertia\BusCommPltf_cfg.c ****     
 356:C:/Workspace/FW_Inertia/branch_indesit/CFG_DishWasher/CFG_Inertia\BusCommPltf_cfg.c ****     Set_CPApplianceDataItem(CP_APPLDATA_IDENT, &ident);
 357:C:/Workspace/FW_Inertia/branch_indesit/CFG_DishWasher/CFG_Inertia\BusCommPltf_cfg.c **** \endcode
 358:C:/Workspace/FW_Inertia/branch_indesit/CFG_DishWasher/CFG_Inertia\BusCommPltf_cfg.c **** */
 359:C:/Workspace/FW_Inertia/branch_indesit/CFG_DishWasher/CFG_Inertia\BusCommPltf_cfg.c **** void Set_CPApplianceDataItem(CPApplianceDataTableIndexType eIndex, CPApplianceDataTableType* pData)
 360:C:/Workspace/FW_Inertia/branch_indesit/CFG_DishWasher/CFG_Inertia\BusCommPltf_cfg.c **** {
 361:C:/Workspace/FW_Inertia/branch_indesit/CFG_DishWasher/CFG_Inertia\BusCommPltf_cfg.c ****     if(eIndex < (CPApplianceDataTableIndexType)(sizeof(CPApplianceDataTable)/sizeof(CPApplianceData
 362:C:/Workspace/FW_Inertia/branch_indesit/CFG_DishWasher/CFG_Inertia\BusCommPltf_cfg.c ****     {
 363:C:/Workspace/FW_Inertia/branch_indesit/CFG_DishWasher/CFG_Inertia\BusCommPltf_cfg.c ****         CPApplianceDataTable[eIndex] = *pData;
 364:C:/Workspace/FW_Inertia/branch_indesit/CFG_DishWasher/CFG_Inertia\BusCommPltf_cfg.c ****     }
 365:C:/Workspace/FW_Inertia/branch_indesit/CFG_DishWasher/CFG_Inertia\BusCommPltf_cfg.c **** }
 366:C:/Workspace/FW_Inertia/branch_indesit/CFG_DishWasher/CFG_Inertia\BusCommPltf_cfg.c **** 
 367:C:/Workspace/FW_Inertia/branch_indesit/CFG_DishWasher/CFG_Inertia\BusCommPltf_cfg.c **** 
 368:C:/Workspace/FW_Inertia/branch_indesit/CFG_DishWasher/CFG_Inertia\BusCommPltf_cfg.c **** 
 369:C:/Workspace/FW_Inertia/branch_indesit/CFG_DishWasher/CFG_Inertia\BusCommPltf_cfg.c **** /**
 370:C:/Workspace/FW_Inertia/branch_indesit/CFG_DishWasher/CFG_Inertia\BusCommPltf_cfg.c **** Avoids conflicts caused by simultaneous access to regulations
 371:C:/Workspace/FW_Inertia/branch_indesit/CFG_DishWasher/CFG_Inertia\BusCommPltf_cfg.c **** 
 372:C:/Workspace/FW_Inertia/branch_indesit/CFG_DishWasher/CFG_Inertia\BusCommPltf_cfg.c **** \par Example
 373:C:/Workspace/FW_Inertia/branch_indesit/CFG_DishWasher/CFG_Inertia\BusCommPltf_cfg.c **** \code
 374:C:/Workspace/FW_Inertia/branch_indesit/CFG_DishWasher/CFG_Inertia\BusCommPltf_cfg.c **** 
 375:C:/Workspace/FW_Inertia/branch_indesit/CFG_DishWasher/CFG_Inertia\BusCommPltf_cfg.c **** \endcode
 376:C:/Workspace/FW_Inertia/branch_indesit/CFG_DishWasher/CFG_Inertia\BusCommPltf_cfg.c **** */
 377:C:/Workspace/FW_Inertia/branch_indesit/CFG_DishWasher/CFG_Inertia\BusCommPltf_cfg.c **** void UseRegs(void) 
 378:C:/Workspace/FW_Inertia/branch_indesit/CFG_DishWasher/CFG_Inertia\BusCommPltf_cfg.c **** {
 379:C:/Workspace/FW_Inertia/branch_indesit/CFG_DishWasher/CFG_Inertia\BusCommPltf_cfg.c ****   OS_Use(&SemaRegs);
 380:C:/Workspace/FW_Inertia/branch_indesit/CFG_DishWasher/CFG_Inertia\BusCommPltf_cfg.c **** }
 381:C:/Workspace/FW_Inertia/branch_indesit/CFG_DishWasher/CFG_Inertia\BusCommPltf_cfg.c **** 
 382:C:/Workspace/FW_Inertia/branch_indesit/CFG_DishWasher/CFG_Inertia\BusCommPltf_cfg.c **** /**
 383:C:/Workspace/FW_Inertia/branch_indesit/CFG_DishWasher/CFG_Inertia\BusCommPltf_cfg.c **** Avoids conflicts caused by simultaneous access to regulations
 384:C:/Workspace/FW_Inertia/branch_indesit/CFG_DishWasher/CFG_Inertia\BusCommPltf_cfg.c **** 
 385:C:/Workspace/FW_Inertia/branch_indesit/CFG_DishWasher/CFG_Inertia\BusCommPltf_cfg.c **** \par Example
 386:C:/Workspace/FW_Inertia/branch_indesit/CFG_DishWasher/CFG_Inertia\BusCommPltf_cfg.c **** \code
 387:C:/Workspace/FW_Inertia/branch_indesit/CFG_DishWasher/CFG_Inertia\BusCommPltf_cfg.c **** 
 388:C:/Workspace/FW_Inertia/branch_indesit/CFG_DishWasher/CFG_Inertia\BusCommPltf_cfg.c **** \endcode
 389:C:/Workspace/FW_Inertia/branch_indesit/CFG_DishWasher/CFG_Inertia\BusCommPltf_cfg.c **** */
 390:C:/Workspace/FW_Inertia/branch_indesit/CFG_DishWasher/CFG_Inertia\BusCommPltf_cfg.c **** void UnuseRegs(void) 
 391:C:/Workspace/FW_Inertia/branch_indesit/CFG_DishWasher/CFG_Inertia\BusCommPltf_cfg.c **** {
 392:C:/Workspace/FW_Inertia/branch_indesit/CFG_DishWasher/CFG_Inertia\BusCommPltf_cfg.c ****   OS_Unuse(&SemaRegs);
 393:C:/Workspace/FW_Inertia/branch_indesit/CFG_DishWasher/CFG_Inertia\BusCommPltf_cfg.c **** }
 394:C:/Workspace/FW_Inertia/branch_indesit/CFG_DishWasher/CFG_Inertia\BusCommPltf_cfg.c **** 
 395:C:/Workspace/FW_Inertia/branch_indesit/CFG_DishWasher/CFG_Inertia\BusCommPltf_cfg.c **** /**
 396:C:/Workspace/FW_Inertia/branch_indesit/CFG_DishWasher/CFG_Inertia\BusCommPltf_cfg.c **** Avoids conflicts caused by simultaneous access to UiInfo
 397:C:/Workspace/FW_Inertia/branch_indesit/CFG_DishWasher/CFG_Inertia\BusCommPltf_cfg.c **** 
 398:C:/Workspace/FW_Inertia/branch_indesit/CFG_DishWasher/CFG_Inertia\BusCommPltf_cfg.c **** \par Example
 399:C:/Workspace/FW_Inertia/branch_indesit/CFG_DishWasher/CFG_Inertia\BusCommPltf_cfg.c **** \code
 400:C:/Workspace/FW_Inertia/branch_indesit/CFG_DishWasher/CFG_Inertia\BusCommPltf_cfg.c **** 
 401:C:/Workspace/FW_Inertia/branch_indesit/CFG_DishWasher/CFG_Inertia\BusCommPltf_cfg.c **** \endcode
 402:C:/Workspace/FW_Inertia/branch_indesit/CFG_DishWasher/CFG_Inertia\BusCommPltf_cfg.c **** */
 403:C:/Workspace/FW_Inertia/branch_indesit/CFG_DishWasher/CFG_Inertia\BusCommPltf_cfg.c **** void UseUiInfo(void) 
 404:C:/Workspace/FW_Inertia/branch_indesit/CFG_DishWasher/CFG_Inertia\BusCommPltf_cfg.c **** {
 405:C:/Workspace/FW_Inertia/branch_indesit/CFG_DishWasher/CFG_Inertia\BusCommPltf_cfg.c ****   OS_Use(&SemaUiInfo);
 406:C:/Workspace/FW_Inertia/branch_indesit/CFG_DishWasher/CFG_Inertia\BusCommPltf_cfg.c **** }
 407:C:/Workspace/FW_Inertia/branch_indesit/CFG_DishWasher/CFG_Inertia\BusCommPltf_cfg.c **** 
 408:C:/Workspace/FW_Inertia/branch_indesit/CFG_DishWasher/CFG_Inertia\BusCommPltf_cfg.c **** /**
 409:C:/Workspace/FW_Inertia/branch_indesit/CFG_DishWasher/CFG_Inertia\BusCommPltf_cfg.c **** Avoids conflicts caused by simultaneous access to UiInfo
 410:C:/Workspace/FW_Inertia/branch_indesit/CFG_DishWasher/CFG_Inertia\BusCommPltf_cfg.c **** 
 411:C:/Workspace/FW_Inertia/branch_indesit/CFG_DishWasher/CFG_Inertia\BusCommPltf_cfg.c **** \par Example
 412:C:/Workspace/FW_Inertia/branch_indesit/CFG_DishWasher/CFG_Inertia\BusCommPltf_cfg.c **** \code
 413:C:/Workspace/FW_Inertia/branch_indesit/CFG_DishWasher/CFG_Inertia\BusCommPltf_cfg.c **** 
 414:C:/Workspace/FW_Inertia/branch_indesit/CFG_DishWasher/CFG_Inertia\BusCommPltf_cfg.c **** \endcode
 415:C:/Workspace/FW_Inertia/branch_indesit/CFG_DishWasher/CFG_Inertia\BusCommPltf_cfg.c **** */
 416:C:/Workspace/FW_Inertia/branch_indesit/CFG_DishWasher/CFG_Inertia\BusCommPltf_cfg.c **** void UnuseUiInfo(void) 
 417:C:/Workspace/FW_Inertia/branch_indesit/CFG_DishWasher/CFG_Inertia\BusCommPltf_cfg.c **** {
 418:C:/Workspace/FW_Inertia/branch_indesit/CFG_DishWasher/CFG_Inertia\BusCommPltf_cfg.c ****   OS_Unuse(&SemaUiInfo);
 419:C:/Workspace/FW_Inertia/branch_indesit/CFG_DishWasher/CFG_Inertia\BusCommPltf_cfg.c **** }
 420:C:/Workspace/FW_Inertia/branch_indesit/CFG_DishWasher/CFG_Inertia\BusCommPltf_cfg.c **** 
 421:C:/Workspace/FW_Inertia/branch_indesit/CFG_DishWasher/CFG_Inertia\BusCommPltf_cfg.c **** 
 422:C:/Workspace/FW_Inertia/branch_indesit/CFG_DishWasher/CFG_Inertia\BusCommPltf_cfg.c **** 
 423:C:/Workspace/FW_Inertia/branch_indesit/CFG_DishWasher/CFG_Inertia\BusCommPltf_cfg.c **** 
 424:C:/Workspace/FW_Inertia/branch_indesit/CFG_DishWasher/CFG_Inertia\BusCommPltf_cfg.c **** #if defined(CONFIG_LIB_EXTERNAL_BOARD_SUPPORT)
 425:C:/Workspace/FW_Inertia/branch_indesit/CFG_DishWasher/CFG_Inertia\BusCommPltf_cfg.c **** /**
 426:C:/Workspace/FW_Inertia/branch_indesit/CFG_DishWasher/CFG_Inertia\BusCommPltf_cfg.c **** Returns if communication with External Board is active
 427:C:/Workspace/FW_Inertia/branch_indesit/CFG_DishWasher/CFG_Inertia\BusCommPltf_cfg.c **** 
 428:C:/Workspace/FW_Inertia/branch_indesit/CFG_DishWasher/CFG_Inertia\BusCommPltf_cfg.c **** \par Example
 429:C:/Workspace/FW_Inertia/branch_indesit/CFG_DishWasher/CFG_Inertia\BusCommPltf_cfg.c **** \code
 430:C:/Workspace/FW_Inertia/branch_indesit/CFG_DishWasher/CFG_Inertia\BusCommPltf_cfg.c **** 
 431:C:/Workspace/FW_Inertia/branch_indesit/CFG_DishWasher/CFG_Inertia\BusCommPltf_cfg.c **** \endcode
 432:C:/Workspace/FW_Inertia/branch_indesit/CFG_DishWasher/CFG_Inertia\BusCommPltf_cfg.c **** */
 433:C:/Workspace/FW_Inertia/branch_indesit/CFG_DishWasher/CFG_Inertia\BusCommPltf_cfg.c **** uint8_t CP_GetExternalBoardCommStatus(void)
 434:C:/Workspace/FW_Inertia/branch_indesit/CFG_DishWasher/CFG_Inertia\BusCommPltf_cfg.c **** {
 435:C:/Workspace/FW_Inertia/branch_indesit/CFG_DishWasher/CFG_Inertia\BusCommPltf_cfg.c ****   uint8_t val;
 436:C:/Workspace/FW_Inertia/branch_indesit/CFG_DishWasher/CFG_Inertia\BusCommPltf_cfg.c **** 
 437:C:/Workspace/FW_Inertia/branch_indesit/CFG_DishWasher/CFG_Inertia\BusCommPltf_cfg.c ****   /*
 438:C:/Workspace/FW_Inertia/branch_indesit/CFG_DishWasher/CFG_Inertia\BusCommPltf_cfg.c ****   UseExternalBoard();
 439:C:/Workspace/FW_Inertia/branch_indesit/CFG_DishWasher/CFG_Inertia\BusCommPltf_cfg.c ****   needed if not atomic operation */
 440:C:/Workspace/FW_Inertia/branch_indesit/CFG_DishWasher/CFG_Inertia\BusCommPltf_cfg.c ****   val = ExternalBoardCommStatus;
 441:C:/Workspace/FW_Inertia/branch_indesit/CFG_DishWasher/CFG_Inertia\BusCommPltf_cfg.c ****   /*UnuseExternalBoard();*/
 442:C:/Workspace/FW_Inertia/branch_indesit/CFG_DishWasher/CFG_Inertia\BusCommPltf_cfg.c ****   
 443:C:/Workspace/FW_Inertia/branch_indesit/CFG_DishWasher/CFG_Inertia\BusCommPltf_cfg.c ****   return val;
 444:C:/Workspace/FW_Inertia/branch_indesit/CFG_DishWasher/CFG_Inertia\BusCommPltf_cfg.c **** }
 445:C:/Workspace/FW_Inertia/branch_indesit/CFG_DishWasher/CFG_Inertia\BusCommPltf_cfg.c **** 
 446:C:/Workspace/FW_Inertia/branch_indesit/CFG_DishWasher/CFG_Inertia\BusCommPltf_cfg.c **** 
 447:C:/Workspace/FW_Inertia/branch_indesit/CFG_DishWasher/CFG_Inertia\BusCommPltf_cfg.c **** 
 448:C:/Workspace/FW_Inertia/branch_indesit/CFG_DishWasher/CFG_Inertia\BusCommPltf_cfg.c **** /**
 449:C:/Workspace/FW_Inertia/branch_indesit/CFG_DishWasher/CFG_Inertia\BusCommPltf_cfg.c **** Signals communication with External Board as not active
 450:C:/Workspace/FW_Inertia/branch_indesit/CFG_DishWasher/CFG_Inertia\BusCommPltf_cfg.c **** 
 451:C:/Workspace/FW_Inertia/branch_indesit/CFG_DishWasher/CFG_Inertia\BusCommPltf_cfg.c **** \par Example
 452:C:/Workspace/FW_Inertia/branch_indesit/CFG_DishWasher/CFG_Inertia\BusCommPltf_cfg.c **** \code
 453:C:/Workspace/FW_Inertia/branch_indesit/CFG_DishWasher/CFG_Inertia\BusCommPltf_cfg.c **** 
 454:C:/Workspace/FW_Inertia/branch_indesit/CFG_DishWasher/CFG_Inertia\BusCommPltf_cfg.c **** \endcode
 455:C:/Workspace/FW_Inertia/branch_indesit/CFG_DishWasher/CFG_Inertia\BusCommPltf_cfg.c **** */
 456:C:/Workspace/FW_Inertia/branch_indesit/CFG_DishWasher/CFG_Inertia\BusCommPltf_cfg.c **** void CP_ResetExternalBoardCommStatus(void)
 457:C:/Workspace/FW_Inertia/branch_indesit/CFG_DishWasher/CFG_Inertia\BusCommPltf_cfg.c **** {
 458:C:/Workspace/FW_Inertia/branch_indesit/CFG_DishWasher/CFG_Inertia\BusCommPltf_cfg.c ****   /*
 459:C:/Workspace/FW_Inertia/branch_indesit/CFG_DishWasher/CFG_Inertia\BusCommPltf_cfg.c ****   UseExternalBoard();
 460:C:/Workspace/FW_Inertia/branch_indesit/CFG_DishWasher/CFG_Inertia\BusCommPltf_cfg.c ****   needed if not atomic operation
 461:C:/Workspace/FW_Inertia/branch_indesit/CFG_DishWasher/CFG_Inertia\BusCommPltf_cfg.c ****   */
 462:C:/Workspace/FW_Inertia/branch_indesit/CFG_DishWasher/CFG_Inertia\BusCommPltf_cfg.c ****   ExternalBoardCommStatus = 0;
 463:C:/Workspace/FW_Inertia/branch_indesit/CFG_DishWasher/CFG_Inertia\BusCommPltf_cfg.c ****   /*
 464:C:/Workspace/FW_Inertia/branch_indesit/CFG_DishWasher/CFG_Inertia\BusCommPltf_cfg.c ****   UnuseExternalBoard();
 465:C:/Workspace/FW_Inertia/branch_indesit/CFG_DishWasher/CFG_Inertia\BusCommPltf_cfg.c ****   */
 466:C:/Workspace/FW_Inertia/branch_indesit/CFG_DishWasher/CFG_Inertia\BusCommPltf_cfg.c **** }
 467:C:/Workspace/FW_Inertia/branch_indesit/CFG_DishWasher/CFG_Inertia\BusCommPltf_cfg.c **** 
 468:C:/Workspace/FW_Inertia/branch_indesit/CFG_DishWasher/CFG_Inertia\BusCommPltf_cfg.c **** #endif /* defined(CONFIG_LIB_EXTERNAL_BOARD_SUPPORT) */
 469:C:/Workspace/FW_Inertia/branch_indesit/CFG_DishWasher/CFG_Inertia\BusCommPltf_cfg.c **** 
 470:C:/Workspace/FW_Inertia/branch_indesit/CFG_DishWasher/CFG_Inertia\BusCommPltf_cfg.c **** 
 471:C:/Workspace/FW_Inertia/branch_indesit/CFG_DishWasher/CFG_Inertia\BusCommPltf_cfg.c **** 
 472:C:/Workspace/FW_Inertia/branch_indesit/CFG_DishWasher/CFG_Inertia\BusCommPltf_cfg.c **** /* End of slave */		
 473:C:/Workspace/FW_Inertia/branch_indesit/CFG_DishWasher/CFG_Inertia\BusCommPltf_cfg.c **** BEGIN_BCP_EOSN()
 474:C:/Workspace/FW_Inertia/branch_indesit/CFG_DishWasher/CFG_Inertia\BusCommPltf_cfg.c **** 	BEGIN_BCP_EOSN__EE()
 475:C:/Workspace/FW_Inertia/branch_indesit/CFG_DishWasher/CFG_Inertia\BusCommPltf_cfg.c **** 		BCP_EOSN__EE(PP_EE_TYPE_READ_STATUS,    CBF_OnReadStatusCompleted)
 476:C:/Workspace/FW_Inertia/branch_indesit/CFG_DishWasher/CFG_Inertia\BusCommPltf_cfg.c **** 		BCP_EOSN__EE(PP_EE_TYPE_READ_REGS,      CBF_OnReadRegulationsCompleted)
 477:C:/Workspace/FW_Inertia/branch_indesit/CFG_DishWasher/CFG_Inertia\BusCommPltf_cfg.c **** 		END_BCP_EOSN__EE()
 478:C:/Workspace/FW_Inertia/branch_indesit/CFG_DishWasher/CFG_Inertia\BusCommPltf_cfg.c **** 	BEGIN_BCP_EOSN__EE_RX()
 479:C:/Workspace/FW_Inertia/branch_indesit/CFG_DishWasher/CFG_Inertia\BusCommPltf_cfg.c **** 		BCP_EOSN__EE(PP_EE_TYPE_WRITE_UIINFO,   CBF_OnWriteUIInfoCompleted)
 480:C:/Workspace/FW_Inertia/branch_indesit/CFG_DishWasher/CFG_Inertia\BusCommPltf_cfg.c **** 	END_BCP_EOSN__EE()
 481:C:/Workspace/FW_Inertia/branch_indesit/CFG_DishWasher/CFG_Inertia\BusCommPltf_cfg.c **** END_BCP_EOSN()
 482:C:/Workspace/FW_Inertia/branch_indesit/CFG_DishWasher/CFG_Inertia\BusCommPltf_cfg.c **** 
 483:C:/Workspace/FW_Inertia/branch_indesit/CFG_DishWasher/CFG_Inertia\BusCommPltf_cfg.c **** 
 484:C:/Workspace/FW_Inertia/branch_indesit/CFG_DishWasher/CFG_Inertia\BusCommPltf_cfg.c **** /**
 485:C:/Workspace/FW_Inertia/branch_indesit/CFG_DishWasher/CFG_Inertia\BusCommPltf_cfg.c **** Communication Platform callback: called in the driver interrupt by platform protocol
 486:C:/Workspace/FW_Inertia/branch_indesit/CFG_DishWasher/CFG_Inertia\BusCommPltf_cfg.c **** \param [in] ch communication channel
 487:C:/Workspace/FW_Inertia/branch_indesit/CFG_DishWasher/CFG_Inertia\BusCommPltf_cfg.c **** \param [in] notif, not used
 488:C:/Workspace/FW_Inertia/branch_indesit/CFG_DishWasher/CFG_Inertia\BusCommPltf_cfg.c **** */
 489:C:/Workspace/FW_Inertia/branch_indesit/CFG_DishWasher/CFG_Inertia\BusCommPltf_cfg.c **** void ActionComm(IO_ChannelType ch, IO_NotificationType notif) 
 490:C:/Workspace/FW_Inertia/branch_indesit/CFG_DishWasher/CFG_Inertia\BusCommPltf_cfg.c **** {
 491:C:/Workspace/FW_Inertia/branch_indesit/CFG_DishWasher/CFG_Inertia\BusCommPltf_cfg.c ****     (void) notif;
 492:C:/Workspace/FW_Inertia/branch_indesit/CFG_DishWasher/CFG_Inertia\BusCommPltf_cfg.c ****     
 493:C:/Workspace/FW_Inertia/branch_indesit/CFG_DishWasher/CFG_Inertia\BusCommPltf_cfg.c **** 	if(ch == (IO_ChannelType)(CP_I2C_CH_ID))
 494:C:/Workspace/FW_Inertia/branch_indesit/CFG_DishWasher/CFG_Inertia\BusCommPltf_cfg.c **** 	{
 495:C:/Workspace/FW_Inertia/branch_indesit/CFG_DishWasher/CFG_Inertia\BusCommPltf_cfg.c ****   	    OS_SignalEvent(MAIN_OS_EVENT_I2C, &CP_CommunicationTaskTCB);
 496:C:/Workspace/FW_Inertia/branch_indesit/CFG_DishWasher/CFG_Inertia\BusCommPltf_cfg.c **** 	}
 497:C:/Workspace/FW_Inertia/branch_indesit/CFG_DishWasher/CFG_Inertia\BusCommPltf_cfg.c **** #if defined(CONFIG_LIB_EXTERNAL_BOARD_SUPPORT)
 498:C:/Workspace/FW_Inertia/branch_indesit/CFG_DishWasher/CFG_Inertia\BusCommPltf_cfg.c ****         if(ch == (IO_ChannelType)(CP_UART1_CH_ID))
 499:C:/Workspace/FW_Inertia/branch_indesit/CFG_DishWasher/CFG_Inertia\BusCommPltf_cfg.c ****         {
 500:C:/Workspace/FW_Inertia/branch_indesit/CFG_DishWasher/CFG_Inertia\BusCommPltf_cfg.c ****             OS_SignalEvent(MAIN_OS_EVENT_UART, &CP_CommunicationTaskTCB);
 501:C:/Workspace/FW_Inertia/branch_indesit/CFG_DishWasher/CFG_Inertia\BusCommPltf_cfg.c ****         }
 502:C:/Workspace/FW_Inertia/branch_indesit/CFG_DishWasher/CFG_Inertia\BusCommPltf_cfg.c **** #endif         
 503:C:/Workspace/FW_Inertia/branch_indesit/CFG_DishWasher/CFG_Inertia\BusCommPltf_cfg.c **** }
 504:C:/Workspace/FW_Inertia/branch_indesit/CFG_DishWasher/CFG_Inertia\BusCommPltf_cfg.c **** 
 505:C:/Workspace/FW_Inertia/branch_indesit/CFG_DishWasher/CFG_Inertia\BusCommPltf_cfg.c **** 
 506:C:/Workspace/FW_Inertia/branch_indesit/CFG_DishWasher/CFG_Inertia\BusCommPltf_cfg.c **** 
 507:C:/Workspace/FW_Inertia/branch_indesit/CFG_DishWasher/CFG_Inertia\BusCommPltf_cfg.c **** 
 508:C:/Workspace/FW_Inertia/branch_indesit/CFG_DishWasher/CFG_Inertia\BusCommPltf_cfg.c **** /* Local Function */
 509:C:/Workspace/FW_Inertia/branch_indesit/CFG_DishWasher/CFG_Inertia\BusCommPltf_cfg.c **** 
 510:C:/Workspace/FW_Inertia/branch_indesit/CFG_DishWasher/CFG_Inertia\BusCommPltf_cfg.c **** #if defined(CONFIG_LIB_EXTERNAL_BOARD_SUPPORT)
 511:C:/Workspace/FW_Inertia/branch_indesit/CFG_DishWasher/CFG_Inertia\BusCommPltf_cfg.c **** static void CP_SetExternalBoardCommStatus(void)
 512:C:/Workspace/FW_Inertia/branch_indesit/CFG_DishWasher/CFG_Inertia\BusCommPltf_cfg.c **** {
 513:C:/Workspace/FW_Inertia/branch_indesit/CFG_DishWasher/CFG_Inertia\BusCommPltf_cfg.c ****   /*
 514:C:/Workspace/FW_Inertia/branch_indesit/CFG_DishWasher/CFG_Inertia\BusCommPltf_cfg.c ****   UseExternalBoard();
 515:C:/Workspace/FW_Inertia/branch_indesit/CFG_DishWasher/CFG_Inertia\BusCommPltf_cfg.c ****   needed if not atomic operation
 516:C:/Workspace/FW_Inertia/branch_indesit/CFG_DishWasher/CFG_Inertia\BusCommPltf_cfg.c ****   */
 517:C:/Workspace/FW_Inertia/branch_indesit/CFG_DishWasher/CFG_Inertia\BusCommPltf_cfg.c ****   ExternalBoardCommStatus = 1;
 518:C:/Workspace/FW_Inertia/branch_indesit/CFG_DishWasher/CFG_Inertia\BusCommPltf_cfg.c ****   /*
 519:C:/Workspace/FW_Inertia/branch_indesit/CFG_DishWasher/CFG_Inertia\BusCommPltf_cfg.c ****   UnuseExternalBoard();
 520:C:/Workspace/FW_Inertia/branch_indesit/CFG_DishWasher/CFG_Inertia\BusCommPltf_cfg.c ****   */
 521:C:/Workspace/FW_Inertia/branch_indesit/CFG_DishWasher/CFG_Inertia\BusCommPltf_cfg.c **** }
 522:C:/Workspace/FW_Inertia/branch_indesit/CFG_DishWasher/CFG_Inertia\BusCommPltf_cfg.c **** 
 523:C:/Workspace/FW_Inertia/branch_indesit/CFG_DishWasher/CFG_Inertia\BusCommPltf_cfg.c **** 
 524:C:/Workspace/FW_Inertia/branch_indesit/CFG_DishWasher/CFG_Inertia\BusCommPltf_cfg.c **** DEF_CSM_EE_CUSTOM_FUNC(Ctrl_DspExtraRequest)
 525:C:/Workspace/FW_Inertia/branch_indesit/CFG_DishWasher/CFG_Inertia\BusCommPltf_cfg.c **** {
 526:C:/Workspace/FW_Inertia/branch_indesit/CFG_DishWasher/CFG_Inertia\BusCommPltf_cfg.c ****     (void) ch;
 527:C:/Workspace/FW_Inertia/branch_indesit/CFG_DishWasher/CFG_Inertia\BusCommPltf_cfg.c **** 	pinfo->error=IO_E_INVALID_VALUE;
 528:C:/Workspace/FW_Inertia/branch_indesit/CFG_DishWasher/CFG_Inertia\BusCommPltf_cfg.c **** 	
 529:C:/Workspace/FW_Inertia/branch_indesit/CFG_DishWasher/CFG_Inertia\BusCommPltf_cfg.c **** 	if(LIB_IOM_NO_ERROR == LIB_IOM_External_SetExtraRequest(pdata, len))
 530:C:/Workspace/FW_Inertia/branch_indesit/CFG_DishWasher/CFG_Inertia\BusCommPltf_cfg.c **** 	{
 531:C:/Workspace/FW_Inertia/branch_indesit/CFG_DishWasher/CFG_Inertia\BusCommPltf_cfg.c **** 		pinfo->error=IO_E_OK;
 532:C:/Workspace/FW_Inertia/branch_indesit/CFG_DishWasher/CFG_Inertia\BusCommPltf_cfg.c **** 	}
 533:C:/Workspace/FW_Inertia/branch_indesit/CFG_DishWasher/CFG_Inertia\BusCommPltf_cfg.c **** }
 534:C:/Workspace/FW_Inertia/branch_indesit/CFG_DishWasher/CFG_Inertia\BusCommPltf_cfg.c **** 
 535:C:/Workspace/FW_Inertia/branch_indesit/CFG_DishWasher/CFG_Inertia\BusCommPltf_cfg.c **** 
 536:C:/Workspace/FW_Inertia/branch_indesit/CFG_DishWasher/CFG_Inertia\BusCommPltf_cfg.c **** DEF_CSM_EE_CUSTOM_FUNC(Ctrl_DspReadRamRequest)
 537:C:/Workspace/FW_Inertia/branch_indesit/CFG_DishWasher/CFG_Inertia\BusCommPltf_cfg.c **** {
 538:C:/Workspace/FW_Inertia/branch_indesit/CFG_DishWasher/CFG_Inertia\BusCommPltf_cfg.c **** 	(void) ch;
 539:C:/Workspace/FW_Inertia/branch_indesit/CFG_DishWasher/CFG_Inertia\BusCommPltf_cfg.c **** 	pinfo->error=IO_E_INVALID_VALUE;
 540:C:/Workspace/FW_Inertia/branch_indesit/CFG_DishWasher/CFG_Inertia\BusCommPltf_cfg.c **** 	
 541:C:/Workspace/FW_Inertia/branch_indesit/CFG_DishWasher/CFG_Inertia\BusCommPltf_cfg.c **** 	if(LIB_IOM_NO_ERROR == LIB_IOM_External_SetReadRamRequest(pdata, len))
 542:C:/Workspace/FW_Inertia/branch_indesit/CFG_DishWasher/CFG_Inertia\BusCommPltf_cfg.c **** 	{
 543:C:/Workspace/FW_Inertia/branch_indesit/CFG_DishWasher/CFG_Inertia\BusCommPltf_cfg.c **** 		pinfo->error=IO_E_OK;
 544:C:/Workspace/FW_Inertia/branch_indesit/CFG_DishWasher/CFG_Inertia\BusCommPltf_cfg.c **** 	}
 545:C:/Workspace/FW_Inertia/branch_indesit/CFG_DishWasher/CFG_Inertia\BusCommPltf_cfg.c **** }
 546:C:/Workspace/FW_Inertia/branch_indesit/CFG_DishWasher/CFG_Inertia\BusCommPltf_cfg.c **** 
 547:C:/Workspace/FW_Inertia/branch_indesit/CFG_DishWasher/CFG_Inertia\BusCommPltf_cfg.c **** DEF_CSM_EE_CUSTOM_FUNC(Ctrl_DspWriteRamRequest)
 548:C:/Workspace/FW_Inertia/branch_indesit/CFG_DishWasher/CFG_Inertia\BusCommPltf_cfg.c **** {
 549:C:/Workspace/FW_Inertia/branch_indesit/CFG_DishWasher/CFG_Inertia\BusCommPltf_cfg.c ****     (void) ch;
 550:C:/Workspace/FW_Inertia/branch_indesit/CFG_DishWasher/CFG_Inertia\BusCommPltf_cfg.c **** 	pinfo->error=IO_E_INVALID_VALUE;
 551:C:/Workspace/FW_Inertia/branch_indesit/CFG_DishWasher/CFG_Inertia\BusCommPltf_cfg.c **** 	
 552:C:/Workspace/FW_Inertia/branch_indesit/CFG_DishWasher/CFG_Inertia\BusCommPltf_cfg.c **** 	if(LIB_IOM_NO_ERROR == LIB_IOM_External_SetWriteRamRequest(pdata, len))
 553:C:/Workspace/FW_Inertia/branch_indesit/CFG_DishWasher/CFG_Inertia\BusCommPltf_cfg.c **** 	{
 554:C:/Workspace/FW_Inertia/branch_indesit/CFG_DishWasher/CFG_Inertia\BusCommPltf_cfg.c **** 		pinfo->error=IO_E_OK;
 555:C:/Workspace/FW_Inertia/branch_indesit/CFG_DishWasher/CFG_Inertia\BusCommPltf_cfg.c **** 	}
 556:C:/Workspace/FW_Inertia/branch_indesit/CFG_DishWasher/CFG_Inertia\BusCommPltf_cfg.c **** }
 557:C:/Workspace/FW_Inertia/branch_indesit/CFG_DishWasher/CFG_Inertia\BusCommPltf_cfg.c **** 
 558:C:/Workspace/FW_Inertia/branch_indesit/CFG_DishWasher/CFG_Inertia\BusCommPltf_cfg.c **** 
 559:C:/Workspace/FW_Inertia/branch_indesit/CFG_DishWasher/CFG_Inertia\BusCommPltf_cfg.c **** DEF_CSM_EE_CUSTOM_FUNC(Ctrl_InfoDspRequest)
 560:C:/Workspace/FW_Inertia/branch_indesit/CFG_DishWasher/CFG_Inertia\BusCommPltf_cfg.c **** {
 561:C:/Workspace/FW_Inertia/branch_indesit/CFG_DishWasher/CFG_Inertia\BusCommPltf_cfg.c ****     (void) ch;
 562:C:/Workspace/FW_Inertia/branch_indesit/CFG_DishWasher/CFG_Inertia\BusCommPltf_cfg.c **** 	LIB_IOM_External_ProcessInfoPacketData(0, pdata, len);
 563:C:/Workspace/FW_Inertia/branch_indesit/CFG_DishWasher/CFG_Inertia\BusCommPltf_cfg.c **** 
 564:C:/Workspace/FW_Inertia/branch_indesit/CFG_DishWasher/CFG_Inertia\BusCommPltf_cfg.c **** 	/* Update norm. Vpeak - get from DSP at bytes 6-7 then multiplied by 2 due to different normalizat
 565:C:/Workspace/FW_Inertia/branch_indesit/CFG_DishWasher/CFG_Inertia\BusCommPltf_cfg.c **** 	normVpeak = GETW_BE(ExternalGlobalData_0+6) * 2;
 566:C:/Workspace/FW_Inertia/branch_indesit/CFG_DishWasher/CFG_Inertia\BusCommPltf_cfg.c **** 
 567:C:/Workspace/FW_Inertia/branch_indesit/CFG_DishWasher/CFG_Inertia\BusCommPltf_cfg.c **** 	pinfo->error=IO_E_OK;
 568:C:/Workspace/FW_Inertia/branch_indesit/CFG_DishWasher/CFG_Inertia\BusCommPltf_cfg.c ****     CP_SetExternalBoardCommStatus();
 569:C:/Workspace/FW_Inertia/branch_indesit/CFG_DishWasher/CFG_Inertia\BusCommPltf_cfg.c **** }
 570:C:/Workspace/FW_Inertia/branch_indesit/CFG_DishWasher/CFG_Inertia\BusCommPltf_cfg.c **** 
 571:C:/Workspace/FW_Inertia/branch_indesit/CFG_DishWasher/CFG_Inertia\BusCommPltf_cfg.c **** DEF_CSM_EE_CUSTOM_FUNC(Ctrl_CmdDspRequest)
 572:C:/Workspace/FW_Inertia/branch_indesit/CFG_DishWasher/CFG_Inertia\BusCommPltf_cfg.c **** {
 573:C:/Workspace/FW_Inertia/branch_indesit/CFG_DishWasher/CFG_Inertia\BusCommPltf_cfg.c ****     
 574:C:/Workspace/FW_Inertia/branch_indesit/CFG_DishWasher/CFG_Inertia\BusCommPltf_cfg.c **** 	uint8_t* pCmd=0;
 575:C:/Workspace/FW_Inertia/branch_indesit/CFG_DishWasher/CFG_Inertia\BusCommPltf_cfg.c **** 	uint8_t  cmdlen=0;
 576:C:/Workspace/FW_Inertia/branch_indesit/CFG_DishWasher/CFG_Inertia\BusCommPltf_cfg.c **** 	(void) ch;
 577:C:/Workspace/FW_Inertia/branch_indesit/CFG_DishWasher/CFG_Inertia\BusCommPltf_cfg.c **** 	(void) pdata;
 578:C:/Workspace/FW_Inertia/branch_indesit/CFG_DishWasher/CFG_Inertia\BusCommPltf_cfg.c **** 	(void) len;
 579:C:/Workspace/FW_Inertia/branch_indesit/CFG_DishWasher/CFG_Inertia\BusCommPltf_cfg.c **** 	pinfo->error=IO_E_INVALID_VALUE;
 580:C:/Workspace/FW_Inertia/branch_indesit/CFG_DishWasher/CFG_Inertia\BusCommPltf_cfg.c **** 
 581:C:/Workspace/FW_Inertia/branch_indesit/CFG_DishWasher/CFG_Inertia\BusCommPltf_cfg.c **** 	if(LIB_IOM_NO_ERROR == LIB_IOM_External_GetCommandBuffer(0, &pCmd, &cmdlen))
 582:C:/Workspace/FW_Inertia/branch_indesit/CFG_DishWasher/CFG_Inertia\BusCommPltf_cfg.c **** 	{
 583:C:/Workspace/FW_Inertia/branch_indesit/CFG_DishWasher/CFG_Inertia\BusCommPltf_cfg.c **** 		pinfo->len=cmdlen;
 584:C:/Workspace/FW_Inertia/branch_indesit/CFG_DishWasher/CFG_Inertia\BusCommPltf_cfg.c **** 		if(pinfo->len)
 585:C:/Workspace/FW_Inertia/branch_indesit/CFG_DishWasher/CFG_Inertia\BusCommPltf_cfg.c **** 		{
 586:C:/Workspace/FW_Inertia/branch_indesit/CFG_DishWasher/CFG_Inertia\BusCommPltf_cfg.c **** 			pinfo->error=IO_E_OK;
 587:C:/Workspace/FW_Inertia/branch_indesit/CFG_DishWasher/CFG_Inertia\BusCommPltf_cfg.c **** 			pinfo->address= (IO_MemPtrType)pCmd;
 588:C:/Workspace/FW_Inertia/branch_indesit/CFG_DishWasher/CFG_Inertia\BusCommPltf_cfg.c **** 			pinfo->option |= PP_SL_RESP_ANSW_OPT;
 589:C:/Workspace/FW_Inertia/branch_indesit/CFG_DishWasher/CFG_Inertia\BusCommPltf_cfg.c **** 		}
 590:C:/Workspace/FW_Inertia/branch_indesit/CFG_DishWasher/CFG_Inertia\BusCommPltf_cfg.c **** 	}
 591:C:/Workspace/FW_Inertia/branch_indesit/CFG_DishWasher/CFG_Inertia\BusCommPltf_cfg.c **** }
 592:C:/Workspace/FW_Inertia/branch_indesit/CFG_DishWasher/CFG_Inertia\BusCommPltf_cfg.c **** 
 593:C:/Workspace/FW_Inertia/branch_indesit/CFG_DishWasher/CFG_Inertia\BusCommPltf_cfg.c **** #endif /* defined(CONFIG_LIB_EXTERNAL_BOARD_SUPPORT) */
 594:C:/Workspace/FW_Inertia/branch_indesit/CFG_DishWasher/CFG_Inertia\BusCommPltf_cfg.c **** 
 595:C:/Workspace/FW_Inertia/branch_indesit/CFG_DishWasher/CFG_Inertia\BusCommPltf_cfg.c **** 
 596:C:/Workspace/FW_Inertia/branch_indesit/CFG_DishWasher/CFG_Inertia\BusCommPltf_cfg.c **** #ifdef CONFIG_PM_POWER_PROFILE_SUPPORT
 597:C:/Workspace/FW_Inertia/branch_indesit/CFG_DishWasher/CFG_Inertia\BusCommPltf_cfg.c **** static void EndOfPowerProfileRequest(void)
 598:C:/Workspace/FW_Inertia/branch_indesit/CFG_DishWasher/CFG_Inertia\BusCommPltf_cfg.c **** {
   9                             		.loc 1 598 0
 599:C:/Workspace/FW_Inertia/branch_indesit/CFG_DishWasher/CFG_Inertia\BusCommPltf_cfg.c **** 	UnusePowerProfile();
  10                             		.loc 1 599 0
  11 0000 04 00 00 00             		bra	_UnusePowerProfile
  12                             	.LVL0:
  13                             	.LFE15:
  15                             		.section	.text.Set_CPApplianceDataItem,"ax",@progbits
  16                             		.global	_Set_CPApplianceDataItem
  18                             	_Set_CPApplianceDataItem:
  19                             	.LFB0:
 360:C:/Workspace/FW_Inertia/branch_indesit/CFG_DishWasher/CFG_Inertia\BusCommPltf_cfg.c **** {
  20                             		.loc 1 360 0
  21                             	.LVL1:
 361:C:/Workspace/FW_Inertia/branch_indesit/CFG_DishWasher/CFG_Inertia\BusCommPltf_cfg.c ****     if(eIndex < (CPApplianceDataTableIndexType)(sizeof(CPApplianceDataTable)/sizeof(CPApplianceData
  22                             		.loc 1 361 0
  23 0000 61 51                   		cmp	#5, r1
  24 0002 24 10                   		bgtu	.L2
 363:C:/Workspace/FW_Inertia/branch_indesit/CFG_DishWasher/CFG_Inertia\BusCommPltf_cfg.c ****         CPApplianceDataTable[eIndex] = *pData;
  25                             		.loc 1 363 0
  26 0004 6C 31                   		shll	#3, r1
  27                             	.LVL2:
  28 0006 70 11 00 00 00 00       		add	#_CPApplianceDataTable, r1
  29 000c E0 21                   		mov.L	[r2], [r1]
  30 000e E5 21 01 01             		mov.L	4[r2], 4[r1]
  31                             	.L2:
  32 0012 02                      		rts
  33                             	.LFE0:
  35                             		.section	.text.UseRegs,"ax",@progbits
  36                             		.global	_UseRegs
  38                             	_UseRegs:
  39                             	.LFB1:
 378:C:/Workspace/FW_Inertia/branch_indesit/CFG_DishWasher/CFG_Inertia\BusCommPltf_cfg.c **** {
  40                             		.loc 1 378 0
 379:C:/Workspace/FW_Inertia/branch_indesit/CFG_DishWasher/CFG_Inertia\BusCommPltf_cfg.c ****   OS_Use(&SemaRegs);
  41                             		.loc 1 379 0
  42 0000 FB 12 00 00 00 00       		mov.L	#_SemaRegs, r1
  43 0006 04 00 00 00             		bra	_OS_Use
  44                             	.LVL3:
  45                             	.LFE1:
  47                             		.section	.text.UnuseRegs,"ax",@progbits
  48                             		.global	_UnuseRegs
  50                             	_UnuseRegs:
  51                             	.LFB2:
 391:C:/Workspace/FW_Inertia/branch_indesit/CFG_DishWasher/CFG_Inertia\BusCommPltf_cfg.c **** {
  52                             		.loc 1 391 0
 392:C:/Workspace/FW_Inertia/branch_indesit/CFG_DishWasher/CFG_Inertia\BusCommPltf_cfg.c ****   OS_Unuse(&SemaRegs);
  53                             		.loc 1 392 0
  54 0000 FB 12 00 00 00 00       		mov.L	#_SemaRegs, r1
  55 0006 04 00 00 00             		bra	_OS_Unuse
  56                             	.LVL4:
  57                             	.LFE2:
  59                             		.section	.text.UseUiInfo,"ax",@progbits
  60                             		.global	_UseUiInfo
  62                             	_UseUiInfo:
  63                             	.LFB3:
 404:C:/Workspace/FW_Inertia/branch_indesit/CFG_DishWasher/CFG_Inertia\BusCommPltf_cfg.c **** {
  64                             		.loc 1 404 0
 405:C:/Workspace/FW_Inertia/branch_indesit/CFG_DishWasher/CFG_Inertia\BusCommPltf_cfg.c ****   OS_Use(&SemaUiInfo);
  65                             		.loc 1 405 0
  66 0000 FB 12 00 00 00 00       		mov.L	#_SemaUiInfo, r1
  67 0006 04 00 00 00             		bra	_OS_Use
  68                             	.LVL5:
  69                             	.LFE3:
  71                             		.section	.text.UnuseUiInfo,"ax",@progbits
  72                             		.global	_UnuseUiInfo
  74                             	_UnuseUiInfo:
  75                             	.LFB4:
 417:C:/Workspace/FW_Inertia/branch_indesit/CFG_DishWasher/CFG_Inertia\BusCommPltf_cfg.c **** {
  76                             		.loc 1 417 0
 418:C:/Workspace/FW_Inertia/branch_indesit/CFG_DishWasher/CFG_Inertia\BusCommPltf_cfg.c ****   OS_Unuse(&SemaUiInfo);
  77                             		.loc 1 418 0
  78 0000 FB 12 00 00 00 00       		mov.L	#_SemaUiInfo, r1
  79 0006 04 00 00 00             		bra	_OS_Unuse
  80                             	.LVL6:
  81                             	.LFE4:
  83                             		.section	.text.CP_GetExternalBoardCommStatus,"ax",@progbits
  84                             		.global	_CP_GetExternalBoardCommStatus
  86                             	_CP_GetExternalBoardCommStatus:
  87                             	.LFB5:
 434:C:/Workspace/FW_Inertia/branch_indesit/CFG_DishWasher/CFG_Inertia\BusCommPltf_cfg.c **** {
  88                             		.loc 1 434 0
  89                             	.LVL7:
 444:C:/Workspace/FW_Inertia/branch_indesit/CFG_DishWasher/CFG_Inertia\BusCommPltf_cfg.c **** }
  90                             		.loc 1 444 0
  91 0000 FB E2 00 00 00 00       		mov.L	#_ExternalBoardCommStatus, r14
  92 0006 58 E1                   		movu.B	[r14], r1
  93 0008 02                      		rts
  94                             	.LFE5:
  96                             		.section	.text.CP_ResetExternalBoardCommStatus,"ax",@progbits
  97                             		.global	_CP_ResetExternalBoardCommStatus
  99                             	_CP_ResetExternalBoardCommStatus:
 100                             	.LFB6:
 457:C:/Workspace/FW_Inertia/branch_indesit/CFG_DishWasher/CFG_Inertia\BusCommPltf_cfg.c **** {
 101                             		.loc 1 457 0
 462:C:/Workspace/FW_Inertia/branch_indesit/CFG_DishWasher/CFG_Inertia\BusCommPltf_cfg.c ****   ExternalBoardCommStatus = 0;
 102                             		.loc 1 462 0
 103 0000 FB E2 00 00 00 00       		mov.L	#_ExternalBoardCommStatus, r14
 104 0006 F8 E4 00                		mov.B	#0, [r14]
 105 0009 02                      		rts
 106                             	.LFE6:
 108                             		.section	.text.PP_EosnFunction,"ax",@progbits
 109                             		.global	_PP_EosnFunction
 111                             	_PP_EosnFunction:
 112                             	.LFB7:
 473:C:/Workspace/FW_Inertia/branch_indesit/CFG_DishWasher/CFG_Inertia\BusCommPltf_cfg.c **** BEGIN_BCP_EOSN()
 113                             		.loc 1 473 0
 114 0000 7E A7                   		push.l	r7
 115                             	.LCFI0:
 474:C:/Workspace/FW_Inertia/branch_indesit/CFG_DishWasher/CFG_Inertia\BusCommPltf_cfg.c **** 	BEGIN_BCP_EOSN__EE()
 116                             		.loc 1 474 0
 117 0002 5B 17                   		movu.B	r1, r7
 118 0004 75 17 1C                		mul	#28, r7
 119 0007 70 7E 00 00 00 00       		add	#_BCP_ChannelTable, r7, r14
 120 000d ED EE 04                		mov.L	16[r14], r14
 121 0010 59 E4 02                		movu.B	2[r14], r4
 122 0013 75 54 EE                		cmp	#0xee, r4
 123 0016 21 18                   		bne	.L11
 474:C:/Workspace/FW_Inertia/branch_indesit/CFG_DishWasher/CFG_Inertia\BusCommPltf_cfg.c **** 	BEGIN_BCP_EOSN__EE()
 124                             		.loc 1 474 0 is_stmt 0 discriminator 1
 125 0018 59 EE 04                		movu.B	4[r14], r14
 126 001b 75 5E 60                		cmp	#0x60, r14
 127 001e 17                      		beq	.L12
 128 001f 75 5E 62                		cmp	#0x62, r14
 129 0022 21 0C                   		bne	.L11
 130 0024 0E                      		bra	.L13
 131                             	.L12:
 475:C:/Workspace/FW_Inertia/branch_indesit/CFG_DishWasher/CFG_Inertia\BusCommPltf_cfg.c **** 		BCP_EOSN__EE(PP_EE_TYPE_READ_STATUS,    CBF_OnReadStatusCompleted)
 132                             		.loc 1 475 0 is_stmt 1
 133 0025 05 00 00 00             		bsr	_CBF_OnReadStatusCompleted
 134 0029 0D                      		bra	.L11
 135                             	.L13:
 476:C:/Workspace/FW_Inertia/branch_indesit/CFG_DishWasher/CFG_Inertia\BusCommPltf_cfg.c **** 		BCP_EOSN__EE(PP_EE_TYPE_READ_REGS,      CBF_OnReadRegulationsCompleted)
 136                             		.loc 1 476 0
 137 002a 05 00 00 00             		bsr	_CBF_OnReadRegulationsCompleted
 138                             		.balign 2,3,5
 139                             	.L11:
 478:C:/Workspace/FW_Inertia/branch_indesit/CFG_DishWasher/CFG_Inertia\BusCommPltf_cfg.c **** 	BEGIN_BCP_EOSN__EE_RX()
 140                             		.loc 1 478 0
 141 002e 70 77 00 00 00 00       		add	#_BCP_ChannelTable, r7
 142 0034 A9 7F                   		mov.L	20[r7], r7
 143 0036 59 7E 01                		movu.B	1[r7], r14
 144 0039 75 5E EE                		cmp	#0xee, r14
 145 003c 21 0E                   		bne	.L10
 478:C:/Workspace/FW_Inertia/branch_indesit/CFG_DishWasher/CFG_Inertia\BusCommPltf_cfg.c **** 	BEGIN_BCP_EOSN__EE_RX()
 146                             		.loc 1 478 0 is_stmt 0 discriminator 1
 147 003e B0 FF                   		movu.B	3[r7], r7
 148 0040 75 57 63                		cmp	#0x63, r7
 149 0043 1F                      		bne	.L10
 481:C:/Workspace/FW_Inertia/branch_indesit/CFG_DishWasher/CFG_Inertia\BusCommPltf_cfg.c **** END_BCP_EOSN()
 150                             		.loc 1 481 0 is_stmt 1
 151 0044 7E B7                   		pop	r7
 479:C:/Workspace/FW_Inertia/branch_indesit/CFG_DishWasher/CFG_Inertia\BusCommPltf_cfg.c **** 		BCP_EOSN__EE(PP_EE_TYPE_WRITE_UIINFO,   CBF_OnWriteUIInfoCompleted)
 152                             		.loc 1 479 0
 153 0046 04 00 00 00             		bra	_CBF_OnWriteUIInfoCompleted
 154                             	.L10:
 481:C:/Workspace/FW_Inertia/branch_indesit/CFG_DishWasher/CFG_Inertia\BusCommPltf_cfg.c **** END_BCP_EOSN()
 155                             		.loc 1 481 0
 156 004a 3F 77 01                		rtsd	#4, r7-r7
 157                             	.LFE7:
 159 004d 03                      		.section	.text.ActionComm,"ax",@progbits
 160                             		.global	_ActionComm
 162                             	_ActionComm:
 163                             	.LFB8:
 490:C:/Workspace/FW_Inertia/branch_indesit/CFG_DishWasher/CFG_Inertia\BusCommPltf_cfg.c **** {
 164                             		.loc 1 490 0
 165                             	.LVL8:
 493:C:/Workspace/FW_Inertia/branch_indesit/CFG_DishWasher/CFG_Inertia\BusCommPltf_cfg.c **** 	if(ch == (IO_ChannelType)(CP_I2C_CH_ID))
 166                             		.loc 1 493 0
 167 0000 5B 11                   		movu.B	r1, r1
 168 0002 61 01                   		cmp	#0, r1
 169 0004 1C                      		bne	.L18
 495:C:/Workspace/FW_Inertia/branch_indesit/CFG_DishWasher/CFG_Inertia\BusCommPltf_cfg.c ****   	    OS_SignalEvent(MAIN_OS_EVENT_I2C, &CP_CommunicationTaskTCB);
 170                             		.loc 1 495 0
 171 0005 66 11                   		mov.L	#1, r1
 172                             	.LVL9:
 173 0007 0F                      		bra	.L20
 174                             	.L18:
 498:C:/Workspace/FW_Inertia/branch_indesit/CFG_DishWasher/CFG_Inertia\BusCommPltf_cfg.c ****         if(ch == (IO_ChannelType)(CP_UART1_CH_ID))
 175                             		.loc 1 498 0
 176 0008 61 11                   		cmp	#1, r1
 177 000a 21 0E                   		bne	.L17
 500:C:/Workspace/FW_Inertia/branch_indesit/CFG_DishWasher/CFG_Inertia\BusCommPltf_cfg.c ****             OS_SignalEvent(MAIN_OS_EVENT_UART, &CP_CommunicationTaskTCB);
 178                             		.loc 1 500 0
 179 000c 66 21                   		mov.L	#2, r1
 180                             		.balign 2,3,5
 181                             	.L20:
 182 000e FB 22 00 00 00 00       		mov.L	#_CP_CommunicationTaskTCB, r2
 183                             	.LVL10:
 184 0014 04 00 00 00             		bra	_OS_SignalEvent
 185                             	.LVL11:
 186                             	.L17:
 187 0018 02                      		rts
 188                             	.LFE8:
 190 0019 03                      		.section	.text.CMS_EE_FUNC_Ctrl_DspExtraRequest,"ax",@progbits
 191                             		.global	_CMS_EE_FUNC_Ctrl_DspExtraRequest
 193                             	_CMS_EE_FUNC_Ctrl_DspExtraRequest:
 194                             	.LFB10:
 525:C:/Workspace/FW_Inertia/branch_indesit/CFG_DishWasher/CFG_Inertia\BusCommPltf_cfg.c **** {
 195                             		.loc 1 525 0
 196                             	.LVL12:
 197 0000 7E A7                   		push.l	r7
 198                             	.LCFI1:
 199 0002 EF 47                   		mov.L	r4, r7
 527:C:/Workspace/FW_Inertia/branch_indesit/CFG_DishWasher/CFG_Inertia\BusCommPltf_cfg.c **** 	pinfo->error=IO_E_INVALID_VALUE;
 200                             		.loc 1 527 0
 201 0004 3C 46 13                		mov.B	#19, 6[r4]
 529:C:/Workspace/FW_Inertia/branch_indesit/CFG_DishWasher/CFG_Inertia\BusCommPltf_cfg.c **** 	if(LIB_IOM_NO_ERROR == LIB_IOM_External_SetExtraRequest(pdata, len))
 202                             		.loc 1 529 0
 203 0007 EF 21                   		mov.L	r2, r1
 204                             	.LVL13:
 205 0009 CF 32                   		mov.B	r3, r2
 206                             	.LVL14:
 207 000b 05 00 00 00             		bsr	_LIB_IOM_External_SetExtraRequest
 208                             	.LVL15:
 209 000f 61 01                   		cmp	#0, r1
 210 0011 1B                      		bne	.L21
 531:C:/Workspace/FW_Inertia/branch_indesit/CFG_DishWasher/CFG_Inertia\BusCommPltf_cfg.c **** 		pinfo->error=IO_E_OK;
 211                             		.loc 1 531 0
 212 0012 81 F1                   		mov.B	r1, 6[r7]
 213                             		.balign 2,3,2
 214                             	.L21:
 533:C:/Workspace/FW_Inertia/branch_indesit/CFG_DishWasher/CFG_Inertia\BusCommPltf_cfg.c **** }
 215                             		.loc 1 533 0
 216 0014 3F 77 01                		rtsd	#4, r7-r7
 217                             	.LFE10:
 219 0017 03                      		.section	.text.CMS_EE_FUNC_Ctrl_DspReadRamRequest,"ax",@progbits
 220                             		.global	_CMS_EE_FUNC_Ctrl_DspReadRamRequest
 222                             	_CMS_EE_FUNC_Ctrl_DspReadRamRequest:
 223                             	.LFB11:
 537:C:/Workspace/FW_Inertia/branch_indesit/CFG_DishWasher/CFG_Inertia\BusCommPltf_cfg.c **** {
 224                             		.loc 1 537 0
 225                             	.LVL16:
 226 0000 7E A7                   		push.l	r7
 227                             	.LCFI2:
 228 0002 EF 47                   		mov.L	r4, r7
 539:C:/Workspace/FW_Inertia/branch_indesit/CFG_DishWasher/CFG_Inertia\BusCommPltf_cfg.c **** 	pinfo->error=IO_E_INVALID_VALUE;
 229                             		.loc 1 539 0
 230 0004 3C 46 13                		mov.B	#19, 6[r4]
 541:C:/Workspace/FW_Inertia/branch_indesit/CFG_DishWasher/CFG_Inertia\BusCommPltf_cfg.c **** 	if(LIB_IOM_NO_ERROR == LIB_IOM_External_SetReadRamRequest(pdata, len))
 231                             		.loc 1 541 0
 232 0007 EF 21                   		mov.L	r2, r1
 233                             	.LVL17:
 234 0009 CF 32                   		mov.B	r3, r2
 235                             	.LVL18:
 236 000b 05 00 00 00             		bsr	_LIB_IOM_External_SetReadRamRequest
 237                             	.LVL19:
 238 000f 61 01                   		cmp	#0, r1
 239 0011 1B                      		bne	.L24
 543:C:/Workspace/FW_Inertia/branch_indesit/CFG_DishWasher/CFG_Inertia\BusCommPltf_cfg.c **** 		pinfo->error=IO_E_OK;
 240                             		.loc 1 543 0
 241 0012 81 F1                   		mov.B	r1, 6[r7]
 242                             		.balign 2,3,2
 243                             	.L24:
 545:C:/Workspace/FW_Inertia/branch_indesit/CFG_DishWasher/CFG_Inertia\BusCommPltf_cfg.c **** }
 244                             		.loc 1 545 0
 245 0014 3F 77 01                		rtsd	#4, r7-r7
 246                             	.LFE11:
 248 0017 03                      		.section	.text.CMS_EE_FUNC_Ctrl_DspWriteRamRequest,"ax",@progbits
 249                             		.global	_CMS_EE_FUNC_Ctrl_DspWriteRamRequest
 251                             	_CMS_EE_FUNC_Ctrl_DspWriteRamRequest:
 252                             	.LFB12:
 548:C:/Workspace/FW_Inertia/branch_indesit/CFG_DishWasher/CFG_Inertia\BusCommPltf_cfg.c **** {
 253                             		.loc 1 548 0
 254                             	.LVL20:
 255 0000 7E A7                   		push.l	r7
 256                             	.LCFI3:
 257 0002 EF 47                   		mov.L	r4, r7
 550:C:/Workspace/FW_Inertia/branch_indesit/CFG_DishWasher/CFG_Inertia\BusCommPltf_cfg.c **** 	pinfo->error=IO_E_INVALID_VALUE;
 258                             		.loc 1 550 0
 259 0004 3C 46 13                		mov.B	#19, 6[r4]
 552:C:/Workspace/FW_Inertia/branch_indesit/CFG_DishWasher/CFG_Inertia\BusCommPltf_cfg.c **** 	if(LIB_IOM_NO_ERROR == LIB_IOM_External_SetWriteRamRequest(pdata, len))
 260                             		.loc 1 552 0
 261 0007 EF 21                   		mov.L	r2, r1
 262                             	.LVL21:
 263 0009 CF 32                   		mov.B	r3, r2
 264                             	.LVL22:
 265 000b 05 00 00 00             		bsr	_LIB_IOM_External_SetWriteRamRequest
 266                             	.LVL23:
 267 000f 61 01                   		cmp	#0, r1
 268 0011 1B                      		bne	.L27
 554:C:/Workspace/FW_Inertia/branch_indesit/CFG_DishWasher/CFG_Inertia\BusCommPltf_cfg.c **** 		pinfo->error=IO_E_OK;
 269                             		.loc 1 554 0
 270 0012 81 F1                   		mov.B	r1, 6[r7]
 271                             		.balign 2,3,2
 272                             	.L27:
 556:C:/Workspace/FW_Inertia/branch_indesit/CFG_DishWasher/CFG_Inertia\BusCommPltf_cfg.c **** }
 273                             		.loc 1 556 0
 274 0014 3F 77 01                		rtsd	#4, r7-r7
 275                             	.LFE12:
 277 0017 03                      		.section	.text.CMS_EE_FUNC_Ctrl_InfoDspRequest,"ax",@progbits
 278                             		.global	_CMS_EE_FUNC_Ctrl_InfoDspRequest
 280                             	_CMS_EE_FUNC_Ctrl_InfoDspRequest:
 281                             	.LFB13:
 560:C:/Workspace/FW_Inertia/branch_indesit/CFG_DishWasher/CFG_Inertia\BusCommPltf_cfg.c **** {
 282                             		.loc 1 560 0
 283                             	.LVL24:
 284 0000 7E A7                   		push.l	r7
 285                             	.LCFI4:
 286 0002 EF 47                   		mov.L	r4, r7
 562:C:/Workspace/FW_Inertia/branch_indesit/CFG_DishWasher/CFG_Inertia\BusCommPltf_cfg.c **** 	LIB_IOM_External_ProcessInfoPacketData(0, pdata, len);
 287                             		.loc 1 562 0
 288 0004 66 01                   		mov	#0, r1
 289                             	.LVL25:
 290 0006 05 00 00 00             		bsr	_LIB_IOM_External_ProcessInfoPacketData
 291                             	.LVL26:
 565:C:/Workspace/FW_Inertia/branch_indesit/CFG_DishWasher/CFG_Inertia\BusCommPltf_cfg.c **** 	normVpeak = GETW_BE(ExternalGlobalData_0+6) * 2;
 292                             		.loc 1 565 0
 293 000a FB 32 00 00 00 00       		mov.L	#_ExternalGlobalData_0, r3
 294 0010 59 3E 06                		movu.B	6[r3], r14
 295 0013 6C 8E                   		shll	#8, r14
 296 0015 49 3E 07                		add	7[r3].UB, r14
 297 0018 5F EE                   		movu.W	r14, r14
 298 001a 4B EE                   		add	r14, r14
 299 001c FB 42 00 00 00 00       		mov.L	#_normVpeak, r4
 300 0022 E3 4E                   		mov.L	r14, [r4]
 567:C:/Workspace/FW_Inertia/branch_indesit/CFG_DishWasher/CFG_Inertia\BusCommPltf_cfg.c **** 	pinfo->error=IO_E_OK;
 301                             		.loc 1 567 0
 302 0024 3C 76 00                		mov.B	#0, 6[r7]
 303                             	.LBB34:
 304                             	.LBB35:
 517:C:/Workspace/FW_Inertia/branch_indesit/CFG_DishWasher/CFG_Inertia\BusCommPltf_cfg.c ****   ExternalBoardCommStatus = 1;
 305                             		.loc 1 517 0
 306 0027 FB 72 00 00 00 00       		mov.L	#_ExternalBoardCommStatus, r7
 307                             	.LVL27:
 308 002d 3C 70 01                		mov.B	#1, [r7]
 309                             	.LBE35:
 310                             	.LBE34:
 569:C:/Workspace/FW_Inertia/branch_indesit/CFG_DishWasher/CFG_Inertia\BusCommPltf_cfg.c **** }
 311                             		.loc 1 569 0
 312 0030 3F 77 01                		rtsd	#4, r7-r7
 313                             	.LFE13:
 315                             		.section	.text.CMS_EE_FUNC_Ctrl_CmdDspRequest,"ax",@progbits
 316                             		.global	_CMS_EE_FUNC_Ctrl_CmdDspRequest
 318                             	_CMS_EE_FUNC_Ctrl_CmdDspRequest:
 319                             	.LFB14:
 572:C:/Workspace/FW_Inertia/branch_indesit/CFG_DishWasher/CFG_Inertia\BusCommPltf_cfg.c **** {
 320                             		.loc 1 572 0
 321                             	.LVL28:
 322 0000 7E A7                   		push.l	r7
 323                             	.LCFI5:
 324 0002 60 80                   		sub	#8, r0
 325                             	.LCFI6:
 326 0004 EF 47                   		mov.L	r4, r7
 574:C:/Workspace/FW_Inertia/branch_indesit/CFG_DishWasher/CFG_Inertia\BusCommPltf_cfg.c **** 	uint8_t* pCmd=0;
 327                             		.loc 1 574 0
 328 0006 3E 00 00                		mov.L	#0, [r0]
 329                             	.LVL29:
 575:C:/Workspace/FW_Inertia/branch_indesit/CFG_DishWasher/CFG_Inertia\BusCommPltf_cfg.c **** 	uint8_t  cmdlen=0;
 330                             		.loc 1 575 0
 331 0009 3C 04 00                		mov.B	#0, 4[r0]
 332                             	.LVL30:
 579:C:/Workspace/FW_Inertia/branch_indesit/CFG_DishWasher/CFG_Inertia\BusCommPltf_cfg.c **** 	pinfo->error=IO_E_INVALID_VALUE;
 333                             		.loc 1 579 0
 334 000c 3C 46 13                		mov.B	#19, 6[r4]
 581:C:/Workspace/FW_Inertia/branch_indesit/CFG_DishWasher/CFG_Inertia\BusCommPltf_cfg.c **** 	if(LIB_IOM_NO_ERROR == LIB_IOM_External_GetCommandBuffer(0, &pCmd, &cmdlen))
 335                             		.loc 1 581 0
 336 000f 66 01                   		mov	#0, r1
 337                             	.LVL31:
 338 0011 EF 02                   		mov.L	r0, r2
 339                             	.LVL32:
 340 0013 71 03 04                		add	#4, r0, r3
 341                             	.LVL33:
 342 0016 05 00 00 00             		bsr	_LIB_IOM_External_GetCommandBuffer
 343                             	.LVL34:
 344 001a 61 01                   		cmp	#0, r1
 345 001c 21 12                   		bne	.L32
 583:C:/Workspace/FW_Inertia/branch_indesit/CFG_DishWasher/CFG_Inertia\BusCommPltf_cfg.c **** 		pinfo->len=cmdlen;
 346                             		.loc 1 583 0
 347 001e 59 0E 04                		movu.B	4[r0], r14
 348                             	.LVL35:
 349 0021 D7 7E 02                		mov.W	r14, 4[r7]
 584:C:/Workspace/FW_Inertia/branch_indesit/CFG_DishWasher/CFG_Inertia\BusCommPltf_cfg.c **** 		if(pinfo->len)
 350                             		.loc 1 584 0
 351 0024 61 0E                   		cmp	#0, r14
 352 0026 10                      		beq	.L32
 586:C:/Workspace/FW_Inertia/branch_indesit/CFG_DishWasher/CFG_Inertia\BusCommPltf_cfg.c **** 			pinfo->error=IO_E_OK;
 353                             		.loc 1 586 0
 354 0027 81 F1                   		mov.B	r1, 6[r7]
 587:C:/Workspace/FW_Inertia/branch_indesit/CFG_DishWasher/CFG_Inertia\BusCommPltf_cfg.c **** 			pinfo->address= (IO_MemPtrType)pCmd;
 355                             		.loc 1 587 0
 356 0029 E0 07                   		mov.L	[r0], [r7]
 588:C:/Workspace/FW_Inertia/branch_indesit/CFG_DishWasher/CFG_Inertia\BusCommPltf_cfg.c **** 			pinfo->option |= PP_SL_RESP_ANSW_OPT;
 357                             		.loc 1 588 0
 358                             	.LVL36:
 359 002b F1 70 07                		bset #0, 7[r7].B
 360                             		.balign 2,3,2
 361                             	.L32:
 591:C:/Workspace/FW_Inertia/branch_indesit/CFG_DishWasher/CFG_Inertia\BusCommPltf_cfg.c **** }
 362                             		.loc 1 591 0
 363 002e 3F 77 03                		rtsd	#12, r7-r7
 364                             	.LFE14:
 366 0031 03                      		.section	.text.CMS_EE_FUNC_EE_PowerProfileReq,"ax",@progbits
 367                             		.global	_CMS_EE_FUNC_EE_PowerProfileReq
 369                             	_CMS_EE_FUNC_EE_PowerProfileReq:
 370                             	.LFB16:
 600:C:/Workspace/FW_Inertia/branch_indesit/CFG_DishWasher/CFG_Inertia\BusCommPltf_cfg.c **** }
 601:C:/Workspace/FW_Inertia/branch_indesit/CFG_DishWasher/CFG_Inertia\BusCommPltf_cfg.c **** DEF_CSM_EE_CUSTOM_FUNC(EE_PowerProfileReq)
 602:C:/Workspace/FW_Inertia/branch_indesit/CFG_DishWasher/CFG_Inertia\BusCommPltf_cfg.c **** {
 371                             		.loc 1 602 0
 372                             	.LVL37:
 373 0000 6E 7A                   		pushm	r7-r10
 374                             	.LCFI7:
 375 0002 60 80                   		sub	#8, r0
 376                             	.LCFI8:
 377 0004 EF 2A                   		mov.L	r2, r10
 378 0006 EF 47                   		mov.L	r4, r7
 603:C:/Workspace/FW_Inertia/branch_indesit/CFG_DishWasher/CFG_Inertia\BusCommPltf_cfg.c **** 	PM_PowerProfile_EnergyPhaseType* pEnergyPhase= (PM_PowerProfile_EnergyPhaseType*)NULL;
 379                             		.loc 1 603 0
 380 0008 3E 00 00                		mov.L	#0, [r0]
 381                             	.LVL38:
 604:C:/Workspace/FW_Inertia/branch_indesit/CFG_DishWasher/CFG_Inertia\BusCommPltf_cfg.c **** 	IO_MemPtrType pN= (IO_MemPtrType)NULL;
 605:C:/Workspace/FW_Inertia/branch_indesit/CFG_DishWasher/CFG_Inertia\BusCommPltf_cfg.c **** 
 606:C:/Workspace/FW_Inertia/branch_indesit/CFG_DishWasher/CFG_Inertia\BusCommPltf_cfg.c **** 	/* request requires answer */
 607:C:/Workspace/FW_Inertia/branch_indesit/CFG_DishWasher/CFG_Inertia\BusCommPltf_cfg.c **** 	pinfo->option |= PP_SL_RESP_ANSW_OPT;
 382                             		.loc 1 607 0
 383 000b F1 40 07                		bset #0, 7[r4].B
 608:C:/Workspace/FW_Inertia/branch_indesit/CFG_DishWasher/CFG_Inertia\BusCommPltf_cfg.c **** 
 609:C:/Workspace/FW_Inertia/branch_indesit/CFG_DishWasher/CFG_Inertia\BusCommPltf_cfg.c **** 	/*get number of power profiles */
 610:C:/Workspace/FW_Inertia/branch_indesit/CFG_DishWasher/CFG_Inertia\BusCommPltf_cfg.c **** 	num = PM_PowerProfile_GetPowerProfilesNum();
 384                             		.loc 1 610 0
 385 000e 05 00 00 00             		bsr	_PM_PowerProfile_GetPowerProfilesNum
 386                             	.LVL39:
 387 0012 FB 42 00 00 00 00       		mov.L	#_num, r4
 388 0018 C3 41                   		mov.B	r1, [r4]
 611:C:/Workspace/FW_Inertia/branch_indesit/CFG_DishWasher/CFG_Inertia\BusCommPltf_cfg.c **** 
 612:C:/Workspace/FW_Inertia/branch_indesit/CFG_DishWasher/CFG_Inertia\BusCommPltf_cfg.c **** 	if(!pdata[0])
 389                             		.loc 1 612 0
 390 001a 58 AE                   		movu.B	[r10], r14
 391 001c 61 0E                   		cmp	#0, r14
 392 001e 18                      		bne	.L41
 613:C:/Workspace/FW_Inertia/branch_indesit/CFG_DishWasher/CFG_Inertia\BusCommPltf_cfg.c **** 	{
 614:C:/Workspace/FW_Inertia/branch_indesit/CFG_DishWasher/CFG_Inertia\BusCommPltf_cfg.c **** 		/* Answer: total number of power profiles */
 615:C:/Workspace/FW_Inertia/branch_indesit/CFG_DishWasher/CFG_Inertia\BusCommPltf_cfg.c **** 		pinfo->address= &num;
 393                             		.loc 1 615 0
 394 001f E3 74                   		mov.L	r4, [r7]
 616:C:/Workspace/FW_Inertia/branch_indesit/CFG_DishWasher/CFG_Inertia\BusCommPltf_cfg.c **** 		pinfo->len=sizeof(PM_PowerProfile_PowerProfileNumType);
 395                             		.loc 1 616 0
 396 0021 3D 72 01                		mov.W	#1, 4[r7]
 397 0024 2E 42                   		bra	.L42
 398                             	.L41:
 399                             	.LBB36:
 617:C:/Workspace/FW_Inertia/branch_indesit/CFG_DishWasher/CFG_Inertia\BusCommPltf_cfg.c **** 	}
 618:C:/Workspace/FW_Inertia/branch_indesit/CFG_DishWasher/CFG_Inertia\BusCommPltf_cfg.c **** 	else
 619:C:/Workspace/FW_Inertia/branch_indesit/CFG_DishWasher/CFG_Inertia\BusCommPltf_cfg.c **** 	{
 620:C:/Workspace/FW_Inertia/branch_indesit/CFG_DishWasher/CFG_Inertia\BusCommPltf_cfg.c **** 		PM_PowerProfile_PowerProfileSizeType anslen = 0;
 400                             		.loc 1 620 0
 401 0026 3C 04 00                		mov.B	#0, 4[r0]
 402                             	.LVL40:
 621:C:/Workspace/FW_Inertia/branch_indesit/CFG_DishWasher/CFG_Inertia\BusCommPltf_cfg.c **** 
 622:C:/Workspace/FW_Inertia/branch_indesit/CFG_DishWasher/CFG_Inertia\BusCommPltf_cfg.c **** 		if(num < pdata[0])
 403                             		.loc 1 622 0
 404 0029 5B 14                   		movu.B	r1, r4
 405 002b 47 E4                   		cmp	r14, r4
 406 002d 22 0D                   		bgeu	.L43
 623:C:/Workspace/FW_Inertia/branch_indesit/CFG_DishWasher/CFG_Inertia\BusCommPltf_cfg.c **** 		{
 624:C:/Workspace/FW_Inertia/branch_indesit/CFG_DishWasher/CFG_Inertia\BusCommPltf_cfg.c **** 			/* not existing such a power profile ID*/
 625:C:/Workspace/FW_Inertia/branch_indesit/CFG_DishWasher/CFG_Inertia\BusCommPltf_cfg.c **** 			pinfo->len=1;
 407                             		.loc 1 625 0
 408 002f 3D 72 01                		mov.W	#1, 4[r7]
 626:C:/Workspace/FW_Inertia/branch_indesit/CFG_DishWasher/CFG_Inertia\BusCommPltf_cfg.c **** 			pinfo->address = (IO_MemPtrType)&PowerProfileError;
 409                             		.loc 1 626 0
 410 0032 F8 72 00 00 00 00       		mov.L	#_PowerProfileError, [r7]
 411 0038 2E 2E                   		bra	.L42
 412                             	.L43:
 627:C:/Workspace/FW_Inertia/branch_indesit/CFG_DishWasher/CFG_Inertia\BusCommPltf_cfg.c **** 		}
 628:C:/Workspace/FW_Inertia/branch_indesit/CFG_DishWasher/CFG_Inertia\BusCommPltf_cfg.c **** 		else
 629:C:/Workspace/FW_Inertia/branch_indesit/CFG_DishWasher/CFG_Inertia\BusCommPltf_cfg.c **** 		{
 630:C:/Workspace/FW_Inertia/branch_indesit/CFG_DishWasher/CFG_Inertia\BusCommPltf_cfg.c **** 			UsePowerProfile();
 413                             		.loc 1 630 0
 414 003a 05 00 00 00             		bsr	_UsePowerProfile
 415                             	.LVL41:
 631:C:/Workspace/FW_Inertia/branch_indesit/CFG_DishWasher/CFG_Inertia\BusCommPltf_cfg.c **** 			PM_PowerProfile_GetPowerProfileByProfileID((PM_PowerProfile_ProfileIDType)pdata[0], &pEnergyPhas
 416                             		.loc 1 631 0
 417 003e CC A1                   		mov.B	[r10], r1
 418 0040 EF 02                   		mov.L	r0, r2
 419 0042 71 03 04                		add	#4, r0, r3
 420 0045 05 00 00 00             		bsr	_PM_PowerProfile_GetPowerProfileByProfileID
 421                             	.LVL42:
 632:C:/Workspace/FW_Inertia/branch_indesit/CFG_DishWasher/CFG_Inertia\BusCommPltf_cfg.c **** 
 633:C:/Workspace/FW_Inertia/branch_indesit/CFG_DishWasher/CFG_Inertia\BusCommPltf_cfg.c **** 			if(anslen > 0)
 422                             		.loc 1 633 0
 423 0049 59 0A 04                		movu.B	4[r0], r10
 424                             	.LVL43:
 425 004c 61 0A                   		cmp	#0, r10
 426 004e 17                      		beq	.L45
 634:C:/Workspace/FW_Inertia/branch_indesit/CFG_DishWasher/CFG_Inertia\BusCommPltf_cfg.c **** 			{
 635:C:/Workspace/FW_Inertia/branch_indesit/CFG_DishWasher/CFG_Inertia\BusCommPltf_cfg.c **** 				pinfo->address = (IO_MemPtrType)pEnergyPhase;
 427                             		.loc 1 635 0
 428 004f E0 07                   		mov.L	[r0], [r7]
 636:C:/Workspace/FW_Inertia/branch_indesit/CFG_DishWasher/CFG_Inertia\BusCommPltf_cfg.c **** 				pinfo->len=anslen;
 429                             		.loc 1 636 0
 430 0051 D7 7A 02                		mov.W	r10, 4[r7]
 431 0054 0A                      		bra	.L46
 432                             	.L45:
 637:C:/Workspace/FW_Inertia/branch_indesit/CFG_DishWasher/CFG_Inertia\BusCommPltf_cfg.c **** 			}
 638:C:/Workspace/FW_Inertia/branch_indesit/CFG_DishWasher/CFG_Inertia\BusCommPltf_cfg.c **** 			else
 639:C:/Workspace/FW_Inertia/branch_indesit/CFG_DishWasher/CFG_Inertia\BusCommPltf_cfg.c **** 			{
 640:C:/Workspace/FW_Inertia/branch_indesit/CFG_DishWasher/CFG_Inertia\BusCommPltf_cfg.c **** 				pinfo->len=1;
 433                             		.loc 1 640 0
 434 0055 3D 72 01                		mov.W	#1, 4[r7]
 641:C:/Workspace/FW_Inertia/branch_indesit/CFG_DishWasher/CFG_Inertia\BusCommPltf_cfg.c **** 				pinfo->address = (IO_MemPtrType)&PowerProfileError;
 435                             		.loc 1 641 0
 436 0058 F8 72 00 00 00 00       		mov.L	#_PowerProfileError, [r7]
 437                             	.L46:
 642:C:/Workspace/FW_Inertia/branch_indesit/CFG_DishWasher/CFG_Inertia\BusCommPltf_cfg.c **** 			}
 643:C:/Workspace/FW_Inertia/branch_indesit/CFG_DishWasher/CFG_Inertia\BusCommPltf_cfg.c **** 
 644:C:/Workspace/FW_Inertia/branch_indesit/CFG_DishWasher/CFG_Inertia\BusCommPltf_cfg.c **** 			pinfo->callback = (CP_Callback)EndOfPowerProfileRequest;
 438                             		.loc 1 644 0
 439 005e F9 72 02 00 00 00 00    		mov.L	#_EndOfPowerProfileRequest, 8[r7]
 440 0065 03                      		.balign 2,3,4
 441                             	.L42:
 442                             	.LBE36:
 645:C:/Workspace/FW_Inertia/branch_indesit/CFG_DishWasher/CFG_Inertia\BusCommPltf_cfg.c **** 		}
 646:C:/Workspace/FW_Inertia/branch_indesit/CFG_DishWasher/CFG_Inertia\BusCommPltf_cfg.c **** 	}
 647:C:/Workspace/FW_Inertia/branch_indesit/CFG_DishWasher/CFG_Inertia\BusCommPltf_cfg.c **** 
 648:C:/Workspace/FW_Inertia/branch_indesit/CFG_DishWasher/CFG_Inertia\BusCommPltf_cfg.c **** 	pinfo->error=IO_E_OK;
 443                             		.loc 1 648 0
 444 0066 3C 76 00                		mov.B	#0, 6[r7]
 649:C:/Workspace/FW_Inertia/branch_indesit/CFG_DishWasher/CFG_Inertia\BusCommPltf_cfg.c **** }
 445                             		.loc 1 649 0
 446 0069 3F 7A 06                		rtsd	#24, r7-r10
 447                             	.LFE16:
 449                             		.section	.text.CMS_EE_FUNC_EE_ReadPowerMeter,"ax",@progbits
 450                             		.global	_CMS_EE_FUNC_EE_ReadPowerMeter
 452                             	_CMS_EE_FUNC_EE_ReadPowerMeter:
 453                             	.LFB17:
 650:C:/Workspace/FW_Inertia/branch_indesit/CFG_DishWasher/CFG_Inertia\BusCommPltf_cfg.c **** #endif /* CONFIG_PM_POWER_PROFILE_SUPPORT */
 651:C:/Workspace/FW_Inertia/branch_indesit/CFG_DishWasher/CFG_Inertia\BusCommPltf_cfg.c **** 
 652:C:/Workspace/FW_Inertia/branch_indesit/CFG_DishWasher/CFG_Inertia\BusCommPltf_cfg.c **** 
 653:C:/Workspace/FW_Inertia/branch_indesit/CFG_DishWasher/CFG_Inertia\BusCommPltf_cfg.c **** #if defined(CONFIG_PM_ENERGY_METER_SW)
 654:C:/Workspace/FW_Inertia/branch_indesit/CFG_DishWasher/CFG_Inertia\BusCommPltf_cfg.c **** DEF_CSM_EE_CUSTOM_FUNC(EE_ReadPowerMeter)
 655:C:/Workspace/FW_Inertia/branch_indesit/CFG_DishWasher/CFG_Inertia\BusCommPltf_cfg.c **** {
 454                             		.loc 1 655 0
 455                             	.LVL44:
 456 0000 6E 7B                   		pushm	r7-r11
 457                             	.LCFI9:
 458 0002 71 00 F0                		add	#-16, r0
 459                             	.LCFI10:
 460 0005 EF 47                   		mov.L	r4, r7
 656:C:/Workspace/FW_Inertia/branch_indesit/CFG_DishWasher/CFG_Inertia\BusCommPltf_cfg.c **** 	uint16_t instantP;
 657:C:/Workspace/FW_Inertia/branch_indesit/CFG_DishWasher/CFG_Inertia\BusCommPltf_cfg.c **** 	uint32_t avgEnergyWh, elapsedTime;
 658:C:/Workspace/FW_Inertia/branch_indesit/CFG_DishWasher/CFG_Inertia\BusCommPltf_cfg.c **** 	uint32_t loadedWater = 0;
 461                             		.loc 1 658 0
 462 0007 3E 00 00                		mov.L	#0, [r0]
 463                             	.LVL45:
 659:C:/Workspace/FW_Inertia/branch_indesit/CFG_DishWasher/CFG_Inertia\BusCommPltf_cfg.c **** 	uint8_t err=0;
 660:C:/Workspace/FW_Inertia/branch_indesit/CFG_DishWasher/CFG_Inertia\BusCommPltf_cfg.c **** 
 661:C:/Workspace/FW_Inertia/branch_indesit/CFG_DishWasher/CFG_Inertia\BusCommPltf_cfg.c **** 	/* zero fill */
 662:C:/Workspace/FW_Inertia/branch_indesit/CFG_DishWasher/CFG_Inertia\BusCommPltf_cfg.c **** 	memset(PowerMeterBuffer, 0, sizeof(PowerMeterBuffer));
 464                             		.loc 1 662 0
 465 000a FB 12 00 00 00 00       		mov.L	#_PowerMeterBuffer, r1
 466                             	.LVL46:
 467 0010 66 A3                   		mov.L	#10, r3
 468                             	.LVL47:
 469 0012 66 02                   		mov	#0, r2
 470                             	.LVL48:
 471 0014 7F 88                   		sstr.b
 663:C:/Workspace/FW_Inertia/branch_indesit/CFG_DishWasher/CFG_Inertia\BusCommPltf_cfg.c **** 
 664:C:/Workspace/FW_Inertia/branch_indesit/CFG_DishWasher/CFG_Inertia\BusCommPltf_cfg.c **** 	pinfo->error = (IO_ErrorType)IO_E_UNEXPECTED_CONDITION;
 472                             		.loc 1 664 0
 473 0016 3C 46 17                		mov.B	#23, 6[r4]
 665:C:/Workspace/FW_Inertia/branch_indesit/CFG_DishWasher/CFG_Inertia\BusCommPltf_cfg.c **** 
 666:C:/Workspace/FW_Inertia/branch_indesit/CFG_DishWasher/CFG_Inertia\BusCommPltf_cfg.c **** 	if(EMS_E_OK != PowerMeter_GetInstant_P(&instantP))
 474                             		.loc 1 666 0
 475 0019 71 01 0C                		add	#12, r0, r1
 476 001c 05 00 00 00             		bsr	_PowerMeter_GetInstant_P
 477                             	.LVL49:
 478 0020 61 01                   		cmp	#0, r1
 479 0022 FC DB B1                		scne.L	r11
 480 0025 CF BA                   		mov.B	r11, r10
 481                             	.LVL50:
 667:C:/Workspace/FW_Inertia/branch_indesit/CFG_DishWasher/CFG_Inertia\BusCommPltf_cfg.c **** 	{
 668:C:/Workspace/FW_Inertia/branch_indesit/CFG_DishWasher/CFG_Inertia\BusCommPltf_cfg.c **** 		err+=1;
 669:C:/Workspace/FW_Inertia/branch_indesit/CFG_DishWasher/CFG_Inertia\BusCommPltf_cfg.c **** 	}
 670:C:/Workspace/FW_Inertia/branch_indesit/CFG_DishWasher/CFG_Inertia\BusCommPltf_cfg.c **** 
 671:C:/Workspace/FW_Inertia/branch_indesit/CFG_DishWasher/CFG_Inertia\BusCommPltf_cfg.c **** 	if(EMS_E_OK != PowerMeter_GetAvgSinceStart_E_Wh(&avgEnergyWh, &elapsedTime))
 482                             		.loc 1 671 0
 483 0027 71 01 08                		add	#8, r0, r1
 484 002a 71 02 04                		add	#4, r0, r2
 485 002d 05 00 00 00             		bsr	_PowerMeter_GetAvgSinceStart_E_Wh
 486                             	.LVL51:
 487 0031 61 01                   		cmp	#0, r1
 488 0033 15                      		beq	.L49
 672:C:/Workspace/FW_Inertia/branch_indesit/CFG_DishWasher/CFG_Inertia\BusCommPltf_cfg.c **** 	{
 673:C:/Workspace/FW_Inertia/branch_indesit/CFG_DishWasher/CFG_Inertia\BusCommPltf_cfg.c **** 		err+=1;
 489                             		.loc 1 673 0
 490 0034 71 BA 01                		add	#1, r11, r10
 491                             	.LVL52:
 492 0037 03                      		.balign 2,3,1
 493                             	.L49:
 674:C:/Workspace/FW_Inertia/branch_indesit/CFG_DishWasher/CFG_Inertia\BusCommPltf_cfg.c **** 	}
 675:C:/Workspace/FW_Inertia/branch_indesit/CFG_DishWasher/CFG_Inertia\BusCommPltf_cfg.c **** 
 676:C:/Workspace/FW_Inertia/branch_indesit/CFG_DishWasher/CFG_Inertia\BusCommPltf_cfg.c **** 	if(S_OK_PLAT != CBF_CurrentLoadedWater(&loadedWater))
 494                             		.loc 1 676 0
 495 0038 EF 01                   		mov.L	r0, r1
 496 003a 05 00 00 00             		bsr	_CBF_CurrentLoadedWater
 497                             	.LVL53:
 498 003e 61 01                   		cmp	#0, r1
 499 0040 21 4F                   		bne	.L50
 677:C:/Workspace/FW_Inertia/branch_indesit/CFG_DishWasher/CFG_Inertia\BusCommPltf_cfg.c **** 	{
 678:C:/Workspace/FW_Inertia/branch_indesit/CFG_DishWasher/CFG_Inertia\BusCommPltf_cfg.c **** 		err+=1;
 679:C:/Workspace/FW_Inertia/branch_indesit/CFG_DishWasher/CFG_Inertia\BusCommPltf_cfg.c **** 	}
 680:C:/Workspace/FW_Inertia/branch_indesit/CFG_DishWasher/CFG_Inertia\BusCommPltf_cfg.c **** 
 681:C:/Workspace/FW_Inertia/branch_indesit/CFG_DishWasher/CFG_Inertia\BusCommPltf_cfg.c **** 	if(0 == err)
 500                             		.loc 1 681 0
 501 0042 5B AB                   		movu.B	r10, r11
 502 0044 61 0B                   		cmp	#0, r11
 503 0046 21 49                   		bne	.L50
 682:C:/Workspace/FW_Inertia/branch_indesit/CFG_DishWasher/CFG_Inertia\BusCommPltf_cfg.c **** 	{
 683:C:/Workspace/FW_Inertia/branch_indesit/CFG_DishWasher/CFG_Inertia\BusCommPltf_cfg.c **** 		/*TODO: prefer Endian macro (instant P is BE) */
 684:C:/Workspace/FW_Inertia/branch_indesit/CFG_DishWasher/CFG_Inertia\BusCommPltf_cfg.c **** 		PowerMeterBuffer[0]=(uint8_t)(instantP>>8);
 504                             		.loc 1 684 0
 505 0048 FB E2 00 00 00 00       		mov.L	#_PowerMeterBuffer, r14
 506                             	.LVL54:
 507 004e C1 0E 0C                		mov.B	12[r0], [r14]
 508                             	.LVL55:
 685:C:/Workspace/FW_Inertia/branch_indesit/CFG_DishWasher/CFG_Inertia\BusCommPltf_cfg.c **** 		PowerMeterBuffer[1]=(uint8_t)(instantP&0xFF);
 509                             		.loc 1 685 0
 510 0051 C5 0E 0D 01             		mov.B	13[r0], 1[r14]
 511                             	.LVL56:
 686:C:/Workspace/FW_Inertia/branch_indesit/CFG_DishWasher/CFG_Inertia\BusCommPltf_cfg.c **** 		/*TODO: prefer Endian macro (avg energy P is BE) */
 687:C:/Workspace/FW_Inertia/branch_indesit/CFG_DishWasher/CFG_Inertia\BusCommPltf_cfg.c **** 		PowerMeterBuffer[2]=(uint8_t)(avgEnergyWh>>24);
 512                             		.loc 1 687 0
 513 0055 A8 84                   		mov.L	8[r0], r4
 514 0057 FD 98 4B                		shlr	#24, r4, r11
 515 005a C7 EB 02                		mov.B	r11, 2[r14]
 688:C:/Workspace/FW_Inertia/branch_indesit/CFG_DishWasher/CFG_Inertia\BusCommPltf_cfg.c **** 		PowerMeterBuffer[3]=(uint8_t)(avgEnergyWh>>16);
 516                             		.loc 1 688 0
 517 005d FD 90 4B                		shlr	#16, r4, r11
 518 0060 C7 EB 03                		mov.B	r11, 3[r14]
 689:C:/Workspace/FW_Inertia/branch_indesit/CFG_DishWasher/CFG_Inertia\BusCommPltf_cfg.c **** 		PowerMeterBuffer[4]=(uint8_t)(avgEnergyWh>>8);
 519                             		.loc 1 689 0
 520 0063 FD 88 4B                		shlr	#8, r4, r11
 521 0066 C7 EB 04                		mov.B	r11, 4[r14]
 690:C:/Workspace/FW_Inertia/branch_indesit/CFG_DishWasher/CFG_Inertia\BusCommPltf_cfg.c **** 		PowerMeterBuffer[5]=(uint8_t)(avgEnergyWh&0xFF);
 522                             		.loc 1 690 0
 523 0069 C7 E4 05                		mov.B	r4, 5[r14]
 691:C:/Workspace/FW_Inertia/branch_indesit/CFG_DishWasher/CFG_Inertia\BusCommPltf_cfg.c **** 
 692:C:/Workspace/FW_Inertia/branch_indesit/CFG_DishWasher/CFG_Inertia\BusCommPltf_cfg.c **** 		/*AE TODO ONLY LOCAL loadeWater*/
 693:C:/Workspace/FW_Inertia/branch_indesit/CFG_DishWasher/CFG_Inertia\BusCommPltf_cfg.c **** 	    PowerMeterBuffer[6]=(uint8_t)(loadedWater>>24);
 524                             		.loc 1 693 0
 525 006c EC 04                   		mov.L	[r0], r4
 526 006e FD 98 4B                		shlr	#24, r4, r11
 527 0071 C7 EB 06                		mov.B	r11, 6[r14]
 694:C:/Workspace/FW_Inertia/branch_indesit/CFG_DishWasher/CFG_Inertia\BusCommPltf_cfg.c **** 	    PowerMeterBuffer[7]=(uint8_t)(loadedWater>>16);
 528                             		.loc 1 694 0
 529 0074 FD 90 4B                		shlr	#16, r4, r11
 530 0077 C7 EB 07                		mov.B	r11, 7[r14]
 695:C:/Workspace/FW_Inertia/branch_indesit/CFG_DishWasher/CFG_Inertia\BusCommPltf_cfg.c **** 	    PowerMeterBuffer[8]=(uint8_t)(loadedWater>>8);
 531                             		.loc 1 695 0
 532 007a FD 88 4B                		shlr	#8, r4, r11
 533 007d C7 EB 08                		mov.B	r11, 8[r14]
 696:C:/Workspace/FW_Inertia/branch_indesit/CFG_DishWasher/CFG_Inertia\BusCommPltf_cfg.c **** 	    PowerMeterBuffer[9]=(uint8_t)(loadedWater&0xFF);
 534                             		.loc 1 696 0
 535 0080 C7 E4 09                		mov.B	r4, 9[r14]
 697:C:/Workspace/FW_Inertia/branch_indesit/CFG_DishWasher/CFG_Inertia\BusCommPltf_cfg.c **** 
 698:C:/Workspace/FW_Inertia/branch_indesit/CFG_DishWasher/CFG_Inertia\BusCommPltf_cfg.c **** 		pinfo->len = sizeof(PowerMeterBuffer);
 536                             		.loc 1 698 0
 537 0083 3D 72 0A                		mov.W	#10, 4[r7]
 699:C:/Workspace/FW_Inertia/branch_indesit/CFG_DishWasher/CFG_Inertia\BusCommPltf_cfg.c **** 		pinfo->address= (IO_MemPtrType)PowerMeterBuffer;
 538                             		.loc 1 699 0
 539 0086 E3 7E                   		mov.L	r14, [r7]
 700:C:/Workspace/FW_Inertia/branch_indesit/CFG_DishWasher/CFG_Inertia\BusCommPltf_cfg.c **** 		pinfo->error = (IO_ErrorType)IO_E_OK;
 540                             		.loc 1 700 0
 541 0088 C7 7A 06                		mov.B	r10, 6[r7]
 701:C:/Workspace/FW_Inertia/branch_indesit/CFG_DishWasher/CFG_Inertia\BusCommPltf_cfg.c **** 		pinfo->option|=PP_SL_RESP_ANSW_OPT;
 542                             		.loc 1 701 0
 543                             	.LVL57:
 544 008b F1 70 07                		bset #0, 7[r7].B
 545 008e 0C                      		bra	.L48
 546                             	.LVL58:
 547                             	.L50:
 702:C:/Workspace/FW_Inertia/branch_indesit/CFG_DishWasher/CFG_Inertia\BusCommPltf_cfg.c **** 	}
 703:C:/Workspace/FW_Inertia/branch_indesit/CFG_DishWasher/CFG_Inertia\BusCommPltf_cfg.c **** 	else
 704:C:/Workspace/FW_Inertia/branch_indesit/CFG_DishWasher/CFG_Inertia\BusCommPltf_cfg.c **** 	{
 705:C:/Workspace/FW_Inertia/branch_indesit/CFG_DishWasher/CFG_Inertia\BusCommPltf_cfg.c **** 		pinfo->error = (IO_ErrorType)IO_E_UNEXPECTED_CONDITION;
 548                             		.loc 1 705 0
 549 008f 3C 76 17                		mov.B	#23, 6[r7]
 550                             	.LVL59:
 551                             		.balign 2,3,2
 552                             	.L48:
 706:C:/Workspace/FW_Inertia/branch_indesit/CFG_DishWasher/CFG_Inertia\BusCommPltf_cfg.c **** 	}
 707:C:/Workspace/FW_Inertia/branch_indesit/CFG_DishWasher/CFG_Inertia\BusCommPltf_cfg.c **** }
 553                             		.loc 1 707 0
 554 0092 3F 7B 09                		rtsd	#36, r7-r11
 555                             	.LFE17:
 557 0095 03                      		.section	.text.CMS_EE_FUNC_EE_SetLoads,"ax",@progbits
 558                             		.global	_CMS_EE_FUNC_EE_SetLoads
 560                             	_CMS_EE_FUNC_EE_SetLoads:
 561                             	.LFB18:
 708:C:/Workspace/FW_Inertia/branch_indesit/CFG_DishWasher/CFG_Inertia\BusCommPltf_cfg.c **** #endif /* defined(CONFIG_PM_ENERGY_METER_SW)*/
 709:C:/Workspace/FW_Inertia/branch_indesit/CFG_DishWasher/CFG_Inertia\BusCommPltf_cfg.c **** 
 710:C:/Workspace/FW_Inertia/branch_indesit/CFG_DishWasher/CFG_Inertia\BusCommPltf_cfg.c **** /*
 711:C:/Workspace/FW_Inertia/branch_indesit/CFG_DishWasher/CFG_Inertia\BusCommPltf_cfg.c **** uint8_t GetExpansionSetInfoBuffer_Index( uint8_t *DataBuffer)
 712:C:/Workspace/FW_Inertia/branch_indesit/CFG_DishWasher/CFG_Inertia\BusCommPltf_cfg.c **** {
 713:C:/Workspace/FW_Inertia/branch_indesit/CFG_DishWasher/CFG_Inertia\BusCommPltf_cfg.c ****   uint8_t index = PP_S_NUM_REQ;
 714:C:/Workspace/FW_Inertia/branch_indesit/CFG_DishWasher/CFG_Inertia\BusCommPltf_cfg.c ****   
 715:C:/Workspace/FW_Inertia/branch_indesit/CFG_DishWasher/CFG_Inertia\BusCommPltf_cfg.c ****   index = PP_S_EXP_WCMD_REQ;
 716:C:/Workspace/FW_Inertia/branch_indesit/CFG_DishWasher/CFG_Inertia\BusCommPltf_cfg.c ****   return index;
 717:C:/Workspace/FW_Inertia/branch_indesit/CFG_DishWasher/CFG_Inertia\BusCommPltf_cfg.c **** }
 718:C:/Workspace/FW_Inertia/branch_indesit/CFG_DishWasher/CFG_Inertia\BusCommPltf_cfg.c **** */
 719:C:/Workspace/FW_Inertia/branch_indesit/CFG_DishWasher/CFG_Inertia\BusCommPltf_cfg.c **** 
 720:C:/Workspace/FW_Inertia/branch_indesit/CFG_DishWasher/CFG_Inertia\BusCommPltf_cfg.c **** /**
 721:C:/Workspace/FW_Inertia/branch_indesit/CFG_DishWasher/CFG_Inertia\BusCommPltf_cfg.c **** Extended SetLoad Request
 722:C:/Workspace/FW_Inertia/branch_indesit/CFG_DishWasher/CFG_Inertia\BusCommPltf_cfg.c **** The request will end successfully, Platform Protocol PP_ACK will be sent, if:
 723:C:/Workspace/FW_Inertia/branch_indesit/CFG_DishWasher/CFG_Inertia\BusCommPltf_cfg.c **** \li __GENERICIOMANAGER_H is defined
 724:C:/Workspace/FW_Inertia/branch_indesit/CFG_DishWasher/CFG_Inertia\BusCommPltf_cfg.c **** \li current system mode is SYSTEM_NORMAL_MODE
 725:C:/Workspace/FW_Inertia/branch_indesit/CFG_DishWasher/CFG_Inertia\BusCommPltf_cfg.c **** \li no error on queue at low level.
 726:C:/Workspace/FW_Inertia/branch_indesit/CFG_DishWasher/CFG_Inertia\BusCommPltf_cfg.c **** */
 727:C:/Workspace/FW_Inertia/branch_indesit/CFG_DishWasher/CFG_Inertia\BusCommPltf_cfg.c **** DEF_CSM_EE_CUSTOM_FUNC(EE_SetLoads)
 728:C:/Workspace/FW_Inertia/branch_indesit/CFG_DishWasher/CFG_Inertia\BusCommPltf_cfg.c **** {
 562                             		.loc 1 728 0
 563                             	.LVL60:
 564 0000 6E 7B                   		pushm	r7-r11
 565                             	.LCFI11:
 566 0002 EF 2A                   		mov.L	r2, r10
 567 0004 CF 3B                   		mov.B	r3, r11
 568 0006 EF 47                   		mov.L	r4, r7
 729:C:/Workspace/FW_Inertia/branch_indesit/CFG_DishWasher/CFG_Inertia\BusCommPltf_cfg.c ****     (void) ch;
 730:C:/Workspace/FW_Inertia/branch_indesit/CFG_DishWasher/CFG_Inertia\BusCommPltf_cfg.c ****     
 731:C:/Workspace/FW_Inertia/branch_indesit/CFG_DishWasher/CFG_Inertia\BusCommPltf_cfg.c **** #ifdef __GENERICIOMANAGER_H     
 732:C:/Workspace/FW_Inertia/branch_indesit/CFG_DishWasher/CFG_Inertia\BusCommPltf_cfg.c ****     
 733:C:/Workspace/FW_Inertia/branch_indesit/CFG_DishWasher/CFG_Inertia\BusCommPltf_cfg.c **** 	if (LIB_Reset_GetSystemMode() == SYSTEM_NORMAL_MODE)
 569                             		.loc 1 733 0
 570 0008 05 00 00 00             		bsr	_LIB_Reset_GetSystemMode
 571                             	.LVL61:
 572 000c 5B 11                   		movu.B	r1, r1
 573 000e 61 11                   		cmp	#1, r1
 574 0010 21 12                   		bne	.L56
 734:C:/Workspace/FW_Inertia/branch_indesit/CFG_DishWasher/CFG_Inertia\BusCommPltf_cfg.c **** 	{
 735:C:/Workspace/FW_Inertia/branch_indesit/CFG_DishWasher/CFG_Inertia\BusCommPltf_cfg.c **** 		if (SAFETY_CHECK_ISDISABLED())
 736:C:/Workspace/FW_Inertia/branch_indesit/CFG_DishWasher/CFG_Inertia\BusCommPltf_cfg.c **** 		{
 737:C:/Workspace/FW_Inertia/branch_indesit/CFG_DishWasher/CFG_Inertia\BusCommPltf_cfg.c **** 			if( Main_RemoteLoadsControl_PutCommand(REMOTE_LOADS_CONTROL_EXTENDED,len, pdata))
 575                             		.loc 1 737 0
 576 0012 66 21                   		mov.L	#2, r1
 577 0014 CF B2                   		mov.B	r11, r2
 578 0016 EF A3                   		mov.L	r10, r3
 579 0018 05 00 00 00             		bsr	_Main_RemoteLoadsControl_PutCommand
 580                             	.LVL62:
 581 001c 61 01                   		cmp	#0, r1
 582 001e 14                      		beq	.L56
 738:C:/Workspace/FW_Inertia/branch_indesit/CFG_DishWasher/CFG_Inertia\BusCommPltf_cfg.c **** 			{
 739:C:/Workspace/FW_Inertia/branch_indesit/CFG_DishWasher/CFG_Inertia\BusCommPltf_cfg.c **** 			    pinfo->error = (IO_ErrorType)IO_E_INVALID_VALUE;
 583                             		.loc 1 739 0
 584 001f 3C 76 13                		mov.B	#19, 6[r7]
 585                             		.balign 2,3,2
 586                             	.L56:
 740:C:/Workspace/FW_Inertia/branch_indesit/CFG_DishWasher/CFG_Inertia\BusCommPltf_cfg.c **** 			}
 741:C:/Workspace/FW_Inertia/branch_indesit/CFG_DishWasher/CFG_Inertia\BusCommPltf_cfg.c **** 		}
 742:C:/Workspace/FW_Inertia/branch_indesit/CFG_DishWasher/CFG_Inertia\BusCommPltf_cfg.c **** 		else
 743:C:/Workspace/FW_Inertia/branch_indesit/CFG_DishWasher/CFG_Inertia\BusCommPltf_cfg.c **** 		{
 744:C:/Workspace/FW_Inertia/branch_indesit/CFG_DishWasher/CFG_Inertia\BusCommPltf_cfg.c **** 		    pinfo->error = (IO_ErrorType)IO_E_INVALID_VALUE;
 745:C:/Workspace/FW_Inertia/branch_indesit/CFG_DishWasher/CFG_Inertia\BusCommPltf_cfg.c **** 		}
 746:C:/Workspace/FW_Inertia/branch_indesit/CFG_DishWasher/CFG_Inertia\BusCommPltf_cfg.c **** 	}	
 747:C:/Workspace/FW_Inertia/branch_indesit/CFG_DishWasher/CFG_Inertia\BusCommPltf_cfg.c **** 
 748:C:/Workspace/FW_Inertia/branch_indesit/CFG_DishWasher/CFG_Inertia\BusCommPltf_cfg.c **** #else
 749:C:/Workspace/FW_Inertia/branch_indesit/CFG_DishWasher/CFG_Inertia\BusCommPltf_cfg.c **** 
 750:C:/Workspace/FW_Inertia/branch_indesit/CFG_DishWasher/CFG_Inertia\BusCommPltf_cfg.c **** 	pinfo->error =(IO_ErrorType)IO_E_INVALID_VALUE;
 751:C:/Workspace/FW_Inertia/branch_indesit/CFG_DishWasher/CFG_Inertia\BusCommPltf_cfg.c **** 
 752:C:/Workspace/FW_Inertia/branch_indesit/CFG_DishWasher/CFG_Inertia\BusCommPltf_cfg.c **** #endif /*__GENERICIOMANAGER_H*/
 753:C:/Workspace/FW_Inertia/branch_indesit/CFG_DishWasher/CFG_Inertia\BusCommPltf_cfg.c **** }
 587                             		.loc 1 753 0
 588 0022 3F 7B 05                		rtsd	#20, r7-r11
 589                             	.LFE18:
 591 0025 03                      		.section	.text.CMS_EE_FUNC_EE_SystemMode,"ax",@progbits
 592                             		.global	_CMS_EE_FUNC_EE_SystemMode
 594                             	_CMS_EE_FUNC_EE_SystemMode:
 595                             	.LFB20:
 754:C:/Workspace/FW_Inertia/branch_indesit/CFG_DishWasher/CFG_Inertia\BusCommPltf_cfg.c **** 
 755:C:/Workspace/FW_Inertia/branch_indesit/CFG_DishWasher/CFG_Inertia\BusCommPltf_cfg.c **** /**
 756:C:/Workspace/FW_Inertia/branch_indesit/CFG_DishWasher/CFG_Inertia\BusCommPltf_cfg.c **** Setting Data block Request
 757:C:/Workspace/FW_Inertia/branch_indesit/CFG_DishWasher/CFG_Inertia\BusCommPltf_cfg.c **** The request will end successfully, Platform Protocol packet with the reqested data will be sent, 
 758:C:/Workspace/FW_Inertia/branch_indesit/CFG_DishWasher/CFG_Inertia\BusCommPltf_cfg.c **** if data exist (no error is returned  by BasicLoader)
 759:C:/Workspace/FW_Inertia/branch_indesit/CFG_DishWasher/CFG_Inertia\BusCommPltf_cfg.c **** */
 760:C:/Workspace/FW_Inertia/branch_indesit/CFG_DishWasher/CFG_Inertia\BusCommPltf_cfg.c **** DEF_CSM_EE_CUSTOM_FUNC(EE_SettingDataBlock)
 761:C:/Workspace/FW_Inertia/branch_indesit/CFG_DishWasher/CFG_Inertia\BusCommPltf_cfg.c **** {
 762:C:/Workspace/FW_Inertia/branch_indesit/CFG_DishWasher/CFG_Inertia\BusCommPltf_cfg.c ****     Loader_Struct Data;
 763:C:/Workspace/FW_Inertia/branch_indesit/CFG_DishWasher/CFG_Inertia\BusCommPltf_cfg.c ****     pinfo->error = (IO_ErrorType)IO_E_UNEXPECTED_CONDITION;
 764:C:/Workspace/FW_Inertia/branch_indesit/CFG_DishWasher/CFG_Inertia\BusCommPltf_cfg.c ****     
 765:C:/Workspace/FW_Inertia/branch_indesit/CFG_DishWasher/CFG_Inertia\BusCommPltf_cfg.c ****     (void) ch;    
 766:C:/Workspace/FW_Inertia/branch_indesit/CFG_DishWasher/CFG_Inertia\BusCommPltf_cfg.c ****     (void) len;    
 767:C:/Workspace/FW_Inertia/branch_indesit/CFG_DishWasher/CFG_Inertia\BusCommPltf_cfg.c ****     
 768:C:/Workspace/FW_Inertia/branch_indesit/CFG_DishWasher/CFG_Inertia\BusCommPltf_cfg.c ****     
 769:C:/Workspace/FW_Inertia/branch_indesit/CFG_DishWasher/CFG_Inertia\BusCommPltf_cfg.c ****     if(BSLDR_OK == BasicLoader(pdata[0], pdata[1], &Data))
 770:C:/Workspace/FW_Inertia/branch_indesit/CFG_DishWasher/CFG_Inertia\BusCommPltf_cfg.c ****     {
 771:C:/Workspace/FW_Inertia/branch_indesit/CFG_DishWasher/CFG_Inertia\BusCommPltf_cfg.c ****         pinfo->len = (uint16_t) (Data.DataLenght*2);
 772:C:/Workspace/FW_Inertia/branch_indesit/CFG_DishWasher/CFG_Inertia\BusCommPltf_cfg.c **** 		pinfo->address= (IO_MemPtrType)Data.Data;
 773:C:/Workspace/FW_Inertia/branch_indesit/CFG_DishWasher/CFG_Inertia\BusCommPltf_cfg.c ****         pinfo->error = (IO_ErrorType)IO_E_OK;
 774:C:/Workspace/FW_Inertia/branch_indesit/CFG_DishWasher/CFG_Inertia\BusCommPltf_cfg.c **** 		pinfo->option|=PP_SL_RESP_ANSW_OPT;
 775:C:/Workspace/FW_Inertia/branch_indesit/CFG_DishWasher/CFG_Inertia\BusCommPltf_cfg.c ****     }
 776:C:/Workspace/FW_Inertia/branch_indesit/CFG_DishWasher/CFG_Inertia\BusCommPltf_cfg.c **** }
 777:C:/Workspace/FW_Inertia/branch_indesit/CFG_DishWasher/CFG_Inertia\BusCommPltf_cfg.c **** 
 778:C:/Workspace/FW_Inertia/branch_indesit/CFG_DishWasher/CFG_Inertia\BusCommPltf_cfg.c **** 
 779:C:/Workspace/FW_Inertia/branch_indesit/CFG_DishWasher/CFG_Inertia\BusCommPltf_cfg.c **** /**
 780:C:/Workspace/FW_Inertia/branch_indesit/CFG_DishWasher/CFG_Inertia\BusCommPltf_cfg.c **** System mode Request
 781:C:/Workspace/FW_Inertia/branch_indesit/CFG_DishWasher/CFG_Inertia\BusCommPltf_cfg.c **** The request will end successfully, Platform Protocol PP_ACK will be sent if,
 782:C:/Workspace/FW_Inertia/branch_indesit/CFG_DishWasher/CFG_Inertia\BusCommPltf_cfg.c **** system mode is recognized.
 783:C:/Workspace/FW_Inertia/branch_indesit/CFG_DishWasher/CFG_Inertia\BusCommPltf_cfg.c **** */
 784:C:/Workspace/FW_Inertia/branch_indesit/CFG_DishWasher/CFG_Inertia\BusCommPltf_cfg.c **** DEF_CSM_EE_CUSTOM_FUNC(EE_SystemMode)
 785:C:/Workspace/FW_Inertia/branch_indesit/CFG_DishWasher/CFG_Inertia\BusCommPltf_cfg.c **** {
 596                             		.loc 1 785 0
 597 0000 6E 7B                   		pushm	r7-r11
 598                             	.LCFI12:
 599 0002 EF 27                   		mov.L	r2, r7
 600 0004 EF 4A                   		mov.L	r4, r10
 786:C:/Workspace/FW_Inertia/branch_indesit/CFG_DishWasher/CFG_Inertia\BusCommPltf_cfg.c ****     (void) ch;    
 787:C:/Workspace/FW_Inertia/branch_indesit/CFG_DishWasher/CFG_Inertia\BusCommPltf_cfg.c ****     
 788:C:/Workspace/FW_Inertia/branch_indesit/CFG_DishWasher/CFG_Inertia\BusCommPltf_cfg.c ****     pinfo->error = (IO_ErrorType)IO_E_OK;
 601                             		.loc 1 788 0
 602 0006 3C 46 00                		mov.B	#0, 6[r4]
 789:C:/Workspace/FW_Inertia/branch_indesit/CFG_DishWasher/CFG_Inertia\BusCommPltf_cfg.c ****     switch(len)
 603                             		.loc 1 789 0
 604 0009 5B 33                   		movu.B	r3, r3
 605 000b 61 13                   		cmp	#1, r3
 606 000d 10                      		beq	.L66
 607 000e 61 23                   		cmp	#2, r3
 608 0010 3B 9A 00                		bne	.L64
 609 0013 2E 25                   		bra	.L67
 610                             	.L66:
 790:C:/Workspace/FW_Inertia/branch_indesit/CFG_DishWasher/CFG_Inertia\BusCommPltf_cfg.c **** 	{
 791:C:/Workspace/FW_Inertia/branch_indesit/CFG_DishWasher/CFG_Inertia\BusCommPltf_cfg.c **** 		case 1:
 792:C:/Workspace/FW_Inertia/branch_indesit/CFG_DishWasher/CFG_Inertia\BusCommPltf_cfg.c **** 		    switch(pdata[0]) 
 611                             		.loc 1 792 0
 612 0015 58 2A                   		movu.B	[r2], r10
 613 0017 61 8A                   		cmp	#8, r10
 614 0019 3A 91 00                		beq	.L64
 793:C:/Workspace/FW_Inertia/branch_indesit/CFG_DishWasher/CFG_Inertia\BusCommPltf_cfg.c **** 		    {
 794:C:/Workspace/FW_Inertia/branch_indesit/CFG_DishWasher/CFG_Inertia\BusCommPltf_cfg.c **** 		      case SYSTEM_BOOT_MODE:
 795:C:/Workspace/FW_Inertia/branch_indesit/CFG_DishWasher/CFG_Inertia\BusCommPltf_cfg.c **** 		        /* do nothing */
 796:C:/Workspace/FW_Inertia/branch_indesit/CFG_DishWasher/CFG_Inertia\BusCommPltf_cfg.c **** 		      break;
 797:C:/Workspace/FW_Inertia/branch_indesit/CFG_DishWasher/CFG_Inertia\BusCommPltf_cfg.c **** 		      default:
 798:C:/Workspace/FW_Inertia/branch_indesit/CFG_DishWasher/CFG_Inertia\BusCommPltf_cfg.c **** 		      {
 799:C:/Workspace/FW_Inertia/branch_indesit/CFG_DishWasher/CFG_Inertia\BusCommPltf_cfg.c ****                   if (LIB_Reset_IsTimeoutSet() && (pdata[0] == SYSTEM_NORMAL_MODE))
 615                             		.loc 1 799 0
 616 001c 05 00 00 00             		bsr	_LIB_Reset_IsTimeoutSet
 617 0020 61 01                   		cmp	#0, r1
 618 0022 20 0E                   		beq	.L69
 619                             		.loc 1 799 0 is_stmt 0 discriminator 1
 620 0024 58 7A                   		movu.B	[r7], r10
 621 0026 61 1A                   		cmp	#1, r10
 622 0028 18                      		bne	.L69
 800:C:/Workspace/FW_Inertia/branch_indesit/CFG_DishWasher/CFG_Inertia\BusCommPltf_cfg.c ****                   {
 801:C:/Workspace/FW_Inertia/branch_indesit/CFG_DishWasher/CFG_Inertia\BusCommPltf_cfg.c ****                   	LIB_Reset_SetResetTimeout(100);
 623                             		.loc 1 801 0 is_stmt 1
 624 0029 75 41 64                		mov.L	#0x64, r1
 625 002c 05 00 00 00             		bsr	_LIB_Reset_SetResetTimeout
 626                             		.balign 2,3,5
 627                             	.L69:
 802:C:/Workspace/FW_Inertia/branch_indesit/CFG_DishWasher/CFG_Inertia\BusCommPltf_cfg.c ****                   }
 803:C:/Workspace/FW_Inertia/branch_indesit/CFG_DishWasher/CFG_Inertia\BusCommPltf_cfg.c ****                   LIB_Reset_SetNewSystemMode((SysMode_Type)pdata[0]);
 628                             		.loc 1 803 0
 629 0030 CC 71                   		mov.B	[r7], r1
 804:C:/Workspace/FW_Inertia/branch_indesit/CFG_DishWasher/CFG_Inertia\BusCommPltf_cfg.c **** 		      }
 805:C:/Workspace/FW_Inertia/branch_indesit/CFG_DishWasher/CFG_Inertia\BusCommPltf_cfg.c **** 		    }
 806:C:/Workspace/FW_Inertia/branch_indesit/CFG_DishWasher/CFG_Inertia\BusCommPltf_cfg.c **** 			
 807:C:/Workspace/FW_Inertia/branch_indesit/CFG_DishWasher/CFG_Inertia\BusCommPltf_cfg.c **** 			break;
 808:C:/Workspace/FW_Inertia/branch_indesit/CFG_DishWasher/CFG_Inertia\BusCommPltf_cfg.c **** 		case 2:
 809:C:/Workspace/FW_Inertia/branch_indesit/CFG_DishWasher/CFG_Inertia\BusCommPltf_cfg.c **** 			switch(LIB_Reset_GetSystemMode())
 810:C:/Workspace/FW_Inertia/branch_indesit/CFG_DishWasher/CFG_Inertia\BusCommPltf_cfg.c ****             {
 811:C:/Workspace/FW_Inertia/branch_indesit/CFG_DishWasher/CFG_Inertia\BusCommPltf_cfg.c ****                 case SYSTEM_NORMAL_MODE:
 812:C:/Workspace/FW_Inertia/branch_indesit/CFG_DishWasher/CFG_Inertia\BusCommPltf_cfg.c ****                     switch(pdata[0])
 813:C:/Workspace/FW_Inertia/branch_indesit/CFG_DishWasher/CFG_Inertia\BusCommPltf_cfg.c ****                     {
 814:C:/Workspace/FW_Inertia/branch_indesit/CFG_DishWasher/CFG_Inertia\BusCommPltf_cfg.c ****                         case SYSTEM_NORMAL_MODE:
 815:C:/Workspace/FW_Inertia/branch_indesit/CFG_DishWasher/CFG_Inertia\BusCommPltf_cfg.c ****                         {/*
 816:C:/Workspace/FW_Inertia/branch_indesit/CFG_DishWasher/CFG_Inertia\BusCommPltf_cfg.c ****                         	if (pdata[1] == SYSTEM_NORMAL_NOCHK_STEP1)
 817:C:/Workspace/FW_Inertia/branch_indesit/CFG_DishWasher/CFG_Inertia\BusCommPltf_cfg.c ****                         	{
 818:C:/Workspace/FW_Inertia/branch_indesit/CFG_DishWasher/CFG_Inertia\BusCommPltf_cfg.c **** 								LIB_Reset_SetTimedRequest(( SYSTEM_NORMAL_MODE << 8) | SYSTEM_NORMAL_NOCHK_STEP1, RESET_TIM
 819:C:/Workspace/FW_Inertia/branch_indesit/CFG_DishWasher/CFG_Inertia\BusCommPltf_cfg.c ****                         	}
 820:C:/Workspace/FW_Inertia/branch_indesit/CFG_DishWasher/CFG_Inertia\BusCommPltf_cfg.c ****                         	else if (pdata[1] == SYSTEM_NORMAL_NOCHK_STEP2)
 821:C:/Workspace/FW_Inertia/branch_indesit/CFG_DishWasher/CFG_Inertia\BusCommPltf_cfg.c ****                         	{
 822:C:/Workspace/FW_Inertia/branch_indesit/CFG_DishWasher/CFG_Inertia\BusCommPltf_cfg.c ****                         		if (LIB_Reset_ChkTimedRequest(( SYSTEM_NORMAL_MODE << 8) | SYSTEM_NORMAL_
 823:C:/Workspace/FW_Inertia/branch_indesit/CFG_DishWasher/CFG_Inertia\BusCommPltf_cfg.c ****                         		{
 824:C:/Workspace/FW_Inertia/branch_indesit/CFG_DishWasher/CFG_Inertia\BusCommPltf_cfg.c ****                         			SAFETY_CHECK_DISABLE();
 825:C:/Workspace/FW_Inertia/branch_indesit/CFG_DishWasher/CFG_Inertia\BusCommPltf_cfg.c ****                         			LIB_Reset_SetResetTimeout(PROGRAMMING_MODE_TIMEOUT_s * 1000);
 826:C:/Workspace/FW_Inertia/branch_indesit/CFG_DishWasher/CFG_Inertia\BusCommPltf_cfg.c ****                         		}
 827:C:/Workspace/FW_Inertia/branch_indesit/CFG_DishWasher/CFG_Inertia\BusCommPltf_cfg.c ****                     			else
 828:C:/Workspace/FW_Inertia/branch_indesit/CFG_DishWasher/CFG_Inertia\BusCommPltf_cfg.c ****                     			{
 829:C:/Workspace/FW_Inertia/branch_indesit/CFG_DishWasher/CFG_Inertia\BusCommPltf_cfg.c ****                         			pinfo->error = (IO_ErrorType)IO_E_INVALID_VALUE;
 830:C:/Workspace/FW_Inertia/branch_indesit/CFG_DishWasher/CFG_Inertia\BusCommPltf_cfg.c ****                     			}
 831:C:/Workspace/FW_Inertia/branch_indesit/CFG_DishWasher/CFG_Inertia\BusCommPltf_cfg.c ****                         	}
 832:C:/Workspace/FW_Inertia/branch_indesit/CFG_DishWasher/CFG_Inertia\BusCommPltf_cfg.c ****                         	else if (pdata[1] == SYSTEM_NORMAL_NOCHK_REFRESH)
 833:C:/Workspace/FW_Inertia/branch_indesit/CFG_DishWasher/CFG_Inertia\BusCommPltf_cfg.c ****                         	{
 834:C:/Workspace/FW_Inertia/branch_indesit/CFG_DishWasher/CFG_Inertia\BusCommPltf_cfg.c ****                         		if (SAFETY_CHECK_ISDISABLED())
 835:C:/Workspace/FW_Inertia/branch_indesit/CFG_DishWasher/CFG_Inertia\BusCommPltf_cfg.c ****                         		{
 836:C:/Workspace/FW_Inertia/branch_indesit/CFG_DishWasher/CFG_Inertia\BusCommPltf_cfg.c ****                         			LIB_Reset_SetResetTimeout(PROGRAMMING_MODE_TIMEOUT_s * 1000);
 837:C:/Workspace/FW_Inertia/branch_indesit/CFG_DishWasher/CFG_Inertia\BusCommPltf_cfg.c ****                         		}
 838:C:/Workspace/FW_Inertia/branch_indesit/CFG_DishWasher/CFG_Inertia\BusCommPltf_cfg.c ****                         		else
 839:C:/Workspace/FW_Inertia/branch_indesit/CFG_DishWasher/CFG_Inertia\BusCommPltf_cfg.c **** 								{
 840:C:/Workspace/FW_Inertia/branch_indesit/CFG_DishWasher/CFG_Inertia\BusCommPltf_cfg.c **** 									pinfo->error = (IO_ErrorType)IO_E_INVALID_VALUE;
 841:C:/Workspace/FW_Inertia/branch_indesit/CFG_DishWasher/CFG_Inertia\BusCommPltf_cfg.c **** 								}
 842:C:/Workspace/FW_Inertia/branch_indesit/CFG_DishWasher/CFG_Inertia\BusCommPltf_cfg.c ****                         	}
 843:C:/Workspace/FW_Inertia/branch_indesit/CFG_DishWasher/CFG_Inertia\BusCommPltf_cfg.c ****                         	else*/
 844:C:/Workspace/FW_Inertia/branch_indesit/CFG_DishWasher/CFG_Inertia\BusCommPltf_cfg.c ****                         	{
 845:C:/Workspace/FW_Inertia/branch_indesit/CFG_DishWasher/CFG_Inertia\BusCommPltf_cfg.c ****                                 (void)CALLBACK_Protocol_SubModeManage(pdata[1]);
 846:C:/Workspace/FW_Inertia/branch_indesit/CFG_DishWasher/CFG_Inertia\BusCommPltf_cfg.c ****                         	}
 847:C:/Workspace/FW_Inertia/branch_indesit/CFG_DishWasher/CFG_Inertia\BusCommPltf_cfg.c ****                         }
 848:C:/Workspace/FW_Inertia/branch_indesit/CFG_DishWasher/CFG_Inertia\BusCommPltf_cfg.c ****                         break;
 849:C:/Workspace/FW_Inertia/branch_indesit/CFG_DishWasher/CFG_Inertia\BusCommPltf_cfg.c ****                         case SYSTEM_SET_UI_REMOTE_CONTROL:
 850:C:/Workspace/FW_Inertia/branch_indesit/CFG_DishWasher/CFG_Inertia\BusCommPltf_cfg.c ****                             CALLBACK_Protocol_UIRemoteControlManage(pdata[1]);
 851:C:/Workspace/FW_Inertia/branch_indesit/CFG_DishWasher/CFG_Inertia\BusCommPltf_cfg.c ****                         break;
 852:C:/Workspace/FW_Inertia/branch_indesit/CFG_DishWasher/CFG_Inertia\BusCommPltf_cfg.c ****                         case SYSTEM_SPECIAL_MODE:
 853:C:/Workspace/FW_Inertia/branch_indesit/CFG_DishWasher/CFG_Inertia\BusCommPltf_cfg.c ****                             (void)CBF_Task_Protocol_SetSpecialModeManager(pdata[1]);
 854:C:/Workspace/FW_Inertia/branch_indesit/CFG_DishWasher/CFG_Inertia\BusCommPltf_cfg.c ****                         break;
 855:C:/Workspace/FW_Inertia/branch_indesit/CFG_DishWasher/CFG_Inertia\BusCommPltf_cfg.c ****                      }
 856:C:/Workspace/FW_Inertia/branch_indesit/CFG_DishWasher/CFG_Inertia\BusCommPltf_cfg.c ****                 break;
 857:C:/Workspace/FW_Inertia/branch_indesit/CFG_DishWasher/CFG_Inertia\BusCommPltf_cfg.c **** 
 858:C:/Workspace/FW_Inertia/branch_indesit/CFG_DishWasher/CFG_Inertia\BusCommPltf_cfg.c ****                 default:
 859:C:/Workspace/FW_Inertia/branch_indesit/CFG_DishWasher/CFG_Inertia\BusCommPltf_cfg.c ****                     if(pdata[0] == SYSTEM_BOOT_MODE)
 860:C:/Workspace/FW_Inertia/branch_indesit/CFG_DishWasher/CFG_Inertia\BusCommPltf_cfg.c ****                     {
 861:C:/Workspace/FW_Inertia/branch_indesit/CFG_DishWasher/CFG_Inertia\BusCommPltf_cfg.c ****                     	/* Do nothing */
 862:C:/Workspace/FW_Inertia/branch_indesit/CFG_DishWasher/CFG_Inertia\BusCommPltf_cfg.c ****                     }
 863:C:/Workspace/FW_Inertia/branch_indesit/CFG_DishWasher/CFG_Inertia\BusCommPltf_cfg.c ****                     else
 864:C:/Workspace/FW_Inertia/branch_indesit/CFG_DishWasher/CFG_Inertia\BusCommPltf_cfg.c ****                     {
 865:C:/Workspace/FW_Inertia/branch_indesit/CFG_DishWasher/CFG_Inertia\BusCommPltf_cfg.c ****                         pinfo->error = (IO_ErrorType)IO_E_INVALID_VALUE;
 866:C:/Workspace/FW_Inertia/branch_indesit/CFG_DishWasher/CFG_Inertia\BusCommPltf_cfg.c ****                     }
 867:C:/Workspace/FW_Inertia/branch_indesit/CFG_DishWasher/CFG_Inertia\BusCommPltf_cfg.c ****                     
 868:C:/Workspace/FW_Inertia/branch_indesit/CFG_DishWasher/CFG_Inertia\BusCommPltf_cfg.c ****             }
 869:C:/Workspace/FW_Inertia/branch_indesit/CFG_DishWasher/CFG_Inertia\BusCommPltf_cfg.c ****             
 870:C:/Workspace/FW_Inertia/branch_indesit/CFG_DishWasher/CFG_Inertia\BusCommPltf_cfg.c ****             /* any system mode */
 871:C:/Workspace/FW_Inertia/branch_indesit/CFG_DishWasher/CFG_Inertia\BusCommPltf_cfg.c ****             switch(pdata[0]) 
 872:C:/Workspace/FW_Inertia/branch_indesit/CFG_DishWasher/CFG_Inertia\BusCommPltf_cfg.c **** 			{
 873:C:/Workspace/FW_Inertia/branch_indesit/CFG_DishWasher/CFG_Inertia\BusCommPltf_cfg.c **** 			case SYSTEM_BOOT_MODE:
 874:C:/Workspace/FW_Inertia/branch_indesit/CFG_DishWasher/CFG_Inertia\BusCommPltf_cfg.c **** 			{
 875:C:/Workspace/FW_Inertia/branch_indesit/CFG_DishWasher/CFG_Inertia\BusCommPltf_cfg.c **** 				if (pdata[1] == SYSTEM_BOOT_ENTER_STEP1)
 876:C:/Workspace/FW_Inertia/branch_indesit/CFG_DishWasher/CFG_Inertia\BusCommPltf_cfg.c **** 				{
 877:C:/Workspace/FW_Inertia/branch_indesit/CFG_DishWasher/CFG_Inertia\BusCommPltf_cfg.c **** 					LIB_Reset_SetTimedRequest(( SYSTEM_BOOT_MODE << 8) | SYSTEM_BOOT_ENTER_STEP1, RESET_TIMEDREQ_T
 878:C:/Workspace/FW_Inertia/branch_indesit/CFG_DishWasher/CFG_Inertia\BusCommPltf_cfg.c **** 				}
 879:C:/Workspace/FW_Inertia/branch_indesit/CFG_DishWasher/CFG_Inertia\BusCommPltf_cfg.c **** #if defined(BOOTLOADER_IEC60335)
 880:C:/Workspace/FW_Inertia/branch_indesit/CFG_DishWasher/CFG_Inertia\BusCommPltf_cfg.c **** 				else if (pdata[1] == SYSTEM_BOOT_SETTING_ENTER_STEP1)
 881:C:/Workspace/FW_Inertia/branch_indesit/CFG_DishWasher/CFG_Inertia\BusCommPltf_cfg.c **** 				{
 882:C:/Workspace/FW_Inertia/branch_indesit/CFG_DishWasher/CFG_Inertia\BusCommPltf_cfg.c **** 					LIB_Reset_SetTimedRequest(( SYSTEM_BOOT_MODE << 8) | SYSTEM_BOOT_SETTING_ENTER_STEP1, RESET_TI
 883:C:/Workspace/FW_Inertia/branch_indesit/CFG_DishWasher/CFG_Inertia\BusCommPltf_cfg.c **** 				}
 884:C:/Workspace/FW_Inertia/branch_indesit/CFG_DishWasher/CFG_Inertia\BusCommPltf_cfg.c **** 				else if (pdata[1] == SYSTEM_BOOT_SETTING_ENTER_STEP2)
 885:C:/Workspace/FW_Inertia/branch_indesit/CFG_DishWasher/CFG_Inertia\BusCommPltf_cfg.c **** 				{
 886:C:/Workspace/FW_Inertia/branch_indesit/CFG_DishWasher/CFG_Inertia\BusCommPltf_cfg.c **** 					if (LIB_Reset_ChkTimedRequest(( SYSTEM_BOOT_MODE << 8) | SYSTEM_BOOT_SETTING_ENTER_STEP1))
 887:C:/Workspace/FW_Inertia/branch_indesit/CFG_DishWasher/CFG_Inertia\BusCommPltf_cfg.c **** 					{
 888:C:/Workspace/FW_Inertia/branch_indesit/CFG_DishWasher/CFG_Inertia\BusCommPltf_cfg.c **** 						LIB_Reset_SetNewSystemMode(SYSTEM_BOOT_MODE);
 889:C:/Workspace/FW_Inertia/branch_indesit/CFG_DishWasher/CFG_Inertia\BusCommPltf_cfg.c **** 						OCRST_WriteBootSettingKeywordArea();
 890:C:/Workspace/FW_Inertia/branch_indesit/CFG_DishWasher/CFG_Inertia\BusCommPltf_cfg.c **** 					}
 891:C:/Workspace/FW_Inertia/branch_indesit/CFG_DishWasher/CFG_Inertia\BusCommPltf_cfg.c **** 					else
 892:C:/Workspace/FW_Inertia/branch_indesit/CFG_DishWasher/CFG_Inertia\BusCommPltf_cfg.c **** 					{
 893:C:/Workspace/FW_Inertia/branch_indesit/CFG_DishWasher/CFG_Inertia\BusCommPltf_cfg.c **** 						pinfo->error = (IO_ErrorType)IO_E_INVALID_VALUE;
 894:C:/Workspace/FW_Inertia/branch_indesit/CFG_DishWasher/CFG_Inertia\BusCommPltf_cfg.c **** 					}
 895:C:/Workspace/FW_Inertia/branch_indesit/CFG_DishWasher/CFG_Inertia\BusCommPltf_cfg.c **** 				}
 896:C:/Workspace/FW_Inertia/branch_indesit/CFG_DishWasher/CFG_Inertia\BusCommPltf_cfg.c **** #endif
 897:C:/Workspace/FW_Inertia/branch_indesit/CFG_DishWasher/CFG_Inertia\BusCommPltf_cfg.c **** 				else if (pdata[1] == SYSTEM_BOOT_ENTER_STEP2)
 898:C:/Workspace/FW_Inertia/branch_indesit/CFG_DishWasher/CFG_Inertia\BusCommPltf_cfg.c **** 				{
 899:C:/Workspace/FW_Inertia/branch_indesit/CFG_DishWasher/CFG_Inertia\BusCommPltf_cfg.c **** 					if (LIB_Reset_ChkTimedRequest(( SYSTEM_BOOT_MODE << 8) | SYSTEM_BOOT_ENTER_STEP1))
 900:C:/Workspace/FW_Inertia/branch_indesit/CFG_DishWasher/CFG_Inertia\BusCommPltf_cfg.c **** 					{
 901:C:/Workspace/FW_Inertia/branch_indesit/CFG_DishWasher/CFG_Inertia\BusCommPltf_cfg.c **** 						LIB_Reset_SetNewSystemMode(SYSTEM_BOOT_MODE);
 902:C:/Workspace/FW_Inertia/branch_indesit/CFG_DishWasher/CFG_Inertia\BusCommPltf_cfg.c **** 						OCRST_WriteBootKeywordArea();
 903:C:/Workspace/FW_Inertia/branch_indesit/CFG_DishWasher/CFG_Inertia\BusCommPltf_cfg.c **** 					}
 904:C:/Workspace/FW_Inertia/branch_indesit/CFG_DishWasher/CFG_Inertia\BusCommPltf_cfg.c **** 					else
 905:C:/Workspace/FW_Inertia/branch_indesit/CFG_DishWasher/CFG_Inertia\BusCommPltf_cfg.c **** 					{
 906:C:/Workspace/FW_Inertia/branch_indesit/CFG_DishWasher/CFG_Inertia\BusCommPltf_cfg.c **** 						pinfo->error = (IO_ErrorType)IO_E_INVALID_VALUE;
 907:C:/Workspace/FW_Inertia/branch_indesit/CFG_DishWasher/CFG_Inertia\BusCommPltf_cfg.c **** 					}
 908:C:/Workspace/FW_Inertia/branch_indesit/CFG_DishWasher/CFG_Inertia\BusCommPltf_cfg.c **** 				}
 909:C:/Workspace/FW_Inertia/branch_indesit/CFG_DishWasher/CFG_Inertia\BusCommPltf_cfg.c **** 				else
 910:C:/Workspace/FW_Inertia/branch_indesit/CFG_DishWasher/CFG_Inertia\BusCommPltf_cfg.c **** 				{
 911:C:/Workspace/FW_Inertia/branch_indesit/CFG_DishWasher/CFG_Inertia\BusCommPltf_cfg.c **** 					pinfo->error = (IO_ErrorType)IO_E_INVALID_VALUE;
 912:C:/Workspace/FW_Inertia/branch_indesit/CFG_DishWasher/CFG_Inertia\BusCommPltf_cfg.c **** 				}
 913:C:/Workspace/FW_Inertia/branch_indesit/CFG_DishWasher/CFG_Inertia\BusCommPltf_cfg.c **** 			}
 914:C:/Workspace/FW_Inertia/branch_indesit/CFG_DishWasher/CFG_Inertia\BusCommPltf_cfg.c **** 			break;
 915:C:/Workspace/FW_Inertia/branch_indesit/CFG_DishWasher/CFG_Inertia\BusCommPltf_cfg.c **** 			}
 916:C:/Workspace/FW_Inertia/branch_indesit/CFG_DishWasher/CFG_Inertia\BusCommPltf_cfg.c **** 	}
 917:C:/Workspace/FW_Inertia/branch_indesit/CFG_DishWasher/CFG_Inertia\BusCommPltf_cfg.c **** }
 630                             		.loc 1 917 0
 631 0032 6F 7B                   		popm	r7-r11
 803:C:/Workspace/FW_Inertia/branch_indesit/CFG_DishWasher/CFG_Inertia\BusCommPltf_cfg.c ****                   LIB_Reset_SetNewSystemMode((SysMode_Type)pdata[0]);
 632                             		.loc 1 803 0
 633 0034 04 00 00 00             		bra	_LIB_Reset_SetNewSystemMode
 634                             	.L67:
 809:C:/Workspace/FW_Inertia/branch_indesit/CFG_DishWasher/CFG_Inertia\BusCommPltf_cfg.c **** 			switch(LIB_Reset_GetSystemMode())
 635                             		.loc 1 809 0
 636 0038 05 00 00 00             		bsr	_LIB_Reset_GetSystemMode
 637 003c 5B 11                   		movu.B	r1, r1
 638 003e 58 7E                   		movu.B	[r7], r14
 639 0040 61 11                   		cmp	#1, r1
 640 0042 21 25                   		bne	.L89
 812:C:/Workspace/FW_Inertia/branch_indesit/CFG_DishWasher/CFG_Inertia\BusCommPltf_cfg.c ****                     switch(pdata[0])
 641                             		.loc 1 812 0
 642 0044 61 5E                   		cmp	#5, r14
 643 0046 20 1A                   		beq	.L74
 644 0048 61 6E                   		cmp	#6, r14
 645 004a 20 0E                   		beq	.L75
 646 004c 61 1E                   		cmp	#1, r14
 647 004e 21 20                   		bne	.L72
 845:C:/Workspace/FW_Inertia/branch_indesit/CFG_DishWasher/CFG_Inertia\BusCommPltf_cfg.c ****                                 (void)CALLBACK_Protocol_SubModeManage(pdata[1]);
 648                             		.loc 1 845 0
 649 0050 88 79                   		mov.B	1[r7], r1
 650 0052 05 00 00 00             		bsr	_CALLBACK_Protocol_SubModeManage
 848:C:/Workspace/FW_Inertia/branch_indesit/CFG_DishWasher/CFG_Inertia\BusCommPltf_cfg.c ****                         break;
 651                             		.loc 1 848 0
 652 0056 2E 18                   		bra	.L72
 653                             	.L75:
 850:C:/Workspace/FW_Inertia/branch_indesit/CFG_DishWasher/CFG_Inertia\BusCommPltf_cfg.c ****                             CALLBACK_Protocol_UIRemoteControlManage(pdata[1]);
 654                             		.loc 1 850 0
 655 0058 88 79                   		mov.B	1[r7], r1
 656 005a 05 00 00 00             		bsr	_CALLBACK_Protocol_UIRemoteControlManage
 851:C:/Workspace/FW_Inertia/branch_indesit/CFG_DishWasher/CFG_Inertia\BusCommPltf_cfg.c ****                         break;
 657                             		.loc 1 851 0
 658 005e 2E 10                   		bra	.L72
 659                             	.L74:
 853:C:/Workspace/FW_Inertia/branch_indesit/CFG_DishWasher/CFG_Inertia\BusCommPltf_cfg.c ****                             (void)CBF_Task_Protocol_SetSpecialModeManager(pdata[1]);
 660                             		.loc 1 853 0
 661 0060 88 79                   		mov.B	1[r7], r1
 662 0062 05 00 00 00             		bsr	_CBF_Task_Protocol_SetSpecialModeManager
 854:C:/Workspace/FW_Inertia/branch_indesit/CFG_DishWasher/CFG_Inertia\BusCommPltf_cfg.c ****                         break;
 663                             		.loc 1 854 0
 664 0066 08                      		bra	.L72
 665                             	.L89:
 859:C:/Workspace/FW_Inertia/branch_indesit/CFG_DishWasher/CFG_Inertia\BusCommPltf_cfg.c ****                     if(pdata[0] == SYSTEM_BOOT_MODE)
 666                             		.loc 1 859 0
 667 0067 61 8E                   		cmp	#8, r14
 668 0069 15                      		beq	.L72
 865:C:/Workspace/FW_Inertia/branch_indesit/CFG_DishWasher/CFG_Inertia\BusCommPltf_cfg.c ****                         pinfo->error = (IO_ErrorType)IO_E_INVALID_VALUE;
 669                             		.loc 1 865 0
 670 006a F9 A4 06 13             		mov.B	#19, 6[r10]
 671                             		.balign 2,3,3
 672                             	.L72:
 871:C:/Workspace/FW_Inertia/branch_indesit/CFG_DishWasher/CFG_Inertia\BusCommPltf_cfg.c ****             switch(pdata[0]) 
 673                             		.loc 1 871 0
 674 006e 58 7B                   		movu.B	[r7], r11
 675 0070 61 8B                   		cmp	#8, r11
 676 0072 21 38                   		bne	.L64
 875:C:/Workspace/FW_Inertia/branch_indesit/CFG_DishWasher/CFG_Inertia\BusCommPltf_cfg.c **** 				if (pdata[1] == SYSTEM_BOOT_ENTER_STEP1)
 677                             		.loc 1 875 0
 678 0074 B0 7F                   		movu.B	1[r7], r7
 679 0076 75 57 DE                		cmp	#0xde, r7
 680 0079 21 10                   		bne	.L77
 877:C:/Workspace/FW_Inertia/branch_indesit/CFG_DishWasher/CFG_Inertia\BusCommPltf_cfg.c **** 					LIB_Reset_SetTimedRequest(( SYSTEM_BOOT_MODE << 8) | SYSTEM_BOOT_ENTER_STEP1, RESET_TIMEDREQ_T
 681                             		.loc 1 877 0
 682 007b FB 1A DE 08             		mov	#0x8de, r1
 683 007f FB 2A 88 13             		mov.L	#0x1388, r2
 684                             		.loc 1 917 0
 685 0083 6F 7B                   		popm	r7-r11
 877:C:/Workspace/FW_Inertia/branch_indesit/CFG_DishWasher/CFG_Inertia\BusCommPltf_cfg.c **** 					LIB_Reset_SetTimedRequest(( SYSTEM_BOOT_MODE << 8) | SYSTEM_BOOT_ENTER_STEP1, RESET_TIMEDREQ_T
 686                             		.loc 1 877 0
 687 0085 04 00 00 00             		bra	_LIB_Reset_SetTimedRequest
 688                             	.L77:
 897:C:/Workspace/FW_Inertia/branch_indesit/CFG_DishWasher/CFG_Inertia\BusCommPltf_cfg.c **** 				else if (pdata[1] == SYSTEM_BOOT_ENTER_STEP2)
 689                             		.loc 1 897 0
 690 0089 75 57 AD                		cmp	#0xad, r7
 691 008c 21 1A                   		bne	.L78
 899:C:/Workspace/FW_Inertia/branch_indesit/CFG_DishWasher/CFG_Inertia\BusCommPltf_cfg.c **** 					if (LIB_Reset_ChkTimedRequest(( SYSTEM_BOOT_MODE << 8) | SYSTEM_BOOT_ENTER_STEP1))
 692                             		.loc 1 899 0
 693 008e FB 1A DE 08             		mov	#0x8de, r1
 694 0092 05 00 00 00             		bsr	_LIB_Reset_ChkTimedRequest
 695 0096 61 01                   		cmp	#0, r1
 696 0098 20 0E                   		beq	.L78
 901:C:/Workspace/FW_Inertia/branch_indesit/CFG_DishWasher/CFG_Inertia\BusCommPltf_cfg.c **** 						LIB_Reset_SetNewSystemMode(SYSTEM_BOOT_MODE);
 697                             		.loc 1 901 0
 698 009a CF B1                   		mov.B	r11, r1
 699 009c 05 00 00 00             		bsr	_LIB_Reset_SetNewSystemMode
 700                             		.loc 1 917 0
 701 00a0 6F 7B                   		popm	r7-r11
 902:C:/Workspace/FW_Inertia/branch_indesit/CFG_DishWasher/CFG_Inertia\BusCommPltf_cfg.c **** 						OCRST_WriteBootKeywordArea();
 702                             		.loc 1 902 0
 703 00a2 04 00 00 00             		bra	_OCRST_WriteBootKeywordArea
 704                             	.L78:
 911:C:/Workspace/FW_Inertia/branch_indesit/CFG_DishWasher/CFG_Inertia\BusCommPltf_cfg.c **** 					pinfo->error = (IO_ErrorType)IO_E_INVALID_VALUE;
 705                             		.loc 1 911 0
 706 00a6 F9 A4 06 13             		mov.B	#19, 6[r10]
 707                             		.balign 2,3,2
 708                             	.L64:
 709                             		.loc 1 917 0
 710 00aa 3F 7B 05                		rtsd	#20, r7-r11
 711                             	.LFE20:
 713 00ad 03                      		.section	.text.CMS_EE_FUNC_BS_SetLoads,"ax",@progbits
 714                             		.global	_CMS_EE_FUNC_BS_SetLoads
 716                             	_CMS_EE_FUNC_BS_SetLoads:
 717                             	.LFB21:
 918:C:/Workspace/FW_Inertia/branch_indesit/CFG_DishWasher/CFG_Inertia\BusCommPltf_cfg.c **** 
 919:C:/Workspace/FW_Inertia/branch_indesit/CFG_DishWasher/CFG_Inertia\BusCommPltf_cfg.c **** 
 920:C:/Workspace/FW_Inertia/branch_indesit/CFG_DishWasher/CFG_Inertia\BusCommPltf_cfg.c **** /**
 921:C:/Workspace/FW_Inertia/branch_indesit/CFG_DishWasher/CFG_Inertia\BusCommPltf_cfg.c **** Basic Set Load Request
 922:C:/Workspace/FW_Inertia/branch_indesit/CFG_DishWasher/CFG_Inertia\BusCommPltf_cfg.c **** The request will end successfully, Platform Protocol PP_ACK will be sent if,
 923:C:/Workspace/FW_Inertia/branch_indesit/CFG_DishWasher/CFG_Inertia\BusCommPltf_cfg.c **** \li system mode is SYSTEM_NORMAL_MODE
 924:C:/Workspace/FW_Inertia/branch_indesit/CFG_DishWasher/CFG_Inertia\BusCommPltf_cfg.c **** \li no error on queue at low level.
 925:C:/Workspace/FW_Inertia/branch_indesit/CFG_DishWasher/CFG_Inertia\BusCommPltf_cfg.c **** */
 926:C:/Workspace/FW_Inertia/branch_indesit/CFG_DishWasher/CFG_Inertia\BusCommPltf_cfg.c **** DEF_CSM_EE_CUSTOM_FUNC(BS_SetLoads)
 927:C:/Workspace/FW_Inertia/branch_indesit/CFG_DishWasher/CFG_Inertia\BusCommPltf_cfg.c **** {
 718                             		.loc 1 927 0
 719                             	.LVL63:
 720 0000 6E 7B                   		pushm	r7-r11
 721                             	.LCFI13:
 722 0002 EF 2A                   		mov.L	r2, r10
 723 0004 CF 3B                   		mov.B	r3, r11
 724 0006 EF 47                   		mov.L	r4, r7
 928:C:/Workspace/FW_Inertia/branch_indesit/CFG_DishWasher/CFG_Inertia\BusCommPltf_cfg.c **** 	/* format:
 929:C:/Workspace/FW_Inertia/branch_indesit/CFG_DishWasher/CFG_Inertia\BusCommPltf_cfg.c **** 	TYPE	: 0x5x
 930:C:/Workspace/FW_Inertia/branch_indesit/CFG_DishWasher/CFG_Inertia\BusCommPltf_cfg.c **** 	DATA0  : load index in Outputs Map
 931:C:/Workspace/FW_Inertia/branch_indesit/CFG_DishWasher/CFG_Inertia\BusCommPltf_cfg.c **** 	DATA1  : XXXXYYYY (YYYY: activation level, XXXX: configuration)
 932:C:/Workspace/FW_Inertia/branch_indesit/CFG_DishWasher/CFG_Inertia\BusCommPltf_cfg.c **** 	DATA2  : not used
 933:C:/Workspace/FW_Inertia/branch_indesit/CFG_DishWasher/CFG_Inertia\BusCommPltf_cfg.c **** 	*/
 934:C:/Workspace/FW_Inertia/branch_indesit/CFG_DishWasher/CFG_Inertia\BusCommPltf_cfg.c **** 
 935:C:/Workspace/FW_Inertia/branch_indesit/CFG_DishWasher/CFG_Inertia\BusCommPltf_cfg.c ****     (void) ch;    
 936:C:/Workspace/FW_Inertia/branch_indesit/CFG_DishWasher/CFG_Inertia\BusCommPltf_cfg.c ****     
 937:C:/Workspace/FW_Inertia/branch_indesit/CFG_DishWasher/CFG_Inertia\BusCommPltf_cfg.c **** 	if(LIB_Reset_GetSystemMode() == SYSTEM_NORMAL_MODE)
 725                             		.loc 1 937 0
 726 0008 05 00 00 00             		bsr	_LIB_Reset_GetSystemMode
 727                             	.LVL64:
 728 000c 5B 11                   		movu.B	r1, r1
 729 000e 61 11                   		cmp	#1, r1
 730 0010 21 0E                   		bne	.L92
 938:C:/Workspace/FW_Inertia/branch_indesit/CFG_DishWasher/CFG_Inertia\BusCommPltf_cfg.c **** 	{
 939:C:/Workspace/FW_Inertia/branch_indesit/CFG_DishWasher/CFG_Inertia\BusCommPltf_cfg.c **** 		if (SAFETY_CHECK_ISDISABLED())
 940:C:/Workspace/FW_Inertia/branch_indesit/CFG_DishWasher/CFG_Inertia\BusCommPltf_cfg.c **** 		{
 941:C:/Workspace/FW_Inertia/branch_indesit/CFG_DishWasher/CFG_Inertia\BusCommPltf_cfg.c **** 			/*Add the flag for basic frame */
 942:C:/Workspace/FW_Inertia/branch_indesit/CFG_DishWasher/CFG_Inertia\BusCommPltf_cfg.c **** 			if( Main_RemoteLoadsControl_PutCommand(REMOTE_LOADS_CONTROL_BASIC,len, pdata))
 731                             		.loc 1 942 0
 732 0012 CF B2                   		mov.B	r11, r2
 733 0014 EF A3                   		mov.L	r10, r3
 734 0016 05 00 00 00             		bsr	_Main_RemoteLoadsControl_PutCommand
 735                             	.LVL65:
 736 001a 61 01                   		cmp	#0, r1
 737 001c 16                      		beq	.L91
 738 001d 03                      		.balign 2,3,4
 739                             	.L92:
 943:C:/Workspace/FW_Inertia/branch_indesit/CFG_DishWasher/CFG_Inertia\BusCommPltf_cfg.c **** 			{
 944:C:/Workspace/FW_Inertia/branch_indesit/CFG_DishWasher/CFG_Inertia\BusCommPltf_cfg.c **** 				pinfo->error = (IO_ErrorType)IO_E_INVALID_VALUE;
 945:C:/Workspace/FW_Inertia/branch_indesit/CFG_DishWasher/CFG_Inertia\BusCommPltf_cfg.c **** 			}
 946:C:/Workspace/FW_Inertia/branch_indesit/CFG_DishWasher/CFG_Inertia\BusCommPltf_cfg.c **** 		}
 947:C:/Workspace/FW_Inertia/branch_indesit/CFG_DishWasher/CFG_Inertia\BusCommPltf_cfg.c **** 		else
 948:C:/Workspace/FW_Inertia/branch_indesit/CFG_DishWasher/CFG_Inertia\BusCommPltf_cfg.c **** 		{
 949:C:/Workspace/FW_Inertia/branch_indesit/CFG_DishWasher/CFG_Inertia\BusCommPltf_cfg.c **** 			pinfo->error = (IO_ErrorType)IO_E_INVALID_VALUE;
 950:C:/Workspace/FW_Inertia/branch_indesit/CFG_DishWasher/CFG_Inertia\BusCommPltf_cfg.c **** 		}
 951:C:/Workspace/FW_Inertia/branch_indesit/CFG_DishWasher/CFG_Inertia\BusCommPltf_cfg.c **** 
 952:C:/Workspace/FW_Inertia/branch_indesit/CFG_DishWasher/CFG_Inertia\BusCommPltf_cfg.c **** 	}
 953:C:/Workspace/FW_Inertia/branch_indesit/CFG_DishWasher/CFG_Inertia\BusCommPltf_cfg.c **** 	else
 954:C:/Workspace/FW_Inertia/branch_indesit/CFG_DishWasher/CFG_Inertia\BusCommPltf_cfg.c **** 	{
 955:C:/Workspace/FW_Inertia/branch_indesit/CFG_DishWasher/CFG_Inertia\BusCommPltf_cfg.c **** 	    pinfo->error = (IO_ErrorType)IO_E_INVALID_VALUE;
 740                             		.loc 1 955 0
 741 001e 3C 76 13                		mov.B	#19, 6[r7]
 742 0021 03                      		.balign 2,3,2
 743                             	.L91:
 956:C:/Workspace/FW_Inertia/branch_indesit/CFG_DishWasher/CFG_Inertia\BusCommPltf_cfg.c **** 	}
 957:C:/Workspace/FW_Inertia/branch_indesit/CFG_DishWasher/CFG_Inertia\BusCommPltf_cfg.c **** }
 744                             		.loc 1 957 0
 745 0022 3F 7B 05                		rtsd	#20, r7-r11
 746                             	.LFE21:
 748 0025 03                      		.section	.text.CP_SlaveManager.isra.1,"ax",@progbits
 750                             	_CP_SlaveManager.isra.1:
 751                             	.LFB35:
 958:C:/Workspace/FW_Inertia/branch_indesit/CFG_DishWasher/CFG_Inertia\BusCommPltf_cfg.c **** 
 959:C:/Workspace/FW_Inertia/branch_indesit/CFG_DishWasher/CFG_Inertia\BusCommPltf_cfg.c **** 
 960:C:/Workspace/FW_Inertia/branch_indesit/CFG_DishWasher/CFG_Inertia\BusCommPltf_cfg.c **** /**
 961:C:/Workspace/FW_Inertia/branch_indesit/CFG_DishWasher/CFG_Inertia\BusCommPltf_cfg.c **** WriteUIInfo Request
 962:C:/Workspace/FW_Inertia/branch_indesit/CFG_DishWasher/CFG_Inertia\BusCommPltf_cfg.c **** The request will end successfully, answering with the content of data of the application, if 
 963:C:/Workspace/FW_Inertia/branch_indesit/CFG_DishWasher/CFG_Inertia\BusCommPltf_cfg.c **** WriteUIInfo variable is configured by using Set_CPApplianceDataItem
 964:C:/Workspace/FW_Inertia/branch_indesit/CFG_DishWasher/CFG_Inertia\BusCommPltf_cfg.c **** */
 965:C:/Workspace/FW_Inertia/branch_indesit/CFG_DishWasher/CFG_Inertia\BusCommPltf_cfg.c **** DEF_CSM_EE_CTRL(Ctrl_WriteUIInfoRequest)
 966:C:/Workspace/FW_Inertia/branch_indesit/CFG_DishWasher/CFG_Inertia\BusCommPltf_cfg.c **** {
 967:C:/Workspace/FW_Inertia/branch_indesit/CFG_DishWasher/CFG_Inertia\BusCommPltf_cfg.c **** 	return (IO_ErrorType)IO_E_OK;
 968:C:/Workspace/FW_Inertia/branch_indesit/CFG_DishWasher/CFG_Inertia\BusCommPltf_cfg.c **** }
 969:C:/Workspace/FW_Inertia/branch_indesit/CFG_DishWasher/CFG_Inertia\BusCommPltf_cfg.c **** 
 970:C:/Workspace/FW_Inertia/branch_indesit/CFG_DishWasher/CFG_Inertia\BusCommPltf_cfg.c **** 
 971:C:/Workspace/FW_Inertia/branch_indesit/CFG_DishWasher/CFG_Inertia\BusCommPltf_cfg.c **** /**
 972:C:/Workspace/FW_Inertia/branch_indesit/CFG_DishWasher/CFG_Inertia\BusCommPltf_cfg.c **** Status Request
 973:C:/Workspace/FW_Inertia/branch_indesit/CFG_DishWasher/CFG_Inertia\BusCommPltf_cfg.c **** The request will end successfully, answering with the content of data of the application, if
 974:C:/Workspace/FW_Inertia/branch_indesit/CFG_DishWasher/CFG_Inertia\BusCommPltf_cfg.c **** Status variable is configured by using Set_CPApplianceDataItem
 975:C:/Workspace/FW_Inertia/branch_indesit/CFG_DishWasher/CFG_Inertia\BusCommPltf_cfg.c **** */
 976:C:/Workspace/FW_Inertia/branch_indesit/CFG_DishWasher/CFG_Inertia\BusCommPltf_cfg.c **** DEF_CSM_EE_CTRL(Ctrl_StatusRequest)
 977:C:/Workspace/FW_Inertia/branch_indesit/CFG_DishWasher/CFG_Inertia\BusCommPltf_cfg.c **** {
 978:C:/Workspace/FW_Inertia/branch_indesit/CFG_DishWasher/CFG_Inertia\BusCommPltf_cfg.c **** 	return (IO_ErrorType)IO_E_OK;
 979:C:/Workspace/FW_Inertia/branch_indesit/CFG_DishWasher/CFG_Inertia\BusCommPltf_cfg.c **** }
 980:C:/Workspace/FW_Inertia/branch_indesit/CFG_DishWasher/CFG_Inertia\BusCommPltf_cfg.c **** 
 981:C:/Workspace/FW_Inertia/branch_indesit/CFG_DishWasher/CFG_Inertia\BusCommPltf_cfg.c **** /**
 982:C:/Workspace/FW_Inertia/branch_indesit/CFG_DishWasher/CFG_Inertia\BusCommPltf_cfg.c **** Ident Request
 983:C:/Workspace/FW_Inertia/branch_indesit/CFG_DishWasher/CFG_Inertia\BusCommPltf_cfg.c **** Preconfigured by platform framework.
 984:C:/Workspace/FW_Inertia/branch_indesit/CFG_DishWasher/CFG_Inertia\BusCommPltf_cfg.c **** */
 985:C:/Workspace/FW_Inertia/branch_indesit/CFG_DishWasher/CFG_Inertia\BusCommPltf_cfg.c **** DEF_CSM_EE_CTRL(Ctrl_IdentRequest)
 986:C:/Workspace/FW_Inertia/branch_indesit/CFG_DishWasher/CFG_Inertia\BusCommPltf_cfg.c **** {
 987:C:/Workspace/FW_Inertia/branch_indesit/CFG_DishWasher/CFG_Inertia\BusCommPltf_cfg.c ****     return (IO_ErrorType)IO_E_OK;
 988:C:/Workspace/FW_Inertia/branch_indesit/CFG_DishWasher/CFG_Inertia\BusCommPltf_cfg.c **** }
 989:C:/Workspace/FW_Inertia/branch_indesit/CFG_DishWasher/CFG_Inertia\BusCommPltf_cfg.c **** 
 990:C:/Workspace/FW_Inertia/branch_indesit/CFG_DishWasher/CFG_Inertia\BusCommPltf_cfg.c **** 
 991:C:/Workspace/FW_Inertia/branch_indesit/CFG_DishWasher/CFG_Inertia\BusCommPltf_cfg.c **** 
 992:C:/Workspace/FW_Inertia/branch_indesit/CFG_DishWasher/CFG_Inertia\BusCommPltf_cfg.c **** 
 993:C:/Workspace/FW_Inertia/branch_indesit/CFG_DishWasher/CFG_Inertia\BusCommPltf_cfg.c **** 
 994:C:/Workspace/FW_Inertia/branch_indesit/CFG_DishWasher/CFG_Inertia\BusCommPltf_cfg.c **** /**
 995:C:/Workspace/FW_Inertia/branch_indesit/CFG_DishWasher/CFG_Inertia\BusCommPltf_cfg.c **** Write Regulations Request
 996:C:/Workspace/FW_Inertia/branch_indesit/CFG_DishWasher/CFG_Inertia\BusCommPltf_cfg.c **** The request will end successfully, answering with the content of data of the application, if
 997:C:/Workspace/FW_Inertia/branch_indesit/CFG_DishWasher/CFG_Inertia\BusCommPltf_cfg.c **** WriteRegs variable is configured by using Set_CPApplianceDataItem and CBF_OnWriteRegulations()
 998:C:/Workspace/FW_Inertia/branch_indesit/CFG_DishWasher/CFG_Inertia\BusCommPltf_cfg.c **** returns TRUE.
 999:C:/Workspace/FW_Inertia/branch_indesit/CFG_DishWasher/CFG_Inertia\BusCommPltf_cfg.c **** */
1000:C:/Workspace/FW_Inertia/branch_indesit/CFG_DishWasher/CFG_Inertia\BusCommPltf_cfg.c **** DEF_CSM_EE_CTRL(Ctrl_WriteRegsRequest)
1001:C:/Workspace/FW_Inertia/branch_indesit/CFG_DishWasher/CFG_Inertia\BusCommPltf_cfg.c **** {
1002:C:/Workspace/FW_Inertia/branch_indesit/CFG_DishWasher/CFG_Inertia\BusCommPltf_cfg.c **** 	
1003:C:/Workspace/FW_Inertia/branch_indesit/CFG_DishWasher/CFG_Inertia\BusCommPltf_cfg.c **** #if ENABLE_SYNC_UI_MAIN == 1				
1004:C:/Workspace/FW_Inertia/branch_indesit/CFG_DishWasher/CFG_Inertia\BusCommPltf_cfg.c **** 	if(CBF_OnWriteRegulations() == FALSE)
1005:C:/Workspace/FW_Inertia/branch_indesit/CFG_DishWasher/CFG_Inertia\BusCommPltf_cfg.c **** 	{
1006:C:/Workspace/FW_Inertia/branch_indesit/CFG_DishWasher/CFG_Inertia\BusCommPltf_cfg.c **** 		return (IO_ErrorType)IO_E_INVALID_VALUE;
1007:C:/Workspace/FW_Inertia/branch_indesit/CFG_DishWasher/CFG_Inertia\BusCommPltf_cfg.c **** 	}
1008:C:/Workspace/FW_Inertia/branch_indesit/CFG_DishWasher/CFG_Inertia\BusCommPltf_cfg.c **** #endif /* ( ENABLE_SYNC_UI_MAIN == 1 ) */
1009:C:/Workspace/FW_Inertia/branch_indesit/CFG_DishWasher/CFG_Inertia\BusCommPltf_cfg.c **** return (IO_ErrorType)IO_E_OK;
1010:C:/Workspace/FW_Inertia/branch_indesit/CFG_DishWasher/CFG_Inertia\BusCommPltf_cfg.c **** }
1011:C:/Workspace/FW_Inertia/branch_indesit/CFG_DishWasher/CFG_Inertia\BusCommPltf_cfg.c **** 
1012:C:/Workspace/FW_Inertia/branch_indesit/CFG_DishWasher/CFG_Inertia\BusCommPltf_cfg.c **** 
1013:C:/Workspace/FW_Inertia/branch_indesit/CFG_DishWasher/CFG_Inertia\BusCommPltf_cfg.c **** /**
1014:C:/Workspace/FW_Inertia/branch_indesit/CFG_DishWasher/CFG_Inertia\BusCommPltf_cfg.c **** Status Request
1015:C:/Workspace/FW_Inertia/branch_indesit/CFG_DishWasher/CFG_Inertia\BusCommPltf_cfg.c **** The request will end successfully, answering with the content of data of the application, if 
1016:C:/Workspace/FW_Inertia/branch_indesit/CFG_DishWasher/CFG_Inertia\BusCommPltf_cfg.c **** ReadRegs variable is configured by using Set_CPApplianceDataItem and CBF_OnReadRegulations()
1017:C:/Workspace/FW_Inertia/branch_indesit/CFG_DishWasher/CFG_Inertia\BusCommPltf_cfg.c **** returns TRUE.
1018:C:/Workspace/FW_Inertia/branch_indesit/CFG_DishWasher/CFG_Inertia\BusCommPltf_cfg.c **** */
1019:C:/Workspace/FW_Inertia/branch_indesit/CFG_DishWasher/CFG_Inertia\BusCommPltf_cfg.c **** DEF_CSM_EE_CTRL(Ctrl_ReadRegsRequest)
1020:C:/Workspace/FW_Inertia/branch_indesit/CFG_DishWasher/CFG_Inertia\BusCommPltf_cfg.c **** {
1021:C:/Workspace/FW_Inertia/branch_indesit/CFG_DishWasher/CFG_Inertia\BusCommPltf_cfg.c **** /* read regulations returns a NACK if DP_Reg_Var_dim is zero*/
1022:C:/Workspace/FW_Inertia/branch_indesit/CFG_DishWasher/CFG_Inertia\BusCommPltf_cfg.c **** #if  ENABLE_SYNC_UI_MAIN == 1			   	
1023:C:/Workspace/FW_Inertia/branch_indesit/CFG_DishWasher/CFG_Inertia\BusCommPltf_cfg.c ****         /* sincronizzazione UI-Main mediante la sequenza */
1024:C:/Workspace/FW_Inertia/branch_indesit/CFG_DishWasher/CFG_Inertia\BusCommPltf_cfg.c ****   	    /* READ_STATUS - READ_REGS - WRITE_REGS */
1025:C:/Workspace/FW_Inertia/branch_indesit/CFG_DishWasher/CFG_Inertia\BusCommPltf_cfg.c ****     if(FALSE == CBF_OnReadRegulations() )
1026:C:/Workspace/FW_Inertia/branch_indesit/CFG_DishWasher/CFG_Inertia\BusCommPltf_cfg.c ****     {
1027:C:/Workspace/FW_Inertia/branch_indesit/CFG_DishWasher/CFG_Inertia\BusCommPltf_cfg.c ****         return (IO_ErrorType)IO_E_INVALID_VALUE;
1028:C:/Workspace/FW_Inertia/branch_indesit/CFG_DishWasher/CFG_Inertia\BusCommPltf_cfg.c ****     }
1029:C:/Workspace/FW_Inertia/branch_indesit/CFG_DishWasher/CFG_Inertia\BusCommPltf_cfg.c **** #endif /* ( ENABLE_SYNC_UI_MAIN == 1 ) */			
1030:C:/Workspace/FW_Inertia/branch_indesit/CFG_DishWasher/CFG_Inertia\BusCommPltf_cfg.c **** 	    
1031:C:/Workspace/FW_Inertia/branch_indesit/CFG_DishWasher/CFG_Inertia\BusCommPltf_cfg.c **** 	return (IO_ErrorType)IO_E_OK;
1032:C:/Workspace/FW_Inertia/branch_indesit/CFG_DishWasher/CFG_Inertia\BusCommPltf_cfg.c **** }
1033:C:/Workspace/FW_Inertia/branch_indesit/CFG_DishWasher/CFG_Inertia\BusCommPltf_cfg.c **** 
1034:C:/Workspace/FW_Inertia/branch_indesit/CFG_DishWasher/CFG_Inertia\BusCommPltf_cfg.c **** 
1035:C:/Workspace/FW_Inertia/branch_indesit/CFG_DishWasher/CFG_Inertia\BusCommPltf_cfg.c **** 
1036:C:/Workspace/FW_Inertia/branch_indesit/CFG_DishWasher/CFG_Inertia\BusCommPltf_cfg.c **** 
1037:C:/Workspace/FW_Inertia/branch_indesit/CFG_DishWasher/CFG_Inertia\BusCommPltf_cfg.c **** 
1038:C:/Workspace/FW_Inertia/branch_indesit/CFG_DishWasher/CFG_Inertia\BusCommPltf_cfg.c **** 
1039:C:/Workspace/FW_Inertia/branch_indesit/CFG_DishWasher/CFG_Inertia\BusCommPltf_cfg.c **** 
1040:C:/Workspace/FW_Inertia/branch_indesit/CFG_DishWasher/CFG_Inertia\BusCommPltf_cfg.c **** BEGIN_CP_SLAVEMANAGER(CP_SlaveManager)
 752                             		.loc 1 1040 0
 753                             	.LVL66:
 754 0000 6E 7C                   		pushm	r7-r12
 755                             	.LCFI14:
 756 0002 71 00 E4                		add	#-28, r0
 757                             	.LCFI15:
 758 0005 CF 1A                   		mov.B	r1, r10
 759 0007 EF 27                   		mov.L	r2, r7
 760                             	.LVL67:
 761                             		.loc 1 1040 0
 762 0009 66 41                   		mov.L	#4, r1
 763                             	.LVL68:
 764 000b 4B 01                   		add	r0, r1
 765 000d 66 C3                   		mov.L	#12, r3
 766 000f 66 02                   		mov	#0, r2
 767                             	.LVL69:
 768 0011 7F 88                   		sstr.b
 769 0013 CF A1                   		mov.B	r10, r1
 770 0015 05 00 00 00             		bsr	_PP_IsSlaveStateRxOK
 771                             	.LVL70:
 772 0019 61 01                   		cmp	#0, r1
 773 001b 3A D2 05                		beq	.L99
 774 001e 3C 0A 00                		mov.B	#0, 10[r0]
1041:C:/Workspace/FW_Inertia/branch_indesit/CFG_DishWasher/CFG_Inertia\BusCommPltf_cfg.c **** 		
1042:C:/Workspace/FW_Inertia/branch_indesit/CFG_DishWasher/CFG_Inertia\BusCommPltf_cfg.c ****         if(CP_SLAVEMANAGER_REQ_IS_EXTENDED() && CP_SLAVEMANAGER_REQ_IS_TYP8())
 775                             		.loc 1 1042 0
 776 0021 CD 7B 01                		mov.B	1[r7], r11
 777 0024 5B BC                   		movu.B	r11, r12
 778 0026 75 5C EE                		cmp	#0xee, r12
 779 0029 3B 20 05                		bne	.L100
 780 002c CD 7C 02                		mov.B	2[r7], r12
 781 002f 64 2C                   		and	#2, r12
 782 0031 3B 18 05                		bne	.L100
1043:C:/Workspace/FW_Inertia/branch_indesit/CFG_DishWasher/CFG_Inertia\BusCommPltf_cfg.c ****         {            
1044:C:/Workspace/FW_Inertia/branch_indesit/CFG_DishWasher/CFG_Inertia\BusCommPltf_cfg.c ****             BEGIN_CP_SLAVEMANAGER__REQ_FILTER_EETYP8_TYPE()
 783                             		.loc 1 1044 0
 784 0034 59 7E 03                		movu.B	3[r7], r14
 785 0037 75 5E 50                		cmp	#0x50, r14
 786 003a 3A B0 03                		beq	.L113
 787 003d 24 55                   		bgtu	.L126
 788 003f 75 5E 44                		cmp	#0x44, r14
 789 0042 3A 0D 03                		beq	.L107
 790 0045 24 28                   		bgtu	.L127
 791 0047 75 5E 41                		cmp	#0x41, r14
 792 004a 3A FC 01                		beq	.L104
 793 004d 24 11                   		bgtu	.L128
 794 004f 75 5E 20                		cmp	#32, r14
 795 0052 3A BC 00                		beq	.L102
 796 0055 75 5E 3F                		cmp	#63, r14
 797 0058 3B 91 05                		bne	.L211
 798 005b 38 F5 00                		bra	.L103
 799                             	.L128:
 800 005e 75 5E 42                		cmp	#0x42, r14
 801 0061 3A 37 02                		beq	.L105
 802 0064 75 5E 43                		cmp	#0x43, r14
 803 0067 3B 82 05                		bne	.L211
 804 006a 38 75 02                		bra	.L106
 805                             	.L127:
 806 006d 75 5E 4A                		cmp	#0x4a, r14
 807 0070 20 7C                   		beq	.L110
 808 0072 24 11                   		bgtu	.L129
 809 0074 75 5E 46                		cmp	#0x46, r14
 810 0077 3A 4E 03                		beq	.L108
 811 007a 75 5E 49                		cmp	#0x49, r14
 812 007d 3B 6C 05                		bne	.L211
 813 0080 38 7C 03                		bra	.L109
 814                             	.L129:
 815 0083 75 5E 4E                		cmp	#0x4e, r14
 816 0086 3A 16 01                		beq	.L111
 817 0089 75 5E 4F                		cmp	#0x4f, r14
 818 008c 3B 5D 05                		bne	.L211
 819 008f 38 57 01                		bra	.L112
 820                             	.L126:
 821 0092 75 5E 69                		cmp	#0x69, r14
 822 0095 3A 5A 04                		beq	.L119
 823 0098 24 28                   		bgtu	.L130
 824 009a 75 5E 61                		cmp	#0x61, r14
 825 009d 3A AE 03                		beq	.L116
 826 00a0 24 11                   		bgtu	.L131
 827 00a2 75 5E 5F                		cmp	#0x5f, r14
 828 00a5 3A 33 03                		beq	.L114
 829 00a8 75 5E 60                		cmp	#0x60, r14
 830 00ab 3B 3E 05                		bne	.L211
 831 00ae 38 60 03                		bra	.L115
 832                             	.L131:
 833 00b1 75 5E 62                		cmp	#0x62, r14
 834 00b4 3A 6D 03                		beq	.L117
 835 00b7 75 5E 63                		cmp	#0x63, r14
 836 00ba 3B 2F 05                		bne	.L211
 837 00bd 38 D1 03                		bra	.L118
 838                             	.L130:
 839 00c0 75 5E 6C                		cmp	#0x6c, r14
 840 00c3 3A 08 04                		beq	.L122
 841 00c6 24 11                   		bgtu	.L132
 842 00c8 75 5E 6A                		cmp	#0x6a, r14
 843 00cb 3A 48 04                		beq	.L120
 844 00ce 75 5E 6B                		cmp	#0x6b, r14
 845 00d1 3B 18 05                		bne	.L211
 846 00d4 38 2D 04                		bra	.L121
 847                             	.L132:
 848 00d7 75 5E F6                		cmp	#0xf6, r14
 849 00da 3A 4B 04                		beq	.L124
 850 00dd 75 5E F8                		cmp	#0xf8, r14
 851 00e0 3A 57 04                		beq	.L125
 852 00e3 75 5E 6D                		cmp	#0x6d, r14
 853 00e6 3B 03 05                		bne	.L211
 854 00e9 38 F4 03                		bra	.L123
 855                             	.L110:
 856                             	.LVL71:
 857                             	.LBB54:
 858                             	.LBB55:
 763:C:/Workspace/FW_Inertia/branch_indesit/CFG_DishWasher/CFG_Inertia\BusCommPltf_cfg.c ****     pinfo->error = (IO_ErrorType)IO_E_UNEXPECTED_CONDITION;
 859                             		.loc 1 763 0
 860 00ec 3C 0A 17                		mov.B	#23, 10[r0]
 769:C:/Workspace/FW_Inertia/branch_indesit/CFG_DishWasher/CFG_Inertia\BusCommPltf_cfg.c ****     if(BSLDR_OK == BasicLoader(pdata[0], pdata[1], &Data))
 861                             		.loc 1 769 0
 862 00ef B1 79                   		movu.B	5[r7], r1
 863 00f1 B1 F2                   		movu.B	6[r7], r2
 864 00f3 71 03 10                		add	#16, r0, r3
 865 00f6 05 00 00 00             		bsr	_BasicLoader
 866                             	.LVL72:
 867 00fa 61 01                   		cmp	#0, r1
 868 00fc 3B F4 04                		bne	.L134
 771:C:/Workspace/FW_Inertia/branch_indesit/CFG_DishWasher/CFG_Inertia\BusCommPltf_cfg.c ****         pinfo->len = (uint16_t) (Data.DataLenght*2);
 869                             		.loc 1 771 0
 870 00ff 9A 87                   		mov.W	20[r0], r7
 871                             	.LVL73:
 872 0101 4B 77                   		add	r7, r7
 873 0103 91 07                   		mov.W	r7, 8[r0]
 772:C:/Workspace/FW_Inertia/branch_indesit/CFG_DishWasher/CFG_Inertia\BusCommPltf_cfg.c **** 		pinfo->address= (IO_MemPtrType)Data.Data;
 874                             		.loc 1 772 0
 875 0105 E5 00 04 01             		mov.L	16[r0], 4[r0]
 773:C:/Workspace/FW_Inertia/branch_indesit/CFG_DishWasher/CFG_Inertia\BusCommPltf_cfg.c ****         pinfo->error = (IO_ErrorType)IO_E_OK;
 876                             		.loc 1 773 0
 877 0109 82 81                   		mov.B	r1, 10[r0]
 878 010b 38 87 01                		bra	.L219
 879                             	.LVL74:
 880                             	.L102:
 881                             	.LBE55:
 882                             	.LBE54:
 883                             	.LBB56:
1045:C:/Workspace/FW_Inertia/branch_indesit/CFG_DishWasher/CFG_Inertia\BusCommPltf_cfg.c ****                 /* General types */
1046:C:/Workspace/FW_Inertia/branch_indesit/CFG_DishWasher/CFG_Inertia\BusCommPltf_cfg.c ****     			BEGIN_CP_MATCH_VAL(PP_EE_TYPE_SETTING_DATA_BLOCK)
1047:C:/Workspace/FW_Inertia/branch_indesit/CFG_DishWasher/CFG_Inertia\BusCommPltf_cfg.c ****     				CP_CSM_EETYP8_CUSTUMFUNC(USE_CSM_EE_CUSTOM_FUNC(EE_SettingDataBlock))
1048:C:/Workspace/FW_Inertia/branch_indesit/CFG_DishWasher/CFG_Inertia\BusCommPltf_cfg.c ****     			END_CP_MATCH_VAL()
1049:C:/Workspace/FW_Inertia/branch_indesit/CFG_DishWasher/CFG_Inertia\BusCommPltf_cfg.c ****     			BEGIN_CP_MATCH_VAL(PP_EE_TYPE_WRITE_RAM)
1050:C:/Workspace/FW_Inertia/branch_indesit/CFG_DishWasher/CFG_Inertia\BusCommPltf_cfg.c ****     				CP_CSM_EETYP8_WRITERAM(WRRemapTable)
 884                             		.loc 1 1050 0
 885 010e 59 7C 04                		movu.B	4[r7], r12
 886                             	.LVL75:
 887 0111 59 7B 06                		movu.B	6[r7], r11
 888 0114 6C 8B                   		shll	#8, r11
 889 0116 55 7B 05                		or	5[r7].UB, r11
 890                             	.LVL76:
 891 0119 71 C2 FD                		add	#-3, r12, r2
 892 011c 4B B2                   		add	r11, r2
 893                             	.LVL77:
 894 011e 5F 22                   		movu.W	r2, r2
 895 0120 47 B2                   		cmp	r11, r2
 896 0122 22 05 38 CC 04          		bltu	.L134
 897 0127 71 0E 18                		add	#24, r0, r14
 898 012a E3 0E                   		mov.L	r14, [r0]
 899 012c EF B1                   		mov.L	r11, r1
 900 012e FB 32 00 00 00 00       		mov.L	#_WRRemapTable, r3
 901 0134 66 14                   		mov	#1, r4
 902 0136 05 00 00 00             		bsr	_PP_MappingGetOffset
 903                             	.LVL78:
 904 013a 7C 71                   		btst #7, r1
 905 013c 3B AD 04                		bne	.L211
 906 013f 71 C3 FE                		add	#-2, r12, r3
 907 0142 EF B1                   		mov.L	r11, r1
 908                             	.LVL79:
 909 0144 06 89 01 06             		add	24[r0].L, r1
 910 0148 71 72 07                		add	#7, r7, r2
 911 014b 5F 33                   		movu.W	r3, r3
 912 014d 38 8D 01                		bra	.L216
 913                             	.LVL80:
 914                             	.L103:
 915                             	.LBE56:
 916                             	.LBB57:
1051:C:/Workspace/FW_Inertia/branch_indesit/CFG_DishWasher/CFG_Inertia\BusCommPltf_cfg.c ****     			END_CP_MATCH_VAL()
1052:C:/Workspace/FW_Inertia/branch_indesit/CFG_DishWasher/CFG_Inertia\BusCommPltf_cfg.c ****     			BEGIN_CP_MATCH_VAL(PP_EE_TYPE_READ_FLASH)
1053:C:/Workspace/FW_Inertia/branch_indesit/CFG_DishWasher/CFG_Inertia\BusCommPltf_cfg.c ****     			    CP_CSM_EETYP8_READFLASH(RFRemapTable)
 917                             		.loc 1 1053 0
 918 0150 3E 06 00                		mov.L	#0, 24[r0]
 919                             	.LVL81:
 920 0153 59 7B 06                		movu.B	6[r7], r11
 921 0156 6C 8B                   		shll	#8, r11
 922 0158 55 7B 05                		or	5[r7].UB, r11
 923                             	.LVL82:
 924 015b 59 7E 08                		movu.B	8[r7], r14
 925 015e 6C 8E                   		shll	#8, r14
 926 0160 59 7C 07                		movu.B	7[r7], r12
 927 0163 FF 57 CE                		or	r12, r14, r7
 928                             	.LVL83:
 929 0166 EF 72                   		mov.L	r7, r2
 930 0168 EF B1                   		mov.L	r11, r1
 931 016a 47 B7                   		cmp	r11, r7
 932 016c 22 05 38 82 04          		bltu	.L134
 933                             	.LBB58:
 934 0171 43 B7                   		sub	r11, r7
 935                             	.LVL84:
 936 0173 5F 7B                   		movu.W	r7, r11
 937                             	.LVL85:
 938 0175 75 5B FF                		cmp	#0xff, r11
 939 0178 25 05 38 6F 04          		bgtu	.L211
 940 017d 62 17                   		add	#1, r7
 941                             	.LVL86:
 942 017f 91 07                   		mov.W	r7, 8[r0]
 943 0181 A0 09                   		mov.L	r1, 4[r0]
 944 0183 71 07 18                		add	#24, r0, r7
 945                             	.LVL87:
 946 0186 E3 07                   		mov.L	r7, [r0]
 947 0188 FB 32 00 00 00 00       		mov.L	#_RFRemapTable, r3
 948 018e 66 44                   		mov	#4, r4
 949 0190 05 00 00 00             		bsr	_PP_MappingGetOffset
 950                             	.LVL88:
 951 0194 7C 71                   		btst #7, r1
 952 0196 3B 53 04                		bne	.L211
 953 0199 38 45 04                		bra	.L220
 954                             	.LVL89:
 955                             	.L111:
 956                             	.LBE58:
 957                             	.LBE57:
 958                             	.LBB59:
1054:C:/Workspace/FW_Inertia/branch_indesit/CFG_DishWasher/CFG_Inertia\BusCommPltf_cfg.c ****     		    END_CP_MATCH_VAL()
1055:C:/Workspace/FW_Inertia/branch_indesit/CFG_DishWasher/CFG_Inertia\BusCommPltf_cfg.c ****     		    BEGIN_CP_MATCH_VAL(PP_EE_TYPE_ERASE_FLASH_PAGE)
1056:C:/Workspace/FW_Inertia/branch_indesit/CFG_DishWasher/CFG_Inertia\BusCommPltf_cfg.c ****     				CP_CSM_EETYP8_ERASEFLASH(RFRemapTable)
 959                             		.loc 1 1056 0
 960 019c 59 7B 06                		movu.B	6[r7], r11
 961 019f 6C 8B                   		shll	#8, r11
 962 01a1 49 7B 05                		add	5[r7].UB, r11
 963 01a4 5F B7                   		movu.W	r11, r7
 964                             	.LVL90:
 965 01a6 3E 06 00                		mov.L	#0, 24[r0]
 966                             	.LVL91:
 967 01a9 71 0C 18                		add	#24, r0, r12
 968 01ac E3 0C                   		mov.L	r12, [r0]
 969 01ae EF 71                   		mov.L	r7, r1
 970 01b0 EF 72                   		mov.L	r7, r2
 971 01b2 FB 32 00 00 00 00       		mov.L	#_RFRemapTable, r3
 972 01b8 66 44                   		mov	#4, r4
 973 01ba 05 00 00 00             		bsr	_PP_MappingGetOffset
 974                             	.LVL92:
 975 01be 7C 71                   		btst #7, r1
 976 01c0 3B 29 04                		bne	.L211
 977 01c3 C7 0B 11                		mov.B	r11, 17[r0]
 978 01c6 FD 88 7B                		shlr	#8, r7, r11
 979 01c9 C7 0B 12                		mov.B	r11, 18[r0]
 980                             	.LVL93:
 981 01cc 66 11                   		mov.L	#1, r1
 982 01ce EF 72                   		mov.L	r7, r2
 983 01d0 06 89 02 06             		add	24[r0].L, r2
 984                             	.LVL94:
 985 01d4 05 00 00 00             		bsr	_OCFLS_REraseSync
 986                             	.LVL95:
 987 01d8 76 21 FF 00             		and #0xff, r1
 988 01dc FC DB 11                		scne.L	r1
 989 01df 84 01                   		mov.B	r1, 16[r0]
 990 01e1 3C 0A 00                		mov.B	#0, 10[r0]
 991 01e4 2E 54                   		bra	.L217
 992                             	.LVL96:
 993                             	.L112:
 994                             	.LBE59:
 995                             	.LBB60:
1057:C:/Workspace/FW_Inertia/branch_indesit/CFG_DishWasher/CFG_Inertia\BusCommPltf_cfg.c ****     			END_CP_MATCH_VAL()
1058:C:/Workspace/FW_Inertia/branch_indesit/CFG_DishWasher/CFG_Inertia\BusCommPltf_cfg.c ****     			BEGIN_CP_MATCH_VAL(PP_EE_TYPE_WRITE_FLASH)
1059:C:/Workspace/FW_Inertia/branch_indesit/CFG_DishWasher/CFG_Inertia\BusCommPltf_cfg.c ****     				CP_CSM_EETYP8_WRITEFLASH(RFRemapTable)
 996                             		.loc 1 1059 0
 997 01e6 59 7E 06                		movu.B	6[r7], r14
 998 01e9 6C 8E                   		shll	#8, r14
 999 01eb 49 7E 05                		add	5[r7].UB, r14
 1000 01ee DF EC                   		mov.W	r14, r12
 1001 01f0 5F EB                   		movu.W	r14, r11
 1002                             	.LVL97:
 1003 01f2 3E 06 00                		mov.L	#0, 24[r0]
 1004                             	.LVL98:
 1005 01f5 B1 72                   		movu.B	4[r7], r2
 1006 01f7 60 32                   		sub	#3, r2
 1007 01f9 4B E2                   		add	r14, r2
 1008 01fb 5F 22                   		movu.W	r2, r2
 1009                             	.LVL99:
 1010 01fd 47 B2                   		cmp	r11, r2
 1011 01ff 22 05 38 EF 03          		bltu	.L134
 1012 0204 71 0E 18                		add	#24, r0, r14
 1013 0207 E3 0E                   		mov.L	r14, [r0]
 1014 0209 EF B1                   		mov.L	r11, r1
 1015 020b FB 32 00 00 00 00       		mov.L	#_RFRemapTable, r3
 1016 0211 66 44                   		mov	#4, r4
 1017 0213 05 00 00 00             		bsr	_PP_MappingGetOffset
 1018                             	.LVL100:
 1019 0217 7C 71                   		btst #7, r1
 1020 0219 3B D0 03                		bne	.L211
 1021 021c C7 0C 11                		mov.B	r12, 17[r0]
 1022 021f FD 88 BC                		shlr	#8, r11, r12
 1023 0222 C7 0C 12                		mov.B	r12, 18[r0]
 1024                             	.LVL101:
 1025 0225 B1 72                   		movu.B	4[r7], r2
 1026 0227 71 71 07                		add	#7, r7, r1
 1027 022a 60 22                   		sub	#2, r2
 1028 022c EF B3                   		mov.L	r11, r3
 1029 022e 06 89 03 06             		add	24[r0].L, r3
 1030                             	.LVL102:
 1031 0232 05 00 00 00             		bsr	_OCFLS_RWriteSync
 1032                             	.LVL103:
 1033 0236 84 01                   		mov.B	r1, 16[r0]
 1034                             	.LVL104:
 1035                             		.balign 2,3,5
 1036                             	.L217:
 1037 0238 F1 00 0B                		bset #0, 11[r0].B
 1038 023b 3D 04 03                		mov.W	#3, 8[r0]
 1039 023e 71 07 10                		add	#16, r0, r7
 1040 0241 A0 0F                   		mov.L	r7, 4[r0]
 1041 0243 38 AD 03                		bra	.L134
 1042                             	.LVL105:
 1043                             	.L104:
 1044                             	.LBE60:
1060:C:/Workspace/FW_Inertia/branch_indesit/CFG_DishWasher/CFG_Inertia\BusCommPltf_cfg.c ****     			END_CP_MATCH_VAL()
1061:C:/Workspace/FW_Inertia/branch_indesit/CFG_DishWasher/CFG_Inertia\BusCommPltf_cfg.c **** #if defined(CONFIG_CP_EXTENDED_REQUESTS_ENABLED)
1062:C:/Workspace/FW_Inertia/branch_indesit/CFG_DishWasher/CFG_Inertia\BusCommPltf_cfg.c ****     			BEGIN_CP_MATCH_VAL(PP_EE_TYPE_READMEMORY_EXTENDED)
1063:C:/Workspace/FW_Inertia/branch_indesit/CFG_DishWasher/CFG_Inertia\BusCommPltf_cfg.c ****     				CP_CSM_EETYP8_EXTENDEDMEMORYREADING(ProtocolReadingAccessTable)
 1045                             		.loc 1 1063 0
 1046 0246 59 7B 04                		movu.B	4[r7], r11
 1047 0249 61 5B                   		cmp	#5, r11
 1048 024b 3B 9E 03                		bne	.L211
 1049                             	.LVL106:
 1050                             	.LBB61:
 1051 024e 59 7E 06                		movu.B	6[r7], r14
 1052 0251 62 57                   		add	#5, r7
 1053                             	.LVL107:
 1054 0253 6C 8E                   		shll	#8, r14
 1055 0255 EC 7C                   		mov.L	[r7], r12
 1056 0257 59 7B 02                		movu.B	2[r7], r11
 1057 025a 6D 0B                   		shll	#16, r11
 1058 025c 57 EB                   		or	r14, r11
 1059 025e FD 98 CE                		shlr	#24, r12, r14
 1060 0261 57 EB                   		or	r14, r11
 1061 0263 6D 8C                   		shll	#24, r12
 1062 0265 57 CB                   		or	r12, r11
 1063                             	.LVL108:
 1064 0267 59 7C 04                		movu.B	4[r7], r12
 1065                             	.LVL109:
 1066 026a DF C7                   		mov.W	r12, r7
 1067                             	.LVL110:
 1068 026c 61 0C                   		cmp	#0, r12
 1069 026e 1E                      		bne	.L145
 1070 026f FB 7A 00 01             		mov	#0x100, r7
 1071 0273 03                      		.balign 2,3,5
 1072                             	.L145:
 1073                             	.LVL111:
 1074 0274 FB 12 00 00 00 00       		mov.L	#_ProtocolReadingAccessTable, r1
 1075 027a 66 32                   		mov	#3, r2
 1076 027c EF B3                   		mov.L	r11, r3
 1077 027e DF 74                   		mov.W	r7, r4
 1078 0280 05 00 00 00             		bsr	_PP_IsAccessAllowed
 1079                             	.LVL112:
 1080 0284 7C 71                   		btst #7, r1
 1081 0286 3B 63 03                		bne	.L211
 1082 0289 91 07                   		mov.W	r7, 8[r0]
 1083 028b E7 0B 01                		mov.L	r11, 4[r0]
 1084                             	.LVL113:
 1085                             		.balign 2,3,4
 1086                             	.L218:
 1087 028e 3C 0A 00                		mov.B	#0, 10[r0]
 1088 0291 03                      		.balign 2,3,5
 1089                             	.L219:
 1090 0292 F1 00 0B                		bset #0, 11[r0].B
 1091 0295 38 5B 03                		bra	.L134
 1092                             	.LVL114:
 1093                             	.L105:
 1094                             	.LBE61:
1064:C:/Workspace/FW_Inertia/branch_indesit/CFG_DishWasher/CFG_Inertia\BusCommPltf_cfg.c **** 				END_CP_MATCH_VAL()
1065:C:/Workspace/FW_Inertia/branch_indesit/CFG_DishWasher/CFG_Inertia\BusCommPltf_cfg.c **** 				BEGIN_CP_MATCH_VAL(PP_EE_TYPE_WRITERAMMEMORY_EXTENDED)
1066:C:/Workspace/FW_Inertia/branch_indesit/CFG_DishWasher/CFG_Inertia\BusCommPltf_cfg.c **** 					CP_CSM_EETYP8_EXTENDEDRAMMEMORYWRITING(ProtocolWritingRamAccessTable)
 1095                             		.loc 1 1066 0
 1096 0298 B1 74                   		movu.B	4[r7], r4
 1097 029a 61 44                   		cmp	#4, r4
 1098 029c 24 05 38 4B 03          		bleu	.L211
 1099                             	.LVL115:
 1100                             	.LBB62:
 1101 02a1 59 7E 06                		movu.B	6[r7], r14
 1102                             	.LVL116:
 1103 02a4 6C 8E                   		shll	#8, r14
 1104                             	.LVL117:
 1105 02a6 59 7C 07                		movu.B	7[r7], r12
 1106                             	.LVL118:
 1107 02a9 6D 0C                   		shll	#16, r12
 1108                             	.LVL119:
 1109 02ab 57 CE                   		or	r12, r14
 1110 02ad 55 7E 05                		or	5[r7].UB, r14
 1111 02b0 59 7C 08                		movu.B	8[r7], r12
 1112 02b3 6D 8C                   		shll	#24, r12
 1113 02b5 FF 5B CE                		or	r12, r14, r11
 1114 02b8 FB 12 00 00 00 00       		mov.L	#_ProtocolWritingRamAccessTable, r1
 1115 02be 66 12                   		mov	#1, r2
 1116 02c0 EF B3                   		mov.L	r11, r3
 1117 02c2 60 44                   		sub	#4, r4
 1118 02c4 05 00 00 00             		bsr	_PP_IsAccessAllowed
 1119                             	.LVL120:
 1120 02c8 7C 71                   		btst #7, r1
 1121 02ca 3B 1F 03                		bne	.L211
 1122 02cd 3C 0A 00                		mov.B	#0, 10[r0]
 1123 02d0 B1 73                   		movu.B	4[r7], r3
 1124 02d2 EF B1                   		mov.L	r11, r1
 1125 02d4 71 72 09                		add	#9, r7, r2
 1126 02d7 60 43                   		sub	#4, r3
 1127                             	.LVL121:
 1128 02d9 03                      		.balign 2,3,1
 1129                             	.L216:
 1130 02da 7F 8F                   		smovf
 1131 02dc 38 14 03                		bra	.L134
 1132                             	.LVL122:
 1133                             	.L106:
 1134                             	.LBE62:
1067:C:/Workspace/FW_Inertia/branch_indesit/CFG_DishWasher/CFG_Inertia\BusCommPltf_cfg.c **** 				END_CP_MATCH_VAL()
1068:C:/Workspace/FW_Inertia/branch_indesit/CFG_DishWasher/CFG_Inertia\BusCommPltf_cfg.c **** 				BEGIN_CP_MATCH_VAL(PP_EE_TYPE_ERASEFLSMEMORY_EXTENDED)
1069:C:/Workspace/FW_Inertia/branch_indesit/CFG_DishWasher/CFG_Inertia\BusCommPltf_cfg.c **** 					CP_CSM_EETYP8_EXTENDEDFLSMEMORYERASING(ProtocolErasingAccessTable)
 1135                             		.loc 1 1069 0
 1136 02df 59 7B 04                		movu.B	4[r7], r11
 1137 02e2 61 4B                   		cmp	#4, r11
 1138 02e4 3B 05 03                		bne	.L211
 1139                             	.LVL123:
 1140                             	.LBB63:
 1141 02e7 71 7B 05                		add	#5, r7, r11
 1142 02ea 59 7E 06                		movu.B	6[r7], r14
 1143 02ed 6C 8E                   		shll	#8, r14
 1144 02ef 59 7C 07                		movu.B	7[r7], r12
 1145 02f2 6D 0C                   		shll	#16, r12
 1146 02f4 57 CE                   		or	r12, r14
 1147 02f6 59 7C 05                		movu.B	5[r7], r12
 1148 02f9 FF 57 CE                		or	r12, r14, r7
 1149                             	.LVL124:
 1150 02fc 59 BB 03                		movu.B	3[r11], r11
 1151                             	.LVL125:
 1152 02ff 6D 8B                   		shll	#24, r11
 1153 0301 57 B7                   		or	r11, r7
 1154                             	.LVL126:
 1155 0303 FB 12 00 00 00 00       		mov.L	#_ProtocolErasingAccessTable, r1
 1156 0309 66 22                   		mov	#2, r2
 1157 030b EF 73                   		mov.L	r7, r3
 1158 030d 66 14                   		mov	#1, r4
 1159 030f 05 00 00 00             		bsr	_PP_IsAccessAllowed
 1160                             	.LVL127:
 1161 0313 7C 71                   		btst #7, r1
 1162 0315 3B D4 02                		bne	.L211
 1163 0318 A0 0F                   		mov.L	r7, 4[r0]
 1164 031a 3C 0A 00                		mov.B	#0, 10[r0]
 1165 031d F1 00 0B                		bset #0, 11[r0].B
 1166 0320 66 11                   		mov.L	#1, r1
 1167 0322 EF 72                   		mov.L	r7, r2
 1168 0324 05 00 00 00             		bsr	_OCFLS_REraseSync
 1169                             	.LVL128:
 1170 0328 3D 04 05                		mov.W	#5, 8[r0]
 1171 032b 71 0B 10                		add	#16, r0, r11
 1172 032e E7 0B 01                		mov.L	r11, 4[r0]
 1173 0331 76 21 FF 00             		and #0xff, r1
 1174                             	.LVL129:
 1175 0335 FC DB 11                		scne.L	r1
 1176 0338 84 01                   		mov.B	r1, 16[r0]
 1177 033a 84 0F                   		mov.B	r7, 17[r0]
 1178 033c FD 88 7B                		shlr	#8, r7, r11
 1179 033f C7 0B 12                		mov.B	r11, 18[r0]
 1180 0342 FD 90 7B                		shlr	#16, r7, r11
 1181 0345 C7 0B 13                		mov.B	r11, 19[r0]
 1182 0348 69 87                   		shlr	#24, r7
 1183                             	.LVL130:
 1184 034a 85 07                   		mov.B	r7, 20[r0]
 1185 034c 38 A4 02                		bra	.L134
 1186                             	.LVL131:
 1187                             	.L107:
 1188                             	.LBE63:
1070:C:/Workspace/FW_Inertia/branch_indesit/CFG_DishWasher/CFG_Inertia\BusCommPltf_cfg.c **** 				END_CP_MATCH_VAL()
1071:C:/Workspace/FW_Inertia/branch_indesit/CFG_DishWasher/CFG_Inertia\BusCommPltf_cfg.c **** 				BEGIN_CP_MATCH_VAL(PP_EE_TYPE_WRITEFLSMEMORY_EXTENDED)
1072:C:/Workspace/FW_Inertia/branch_indesit/CFG_DishWasher/CFG_Inertia\BusCommPltf_cfg.c **** 					CP_CSM_EETYP8_EXTENDEDFLSMEMORYWRITING(ProtocolWritingAccessTable)
 1189                             		.loc 1 1072 0
 1190 034f 89 74                   		mov.B	4[r7], r4
 1191 0351 71 4B FF                		add	#-1, r4, r11
 1192 0354 5B BB                   		movu.B	r11, r11
 1193 0356 61 3B                   		cmp	#3, r11
 1194 0358 24 05 38 8F 02          		bleu	.L211
 1195                             	.LVL132:
 1196                             	.LBB64:
 1197 035d B1 F3                   		movu.B	6[r7], r3
 1198 035f 6C 83                   		shll	#8, r3
 1199 0361 59 7B 07                		movu.B	7[r7], r11
 1200 0364 6D 0B                   		shll	#16, r11
 1201 0366 57 3B                   		or	r3, r11
 1202 0368 55 7B 05                		or	5[r7].UB, r11
 1203 036b 59 7E 08                		movu.B	8[r7], r14
 1204 036e 6D 8E                   		shll	#24, r14
 1205 0370 57 EB                   		or	r14, r11
 1206                             	.LVL133:
 1207 0372 5B 44                   		movu.B	r4, r4
 1208 0374 FB 12 00 00 00 00       		mov.L	#_ProtocolWritingAccessTable, r1
 1209 037a 66 32                   		mov	#3, r2
 1210 037c EF B3                   		mov.L	r11, r3
 1211 037e 60 44                   		sub	#4, r4
 1212 0380 05 00 00 00             		bsr	_PP_IsAccessAllowed
 1213                             	.LVL134:
 1214 0384 7C 71                   		btst #7, r1
 1215 0386 3B 63 02                		bne	.L211
 1216 0389 E7 0B 01                		mov.L	r11, 4[r0]
 1217 038c C7 0C 0A                		mov.B	r12, 10[r0]
 1218 038f F1 00 0B                		bset #0, 11[r0].B
 1219 0392 B1 72                   		movu.B	4[r7], r2
 1220 0394 71 71 09                		add	#9, r7, r1
 1221 0397 60 42                   		sub	#4, r2
 1222 0399 EF B3                   		mov.L	r11, r3
 1223 039b 05 00 00 00             		bsr	_OCFLS_RWriteSync
 1224                             	.LVL135:
 1225 039f 3D 04 05                		mov.W	#5, 8[r0]
 1226 03a2 71 07 10                		add	#16, r0, r7
 1227                             	.LVL136:
 1228 03a5 A0 0F                   		mov.L	r7, 4[r0]
 1229 03a7 76 21 FF 00             		and #0xff, r1
 1230                             	.LVL137:
 1231 03ab FC DB 11                		scne.L	r1
 1232 03ae 84 01                   		mov.B	r1, 16[r0]
 1233 03b0 C7 0B 11                		mov.B	r11, 17[r0]
 1234 03b3 FD 88 B7                		shlr	#8, r11, r7
 1235 03b6 84 87                   		mov.B	r7, 18[r0]
 1236 03b8 FD 90 B7                		shlr	#16, r11, r7
 1237 03bb 84 8F                   		mov.B	r7, 19[r0]
 1238 03bd 69 8B                   		shlr	#24, r11
 1239                             	.LVL138:
 1240 03bf C7 0B 14                		mov.B	r11, 20[r0]
 1241 03c2 38 2E 02                		bra	.L134
 1242                             	.LVL139:
 1243                             	.L108:
 1244                             	.LBE64:
1073:C:/Workspace/FW_Inertia/branch_indesit/CFG_DishWasher/CFG_Inertia\BusCommPltf_cfg.c **** 				END_CP_MATCH_VAL()
1074:C:/Workspace/FW_Inertia/branch_indesit/CFG_DishWasher/CFG_Inertia\BusCommPltf_cfg.c **** 				BEGIN_CP_MATCH_VAL(PP_EE_TYPE_EXTENDED_IDENT_REQ)
1075:C:/Workspace/FW_Inertia/branch_indesit/CFG_DishWasher/CFG_Inertia\BusCommPltf_cfg.c **** 					CP_CSM_EETYP8_READ_APPLDATA(USE_CSM_EE_CTRL(Ctrl_IdentRequest), CPApplianceDataTable[CP_APPLDA
 1245                             		.loc 1 1075 0
 1246 03c5 FB B2 00 00 00 00       		mov.L	#_CPApplianceDataTable, r11
 1247 03cb ED B3 02                		mov.L	8[r11], r3
 1248 03ce 61 03                   		cmp	#0, r3
 1249 03d0 3A 19 02                		beq	.L211
 1250 03d3 DD BB 06                		mov.W	12[r11], r11
 1251 03d6 2E 5C                   		bra	.L226
 1252                             	.L114:
1076:C:/Workspace/FW_Inertia/branch_indesit/CFG_DishWasher/CFG_Inertia\BusCommPltf_cfg.c **** 				END_CP_MATCH_VAL()
1077:C:/Workspace/FW_Inertia/branch_indesit/CFG_DishWasher/CFG_Inertia\BusCommPltf_cfg.c **** #endif
1078:C:/Workspace/FW_Inertia/branch_indesit/CFG_DishWasher/CFG_Inertia\BusCommPltf_cfg.c **** 
1079:C:/Workspace/FW_Inertia/branch_indesit/CFG_DishWasher/CFG_Inertia\BusCommPltf_cfg.c **** 
1080:C:/Workspace/FW_Inertia/branch_indesit/CFG_DishWasher/CFG_Inertia\BusCommPltf_cfg.c **** 
1081:C:/Workspace/FW_Inertia/branch_indesit/CFG_DishWasher/CFG_Inertia\BusCommPltf_cfg.c ****     		    
1082:C:/Workspace/FW_Inertia/branch_indesit/CFG_DishWasher/CFG_Inertia\BusCommPltf_cfg.c ****     		    BEGIN_CP_MATCH_VAL(PP_EE_TYPE_SYSTEMMODE)
1083:C:/Workspace/FW_Inertia/branch_indesit/CFG_DishWasher/CFG_Inertia\BusCommPltf_cfg.c ****     				CP_CSM_EETYP8_CUSTUMFUNC(USE_CSM_EE_CUSTOM_FUNC(EE_SystemMode))
 1253                             		.loc 1 1083 0
 1254 03d8 CF A1                   		mov.B	r10, r1
 1255 03da 71 72 05                		add	#5, r7, r2
 1256 03dd 89 73                   		mov.B	4[r7], r3
 1257 03df 66 44                   		mov.L	#4, r4
 1258 03e1 4B 04                   		add	r0, r4
 1259 03e3 05 00 00 00             		bsr	_CMS_EE_FUNC_EE_SystemMode
 1260                             	.LVL140:
 1261 03e7 38 09 02                		bra	.L134
 1262                             	.L113:
1084:C:/Workspace/FW_Inertia/branch_indesit/CFG_DishWasher/CFG_Inertia\BusCommPltf_cfg.c ****     			END_CP_MATCH_VAL()
1085:C:/Workspace/FW_Inertia/branch_indesit/CFG_DishWasher/CFG_Inertia\BusCommPltf_cfg.c ****     			
1086:C:/Workspace/FW_Inertia/branch_indesit/CFG_DishWasher/CFG_Inertia\BusCommPltf_cfg.c ****     			BEGIN_CP_MATCH_VAL(PP_EE_TYPE_LOADS)
1087:C:/Workspace/FW_Inertia/branch_indesit/CFG_DishWasher/CFG_Inertia\BusCommPltf_cfg.c ****     				CP_CSM_EETYP8_CUSTUMFUNC(USE_CSM_EE_CUSTOM_FUNC(EE_SetLoads))
 1263                             		.loc 1 1087 0
 1264 03ea CF A1                   		mov.B	r10, r1
 1265 03ec 71 72 05                		add	#5, r7, r2
 1266 03ef 89 73                   		mov.B	4[r7], r3
 1267 03f1 66 44                   		mov.L	#4, r4
 1268 03f3 4B 04                   		add	r0, r4
 1269 03f5 05 00 00 00             		bsr	_CMS_EE_FUNC_EE_SetLoads
 1270                             	.LVL141:
 1271 03f9 38 F7 01                		bra	.L134
 1272                             	.L109:
1088:C:/Workspace/FW_Inertia/branch_indesit/CFG_DishWasher/CFG_Inertia\BusCommPltf_cfg.c ****     			END_CP_MATCH_VAL()
1089:C:/Workspace/FW_Inertia/branch_indesit/CFG_DishWasher/CFG_Inertia\BusCommPltf_cfg.c ****     		    
1090:C:/Workspace/FW_Inertia/branch_indesit/CFG_DishWasher/CFG_Inertia\BusCommPltf_cfg.c ****     		    /* Application */
1091:C:/Workspace/FW_Inertia/branch_indesit/CFG_DishWasher/CFG_Inertia\BusCommPltf_cfg.c ****     		    BEGIN_CP_MATCH_VAL(PP_EE_TYPE_IDENT)
1092:C:/Workspace/FW_Inertia/branch_indesit/CFG_DishWasher/CFG_Inertia\BusCommPltf_cfg.c ****     			    CP_CSM_EETYP8_READ_APPLDATA(USE_CSM_EE_CTRL(Ctrl_IdentRequest), CPApplianceDataTable[CP_
 1273                             		.loc 1 1092 0
 1274 03fc FB B2 00 00 00 00       		mov.L	#_CPApplianceDataTable, r11
 1275 0402 EC B3                   		mov.L	[r11], r3
 1276 0404 61 03                   		cmp	#0, r3
 1277 0406 3A E3 01                		beq	.L211
 1278 0409 DD BB 02                		mov.W	4[r11], r11
 1279 040c 2E 26                   		bra	.L226
 1280                             	.L115:
1093:C:/Workspace/FW_Inertia/branch_indesit/CFG_DishWasher/CFG_Inertia\BusCommPltf_cfg.c ****     			END_CP_MATCH_VAL()
1094:C:/Workspace/FW_Inertia/branch_indesit/CFG_DishWasher/CFG_Inertia\BusCommPltf_cfg.c ****     			
1095:C:/Workspace/FW_Inertia/branch_indesit/CFG_DishWasher/CFG_Inertia\BusCommPltf_cfg.c ****     			BEGIN_CP_MATCH_VAL(PP_EE_TYPE_READ_STATUS)
1096:C:/Workspace/FW_Inertia/branch_indesit/CFG_DishWasher/CFG_Inertia\BusCommPltf_cfg.c ****     			    CP_CSM_EETYP8_READ_APPLDATA(USE_CSM_EE_CTRL(Ctrl_StatusRequest), CPApplianceDataTable[CP
 1281                             		.loc 1 1096 0
 1282 040e FB B2 00 00 00 00       		mov.L	#_CPApplianceDataTable, r11
 1283 0414 ED B3 04                		mov.L	16[r11], r3
 1284 0417 61 03                   		cmp	#0, r3
 1285 0419 3A D0 01                		beq	.L211
 1286 041c DD BB 0A                		mov.W	20[r11], r11
 1287 041f 2E 13                   		bra	.L226
 1288                             	.L117:
 1289                             	.LBB65:
 1290                             	.LBB66:
1025:C:/Workspace/FW_Inertia/branch_indesit/CFG_DishWasher/CFG_Inertia\BusCommPltf_cfg.c ****     if(FALSE == CBF_OnReadRegulations() )
 1291                             		.loc 1 1025 0
 1292 0421 05 00 00 00             		bsr	_CBF_OnReadRegulations
 1293                             	.LVL142:
 1294 0425 76 21 FF 00             		and #0xff, r1
 1295 0429 3A C0 01                		beq	.L211
 1296 042c 38 E4 01                		bra	.L209
 1297                             	.L213:
 1298                             	.LBE66:
 1299                             	.LBE65:
1097:C:/Workspace/FW_Inertia/branch_indesit/CFG_DishWasher/CFG_Inertia\BusCommPltf_cfg.c ****     			END_CP_MATCH_VAL()
1098:C:/Workspace/FW_Inertia/branch_indesit/CFG_DishWasher/CFG_Inertia\BusCommPltf_cfg.c ****     			
1099:C:/Workspace/FW_Inertia/branch_indesit/CFG_DishWasher/CFG_Inertia\BusCommPltf_cfg.c ****     			BEGIN_CP_MATCH_VAL(PP_EE_TYPE_READ_REGS)
1100:C:/Workspace/FW_Inertia/branch_indesit/CFG_DishWasher/CFG_Inertia\BusCommPltf_cfg.c ****     			    CP_CSM_EETYP8_READ_APPLDATA(USE_CSM_EE_CTRL(Ctrl_ReadRegsRequest), CPApplianceDataTable[
 1300                             		.loc 1 1100 0
 1301 042f DD BB 0E                		mov.W	28[r11], r11
 1302                             		.balign 2,3,1
 1303                             	.L226:
 1304 0432 5F BC                   		movu.W	r11, r12
 1305 0434 61 0C                   		cmp	#0, r12
 1306 0436 1C                      		bne	.L161
 1307 0437 38 B2 01                		bra	.L211
 1308                             	.L161:
 1309 043a D3 0B                   		mov.W	r11, [r0]
 1310 043c 66 51                   		mov	#5, r1
 1311 043e EF 72                   		mov.L	r7, r2
 1312 0440 66 44                   		mov.L	#4, r4
 1313 0442 4B 04                   		add	r0, r4
 1314 0444 05 00 00 00             		bsr	_CP_SlaveManager__Read_ApplData
 1315                             	.LVL143:
 1316 0448 38 A8 01                		bra	.L134
 1317                             	.L116:
 1318                             	.LBB67:
 1319                             	.LBB68:
1004:C:/Workspace/FW_Inertia/branch_indesit/CFG_DishWasher/CFG_Inertia\BusCommPltf_cfg.c **** 	if(CBF_OnWriteRegulations() == FALSE)
 1320                             		.loc 1 1004 0
 1321 044b 05 00 00 00             		bsr	_CBF_OnWriteRegulations
 1322                             	.LVL144:
 1323 044f 76 21 FF 00             		and #0xff, r1
 1324 0453 3A 96 01                		beq	.L211
 1325 0456 38 CA 01                		bra	.L210
 1326                             	.L214:
 1327                             	.LBE68:
 1328                             	.LBE67:
1101:C:/Workspace/FW_Inertia/branch_indesit/CFG_DishWasher/CFG_Inertia\BusCommPltf_cfg.c ****     			END_CP_MATCH_VAL()
1102:C:/Workspace/FW_Inertia/branch_indesit/CFG_DishWasher/CFG_Inertia\BusCommPltf_cfg.c ****     			
1103:C:/Workspace/FW_Inertia/branch_indesit/CFG_DishWasher/CFG_Inertia\BusCommPltf_cfg.c ****     			BEGIN_CP_MATCH_VAL(PP_EE_TYPE_WRITE_REGS)
1104:C:/Workspace/FW_Inertia/branch_indesit/CFG_DishWasher/CFG_Inertia\BusCommPltf_cfg.c ****     			    CP_CSM_EETYP8_WRITE_APPLDATA(USE_CSM_EE_CTRL(Ctrl_WriteRegsRequest), CPApplianceDataTabl
 1329                             		.loc 1 1104 0
 1330 0459 FB C2 00 00 00 00       		mov.L	#_CPApplianceDataTable, r12
 1331 045f 5D BB 12                		movu.W	36[r11], r11
 1332 0462 61 0B                   		cmp	#0, r11
 1333 0464 3A 85 01                		beq	.L211
 1334 0467 59 7E 04                		movu.B	4[r7], r14
 1335 046a 47 BE                   		cmp	r11, r14
 1336 046c 25 05                   		bleu	.L164
 1337 046e 38 7B 01                		bra	.L211
 1338                             	.L164:
 1339 0471 05 00 00 00             		bsr	_UseRegs
 1340                             	.LVL145:
 1341 0475 ED C3 08                		mov.L	32[r12], r3
 1342 0478 D1 C0 12                		mov.W	36[r12], [r0]
 1343 047b 66 41                   		mov	#4, r1
 1344 047d EF 72                   		mov.L	r7, r2
 1345 047f 66 44                   		mov.L	#4, r4
 1346 0481 4B 04                   		add	r0, r4
 1347 0483 05 00 00 00             		bsr	_CP_SlaveManager__Write_ApplData
 1348                             	.LVL146:
 1349 0487 05 00 00 00             		bsr	_UnuseRegs
 1350                             	.LVL147:
 1351 048b 38 65 01                		bra	.L134
 1352                             	.L118:
1105:C:/Workspace/FW_Inertia/branch_indesit/CFG_DishWasher/CFG_Inertia\BusCommPltf_cfg.c ****     			END_CP_MATCH_VAL()
1106:C:/Workspace/FW_Inertia/branch_indesit/CFG_DishWasher/CFG_Inertia\BusCommPltf_cfg.c ****     			
1107:C:/Workspace/FW_Inertia/branch_indesit/CFG_DishWasher/CFG_Inertia\BusCommPltf_cfg.c ****     			BEGIN_CP_MATCH_VAL(PP_EE_TYPE_WRITE_UIINFO)
1108:C:/Workspace/FW_Inertia/branch_indesit/CFG_DishWasher/CFG_Inertia\BusCommPltf_cfg.c ****     			    CP_CSM_EETYP8_WRITE_APPLDATA(USE_CSM_EE_CTRL(Ctrl_WriteUIInfoRequest), CPApplianceDataTa
 1353                             		.loc 1 1108 0
 1354 048e FB B2 00 00 00 00       		mov.L	#_CPApplianceDataTable, r11
 1355 0494 ED BC 0A                		mov.L	40[r11], r12
 1356 0497 61 0C                   		cmp	#0, r12
 1357 0499 3A 50 01                		beq	.L211
 1358 049c 5D BC 16                		movu.W	44[r11], r12
 1359 049f 61 0C                   		cmp	#0, r12
 1360 04a1 3A 48 01                		beq	.L211
 1361 04a4 59 7E 04                		movu.B	4[r7], r14
 1362 04a7 47 CE                   		cmp	r12, r14
 1363 04a9 25 05                   		bleu	.L166
 1364 04ab 38 3E 01                		bra	.L211
 1365                             	.L166:
 1366 04ae 05 00 00 00             		bsr	_UseUiInfo
 1367                             	.LVL148:
 1368 04b2 ED B3 0A                		mov.L	40[r11], r3
 1369 04b5 D1 B0 16                		mov.W	44[r11], [r0]
 1370 04b8 66 41                   		mov	#4, r1
 1371 04ba EF 72                   		mov.L	r7, r2
 1372 04bc 66 44                   		mov.L	#4, r4
 1373 04be 4B 04                   		add	r0, r4
 1374 04c0 05 00 00 00             		bsr	_CP_SlaveManager__Write_ApplData
 1375                             	.LVL149:
 1376 04c4 05 00 00 00             		bsr	_UnuseUiInfo
 1377                             	.LVL150:
 1378 04c8 38 28 01                		bra	.L134
 1379                             	.L122:
1109:C:/Workspace/FW_Inertia/branch_indesit/CFG_DishWasher/CFG_Inertia\BusCommPltf_cfg.c ****     			END_CP_MATCH_VAL()
1110:C:/Workspace/FW_Inertia/branch_indesit/CFG_DishWasher/CFG_Inertia\BusCommPltf_cfg.c ****                           
1111:C:/Workspace/FW_Inertia/branch_indesit/CFG_DishWasher/CFG_Inertia\BusCommPltf_cfg.c **** #if defined(CONFIG_LIB_EXTERNAL_BOARD_SUPPORT)
1112:C:/Workspace/FW_Inertia/branch_indesit/CFG_DishWasher/CFG_Inertia\BusCommPltf_cfg.c **** 				BEGIN_CP_MATCH_VAL(PP_EE_TYPE_DSP_READ_EXT_RAM)
1113:C:/Workspace/FW_Inertia/branch_indesit/CFG_DishWasher/CFG_Inertia\BusCommPltf_cfg.c **** 					CP_CSM_EETYP8_CUSTUMFUNC(USE_CSM_EE_CUSTOM_FUNC(Ctrl_DspReadRamRequest))
 1380                             		.loc 1 1113 0
 1381 04cb CF A1                   		mov.B	r10, r1
 1382 04cd 71 72 05                		add	#5, r7, r2
 1383 04d0 89 73                   		mov.B	4[r7], r3
 1384 04d2 66 44                   		mov.L	#4, r4
 1385 04d4 4B 04                   		add	r0, r4
 1386 04d6 05 00 00 00             		bsr	_CMS_EE_FUNC_Ctrl_DspReadRamRequest
 1387                             	.LVL151:
 1388 04da 38 16 01                		bra	.L134
 1389                             	.L123:
1114:C:/Workspace/FW_Inertia/branch_indesit/CFG_DishWasher/CFG_Inertia\BusCommPltf_cfg.c ****     			END_CP_MATCH_VAL()
1115:C:/Workspace/FW_Inertia/branch_indesit/CFG_DishWasher/CFG_Inertia\BusCommPltf_cfg.c ****                           
1116:C:/Workspace/FW_Inertia/branch_indesit/CFG_DishWasher/CFG_Inertia\BusCommPltf_cfg.c ****                 BEGIN_CP_MATCH_VAL(PP_EE_TYPE_DSP_WRITE_EXT_RAM)
1117:C:/Workspace/FW_Inertia/branch_indesit/CFG_DishWasher/CFG_Inertia\BusCommPltf_cfg.c ****                 	CP_CSM_EETYP8_CUSTUMFUNC(USE_CSM_EE_CUSTOM_FUNC(Ctrl_DspWriteRamRequest))
 1390                             		.loc 1 1117 0
 1391 04dd CF A1                   		mov.B	r10, r1
 1392 04df 71 72 05                		add	#5, r7, r2
 1393 04e2 89 73                   		mov.B	4[r7], r3
 1394 04e4 66 44                   		mov.L	#4, r4
 1395 04e6 4B 04                   		add	r0, r4
 1396 04e8 05 00 00 00             		bsr	_CMS_EE_FUNC_Ctrl_DspWriteRamRequest
 1397                             	.LVL152:
 1398 04ec 38 04 01                		bra	.L134
 1399                             	.L119:
1118:C:/Workspace/FW_Inertia/branch_indesit/CFG_DishWasher/CFG_Inertia\BusCommPltf_cfg.c ****     			END_CP_MATCH_VAL()
1119:C:/Workspace/FW_Inertia/branch_indesit/CFG_DishWasher/CFG_Inertia\BusCommPltf_cfg.c ****                         
1120:C:/Workspace/FW_Inertia/branch_indesit/CFG_DishWasher/CFG_Inertia\BusCommPltf_cfg.c ****                 BEGIN_CP_MATCH_VAL(PP_EE_TYPE_DSP_EXTRA_REQ_RAM)
1121:C:/Workspace/FW_Inertia/branch_indesit/CFG_DishWasher/CFG_Inertia\BusCommPltf_cfg.c ****                 	CP_CSM_EETYP8_CUSTUMFUNC(USE_CSM_EE_CUSTOM_FUNC(Ctrl_DspExtraRequest))
 1400                             		.loc 1 1121 0
 1401 04ef CF A1                   		mov.B	r10, r1
 1402 04f1 71 72 05                		add	#5, r7, r2
 1403 04f4 89 73                   		mov.B	4[r7], r3
 1404 04f6 66 44                   		mov.L	#4, r4
 1405 04f8 4B 04                   		add	r0, r4
 1406 04fa 05 00 00 00             		bsr	_CMS_EE_FUNC_Ctrl_DspExtraRequest
 1407                             	.LVL153:
 1408 04fe 38 F2 00                		bra	.L134
 1409                             	.L121:
1122:C:/Workspace/FW_Inertia/branch_indesit/CFG_DishWasher/CFG_Inertia\BusCommPltf_cfg.c ****     			END_CP_MATCH_VAL()
1123:C:/Workspace/FW_Inertia/branch_indesit/CFG_DishWasher/CFG_Inertia\BusCommPltf_cfg.c **** 
1124:C:/Workspace/FW_Inertia/branch_indesit/CFG_DishWasher/CFG_Inertia\BusCommPltf_cfg.c ****                 BEGIN_CP_MATCH_VAL(PP_EE_TYPE_DSP_INFO_WRITE)
1125:C:/Workspace/FW_Inertia/branch_indesit/CFG_DishWasher/CFG_Inertia\BusCommPltf_cfg.c ****                 	CP_CSM_EETYP8_CUSTUMFUNC(USE_CSM_EE_CUSTOM_FUNC(Ctrl_InfoDspRequest))
 1410                             		.loc 1 1125 0
 1411 0501 CF A1                   		mov.B	r10, r1
 1412 0503 71 72 05                		add	#5, r7, r2
 1413 0506 89 73                   		mov.B	4[r7], r3
 1414 0508 66 44                   		mov.L	#4, r4
 1415 050a 4B 04                   		add	r0, r4
 1416 050c 05 00 00 00             		bsr	_CMS_EE_FUNC_Ctrl_InfoDspRequest
 1417                             	.LVL154:
 1418 0510 38 E0 00                		bra	.L134
 1419                             	.L120:
1126:C:/Workspace/FW_Inertia/branch_indesit/CFG_DishWasher/CFG_Inertia\BusCommPltf_cfg.c ****     			END_CP_MATCH_VAL()
1127:C:/Workspace/FW_Inertia/branch_indesit/CFG_DishWasher/CFG_Inertia\BusCommPltf_cfg.c ****                         
1128:C:/Workspace/FW_Inertia/branch_indesit/CFG_DishWasher/CFG_Inertia\BusCommPltf_cfg.c ****                 BEGIN_CP_MATCH_VAL(PP_EE_TYPE_DSP_CMD_READ)
1129:C:/Workspace/FW_Inertia/branch_indesit/CFG_DishWasher/CFG_Inertia\BusCommPltf_cfg.c ****                 	CP_CSM_EETYP8_CUSTUMFUNC(USE_CSM_EE_CUSTOM_FUNC(Ctrl_CmdDspRequest))
 1420                             		.loc 1 1129 0
 1421 0513 CF A1                   		mov.B	r10, r1
 1422 0515 71 72 05                		add	#5, r7, r2
 1423 0518 89 73                   		mov.B	4[r7], r3
 1424 051a 66 44                   		mov.L	#4, r4
 1425 051c 4B 04                   		add	r0, r4
 1426 051e 05 00 00 00             		bsr	_CMS_EE_FUNC_Ctrl_CmdDspRequest
 1427                             	.LVL155:
 1428 0522 38 CE 00                		bra	.L134
 1429                             	.L124:
1130:C:/Workspace/FW_Inertia/branch_indesit/CFG_DishWasher/CFG_Inertia\BusCommPltf_cfg.c ****     			END_CP_MATCH_VAL()
1131:C:/Workspace/FW_Inertia/branch_indesit/CFG_DishWasher/CFG_Inertia\BusCommPltf_cfg.c **** 
1132:C:/Workspace/FW_Inertia/branch_indesit/CFG_DishWasher/CFG_Inertia\BusCommPltf_cfg.c **** #endif /* defined(CONFIG_LIB_EXTERNAL_BOARD_SUPPORT) */
1133:C:/Workspace/FW_Inertia/branch_indesit/CFG_DishWasher/CFG_Inertia\BusCommPltf_cfg.c **** 
1134:C:/Workspace/FW_Inertia/branch_indesit/CFG_DishWasher/CFG_Inertia\BusCommPltf_cfg.c **** #if defined(CONFIG_PM_POWER_PROFILE_SUPPORT)
1135:C:/Workspace/FW_Inertia/branch_indesit/CFG_DishWasher/CFG_Inertia\BusCommPltf_cfg.c ****     			BEGIN_CP_MATCH_VAL(PP_EE_TYPE_REQ_APPL_POWER_PROFILE)
1136:C:/Workspace/FW_Inertia/branch_indesit/CFG_DishWasher/CFG_Inertia\BusCommPltf_cfg.c ****     				CP_CSM_EETYP8_CUSTUMFUNC(USE_CSM_EE_CUSTOM_FUNC(EE_PowerProfileReq))
 1430                             		.loc 1 1136 0
 1431 0525 CF A1                   		mov.B	r10, r1
 1432 0527 71 72 05                		add	#5, r7, r2
 1433 052a 89 73                   		mov.B	4[r7], r3
 1434 052c 66 44                   		mov.L	#4, r4
 1435 052e 4B 04                   		add	r0, r4
 1436 0530 05 00 00 00             		bsr	_CMS_EE_FUNC_EE_PowerProfileReq
 1437                             	.LVL156:
 1438 0534 38 BC 00                		bra	.L134
 1439                             	.L125:
1137:C:/Workspace/FW_Inertia/branch_indesit/CFG_DishWasher/CFG_Inertia\BusCommPltf_cfg.c ****     			END_CP_MATCH_VAL()
1138:C:/Workspace/FW_Inertia/branch_indesit/CFG_DishWasher/CFG_Inertia\BusCommPltf_cfg.c **** #endif /* CONFIG_PM_POWER_PROFILE_SUPPORT */
1139:C:/Workspace/FW_Inertia/branch_indesit/CFG_DishWasher/CFG_Inertia\BusCommPltf_cfg.c **** #if defined(CONFIG_PM_ENERGY_METER_SW)
1140:C:/Workspace/FW_Inertia/branch_indesit/CFG_DishWasher/CFG_Inertia\BusCommPltf_cfg.c ****     			BEGIN_CP_MATCH_VAL(PP_EE_TYPE_REQ_APPL_READPOWERMETER)
1141:C:/Workspace/FW_Inertia/branch_indesit/CFG_DishWasher/CFG_Inertia\BusCommPltf_cfg.c **** 					CP_CSM_EETYP8_CUSTUMFUNC(USE_CSM_EE_CUSTOM_FUNC(EE_ReadPowerMeter))
 1440                             		.loc 1 1141 0
 1441 0537 CF A1                   		mov.B	r10, r1
 1442 0539 71 72 05                		add	#5, r7, r2
 1443 053c 89 73                   		mov.B	4[r7], r3
 1444 053e 66 44                   		mov.L	#4, r4
 1445 0540 4B 04                   		add	r0, r4
 1446 0542 05 00 00 00             		bsr	_CMS_EE_FUNC_EE_ReadPowerMeter
 1447                             	.LVL157:
 1448 0546 38 AA 00                		bra	.L134
 1449                             	.L100:
1142:C:/Workspace/FW_Inertia/branch_indesit/CFG_DishWasher/CFG_Inertia\BusCommPltf_cfg.c **** 				END_CP_MATCH_VAL()
1143:C:/Workspace/FW_Inertia/branch_indesit/CFG_DishWasher/CFG_Inertia\BusCommPltf_cfg.c **** #endif /*defined(CONFIG_PM_ENERGY_METER_SW)*/
1144:C:/Workspace/FW_Inertia/branch_indesit/CFG_DishWasher/CFG_Inertia\BusCommPltf_cfg.c **** 
1145:C:/Workspace/FW_Inertia/branch_indesit/CFG_DishWasher/CFG_Inertia\BusCommPltf_cfg.c **** 			END_CP_SLAVEMANAGER__REQ_FILTER()
1146:C:/Workspace/FW_Inertia/branch_indesit/CFG_DishWasher/CFG_Inertia\BusCommPltf_cfg.c ****         }
1147:C:/Workspace/FW_Inertia/branch_indesit/CFG_DishWasher/CFG_Inertia\BusCommPltf_cfg.c ****         else
1148:C:/Workspace/FW_Inertia/branch_indesit/CFG_DishWasher/CFG_Inertia\BusCommPltf_cfg.c ****         {
1149:C:/Workspace/FW_Inertia/branch_indesit/CFG_DishWasher/CFG_Inertia\BusCommPltf_cfg.c ****             BEGIN_CP_SLAVEMANAGER__REQ_FILTER_BSTYP8_TYPE() 
 1450                             		.loc 1 1149 0
 1451 0549 EF BE                   		mov.L	r11, r14
 1452 054b 76 2E F0 00             		and #0xf0, r14
 1453 054f 75 5E 20                		cmp	#32, r14
 1454 0552 20 20                   		beq	.L169
 1455 0554 75 5E 50                		cmp	#0x50, r14
 1456 0557 11                      		beq	.L170
 1457 0558 75 5E 10                		cmp	#16, r14
 1458 055b 3B 8E 00                		bne	.L211
 1459 055e 2E 46                   		bra	.L168
 1460                             	.L170:
1150:C:/Workspace/FW_Inertia/branch_indesit/CFG_DishWasher/CFG_Inertia\BusCommPltf_cfg.c ****                 BEGIN_CP_MATCH_VAL(PP_BS_TYPE_LOADS)
1151:C:/Workspace/FW_Inertia/branch_indesit/CFG_DishWasher/CFG_Inertia\BusCommPltf_cfg.c ****     				CP_CSM_BSTYP8_CUSTUMFUNC(USE_CSM_EE_CUSTOM_FUNC(BS_SetLoads))
 1461                             		.loc 1 1151 0
 1462 0560 CF A1                   		mov.B	r10, r1
 1463 0562 71 72 02                		add	#2, r7, r2
 1464 0565 66 33                   		mov	#3, r3
 1465 0567 66 44                   		mov.L	#4, r4
 1466 0569 4B 04                   		add	r0, r4
 1467 056b 05 00 00 00             		bsr	_CMS_EE_FUNC_BS_SetLoads
 1468                             	.LVL158:
 1469 056f 38 81 00                		bra	.L134
 1470                             	.L169:
 1471                             	.LVL159:
 1472                             	.LBB69:
1152:C:/Workspace/FW_Inertia/branch_indesit/CFG_DishWasher/CFG_Inertia\BusCommPltf_cfg.c ****     			END_CP_MATCH_VAL()
1153:C:/Workspace/FW_Inertia/branch_indesit/CFG_DishWasher/CFG_Inertia\BusCommPltf_cfg.c ****     			BEGIN_CP_MATCH_VAL(PP_BS_TYPE_WRITE_RAM)
1154:C:/Workspace/FW_Inertia/branch_indesit/CFG_DishWasher/CFG_Inertia\BusCommPltf_cfg.c ****     				CP_CSM_BS_WRITERAM(WRRemapTable)
 1473                             		.loc 1 1154 0
 1474 0572 59 7C 04                		movu.B	4[r7], r12
 1475 0575 6C CC                   		shll	#12, r12
 1476 0577 55 7C 02                		or	2[r7].UB, r12
 1477 057a 64 FB                   		and #15, r11
 1478                             	.LVL160:
 1479 057c 6C 8B                   		shll	#8, r11
 1480 057e 57 CB                   		or	r12, r11
 1481 0580 5F BB                   		movu.W	r11, r11
 1482 0582 71 0C 18                		add	#24, r0, r12
 1483 0585 E3 0C                   		mov.L	r12, [r0]
 1484 0587 EF B1                   		mov.L	r11, r1
 1485 0589 EF B2                   		mov.L	r11, r2
 1486 058b FB 32 00 00 00 00       		mov.L	#_WRRemapTable, r3
 1487 0591 66 14                   		mov	#1, r4
 1488 0593 05 00 00 00             		bsr	_PP_MappingGetOffset
 1489                             	.LVL161:
 1490 0597 7C 71                   		btst #7, r1
 1491 0599 21 57                   		bne	.L134
 1492                             	.LVL162:
 1493 059b 06 89 0B 06             		add	24[r0].L, r11
 1494 059f C1 7B 03                		mov.B	3[r7], [r11]
 1495 05a2 2E 4E                   		bra	.L134
 1496                             	.LVL163:
 1497                             	.L168:
 1498                             	.LBE69:
 1499                             	.LBB70:
1155:C:/Workspace/FW_Inertia/branch_indesit/CFG_DishWasher/CFG_Inertia\BusCommPltf_cfg.c ****     			END_CP_MATCH_VAL()
1156:C:/Workspace/FW_Inertia/branch_indesit/CFG_DishWasher/CFG_Inertia\BusCommPltf_cfg.c ****     			BEGIN_CP_MATCH_VAL(PP_BS_TYPE_READ_RAM)
1157:C:/Workspace/FW_Inertia/branch_indesit/CFG_DishWasher/CFG_Inertia\BusCommPltf_cfg.c ****     				CP_CSM_BS_READRAM(RFRemapTable)
 1500                             		.loc 1 1157 0
 1501 05a4 3E 06 00                		mov.L	#0, 24[r0]
 1502                             	.LVL164:
 1503 05a7 CD 7C 02                		mov.B	2[r7], r12
 1504                             	.LVL165:
 1505 05aa B1 71                   		movu.B	4[r7], r1
 1506 05ac 6C C1                   		shll	#12, r1
 1507 05ae 5B CE                   		movu.B	r12, r14
 1508 05b0 57 E1                   		or	r14, r1
 1509 05b2 64 FB                   		and #15, r11
 1510                             	.LVL166:
 1511 05b4 6C 8B                   		shll	#8, r11
 1512 05b6 57 B1                   		or	r11, r1
 1513                             	.LVL167:
 1514 05b8 88 FA                   		mov.B	3[r7], r2
 1515 05ba 43 C2                   		sub	r12, r2
 1516 05bc 5B 22                   		movu.B	r2, r2
 1517 05be 91 02                   		mov.W	r2, 8[r0]
 1518 05c0 5F 11                   		movu.W	r1, r1
 1519 05c2 A0 09                   		mov.L	r1, 4[r0]
 1520 05c4 71 07 18                		add	#24, r0, r7
 1521                             	.LVL168:
 1522 05c7 E3 07                   		mov.L	r7, [r0]
 1523 05c9 4B 12                   		add	r1, r2
 1524 05cb FB 32 00 00 00 00       		mov.L	#_RFRemapTable, r3
 1525 05d1 66 44                   		mov	#4, r4
 1526 05d3 05 00 00 00             		bsr	_PP_MappingGetOffset
 1527                             	.LVL169:
 1528 05d7 99 07                   		mov.W	8[r0], r7
 1529 05d9 62 17                   		add	#1, r7
 1530 05db 91 07                   		mov.W	r7, 8[r0]
 1531                             	.LVL170:
 1532 05dd 03                      		.balign 2,3,1
 1533                             	.L220:
 1534 05de A8 0F                   		mov.L	4[r0], r7
 1535 05e0 06 89 07 06             		add	24[r0].L, r7
 1536 05e4 A0 0F                   		mov.L	r7, 4[r0]
 1537 05e6 38 A8 FC                		bra	.L218
 1538                             	.LVL171:
 1539                             	.L211:
 1540                             	.LBE70:
1158:C:/Workspace/FW_Inertia/branch_indesit/CFG_DishWasher/CFG_Inertia\BusCommPltf_cfg.c ****     			END_CP_MATCH_VAL()
1159:C:/Workspace/FW_Inertia/branch_indesit/CFG_DishWasher/CFG_Inertia\BusCommPltf_cfg.c ****             END_CP_SLAVEMANAGER__REQ_FILTER()
 1541                             		.loc 1 1159 0
 1542 05e9 3C 0A 13                		mov.B	#19, 10[r0]
 1543 05ec 0C                      		bra	.L134
 1544                             	.LVL172:
 1545                             	.L99:
1160:C:/Workspace/FW_Inertia/branch_indesit/CFG_DishWasher/CFG_Inertia\BusCommPltf_cfg.c ****         }
1161:C:/Workspace/FW_Inertia/branch_indesit/CFG_DishWasher/CFG_Inertia\BusCommPltf_cfg.c ****         
1162:C:/Workspace/FW_Inertia/branch_indesit/CFG_DishWasher/CFG_Inertia\BusCommPltf_cfg.c **** END_CP_SLAVEMANAGER()
 1546                             		.loc 1 1162 0
 1547 05ed 3C 0A 1C                		mov.B	#28, 10[r0]
 1548                             	.LVL173:
 1549                             		.balign 2,3,5
 1550                             	.L134:
 1551 05f0 8A 81                   		mov.B	10[r0], r1
 1552 05f2 5B 17                   		movu.B	r1, r7
 1553 05f4 61 27                   		cmp	#2, r7
 1554 05f6 20 16                   		beq	.L172
 1555 05f8 CF A1                   		mov.B	r10, r1
 1556 05fa A8 0A                   		mov.L	4[r0], r2
 1557 05fc A8 83                   		mov.L	8[r0], r3
 1558 05fe A8 8C                   		mov.L	12[r0], r4
 1559 0600 05 00 00 00             		bsr	_PP_SlaveResponseBuilder
 1560                             	.LVL174:
 1561 0604 CF A1                   		mov.B	r10, r1
 1562 0606 05 00 00 00             		bsr	_PP_SlaveStartResponse
 1563                             	.LVL175:
 1564 060a 8A 81                   		mov.B	10[r0], r1
 1565                             		.balign 2,3,1
 1566                             	.L172:
 1567 060c 5B 11                   		movu.B	r1, r1
 1568 060e 2E 22                   		bra	.L212
 1569                             	.LVL176:
 1570                             	.L209:
1100:C:/Workspace/FW_Inertia/branch_indesit/CFG_DishWasher/CFG_Inertia\BusCommPltf_cfg.c ****     			    CP_CSM_EETYP8_READ_APPLDATA(USE_CSM_EE_CTRL(Ctrl_ReadRegsRequest), CPApplianceDataTable[
 1571                             		.loc 1 1100 0
 1572 0610 FB B2 00 00 00 00       		mov.L	#_CPApplianceDataTable, r11
 1573 0616 ED B3 06                		mov.L	24[r11], r3
 1574 0619 61 03                   		cmp	#0, r3
 1575 061b 3B 14 FE                		bne	.L213
 1576 061e 2E CB                   		bra	.L211
 1577                             	.L210:
1104:C:/Workspace/FW_Inertia/branch_indesit/CFG_DishWasher/CFG_Inertia\BusCommPltf_cfg.c ****     			    CP_CSM_EETYP8_WRITE_APPLDATA(USE_CSM_EE_CTRL(Ctrl_WriteRegsRequest), CPApplianceDataTabl
 1578                             		.loc 1 1104 0
 1579 0620 FB B2 00 00 00 00       		mov.L	#_CPApplianceDataTable, r11
 1580 0626 ED BC 08                		mov.L	32[r11], r12
 1581 0629 61 0C                   		cmp	#0, r12
 1582 062b 3B 2E FE                		bne	.L214
 1583 062e 2E BB                   		bra	.L211
 1584                             	.LVL177:
 1585                             	.L212:
 1586                             		.loc 1 1162 0
 1587 0630 3F 7C 0D                		rtsd	#52, r7-r12
 1588                             	.LFE35:
 1590 0633 03                      		.section	.text.CommunicationProtocolTask,"ax",@progbits
 1592                             	_CommunicationProtocolTask:
 1593                             	.LFB29:
1163:C:/Workspace/FW_Inertia/branch_indesit/CFG_DishWasher/CFG_Inertia\BusCommPltf_cfg.c ****                                                       
1164:C:/Workspace/FW_Inertia/branch_indesit/CFG_DishWasher/CFG_Inertia\BusCommPltf_cfg.c **** 
1165:C:/Workspace/FW_Inertia/branch_indesit/CFG_DishWasher/CFG_Inertia\BusCommPltf_cfg.c **** 
1166:C:/Workspace/FW_Inertia/branch_indesit/CFG_DishWasher/CFG_Inertia\BusCommPltf_cfg.c **** 
1167:C:/Workspace/FW_Inertia/branch_indesit/CFG_DishWasher/CFG_Inertia\BusCommPltf_cfg.c **** 
1168:C:/Workspace/FW_Inertia/branch_indesit/CFG_DishWasher/CFG_Inertia\BusCommPltf_cfg.c **** /**
1169:C:/Workspace/FW_Inertia/branch_indesit/CFG_DishWasher/CFG_Inertia\BusCommPltf_cfg.c **** Communication Platform initialization
1170:C:/Workspace/FW_Inertia/branch_indesit/CFG_DishWasher/CFG_Inertia\BusCommPltf_cfg.c **** */
1171:C:/Workspace/FW_Inertia/branch_indesit/CFG_DishWasher/CFG_Inertia\BusCommPltf_cfg.c **** void CP_I2CCommunicationPlatformInit(void) 
1172:C:/Workspace/FW_Inertia/branch_indesit/CFG_DishWasher/CFG_Inertia\BusCommPltf_cfg.c **** {
1173:C:/Workspace/FW_Inertia/branch_indesit/CFG_DishWasher/CFG_Inertia\BusCommPltf_cfg.c ****     IO_PhyInitSyncType drvParam={0};
1174:C:/Workspace/FW_Inertia/branch_indesit/CFG_DishWasher/CFG_Inertia\BusCommPltf_cfg.c **** 
1175:C:/Workspace/FW_Inertia/branch_indesit/CFG_DishWasher/CFG_Inertia\BusCommPltf_cfg.c **** 	OS_CREATERSEMA(&SemaRegs);
1176:C:/Workspace/FW_Inertia/branch_indesit/CFG_DishWasher/CFG_Inertia\BusCommPltf_cfg.c **** 	OS_CREATERSEMA(&SemaUiInfo);
1177:C:/Workspace/FW_Inertia/branch_indesit/CFG_DishWasher/CFG_Inertia\BusCommPltf_cfg.c **** 
1178:C:/Workspace/FW_Inertia/branch_indesit/CFG_DishWasher/CFG_Inertia\BusCommPltf_cfg.c **** 	OS_CREATETASK(&CP_CommunicationTaskTCB, 
1179:C:/Workspace/FW_Inertia/branch_indesit/CFG_DishWasher/CFG_Inertia\BusCommPltf_cfg.c ****               "CommunicationProtocolTask", 
1180:C:/Workspace/FW_Inertia/branch_indesit/CFG_DishWasher/CFG_Inertia\BusCommPltf_cfg.c ****               CommunicationProtocolTask, 
1181:C:/Workspace/FW_Inertia/branch_indesit/CFG_DishWasher/CFG_Inertia\BusCommPltf_cfg.c ****               CP_COMM_I2C_PRIORITY,
1182:C:/Workspace/FW_Inertia/branch_indesit/CFG_DishWasher/CFG_Inertia\BusCommPltf_cfg.c ****               CP_CommunicationTaskStack);
1183:C:/Workspace/FW_Inertia/branch_indesit/CFG_DishWasher/CFG_Inertia\BusCommPltf_cfg.c **** #if defined(CONFIG_MAIN_PROTOCOL_STACK_MONITOR)
1184:C:/Workspace/FW_Inertia/branch_indesit/CFG_DishWasher/CFG_Inertia\BusCommPltf_cfg.c **** 	Tools_CreateTaskStackMonitor(&CP_CommunicationTaskTCB, &Main_ProtocolStackMonitor);
1185:C:/Workspace/FW_Inertia/branch_indesit/CFG_DishWasher/CFG_Inertia\BusCommPltf_cfg.c **** #endif
1186:C:/Workspace/FW_Inertia/branch_indesit/CFG_DishWasher/CFG_Inertia\BusCommPltf_cfg.c **** 	
1187:C:/Workspace/FW_Inertia/branch_indesit/CFG_DishWasher/CFG_Inertia\BusCommPltf_cfg.c **** 	drvParam.eventCB=PP_SlaveNotification;   
1188:C:/Workspace/FW_Inertia/branch_indesit/CFG_DishWasher/CFG_Inertia\BusCommPltf_cfg.c **** 	drvParam.id=(IO_ChannelType)(CP_I2C_CH_ID);
1189:C:/Workspace/FW_Inertia/branch_indesit/CFG_DishWasher/CFG_Inertia\BusCommPltf_cfg.c **** 
1190:C:/Workspace/FW_Inertia/branch_indesit/CFG_DishWasher/CFG_Inertia\BusCommPltf_cfg.c ****     (void)OCI2C_InitSync(&drvParam);
1191:C:/Workspace/FW_Inertia/branch_indesit/CFG_DishWasher/CFG_Inertia\BusCommPltf_cfg.c ****     
1192:C:/Workspace/FW_Inertia/branch_indesit/CFG_DishWasher/CFG_Inertia\BusCommPltf_cfg.c **** 
1193:C:/Workspace/FW_Inertia/branch_indesit/CFG_DishWasher/CFG_Inertia\BusCommPltf_cfg.c ****     InitSema();
1194:C:/Workspace/FW_Inertia/branch_indesit/CFG_DishWasher/CFG_Inertia\BusCommPltf_cfg.c ****     
1195:C:/Workspace/FW_Inertia/branch_indesit/CFG_DishWasher/CFG_Inertia\BusCommPltf_cfg.c **** #if defined(CONFIG_LIB_EXTERNAL_BOARD_SUPPORT)
1196:C:/Workspace/FW_Inertia/branch_indesit/CFG_DishWasher/CFG_Inertia\BusCommPltf_cfg.c ****     OS_CREATETASK(&CP_UartParserTaskTCB, 
1197:C:/Workspace/FW_Inertia/branch_indesit/CFG_DishWasher/CFG_Inertia\BusCommPltf_cfg.c ****           "CP_UartParserTask", 
1198:C:/Workspace/FW_Inertia/branch_indesit/CFG_DishWasher/CFG_Inertia\BusCommPltf_cfg.c ****           CP_UartParserTask, 
1199:C:/Workspace/FW_Inertia/branch_indesit/CFG_DishWasher/CFG_Inertia\BusCommPltf_cfg.c ****           CP_COMM_UART_PRIORITY,
1200:C:/Workspace/FW_Inertia/branch_indesit/CFG_DishWasher/CFG_Inertia\BusCommPltf_cfg.c ****           CP_UartParserTaskStack);
1201:C:/Workspace/FW_Inertia/branch_indesit/CFG_DishWasher/CFG_Inertia\BusCommPltf_cfg.c **** #if defined(CONFIG_MAIN_PROTOCOL_STACK_MONITOR)
1202:C:/Workspace/FW_Inertia/branch_indesit/CFG_DishWasher/CFG_Inertia\BusCommPltf_cfg.c **** 	Tools_CreateTaskStackMonitor(&CP_UartParserTaskTCB, &Main_UartParserStackMonitor);
1203:C:/Workspace/FW_Inertia/branch_indesit/CFG_DishWasher/CFG_Inertia\BusCommPltf_cfg.c **** #endif
1204:C:/Workspace/FW_Inertia/branch_indesit/CFG_DishWasher/CFG_Inertia\BusCommPltf_cfg.c ****           
1205:C:/Workspace/FW_Inertia/branch_indesit/CFG_DishWasher/CFG_Inertia\BusCommPltf_cfg.c ****     drvParam.id=(IO_ChannelType)CP_UART1_CH_ID;
1206:C:/Workspace/FW_Inertia/branch_indesit/CFG_DishWasher/CFG_Inertia\BusCommPltf_cfg.c ****     (void)OCUART_InitSync(&drvParam);
1207:C:/Workspace/FW_Inertia/branch_indesit/CFG_DishWasher/CFG_Inertia\BusCommPltf_cfg.c **** #endif /* defined(CONFIG_LIB_EXTERNAL_BOARD_SUPPORT) */
1208:C:/Workspace/FW_Inertia/branch_indesit/CFG_DishWasher/CFG_Inertia\BusCommPltf_cfg.c **** }
1209:C:/Workspace/FW_Inertia/branch_indesit/CFG_DishWasher/CFG_Inertia\BusCommPltf_cfg.c **** 
1210:C:/Workspace/FW_Inertia/branch_indesit/CFG_DishWasher/CFG_Inertia\BusCommPltf_cfg.c **** 
1211:C:/Workspace/FW_Inertia/branch_indesit/CFG_DishWasher/CFG_Inertia\BusCommPltf_cfg.c **** /**
1212:C:/Workspace/FW_Inertia/branch_indesit/CFG_DishWasher/CFG_Inertia\BusCommPltf_cfg.c **** CommunicationProtocolTask: normal, preemptable, task.
1213:C:/Workspace/FW_Inertia/branch_indesit/CFG_DishWasher/CFG_Inertia\BusCommPltf_cfg.c ****  
1214:C:/Workspace/FW_Inertia/branch_indesit/CFG_DishWasher/CFG_Inertia\BusCommPltf_cfg.c **** \author 	Roberto Fioravanti
1215:C:/Workspace/FW_Inertia/branch_indesit/CFG_DishWasher/CFG_Inertia\BusCommPltf_cfg.c **** \date		13/01/2011
1216:C:/Workspace/FW_Inertia/branch_indesit/CFG_DishWasher/CFG_Inertia\BusCommPltf_cfg.c **** \version	1.0.0
1217:C:/Workspace/FW_Inertia/branch_indesit/CFG_DishWasher/CFG_Inertia\BusCommPltf_cfg.c ****    
1218:C:/Workspace/FW_Inertia/branch_indesit/CFG_DishWasher/CFG_Inertia\BusCommPltf_cfg.c **** \note		\par \b Note 1:
1219:C:/Workspace/FW_Inertia/branch_indesit/CFG_DishWasher/CFG_Inertia\BusCommPltf_cfg.c **** 			documentation by Roberto Fioravanti
1220:C:/Workspace/FW_Inertia/branch_indesit/CFG_DishWasher/CFG_Inertia\BusCommPltf_cfg.c **** */
1221:C:/Workspace/FW_Inertia/branch_indesit/CFG_DishWasher/CFG_Inertia\BusCommPltf_cfg.c **** void CommunicationProtocolTask (void)
1222:C:/Workspace/FW_Inertia/branch_indesit/CFG_DishWasher/CFG_Inertia\BusCommPltf_cfg.c **** {
 1594                             		.loc 1 1222 0
 1595 0000 6E 7A                   		pushm	r7-r10
 1596                             	.LCFI16:
1223:C:/Workspace/FW_Inertia/branch_indesit/CFG_DishWasher/CFG_Inertia\BusCommPltf_cfg.c **** 
1224:C:/Workspace/FW_Inertia/branch_indesit/CFG_DishWasher/CFG_Inertia\BusCommPltf_cfg.c ****     OS_U8 MyEvent;
1225:C:/Workspace/FW_Inertia/branch_indesit/CFG_DishWasher/CFG_Inertia\BusCommPltf_cfg.c ****     while(1) 
1226:C:/Workspace/FW_Inertia/branch_indesit/CFG_DishWasher/CFG_Inertia\BusCommPltf_cfg.c ****     {
1227:C:/Workspace/FW_Inertia/branch_indesit/CFG_DishWasher/CFG_Inertia\BusCommPltf_cfg.c ****         MyEvent = OS_WaitSingleEvent(MAIN_OS_EVENT_I2C|MAIN_OS_EVENT_UART);
1228:C:/Workspace/FW_Inertia/branch_indesit/CFG_DishWasher/CFG_Inertia\BusCommPltf_cfg.c ****         if(MyEvent & MAIN_OS_EVENT_I2C) 
1229:C:/Workspace/FW_Inertia/branch_indesit/CFG_DishWasher/CFG_Inertia\BusCommPltf_cfg.c ****         {
1230:C:/Workspace/FW_Inertia/branch_indesit/CFG_DishWasher/CFG_Inertia\BusCommPltf_cfg.c ****             (void)CALL_CP_SLAVEMANAGER(CP_SlaveManager, (IO_ChannelType)CP_I2C_CH_ID, BCP_ChannelTa
1231:C:/Workspace/FW_Inertia/branch_indesit/CFG_DishWasher/CFG_Inertia\BusCommPltf_cfg.c ****         }    
1232:C:/Workspace/FW_Inertia/branch_indesit/CFG_DishWasher/CFG_Inertia\BusCommPltf_cfg.c **** #if defined(CONFIG_LIB_EXTERNAL_BOARD_SUPPORT)
1233:C:/Workspace/FW_Inertia/branch_indesit/CFG_DishWasher/CFG_Inertia\BusCommPltf_cfg.c ****         if(MyEvent & MAIN_OS_EVENT_UART) 
1234:C:/Workspace/FW_Inertia/branch_indesit/CFG_DishWasher/CFG_Inertia\BusCommPltf_cfg.c ****         {
1235:C:/Workspace/FW_Inertia/branch_indesit/CFG_DishWasher/CFG_Inertia\BusCommPltf_cfg.c ****             (void)CALL_CP_SLAVEMANAGER(CP_SlaveManager, (IO_ChannelType)CP_UART1_CH_ID, BCP_Channel
1236:C:/Workspace/FW_Inertia/branch_indesit/CFG_DishWasher/CFG_Inertia\BusCommPltf_cfg.c ****         }
1237:C:/Workspace/FW_Inertia/branch_indesit/CFG_DishWasher/CFG_Inertia\BusCommPltf_cfg.c **** #endif /* defined(CONFIG_LIB_EXTERNAL_BOARD_SUPPORT) */
1238:C:/Workspace/FW_Inertia/branch_indesit/CFG_DishWasher/CFG_Inertia\BusCommPltf_cfg.c ****         
1239:C:/Workspace/FW_Inertia/branch_indesit/CFG_DishWasher/CFG_Inertia\BusCommPltf_cfg.c ****         
1240:C:/Workspace/FW_Inertia/branch_indesit/CFG_DishWasher/CFG_Inertia\BusCommPltf_cfg.c ****         /*check if System mode is changed */
1241:C:/Workspace/FW_Inertia/branch_indesit/CFG_DishWasher/CFG_Inertia\BusCommPltf_cfg.c ****         if((LIB_Reset_GetSystemMode() != LIB_Reset_GetNewSystemMode()) && 
1242:C:/Workspace/FW_Inertia/branch_indesit/CFG_DishWasher/CFG_Inertia\BusCommPltf_cfg.c ****          (BCP_ChannelTable[CP_I2C_CH_ID].rxBuffer[PP_DTYP_INDEX]==PP_EE_TYPE_SYSTEM_MODE))
1243:C:/Workspace/FW_Inertia/branch_indesit/CFG_DishWasher/CFG_Inertia\BusCommPltf_cfg.c ****         {
1244:C:/Workspace/FW_Inertia/branch_indesit/CFG_DishWasher/CFG_Inertia\BusCommPltf_cfg.c ****         	/*lint -e530*/
1245:C:/Workspace/FW_Inertia/branch_indesit/CFG_DishWasher/CFG_Inertia\BusCommPltf_cfg.c ****         	/*Warning non consistente*/
1246:C:/Workspace/FW_Inertia/branch_indesit/CFG_DishWasher/CFG_Inertia\BusCommPltf_cfg.c ****             while(I2C_IsBusBusy())
 1597                             		.loc 1 1246 0
 1598 0002 FB AE 00 83 08          		mov.L	#0x88300, r10
 1599 0007 03                      		.balign 2,3,1
 1600                             	.L244:
1227:C:/Workspace/FW_Inertia/branch_indesit/CFG_DishWasher/CFG_Inertia\BusCommPltf_cfg.c ****         MyEvent = OS_WaitSingleEvent(MAIN_OS_EVENT_I2C|MAIN_OS_EVENT_UART);
 1601                             		.loc 1 1227 0
 1602 0008 66 31                   		mov.L	#3, r1
 1603 000a 05 00 00 00             		bsr	_OS_WaitSingleEvent
 1604                             	.LVL178:
 1605 000e EF 17                   		mov.L	r1, r7
 1606                             	.LVL179:
1228:C:/Workspace/FW_Inertia/branch_indesit/CFG_DishWasher/CFG_Inertia\BusCommPltf_cfg.c ****         if(MyEvent & MAIN_OS_EVENT_I2C) 
 1607                             		.loc 1 1228 0
 1608 0010 FD 74 C1 01             		tst	#1, r1
 1609 0014 20 0E                   		beq	.L229
1230:C:/Workspace/FW_Inertia/branch_indesit/CFG_DishWasher/CFG_Inertia\BusCommPltf_cfg.c ****             (void)CALL_CP_SLAVEMANAGER(CP_SlaveManager, (IO_ChannelType)CP_I2C_CH_ID, BCP_ChannelTa
 1610                             		.loc 1 1230 0
 1611 0016 66 01                   		mov	#0, r1
 1612                             	.LVL180:
 1613 0018 FB 22 00 00 00 00       		mov.L	#_BCP_I2CTxBuffer, r2
 1614 001e 05 00 00 00             		bsr	_CP_SlaveManager.isra.1
 1615                             	.LVL181:
 1616                             		.balign 2,3,6
 1617                             	.L229:
1233:C:/Workspace/FW_Inertia/branch_indesit/CFG_DishWasher/CFG_Inertia\BusCommPltf_cfg.c ****         if(MyEvent & MAIN_OS_EVENT_UART) 
 1618                             		.loc 1 1233 0
 1619 0022 7C 17                   		btst #1, r7
 1620 0024 20 0E                   		beq	.L230
1235:C:/Workspace/FW_Inertia/branch_indesit/CFG_DishWasher/CFG_Inertia\BusCommPltf_cfg.c ****             (void)CALL_CP_SLAVEMANAGER(CP_SlaveManager, (IO_ChannelType)CP_UART1_CH_ID, BCP_Channel
 1621                             		.loc 1 1235 0
 1622 0026 66 11                   		mov	#1, r1
 1623 0028 FB 22 00 00 00 00       		mov.L	#_BCP_UARTRxBuffer, r2
 1624 002e 05 00 00 00             		bsr	_CP_SlaveManager.isra.1
 1625                             	.LVL182:
 1626                             		.balign 2,3,3
 1627                             	.L230:
1241:C:/Workspace/FW_Inertia/branch_indesit/CFG_DishWasher/CFG_Inertia\BusCommPltf_cfg.c ****         if((LIB_Reset_GetSystemMode() != LIB_Reset_GetNewSystemMode()) && 
 1628                             		.loc 1 1241 0
 1629 0032 05 00 00 00             		bsr	_LIB_Reset_GetSystemMode
 1630                             	.LVL183:
 1631 0036 CF 17                   		mov.B	r1, r7
 1632                             	.LVL184:
 1633 0038 05 00 00 00             		bsr	_LIB_Reset_GetNewSystemMode
 1634                             	.LVL185:
 1635 003c 5B 77                   		movu.B	r7, r7
 1636 003e 5B 11                   		movu.B	r1, r1
 1637 0040 47 17                   		cmp	r1, r7
 1638 0042 20 C6                   		beq	.L244
1242:C:/Workspace/FW_Inertia/branch_indesit/CFG_DishWasher/CFG_Inertia\BusCommPltf_cfg.c ****          (BCP_ChannelTable[CP_I2C_CH_ID].rxBuffer[PP_DTYP_INDEX]==PP_EE_TYPE_SYSTEM_MODE))
 1639                             		.loc 1 1242 0 discriminator 1
 1640 0044 FB 72 00 00 00 00       		mov.L	#_BCP_I2CTxBuffer, r7
1241:C:/Workspace/FW_Inertia/branch_indesit/CFG_DishWasher/CFG_Inertia\BusCommPltf_cfg.c ****         if((LIB_Reset_GetSystemMode() != LIB_Reset_GetNewSystemMode()) && 
 1641                             		.loc 1 1241 0 discriminator 1
 1642 004a B0 FF                   		movu.B	3[r7], r7
 1643 004c 75 57 5F                		cmp	#0x5f, r7
 1644 004f 21 B9                   		bne	.L244
 1645 0051 03                      		.balign 2,3,5
 1646                             	.L239:
 1647                             		.loc 1 1246 0
 1648 0052 CD A7 01                		mov.B	1[r10], r7
 1649 0055 61 07                   		cmp	#0, r7
 1650 0057 29 FB                   		blt	.L239
1247:C:/Workspace/FW_Inertia/branch_indesit/CFG_DishWasher/CFG_Inertia\BusCommPltf_cfg.c ****             /*lint +e530*/
1248:C:/Workspace/FW_Inertia/branch_indesit/CFG_DishWasher/CFG_Inertia\BusCommPltf_cfg.c ****             {}
1249:C:/Workspace/FW_Inertia/branch_indesit/CFG_DishWasher/CFG_Inertia\BusCommPltf_cfg.c ****             
1250:C:/Workspace/FW_Inertia/branch_indesit/CFG_DishWasher/CFG_Inertia\BusCommPltf_cfg.c ****             if(LIB_Reset_GetNewSystemMode() == SYSTEM_NORMAL_MODE)
 1651                             		.loc 1 1250 0
 1652 0059 05 00 00 00             		bsr	_LIB_Reset_GetNewSystemMode
 1653                             	.LVL186:
 1654 005d 5B 11                   		movu.B	r1, r1
 1655 005f 61 11                   		cmp	#1, r1
 1656 0061 1D                      		bne	.L233
1251:C:/Workspace/FW_Inertia/branch_indesit/CFG_DishWasher/CFG_Inertia\BusCommPltf_cfg.c ****             {
1252:C:/Workspace/FW_Inertia/branch_indesit/CFG_DishWasher/CFG_Inertia\BusCommPltf_cfg.c ****             	LIB_KeywordsRamCorruption();
 1657                             		.loc 1 1252 0
 1658 0062 05 00 00 00             		bsr	_LIB_KeywordsRamCorruption
 1659                             	.LVL187:
 1660                             		.balign 2,3,3
 1661                             	.L233:
1253:C:/Workspace/FW_Inertia/branch_indesit/CFG_DishWasher/CFG_Inertia\BusCommPltf_cfg.c ****             }
1254:C:/Workspace/FW_Inertia/branch_indesit/CFG_DishWasher/CFG_Inertia\BusCommPltf_cfg.c ****             
1255:C:/Workspace/FW_Inertia/branch_indesit/CFG_DishWasher/CFG_Inertia\BusCommPltf_cfg.c ****             OCRST_GenerateUserResetSync();
 1662                             		.loc 1 1255 0
 1663 0066 05 00 00 00             		bsr	_OCRST_GenerateUserResetSync
 1664                             	.LVL188:
 1665 006a 2E 9E                   		bra	.L244
 1666                             	.LFE29:
 1668                             		.section	.rodata.str1.1,"aMS",@progbits,1
 1669                             	.LC0:
 1670 0000 43 6F 6D 6D 75 6E 69 63 		.string	"CommunicationProtocolTask"
 1670      61 74 69 6F 6E 50 72 6F 
 1670      74 6F 63 6F 6C 54 61 73 
 1670      6B 00 
 1671                             	.LC1:
 1672 001a 43 50 5F 55 61 72 74 50 		.string	"CP_UartParserTask"
 1672      61 72 73 65 72 54 61 73 
 1672      6B 00 
 1673                             		.section	.text.CP_I2CCommunicationPlatformInit,"ax",@progbits
 1674                             		.global	_CP_I2CCommunicationPlatformInit
 1676                             	_CP_I2CCommunicationPlatformInit:
 1677                             	.LFB28:
1172:C:/Workspace/FW_Inertia/branch_indesit/CFG_DishWasher/CFG_Inertia\BusCommPltf_cfg.c **** {
 1678                             		.loc 1 1172 0
 1679 0000 71 00 E8                		add	#-24, r0
 1680                             	.LCFI17:
1173:C:/Workspace/FW_Inertia/branch_indesit/CFG_DishWasher/CFG_Inertia\BusCommPltf_cfg.c ****     IO_PhyInitSyncType drvParam={0};
 1681                             		.loc 1 1173 0
 1682 0003 66 81                   		mov.L	#8, r1
 1683 0005 4B 01                   		add	r0, r1
 1684 0007 75 43 10                		mov.L	#16, r3
 1685 000a 66 02                   		mov	#0, r2
 1686 000c 7F 88                   		sstr.b
1175:C:/Workspace/FW_Inertia/branch_indesit/CFG_DishWasher/CFG_Inertia\BusCommPltf_cfg.c **** 	OS_CREATERSEMA(&SemaRegs);
 1687                             		.loc 1 1175 0
 1688 000e FB 12 00 00 00 00       		mov.L	#_SemaRegs, r1
 1689 0014 05 00 00 00             		bsr	_OS_CreateRSema
 1690                             	.LVL189:
1176:C:/Workspace/FW_Inertia/branch_indesit/CFG_DishWasher/CFG_Inertia\BusCommPltf_cfg.c **** 	OS_CREATERSEMA(&SemaUiInfo);
 1691                             		.loc 1 1176 0
 1692 0018 FB 12 00 00 00 00       		mov.L	#_SemaUiInfo, r1
 1693 001e 05 00 00 00             		bsr	_OS_CreateRSema
 1694                             	.LVL190:
1178:C:/Workspace/FW_Inertia/branch_indesit/CFG_DishWasher/CFG_Inertia\BusCommPltf_cfg.c **** 	OS_CREATETASK(&CP_CommunicationTaskTCB, 
 1695                             		.loc 1 1178 0
 1696 0022 F8 02 00 00 00 00       		mov.L	#_CP_CommunicationTaskStack, [r0]
 1697 0028 F9 0A 01 00 02          		mov.L	#0x200, 4[r0]
 1698 002d FB 12 00 00 00 00       		mov.L	#_CP_CommunicationTaskTCB, r1
 1699 0033 FB 22 00 00 00 00       		mov.L	#.LC0, r2
 1700 0039 75 43 50                		mov	#0x50, r3
 1701 003c FB 42 00 00 00 00       		mov.L	#_CommunicationProtocolTask, r4
 1702 0042 05 00 00 00             		bsr	_OS_CreateTask_S
 1703                             	.LVL191:
1187:C:/Workspace/FW_Inertia/branch_indesit/CFG_DishWasher/CFG_Inertia\BusCommPltf_cfg.c **** 	drvParam.eventCB=PP_SlaveNotification;   
 1704                             		.loc 1 1187 0
 1705 0046 F9 02 02 00 00 00 00    		mov.L	#_PP_SlaveNotification, 8[r0]
1188:C:/Workspace/FW_Inertia/branch_indesit/CFG_DishWasher/CFG_Inertia\BusCommPltf_cfg.c **** 	drvParam.id=(IO_ChannelType)(CP_I2C_CH_ID);
 1706                             		.loc 1 1188 0
 1707 004d 3C 84 00                		mov.B	#0, 20[r0]
1190:C:/Workspace/FW_Inertia/branch_indesit/CFG_DishWasher/CFG_Inertia\BusCommPltf_cfg.c ****     (void)OCI2C_InitSync(&drvParam);
 1708                             		.loc 1 1190 0
 1709 0050 66 81                   		mov.L	#8, r1
 1710 0052 4B 01                   		add	r0, r1
 1711 0054 05 00 00 00             		bsr	_OCI2C_InitSync
 1712                             	.LVL192:
1193:C:/Workspace/FW_Inertia/branch_indesit/CFG_DishWasher/CFG_Inertia\BusCommPltf_cfg.c ****     InitSema();
 1713                             		.loc 1 1193 0
 1714 0058 05 00 00 00             		bsr	_InitSema
 1715                             	.LVL193:
1196:C:/Workspace/FW_Inertia/branch_indesit/CFG_DishWasher/CFG_Inertia\BusCommPltf_cfg.c ****     OS_CREATETASK(&CP_UartParserTaskTCB, 
 1716                             		.loc 1 1196 0
 1717 005c F8 02 00 02 00 00       		mov.L	#_CP_UartParserTaskStack, [r0]
 1718 0062 F9 0A 01 40 01          		mov.L	#0x140, 4[r0]
 1719 0067 FB 12 00 00 00 00       		mov.L	#_CP_UartParserTaskTCB, r1
 1720 006d FB 22 1A 00 00 00       		mov.L	#.LC1, r2
 1721 0073 75 43 44                		mov	#0x44, r3
 1722 0076 FB 42 00 00 00 00       		mov.L	#_CP_UartParserTask, r4
 1723 007c 05 00 00 00             		bsr	_OS_CreateTask_S
 1724                             	.LVL194:
1205:C:/Workspace/FW_Inertia/branch_indesit/CFG_DishWasher/CFG_Inertia\BusCommPltf_cfg.c ****     drvParam.id=(IO_ChannelType)CP_UART1_CH_ID;
 1725                             		.loc 1 1205 0
 1726 0080 3C 84 01                		mov.B	#1, 20[r0]
1206:C:/Workspace/FW_Inertia/branch_indesit/CFG_DishWasher/CFG_Inertia\BusCommPltf_cfg.c ****     (void)OCUART_InitSync(&drvParam);
 1727                             		.loc 1 1206 0
 1728 0083 66 81                   		mov.L	#8, r1
 1729 0085 4B 01                   		add	r0, r1
 1730 0087 05 00 00 00             		bsr	_OCUART_InitSync
 1731                             	.LVL195:
1208:C:/Workspace/FW_Inertia/branch_indesit/CFG_DishWasher/CFG_Inertia\BusCommPltf_cfg.c **** }
 1732                             		.loc 1 1208 0
 1733 008b 67 06                   		rtsd	#24
 1734                             	.LFE28:
 1736                             		.section	.text.CP_UART_EnableComm,"ax",@progbits
 1737                             		.global	_CP_UART_EnableComm
 1739                             	_CP_UART_EnableComm:
 1740                             	.LFB31:
1256:C:/Workspace/FW_Inertia/branch_indesit/CFG_DishWasher/CFG_Inertia\BusCommPltf_cfg.c ****         }        
1257:C:/Workspace/FW_Inertia/branch_indesit/CFG_DishWasher/CFG_Inertia\BusCommPltf_cfg.c ****     }
1258:C:/Workspace/FW_Inertia/branch_indesit/CFG_DishWasher/CFG_Inertia\BusCommPltf_cfg.c **** }
1259:C:/Workspace/FW_Inertia/branch_indesit/CFG_DishWasher/CFG_Inertia\BusCommPltf_cfg.c **** 
1260:C:/Workspace/FW_Inertia/branch_indesit/CFG_DishWasher/CFG_Inertia\BusCommPltf_cfg.c **** #if defined(CONFIG_LIB_EXTERNAL_BOARD_SUPPORT)
1261:C:/Workspace/FW_Inertia/branch_indesit/CFG_DishWasher/CFG_Inertia\BusCommPltf_cfg.c **** void CP_UartParserTask(void)
1262:C:/Workspace/FW_Inertia/branch_indesit/CFG_DishWasher/CFG_Inertia\BusCommPltf_cfg.c **** {
1263:C:/Workspace/FW_Inertia/branch_indesit/CFG_DishWasher/CFG_Inertia\BusCommPltf_cfg.c ****   int t0 = OS_GetTime();
1264:C:/Workspace/FW_Inertia/branch_indesit/CFG_DishWasher/CFG_Inertia\BusCommPltf_cfg.c ****   uint8_t tout=0;
1265:C:/Workspace/FW_Inertia/branch_indesit/CFG_DishWasher/CFG_Inertia\BusCommPltf_cfg.c ****   while(1)
1266:C:/Workspace/FW_Inertia/branch_indesit/CFG_DishWasher/CFG_Inertia\BusCommPltf_cfg.c ****   {
1267:C:/Workspace/FW_Inertia/branch_indesit/CFG_DishWasher/CFG_Inertia\BusCommPltf_cfg.c ****     OCUART_ErrMngr();
1268:C:/Workspace/FW_Inertia/branch_indesit/CFG_DishWasher/CFG_Inertia\BusCommPltf_cfg.c ****     
1269:C:/Workspace/FW_Inertia/branch_indesit/CFG_DishWasher/CFG_Inertia\BusCommPltf_cfg.c ****     if(!OCUART_RxStreamMngr(CP_UART1_CH_ID))
1270:C:/Workspace/FW_Inertia/branch_indesit/CFG_DishWasher/CFG_Inertia\BusCommPltf_cfg.c ****     {
1271:C:/Workspace/FW_Inertia/branch_indesit/CFG_DishWasher/CFG_Inertia\BusCommPltf_cfg.c ****             tout++;		
1272:C:/Workspace/FW_Inertia/branch_indesit/CFG_DishWasher/CFG_Inertia\BusCommPltf_cfg.c ****             tout %= 8;
1273:C:/Workspace/FW_Inertia/branch_indesit/CFG_DishWasher/CFG_Inertia\BusCommPltf_cfg.c ****             if(!tout)
1274:C:/Workspace/FW_Inertia/branch_indesit/CFG_DishWasher/CFG_Inertia\BusCommPltf_cfg.c ****             {
1275:C:/Workspace/FW_Inertia/branch_indesit/CFG_DishWasher/CFG_Inertia\BusCommPltf_cfg.c ****             	CP_UART_EnableComm();
1276:C:/Workspace/FW_Inertia/branch_indesit/CFG_DishWasher/CFG_Inertia\BusCommPltf_cfg.c ****             }
1277:C:/Workspace/FW_Inertia/branch_indesit/CFG_DishWasher/CFG_Inertia\BusCommPltf_cfg.c ****     }
1278:C:/Workspace/FW_Inertia/branch_indesit/CFG_DishWasher/CFG_Inertia\BusCommPltf_cfg.c ****     else
1279:C:/Workspace/FW_Inertia/branch_indesit/CFG_DishWasher/CFG_Inertia\BusCommPltf_cfg.c ****     {
1280:C:/Workspace/FW_Inertia/branch_indesit/CFG_DishWasher/CFG_Inertia\BusCommPltf_cfg.c ****             tout=0;
1281:C:/Workspace/FW_Inertia/branch_indesit/CFG_DishWasher/CFG_Inertia\BusCommPltf_cfg.c ****     }
1282:C:/Workspace/FW_Inertia/branch_indesit/CFG_DishWasher/CFG_Inertia\BusCommPltf_cfg.c **** 
1283:C:/Workspace/FW_Inertia/branch_indesit/CFG_DishWasher/CFG_Inertia\BusCommPltf_cfg.c ****     t0 += 5;
1284:C:/Workspace/FW_Inertia/branch_indesit/CFG_DishWasher/CFG_Inertia\BusCommPltf_cfg.c ****     OS_DelayUntil ( t0 );
1285:C:/Workspace/FW_Inertia/branch_indesit/CFG_DishWasher/CFG_Inertia\BusCommPltf_cfg.c ****   }
1286:C:/Workspace/FW_Inertia/branch_indesit/CFG_DishWasher/CFG_Inertia\BusCommPltf_cfg.c **** }
1287:C:/Workspace/FW_Inertia/branch_indesit/CFG_DishWasher/CFG_Inertia\BusCommPltf_cfg.c **** 
1288:C:/Workspace/FW_Inertia/branch_indesit/CFG_DishWasher/CFG_Inertia\BusCommPltf_cfg.c **** void CP_UART_EnableComm(void)
1289:C:/Workspace/FW_Inertia/branch_indesit/CFG_DishWasher/CFG_Inertia\BusCommPltf_cfg.c **** {
 1741                             		.loc 1 1289 0
1290:C:/Workspace/FW_Inertia/branch_indesit/CFG_DishWasher/CFG_Inertia\BusCommPltf_cfg.c ****     OCUART_EnableSync();
 1742                             		.loc 1 1290 0
 1743 0000 05 00 00 00             		bsr	_OCUART_EnableSync
 1744                             	.LVL196:
1291:C:/Workspace/FW_Inertia/branch_indesit/CFG_DishWasher/CFG_Inertia\BusCommPltf_cfg.c ****     OCUART_TxByteSync(0x55);
 1745                             		.loc 1 1291 0
 1746 0004 75 41 55                		mov	#0x55, r1
 1747 0007 04 00 00 00             		bra	_OCUART_TxByteSync
 1748                             	.LVL197:
 1749                             	.LFE31:
 1751                             		.section	.text.CP_UartParserTask,"ax",@progbits
 1752                             		.global	_CP_UartParserTask
 1754                             	_CP_UartParserTask:
 1755                             	.LFB30:
1262:C:/Workspace/FW_Inertia/branch_indesit/CFG_DishWasher/CFG_Inertia\BusCommPltf_cfg.c **** {
 1756                             		.loc 1 1262 0
 1757 0000 6E 7A                   		pushm	r7-r10
 1758                             	.LCFI18:
1263:C:/Workspace/FW_Inertia/branch_indesit/CFG_DishWasher/CFG_Inertia\BusCommPltf_cfg.c ****   int t0 = OS_GetTime();
 1759                             		.loc 1 1263 0
 1760 0002 FB 72 00 00 00 00       		mov.L	#_OS_Global, r7
 1761 0008 ED 7A 0A                		mov.L	40[r7], r10
 1762                             	.LVL198:
1264:C:/Workspace/FW_Inertia/branch_indesit/CFG_DishWasher/CFG_Inertia\BusCommPltf_cfg.c ****   uint8_t tout=0;
 1763                             		.loc 1 1264 0
 1764 000b 66 07                   		mov	#0, r7
 1765                             	.LVL199:
 1766 000d 03                      		.balign 2,3,3
 1767                             	.L251:
1267:C:/Workspace/FW_Inertia/branch_indesit/CFG_DishWasher/CFG_Inertia\BusCommPltf_cfg.c ****     OCUART_ErrMngr();
 1768                             		.loc 1 1267 0
 1769 000e 05 00 00 00             		bsr	_OCUART_ErrMngr
 1770                             	.LVL200:
1269:C:/Workspace/FW_Inertia/branch_indesit/CFG_DishWasher/CFG_Inertia\BusCommPltf_cfg.c ****     if(!OCUART_RxStreamMngr(CP_UART1_CH_ID))
 1771                             		.loc 1 1269 0
 1772 0012 66 11                   		mov	#1, r1
 1773 0014 05 00 00 00             		bsr	_OCUART_RxStreamMngr
 1774                             	.LVL201:
 1775 0018 76 21 FF 00             		and #0xff, r1
 1776 001c 21 10                   		bne	.L252
1271:C:/Workspace/FW_Inertia/branch_indesit/CFG_DishWasher/CFG_Inertia\BusCommPltf_cfg.c ****             tout++;		
 1777                             		.loc 1 1271 0
 1778 001e 62 17                   		add	#1, r7
 1779                             	.LVL202:
1272:C:/Workspace/FW_Inertia/branch_indesit/CFG_DishWasher/CFG_Inertia\BusCommPltf_cfg.c ****             tout %= 8;
 1780                             		.loc 1 1272 0
 1781 0020 64 77                   		and #7, r7
 1782                             	.LVL203:
1273:C:/Workspace/FW_Inertia/branch_indesit/CFG_DishWasher/CFG_Inertia\BusCommPltf_cfg.c ****             if(!tout)
 1783                             		.loc 1 1273 0
 1784 0022 5B 7E                   		movu.B	r7, r14
 1785 0024 61 0E                   		cmp	#0, r14
 1786 0026 18                      		bne	.L250
1275:C:/Workspace/FW_Inertia/branch_indesit/CFG_DishWasher/CFG_Inertia\BusCommPltf_cfg.c ****             	CP_UART_EnableComm();
 1787                             		.loc 1 1275 0
 1788 0027 05 00 00 00             		bsr	_CP_UART_EnableComm
 1789                             	.LVL204:
 1790 002b 0B                      		bra	.L250
 1791                             	.L252:
1280:C:/Workspace/FW_Inertia/branch_indesit/CFG_DishWasher/CFG_Inertia\BusCommPltf_cfg.c ****             tout=0;
 1792                             		.loc 1 1280 0
 1793 002c 66 07                   		mov	#0, r7
 1794                             	.LVL205:
 1795                             		.balign 2,3,1
 1796                             	.L250:
1283:C:/Workspace/FW_Inertia/branch_indesit/CFG_DishWasher/CFG_Inertia\BusCommPltf_cfg.c ****     t0 += 5;
 1797                             		.loc 1 1283 0
 1798 002e 62 5A                   		add	#5, r10
 1799                             	.LVL206:
1284:C:/Workspace/FW_Inertia/branch_indesit/CFG_DishWasher/CFG_Inertia\BusCommPltf_cfg.c ****     OS_DelayUntil ( t0 );
 1800                             		.loc 1 1284 0
 1801 0030 EF A1                   		mov.L	r10, r1
 1802 0032 05 00 00 00             		bsr	_OS_DelayUntil
 1803                             	.LVL207:
1285:C:/Workspace/FW_Inertia/branch_indesit/CFG_DishWasher/CFG_Inertia\BusCommPltf_cfg.c ****   }
 1804                             		.loc 1 1285 0
 1805 0036 2E D8                   		bra	.L251
 1806                             	.LFE30:
 1808                             		.section	.text.CP_UART_DisableComm,"ax",@progbits
 1809                             		.global	_CP_UART_DisableComm
 1811                             	_CP_UART_DisableComm:
 1812                             	.LFB32:
1292:C:/Workspace/FW_Inertia/branch_indesit/CFG_DishWasher/CFG_Inertia\BusCommPltf_cfg.c **** }
1293:C:/Workspace/FW_Inertia/branch_indesit/CFG_DishWasher/CFG_Inertia\BusCommPltf_cfg.c **** 
1294:C:/Workspace/FW_Inertia/branch_indesit/CFG_DishWasher/CFG_Inertia\BusCommPltf_cfg.c **** void CP_UART_DisableComm(void)
1295:C:/Workspace/FW_Inertia/branch_indesit/CFG_DishWasher/CFG_Inertia\BusCommPltf_cfg.c **** {
 1813                             		.loc 1 1295 0
1296:C:/Workspace/FW_Inertia/branch_indesit/CFG_DishWasher/CFG_Inertia\BusCommPltf_cfg.c ****     OCUART_DisableSync();
 1814                             		.loc 1 1296 0
 1815 0000 04 00 00 00             		bra	_OCUART_DisableSync
 1816                             	.LVL208:
 1817                             	.LFE32:
 1819                             		.section	.text.CP_GetPPAddr,"ax",@progbits
 1820                             		.global	_CP_GetPPAddr
 1822                             	_CP_GetPPAddr:
 1823                             	.LFB33:
1297:C:/Workspace/FW_Inertia/branch_indesit/CFG_DishWasher/CFG_Inertia\BusCommPltf_cfg.c **** }
1298:C:/Workspace/FW_Inertia/branch_indesit/CFG_DishWasher/CFG_Inertia\BusCommPltf_cfg.c **** #endif
1299:C:/Workspace/FW_Inertia/branch_indesit/CFG_DishWasher/CFG_Inertia\BusCommPltf_cfg.c **** 
1300:C:/Workspace/FW_Inertia/branch_indesit/CFG_DishWasher/CFG_Inertia\BusCommPltf_cfg.c **** uint16_t CP_GetPPAddr(const void *realAddr)
1301:C:/Workspace/FW_Inertia/branch_indesit/CFG_DishWasher/CFG_Inertia\BusCommPltf_cfg.c **** {
 1824                             		.loc 1 1301 0
 1825                             	.LVL209:
1302:C:/Workspace/FW_Inertia/branch_indesit/CFG_DishWasher/CFG_Inertia\BusCommPltf_cfg.c **** 	return PP_MappingGetPPAddr((const IO_MemPtrType) realAddr, RFRemapTable, sizeof(RFRemapTable)/size
 1826                             		.loc 1 1302 0
 1827 0000 FB 22 00 00 00 00       		mov.L	#_RFRemapTable, r2
 1828 0006 66 43                   		mov	#4, r3
 1829 0008 04 00 00 00             		bra	_PP_MappingGetPPAddr
 1830                             	.LVL210:
 1831                             	.LFE33:
 1833                             		.comm	_PowerMeterBuffer,10,1
 1834                             		.global	_BCP_ChannelTable
 1835                             		.section	.rodata.BCP_ChannelTable,"a",@progbits
 1836                             		.balign 4
 1839                             	_BCP_ChannelTable:
 1840 0000 00 00 00 00             		.long	0
 1841 0004 00 00 00 00             		.long	_OCI2C_InitSync
 1842 0008 00 00 00 00             		.long	_OCI2C_TxSync
 1843 000c 00 00 00 00             		.long	_OCI2C_RxSync
 1844 0010 00 00 00 00             		.long	_BCP_I2CTxBuffer
 1845 0014 00 00 00 00             		.long	_BCP_I2CTxBuffer
 1846 0018 01 08                   		.short	0x108
 1847 001a 01 08                   		.short	0x108
 1848 001c 00 00 00 00             		.long	0
 1849 0020 00 00 00 00             		.long	_OCUART_InitSync
 1850 0024 00 00 00 00             		.long	_OCUART_TxSync
 1851 0028 00 00 00 00             		.long	_OCUART_RxSync
 1852 002c 00 00 00 00             		.long	_BCP_UARTRxBuffer
 1853 0030 00 00 00 00             		.long	_BCP_UARTRxBuffer
 1854 0034 01 08                   		.short	0x108
 1855 0036 01 08                   		.short	0x108
 1856                             		.global	_normVpeak
 1857                             		.section	.data.normVpeak,"aw",@progbits
 1858                             		.balign 4
 1861                             	_normVpeak:
 1862 0000 00 00 BB 62             		.long	0xbb62
 1863                             		.section	.bss.CPApplianceDataTable,"aw",@nobits
 1864                             		.balign 4
 1867                             	_CPApplianceDataTable:
 1868 0000 00 00 00 00 00 00 00 00 		.zero	48
 1868      00 00 00 00 00 00 00 00 
 1868      00 00 00 00 00 00 00 00 
 1868      00 00 00 00 00 00 00 00 
 1868      00 00 00 00 00 00 00 00 
 1869                             		.section	.bss.SemaRegs,"aw",@nobits
 1870                             		.balign 4
 1873                             	_SemaRegs:
 1874 0000 00 00 00 00 00 00 00 00 		.zero	16
 1874      00 00 00 00 00 00 00 00 
 1875                             		.section	.bss.BCP_I2CTxBuffer,"aw",@nobits
 1878                             	_BCP_I2CTxBuffer:
 1879 0000 00 00 00 00 00 00 00 00 		.zero	264
 1879      00 00 00 00 00 00 00 00 
 1879      00 00 00 00 00 00 00 00 
 1879      00 00 00 00 00 00 00 00 
 1879      00 00 00 00 00 00 00 00 
 1880                             		.section	.bss.BCP_UARTRxBuffer,"aw",@nobits
 1883                             	_BCP_UARTRxBuffer:
 1884 0000 00 00 00 00 00 00 00 00 		.zero	264
 1884      00 00 00 00 00 00 00 00 
 1884      00 00 00 00 00 00 00 00 
 1884      00 00 00 00 00 00 00 00 
 1884      00 00 00 00 00 00 00 00 
 1885                             		.section	.bss.SemaUiInfo,"aw",@nobits
 1886                             		.balign 4
 1889                             	_SemaUiInfo:
 1890 0000 00 00 00 00 00 00 00 00 		.zero	16
 1890      00 00 00 00 00 00 00 00 
 1891                             		.section	.bss.ExternalBoardCommStatus,"aw",@nobits
 1894                             	_ExternalBoardCommStatus:
 1895 0000 00                      		.zero	1
 1896                             		.section	.bss.CP_CommunicationTaskTCB,"aw",@nobits
 1897                             		.balign 4
 1900                             	_CP_CommunicationTaskTCB:
 1901 0000 00 00 00 00 00 00 00 00 		.zero	44
 1901      00 00 00 00 00 00 00 00 
 1901      00 00 00 00 00 00 00 00 
 1901      00 00 00 00 00 00 00 00 
 1901      00 00 00 00 00 00 00 00 
 1902                             		.section	.bss.num,"aw",@nobits
 1905                             	_num:
 1906 0000 00                      		.zero	1
 1907                             		.section	.rodata.PowerProfileError,"a",@progbits
 1910                             	_PowerProfileError:
 1911 0000 FF                      		.byte	-1
 1912                             		.section	.osstack,"aw",@progbits
 1913                             		.balign 4
 1916                             	_CP_CommunicationTaskStack:
 1917 0000 00 00 00 00 00 00 00 00 		.zero	512
 1917      00 00 00 00 00 00 00 00 
 1917      00 00 00 00 00 00 00 00 
 1917      00 00 00 00 00 00 00 00 
 1917      00 00 00 00 00 00 00 00 
 1918                             		.section	.bss.CP_UartParserTaskTCB,"aw",@nobits
 1919                             		.balign 4
 1922                             	_CP_UartParserTaskTCB:
 1923 0000 00 00 00 00 00 00 00 00 		.zero	44
 1923      00 00 00 00 00 00 00 00 
 1923      00 00 00 00 00 00 00 00 
 1923      00 00 00 00 00 00 00 00 
 1923      00 00 00 00 00 00 00 00 
 1924                             		.section	.osstack
 1925                             		.balign 4
 1928                             	_CP_UartParserTaskStack:
 1929 0200 00 00 00 00 00 00 00 00 		.zero	320
 1929      00 00 00 00 00 00 00 00 
 1929      00 00 00 00 00 00 00 00 
 1929      00 00 00 00 00 00 00 00 
 1929      00 00 00 00 00 00 00 00 
 1930                             		.section	.rodata.WRRemapTable,"a",@progbits
 1931                             		.balign 4
 1934                             	_WRRemapTable:
 1935 0000 00 00 00 00             		.long	0
 1936 0004 00 00                   		.short	0
 1937 0006 3F FF                   		.short	0x3fff
 1938                             		.section	.rodata.RFRemapTable,"a",@progbits
 1939                             		.balign 4
 1942                             	_RFRemapTable:
 1943 0000 00 00 00 00             		.long	0
 1944 0004 00 00                   		.short	0
 1945 0006 3F FF                   		.short	0x3fff
 1946 0008 FF FF 00 00             		.long	0xffff0000
 1947 000c F0 00                   		.short	0xfffff000
 1948 000e FF FF                   		.short	-1
 1949 0010 FF FB A0 00             		.long	0xfffba000
 1950 0014 60 00                   		.short	0x6000
 1951 0016 EF FF                   		.short	0xffffefff
 1952 0018 00 0F C0 00             		.long	0xfc000
 1953 001c 40 00                   		.short	0x4000
 1954 001e 5F FF                   		.short	0x5fff
 1955                             		.section	.rodata.ProtocolReadingAccessTable,"a",@progbits
 1956                             		.balign 4
 1959                             	_ProtocolReadingAccessTable:
 1960 0000 00 00 00 00             		.long	0
 1961 0004 00 00 FF FF             		.long	0xffff
 1962 0008 00 10 00 00             		.long	0x100000
 1963 000c 00 10 1F FF             		.long	0x101fff
 1964 0010 FF F8 00 00             		.long	0xfff80000
 1965 0014 FF FF FF FF             		.long	-1
 1966                             		.section	.rodata.ProtocolWritingRamAccessTable,"a",@progbits
 1967                             		.balign 4
 1970                             	_ProtocolWritingRamAccessTable:
 1971 0000 00 00 00 00             		.long	0
 1972 0004 00 00 FF FF             		.long	0xffff
 1973                             		.section	.rodata.ProtocolErasingAccessTable,"a",@progbits
 1974                             		.balign 4
 1977                             	_ProtocolErasingAccessTable:
 1978 0000 00 10 00 00             		.long	0x100000
 1979 0004 00 10 03 FF             		.long	0x1003ff
 1980 0008 FF FC 00 00             		.long	0xfffc0000
 1981 000c FF FC 6F FF             		.long	0xfffc6fff
 1982                             		.section	.rodata.ProtocolWritingAccessTable,"a",@progbits
 1983                             		.balign 4
 1986                             	_ProtocolWritingAccessTable:
 1987 0000 00 10 00 00             		.long	0x100000
 1988 0004 00 10 03 FF             		.long	0x1003ff
 1989 0008 00 10 08 00             		.long	0x100800
 1990 000c 00 10 08 FF             		.long	0x1008ff
 1991 0010 FF FC 00 00             		.long	0xfffc0000
 1992 0014 FF FC 6F FF             		.long	0xfffc6fff
 2391                             	.Letext0:
 2392                             		.file 2 "C:\\Workspace\\FW_Inertia\\branch_indesit\\HAL\\HAL_General/StandardTypes.h"
 2393                             		.file 3 "C:\\Workspace\\FW_Inertia\\branch_indesit\\OS\\EmbOS\\RX200_GNU\\V388\\Inc/RTOS.h"
 2394                             		.file 4 "C:\\Workspace\\FW_Inertia\\branch_indesit\\ProductModules\\PM_EnergyMeterSw/PM_EnergyMete
 2395                             		.file 5 "C:\\Workspace\\FW_Inertia\\branch_indesit\\HAL\\RN_RX200/RN_RX200_reg.h"
 2396                             		.file 6 "C:\\Workspace\\FW_Inertia\\branch_indesit\\HAL\\RN_RX200/RN_RX200_cfg.h"
 2397                             		.file 7 "C:\\Workspace\\FW_Inertia\\branch_indesit\\Drivers/IO_driver.h"
 2398                             		.file 8 "C:\\Workspace\\FW_Inertia\\branch_indesit\\ProductModules\\PM_BusCOMM/BCP_General.h"
 2399                             		.file 9 "C:\\Workspace\\FW_Inertia\\branch_indesit\\ProductModules\\PM_BusCOMM/BCP_PlatformProtoco
 2400                             		.file 10 "C:\\Workspace\\FW_Inertia\\branch_indesit\\ProductModules\\PM_BusCOMM/CSM_PlatformProtoc
 2401                             		.file 11 "C:/Workspace/FW_Inertia/branch_indesit/CFG_DishWasher/CFG_Inertia/BusCommPltf_cfg.h"
 2402                             		.file 12 "C:\\Workspace\\FW_Inertia\\branch_indesit\\PlatformLibrary\\LIB_IOManager/OutputManagerE
 2403                             		.file 13 "C:\\Workspace\\FW_Inertia\\branch_indesit\\Main\\EmbOS/MainInterface.h"
 2404                             		.file 14 "C:\\Workspace\\FW_Inertia\\branch_indesit\\ProductModules\\PM_Library/Lib_Utilities.h"
 2405                             		.file 15 "C:\\Workspace\\FW_Inertia\\branch_indesit\\ProductModules\\PM_PowerProfile/PM_PowerProfi
 2406                             		.file 16 "C:\\Workspace\\FW_Inertia\\branch_indesit\\PlatformLibrary\\LIB_IOManager/ExternalOutput
 2407                             		.file 17 "C:\\Workspace\\FW_Inertia\\branch_indesit\\CFG_DishWasher\\CFG_Inertia/Config.h"
 2408                             		.file 18 "C:\\Workspace\\FW_Inertia\\branch_indesit\\ProductModules\\PM_PowerProfile/PM_PowerProfi
 2409                             		.file 19 "C:\\Workspace\\FW_Inertia\\branch_indesit\\ProductModules\\PM_EnergyMeterSw/PM_EnergyMet
 2410                             		.file 20 "C:\\Workspace\\FW_Inertia\\branch_indesit\\PlatformLibrary\\LIB_Reset/LIB_ResetExp.h"
 2411                             		.file 21 "C:\\Workspace\\FW_Inertia\\branch_indesit\\ProductModules\\PM_BusCOMM/BCP_BusCommMng.h"
 2412                             		.file 22 "C:\\Workspace\\FW_Inertia\\branch_indesit\\Drivers\\OCFLS/OCFLS_drv.h"
 2413                             		.file 23 "C:\\Workspace\\FW_Inertia\\branch_indesit\\PlatformLibrary/callback.h"
 2414                             		.file 24 "C:\\Workspace\\FW_Inertia\\branch_indesit\\PlatformLibrary\\LIB_Reset/LIB_Reset.h"
 2415                             		.file 25 "C:\\Workspace\\FW_Inertia\\branch_indesit\\Drivers\\OCRST/OCRST_drv.h"
 2416                             		.file 26 "C:\\Workspace\\FW_Inertia\\branch_indesit\\Drivers\\OCI2C/OCI2C_drv.h"
 2417                             		.file 27 "C:\\Workspace\\FW_Inertia\\branch_indesit\\Drivers\\OCUART/OCUART_drv.h"
DEFINED SYMBOLS
                            *ABS*:00000000 BusCommPltf_cfg.c
C:\Users\Andrea\AppData\Local\Temp\ccAadmBZ.s:6      .text.EndOfPowerProfileRequest:00000000 _EndOfPowerProfileRequest
C:\Users\Andrea\AppData\Local\Temp\ccAadmBZ.s:11     .text.EndOfPowerProfileRequest:00000000 L0
C:\Users\Andrea\AppData\Local\Temp\ccAadmBZ.s:18     .text.Set_CPApplianceDataItem:00000000 _Set_CPApplianceDataItem
C:\Users\Andrea\AppData\Local\Temp\ccAadmBZ.s:23     .text.Set_CPApplianceDataItem:00000000 L0
C:\Users\Andrea\AppData\Local\Temp\ccAadmBZ.s:1867   .bss.CPApplianceDataTable:00000000 _CPApplianceDataTable
C:\Users\Andrea\AppData\Local\Temp\ccAadmBZ.s:38     .text.UseRegs:00000000 _UseRegs
C:\Users\Andrea\AppData\Local\Temp\ccAadmBZ.s:42     .text.UseRegs:00000000 L0
C:\Users\Andrea\AppData\Local\Temp\ccAadmBZ.s:1873   .bss.SemaRegs:00000000 _SemaRegs
C:\Users\Andrea\AppData\Local\Temp\ccAadmBZ.s:50     .text.UnuseRegs:00000000 _UnuseRegs
C:\Users\Andrea\AppData\Local\Temp\ccAadmBZ.s:54     .text.UnuseRegs:00000000 L0
C:\Users\Andrea\AppData\Local\Temp\ccAadmBZ.s:62     .text.UseUiInfo:00000000 _UseUiInfo
C:\Users\Andrea\AppData\Local\Temp\ccAadmBZ.s:66     .text.UseUiInfo:00000000 L0
C:\Users\Andrea\AppData\Local\Temp\ccAadmBZ.s:1889   .bss.SemaUiInfo:00000000 _SemaUiInfo
C:\Users\Andrea\AppData\Local\Temp\ccAadmBZ.s:74     .text.UnuseUiInfo:00000000 _UnuseUiInfo
C:\Users\Andrea\AppData\Local\Temp\ccAadmBZ.s:78     .text.UnuseUiInfo:00000000 L0
C:\Users\Andrea\AppData\Local\Temp\ccAadmBZ.s:86     .text.CP_GetExternalBoardCommStatus:00000000 _CP_GetExternalBoardCommStatus
C:\Users\Andrea\AppData\Local\Temp\ccAadmBZ.s:91     .text.CP_GetExternalBoardCommStatus:00000000 L0
C:\Users\Andrea\AppData\Local\Temp\ccAadmBZ.s:1894   .bss.ExternalBoardCommStatus:00000000 _ExternalBoardCommStatus
C:\Users\Andrea\AppData\Local\Temp\ccAadmBZ.s:99     .text.CP_ResetExternalBoardCommStatus:00000000 _CP_ResetExternalBoardCommStatus
C:\Users\Andrea\AppData\Local\Temp\ccAadmBZ.s:103    .text.CP_ResetExternalBoardCommStatus:00000000 L0
C:\Users\Andrea\AppData\Local\Temp\ccAadmBZ.s:111    .text.PP_EosnFunction:00000000 _PP_EosnFunction
C:\Users\Andrea\AppData\Local\Temp\ccAadmBZ.s:114    .text.PP_EosnFunction:00000000 L0
C:\Users\Andrea\AppData\Local\Temp\ccAadmBZ.s:1839   .rodata.BCP_ChannelTable:00000000 _BCP_ChannelTable
C:\Users\Andrea\AppData\Local\Temp\ccAadmBZ.s:162    .text.ActionComm:00000000 _ActionComm
C:\Users\Andrea\AppData\Local\Temp\ccAadmBZ.s:167    .text.ActionComm:00000000 L0
C:\Users\Andrea\AppData\Local\Temp\ccAadmBZ.s:1900   .bss.CP_CommunicationTaskTCB:00000000 _CP_CommunicationTaskTCB
C:\Users\Andrea\AppData\Local\Temp\ccAadmBZ.s:193    .text.CMS_EE_FUNC_Ctrl_DspExtraRequest:00000000 _CMS_EE_FUNC_Ctrl_DspExtraRequest
C:\Users\Andrea\AppData\Local\Temp\ccAadmBZ.s:197    .text.CMS_EE_FUNC_Ctrl_DspExtraRequest:00000000 L0
C:\Users\Andrea\AppData\Local\Temp\ccAadmBZ.s:222    .text.CMS_EE_FUNC_Ctrl_DspReadRamRequest:00000000 _CMS_EE_FUNC_Ctrl_DspReadRamRequest
C:\Users\Andrea\AppData\Local\Temp\ccAadmBZ.s:226    .text.CMS_EE_FUNC_Ctrl_DspReadRamRequest:00000000 L0
C:\Users\Andrea\AppData\Local\Temp\ccAadmBZ.s:251    .text.CMS_EE_FUNC_Ctrl_DspWriteRamRequest:00000000 _CMS_EE_FUNC_Ctrl_DspWriteRamRequest
C:\Users\Andrea\AppData\Local\Temp\ccAadmBZ.s:255    .text.CMS_EE_FUNC_Ctrl_DspWriteRamRequest:00000000 L0
C:\Users\Andrea\AppData\Local\Temp\ccAadmBZ.s:280    .text.CMS_EE_FUNC_Ctrl_InfoDspRequest:00000000 _CMS_EE_FUNC_Ctrl_InfoDspRequest
C:\Users\Andrea\AppData\Local\Temp\ccAadmBZ.s:284    .text.CMS_EE_FUNC_Ctrl_InfoDspRequest:00000000 L0
C:\Users\Andrea\AppData\Local\Temp\ccAadmBZ.s:1861   .data.normVpeak:00000000 _normVpeak
C:\Users\Andrea\AppData\Local\Temp\ccAadmBZ.s:318    .text.CMS_EE_FUNC_Ctrl_CmdDspRequest:00000000 _CMS_EE_FUNC_Ctrl_CmdDspRequest
C:\Users\Andrea\AppData\Local\Temp\ccAadmBZ.s:322    .text.CMS_EE_FUNC_Ctrl_CmdDspRequest:00000000 L0
C:\Users\Andrea\AppData\Local\Temp\ccAadmBZ.s:369    .text.CMS_EE_FUNC_EE_PowerProfileReq:00000000 _CMS_EE_FUNC_EE_PowerProfileReq
C:\Users\Andrea\AppData\Local\Temp\ccAadmBZ.s:373    .text.CMS_EE_FUNC_EE_PowerProfileReq:00000000 L0
C:\Users\Andrea\AppData\Local\Temp\ccAadmBZ.s:1905   .bss.num:00000000 _num
C:\Users\Andrea\AppData\Local\Temp\ccAadmBZ.s:1910   .rodata.PowerProfileError:00000000 _PowerProfileError
C:\Users\Andrea\AppData\Local\Temp\ccAadmBZ.s:452    .text.CMS_EE_FUNC_EE_ReadPowerMeter:00000000 _CMS_EE_FUNC_EE_ReadPowerMeter
C:\Users\Andrea\AppData\Local\Temp\ccAadmBZ.s:456    .text.CMS_EE_FUNC_EE_ReadPowerMeter:00000000 L0
                            *COM*:0000000a _PowerMeterBuffer
C:\Users\Andrea\AppData\Local\Temp\ccAadmBZ.s:560    .text.CMS_EE_FUNC_EE_SetLoads:00000000 _CMS_EE_FUNC_EE_SetLoads
C:\Users\Andrea\AppData\Local\Temp\ccAadmBZ.s:564    .text.CMS_EE_FUNC_EE_SetLoads:00000000 L0
C:\Users\Andrea\AppData\Local\Temp\ccAadmBZ.s:594    .text.CMS_EE_FUNC_EE_SystemMode:00000000 _CMS_EE_FUNC_EE_SystemMode
C:\Users\Andrea\AppData\Local\Temp\ccAadmBZ.s:597    .text.CMS_EE_FUNC_EE_SystemMode:00000000 L0
C:\Users\Andrea\AppData\Local\Temp\ccAadmBZ.s:716    .text.CMS_EE_FUNC_BS_SetLoads:00000000 _CMS_EE_FUNC_BS_SetLoads
C:\Users\Andrea\AppData\Local\Temp\ccAadmBZ.s:720    .text.CMS_EE_FUNC_BS_SetLoads:00000000 L0
C:\Users\Andrea\AppData\Local\Temp\ccAadmBZ.s:750    .text.CP_SlaveManager.isra.1:00000000 _CP_SlaveManager.isra.1
C:\Users\Andrea\AppData\Local\Temp\ccAadmBZ.s:754    .text.CP_SlaveManager.isra.1:00000000 L0
C:\Users\Andrea\AppData\Local\Temp\ccAadmBZ.s:1934   .rodata.WRRemapTable:00000000 _WRRemapTable
C:\Users\Andrea\AppData\Local\Temp\ccAadmBZ.s:1942   .rodata.RFRemapTable:00000000 _RFRemapTable
C:\Users\Andrea\AppData\Local\Temp\ccAadmBZ.s:1959   .rodata.ProtocolReadingAccessTable:00000000 _ProtocolReadingAccessTable
C:\Users\Andrea\AppData\Local\Temp\ccAadmBZ.s:1970   .rodata.ProtocolWritingRamAccessTable:00000000 _ProtocolWritingRamAccessTable
C:\Users\Andrea\AppData\Local\Temp\ccAadmBZ.s:1977   .rodata.ProtocolErasingAccessTable:00000000 _ProtocolErasingAccessTable
C:\Users\Andrea\AppData\Local\Temp\ccAadmBZ.s:1986   .rodata.ProtocolWritingAccessTable:00000000 _ProtocolWritingAccessTable
C:\Users\Andrea\AppData\Local\Temp\ccAadmBZ.s:1592   .text.CommunicationProtocolTask:00000000 _CommunicationProtocolTask
C:\Users\Andrea\AppData\Local\Temp\ccAadmBZ.s:1595   .text.CommunicationProtocolTask:00000000 L0
C:\Users\Andrea\AppData\Local\Temp\ccAadmBZ.s:1878   .bss.BCP_I2CTxBuffer:00000000 _BCP_I2CTxBuffer
C:\Users\Andrea\AppData\Local\Temp\ccAadmBZ.s:1883   .bss.BCP_UARTRxBuffer:00000000 _BCP_UARTRxBuffer
C:\Users\Andrea\AppData\Local\Temp\ccAadmBZ.s:1676   .text.CP_I2CCommunicationPlatformInit:00000000 _CP_I2CCommunicationPlatformInit
C:\Users\Andrea\AppData\Local\Temp\ccAadmBZ.s:1679   .text.CP_I2CCommunicationPlatformInit:00000000 L0
C:\Users\Andrea\AppData\Local\Temp\ccAadmBZ.s:1916   .osstack:00000000 _CP_CommunicationTaskStack
C:\Users\Andrea\AppData\Local\Temp\ccAadmBZ.s:1928   .osstack:00000200 _CP_UartParserTaskStack
C:\Users\Andrea\AppData\Local\Temp\ccAadmBZ.s:1922   .bss.CP_UartParserTaskTCB:00000000 _CP_UartParserTaskTCB
C:\Users\Andrea\AppData\Local\Temp\ccAadmBZ.s:1754   .text.CP_UartParserTask:00000000 _CP_UartParserTask
C:\Users\Andrea\AppData\Local\Temp\ccAadmBZ.s:1739   .text.CP_UART_EnableComm:00000000 _CP_UART_EnableComm
C:\Users\Andrea\AppData\Local\Temp\ccAadmBZ.s:1743   .text.CP_UART_EnableComm:00000000 L0
C:\Users\Andrea\AppData\Local\Temp\ccAadmBZ.s:1757   .text.CP_UartParserTask:00000000 L0
C:\Users\Andrea\AppData\Local\Temp\ccAadmBZ.s:1811   .text.CP_UART_DisableComm:00000000 _CP_UART_DisableComm
C:\Users\Andrea\AppData\Local\Temp\ccAadmBZ.s:1815   .text.CP_UART_DisableComm:00000000 L0
C:\Users\Andrea\AppData\Local\Temp\ccAadmBZ.s:1822   .text.CP_GetPPAddr:00000000 _CP_GetPPAddr
C:\Users\Andrea\AppData\Local\Temp\ccAadmBZ.s:1827   .text.CP_GetPPAddr:00000000 L0
C:\Users\Andrea\AppData\Local\Temp\ccAadmBZ.s:1669   .rodata.str1.1:00000000 .LC0
C:\Users\Andrea\AppData\Local\Temp\ccAadmBZ.s:1671   .rodata.str1.1:0000001a .LC1
C:\Users\Andrea\AppData\Local\Temp\ccAadmBZ.s:1994   .debug_frame:00000000 .Lframe0
C:\Users\Andrea\AppData\Local\Temp\ccAadmBZ.s:7      .text.EndOfPowerProfileRequest:00000000 .LFB15
C:\Users\Andrea\AppData\Local\Temp\ccAadmBZ.s:19     .text.Set_CPApplianceDataItem:00000000 .LFB0
C:\Users\Andrea\AppData\Local\Temp\ccAadmBZ.s:39     .text.UseRegs:00000000 .LFB1
C:\Users\Andrea\AppData\Local\Temp\ccAadmBZ.s:51     .text.UnuseRegs:00000000 .LFB2
C:\Users\Andrea\AppData\Local\Temp\ccAadmBZ.s:63     .text.UseUiInfo:00000000 .LFB3
C:\Users\Andrea\AppData\Local\Temp\ccAadmBZ.s:75     .text.UnuseUiInfo:00000000 .LFB4
C:\Users\Andrea\AppData\Local\Temp\ccAadmBZ.s:87     .text.CP_GetExternalBoardCommStatus:00000000 .LFB5
C:\Users\Andrea\AppData\Local\Temp\ccAadmBZ.s:100    .text.CP_ResetExternalBoardCommStatus:00000000 .LFB6
C:\Users\Andrea\AppData\Local\Temp\ccAadmBZ.s:112    .text.PP_EosnFunction:00000000 .LFB7
C:\Users\Andrea\AppData\Local\Temp\ccAadmBZ.s:163    .text.ActionComm:00000000 .LFB8
C:\Users\Andrea\AppData\Local\Temp\ccAadmBZ.s:194    .text.CMS_EE_FUNC_Ctrl_DspExtraRequest:00000000 .LFB10
C:\Users\Andrea\AppData\Local\Temp\ccAadmBZ.s:223    .text.CMS_EE_FUNC_Ctrl_DspReadRamRequest:00000000 .LFB11
C:\Users\Andrea\AppData\Local\Temp\ccAadmBZ.s:252    .text.CMS_EE_FUNC_Ctrl_DspWriteRamRequest:00000000 .LFB12
C:\Users\Andrea\AppData\Local\Temp\ccAadmBZ.s:281    .text.CMS_EE_FUNC_Ctrl_InfoDspRequest:00000000 .LFB13
C:\Users\Andrea\AppData\Local\Temp\ccAadmBZ.s:319    .text.CMS_EE_FUNC_Ctrl_CmdDspRequest:00000000 .LFB14
C:\Users\Andrea\AppData\Local\Temp\ccAadmBZ.s:370    .text.CMS_EE_FUNC_EE_PowerProfileReq:00000000 .LFB16
C:\Users\Andrea\AppData\Local\Temp\ccAadmBZ.s:453    .text.CMS_EE_FUNC_EE_ReadPowerMeter:00000000 .LFB17
C:\Users\Andrea\AppData\Local\Temp\ccAadmBZ.s:561    .text.CMS_EE_FUNC_EE_SetLoads:00000000 .LFB18
C:\Users\Andrea\AppData\Local\Temp\ccAadmBZ.s:595    .text.CMS_EE_FUNC_EE_SystemMode:00000000 .LFB20
C:\Users\Andrea\AppData\Local\Temp\ccAadmBZ.s:717    .text.CMS_EE_FUNC_BS_SetLoads:00000000 .LFB21
C:\Users\Andrea\AppData\Local\Temp\ccAadmBZ.s:751    .text.CP_SlaveManager.isra.1:00000000 .LFB35
C:\Users\Andrea\AppData\Local\Temp\ccAadmBZ.s:1593   .text.CommunicationProtocolTask:00000000 .LFB29
C:\Users\Andrea\AppData\Local\Temp\ccAadmBZ.s:1677   .text.CP_I2CCommunicationPlatformInit:00000000 .LFB28
C:\Users\Andrea\AppData\Local\Temp\ccAadmBZ.s:1740   .text.CP_UART_EnableComm:00000000 .LFB31
C:\Users\Andrea\AppData\Local\Temp\ccAadmBZ.s:1755   .text.CP_UartParserTask:00000000 .LFB30
C:\Users\Andrea\AppData\Local\Temp\ccAadmBZ.s:1812   .text.CP_UART_DisableComm:00000000 .LFB32
C:\Users\Andrea\AppData\Local\Temp\ccAadmBZ.s:1823   .text.CP_GetPPAddr:00000000 .LFB33
C:\Users\Andrea\AppData\Local\Temp\ccAadmBZ.s:9468   .debug_abbrev:00000000 .Ldebug_abbrev0
C:\Users\Andrea\AppData\Local\Temp\ccAadmBZ.s:13334  .debug_str:000015b5 .LASF462
C:\Users\Andrea\AppData\Local\Temp\ccAadmBZ.s:13064  .debug_str:00000de4 .LASF463
C:\Users\Andrea\AppData\Local\Temp\ccAadmBZ.s:12556  .debug_ranges:00000000 .Ldebug_ranges0
C:\Users\Andrea\AppData\Local\Temp\ccAadmBZ.s:12614  .debug_line:00000000 .Ldebug_line0
C:\Users\Andrea\AppData\Local\Temp\ccAadmBZ.s:13378  .debug_str:000016ec .LASF0
C:\Users\Andrea\AppData\Local\Temp\ccAadmBZ.s:13268  .debug_str:000013a4 .LASF2
C:\Users\Andrea\AppData\Local\Temp\ccAadmBZ.s:13474  .debug_str:000019ea .LASF1
C:\Users\Andrea\AppData\Local\Temp\ccAadmBZ.s:13460  .debug_str:00001993 .LASF3
C:\Users\Andrea\AppData\Local\Temp\ccAadmBZ.s:12986  .debug_str:00000b76 .LASF4
C:\Users\Andrea\AppData\Local\Temp\ccAadmBZ.s:12748  .debug_str:000003aa .LASF5
C:\Users\Andrea\AppData\Local\Temp\ccAadmBZ.s:13258  .debug_str:00001342 .LASF6
C:\Users\Andrea\AppData\Local\Temp\ccAadmBZ.s:13068  .debug_str:00000e5b .LASF7
C:\Users\Andrea\AppData\Local\Temp\ccAadmBZ.s:13260  .debug_str:00001359 .LASF8
C:\Users\Andrea\AppData\Local\Temp\ccAadmBZ.s:12804  .debug_str:0000059f .LASF9
C:\Users\Andrea\AppData\Local\Temp\ccAadmBZ.s:12620  .debug_str:00000029 .LASF10
C:\Users\Andrea\AppData\Local\Temp\ccAadmBZ.s:12654  .debug_str:0000011c .LASF11
C:\Users\Andrea\AppData\Local\Temp\ccAadmBZ.s:13408  .debug_str:0000180f .LASF12
C:\Users\Andrea\AppData\Local\Temp\ccAadmBZ.s:13132  .debug_str:00000ffa .LASF13
C:\Users\Andrea\AppData\Local\Temp\ccAadmBZ.s:13122  .debug_str:00000fa3 .LASF25
C:\Users\Andrea\AppData\Local\Temp\ccAadmBZ.s:13372  .debug_str:000016d2 .LASF14
C:\Users\Andrea\AppData\Local\Temp\ccAadmBZ.s:12820  .debug_str:00000628 .LASF15
C:\Users\Andrea\AppData\Local\Temp\ccAadmBZ.s:13170  .debug_str:000010de .LASF16
C:\Users\Andrea\AppData\Local\Temp\ccAadmBZ.s:12628  .debug_str:0000007a .LASF17
C:\Users\Andrea\AppData\Local\Temp\ccAadmBZ.s:13472  .debug_str:000019dd .LASF18
C:\Users\Andrea\AppData\Local\Temp\ccAadmBZ.s:12684  .debug_str:00000226 .LASF19
C:\Users\Andrea\AppData\Local\Temp\ccAadmBZ.s:13374  .debug_str:000016d7 .LASF20
C:\Users\Andrea\AppData\Local\Temp\ccAadmBZ.s:12734  .debug_str:00000362 .LASF21
C:\Users\Andrea\AppData\Local\Temp\ccAadmBZ.s:13326  .debug_str:00001588 .LASF22
C:\Users\Andrea\AppData\Local\Temp\ccAadmBZ.s:13376  .debug_str:000016e4 .LASF23
C:\Users\Andrea\AppData\Local\Temp\ccAadmBZ.s:12980  .debug_str:00000b41 .LASF24
C:\Users\Andrea\AppData\Local\Temp\ccAadmBZ.s:12950  .debug_str:00000a73 .LASF26
C:\Users\Andrea\AppData\Local\Temp\ccAadmBZ.s:13510  .debug_str:00001b2c .LASF27
C:\Users\Andrea\AppData\Local\Temp\ccAadmBZ.s:13104  .debug_str:00000f54 .LASF28
C:\Users\Andrea\AppData\Local\Temp\ccAadmBZ.s:13058  .debug_str:00000dc8 .LASF29
C:\Users\Andrea\AppData\Local\Temp\ccAadmBZ.s:12864  .debug_str:000007bd .LASF30
C:\Users\Andrea\AppData\Local\Temp\ccAadmBZ.s:13176  .debug_str:000010f8 .LASF31
C:\Users\Andrea\AppData\Local\Temp\ccAadmBZ.s:12756  .debug_str:000003e1 .LASF32
C:\Users\Andrea\AppData\Local\Temp\ccAadmBZ.s:12656  .debug_str:00000128 .LASF33
C:\Users\Andrea\AppData\Local\Temp\ccAadmBZ.s:13114  .debug_str:00000f71 .LASF34
C:\Users\Andrea\AppData\Local\Temp\ccAadmBZ.s:13204  .debug_str:000011a0 .LASF35
C:\Users\Andrea\AppData\Local\Temp\ccAadmBZ.s:12952  .debug_str:00000a82 .LASF36
C:\Users\Andrea\AppData\Local\Temp\ccAadmBZ.s:13244  .debug_str:000012b7 .LASF37
C:\Users\Andrea\AppData\Local\Temp\ccAadmBZ.s:13386  .debug_str:00001750 .LASF38
C:\Users\Andrea\AppData\Local\Temp\ccAadmBZ.s:13466  .debug_str:000019b3 .LASF39
C:\Users\Andrea\AppData\Local\Temp\ccAadmBZ.s:13010  .debug_str:00000c3b .LASF40
C:\Users\Andrea\AppData\Local\Temp\ccAadmBZ.s:13184  .debug_str:00001125 .LASF41
C:\Users\Andrea\AppData\Local\Temp\ccAadmBZ.s:12936  .debug_str:00000a05 .LASF42
C:\Users\Andrea\AppData\Local\Temp\ccAadmBZ.s:12640  .debug_str:000000b2 .LASF43
C:\Users\Andrea\AppData\Local\Temp\ccAadmBZ.s:13360  .debug_str:00001679 .LASF44
C:\Users\Andrea\AppData\Local\Temp\ccAadmBZ.s:12664  .debug_str:00000155 .LASF45
C:\Users\Andrea\AppData\Local\Temp\ccAadmBZ.s:12658  .debug_str:0000012f .LASF46
C:\Users\Andrea\AppData\Local\Temp\ccAadmBZ.s:13528  .debug_str:00001b78 .LASF47
C:\Users\Andrea\AppData\Local\Temp\ccAadmBZ.s:12958  .debug_str:00000aad .LASF48
C:\Users\Andrea\AppData\Local\Temp\ccAadmBZ.s:12792  .debug_str:00000536 .LASF49
C:\Users\Andrea\AppData\Local\Temp\ccAadmBZ.s:13314  .debug_str:00001518 .LASF50
C:\Users\Andrea\AppData\Local\Temp\ccAadmBZ.s:13238  .debug_str:00001292 .LASF51
C:\Users\Andrea\AppData\Local\Temp\ccAadmBZ.s:13270  .debug_str:000013ad .LASF52
C:\Users\Andrea\AppData\Local\Temp\ccAadmBZ.s:13006  .debug_str:00000c17 .LASF53
C:\Users\Andrea\AppData\Local\Temp\ccAadmBZ.s:12880  .debug_str:00000841 .LASF54
C:\Users\Andrea\AppData\Local\Temp\ccAadmBZ.s:13450  .debug_str:0000193f .LASF55
C:\Users\Andrea\AppData\Local\Temp\ccAadmBZ.s:13116  .debug_str:00000f7b .LASF56
C:\Users\Andrea\AppData\Local\Temp\ccAadmBZ.s:12842  .debug_str:000006f0 .LASF57
C:\Users\Andrea\AppData\Local\Temp\ccAadmBZ.s:12712  .debug_str:000002dc .LASF58
C:\Users\Andrea\AppData\Local\Temp\ccAadmBZ.s:13308  .debug_str:000014ea .LASF59
C:\Users\Andrea\AppData\Local\Temp\ccAadmBZ.s:12826  .debug_str:00000647 .LASF60
C:\Users\Andrea\AppData\Local\Temp\ccAadmBZ.s:13024  .debug_str:00000cd5 .LASF61
C:\Users\Andrea\AppData\Local\Temp\ccAadmBZ.s:12976  .debug_str:00000b27 .LASF62
C:\Users\Andrea\AppData\Local\Temp\ccAadmBZ.s:13296  .debug_str:00001497 .LASF63
C:\Users\Andrea\AppData\Local\Temp\ccAadmBZ.s:12832  .debug_str:0000068a .LASF64
C:\Users\Andrea\AppData\Local\Temp\ccAadmBZ.s:13044  .debug_str:00000d4a .LASF65
C:\Users\Andrea\AppData\Local\Temp\ccAadmBZ.s:12780  .debug_str:000004c7 .LASF66
C:\Users\Andrea\AppData\Local\Temp\ccAadmBZ.s:12778  .debug_str:000004c2 .LASF67
C:\Users\Andrea\AppData\Local\Temp\ccAadmBZ.s:13364  .debug_str:0000168a .LASF68
C:\Users\Andrea\AppData\Local\Temp\ccAadmBZ.s:13072  .debug_str:00000e74 .LASF69
C:\Users\Andrea\AppData\Local\Temp\ccAadmBZ.s:13046  .debug_str:00000d53 .LASF70
C:\Users\Andrea\AppData\Local\Temp\ccAadmBZ.s:12718  .debug_str:00000302 .LASF71
C:\Users\Andrea\AppData\Local\Temp\ccAadmBZ.s:13548  .debug_str:00001c18 .LASF72
C:\Users\Andrea\AppData\Local\Temp\ccAadmBZ.s:13228  .debug_str:00001263 .LASF73
C:\Users\Andrea\AppData\Local\Temp\ccAadmBZ.s:13366  .debug_str:00001691 .LASF74
C:\Users\Andrea\AppData\Local\Temp\ccAadmBZ.s:13312  .debug_str:00001512 .LASF75
C:\Users\Andrea\AppData\Local\Temp\ccAadmBZ.s:13264  .debug_str:00001378 .LASF76
C:\Users\Andrea\AppData\Local\Temp\ccAadmBZ.s:12970  .debug_str:00000afb .LASF77
C:\Users\Andrea\AppData\Local\Temp\ccAadmBZ.s:13330  .debug_str:00001596 .LASF78
C:\Users\Andrea\AppData\Local\Temp\ccAadmBZ.s:12744  .debug_str:00000392 .LASF79
C:\Users\Andrea\AppData\Local\Temp\ccAadmBZ.s:12994  .debug_str:00000bc4 .LASF80
C:\Users\Andrea\AppData\Local\Temp\ccAadmBZ.s:13152  .debug_str:00001058 .LASF81
C:\Users\Andrea\AppData\Local\Temp\ccAadmBZ.s:12650  .debug_str:000000f4 .LASF82
C:\Users\Andrea\AppData\Local\Temp\ccAadmBZ.s:13402  .debug_str:000017e5 .LASF83
C:\Users\Andrea\AppData\Local\Temp\ccAadmBZ.s:13200  .debug_str:00001187 .LASF84
C:\Users\Andrea\AppData\Local\Temp\ccAadmBZ.s:13434  .debug_str:000018bb .LASF85
C:\Users\Andrea\AppData\Local\Temp\ccAadmBZ.s:13120  .debug_str:00000f9a .LASF86
C:\Users\Andrea\AppData\Local\Temp\ccAadmBZ.s:13430  .debug_str:000018ae .LASF87
C:\Users\Andrea\AppData\Local\Temp\ccAadmBZ.s:13362  .debug_str:00001685 .LASF88
C:\Users\Andrea\AppData\Local\Temp\ccAadmBZ.s:12634  .debug_str:0000008e .LASF89
C:\Users\Andrea\AppData\Local\Temp\ccAadmBZ.s:13418  .debug_str:00001858 .LASF90
C:\Users\Andrea\AppData\Local\Temp\ccAadmBZ.s:12632  .debug_str:00000089 .LASF91
C:\Users\Andrea\AppData\Local\Temp\ccAadmBZ.s:13416  .debug_str:00001853 .LASF92
C:\Users\Andrea\AppData\Local\Temp\ccAadmBZ.s:12728  .debug_str:00000349 .LASF93
C:\Users\Andrea\AppData\Local\Temp\ccAadmBZ.s:13032  .debug_str:00000d16 .LASF94
C:\Users\Andrea\AppData\Local\Temp\ccAadmBZ.s:13422  .debug_str:0000186f .LASF95
C:\Users\Andrea\AppData\Local\Temp\ccAadmBZ.s:13338  .debug_str:000015e6 .LASF96
C:\Users\Andrea\AppData\Local\Temp\ccAadmBZ.s:13352  .debug_str:00001647 .LASF97
C:\Users\Andrea\AppData\Local\Temp\ccAadmBZ.s:13506  .debug_str:00001b22 .LASF98
C:\Users\Andrea\AppData\Local\Temp\ccAadmBZ.s:13496  .debug_str:00001ad2 .LASF99
C:\Users\Andrea\AppData\Local\Temp\ccAadmBZ.s:13202  .debug_str:0000119b .LASF100
C:\Users\Andrea\AppData\Local\Temp\ccAadmBZ.s:13206  .debug_str:000011a5 .LASF101
C:\Users\Andrea\AppData\Local\Temp\ccAadmBZ.s:13208  .debug_str:000011aa .LASF102
C:\Users\Andrea\AppData\Local\Temp\ccAadmBZ.s:13282  .debug_str:000013fb .LASF103
C:\Users\Andrea\AppData\Local\Temp\ccAadmBZ.s:13106  .debug_str:00000f5b .LASF104
C:\Users\Andrea\AppData\Local\Temp\ccAadmBZ.s:12688  .debug_str:0000023d .LASF105
C:\Users\Andrea\AppData\Local\Temp\ccAadmBZ.s:12924  .debug_str:00000992 .LASF106
C:\Users\Andrea\AppData\Local\Temp\ccAadmBZ.s:13234  .debug_str:00001280 .LASF107
C:\Users\Andrea\AppData\Local\Temp\ccAadmBZ.s:13232  .debug_str:0000127a .LASF108
C:\Users\Andrea\AppData\Local\Temp\ccAadmBZ.s:13298  .debug_str:000014ae .LASF109
C:\Users\Andrea\AppData\Local\Temp\ccAadmBZ.s:12876  .debug_str:00000828 .LASF110
C:\Users\Andrea\AppData\Local\Temp\ccAadmBZ.s:13182  .debug_str:00001120 .LASF111
C:\Users\Andrea\AppData\Local\Temp\ccAadmBZ.s:12698  .debug_str:00000280 .LASF112
C:\Users\Andrea\AppData\Local\Temp\ccAadmBZ.s:13144  .debug_str:0000103b .LASF113
C:\Users\Andrea\AppData\Local\Temp\ccAadmBZ.s:13196  .debug_str:0000117d .LASF114
C:\Users\Andrea\AppData\Local\Temp\ccAadmBZ.s:13090  .debug_str:00000ef8 .LASF115
C:\Users\Andrea\AppData\Local\Temp\ccAadmBZ.s:12962  .debug_str:00000ace .LASF116
C:\Users\Andrea\AppData\Local\Temp\ccAadmBZ.s:13160  .debug_str:000010ae .LASF117
C:\Users\Andrea\AppData\Local\Temp\ccAadmBZ.s:13076  .debug_str:00000e88 .LASF118
C:\Users\Andrea\AppData\Local\Temp\ccAadmBZ.s:13280  .debug_str:000013f5 .LASF119
C:\Users\Andrea\AppData\Local\Temp\ccAadmBZ.s:13242  .debug_str:000012b1 .LASF120
C:\Users\Andrea\AppData\Local\Temp\ccAadmBZ.s:13392  .debug_str:0000179b .LASF121
C:\Users\Andrea\AppData\Local\Temp\ccAadmBZ.s:12798  .debug_str:00000567 .LASF122
C:\Users\Andrea\AppData\Local\Temp\ccAadmBZ.s:13098  .debug_str:00000f31 .LASF123
C:\Users\Andrea\AppData\Local\Temp\ccAadmBZ.s:12912  .debug_str:0000092f .LASF124
C:\Users\Andrea\AppData\Local\Temp\ccAadmBZ.s:12964  .debug_str:00000ad3 .LASF125
C:\Users\Andrea\AppData\Local\Temp\ccAadmBZ.s:13358  .debug_str:00001673 .LASF126
C:\Users\Andrea\AppData\Local\Temp\ccAadmBZ.s:13142  .debug_str:00001036 .LASF127
C:\Users\Andrea\AppData\Local\Temp\ccAadmBZ.s:13140  .debug_str:00001031 .LASF128
C:\Users\Andrea\AppData\Local\Temp\ccAadmBZ.s:13138  .debug_str:0000102c .LASF129
C:\Users\Andrea\AppData\Local\Temp\ccAadmBZ.s:13470  .debug_str:000019d8 .LASF130
C:\Users\Andrea\AppData\Local\Temp\ccAadmBZ.s:13542  .debug_str:00001bf6 .LASF131
C:\Users\Andrea\AppData\Local\Temp\ccAadmBZ.s:13464  .debug_str:000019ae .LASF132
C:\Users\Andrea\AppData\Local\Temp\ccAadmBZ.s:12710  .debug_str:000002d6 .LASF133
C:\Users\Andrea\AppData\Local\Temp\ccAadmBZ.s:13112  .debug_str:00000f6c .LASF134
C:\Users\Andrea\AppData\Local\Temp\ccAadmBZ.s:13514  .debug_str:00001b38 .LASF135
C:\Users\Andrea\AppData\Local\Temp\ccAadmBZ.s:13198  .debug_str:00001182 .LASF136
C:\Users\Andrea\AppData\Local\Temp\ccAadmBZ.s:13042  .debug_str:00000d45 .LASF137
C:\Users\Andrea\AppData\Local\Temp\ccAadmBZ.s:12946  .debug_str:00000a59 .LASF138
C:\Users\Andrea\AppData\Local\Temp\ccAadmBZ.s:12884  .debug_str:00000859 .LASF139
C:\Users\Andrea\AppData\Local\Temp\ccAadmBZ.s:12886  .debug_str:0000085f .LASF140
C:\Users\Andrea\AppData\Local\Temp\ccAadmBZ.s:12898  .debug_str:000008be .LASF141
C:\Users\Andrea\AppData\Local\Temp\ccAadmBZ.s:12900  .debug_str:000008c4 .LASF142
C:\Users\Andrea\AppData\Local\Temp\ccAadmBZ.s:12902  .debug_str:000008ca .LASF143
C:\Users\Andrea\AppData\Local\Temp\ccAadmBZ.s:13086  .debug_str:00000ed8 .LASF144
C:\Users\Andrea\AppData\Local\Temp\ccAadmBZ.s:12740  .debug_str:0000037a .LASF145
C:\Users\Andrea\AppData\Local\Temp\ccAadmBZ.s:12722  .debug_str:00000334 .LASF146
C:\Users\Andrea\AppData\Local\Temp\ccAadmBZ.s:13108  .debug_str:00000f60 .LASF147
C:\Users\Andrea\AppData\Local\Temp\ccAadmBZ.s:13110  .debug_str:00000f66 .LASF148
C:\Users\Andrea\AppData\Local\Temp\ccAadmBZ.s:13148  .debug_str:0000104c .LASF149
C:\Users\Andrea\AppData\Local\Temp\ccAadmBZ.s:13432  .debug_str:000018b5 .LASF150
C:\Users\Andrea\AppData\Local\Temp\ccAadmBZ.s:13150  .debug_str:00001052 .LASF151
C:\Users\Andrea\AppData\Local\Temp\ccAadmBZ.s:13350  .debug_str:00001641 .LASF152
C:\Users\Andrea\AppData\Local\Temp\ccAadmBZ.s:12782  .debug_str:000004d0 .LASF153
C:\Users\Andrea\AppData\Local\Temp\ccAadmBZ.s:13436  .debug_str:000018cf .LASF154
C:\Users\Andrea\AppData\Local\Temp\ccAadmBZ.s:12736  .debug_str:0000036e .LASF155
C:\Users\Andrea\AppData\Local\Temp\ccAadmBZ.s:12732  .debug_str:0000035c .LASF156
C:\Users\Andrea\AppData\Local\Temp\ccAadmBZ.s:13100  .debug_str:00000f36 .LASF157
C:\Users\Andrea\AppData\Local\Temp\ccAadmBZ.s:12894  .debug_str:000008a0 .LASF158
C:\Users\Andrea\AppData\Local\Temp\ccAadmBZ.s:13190  .debug_str:00001144 .LASF159
C:\Users\Andrea\AppData\Local\Temp\ccAadmBZ.s:13014  .debug_str:00000c7a .LASF160
C:\Users\Andrea\AppData\Local\Temp\ccAadmBZ.s:12934  .debug_str:000009f4 .LASF161
C:\Users\Andrea\AppData\Local\Temp\ccAadmBZ.s:13092  .debug_str:00000efd .LASF162
C:\Users\Andrea\AppData\Local\Temp\ccAadmBZ.s:12968  .debug_str:00000ae9 .LASF163
C:\Users\Andrea\AppData\Local\Temp\ccAadmBZ.s:13256  .debug_str:00001338 .LASF211
C:\Users\Andrea\AppData\Local\Temp\ccAadmBZ.s:12910  .debug_str:00000927 .LASF164
C:\Users\Andrea\AppData\Local\Temp\ccAadmBZ.s:13028  .debug_str:00000cec .LASF165
C:\Users\Andrea\AppData\Local\Temp\ccAadmBZ.s:12998  .debug_str:00000bd1 .LASF166
C:\Users\Andrea\AppData\Local\Temp\ccAadmBZ.s:12742  .debug_str:00000380 .LASF167
C:\Users\Andrea\AppData\Local\Temp\ccAadmBZ.s:13226  .debug_str:00001250 .LASF168
C:\Users\Andrea\AppData\Local\Temp\ccAadmBZ.s:12754  .debug_str:000003ce .LASF169
C:\Users\Andrea\AppData\Local\Temp\ccAadmBZ.s:13240  .debug_str:00001299 .LASF170
C:\Users\Andrea\AppData\Local\Temp\ccAadmBZ.s:12704  .debug_str:000002a1 .LASF171
C:\Users\Andrea\AppData\Local\Temp\ccAadmBZ.s:13462  .debug_str:0000199c .LASF172
C:\Users\Andrea\AppData\Local\Temp\ccAadmBZ.s:12830  .debug_str:00000674 .LASF173
C:\Users\Andrea\AppData\Local\Temp\ccAadmBZ.s:13102  .debug_str:00000f3c .LASF174
C:\Users\Andrea\AppData\Local\Temp\ccAadmBZ.s:12666  .debug_str:00000168 .LASF175
C:\Users\Andrea\AppData\Local\Temp\ccAadmBZ.s:12812  .debug_str:000005ea .LASF176
C:\Users\Andrea\AppData\Local\Temp\ccAadmBZ.s:13230  .debug_str:0000126a .LASF177
C:\Users\Andrea\AppData\Local\Temp\ccAadmBZ.s:12724  .debug_str:0000033a .LASF178
C:\Users\Andrea\AppData\Local\Temp\ccAadmBZ.s:13082  .debug_str:00000eb4 .LASF179
C:\Users\Andrea\AppData\Local\Temp\ccAadmBZ.s:12928  .debug_str:000009ad .LASF180
C:\Users\Andrea\AppData\Local\Temp\ccAadmBZ.s:13498  .debug_str:00001ad7 .LASF181
C:\Users\Andrea\AppData\Local\Temp\ccAadmBZ.s:12918  .debug_str:00000970 .LASF182
C:\Users\Andrea\AppData\Local\Temp\ccAadmBZ.s:13342  .debug_str:000015fd .LASF183
C:\Users\Andrea\AppData\Local\Temp\ccAadmBZ.s:12802  .debug_str:0000058c .LASF184
C:\Users\Andrea\AppData\Local\Temp\ccAadmBZ.s:12870  .debug_str:000007f2 .LASF185
C:\Users\Andrea\AppData\Local\Temp\ccAadmBZ.s:12648  .debug_str:000000e5 .LASF186
C:\Users\Andrea\AppData\Local\Temp\ccAadmBZ.s:13300  .debug_str:000014b3 .LASF187
C:\Users\Andrea\AppData\Local\Temp\ccAadmBZ.s:12644  .debug_str:000000c5 .LASF188
C:\Users\Andrea\AppData\Local\Temp\ccAadmBZ.s:12696  .debug_str:0000026b .LASF189
C:\Users\Andrea\AppData\Local\Temp\ccAadmBZ.s:13074  .debug_str:00000e7b .LASF190
C:\Users\Andrea\AppData\Local\Temp\ccAadmBZ.s:12828  .debug_str:00000665 .LASF191
C:\Users\Andrea\AppData\Local\Temp\ccAadmBZ.s:13412  .debug_str:00001839 .LASF192
C:\Users\Andrea\AppData\Local\Temp\ccAadmBZ.s:12904  .debug_str:000008d0 .LASF193
C:\Users\Andrea\AppData\Local\Temp\ccAadmBZ.s:13426  .debug_str:00001881 .LASF194
C:\Users\Andrea\AppData\Local\Temp\ccAadmBZ.s:13336  .debug_str:000015db .LASF195
C:\Users\Andrea\AppData\Local\Temp\ccAadmBZ.s:12730  .debug_str:0000034e .LASF196
C:\Users\Andrea\AppData\Local\Temp\ccAadmBZ.s:13096  .debug_str:00000f1f .LASF197
C:\Users\Andrea\AppData\Local\Temp\ccAadmBZ.s:12856  .debug_str:00000777 .LASF198
C:\Users\Andrea\AppData\Local\Temp\ccAadmBZ.s:12872  .debug_str:00000805 .LASF199
C:\Users\Andrea\AppData\Local\Temp\ccAadmBZ.s:13118  .debug_str:00000f88 .LASF200
C:\Users\Andrea\AppData\Local\Temp\ccAadmBZ.s:12700  .debug_str:00000285 .LASF201
C:\Users\Andrea\AppData\Local\Temp\ccAadmBZ.s:13022  .debug_str:00000ccc .LASF202
C:\Users\Andrea\AppData\Local\Temp\ccAadmBZ.s:12944  .debug_str:00000a52 .LASF203
C:\Users\Andrea\AppData\Local\Temp\ccAadmBZ.s:13000  .debug_str:00000bde .LASF204
C:\Users\Andrea\AppData\Local\Temp\ccAadmBZ.s:13414  .debug_str:00001846 .LASF205
C:\Users\Andrea\AppData\Local\Temp\ccAadmBZ.s:12646  .debug_str:000000d1 .LASF206
C:\Users\Andrea\AppData\Local\Temp\ccAadmBZ.s:13454  .debug_str:00001964 .LASF207
C:\Users\Andrea\AppData\Local\Temp\ccAadmBZ.s:13034  .debug_str:00000d1b .LASF208
C:\Users\Andrea\AppData\Local\Temp\ccAadmBZ.s:12920  .debug_str:0000097d .LASF209
C:\Users\Andrea\AppData\Local\Temp\ccAadmBZ.s:13524  .debug_str:00001b56 .LASF210
C:\Users\Andrea\AppData\Local\Temp\ccAadmBZ.s:13094  .debug_str:00000f0c .LASF212
C:\Users\Andrea\AppData\Local\Temp\ccAadmBZ.s:12642  .debug_str:000000b8 .LASF213
C:\Users\Andrea\AppData\Local\Temp\ccAadmBZ.s:13382  .debug_str:00001724 .LASF214
C:\Users\Andrea\AppData\Local\Temp\ccAadmBZ.s:12746  .debug_str:0000039d .LASF215
C:\Users\Andrea\AppData\Local\Temp\ccAadmBZ.s:13344  .debug_str:00001608 .LASF216
C:\Users\Andrea\AppData\Local\Temp\ccAadmBZ.s:13400  .debug_str:000017d7 .LASF217
C:\Users\Andrea\AppData\Local\Temp\ccAadmBZ.s:12686  .debug_str:0000022f .LASF218
C:\Users\Andrea\AppData\Local\Temp\ccAadmBZ.s:12676  .debug_str:000001d0 .LASF219
C:\Users\Andrea\AppData\Local\Temp\ccAadmBZ.s:13340  .debug_str:000015eb .LASF220
C:\Users\Andrea\AppData\Local\Temp\ccAadmBZ.s:13254  .debug_str:00001321 .LASF221
C:\Users\Andrea\AppData\Local\Temp\ccAadmBZ.s:13532  .debug_str:00001b87 .LASF222
C:\Users\Andrea\AppData\Local\Temp\ccAadmBZ.s:12942  .debug_str:00000a35 .LASF223
C:\Users\Andrea\AppData\Local\Temp\ccAadmBZ.s:13078  .debug_str:00000e8e .LASF224
C:\Users\Andrea\AppData\Local\Temp\ccAadmBZ.s:12940  .debug_str:00000a28 .LASF225
C:\Users\Andrea\AppData\Local\Temp\ccAadmBZ.s:12786  .debug_str:000004ee .LASF226
C:\Users\Andrea\AppData\Local\Temp\ccAadmBZ.s:12672  .debug_str:000001b6 .LASF227
C:\Users\Andrea\AppData\Local\Temp\ccAadmBZ.s:13448  .debug_str:00001932 .LASF228
C:\Users\Andrea\AppData\Local\Temp\ccAadmBZ.s:13306  .debug_str:000014dd .LASF229
C:\Users\Andrea\AppData\Local\Temp\ccAadmBZ.s:13192  .debug_str:00001159 .LASF230
C:\Users\Andrea\AppData\Local\Temp\ccAadmBZ.s:13406  .debug_str:0000180a .LASF231
C:\Users\Andrea\AppData\Local\Temp\ccAadmBZ.s:13442  .debug_str:000018f2 .LASF232
C:\Users\Andrea\AppData\Local\Temp\ccAadmBZ.s:13054  .debug_str:00000d90 .LASF233
C:\Users\Andrea\AppData\Local\Temp\ccAadmBZ.s:13302  .debug_str:000014c4 .LASF234
C:\Users\Andrea\AppData\Local\Temp\ccAadmBZ.s:12774  .debug_str:00000496 .LASF235
C:\Users\Andrea\AppData\Local\Temp\ccAadmBZ.s:13194  .debug_str:0000116a .LASF236
C:\Users\Andrea\AppData\Local\Temp\ccAadmBZ.s:13458  .debug_str:00001981 .LASF237
C:\Users\Andrea\AppData\Local\Temp\ccAadmBZ.s:13440  .debug_str:000018e3 .LASF238
C:\Users\Andrea\AppData\Local\Temp\ccAadmBZ.s:12752  .debug_str:000003bf .LASF464
C:\Users\Andrea\AppData\Local\Temp\ccAadmBZ.s:13530  .debug_str:00001b82 .LASF239
C:\Users\Andrea\AppData\Local\Temp\ccAadmBZ.s:12714  .debug_str:000002e4 .LASF240
C:\Users\Andrea\AppData\Local\Temp\ccAadmBZ.s:13356  .debug_str:00001667 .LASF241
C:\Users\Andrea\AppData\Local\Temp\ccAadmBZ.s:12996  .debug_str:00000bc9 .LASF242
C:\Users\Andrea\AppData\Local\Temp\ccAadmBZ.s:12762  .debug_str:0000042b .LASF243
C:\Users\Andrea\AppData\Local\Temp\ccAadmBZ.s:13008  .debug_str:00000c23 .LASF244
C:\Users\Andrea\AppData\Local\Temp\ccAadmBZ.s:12796  .debug_str:00000559 .LASF245
C:\Users\Andrea\AppData\Local\Temp\ccAadmBZ.s:12852  .debug_str:00000740 .LASF246
C:\Users\Andrea\AppData\Local\Temp\ccAadmBZ.s:12956  .debug_str:00000a98 .LASF247
C:\Users\Andrea\AppData\Local\Temp\ccAadmBZ.s:12866  .debug_str:000007c5 .LASF248
C:\Users\Andrea\AppData\Local\Temp\ccAadmBZ.s:13294  .debug_str:00001484 .LASF249
C:\Users\Andrea\AppData\Local\Temp\ccAadmBZ.s:13332  .debug_str:000015a1 .LASF250
C:\Users\Andrea\AppData\Local\Temp\ccAadmBZ.s:13060  .debug_str:00000dd2 .LASF251
C:\Users\Andrea\AppData\Local\Temp\ccAadmBZ.s:13062  .debug_str:00000ddb .LASF252
C:\Users\Andrea\AppData\Local\Temp\ccAadmBZ.s:13324  .debug_str:00001583 .LASF253
C:\Users\Andrea\AppData\Local\Temp\ccAadmBZ.s:12702  .debug_str:00000299 .LASF254
C:\Users\Andrea\AppData\Local\Temp\ccAadmBZ.s:12662  .debug_str:0000014e .LASF255
C:\Users\Andrea\AppData\Local\Temp\ccAadmBZ.s:12824  .debug_str:00000638 .LASF256
C:\Users\Andrea\AppData\Local\Temp\ccAadmBZ.s:12690  .debug_str:00000243 .LASF257
C:\Users\Andrea\AppData\Local\Temp\ccAadmBZ.s:13370  .debug_str:000016b7 .LASF258
C:\Users\Andrea\AppData\Local\Temp\ccAadmBZ.s:13478  .debug_str:00001a0f .LASF259
C:\Users\Andrea\AppData\Local\Temp\ccAadmBZ.s:13328  .debug_str:0000158d .LASF260
C:\Users\Andrea\AppData\Local\Temp\ccAadmBZ.s:13146  .debug_str:00001040 .LASF261
C:\Users\Andrea\AppData\Local\Temp\ccAadmBZ.s:12922  .debug_str:00000986 .LASF262
C:\Users\Andrea\AppData\Local\Temp\ccAadmBZ.s:12616  .debug_str:00000000 .LASF263
C:\Users\Andrea\AppData\Local\Temp\ccAadmBZ.s:12974  .debug_str:00000b1e .LASF264
C:\Users\Andrea\AppData\Local\Temp\ccAadmBZ.s:13188  .debug_str:00001137 .LASF265
C:\Users\Andrea\AppData\Local\Temp\ccAadmBZ.s:12694  .debug_str:0000025e .LASF266
C:\Users\Andrea\AppData\Local\Temp\ccAadmBZ.s:12838  .debug_str:000006bd .LASF267
C:\Users\Andrea\AppData\Local\Temp\ccAadmBZ.s:13210  .debug_str:000011af .LASF268
C:\Users\Andrea\AppData\Local\Temp\ccAadmBZ.s:12972  .debug_str:00000b06 .LASF269
C:\Users\Andrea\AppData\Local\Temp\ccAadmBZ.s:13516  .debug_str:00001b3e .LASF270
C:\Users\Andrea\AppData\Local\Temp\ccAadmBZ.s:13518  .debug_str:00001b44 .LASF271
C:\Users\Andrea\AppData\Local\Temp\ccAadmBZ.s:13520  .debug_str:00001b4a .LASF272
C:\Users\Andrea\AppData\Local\Temp\ccAadmBZ.s:13522  .debug_str:00001b50 .LASF273
C:\Users\Andrea\AppData\Local\Temp\ccAadmBZ.s:13172  .debug_str:000010ec .LASF274
C:\Users\Andrea\AppData\Local\Temp\ccAadmBZ.s:13550  .debug_str:00001c20 .LASF275
C:\Users\Andrea\AppData\Local\Temp\ccAadmBZ.s:13236  .debug_str:00001286 .LASF276
C:\Users\Andrea\AppData\Local\Temp\ccAadmBZ.s:13396  .debug_str:000017a6 .LASF277
C:\Users\Andrea\AppData\Local\Temp\ccAadmBZ.s:12846  .debug_str:000006fc .LASF278
C:\Users\Andrea\AppData\Local\Temp\ccAadmBZ.s:12726  .debug_str:00000344 .LASF279
C:\Users\Andrea\AppData\Local\Temp\ccAadmBZ.s:12930  .debug_str:000009bb .LASF280
C:\Users\Andrea\AppData\Local\Temp\ccAadmBZ.s:13174  .debug_str:000010f1 .LASF281
C:\Users\Andrea\AppData\Local\Temp\ccAadmBZ.s:12630  .debug_str:00000083 .LASF282
C:\Users\Andrea\AppData\Local\Temp\ccAadmBZ.s:13538  .debug_str:00001bc0 .LASF283
C:\Users\Andrea\AppData\Local\Temp\ccAadmBZ.s:12660  .debug_str:0000013b .LASF284
C:\Users\Andrea\AppData\Local\Temp\ccAadmBZ.s:13404  .debug_str:000017f8 .LASF285
C:\Users\Andrea\AppData\Local\Temp\ccAadmBZ.s:13390  .debug_str:00001780 .LASF286
C:\Users\Andrea\AppData\Local\Temp\ccAadmBZ.s:13456  .debug_str:0000196c .LASF287
C:\Users\Andrea\AppData\Local\Temp\ccAadmBZ.s:13158  .debug_str:0000109b .LASF288
C:\Users\Andrea\AppData\Local\Temp\ccAadmBZ.s:12878  .debug_str:0000082e .LASF289
C:\Users\Andrea\AppData\Local\Temp\ccAadmBZ.s:13246  .debug_str:000012c1 .LASF290
C:\Users\Andrea\AppData\Local\Temp\ccAadmBZ.s:13026  .debug_str:00000cdc .LASF291
C:\Users\Andrea\AppData\Local\Temp\ccAadmBZ.s:13320  .debug_str:00001560 .LASF292
C:\Users\Andrea\AppData\Local\Temp\ccAadmBZ.s:13482  .debug_str:00001a25 .LASF293
C:\Users\Andrea\AppData\Local\Temp\ccAadmBZ.s:12622  .debug_str:00000030 .LASF294
C:\Users\Andrea\AppData\Local\Temp\ccAadmBZ.s:13084  .debug_str:00000ec9 .LASF295
C:\Users\Andrea\AppData\Local\Temp\ccAadmBZ.s:12760  .debug_str:00000420 .LASF296
C:\Users\Andrea\AppData\Local\Temp\ccAadmBZ.s:13512  .debug_str:00001b32 .LASF297
C:\Users\Andrea\AppData\Local\Temp\ccAadmBZ.s:13224  .debug_str:00001244 .LASF298
C:\Users\Andrea\AppData\Local\Temp\ccAadmBZ.s:13488  .debug_str:00001a6f .LASF299
C:\Users\Andrea\AppData\Local\Temp\ccAadmBZ.s:12808  .debug_str:000005c0 .LASF300
C:\Users\Andrea\AppData\Local\Temp\ccAadmBZ.s:12692  .debug_str:0000024d .LASF301
C:\Users\Andrea\AppData\Local\Temp\ccAadmBZ.s:12888  .debug_str:00000865 .LASF302
C:\Users\Andrea\AppData\Local\Temp\ccAadmBZ.s:13318  .debug_str:00001544 .LASF303
C:\Users\Andrea\AppData\Local\Temp\ccAadmBZ.s:13504  .debug_str:00001b02 .LASF304
C:\Users\Andrea\AppData\Local\Temp\ccAadmBZ.s:12790  .debug_str:00000513 .LASF305
C:\Users\Andrea\AppData\Local\Temp\ccAadmBZ.s:13056  .debug_str:00000da4 .LASF306
C:\Users\Andrea\AppData\Local\Temp\ccAadmBZ.s:13290  .debug_str:0000145a .LASF307
C:\Users\Andrea\AppData\Local\Temp\ccAadmBZ.s:13168  .debug_str:000010cc .LASF308
C:\Users\Andrea\AppData\Local\Temp\ccAadmBZ.s:12794  .debug_str:0000053e .LASF309
C:\Users\Andrea\AppData\Local\Temp\ccAadmBZ.s:12908  .debug_str:00000909 .LASF310
C:\Users\Andrea\AppData\Local\Temp\ccAadmBZ.s:13536  .debug_str:00001ba9 .LASF311
C:\Users\Andrea\AppData\Local\Temp\ccAadmBZ.s:12626  .debug_str:0000005e .LASF312
C:\Users\Andrea\AppData\Local\Temp\ccAadmBZ.s:13380  .debug_str:000016f6 .LASF313
C:\Users\Andrea\AppData\Local\Temp\ccAadmBZ.s:12758  .debug_str:000003ea .LASF314
C:\Users\Andrea\AppData\Local\Temp\ccAadmBZ.s:13012  .debug_str:00000c4f .LASF315
C:\Users\Andrea\AppData\Local\Temp\ccAadmBZ.s:12652  .debug_str:000000fd .LASF316
C:\Users\Andrea\AppData\Local\Temp\ccAadmBZ.s:13410  .debug_str:00001816 .LASF317
C:\Users\Andrea\AppData\Local\Temp\ccAadmBZ.s:13484  .debug_str:00001a33 .LASF318
C:\Users\Andrea\AppData\Local\Temp\ccAadmBZ.s:13130  .debug_str:00000fec .LASF319
C:\Users\Andrea\AppData\Local\Temp\ccAadmBZ.s:12764  .debug_str:00000431 .LASF320
C:\Users\Andrea\AppData\Local\Temp\ccAadmBZ.s:12860  .debug_str:00000793 .LASF321
C:\Users\Andrea\AppData\Local\Temp\ccAadmBZ.s:13134  .debug_str:00001007 .LASF322
C:\Users\Andrea\AppData\Local\Temp\ccAadmBZ.s:13354  .debug_str:0000164c .LASF323
C:\Users\Andrea\AppData\Local\Temp\ccAadmBZ.s:13288  .debug_str:00001433 .LASF324
C:\Users\Andrea\AppData\Local\Temp\ccAadmBZ.s:13348  .debug_str:00001620 .LASF325
C:\Users\Andrea\AppData\Local\Temp\ccAadmBZ.s:13384  .debug_str:00001732 .LASF326
C:\Users\Andrea\AppData\Local\Temp\ccAadmBZ.s:13490  .debug_str:00001a88 .LASF327
C:\Users\Andrea\AppData\Local\Temp\ccAadmBZ.s:12670  .debug_str:00000196 .LASF328
C:\Users\Andrea\AppData\Local\Temp\ccAadmBZ.s:12858  .debug_str:00000785 .LASF329
C:\Users\Andrea\AppData\Local\Temp\ccAadmBZ.s:13276  .debug_str:000013df .LASF330
C:\Users\Andrea\AppData\Local\Temp\ccAadmBZ.s:13446  .debug_str:00001921 .LASF331
C:\Users\Andrea\AppData\Local\Temp\ccAadmBZ.s:13494  .debug_str:00001ac8 .LASF332
C:\Users\Andrea\AppData\Local\Temp\ccAadmBZ.s:13164  .debug_str:000010bc .LASF333
C:\Users\Andrea\AppData\Local\Temp\ccAadmBZ.s:12988  .debug_str:00000b88 .LASF334
C:\Users\Andrea\AppData\Local\Temp\ccAadmBZ.s:13154  .debug_str:00001063 .LASF335
C:\Users\Andrea\AppData\Local\Temp\ccAadmBZ.s:12674  .debug_str:000001c3 .LASF336
C:\Users\Andrea\AppData\Local\Temp\ccAadmBZ.s:12766  .debug_str:00000453 .LASF337
C:\Users\Andrea\AppData\Local\Temp\ccAadmBZ.s:13502  .debug_str:00001aeb .LASF338
C:\Users\Andrea\AppData\Local\Temp\ccAadmBZ.s:12618  .debug_str:00000009 .LASF465
C:\Users\Andrea\AppData\Local\Temp\ccAadmBZ.s:12738  .debug_str:00000374 .LASF339
C:\Users\Andrea\AppData\Local\Temp\ccAadmBZ.s:13394  .debug_str:000017a0 .LASF340
C:\Users\Andrea\AppData\Local\Temp\ccAadmBZ.s:12678  .debug_str:000001de .LASF466
C:\Users\Andrea\AppData\Local\Temp\ccAadmBZ.s:12840  .debug_str:000006d2 .LASF341
C:\Users\Andrea\AppData\Local\Temp\ccAadmBZ.s:13368  .debug_str:00001698 .LASF342
C:\Users\Andrea\AppData\Local\Temp\ccAadmBZ.s:13540  .debug_str:00001bd2 .LASF343
C:\Users\Andrea\AppData\Local\Temp\ccAadmBZ.s:13552  .debug_str:00001c3e .LASF467
C:\Users\Andrea\AppData\Local\Temp\ccAadmBZ.s:12814  .debug_str:000005ff .LASF344
C:\Users\Andrea\AppData\Local\Temp\ccAadmBZ.s:13040  .debug_str:00000d3d .LASF345
C:\Users\Andrea\AppData\Local\Temp\ccAadmBZ.s:13080  .debug_str:00000ea9 .LASF346
C:\Users\Andrea\AppData\Local\Temp\ccAadmBZ.s:12890  .debug_str:00000888 .LASF347
C:\Users\Andrea\AppData\Local\Temp\ccAadmBZ.s:13508  .debug_str:00001b27 .LASF348
C:\Users\Andrea\AppData\Local\Temp\ccAadmBZ.s:13018  .debug_str:00000ca8 .LASF349
C:\Users\Andrea\AppData\Local\Temp\ccAadmBZ.s:13178  .debug_str:000010fd .LASF350
C:\Users\Andrea\AppData\Local\Temp\ccAadmBZ.s:13124  .debug_str:00000faa .LASF351
C:\Users\Andrea\AppData\Local\Temp\ccAadmBZ.s:13050  .debug_str:00000d63 .LASF352
C:\Users\Andrea\AppData\Local\Temp\ccAadmBZ.s:12708  .debug_str:000002c7 .LASF353
C:\Users\Andrea\AppData\Local\Temp\ccAadmBZ.s:13428  .debug_str:00001895 .LASF383
C:\Users\Andrea\AppData\Local\Temp\ccAadmBZ.s:13     .text.EndOfPowerProfileRequest:00000004 .LFE15
C:\Users\Andrea\AppData\Local\Temp\ccAadmBZ.s:12     .text.EndOfPowerProfileRequest:00000004 .LVL0
C:\Users\Andrea\AppData\Local\Temp\ccAadmBZ.s:12788  .debug_str:000004fb .LASF355
C:\Users\Andrea\AppData\Local\Temp\ccAadmBZ.s:33     .text.Set_CPApplianceDataItem:00000013 .LFE0
C:\Users\Andrea\AppData\Local\Temp\ccAadmBZ.s:13546  .debug_str:00001c11 .LASF354
C:\Users\Andrea\AppData\Local\Temp\ccAadmBZ.s:10739  .debug_loc:00000000 .LLST0
C:\Users\Andrea\AppData\Local\Temp\ccAadmBZ.s:13212  .debug_str:000011c5 .LASF356
C:\Users\Andrea\AppData\Local\Temp\ccAadmBZ.s:45     .text.UseRegs:0000000a .LFE1
C:\Users\Andrea\AppData\Local\Temp\ccAadmBZ.s:44     .text.UseRegs:0000000a .LVL3
C:\Users\Andrea\AppData\Local\Temp\ccAadmBZ.s:13346  .debug_str:00001616 .LASF357
C:\Users\Andrea\AppData\Local\Temp\ccAadmBZ.s:57     .text.UnuseRegs:0000000a .LFE2
C:\Users\Andrea\AppData\Local\Temp\ccAadmBZ.s:56     .text.UnuseRegs:0000000a .LVL4
C:\Users\Andrea\AppData\Local\Temp\ccAadmBZ.s:12680  .debug_str:000001fc .LASF358
C:\Users\Andrea\AppData\Local\Temp\ccAadmBZ.s:69     .text.UseUiInfo:0000000a .LFE3
C:\Users\Andrea\AppData\Local\Temp\ccAadmBZ.s:68     .text.UseUiInfo:0000000a .LVL5
C:\Users\Andrea\AppData\Local\Temp\ccAadmBZ.s:12750  .debug_str:000003b3 .LASF359
C:\Users\Andrea\AppData\Local\Temp\ccAadmBZ.s:81     .text.UnuseUiInfo:0000000a .LFE4
C:\Users\Andrea\AppData\Local\Temp\ccAadmBZ.s:80     .text.UnuseUiInfo:0000000a .LVL6
C:\Users\Andrea\AppData\Local\Temp\ccAadmBZ.s:12836  .debug_str:0000069f .LASF392
C:\Users\Andrea\AppData\Local\Temp\ccAadmBZ.s:94     .text.CP_GetExternalBoardCommStatus:00000009 .LFE5
C:\Users\Andrea\AppData\Local\Temp\ccAadmBZ.s:13266  .debug_str:00001384 .LASF468
C:\Users\Andrea\AppData\Local\Temp\ccAadmBZ.s:106    .text.CP_ResetExternalBoardCommStatus:0000000a .LFE6
C:\Users\Andrea\AppData\Local\Temp\ccAadmBZ.s:12978  .debug_str:00000b31 .LASF378
C:\Users\Andrea\AppData\Local\Temp\ccAadmBZ.s:157    .text.PP_EosnFunction:0000004d .LFE7
C:\Users\Andrea\AppData\Local\Temp\ccAadmBZ.s:10753  .debug_loc:00000021 .LLST1
C:\Users\Andrea\AppData\Local\Temp\ccAadmBZ.s:13070  .debug_str:00000e69 .LASF360
C:\Users\Andrea\AppData\Local\Temp\ccAadmBZ.s:188    .text.ActionComm:00000019 .LFE8
C:\Users\Andrea\AppData\Local\Temp\ccAadmBZ.s:10766  .debug_loc:00000041 .LLST2
C:\Users\Andrea\AppData\Local\Temp\ccAadmBZ.s:13038  .debug_str:00000d37 .LASF361
C:\Users\Andrea\AppData\Local\Temp\ccAadmBZ.s:10780  .debug_loc:00000062 .LLST3
C:\Users\Andrea\AppData\Local\Temp\ccAadmBZ.s:185    .text.ActionComm:00000018 .LVL11
C:\Users\Andrea\AppData\Local\Temp\ccAadmBZ.s:13388  .debug_str:0000175f .LASF362
C:\Users\Andrea\AppData\Local\Temp\ccAadmBZ.s:217    .text.CMS_EE_FUNC_Ctrl_DspExtraRequest:00000017 .LFE10
C:\Users\Andrea\AppData\Local\Temp\ccAadmBZ.s:10798  .debug_loc:0000008e .LLST4
C:\Users\Andrea\AppData\Local\Temp\ccAadmBZ.s:10811  .debug_loc:000000ae .LLST5
C:\Users\Andrea\AppData\Local\Temp\ccAadmBZ.s:10825  .debug_loc:000000cf .LLST6
C:\Users\Andrea\AppData\Local\Temp\ccAadmBZ.s:10843  .debug_loc:000000fb .LLST7
C:\Users\Andrea\AppData\Local\Temp\ccAadmBZ.s:10857  .debug_loc:0000011c .LLST8
C:\Users\Andrea\AppData\Local\Temp\ccAadmBZ.s:208    .text.CMS_EE_FUNC_Ctrl_DspExtraRequest:0000000f .LVL15
C:\Users\Andrea\AppData\Local\Temp\ccAadmBZ.s:13002  .debug_str:00000be5 .LASF363
C:\Users\Andrea\AppData\Local\Temp\ccAadmBZ.s:246    .text.CMS_EE_FUNC_Ctrl_DspReadRamRequest:00000017 .LFE11
C:\Users\Andrea\AppData\Local\Temp\ccAadmBZ.s:10868  .debug_loc:0000013a .LLST9
C:\Users\Andrea\AppData\Local\Temp\ccAadmBZ.s:10881  .debug_loc:0000015a .LLST10
C:\Users\Andrea\AppData\Local\Temp\ccAadmBZ.s:10895  .debug_loc:0000017b .LLST11
C:\Users\Andrea\AppData\Local\Temp\ccAadmBZ.s:10913  .debug_loc:000001a7 .LLST12
C:\Users\Andrea\AppData\Local\Temp\ccAadmBZ.s:10927  .debug_loc:000001c8 .LLST13
C:\Users\Andrea\AppData\Local\Temp\ccAadmBZ.s:237    .text.CMS_EE_FUNC_Ctrl_DspReadRamRequest:0000000f .LVL19
C:\Users\Andrea\AppData\Local\Temp\ccAadmBZ.s:12916  .debug_str:0000094c .LASF364
C:\Users\Andrea\AppData\Local\Temp\ccAadmBZ.s:275    .text.CMS_EE_FUNC_Ctrl_DspWriteRamRequest:00000017 .LFE12
C:\Users\Andrea\AppData\Local\Temp\ccAadmBZ.s:10938  .debug_loc:000001e6 .LLST14
C:\Users\Andrea\AppData\Local\Temp\ccAadmBZ.s:10951  .debug_loc:00000206 .LLST15
C:\Users\Andrea\AppData\Local\Temp\ccAadmBZ.s:10965  .debug_loc:00000227 .LLST16
C:\Users\Andrea\AppData\Local\Temp\ccAadmBZ.s:10983  .debug_loc:00000253 .LLST17
C:\Users\Andrea\AppData\Local\Temp\ccAadmBZ.s:10997  .debug_loc:00000274 .LLST18
C:\Users\Andrea\AppData\Local\Temp\ccAadmBZ.s:266    .text.CMS_EE_FUNC_Ctrl_DspWriteRamRequest:0000000f .LVL23
C:\Users\Andrea\AppData\Local\Temp\ccAadmBZ.s:13030  .debug_str:00000cf6 .LASF365
C:\Users\Andrea\AppData\Local\Temp\ccAadmBZ.s:313    .text.CMS_EE_FUNC_Ctrl_InfoDspRequest:00000033 .LFE13
C:\Users\Andrea\AppData\Local\Temp\ccAadmBZ.s:11008  .debug_loc:00000292 .LLST19
C:\Users\Andrea\AppData\Local\Temp\ccAadmBZ.s:11021  .debug_loc:000002b2 .LLST20
C:\Users\Andrea\AppData\Local\Temp\ccAadmBZ.s:11035  .debug_loc:000002d3 .LLST21
C:\Users\Andrea\AppData\Local\Temp\ccAadmBZ.s:11049  .debug_loc:000002f4 .LLST22
C:\Users\Andrea\AppData\Local\Temp\ccAadmBZ.s:11063  .debug_loc:00000315 .LLST23
C:\Users\Andrea\AppData\Local\Temp\ccAadmBZ.s:303    .text.CMS_EE_FUNC_Ctrl_InfoDspRequest:00000027 .LBB34
C:\Users\Andrea\AppData\Local\Temp\ccAadmBZ.s:310    .text.CMS_EE_FUNC_Ctrl_InfoDspRequest:00000030 .LBE34
C:\Users\Andrea\AppData\Local\Temp\ccAadmBZ.s:291    .text.CMS_EE_FUNC_Ctrl_InfoDspRequest:0000000a .LVL26
C:\Users\Andrea\AppData\Local\Temp\ccAadmBZ.s:12800  .debug_str:0000056d .LASF366
C:\Users\Andrea\AppData\Local\Temp\ccAadmBZ.s:364    .text.CMS_EE_FUNC_Ctrl_CmdDspRequest:00000031 .LFE14
C:\Users\Andrea\AppData\Local\Temp\ccAadmBZ.s:11081  .debug_loc:00000341 .LLST24
C:\Users\Andrea\AppData\Local\Temp\ccAadmBZ.s:11099  .debug_loc:0000036d .LLST25
C:\Users\Andrea\AppData\Local\Temp\ccAadmBZ.s:11113  .debug_loc:0000038e .LLST26
C:\Users\Andrea\AppData\Local\Temp\ccAadmBZ.s:11127  .debug_loc:000003af .LLST27
C:\Users\Andrea\AppData\Local\Temp\ccAadmBZ.s:11141  .debug_loc:000003d0 .LLST28
C:\Users\Andrea\AppData\Local\Temp\ccAadmBZ.s:13322  .debug_str:0000157e .LASF367
C:\Users\Andrea\AppData\Local\Temp\ccAadmBZ.s:13136  .debug_str:00001025 .LASF368
C:\Users\Andrea\AppData\Local\Temp\ccAadmBZ.s:11152  .debug_loc:000003ee .LLST29
C:\Users\Andrea\AppData\Local\Temp\ccAadmBZ.s:343    .text.CMS_EE_FUNC_Ctrl_CmdDspRequest:0000001a .LVL34
C:\Users\Andrea\AppData\Local\Temp\ccAadmBZ.s:13316  .debug_str:00001525 .LASF369
C:\Users\Andrea\AppData\Local\Temp\ccAadmBZ.s:447    .text.CMS_EE_FUNC_EE_PowerProfileReq:0000006c .LFE16
C:\Users\Andrea\AppData\Local\Temp\ccAadmBZ.s:11164  .debug_loc:0000040d .LLST30
C:\Users\Andrea\AppData\Local\Temp\ccAadmBZ.s:11182  .debug_loc:00000439 .LLST31
C:\Users\Andrea\AppData\Local\Temp\ccAadmBZ.s:11196  .debug_loc:0000045a .LLST32
C:\Users\Andrea\AppData\Local\Temp\ccAadmBZ.s:11214  .debug_loc:00000486 .LLST33
C:\Users\Andrea\AppData\Local\Temp\ccAadmBZ.s:11228  .debug_loc:000004a7 .LLST34
C:\Users\Andrea\AppData\Local\Temp\ccAadmBZ.s:13480  .debug_str:00001a18 .LASF370
C:\Users\Andrea\AppData\Local\Temp\ccAadmBZ.s:399    .text.CMS_EE_FUNC_EE_PowerProfileReq:00000026 .LBB36
C:\Users\Andrea\AppData\Local\Temp\ccAadmBZ.s:442    .text.CMS_EE_FUNC_EE_PowerProfileReq:00000066 .LBE36
C:\Users\Andrea\AppData\Local\Temp\ccAadmBZ.s:12844  .debug_str:000006f5 .LASF371
C:\Users\Andrea\AppData\Local\Temp\ccAadmBZ.s:415    .text.CMS_EE_FUNC_EE_PowerProfileReq:0000003e .LVL41
C:\Users\Andrea\AppData\Local\Temp\ccAadmBZ.s:421    .text.CMS_EE_FUNC_EE_PowerProfileReq:00000049 .LVL42
C:\Users\Andrea\AppData\Local\Temp\ccAadmBZ.s:386    .text.CMS_EE_FUNC_EE_PowerProfileReq:00000012 .LVL39
C:\Users\Andrea\AppData\Local\Temp\ccAadmBZ.s:13020  .debug_str:00000cae .LASF372
C:\Users\Andrea\AppData\Local\Temp\ccAadmBZ.s:555    .text.CMS_EE_FUNC_EE_ReadPowerMeter:00000095 .LFE17
C:\Users\Andrea\AppData\Local\Temp\ccAadmBZ.s:11239  .debug_loc:000004c5 .LLST35
C:\Users\Andrea\AppData\Local\Temp\ccAadmBZ.s:11257  .debug_loc:000004f1 .LLST36
C:\Users\Andrea\AppData\Local\Temp\ccAadmBZ.s:11271  .debug_loc:00000512 .LLST37
C:\Users\Andrea\AppData\Local\Temp\ccAadmBZ.s:11285  .debug_loc:00000533 .LLST38
C:\Users\Andrea\AppData\Local\Temp\ccAadmBZ.s:11299  .debug_loc:00000554 .LLST39
C:\Users\Andrea\AppData\Local\Temp\ccAadmBZ.s:13166  .debug_str:000010c3 .LASF373
C:\Users\Andrea\AppData\Local\Temp\ccAadmBZ.s:11310  .debug_loc:00000572 .LLST40
C:\Users\Andrea\AppData\Local\Temp\ccAadmBZ.s:12954  .debug_str:00000a8c .LASF374
C:\Users\Andrea\AppData\Local\Temp\ccAadmBZ.s:11323  .debug_loc:00000592 .LLST41
C:\Users\Andrea\AppData\Local\Temp\ccAadmBZ.s:13284  .debug_str:00001400 .LASF375
C:\Users\Andrea\AppData\Local\Temp\ccAadmBZ.s:13186  .debug_str:0000112b .LASF376
C:\Users\Andrea\AppData\Local\Temp\ccAadmBZ.s:11336  .debug_loc:000005b2 .LLST42
C:\Users\Andrea\AppData\Local\Temp\ccAadmBZ.s:477    .text.CMS_EE_FUNC_EE_ReadPowerMeter:00000020 .LVL49
C:\Users\Andrea\AppData\Local\Temp\ccAadmBZ.s:486    .text.CMS_EE_FUNC_EE_ReadPowerMeter:00000031 .LVL51
C:\Users\Andrea\AppData\Local\Temp\ccAadmBZ.s:497    .text.CMS_EE_FUNC_EE_ReadPowerMeter:0000003e .LVL53
C:\Users\Andrea\AppData\Local\Temp\ccAadmBZ.s:12914  .debug_str:00000934 .LASF377
C:\Users\Andrea\AppData\Local\Temp\ccAadmBZ.s:589    .text.CMS_EE_FUNC_EE_SetLoads:00000025 .LFE18
C:\Users\Andrea\AppData\Local\Temp\ccAadmBZ.s:11357  .debug_loc:000005e8 .LLST43
C:\Users\Andrea\AppData\Local\Temp\ccAadmBZ.s:11370  .debug_loc:00000608 .LLST44
C:\Users\Andrea\AppData\Local\Temp\ccAadmBZ.s:11384  .debug_loc:00000629 .LLST45
C:\Users\Andrea\AppData\Local\Temp\ccAadmBZ.s:11395  .debug_loc:00000647 .LLST46
C:\Users\Andrea\AppData\Local\Temp\ccAadmBZ.s:11406  .debug_loc:00000665 .LLST47
C:\Users\Andrea\AppData\Local\Temp\ccAadmBZ.s:571    .text.CMS_EE_FUNC_EE_SetLoads:0000000c .LVL61
C:\Users\Andrea\AppData\Local\Temp\ccAadmBZ.s:580    .text.CMS_EE_FUNC_EE_SetLoads:0000001c .LVL62
C:\Users\Andrea\AppData\Local\Temp\ccAadmBZ.s:12938  .debug_str:00000a0e .LASF379
C:\Users\Andrea\AppData\Local\Temp\ccAadmBZ.s:711    .text.CMS_EE_FUNC_EE_SystemMode:000000ad .LFE20
C:\Users\Andrea\AppData\Local\Temp\ccAadmBZ.s:11417  .debug_loc:00000683 .LLST48
C:\Users\Andrea\AppData\Local\Temp\ccAadmBZ.s:13468  .debug_str:000019c0 .LASF380
C:\Users\Andrea\AppData\Local\Temp\ccAadmBZ.s:746    .text.CMS_EE_FUNC_BS_SetLoads:00000025 .LFE21
C:\Users\Andrea\AppData\Local\Temp\ccAadmBZ.s:11430  .debug_loc:000006a3 .LLST49
C:\Users\Andrea\AppData\Local\Temp\ccAadmBZ.s:11443  .debug_loc:000006c3 .LLST50
C:\Users\Andrea\AppData\Local\Temp\ccAadmBZ.s:11457  .debug_loc:000006e4 .LLST51
C:\Users\Andrea\AppData\Local\Temp\ccAadmBZ.s:11468  .debug_loc:00000702 .LLST52
C:\Users\Andrea\AppData\Local\Temp\ccAadmBZ.s:11479  .debug_loc:00000720 .LLST53
C:\Users\Andrea\AppData\Local\Temp\ccAadmBZ.s:727    .text.CMS_EE_FUNC_BS_SetLoads:0000000c .LVL64
C:\Users\Andrea\AppData\Local\Temp\ccAadmBZ.s:735    .text.CMS_EE_FUNC_BS_SetLoads:0000001a .LVL65
C:\Users\Andrea\AppData\Local\Temp\ccAadmBZ.s:12624  .debug_str:0000003d .LASF381
C:\Users\Andrea\AppData\Local\Temp\ccAadmBZ.s:12720  .debug_str:00000312 .LASF382
C:\Users\Andrea\AppData\Local\Temp\ccAadmBZ.s:1588   .text.CP_SlaveManager.isra.1:00000633 .LFE35
C:\Users\Andrea\AppData\Local\Temp\ccAadmBZ.s:11490  .debug_loc:0000073e .LLST54
C:\Users\Andrea\AppData\Local\Temp\ccAadmBZ.s:11508  .debug_loc:0000076a .LLST55
C:\Users\Andrea\AppData\Local\Temp\ccAadmBZ.s:11519  .debug_loc:00000788 .LLST56
C:\Users\Andrea\AppData\Local\Temp\ccAadmBZ.s:857    .text.CP_SlaveManager.isra.1:000000ec .LBB54
C:\Users\Andrea\AppData\Local\Temp\ccAadmBZ.s:882    .text.CP_SlaveManager.isra.1:0000010e .LBE54
C:\Users\Andrea\AppData\Local\Temp\ccAadmBZ.s:11648  .debug_loc:000008af .LLST57
C:\Users\Andrea\AppData\Local\Temp\ccAadmBZ.s:11657  .debug_loc:000008c4 .LLST58
C:\Users\Andrea\AppData\Local\Temp\ccAadmBZ.s:858    .text.CP_SlaveManager.isra.1:000000ec .LBB55
C:\Users\Andrea\AppData\Local\Temp\ccAadmBZ.s:881    .text.CP_SlaveManager.isra.1:0000010e .LBE55
C:\Users\Andrea\AppData\Local\Temp\ccAadmBZ.s:866    .text.CP_SlaveManager.isra.1:000000fa .LVL72
C:\Users\Andrea\AppData\Local\Temp\ccAadmBZ.s:883    .text.CP_SlaveManager.isra.1:0000010e .LBB56
C:\Users\Andrea\AppData\Local\Temp\ccAadmBZ.s:915    .text.CP_SlaveManager.isra.1:00000150 .LBE56
C:\Users\Andrea\AppData\Local\Temp\ccAadmBZ.s:11675  .debug_loc:000008e9 .LLST59
C:\Users\Andrea\AppData\Local\Temp\ccAadmBZ.s:11684  .debug_loc:000008fe .LLST60
C:\Users\Andrea\AppData\Local\Temp\ccAadmBZ.s:11707  .debug_loc:00000936 .LLST61
C:\Users\Andrea\AppData\Local\Temp\ccAadmBZ.s:11719  .debug_loc:00000955 .LLST62
C:\Users\Andrea\AppData\Local\Temp\ccAadmBZ.s:903    .text.CP_SlaveManager.isra.1:0000013a .LVL78
C:\Users\Andrea\AppData\Local\Temp\ccAadmBZ.s:916    .text.CP_SlaveManager.isra.1:00000150 .LBB57
C:\Users\Andrea\AppData\Local\Temp\ccAadmBZ.s:957    .text.CP_SlaveManager.isra.1:0000019c .LBE57
C:\Users\Andrea\AppData\Local\Temp\ccAadmBZ.s:11741  .debug_loc:0000097e .LLST63
C:\Users\Andrea\AppData\Local\Temp\ccAadmBZ.s:11769  .debug_loc:000009c2 .LLST64
C:\Users\Andrea\AppData\Local\Temp\ccAadmBZ.s:11784  .debug_loc:000009e4 .LLST65
C:\Users\Andrea\AppData\Local\Temp\ccAadmBZ.s:933    .text.CP_SlaveManager.isra.1:00000171 .LBB58
C:\Users\Andrea\AppData\Local\Temp\ccAadmBZ.s:956    .text.CP_SlaveManager.isra.1:0000019c .LBE58
C:\Users\Andrea\AppData\Local\Temp\ccAadmBZ.s:11799  .debug_loc:00000a06 .LLST66
C:\Users\Andrea\AppData\Local\Temp\ccAadmBZ.s:950    .text.CP_SlaveManager.isra.1:00000194 .LVL88
C:\Users\Andrea\AppData\Local\Temp\ccAadmBZ.s:958    .text.CP_SlaveManager.isra.1:0000019c .LBB59
C:\Users\Andrea\AppData\Local\Temp\ccAadmBZ.s:994    .text.CP_SlaveManager.isra.1:000001e6 .LBE59
C:\Users\Andrea\AppData\Local\Temp\ccAadmBZ.s:11821  .debug_loc:00000a36 .LLST67
C:\Users\Andrea\AppData\Local\Temp\ccAadmBZ.s:11842  .debug_loc:00000a65 .LLST68
C:\Users\Andrea\AppData\Local\Temp\ccAadmBZ.s:974    .text.CP_SlaveManager.isra.1:000001be .LVL92
C:\Users\Andrea\AppData\Local\Temp\ccAadmBZ.s:986    .text.CP_SlaveManager.isra.1:000001d8 .LVL95
C:\Users\Andrea\AppData\Local\Temp\ccAadmBZ.s:995    .text.CP_SlaveManager.isra.1:000001e6 .LBB60
C:\Users\Andrea\AppData\Local\Temp\ccAadmBZ.s:1044   .text.CP_SlaveManager.isra.1:00000246 .LBE60
C:\Users\Andrea\AppData\Local\Temp\ccAadmBZ.s:11870  .debug_loc:00000aa9 .LLST69
C:\Users\Andrea\AppData\Local\Temp\ccAadmBZ.s:11891  .debug_loc:00000ad8 .LLST70
C:\Users\Andrea\AppData\Local\Temp\ccAadmBZ.s:11914  .debug_loc:00000b10 .LLST71
C:\Users\Andrea\AppData\Local\Temp\ccAadmBZ.s:11930  .debug_loc:00000b2c .LLST72
C:\Users\Andrea\AppData\Local\Temp\ccAadmBZ.s:1018   .text.CP_SlaveManager.isra.1:00000217 .LVL100
C:\Users\Andrea\AppData\Local\Temp\ccAadmBZ.s:1032   .text.CP_SlaveManager.isra.1:00000236 .LVL103
C:\Users\Andrea\AppData\Local\Temp\ccAadmBZ.s:1050   .text.CP_SlaveManager.isra.1:0000024e .LBB61
C:\Users\Andrea\AppData\Local\Temp\ccAadmBZ.s:1094   .text.CP_SlaveManager.isra.1:00000298 .LBE61
C:\Users\Andrea\AppData\Local\Temp\ccAadmBZ.s:11937  .debug_loc:00000b3f .LLST73
C:\Users\Andrea\AppData\Local\Temp\ccAadmBZ.s:11953  .debug_loc:00000b69 .LLST74
C:\Users\Andrea\AppData\Local\Temp\ccAadmBZ.s:1079   .text.CP_SlaveManager.isra.1:00000284 .LVL112
C:\Users\Andrea\AppData\Local\Temp\ccAadmBZ.s:1100   .text.CP_SlaveManager.isra.1:000002a1 .LBB62
C:\Users\Andrea\AppData\Local\Temp\ccAadmBZ.s:1134   .text.CP_SlaveManager.isra.1:000002df .LBE62
C:\Users\Andrea\AppData\Local\Temp\ccAadmBZ.s:11965  .debug_loc:00000b88 .LLST75
C:\Users\Andrea\AppData\Local\Temp\ccAadmBZ.s:1119   .text.CP_SlaveManager.isra.1:000002c8 .LVL120
C:\Users\Andrea\AppData\Local\Temp\ccAadmBZ.s:1140   .text.CP_SlaveManager.isra.1:000002e7 .LBB63
C:\Users\Andrea\AppData\Local\Temp\ccAadmBZ.s:1188   .text.CP_SlaveManager.isra.1:0000034f .LBE63
C:\Users\Andrea\AppData\Local\Temp\ccAadmBZ.s:12163  .debug_loc:00000c76 .LLST76
C:\Users\Andrea\AppData\Local\Temp\ccAadmBZ.s:12181  .debug_loc:00000c9b .LLST77
C:\Users\Andrea\AppData\Local\Temp\ccAadmBZ.s:1160   .text.CP_SlaveManager.isra.1:00000313 .LVL127
C:\Users\Andrea\AppData\Local\Temp\ccAadmBZ.s:1169   .text.CP_SlaveManager.isra.1:00000328 .LVL128
C:\Users\Andrea\AppData\Local\Temp\ccAadmBZ.s:1196   .text.CP_SlaveManager.isra.1:0000035d .LBB64
C:\Users\Andrea\AppData\Local\Temp\ccAadmBZ.s:1244   .text.CP_SlaveManager.isra.1:000003c5 .LBE64
C:\Users\Andrea\AppData\Local\Temp\ccAadmBZ.s:12193  .debug_loc:00000cba .LLST78
C:\Users\Andrea\AppData\Local\Temp\ccAadmBZ.s:12211  .debug_loc:00000cdf .LLST79
C:\Users\Andrea\AppData\Local\Temp\ccAadmBZ.s:1213   .text.CP_SlaveManager.isra.1:00000384 .LVL134
C:\Users\Andrea\AppData\Local\Temp\ccAadmBZ.s:1224   .text.CP_SlaveManager.isra.1:0000039f .LVL135
C:\Users\Andrea\AppData\Local\Temp\ccAadmBZ.s:1289   .text.CP_SlaveManager.isra.1:00000421 .LBB65
C:\Users\Andrea\AppData\Local\Temp\ccAadmBZ.s:1299   .text.CP_SlaveManager.isra.1:0000042f .LBE65
C:\Users\Andrea\AppData\Local\Temp\ccAadmBZ.s:1293   .text.CP_SlaveManager.isra.1:00000425 .LVL142
C:\Users\Andrea\AppData\Local\Temp\ccAadmBZ.s:1318   .text.CP_SlaveManager.isra.1:0000044b .LBB67
C:\Users\Andrea\AppData\Local\Temp\ccAadmBZ.s:1328   .text.CP_SlaveManager.isra.1:00000459 .LBE67
C:\Users\Andrea\AppData\Local\Temp\ccAadmBZ.s:1322   .text.CP_SlaveManager.isra.1:0000044f .LVL144
C:\Users\Andrea\AppData\Local\Temp\ccAadmBZ.s:1472   .text.CP_SlaveManager.isra.1:00000572 .LBB69
C:\Users\Andrea\AppData\Local\Temp\ccAadmBZ.s:1498   .text.CP_SlaveManager.isra.1:000005a4 .LBE69
C:\Users\Andrea\AppData\Local\Temp\ccAadmBZ.s:12223  .debug_loc:00000cfe .LLST80
C:\Users\Andrea\AppData\Local\Temp\ccAadmBZ.s:12241  .debug_loc:00000d2a .LLST81
C:\Users\Andrea\AppData\Local\Temp\ccAadmBZ.s:12253  .debug_loc:00000d49 .LLST82
C:\Users\Andrea\AppData\Local\Temp\ccAadmBZ.s:1489   .text.CP_SlaveManager.isra.1:00000597 .LVL161
C:\Users\Andrea\AppData\Local\Temp\ccAadmBZ.s:1499   .text.CP_SlaveManager.isra.1:000005a4 .LBB70
C:\Users\Andrea\AppData\Local\Temp\ccAadmBZ.s:1540   .text.CP_SlaveManager.isra.1:000005e9 .LBE70
C:\Users\Andrea\AppData\Local\Temp\ccAadmBZ.s:12324  .debug_loc:00000da3 .LLST83
C:\Users\Andrea\AppData\Local\Temp\ccAadmBZ.s:12347  .debug_loc:00000ddb .LLST84
C:\Users\Andrea\AppData\Local\Temp\ccAadmBZ.s:1527   .text.CP_SlaveManager.isra.1:000005d7 .LVL169
C:\Users\Andrea\AppData\Local\Temp\ccAadmBZ.s:771    .text.CP_SlaveManager.isra.1:00000019 .LVL70
C:\Users\Andrea\AppData\Local\Temp\ccAadmBZ.s:1260   .text.CP_SlaveManager.isra.1:000003e7 .LVL140
C:\Users\Andrea\AppData\Local\Temp\ccAadmBZ.s:1270   .text.CP_SlaveManager.isra.1:000003f9 .LVL141
C:\Users\Andrea\AppData\Local\Temp\ccAadmBZ.s:1315   .text.CP_SlaveManager.isra.1:00000448 .LVL143
C:\Users\Andrea\AppData\Local\Temp\ccAadmBZ.s:1340   .text.CP_SlaveManager.isra.1:00000475 .LVL145
C:\Users\Andrea\AppData\Local\Temp\ccAadmBZ.s:1348   .text.CP_SlaveManager.isra.1:00000487 .LVL146
C:\Users\Andrea\AppData\Local\Temp\ccAadmBZ.s:1350   .text.CP_SlaveManager.isra.1:0000048b .LVL147
C:\Users\Andrea\AppData\Local\Temp\ccAadmBZ.s:1367   .text.CP_SlaveManager.isra.1:000004b2 .LVL148
C:\Users\Andrea\AppData\Local\Temp\ccAadmBZ.s:1375   .text.CP_SlaveManager.isra.1:000004c4 .LVL149
C:\Users\Andrea\AppData\Local\Temp\ccAadmBZ.s:1377   .text.CP_SlaveManager.isra.1:000004c8 .LVL150
C:\Users\Andrea\AppData\Local\Temp\ccAadmBZ.s:1387   .text.CP_SlaveManager.isra.1:000004da .LVL151
C:\Users\Andrea\AppData\Local\Temp\ccAadmBZ.s:1397   .text.CP_SlaveManager.isra.1:000004ec .LVL152
C:\Users\Andrea\AppData\Local\Temp\ccAadmBZ.s:1407   .text.CP_SlaveManager.isra.1:000004fe .LVL153
C:\Users\Andrea\AppData\Local\Temp\ccAadmBZ.s:1417   .text.CP_SlaveManager.isra.1:00000510 .LVL154
C:\Users\Andrea\AppData\Local\Temp\ccAadmBZ.s:1427   .text.CP_SlaveManager.isra.1:00000522 .LVL155
C:\Users\Andrea\AppData\Local\Temp\ccAadmBZ.s:1437   .text.CP_SlaveManager.isra.1:00000534 .LVL156
C:\Users\Andrea\AppData\Local\Temp\ccAadmBZ.s:1447   .text.CP_SlaveManager.isra.1:00000546 .LVL157
C:\Users\Andrea\AppData\Local\Temp\ccAadmBZ.s:1468   .text.CP_SlaveManager.isra.1:0000056f .LVL158
C:\Users\Andrea\AppData\Local\Temp\ccAadmBZ.s:1560   .text.CP_SlaveManager.isra.1:00000604 .LVL174
C:\Users\Andrea\AppData\Local\Temp\ccAadmBZ.s:1563   .text.CP_SlaveManager.isra.1:0000060a .LVL175
C:\Users\Andrea\AppData\Local\Temp\ccAadmBZ.s:12992  .debug_str:00000baa .LASF384
C:\Users\Andrea\AppData\Local\Temp\ccAadmBZ.s:1666   .text.CommunicationProtocolTask:0000006c .LFE29
C:\Users\Andrea\AppData\Local\Temp\ccAadmBZ.s:12407  .debug_loc:00000e38 .LLST85
C:\Users\Andrea\AppData\Local\Temp\ccAadmBZ.s:13500  .debug_str:00001ae3 .LASF385
C:\Users\Andrea\AppData\Local\Temp\ccAadmBZ.s:12420  .debug_loc:00000e58 .LLST86
C:\Users\Andrea\AppData\Local\Temp\ccAadmBZ.s:1604   .text.CommunicationProtocolTask:0000000e .LVL178
C:\Users\Andrea\AppData\Local\Temp\ccAadmBZ.s:1615   .text.CommunicationProtocolTask:00000022 .LVL181
C:\Users\Andrea\AppData\Local\Temp\ccAadmBZ.s:1625   .text.CommunicationProtocolTask:00000032 .LVL182
C:\Users\Andrea\AppData\Local\Temp\ccAadmBZ.s:1630   .text.CommunicationProtocolTask:00000036 .LVL183
C:\Users\Andrea\AppData\Local\Temp\ccAadmBZ.s:1634   .text.CommunicationProtocolTask:0000003c .LVL185
C:\Users\Andrea\AppData\Local\Temp\ccAadmBZ.s:1653   .text.CommunicationProtocolTask:0000005d .LVL186
C:\Users\Andrea\AppData\Local\Temp\ccAadmBZ.s:1659   .text.CommunicationProtocolTask:00000066 .LVL187
C:\Users\Andrea\AppData\Local\Temp\ccAadmBZ.s:1664   .text.CommunicationProtocolTask:0000006a .LVL188
C:\Users\Andrea\AppData\Local\Temp\ccAadmBZ.s:12982  .debug_str:00000b49 .LASF386
C:\Users\Andrea\AppData\Local\Temp\ccAadmBZ.s:1734   .text.CP_I2CCommunicationPlatformInit:0000008d .LFE28
C:\Users\Andrea\AppData\Local\Temp\ccAadmBZ.s:12431  .debug_loc:00000e76 .LLST87
C:\Users\Andrea\AppData\Local\Temp\ccAadmBZ.s:12818  .debug_str:0000061f .LASF387
C:\Users\Andrea\AppData\Local\Temp\ccAadmBZ.s:1690   .text.CP_I2CCommunicationPlatformInit:00000018 .LVL189
C:\Users\Andrea\AppData\Local\Temp\ccAadmBZ.s:1694   .text.CP_I2CCommunicationPlatformInit:00000022 .LVL190
C:\Users\Andrea\AppData\Local\Temp\ccAadmBZ.s:1703   .text.CP_I2CCommunicationPlatformInit:00000046 .LVL191
C:\Users\Andrea\AppData\Local\Temp\ccAadmBZ.s:1712   .text.CP_I2CCommunicationPlatformInit:00000058 .LVL192
C:\Users\Andrea\AppData\Local\Temp\ccAadmBZ.s:1715   .text.CP_I2CCommunicationPlatformInit:0000005c .LVL193
C:\Users\Andrea\AppData\Local\Temp\ccAadmBZ.s:1724   .text.CP_I2CCommunicationPlatformInit:00000080 .LVL194
C:\Users\Andrea\AppData\Local\Temp\ccAadmBZ.s:1731   .text.CP_I2CCommunicationPlatformInit:0000008b .LVL195
C:\Users\Andrea\AppData\Local\Temp\ccAadmBZ.s:13248  .debug_str:000012d6 .LASF388
C:\Users\Andrea\AppData\Local\Temp\ccAadmBZ.s:1749   .text.CP_UART_EnableComm:0000000b .LFE31
C:\Users\Andrea\AppData\Local\Temp\ccAadmBZ.s:1744   .text.CP_UART_EnableComm:00000004 .LVL196
C:\Users\Andrea\AppData\Local\Temp\ccAadmBZ.s:1748   .text.CP_UART_EnableComm:0000000b .LVL197
C:\Users\Andrea\AppData\Local\Temp\ccAadmBZ.s:13420  .debug_str:0000185d .LASF389
C:\Users\Andrea\AppData\Local\Temp\ccAadmBZ.s:1806   .text.CP_UartParserTask:00000038 .LFE30
C:\Users\Andrea\AppData\Local\Temp\ccAadmBZ.s:12444  .debug_loc:00000e96 .LLST88
C:\Users\Andrea\AppData\Local\Temp\ccAadmBZ.s:12822  .debug_str:00000633 .LASF390
C:\Users\Andrea\AppData\Local\Temp\ccAadmBZ.s:12457  .debug_loc:00000eb6 .LLST89
C:\Users\Andrea\AppData\Local\Temp\ccAadmBZ.s:1770   .text.CP_UartParserTask:00000012 .LVL200
C:\Users\Andrea\AppData\Local\Temp\ccAadmBZ.s:1774   .text.CP_UartParserTask:00000018 .LVL201
C:\Users\Andrea\AppData\Local\Temp\ccAadmBZ.s:1789   .text.CP_UartParserTask:0000002b .LVL204
C:\Users\Andrea\AppData\Local\Temp\ccAadmBZ.s:1803   .text.CP_UartParserTask:00000036 .LVL207
C:\Users\Andrea\AppData\Local\Temp\ccAadmBZ.s:12850  .debug_str:0000072c .LASF391
C:\Users\Andrea\AppData\Local\Temp\ccAadmBZ.s:1817   .text.CP_UART_DisableComm:00000004 .LFE32
C:\Users\Andrea\AppData\Local\Temp\ccAadmBZ.s:1816   .text.CP_UART_DisableComm:00000004 .LVL208
C:\Users\Andrea\AppData\Local\Temp\ccAadmBZ.s:13424  .debug_str:00001874 .LASF393
C:\Users\Andrea\AppData\Local\Temp\ccAadmBZ.s:1831   .text.CP_GetPPAddr:0000000c .LFE33
C:\Users\Andrea\AppData\Local\Temp\ccAadmBZ.s:13292  .debug_str:0000147b .LASF394
C:\Users\Andrea\AppData\Local\Temp\ccAadmBZ.s:12477  .debug_loc:00000eeb .LLST90
C:\Users\Andrea\AppData\Local\Temp\ccAadmBZ.s:1830   .text.CP_GetPPAddr:0000000c .LVL210
C:\Users\Andrea\AppData\Local\Temp\ccAadmBZ.s:12984  .debug_str:00000b69 .LASF395
C:\Users\Andrea\AppData\Local\Temp\ccAadmBZ.s:12810  .debug_str:000005cf .LASF396
C:\Users\Andrea\AppData\Local\Temp\ccAadmBZ.s:13444  .debug_str:00001903 .LASF397
C:\Users\Andrea\AppData\Local\Temp\ccAadmBZ.s:13492  .debug_str:00001aad .LASF398
C:\Users\Andrea\AppData\Local\Temp\ccAadmBZ.s:13486  .debug_str:00001a54 .LASF399
C:\Users\Andrea\AppData\Local\Temp\ccAadmBZ.s:12862  .debug_str:000007b0 .LASF400
C:\Users\Andrea\AppData\Local\Temp\ccAadmBZ.s:12834  .debug_str:0000068f .LASF401
C:\Users\Andrea\AppData\Local\Temp\ccAadmBZ.s:12966  .debug_str:00000ad8 .LASF402
C:\Users\Andrea\AppData\Local\Temp\ccAadmBZ.s:13126  .debug_str:00000faf .LASF403
C:\Users\Andrea\AppData\Local\Temp\ccAadmBZ.s:12816  .debug_str:00000607 .LASF404
C:\Users\Andrea\AppData\Local\Temp\ccAadmBZ.s:13310  .debug_str:000014fb .LASF405
C:\Users\Andrea\AppData\Local\Temp\ccAadmBZ.s:12926  .debug_str:00000998 .LASF406
C:\Users\Andrea\AppData\Local\Temp\ccAadmBZ.s:12638  .debug_str:0000009d .LASF407
C:\Users\Andrea\AppData\Local\Temp\ccAadmBZ.s:13534  .debug_str:00001ba0 .LASF408
C:\Users\Andrea\AppData\Local\Temp\ccAadmBZ.s:13218  .debug_str:000011f9 .LASF409
C:\Users\Andrea\AppData\Local\Temp\ccAadmBZ.s:12848  .debug_str:0000071a .LASF410
C:\Users\Andrea\AppData\Local\Temp\ccAadmBZ.s:12868  .debug_str:000007da .LASF411
C:\Users\Andrea\AppData\Local\Temp\ccAadmBZ.s:12636  .debug_str:00000093 .LASF412
C:\Users\Andrea\AppData\Local\Temp\ccAadmBZ.s:12874  .debug_str:00000817 .LASF413
C:\Users\Andrea\AppData\Local\Temp\ccAadmBZ.s:13274  .debug_str:000013ca .LASF414
C:\Users\Andrea\AppData\Local\Temp\ccAadmBZ.s:13304  .debug_str:000014d3 .LASF415
C:\Users\Andrea\AppData\Local\Temp\ccAadmBZ.s:13036  .debug_str:00000d26 .LASF416
C:\Users\Andrea\AppData\Local\Temp\ccAadmBZ.s:13476  .debug_str:000019fd .LASF425
C:\Users\Andrea\AppData\Local\Temp\ccAadmBZ.s:13048  .debug_str:00000d5c .LASF419
C:\Users\Andrea\AppData\Local\Temp\ccAadmBZ.s:13162  .debug_str:000010b3 .LASF417
C:\Users\Andrea\AppData\Local\Temp\ccAadmBZ.s:13004  .debug_str:00000c08 .LASF418
C:\Users\Andrea\AppData\Local\Temp\ccAadmBZ.s:13220  .debug_str:00001204 .LASF420
C:\Users\Andrea\AppData\Local\Temp\ccAadmBZ.s:13128  .debug_str:00000fc9 .LASF421
C:\Users\Andrea\AppData\Local\Temp\ccAadmBZ.s:13250  .debug_str:000012e9 .LASF422
C:\Users\Andrea\AppData\Local\Temp\ccAadmBZ.s:13286  .debug_str:0000140c .LASF423
C:\Users\Andrea\AppData\Local\Temp\ccAadmBZ.s:13052  .debug_str:00000d6e .LASF424
C:\Users\Andrea\AppData\Local\Temp\ccAadmBZ.s:13216  .debug_str:000011e9 .LASF426
C:\Users\Andrea\AppData\Local\Temp\ccAadmBZ.s:12906  .debug_str:000008de .LASF427
C:\Users\Andrea\AppData\Local\Temp\ccAadmBZ.s:12854  .debug_str:00000753 .LASF431
C:\Users\Andrea\AppData\Local\Temp\ccAadmBZ.s:12896  .debug_str:000008a6 .LASF428
C:\Users\Andrea\AppData\Local\Temp\ccAadmBZ.s:13016  .debug_str:00000c87 .LASF429
C:\Users\Andrea\AppData\Local\Temp\ccAadmBZ.s:13452  .debug_str:0000194d .LASF430
C:\Users\Andrea\AppData\Local\Temp\ccAadmBZ.s:12932  .debug_str:000009dc .LASF432
C:\Users\Andrea\AppData\Local\Temp\ccAadmBZ.s:13066  .debug_str:00000e38 .LASF433
C:\Users\Andrea\AppData\Local\Temp\ccAadmBZ.s:12772  .debug_str:0000048a .LASF434
C:\Users\Andrea\AppData\Local\Temp\ccAadmBZ.s:12776  .debug_str:000004ae .LASF435
C:\Users\Andrea\AppData\Local\Temp\ccAadmBZ.s:12770  .debug_str:00000479 .LASF436
C:\Users\Andrea\AppData\Local\Temp\ccAadmBZ.s:12882  .debug_str:00000848 .LASF437
C:\Users\Andrea\AppData\Local\Temp\ccAadmBZ.s:12892  .debug_str:0000088d .LASF438
C:\Users\Andrea\AppData\Local\Temp\ccAadmBZ.s:13272  .debug_str:000013b4 .LASF439
C:\Users\Andrea\AppData\Local\Temp\ccAadmBZ.s:13262  .debug_str:00001361 .LASF440
C:\Users\Andrea\AppData\Local\Temp\ccAadmBZ.s:13252  .debug_str:0000130d .LASF441
C:\Users\Andrea\AppData\Local\Temp\ccAadmBZ.s:13222  .debug_str:00001225 .LASF442
C:\Users\Andrea\AppData\Local\Temp\ccAadmBZ.s:12682  .debug_str:00000206 .LASF443
C:\Users\Andrea\AppData\Local\Temp\ccAadmBZ.s:12784  .debug_str:000004d6 .LASF444
C:\Users\Andrea\AppData\Local\Temp\ccAadmBZ.s:13544  .debug_str:00001bfb .LASF445
C:\Users\Andrea\AppData\Local\Temp\ccAadmBZ.s:12806  .debug_str:000005ad .LASF446
C:\Users\Andrea\AppData\Local\Temp\ccAadmBZ.s:13180  .debug_str:00001105 .LASF447
C:\Users\Andrea\AppData\Local\Temp\ccAadmBZ.s:13088  .debug_str:00000ede .LASF448
C:\Users\Andrea\AppData\Local\Temp\ccAadmBZ.s:13214  .debug_str:000011cd .LASF449
C:\Users\Andrea\AppData\Local\Temp\ccAadmBZ.s:12990  .debug_str:00000b9b .LASF450
C:\Users\Andrea\AppData\Local\Temp\ccAadmBZ.s:12768  .debug_str:00000469 .LASF451
C:\Users\Andrea\AppData\Local\Temp\ccAadmBZ.s:12716  .debug_str:000002f3 .LASF452
C:\Users\Andrea\AppData\Local\Temp\ccAadmBZ.s:13278  .debug_str:000013ec .LASF453
C:\Users\Andrea\AppData\Local\Temp\ccAadmBZ.s:12960  .debug_str:00000abe .LASF454
C:\Users\Andrea\AppData\Local\Temp\ccAadmBZ.s:13398  .debug_str:000017c5 .LASF455
C:\Users\Andrea\AppData\Local\Temp\ccAadmBZ.s:12948  .debug_str:00000a61 .LASF456
C:\Users\Andrea\AppData\Local\Temp\ccAadmBZ.s:13526  .debug_str:00001b69 .LASF457
C:\Users\Andrea\AppData\Local\Temp\ccAadmBZ.s:13156  .debug_str:00001087 .LASF458
C:\Users\Andrea\AppData\Local\Temp\ccAadmBZ.s:13438  .debug_str:000018d5 .LASF459
C:\Users\Andrea\AppData\Local\Temp\ccAadmBZ.s:12706  .debug_str:000002b4 .LASF460
C:\Users\Andrea\AppData\Local\Temp\ccAadmBZ.s:12668  .debug_str:00000182 .LASF461
C:\Users\Andrea\AppData\Local\Temp\ccAadmBZ.s:21     .text.Set_CPApplianceDataItem:00000000 .LVL1
C:\Users\Andrea\AppData\Local\Temp\ccAadmBZ.s:27     .text.Set_CPApplianceDataItem:00000006 .LVL2
C:\Users\Andrea\AppData\Local\Temp\ccAadmBZ.s:115    .text.PP_EosnFunction:00000002 .LCFI0
C:\Users\Andrea\AppData\Local\Temp\ccAadmBZ.s:165    .text.ActionComm:00000000 .LVL8
C:\Users\Andrea\AppData\Local\Temp\ccAadmBZ.s:172    .text.ActionComm:00000007 .LVL9
C:\Users\Andrea\AppData\Local\Temp\ccAadmBZ.s:183    .text.ActionComm:00000014 .LVL10
C:\Users\Andrea\AppData\Local\Temp\ccAadmBZ.s:198    .text.CMS_EE_FUNC_Ctrl_DspExtraRequest:00000002 .LCFI1
C:\Users\Andrea\AppData\Local\Temp\ccAadmBZ.s:196    .text.CMS_EE_FUNC_Ctrl_DspExtraRequest:00000000 .LVL12
C:\Users\Andrea\AppData\Local\Temp\ccAadmBZ.s:204    .text.CMS_EE_FUNC_Ctrl_DspExtraRequest:00000009 .LVL13
C:\Users\Andrea\AppData\Local\Temp\ccAadmBZ.s:206    .text.CMS_EE_FUNC_Ctrl_DspExtraRequest:0000000b .LVL14
C:\Users\Andrea\AppData\Local\Temp\ccAadmBZ.s:227    .text.CMS_EE_FUNC_Ctrl_DspReadRamRequest:00000002 .LCFI2
C:\Users\Andrea\AppData\Local\Temp\ccAadmBZ.s:225    .text.CMS_EE_FUNC_Ctrl_DspReadRamRequest:00000000 .LVL16
C:\Users\Andrea\AppData\Local\Temp\ccAadmBZ.s:233    .text.CMS_EE_FUNC_Ctrl_DspReadRamRequest:00000009 .LVL17
C:\Users\Andrea\AppData\Local\Temp\ccAadmBZ.s:235    .text.CMS_EE_FUNC_Ctrl_DspReadRamRequest:0000000b .LVL18
C:\Users\Andrea\AppData\Local\Temp\ccAadmBZ.s:256    .text.CMS_EE_FUNC_Ctrl_DspWriteRamRequest:00000002 .LCFI3
C:\Users\Andrea\AppData\Local\Temp\ccAadmBZ.s:254    .text.CMS_EE_FUNC_Ctrl_DspWriteRamRequest:00000000 .LVL20
C:\Users\Andrea\AppData\Local\Temp\ccAadmBZ.s:262    .text.CMS_EE_FUNC_Ctrl_DspWriteRamRequest:00000009 .LVL21
C:\Users\Andrea\AppData\Local\Temp\ccAadmBZ.s:264    .text.CMS_EE_FUNC_Ctrl_DspWriteRamRequest:0000000b .LVL22
C:\Users\Andrea\AppData\Local\Temp\ccAadmBZ.s:285    .text.CMS_EE_FUNC_Ctrl_InfoDspRequest:00000002 .LCFI4
C:\Users\Andrea\AppData\Local\Temp\ccAadmBZ.s:283    .text.CMS_EE_FUNC_Ctrl_InfoDspRequest:00000000 .LVL24
C:\Users\Andrea\AppData\Local\Temp\ccAadmBZ.s:289    .text.CMS_EE_FUNC_Ctrl_InfoDspRequest:00000006 .LVL25
C:\Users\Andrea\AppData\Local\Temp\ccAadmBZ.s:307    .text.CMS_EE_FUNC_Ctrl_InfoDspRequest:0000002d .LVL27
C:\Users\Andrea\AppData\Local\Temp\ccAadmBZ.s:323    .text.CMS_EE_FUNC_Ctrl_CmdDspRequest:00000002 .LCFI5
C:\Users\Andrea\AppData\Local\Temp\ccAadmBZ.s:325    .text.CMS_EE_FUNC_Ctrl_CmdDspRequest:00000004 .LCFI6
C:\Users\Andrea\AppData\Local\Temp\ccAadmBZ.s:321    .text.CMS_EE_FUNC_Ctrl_CmdDspRequest:00000000 .LVL28
C:\Users\Andrea\AppData\Local\Temp\ccAadmBZ.s:337    .text.CMS_EE_FUNC_Ctrl_CmdDspRequest:00000011 .LVL31
C:\Users\Andrea\AppData\Local\Temp\ccAadmBZ.s:339    .text.CMS_EE_FUNC_Ctrl_CmdDspRequest:00000013 .LVL32
C:\Users\Andrea\AppData\Local\Temp\ccAadmBZ.s:341    .text.CMS_EE_FUNC_Ctrl_CmdDspRequest:00000016 .LVL33
C:\Users\Andrea\AppData\Local\Temp\ccAadmBZ.s:332    .text.CMS_EE_FUNC_Ctrl_CmdDspRequest:0000000c .LVL30
C:\Users\Andrea\AppData\Local\Temp\ccAadmBZ.s:348    .text.CMS_EE_FUNC_Ctrl_CmdDspRequest:00000021 .LVL35
C:\Users\Andrea\AppData\Local\Temp\ccAadmBZ.s:374    .text.CMS_EE_FUNC_EE_PowerProfileReq:00000002 .LCFI7
C:\Users\Andrea\AppData\Local\Temp\ccAadmBZ.s:376    .text.CMS_EE_FUNC_EE_PowerProfileReq:00000004 .LCFI8
C:\Users\Andrea\AppData\Local\Temp\ccAadmBZ.s:372    .text.CMS_EE_FUNC_EE_PowerProfileReq:00000000 .LVL37
C:\Users\Andrea\AppData\Local\Temp\ccAadmBZ.s:424    .text.CMS_EE_FUNC_EE_PowerProfileReq:0000004c .LVL43
C:\Users\Andrea\AppData\Local\Temp\ccAadmBZ.s:457    .text.CMS_EE_FUNC_EE_ReadPowerMeter:00000002 .LCFI9
C:\Users\Andrea\AppData\Local\Temp\ccAadmBZ.s:459    .text.CMS_EE_FUNC_EE_ReadPowerMeter:00000005 .LCFI10
C:\Users\Andrea\AppData\Local\Temp\ccAadmBZ.s:455    .text.CMS_EE_FUNC_EE_ReadPowerMeter:00000000 .LVL44
C:\Users\Andrea\AppData\Local\Temp\ccAadmBZ.s:466    .text.CMS_EE_FUNC_EE_ReadPowerMeter:00000010 .LVL46
C:\Users\Andrea\AppData\Local\Temp\ccAadmBZ.s:470    .text.CMS_EE_FUNC_EE_ReadPowerMeter:00000014 .LVL48
C:\Users\Andrea\AppData\Local\Temp\ccAadmBZ.s:468    .text.CMS_EE_FUNC_EE_ReadPowerMeter:00000012 .LVL47
C:\Users\Andrea\AppData\Local\Temp\ccAadmBZ.s:508    .text.CMS_EE_FUNC_EE_ReadPowerMeter:00000051 .LVL55
C:\Users\Andrea\AppData\Local\Temp\ccAadmBZ.s:546    .text.CMS_EE_FUNC_EE_ReadPowerMeter:0000008f .LVL58
C:\Users\Andrea\AppData\Local\Temp\ccAadmBZ.s:550    .text.CMS_EE_FUNC_EE_ReadPowerMeter:00000092 .LVL59
C:\Users\Andrea\AppData\Local\Temp\ccAadmBZ.s:511    .text.CMS_EE_FUNC_EE_ReadPowerMeter:00000055 .LVL56
C:\Users\Andrea\AppData\Local\Temp\ccAadmBZ.s:463    .text.CMS_EE_FUNC_EE_ReadPowerMeter:0000000a .LVL45
C:\Users\Andrea\AppData\Local\Temp\ccAadmBZ.s:481    .text.CMS_EE_FUNC_EE_ReadPowerMeter:00000027 .LVL50
C:\Users\Andrea\AppData\Local\Temp\ccAadmBZ.s:543    .text.CMS_EE_FUNC_EE_ReadPowerMeter:0000008b .LVL57
C:\Users\Andrea\AppData\Local\Temp\ccAadmBZ.s:565    .text.CMS_EE_FUNC_EE_SetLoads:00000002 .LCFI11
C:\Users\Andrea\AppData\Local\Temp\ccAadmBZ.s:563    .text.CMS_EE_FUNC_EE_SetLoads:00000000 .LVL60
C:\Users\Andrea\AppData\Local\Temp\ccAadmBZ.s:598    .text.CMS_EE_FUNC_EE_SystemMode:00000002 .LCFI12
C:\Users\Andrea\AppData\Local\Temp\ccAadmBZ.s:721    .text.CMS_EE_FUNC_BS_SetLoads:00000002 .LCFI13
C:\Users\Andrea\AppData\Local\Temp\ccAadmBZ.s:719    .text.CMS_EE_FUNC_BS_SetLoads:00000000 .LVL63
C:\Users\Andrea\AppData\Local\Temp\ccAadmBZ.s:755    .text.CP_SlaveManager.isra.1:00000002 .LCFI14
C:\Users\Andrea\AppData\Local\Temp\ccAadmBZ.s:757    .text.CP_SlaveManager.isra.1:00000005 .LCFI15
C:\Users\Andrea\AppData\Local\Temp\ccAadmBZ.s:753    .text.CP_SlaveManager.isra.1:00000000 .LVL66
C:\Users\Andrea\AppData\Local\Temp\ccAadmBZ.s:763    .text.CP_SlaveManager.isra.1:0000000b .LVL68
C:\Users\Andrea\AppData\Local\Temp\ccAadmBZ.s:767    .text.CP_SlaveManager.isra.1:00000011 .LVL69
C:\Users\Andrea\AppData\Local\Temp\ccAadmBZ.s:871    .text.CP_SlaveManager.isra.1:00000101 .LVL73
C:\Users\Andrea\AppData\Local\Temp\ccAadmBZ.s:879    .text.CP_SlaveManager.isra.1:0000010e .LVL74
C:\Users\Andrea\AppData\Local\Temp\ccAadmBZ.s:928    .text.CP_SlaveManager.isra.1:00000166 .LVL83
C:\Users\Andrea\AppData\Local\Temp\ccAadmBZ.s:954    .text.CP_SlaveManager.isra.1:0000019c .LVL89
C:\Users\Andrea\AppData\Local\Temp\ccAadmBZ.s:964    .text.CP_SlaveManager.isra.1:000001a6 .LVL90
C:\Users\Andrea\AppData\Local\Temp\ccAadmBZ.s:992    .text.CP_SlaveManager.isra.1:000001e6 .LVL96
C:\Users\Andrea\AppData\Local\Temp\ccAadmBZ.s:1034   .text.CP_SlaveManager.isra.1:00000238 .LVL104
C:\Users\Andrea\AppData\Local\Temp\ccAadmBZ.s:1042   .text.CP_SlaveManager.isra.1:00000246 .LVL105
C:\Users\Andrea\AppData\Local\Temp\ccAadmBZ.s:1053   .text.CP_SlaveManager.isra.1:00000253 .LVL107
C:\Users\Andrea\AppData\Local\Temp\ccAadmBZ.s:1067   .text.CP_SlaveManager.isra.1:0000026c .LVL110
C:\Users\Andrea\AppData\Local\Temp\ccAadmBZ.s:1092   .text.CP_SlaveManager.isra.1:00000298 .LVL114
C:\Users\Andrea\AppData\Local\Temp\ccAadmBZ.s:1149   .text.CP_SlaveManager.isra.1:000002fc .LVL124
C:\Users\Andrea\AppData\Local\Temp\ccAadmBZ.s:1151   .text.CP_SlaveManager.isra.1:000002ff .LVL125
C:\Users\Andrea\AppData\Local\Temp\ccAadmBZ.s:1186   .text.CP_SlaveManager.isra.1:0000034f .LVL131
C:\Users\Andrea\AppData\Local\Temp\ccAadmBZ.s:1227   .text.CP_SlaveManager.isra.1:000003a5 .LVL136
C:\Users\Andrea\AppData\Local\Temp\ccAadmBZ.s:1242   .text.CP_SlaveManager.isra.1:000003c5 .LVL139
C:\Users\Andrea\AppData\Local\Temp\ccAadmBZ.s:1521   .text.CP_SlaveManager.isra.1:000005c7 .LVL168
C:\Users\Andrea\AppData\Local\Temp\ccAadmBZ.s:1544   .text.CP_SlaveManager.isra.1:000005ed .LVL172
C:\Users\Andrea\AppData\Local\Temp\ccAadmBZ.s:1548   .text.CP_SlaveManager.isra.1:000005f0 .LVL173
C:\Users\Andrea\AppData\Local\Temp\ccAadmBZ.s:1569   .text.CP_SlaveManager.isra.1:00000610 .LVL176
C:\Users\Andrea\AppData\Local\Temp\ccAadmBZ.s:1584   .text.CP_SlaveManager.isra.1:00000630 .LVL177
C:\Users\Andrea\AppData\Local\Temp\ccAadmBZ.s:856    .text.CP_SlaveManager.isra.1:000000ec .LVL71
C:\Users\Andrea\AppData\Local\Temp\ccAadmBZ.s:886    .text.CP_SlaveManager.isra.1:00000111 .LVL75
C:\Users\Andrea\AppData\Local\Temp\ccAadmBZ.s:913    .text.CP_SlaveManager.isra.1:00000150 .LVL80
C:\Users\Andrea\AppData\Local\Temp\ccAadmBZ.s:908    .text.CP_SlaveManager.isra.1:00000144 .LVL79
C:\Users\Andrea\AppData\Local\Temp\ccAadmBZ.s:1127   .text.CP_SlaveManager.isra.1:000002d9 .LVL121
C:\Users\Andrea\AppData\Local\Temp\ccAadmBZ.s:1132   .text.CP_SlaveManager.isra.1:000002df .LVL122
C:\Users\Andrea\AppData\Local\Temp\ccAadmBZ.s:893    .text.CP_SlaveManager.isra.1:0000011e .LVL77
C:\Users\Andrea\AppData\Local\Temp\ccAadmBZ.s:919    .text.CP_SlaveManager.isra.1:00000153 .LVL81
C:\Users\Andrea\AppData\Local\Temp\ccAadmBZ.s:1084   .text.CP_SlaveManager.isra.1:0000028e .LVL113
C:\Users\Andrea\AppData\Local\Temp\ccAadmBZ.s:1531   .text.CP_SlaveManager.isra.1:000005dd .LVL170
C:\Users\Andrea\AppData\Local\Temp\ccAadmBZ.s:923    .text.CP_SlaveManager.isra.1:0000015b .LVL82
C:\Users\Andrea\AppData\Local\Temp\ccAadmBZ.s:937    .text.CP_SlaveManager.isra.1:00000175 .LVL85
C:\Users\Andrea\AppData\Local\Temp\ccAadmBZ.s:935    .text.CP_SlaveManager.isra.1:00000173 .LVL84
C:\Users\Andrea\AppData\Local\Temp\ccAadmBZ.s:941    .text.CP_SlaveManager.isra.1:0000017f .LVL86
C:\Users\Andrea\AppData\Local\Temp\ccAadmBZ.s:945    .text.CP_SlaveManager.isra.1:00000186 .LVL87
C:\Users\Andrea\AppData\Local\Temp\ccAadmBZ.s:980    .text.CP_SlaveManager.isra.1:000001cc .LVL93
C:\Users\Andrea\AppData\Local\Temp\ccAadmBZ.s:984    .text.CP_SlaveManager.isra.1:000001d4 .LVL94
C:\Users\Andrea\AppData\Local\Temp\ccAadmBZ.s:966    .text.CP_SlaveManager.isra.1:000001a9 .LVL91
C:\Users\Andrea\AppData\Local\Temp\ccAadmBZ.s:1538   .text.CP_SlaveManager.isra.1:000005e9 .LVL171
C:\Users\Andrea\AppData\Local\Temp\ccAadmBZ.s:1002   .text.CP_SlaveManager.isra.1:000001f2 .LVL97
C:\Users\Andrea\AppData\Local\Temp\ccAadmBZ.s:1024   .text.CP_SlaveManager.isra.1:00000225 .LVL101
C:\Users\Andrea\AppData\Local\Temp\ccAadmBZ.s:1030   .text.CP_SlaveManager.isra.1:00000232 .LVL102
C:\Users\Andrea\AppData\Local\Temp\ccAadmBZ.s:1004   .text.CP_SlaveManager.isra.1:000001f5 .LVL98
C:\Users\Andrea\AppData\Local\Temp\ccAadmBZ.s:1009   .text.CP_SlaveManager.isra.1:000001fd .LVL99
C:\Users\Andrea\AppData\Local\Temp\ccAadmBZ.s:1049   .text.CP_SlaveManager.isra.1:0000024e .LVL106
C:\Users\Andrea\AppData\Local\Temp\ccAadmBZ.s:1065   .text.CP_SlaveManager.isra.1:0000026a .LVL109
C:\Users\Andrea\AppData\Local\Temp\ccAadmBZ.s:1073   .text.CP_SlaveManager.isra.1:00000274 .LVL111
C:\Users\Andrea\AppData\Local\Temp\ccAadmBZ.s:1063   .text.CP_SlaveManager.isra.1:00000267 .LVL108
C:\Users\Andrea\AppData\Local\Temp\ccAadmBZ.s:1099   .text.CP_SlaveManager.isra.1:000002a1 .LVL115
C:\Users\Andrea\AppData\Local\Temp\ccAadmBZ.s:1102   .text.CP_SlaveManager.isra.1:000002a4 .LVL116
C:\Users\Andrea\AppData\Local\Temp\ccAadmBZ.s:1104   .text.CP_SlaveManager.isra.1:000002a6 .LVL117
C:\Users\Andrea\AppData\Local\Temp\ccAadmBZ.s:1106   .text.CP_SlaveManager.isra.1:000002a9 .LVL118
C:\Users\Andrea\AppData\Local\Temp\ccAadmBZ.s:1108   .text.CP_SlaveManager.isra.1:000002ab .LVL119
C:\Users\Andrea\AppData\Local\Temp\ccAadmBZ.s:1139   .text.CP_SlaveManager.isra.1:000002e7 .LVL123
C:\Users\Andrea\AppData\Local\Temp\ccAadmBZ.s:1174   .text.CP_SlaveManager.isra.1:00000335 .LVL129
C:\Users\Andrea\AppData\Local\Temp\ccAadmBZ.s:1154   .text.CP_SlaveManager.isra.1:00000303 .LVL126
C:\Users\Andrea\AppData\Local\Temp\ccAadmBZ.s:1183   .text.CP_SlaveManager.isra.1:0000034a .LVL130
C:\Users\Andrea\AppData\Local\Temp\ccAadmBZ.s:1195   .text.CP_SlaveManager.isra.1:0000035d .LVL132
C:\Users\Andrea\AppData\Local\Temp\ccAadmBZ.s:1230   .text.CP_SlaveManager.isra.1:000003ab .LVL137
C:\Users\Andrea\AppData\Local\Temp\ccAadmBZ.s:1206   .text.CP_SlaveManager.isra.1:00000372 .LVL133
C:\Users\Andrea\AppData\Local\Temp\ccAadmBZ.s:1239   .text.CP_SlaveManager.isra.1:000003bf .LVL138
C:\Users\Andrea\AppData\Local\Temp\ccAadmBZ.s:1492   .text.CP_SlaveManager.isra.1:0000059b .LVL162
C:\Users\Andrea\AppData\Local\Temp\ccAadmBZ.s:1496   .text.CP_SlaveManager.isra.1:000005a4 .LVL163
C:\Users\Andrea\AppData\Local\Temp\ccAadmBZ.s:1471   .text.CP_SlaveManager.isra.1:00000572 .LVL159
C:\Users\Andrea\AppData\Local\Temp\ccAadmBZ.s:1478   .text.CP_SlaveManager.isra.1:0000057c .LVL160
C:\Users\Andrea\AppData\Local\Temp\ccAadmBZ.s:1502   .text.CP_SlaveManager.isra.1:000005a7 .LVL164
C:\Users\Andrea\AppData\Local\Temp\ccAadmBZ.s:1504   .text.CP_SlaveManager.isra.1:000005aa .LVL165
C:\Users\Andrea\AppData\Local\Temp\ccAadmBZ.s:1510   .text.CP_SlaveManager.isra.1:000005b4 .LVL166
C:\Users\Andrea\AppData\Local\Temp\ccAadmBZ.s:1513   .text.CP_SlaveManager.isra.1:000005b8 .LVL167
C:\Users\Andrea\AppData\Local\Temp\ccAadmBZ.s:1596   .text.CommunicationProtocolTask:00000002 .LCFI16
C:\Users\Andrea\AppData\Local\Temp\ccAadmBZ.s:1606   .text.CommunicationProtocolTask:00000010 .LVL179
C:\Users\Andrea\AppData\Local\Temp\ccAadmBZ.s:1612   .text.CommunicationProtocolTask:00000018 .LVL180
C:\Users\Andrea\AppData\Local\Temp\ccAadmBZ.s:1632   .text.CommunicationProtocolTask:00000038 .LVL184
C:\Users\Andrea\AppData\Local\Temp\ccAadmBZ.s:1680   .text.CP_I2CCommunicationPlatformInit:00000003 .LCFI17
C:\Users\Andrea\AppData\Local\Temp\ccAadmBZ.s:1758   .text.CP_UartParserTask:00000002 .LCFI18
C:\Users\Andrea\AppData\Local\Temp\ccAadmBZ.s:1762   .text.CP_UartParserTask:0000000b .LVL198
C:\Users\Andrea\AppData\Local\Temp\ccAadmBZ.s:1765   .text.CP_UartParserTask:0000000d .LVL199
C:\Users\Andrea\AppData\Local\Temp\ccAadmBZ.s:1779   .text.CP_UartParserTask:00000020 .LVL202
C:\Users\Andrea\AppData\Local\Temp\ccAadmBZ.s:1782   .text.CP_UartParserTask:00000022 .LVL203
C:\Users\Andrea\AppData\Local\Temp\ccAadmBZ.s:1825   .text.CP_GetPPAddr:00000000 .LVL209
C:\Users\Andrea\AppData\Local\Temp\ccAadmBZ.s:2419   .debug_info:00000000 .Ldebug_info0

UNDEFINED SYMBOLS
_UnusePowerProfile
_OS_Use
_OS_Unuse
_CBF_OnReadStatusCompleted
_CBF_OnReadRegulationsCompleted
_CBF_OnWriteUIInfoCompleted
_OS_SignalEvent
_LIB_IOM_External_SetExtraRequest
_LIB_IOM_External_SetReadRamRequest
_LIB_IOM_External_SetWriteRamRequest
_LIB_IOM_External_ProcessInfoPacketData
_ExternalGlobalData_0
_LIB_IOM_External_GetCommandBuffer
_PM_PowerProfile_GetPowerProfilesNum
_UsePowerProfile
_PM_PowerProfile_GetPowerProfileByProfileID
_PowerMeter_GetInstant_P
_PowerMeter_GetAvgSinceStart_E_Wh
_CBF_CurrentLoadedWater
_LIB_Reset_GetSystemMode
_Main_RemoteLoadsControl_PutCommand
_LIB_Reset_IsTimeoutSet
_LIB_Reset_SetResetTimeout
_LIB_Reset_SetNewSystemMode
_CALLBACK_Protocol_SubModeManage
_CALLBACK_Protocol_UIRemoteControlManage
_CBF_Task_Protocol_SetSpecialModeManager
_LIB_Reset_SetTimedRequest
_LIB_Reset_ChkTimedRequest
_OCRST_WriteBootKeywordArea
_PP_IsSlaveStateRxOK
_BasicLoader
_PP_MappingGetOffset
_OCFLS_REraseSync
_OCFLS_RWriteSync
_PP_IsAccessAllowed
_CBF_OnReadRegulations
_CP_SlaveManager__Read_ApplData
_CBF_OnWriteRegulations
_CP_SlaveManager__Write_ApplData
_PP_SlaveResponseBuilder
_PP_SlaveStartResponse
_OS_WaitSingleEvent
_LIB_Reset_GetNewSystemMode
_LIB_KeywordsRamCorruption
_OCRST_GenerateUserResetSync
_OS_CreateRSema
_OS_CreateTask_S
_PP_SlaveNotification
_OCI2C_InitSync
_InitSema
_OCUART_InitSync
_OCUART_EnableSync
_OCUART_TxByteSync
_OS_Global
_OCUART_ErrMngr
_OCUART_RxStreamMngr
_OS_DelayUntil
_OCUART_DisableSync
_PP_MappingGetPPAddr
_OCI2C_TxSync
_OCI2C_RxSync
_OCUART_TxSync
_OCUART_RxSync
