   1                             		.file	"DigitalInputs.c"
   2                             		.section P,"ax"
   3                             	.Ltext0:
   4                             		.section	.text.LIB_DIO_InitDigInputs,"ax",@progbits
   5                             		.global	_LIB_DIO_InitDigInputs
   7                             	_LIB_DIO_InitDigInputs:
   8                             	.LFB0:
   9                             		.file 1 "C:/Workspace/FW_Inertia/branch_indesit/PlatformLibrary/LIB_DigitalIO/DigitalInputs.c"
   1:C:/Workspace/FW_Inertia/branch_indesit/PlatformLibrary/LIB_DigitalIO\DigitalInputs.c **** /*
   2:C:/Workspace/FW_Inertia/branch_indesit/PlatformLibrary/LIB_DigitalIO\DigitalInputs.c **** Copyright (c) 2004-2005, Indesit Company, I.D.D..
   3:C:/Workspace/FW_Inertia/branch_indesit/PlatformLibrary/LIB_DigitalIO\DigitalInputs.c **** Tutti i diritti sono riservati. All rights reserved.
   4:C:/Workspace/FW_Inertia/branch_indesit/PlatformLibrary/LIB_DigitalIO\DigitalInputs.c **** */
   5:C:/Workspace/FW_Inertia/branch_indesit/PlatformLibrary/LIB_DigitalIO\DigitalInputs.c **** 
   6:C:/Workspace/FW_Inertia/branch_indesit/PlatformLibrary/LIB_DigitalIO\DigitalInputs.c **** /**
   7:C:/Workspace/FW_Inertia/branch_indesit/PlatformLibrary/LIB_DigitalIO\DigitalInputs.c **** \n
   8:C:/Workspace/FW_Inertia/branch_indesit/PlatformLibrary/LIB_DigitalIO\DigitalInputs.c **** \Par		DigitalInputs.c
   9:C:/Workspace/FW_Inertia/branch_indesit/PlatformLibrary/LIB_DigitalIO\DigitalInputs.c **** \n			Implementation of all functions necessary to achieve the aim.
  10:C:/Workspace/FW_Inertia/branch_indesit/PlatformLibrary/LIB_DigitalIO\DigitalInputs.c **** \n
  11:C:/Workspace/FW_Inertia/branch_indesit/PlatformLibrary/LIB_DigitalIO\DigitalInputs.c **** \file		DigitalInputs.c
  12:C:/Workspace/FW_Inertia/branch_indesit/PlatformLibrary/LIB_DigitalIO\DigitalInputs.c **** \ingroup	DigitalInputs
  13:C:/Workspace/FW_Inertia/branch_indesit/PlatformLibrary/LIB_DigitalIO\DigitalInputs.c **** \date		Jun 11, 2010
  14:C:/Workspace/FW_Inertia/branch_indesit/PlatformLibrary/LIB_DigitalIO\DigitalInputs.c **** \version	01.00.00
  15:C:/Workspace/FW_Inertia/branch_indesit/PlatformLibrary/LIB_DigitalIO\DigitalInputs.c **** \author		stefano.ughi
  16:C:/Workspace/FW_Inertia/branch_indesit/PlatformLibrary/LIB_DigitalIO\DigitalInputs.c **** \n
  17:C:/Workspace/FW_Inertia/branch_indesit/PlatformLibrary/LIB_DigitalIO\DigitalInputs.c **** \n
  18:C:/Workspace/FW_Inertia/branch_indesit/PlatformLibrary/LIB_DigitalIO\DigitalInputs.c **** \Par\b	History:
  19:C:/Workspace/FW_Inertia/branch_indesit/PlatformLibrary/LIB_DigitalIO\DigitalInputs.c **** \n
  20:C:/Workspace/FW_Inertia/branch_indesit/PlatformLibrary/LIB_DigitalIO\DigitalInputs.c **** \n 		Jun 11, 2010
  21:C:/Workspace/FW_Inertia/branch_indesit/PlatformLibrary/LIB_DigitalIO\DigitalInputs.c **** \n		01.00.00
  22:C:/Workspace/FW_Inertia/branch_indesit/PlatformLibrary/LIB_DigitalIO\DigitalInputs.c **** \n		stefano.ughi
  23:C:/Workspace/FW_Inertia/branch_indesit/PlatformLibrary/LIB_DigitalIO\DigitalInputs.c **** \n		changes
  24:C:/Workspace/FW_Inertia/branch_indesit/PlatformLibrary/LIB_DigitalIO\DigitalInputs.c **** \n 		- creation
  25:C:/Workspace/FW_Inertia/branch_indesit/PlatformLibrary/LIB_DigitalIO\DigitalInputs.c **** \n
  26:C:/Workspace/FW_Inertia/branch_indesit/PlatformLibrary/LIB_DigitalIO\DigitalInputs.c **** \n etc.
  27:C:/Workspace/FW_Inertia/branch_indesit/PlatformLibrary/LIB_DigitalIO\DigitalInputs.c **** */
  28:C:/Workspace/FW_Inertia/branch_indesit/PlatformLibrary/LIB_DigitalIO\DigitalInputs.c **** #define MODULE_BODY_LIB_DIGITAL_IO
  29:C:/Workspace/FW_Inertia/branch_indesit/PlatformLibrary/LIB_DigitalIO\DigitalInputs.c **** /* ******** */
  30:C:/Workspace/FW_Inertia/branch_indesit/PlatformLibrary/LIB_DigitalIO\DigitalInputs.c **** /* Includes */
  31:C:/Workspace/FW_Inertia/branch_indesit/PlatformLibrary/LIB_DigitalIO\DigitalInputs.c **** /* ******** */
  32:C:/Workspace/FW_Inertia/branch_indesit/PlatformLibrary/LIB_DigitalIO\DigitalInputs.c **** #include "Config.h"
  33:C:/Workspace/FW_Inertia/branch_indesit/PlatformLibrary/LIB_DigitalIO\DigitalInputs.c **** #include <string.h>
  34:C:/Workspace/FW_Inertia/branch_indesit/PlatformLibrary/LIB_DigitalIO\DigitalInputs.c **** #include "IOSharing.h"
  35:C:/Workspace/FW_Inertia/branch_indesit/PlatformLibrary/LIB_DigitalIO\DigitalInputs.c **** #include "DigitalInputs.h"
  36:C:/Workspace/FW_Inertia/branch_indesit/PlatformLibrary/LIB_DigitalIO\DigitalInputs.c **** #include "LIB_Error.h"
  37:C:/Workspace/FW_Inertia/branch_indesit/PlatformLibrary/LIB_DigitalIO\DigitalInputs.c **** #include "OCDIO_drv.h"
  38:C:/Workspace/FW_Inertia/branch_indesit/PlatformLibrary/LIB_DigitalIO\DigitalInputs.c **** 
  39:C:/Workspace/FW_Inertia/branch_indesit/PlatformLibrary/LIB_DigitalIO\DigitalInputs.c **** #include "LIB_ClassBVar.h"
  40:C:/Workspace/FW_Inertia/branch_indesit/PlatformLibrary/LIB_DigitalIO\DigitalInputs.c **** /* ****************** */
  41:C:/Workspace/FW_Inertia/branch_indesit/PlatformLibrary/LIB_DigitalIO\DigitalInputs.c **** /* Defines and Macros */
  42:C:/Workspace/FW_Inertia/branch_indesit/PlatformLibrary/LIB_DigitalIO\DigitalInputs.c **** /* ****************** */
  43:C:/Workspace/FW_Inertia/branch_indesit/PlatformLibrary/LIB_DigitalIO\DigitalInputs.c **** 
  44:C:/Workspace/FW_Inertia/branch_indesit/PlatformLibrary/LIB_DigitalIO\DigitalInputs.c **** 
  45:C:/Workspace/FW_Inertia/branch_indesit/PlatformLibrary/LIB_DigitalIO\DigitalInputs.c **** /* *************************** */
  46:C:/Workspace/FW_Inertia/branch_indesit/PlatformLibrary/LIB_DigitalIO\DigitalInputs.c **** /* Typedef, Structs and Unions */
  47:C:/Workspace/FW_Inertia/branch_indesit/PlatformLibrary/LIB_DigitalIO\DigitalInputs.c **** /* *************************** */
  48:C:/Workspace/FW_Inertia/branch_indesit/PlatformLibrary/LIB_DigitalIO\DigitalInputs.c **** 
  49:C:/Workspace/FW_Inertia/branch_indesit/PlatformLibrary/LIB_DigitalIO\DigitalInputs.c **** 
  50:C:/Workspace/FW_Inertia/branch_indesit/PlatformLibrary/LIB_DigitalIO\DigitalInputs.c **** /* ********* */
  51:C:/Workspace/FW_Inertia/branch_indesit/PlatformLibrary/LIB_DigitalIO\DigitalInputs.c **** /* Variables */
  52:C:/Workspace/FW_Inertia/branch_indesit/PlatformLibrary/LIB_DigitalIO\DigitalInputs.c **** /* ********* */
  53:C:/Workspace/FW_Inertia/branch_indesit/PlatformLibrary/LIB_DigitalIO\DigitalInputs.c **** 
  54:C:/Workspace/FW_Inertia/branch_indesit/PlatformLibrary/LIB_DigitalIO\DigitalInputs.c **** /* Global */
  55:C:/Workspace/FW_Inertia/branch_indesit/PlatformLibrary/LIB_DigitalIO\DigitalInputs.c **** /** bit map, bit i -> result of the input in pos. i */
  56:C:/Workspace/FW_Inertia/branch_indesit/PlatformLibrary/LIB_DigitalIO\DigitalInputs.c **** dig_input_t DigInputs;
  57:C:/Workspace/FW_Inertia/branch_indesit/PlatformLibrary/LIB_DigitalIO\DigitalInputs.c **** /** bit map, bit i=1 -> result of the input in pos. i is ready */
  58:C:/Workspace/FW_Inertia/branch_indesit/PlatformLibrary/LIB_DigitalIO\DigitalInputs.c **** dig_input_t DigInputsReady;
  59:C:/Workspace/FW_Inertia/branch_indesit/PlatformLibrary/LIB_DigitalIO\DigitalInputs.c **** /** bit map, bit i=1 -> read on input in pos.i is disabled */
  60:C:/Workspace/FW_Inertia/branch_indesit/PlatformLibrary/LIB_DigitalIO\DigitalInputs.c **** dig_input_t DigInputsDisable;
  61:C:/Workspace/FW_Inertia/branch_indesit/PlatformLibrary/LIB_DigitalIO\DigitalInputs.c **** /* Static */
  62:C:/Workspace/FW_Inertia/branch_indesit/PlatformLibrary/LIB_DigitalIO\DigitalInputs.c **** /* Input Acq. Configuration */
  63:C:/Workspace/FW_Inertia/branch_indesit/PlatformLibrary/LIB_DigitalIO\DigitalInputs.c **** static digitalInput_t DigInputPin[DIGINPUT_NUM];
  64:C:/Workspace/FW_Inertia/branch_indesit/PlatformLibrary/LIB_DigitalIO\DigitalInputs.c **** /** Number of '1' collected */
  65:C:/Workspace/FW_Inertia/branch_indesit/PlatformLibrary/LIB_DigitalIO\DigitalInputs.c **** static uint8_t DigInput_val[DIGINPUT_NUM];
  66:C:/Workspace/FW_Inertia/branch_indesit/PlatformLibrary/LIB_DigitalIO\DigitalInputs.c **** /** Counter */
  67:C:/Workspace/FW_Inertia/branch_indesit/PlatformLibrary/LIB_DigitalIO\DigitalInputs.c **** static uint8_t DigInput_c[DIGINPUT_NUM];
  68:C:/Workspace/FW_Inertia/branch_indesit/PlatformLibrary/LIB_DigitalIO\DigitalInputs.c **** 
  69:C:/Workspace/FW_Inertia/branch_indesit/PlatformLibrary/LIB_DigitalIO\DigitalInputs.c **** /* ******************* */
  70:C:/Workspace/FW_Inertia/branch_indesit/PlatformLibrary/LIB_DigitalIO\DigitalInputs.c **** /* Functions Prototype */
  71:C:/Workspace/FW_Inertia/branch_indesit/PlatformLibrary/LIB_DigitalIO\DigitalInputs.c **** /* ******************* */
  72:C:/Workspace/FW_Inertia/branch_indesit/PlatformLibrary/LIB_DigitalIO\DigitalInputs.c **** 
  73:C:/Workspace/FW_Inertia/branch_indesit/PlatformLibrary/LIB_DigitalIO\DigitalInputs.c **** /* Exported function */
  74:C:/Workspace/FW_Inertia/branch_indesit/PlatformLibrary/LIB_DigitalIO\DigitalInputs.c **** 
  75:C:/Workspace/FW_Inertia/branch_indesit/PlatformLibrary/LIB_DigitalIO\DigitalInputs.c **** /* Local Function */
  76:C:/Workspace/FW_Inertia/branch_indesit/PlatformLibrary/LIB_DigitalIO\DigitalInputs.c **** 
  77:C:/Workspace/FW_Inertia/branch_indesit/PlatformLibrary/LIB_DigitalIO\DigitalInputs.c **** /* *************** */
  78:C:/Workspace/FW_Inertia/branch_indesit/PlatformLibrary/LIB_DigitalIO\DigitalInputs.c **** /* Function Bodies */
  79:C:/Workspace/FW_Inertia/branch_indesit/PlatformLibrary/LIB_DigitalIO\DigitalInputs.c **** /* *************** */
  80:C:/Workspace/FW_Inertia/branch_indesit/PlatformLibrary/LIB_DigitalIO\DigitalInputs.c **** 
  81:C:/Workspace/FW_Inertia/branch_indesit/PlatformLibrary/LIB_DigitalIO\DigitalInputs.c **** /* Exported function */
  82:C:/Workspace/FW_Inertia/branch_indesit/PlatformLibrary/LIB_DigitalIO\DigitalInputs.c **** /**
  83:C:/Workspace/FW_Inertia/branch_indesit/PlatformLibrary/LIB_DigitalIO\DigitalInputs.c **** \n Initialization of data structures relating to digital inputs.
  84:C:/Workspace/FW_Inertia/branch_indesit/PlatformLibrary/LIB_DigitalIO\DigitalInputs.c **** \n This function is called inside OnColdReset() if SystemMode == SYSTEM_NORMAL_MODE
  85:C:/Workspace/FW_Inertia/branch_indesit/PlatformLibrary/LIB_DigitalIO\DigitalInputs.c **** 
  86:C:/Workspace/FW_Inertia/branch_indesit/PlatformLibrary/LIB_DigitalIO\DigitalInputs.c **** \attention \b DigInputs (Global) W
  87:C:/Workspace/FW_Inertia/branch_indesit/PlatformLibrary/LIB_DigitalIO\DigitalInputs.c **** \attention \b DigInputsReady (Global) W
  88:C:/Workspace/FW_Inertia/branch_indesit/PlatformLibrary/LIB_DigitalIO\DigitalInputs.c **** \attention \b DigInputsDisable (Global) W
  89:C:/Workspace/FW_Inertia/branch_indesit/PlatformLibrary/LIB_DigitalIO\DigitalInputs.c **** 
  90:C:/Workspace/FW_Inertia/branch_indesit/PlatformLibrary/LIB_DigitalIO\DigitalInputs.c **** \attention \b DigInputPin (Global) W
  91:C:/Workspace/FW_Inertia/branch_indesit/PlatformLibrary/LIB_DigitalIO\DigitalInputs.c **** \attention \b DigInput_val (Global) W
  92:C:/Workspace/FW_Inertia/branch_indesit/PlatformLibrary/LIB_DigitalIO\DigitalInputs.c **** \attention \b DigInput_c (Global) W
  93:C:/Workspace/FW_Inertia/branch_indesit/PlatformLibrary/LIB_DigitalIO\DigitalInputs.c **** 
  94:C:/Workspace/FW_Inertia/branch_indesit/PlatformLibrary/LIB_DigitalIO\DigitalInputs.c **** \author 	stefano.ughi
  95:C:/Workspace/FW_Inertia/branch_indesit/PlatformLibrary/LIB_DigitalIO\DigitalInputs.c **** \date		Jun 16, 2010
  96:C:/Workspace/FW_Inertia/branch_indesit/PlatformLibrary/LIB_DigitalIO\DigitalInputs.c **** \version	1.0.0
  97:C:/Workspace/FW_Inertia/branch_indesit/PlatformLibrary/LIB_DigitalIO\DigitalInputs.c **** 
  98:C:/Workspace/FW_Inertia/branch_indesit/PlatformLibrary/LIB_DigitalIO\DigitalInputs.c **** \note		\par \b Note 1:
  99:C:/Workspace/FW_Inertia/branch_indesit/PlatformLibrary/LIB_DigitalIO\DigitalInputs.c **** 			documentation by stefano.ughi
 100:C:/Workspace/FW_Inertia/branch_indesit/PlatformLibrary/LIB_DigitalIO\DigitalInputs.c **** 
 101:C:/Workspace/FW_Inertia/branch_indesit/PlatformLibrary/LIB_DigitalIO\DigitalInputs.c **** */
 102:C:/Workspace/FW_Inertia/branch_indesit/PlatformLibrary/LIB_DigitalIO\DigitalInputs.c **** void LIB_DIO_InitDigInputs(void)
 103:C:/Workspace/FW_Inertia/branch_indesit/PlatformLibrary/LIB_DigitalIO\DigitalInputs.c **** {
  10                             		.loc 1 103 0
 104:C:/Workspace/FW_Inertia/branch_indesit/PlatformLibrary/LIB_DigitalIO\DigitalInputs.c **** 	SAFETY_REGION_START();
 105:C:/Workspace/FW_Inertia/branch_indesit/PlatformLibrary/LIB_DigitalIO\DigitalInputs.c **** 	DigInputs           = 0;
  11                             		.loc 1 105 0
  12 0000 FB E2 00 00 00 00       		mov.L	#_DigInputs, r14
  13 0006 F8 E4 00                		mov.B	#0, [r14]
 106:C:/Workspace/FW_Inertia/branch_indesit/PlatformLibrary/LIB_DigitalIO\DigitalInputs.c **** 	DigInputsDisable    = 0;
  14                             		.loc 1 106 0
  15 0009 FB E2 00 00 00 00       		mov.L	#_DigInputsDisable, r14
  16 000f F8 E4 00                		mov.B	#0, [r14]
 107:C:/Workspace/FW_Inertia/branch_indesit/PlatformLibrary/LIB_DigitalIO\DigitalInputs.c **** 	SAFETY_DATA_UPDATE( DigInputs );
 108:C:/Workspace/FW_Inertia/branch_indesit/PlatformLibrary/LIB_DigitalIO\DigitalInputs.c **** 	SAFETY_DATA_UPDATE( DigInputsDisable );
 109:C:/Workspace/FW_Inertia/branch_indesit/PlatformLibrary/LIB_DigitalIO\DigitalInputs.c **** 	SAFETY_REGION_END();
 110:C:/Workspace/FW_Inertia/branch_indesit/PlatformLibrary/LIB_DigitalIO\DigitalInputs.c **** 
 111:C:/Workspace/FW_Inertia/branch_indesit/PlatformLibrary/LIB_DigitalIO\DigitalInputs.c **** 	DigInputsReady      = 0;
  17                             		.loc 1 111 0
  18 0012 FB E2 00 00 00 00       		mov.L	#_DigInputsReady, r14
  19 0018 F8 E4 00                		mov.B	#0, [r14]
 112:C:/Workspace/FW_Inertia/branch_indesit/PlatformLibrary/LIB_DigitalIO\DigitalInputs.c **** 
 113:C:/Workspace/FW_Inertia/branch_indesit/PlatformLibrary/LIB_DigitalIO\DigitalInputs.c **** 	(void)memset(&DigInputPin[0], 0, sizeof(DigInputPin));
  20                             		.loc 1 113 0
  21 001b FB 12 00 00 00 00       		mov.L	#_DigInputPin, r1
  22 0021 75 43 10                		mov.L	#16, r3
  23 0024 66 02                   		mov	#0, r2
  24 0026 7F 88                   		sstr.b
 114:C:/Workspace/FW_Inertia/branch_indesit/PlatformLibrary/LIB_DigitalIO\DigitalInputs.c **** 	(void)memset(&DigInput_val[0], 0, sizeof(DigInput_val));
  25                             		.loc 1 114 0
  26 0028 FB 12 00 00 00 00       		mov.L	#_DigInput_val, r1
  27 002e 66 83                   		mov.L	#8, r3
  28 0030 7F 88                   		sstr.b
 115:C:/Workspace/FW_Inertia/branch_indesit/PlatformLibrary/LIB_DigitalIO\DigitalInputs.c **** 	(void)memset(&DigInput_c[0], 0, sizeof(DigInput_c));
  29                             		.loc 1 115 0
  30 0032 FB 12 00 00 00 00       		mov.L	#_DigInput_c, r1
  31 0038 66 83                   		mov.L	#8, r3
  32 003a 7F 88                   		sstr.b
  33 003c 02                      		rts
  34                             	.LFE0:
  36                             		.section	.text.LIB_DIO_InsertDigInput,"ax",@progbits
  37                             		.global	_LIB_DIO_InsertDigInput
  39                             	_LIB_DIO_InsertDigInput:
  40                             	.LFB1:
 116:C:/Workspace/FW_Inertia/branch_indesit/PlatformLibrary/LIB_DigitalIO\DigitalInputs.c **** 
 117:C:/Workspace/FW_Inertia/branch_indesit/PlatformLibrary/LIB_DigitalIO\DigitalInputs.c **** }
 118:C:/Workspace/FW_Inertia/branch_indesit/PlatformLibrary/LIB_DigitalIO\DigitalInputs.c **** /**
 119:C:/Workspace/FW_Inertia/branch_indesit/PlatformLibrary/LIB_DigitalIO\DigitalInputs.c **** \n Digital Input setup.
 120:C:/Workspace/FW_Inertia/branch_indesit/PlatformLibrary/LIB_DigitalIO\DigitalInputs.c **** 
 121:C:/Workspace/FW_Inertia/branch_indesit/PlatformLibrary/LIB_DigitalIO\DigitalInputs.c **** 
 122:C:/Workspace/FW_Inertia/branch_indesit/PlatformLibrary/LIB_DigitalIO\DigitalInputs.c **** \param  [in] pos Ram Position Conversion's Result.
 123:C:/Workspace/FW_Inertia/branch_indesit/PlatformLibrary/LIB_DigitalIO\DigitalInputs.c **** \param  [in] pin pin linkage module M.C.U. - 1..
 124:C:/Workspace/FW_Inertia/branch_indesit/PlatformLibrary/LIB_DigitalIO\DigitalInputs.c **** \param  [in] readtype '1' -> multiplexed input '0' -> not multiplexed input.
 125:C:/Workspace/FW_Inertia/branch_indesit/PlatformLibrary/LIB_DigitalIO\DigitalInputs.c **** \param  [in] pConfigData pointer to config. params.
 126:C:/Workspace/FW_Inertia/branch_indesit/PlatformLibrary/LIB_DigitalIO\DigitalInputs.c **** 
 127:C:/Workspace/FW_Inertia/branch_indesit/PlatformLibrary/LIB_DigitalIO\DigitalInputs.c **** \attention \b DigInputPin[] (global) used as R/W
 128:C:/Workspace/FW_Inertia/branch_indesit/PlatformLibrary/LIB_DigitalIO\DigitalInputs.c **** 
 129:C:/Workspace/FW_Inertia/branch_indesit/PlatformLibrary/LIB_DigitalIO\DigitalInputs.c **** 
 130:C:/Workspace/FW_Inertia/branch_indesit/PlatformLibrary/LIB_DigitalIO\DigitalInputs.c **** \author 	Stefano Ughi
 131:C:/Workspace/FW_Inertia/branch_indesit/PlatformLibrary/LIB_DigitalIO\DigitalInputs.c **** \date		11/06/2010
 132:C:/Workspace/FW_Inertia/branch_indesit/PlatformLibrary/LIB_DigitalIO\DigitalInputs.c **** \version	1.0.0
 133:C:/Workspace/FW_Inertia/branch_indesit/PlatformLibrary/LIB_DigitalIO\DigitalInputs.c **** 
 134:C:/Workspace/FW_Inertia/branch_indesit/PlatformLibrary/LIB_DigitalIO\DigitalInputs.c **** 
 135:C:/Workspace/FW_Inertia/branch_indesit/PlatformLibrary/LIB_DigitalIO\DigitalInputs.c **** \note		\par \b Nota 1:
 136:C:/Workspace/FW_Inertia/branch_indesit/PlatformLibrary/LIB_DigitalIO\DigitalInputs.c **** 			Call in LIB_IOM_InputInitialization() only if reset is cold.
 137:C:/Workspace/FW_Inertia/branch_indesit/PlatformLibrary/LIB_DigitalIO\DigitalInputs.c **** */
 138:C:/Workspace/FW_Inertia/branch_indesit/PlatformLibrary/LIB_DigitalIO\DigitalInputs.c **** void LIB_DIO_InsertDigInput ( uint8_t pos, uint8_t pin, uint8_t readtype, const uint8_t *pConfigDat
 139:C:/Workspace/FW_Inertia/branch_indesit/PlatformLibrary/LIB_DigitalIO\DigitalInputs.c **** {
  41                             		.loc 1 139 0
  42                             	.LVL0:
 140:C:/Workspace/FW_Inertia/branch_indesit/PlatformLibrary/LIB_DigitalIO\DigitalInputs.c **** 	digitalInput_t *pDigInputPin;
 141:C:/Workspace/FW_Inertia/branch_indesit/PlatformLibrary/LIB_DigitalIO\DigitalInputs.c **** 
 142:C:/Workspace/FW_Inertia/branch_indesit/PlatformLibrary/LIB_DigitalIO\DigitalInputs.c **** 	if (!((pos < DIGINPUT_NUM) && (pin < IO_MODULE_MAP_SIZE)))
  43                             		.loc 1 142 0
  44 0000 5B 11                   		movu.B	r1, r1
  45 0002 61 71                   		cmp	#7, r1
  46 0004 24 0A                   		bgtu	.L3
  47                             		.loc 1 142 0 is_stmt 0 discriminator 1
  48 0006 5B 22                   		movu.B	r2, r2
  49 0008 75 52 2B                		cmp	#43, r2
  50 000b 25 09                   		bleu	.L4
  51                             	.LVL1:
  52 000d 03                      		.balign 2,3,1
  53                             	.L3:
 143:C:/Workspace/FW_Inertia/branch_indesit/PlatformLibrary/LIB_DigitalIO\DigitalInputs.c **** 	{
 144:C:/Workspace/FW_Inertia/branch_indesit/PlatformLibrary/LIB_DigitalIO\DigitalInputs.c **** 		PLT_ERROR_FATAL(PLT_ERROR_DIG_IN_1);
  54                             		.loc 1 144 0 is_stmt 1
  55 000e 66 51                   		mov.L	#5, r1
  56                             	.LVL2:
  57 0010 04 00 00 00             		bra	_LIB_Error_Fatal_Handler
  58                             	.LVL3:
  59                             	.L4:
 145:C:/Workspace/FW_Inertia/branch_indesit/PlatformLibrary/LIB_DigitalIO\DigitalInputs.c **** 		return; /* Serious Error */
 146:C:/Workspace/FW_Inertia/branch_indesit/PlatformLibrary/LIB_DigitalIO\DigitalInputs.c **** 	}
 147:C:/Workspace/FW_Inertia/branch_indesit/PlatformLibrary/LIB_DigitalIO\DigitalInputs.c **** 
 148:C:/Workspace/FW_Inertia/branch_indesit/PlatformLibrary/LIB_DigitalIO\DigitalInputs.c **** 	pDigInputPin = &DigInputPin[pos];
  60                             		.loc 1 148 0
  61 0014 4B 11                   		add	r1, r1
  62 0016 70 1E 00 00 00 00       		add	#_DigInputPin, r1, r14
  63                             	.LVL4:
 149:C:/Workspace/FW_Inertia/branch_indesit/PlatformLibrary/LIB_DigitalIO\DigitalInputs.c **** 
 150:C:/Workspace/FW_Inertia/branch_indesit/PlatformLibrary/LIB_DigitalIO\DigitalInputs.c **** 	pDigInputPin->s.readtype = ((MPX_INPUT == readtype)?1:0);
  64                             		.loc 1 150 0
  65 001c 5B 33                   		movu.B	r3, r3
  66 001e DC E1                   		mov.W	[r14], r1
  67 0020 61 13                   		cmp	#1, r3
  68 0022 FD EE 01                		bmeq	#14, r1
 151:C:/Workspace/FW_Inertia/branch_indesit/PlatformLibrary/LIB_DigitalIO\DigitalInputs.c **** 	pDigInputPin->s.pin = pin;
  69                             		.loc 1 151 0
  70 0025 75 22 3F                		and #63, r2
  71 0028 6C 22                   		shll	#2, r2
  72 002a 76 21 03 FF             		and #0xffffff03, r1
  73 002e 57 12                   		or	r1, r2
  74 0030 D3 E2                   		mov.W	r2, [r14]
 152:C:/Workspace/FW_Inertia/branch_indesit/PlatformLibrary/LIB_DigitalIO\DigitalInputs.c **** 	/* filtering */
 153:C:/Workspace/FW_Inertia/branch_indesit/PlatformLibrary/LIB_DigitalIO\DigitalInputs.c **** 	/*lint -e826 Suspicious pointer-to-pointer conversion (verified area)*/
 154:C:/Workspace/FW_Inertia/branch_indesit/PlatformLibrary/LIB_DigitalIO\DigitalInputs.c **** 	pDigInputPin->s.filterPot2 = (((digitalLLIparams_t*)((void*)pConfigData))->bit.nRead);
  75                             		.loc 1 154 0
  76 0032 58 43                   		movu.B	[r4], r3
  77                             	.LVL5:
  78 0034 64 73                   		and #7, r3
  79 0036 6C B3                   		shll	#11, r3
  80 0038 76 22 FF C7             		and #0xffffc7ff, r2
  81 003c 57 23                   		or	r2, r3
  82 003e D3 E3                   		mov.W	r3, [r14]
 155:C:/Workspace/FW_Inertia/branch_indesit/PlatformLibrary/LIB_DigitalIO\DigitalInputs.c **** 	/*lint +e826 */
 156:C:/Workspace/FW_Inertia/branch_indesit/PlatformLibrary/LIB_DigitalIO\DigitalInputs.c **** 
 157:C:/Workspace/FW_Inertia/branch_indesit/PlatformLibrary/LIB_DigitalIO\DigitalInputs.c **** 	/* is read enabled ? */
 158:C:/Workspace/FW_Inertia/branch_indesit/PlatformLibrary/LIB_DigitalIO\DigitalInputs.c **** 	/*lint -e826 Suspicious pointer-to-pointer conversion (verified area)*/
 159:C:/Workspace/FW_Inertia/branch_indesit/PlatformLibrary/LIB_DigitalIO\DigitalInputs.c **** 	pDigInputPin->s.active = (((digitalLLIparams_t*)((void*)pConfigData))->bit.automatic?1:0);
  83                             		.loc 1 159 0
  84 0040 DC 44                   		mov.W	[r4], r4
  85                             	.LVL6:
  86 0042 61 04                   		cmp	#0, r4
  87 0044 FD EF 93                		bmlt	#15, r3
  88 0047 D3 E3                   		mov.W	r3, [r14]
  89 0049 02                      		rts
  90                             	.LFE1:
  92                             		.section	.text.LIB_DIO_GET_INPUT,"ax",@progbits
  93                             		.global	_LIB_DIO_GET_INPUT
  95                             	_LIB_DIO_GET_INPUT:
  96                             	.LFB3:
 160:C:/Workspace/FW_Inertia/branch_indesit/PlatformLibrary/LIB_DigitalIO\DigitalInputs.c **** 	/*lint +e826 */
 161:C:/Workspace/FW_Inertia/branch_indesit/PlatformLibrary/LIB_DigitalIO\DigitalInputs.c **** 
 162:C:/Workspace/FW_Inertia/branch_indesit/PlatformLibrary/LIB_DigitalIO\DigitalInputs.c **** 	/*
 163:C:/Workspace/FW_Inertia/branch_indesit/PlatformLibrary/LIB_DigitalIO\DigitalInputs.c **** 	N.B.: don't care pull-up info because pull-up is already set in LIB_IOM_InputInitialization()
 164:C:/Workspace/FW_Inertia/branch_indesit/PlatformLibrary/LIB_DigitalIO\DigitalInputs.c **** 	*/
 165:C:/Workspace/FW_Inertia/branch_indesit/PlatformLibrary/LIB_DigitalIO\DigitalInputs.c **** 
 166:C:/Workspace/FW_Inertia/branch_indesit/PlatformLibrary/LIB_DigitalIO\DigitalInputs.c **** #if defined __MULTI_H
 167:C:/Workspace/FW_Inertia/branch_indesit/PlatformLibrary/LIB_DigitalIO\DigitalInputs.c **** 	/* mpx config. setup */
 168:C:/Workspace/FW_Inertia/branch_indesit/PlatformLibrary/LIB_DigitalIO\DigitalInputs.c **** 	pDigInputPin->s.chsel = (((digitalMpxLLIparams_t*)pConfigData)->bit.mpxCfg);
 169:C:/Workspace/FW_Inertia/branch_indesit/PlatformLibrary/LIB_DigitalIO\DigitalInputs.c **** 	pDigInputPin->s.inversion = (((digitalMpxLLIparams_t*)pConfigData)->bit.inverted?1:0);
 170:C:/Workspace/FW_Inertia/branch_indesit/PlatformLibrary/LIB_DigitalIO\DigitalInputs.c **** 	pDigInputPin->s.pullupEn = (((digitalMpxLLIparams_t*)pConfigData)->bit.pullUp?1:0);
 171:C:/Workspace/FW_Inertia/branch_indesit/PlatformLibrary/LIB_DigitalIO\DigitalInputs.c **** #endif /* __MULTI_H  */
 172:C:/Workspace/FW_Inertia/branch_indesit/PlatformLibrary/LIB_DigitalIO\DigitalInputs.c **** 
 173:C:/Workspace/FW_Inertia/branch_indesit/PlatformLibrary/LIB_DigitalIO\DigitalInputs.c **** }
 174:C:/Workspace/FW_Inertia/branch_indesit/PlatformLibrary/LIB_DigitalIO\DigitalInputs.c **** /**
 175:C:/Workspace/FW_Inertia/branch_indesit/PlatformLibrary/LIB_DigitalIO\DigitalInputs.c **** \n LIB_DIO_DigInputManager.
 176:C:/Workspace/FW_Inertia/branch_indesit/PlatformLibrary/LIB_DigitalIO\DigitalInputs.c **** \n Manage all digital inputs.
 177:C:/Workspace/FW_Inertia/branch_indesit/PlatformLibrary/LIB_DigitalIO\DigitalInputs.c **** 
 178:C:/Workspace/FW_Inertia/branch_indesit/PlatformLibrary/LIB_DigitalIO\DigitalInputs.c **** \attention \b  DigInputPin[]  (global) Input Description.
 179:C:/Workspace/FW_Inertia/branch_indesit/PlatformLibrary/LIB_DigitalIO\DigitalInputs.c **** \attention \b  DigInput_c[]   (global) Number of samples collected for the i-th input
 180:C:/Workspace/FW_Inertia/branch_indesit/PlatformLibrary/LIB_DigitalIO\DigitalInputs.c **** \attention \b  DigInput_val[] (global) Number of times i-th input was high (logical value,not real 
 181:C:/Workspace/FW_Inertia/branch_indesit/PlatformLibrary/LIB_DigitalIO\DigitalInputs.c **** 
 182:C:/Workspace/FW_Inertia/branch_indesit/PlatformLibrary/LIB_DigitalIO\DigitalInputs.c **** \attention \b DigInputs (global) bit map, bit i -> result of the input in pos. i
 183:C:/Workspace/FW_Inertia/branch_indesit/PlatformLibrary/LIB_DigitalIO\DigitalInputs.c **** \attention \b DigInputsDisable (global) bit map, bit i -> read on input in pos.i is disabled
 184:C:/Workspace/FW_Inertia/branch_indesit/PlatformLibrary/LIB_DigitalIO\DigitalInputs.c **** \attention \b DigInputsReady (global) bit map, bit i -> result of the input in pos. i is ready
 185:C:/Workspace/FW_Inertia/branch_indesit/PlatformLibrary/LIB_DigitalIO\DigitalInputs.c **** 
 186:C:/Workspace/FW_Inertia/branch_indesit/PlatformLibrary/LIB_DigitalIO\DigitalInputs.c **** 
 187:C:/Workspace/FW_Inertia/branch_indesit/PlatformLibrary/LIB_DigitalIO\DigitalInputs.c **** \author 	Stefano Ughi
 188:C:/Workspace/FW_Inertia/branch_indesit/PlatformLibrary/LIB_DigitalIO\DigitalInputs.c **** \date		08/10/2010
 189:C:/Workspace/FW_Inertia/branch_indesit/PlatformLibrary/LIB_DigitalIO\DigitalInputs.c **** \version	1.0.2
 190:C:/Workspace/FW_Inertia/branch_indesit/PlatformLibrary/LIB_DigitalIO\DigitalInputs.c **** 
 191:C:/Workspace/FW_Inertia/branch_indesit/PlatformLibrary/LIB_DigitalIO\DigitalInputs.c **** \todo       check __MULTI_H
 192:C:/Workspace/FW_Inertia/branch_indesit/PlatformLibrary/LIB_DigitalIO\DigitalInputs.c **** 
 193:C:/Workspace/FW_Inertia/branch_indesit/PlatformLibrary/LIB_DigitalIO\DigitalInputs.c **** \note		\par \b Nota 1:
 194:C:/Workspace/FW_Inertia/branch_indesit/PlatformLibrary/LIB_DigitalIO\DigitalInputs.c **** 			This function is called inside Task_10_ms if SystemMode = SYSTEM_NORMAL_MODE,\n
 195:C:/Workspace/FW_Inertia/branch_indesit/PlatformLibrary/LIB_DigitalIO\DigitalInputs.c **** 			The call period depends from  DIGITAL_INPUT_SAMPLE_TIME property \n
 196:C:/Workspace/FW_Inertia/branch_indesit/PlatformLibrary/LIB_DigitalIO\DigitalInputs.c **** 			Documentation by Stefano Ughi
 197:C:/Workspace/FW_Inertia/branch_indesit/PlatformLibrary/LIB_DigitalIO\DigitalInputs.c **** 
 198:C:/Workspace/FW_Inertia/branch_indesit/PlatformLibrary/LIB_DigitalIO\DigitalInputs.c **** */
 199:C:/Workspace/FW_Inertia/branch_indesit/PlatformLibrary/LIB_DigitalIO\DigitalInputs.c **** void LIB_DIO_DigInputManager(void)
 200:C:/Workspace/FW_Inertia/branch_indesit/PlatformLibrary/LIB_DigitalIO\DigitalInputs.c **** {
 201:C:/Workspace/FW_Inertia/branch_indesit/PlatformLibrary/LIB_DigitalIO\DigitalInputs.c **** 	uint8_t i;
 202:C:/Workspace/FW_Inertia/branch_indesit/PlatformLibrary/LIB_DigitalIO\DigitalInputs.c **** 	uint8_t nSamplesOnPin;
 203:C:/Workspace/FW_Inertia/branch_indesit/PlatformLibrary/LIB_DigitalIO\DigitalInputs.c **** 	dig_input_t mask = 1;
 204:C:/Workspace/FW_Inertia/branch_indesit/PlatformLibrary/LIB_DigitalIO\DigitalInputs.c **** 
 205:C:/Workspace/FW_Inertia/branch_indesit/PlatformLibrary/LIB_DigitalIO\DigitalInputs.c **** 	SAFETY_REGION_START();
 206:C:/Workspace/FW_Inertia/branch_indesit/PlatformLibrary/LIB_DigitalIO\DigitalInputs.c **** 	SAFETY_DATA_CHECK(DigInputs);
 207:C:/Workspace/FW_Inertia/branch_indesit/PlatformLibrary/LIB_DigitalIO\DigitalInputs.c **** 	SAFETY_DATA_CHECK(DigInputsDisable);
 208:C:/Workspace/FW_Inertia/branch_indesit/PlatformLibrary/LIB_DigitalIO\DigitalInputs.c **** 
 209:C:/Workspace/FW_Inertia/branch_indesit/PlatformLibrary/LIB_DigitalIO\DigitalInputs.c **** 	for ( i = 0; i < DIGINPUT_NUM; i++ )
 210:C:/Workspace/FW_Inertia/branch_indesit/PlatformLibrary/LIB_DigitalIO\DigitalInputs.c **** 	{
 211:C:/Workspace/FW_Inertia/branch_indesit/PlatformLibrary/LIB_DigitalIO\DigitalInputs.c **** 		if ( DigInputPin[i].s.active == TRUE )
 212:C:/Workspace/FW_Inertia/branch_indesit/PlatformLibrary/LIB_DigitalIO\DigitalInputs.c **** 		{
 213:C:/Workspace/FW_Inertia/branch_indesit/PlatformLibrary/LIB_DigitalIO\DigitalInputs.c **** 			/* the input is enabled */
 214:C:/Workspace/FW_Inertia/branch_indesit/PlatformLibrary/LIB_DigitalIO\DigitalInputs.c **** #ifdef __MULTI_H
 215:C:/Workspace/FW_Inertia/branch_indesit/PlatformLibrary/LIB_DigitalIO\DigitalInputs.c **** 			if ( DigInputPin[i].s.readtype )
 216:C:/Workspace/FW_Inertia/branch_indesit/PlatformLibrary/LIB_DigitalIO\DigitalInputs.c **** 			{
 217:C:/Workspace/FW_Inertia/branch_indesit/PlatformLibrary/LIB_DigitalIO\DigitalInputs.c **** 				/* the input is multiplexed */
 218:C:/Workspace/FW_Inertia/branch_indesit/PlatformLibrary/LIB_DigitalIO\DigitalInputs.c **** 
 219:C:/Workspace/FW_Inertia/branch_indesit/PlatformLibrary/LIB_DigitalIO\DigitalInputs.c **** 				LIB_IOM_Set_IODir_ActiveSense(DigInputPin[i].s.inversion,DigInputPin[i].s.pin);
 220:C:/Workspace/FW_Inertia/branch_indesit/PlatformLibrary/LIB_DigitalIO\DigitalInputs.c **** 				if ( DigInputPin[i].s.pullupEn )
 221:C:/Workspace/FW_Inertia/branch_indesit/PlatformLibrary/LIB_DigitalIO\DigitalInputs.c **** 				{
 222:C:/Workspace/FW_Inertia/branch_indesit/PlatformLibrary/LIB_DigitalIO\DigitalInputs.c **** 					(void)OCDIO_SetPinPullUpSync(DigInputPin[i].s.pin);
 223:C:/Workspace/FW_Inertia/branch_indesit/PlatformLibrary/LIB_DigitalIO\DigitalInputs.c **** 				}
 224:C:/Workspace/FW_Inertia/branch_indesit/PlatformLibrary/LIB_DigitalIO\DigitalInputs.c **** 				else
 225:C:/Workspace/FW_Inertia/branch_indesit/PlatformLibrary/LIB_DigitalIO\DigitalInputs.c **** 				{
 226:C:/Workspace/FW_Inertia/branch_indesit/PlatformLibrary/LIB_DigitalIO\DigitalInputs.c **** 					(void)OCDIO_ResetPinPullUpSync(DigInputPin[i].s.pin);
 227:C:/Workspace/FW_Inertia/branch_indesit/PlatformLibrary/LIB_DigitalIO\DigitalInputs.c **** 				}
 228:C:/Workspace/FW_Inertia/branch_indesit/PlatformLibrary/LIB_DigitalIO\DigitalInputs.c **** 				/* Mpx Selection */
 229:C:/Workspace/FW_Inertia/branch_indesit/PlatformLibrary/LIB_DigitalIO\DigitalInputs.c **** 				PM_setInMux(DigInputPin[i].s.chsel);
 230:C:/Workspace/FW_Inertia/branch_indesit/PlatformLibrary/LIB_DigitalIO\DigitalInputs.c **** 			}
 231:C:/Workspace/FW_Inertia/branch_indesit/PlatformLibrary/LIB_DigitalIO\DigitalInputs.c **** #endif /* #ifdef __MULTI_H */
 232:C:/Workspace/FW_Inertia/branch_indesit/PlatformLibrary/LIB_DigitalIO\DigitalInputs.c **** 
 233:C:/Workspace/FW_Inertia/branch_indesit/PlatformLibrary/LIB_DigitalIO\DigitalInputs.c **** #ifdef DIGITAL_LOCAL_FILTER_ENABLED
 234:C:/Workspace/FW_Inertia/branch_indesit/PlatformLibrary/LIB_DigitalIO\DigitalInputs.c **** 			if (LIB_DIO_GET_INPUT_F (DigInputPin[i].s.pin, DIGITAL_LOCAL_FILTER_NUM))
 235:C:/Workspace/FW_Inertia/branch_indesit/PlatformLibrary/LIB_DigitalIO\DigitalInputs.c **** 			{
 236:C:/Workspace/FW_Inertia/branch_indesit/PlatformLibrary/LIB_DigitalIO\DigitalInputs.c **** 				DigInput_val[i]++;
 237:C:/Workspace/FW_Inertia/branch_indesit/PlatformLibrary/LIB_DigitalIO\DigitalInputs.c **** 			}
 238:C:/Workspace/FW_Inertia/branch_indesit/PlatformLibrary/LIB_DigitalIO\DigitalInputs.c **** #else
 239:C:/Workspace/FW_Inertia/branch_indesit/PlatformLibrary/LIB_DigitalIO\DigitalInputs.c **** 			if (LIB_DIO_GET_INPUT (DigInputPin[i].s.pin))
 240:C:/Workspace/FW_Inertia/branch_indesit/PlatformLibrary/LIB_DigitalIO\DigitalInputs.c **** 			{
 241:C:/Workspace/FW_Inertia/branch_indesit/PlatformLibrary/LIB_DigitalIO\DigitalInputs.c **** 				DigInput_val[i]++;
 242:C:/Workspace/FW_Inertia/branch_indesit/PlatformLibrary/LIB_DigitalIO\DigitalInputs.c **** 			}
 243:C:/Workspace/FW_Inertia/branch_indesit/PlatformLibrary/LIB_DigitalIO\DigitalInputs.c **** #endif
 244:C:/Workspace/FW_Inertia/branch_indesit/PlatformLibrary/LIB_DigitalIO\DigitalInputs.c **** 
 245:C:/Workspace/FW_Inertia/branch_indesit/PlatformLibrary/LIB_DigitalIO\DigitalInputs.c **** 			DigInput_c[i]++;
 246:C:/Workspace/FW_Inertia/branch_indesit/PlatformLibrary/LIB_DigitalIO\DigitalInputs.c **** 			/* Number of readings to do before making the decision */
 247:C:/Workspace/FW_Inertia/branch_indesit/PlatformLibrary/LIB_DigitalIO\DigitalInputs.c **** 			nSamplesOnPin = (uint8_t)(1u<<DigInputPin[i].s.filterPot2);
 248:C:/Workspace/FW_Inertia/branch_indesit/PlatformLibrary/LIB_DigitalIO\DigitalInputs.c **** 
 249:C:/Workspace/FW_Inertia/branch_indesit/PlatformLibrary/LIB_DigitalIO\DigitalInputs.c **** 			if (DigInput_c[i] >= nSamplesOnPin)
 250:C:/Workspace/FW_Inertia/branch_indesit/PlatformLibrary/LIB_DigitalIO\DigitalInputs.c **** 			{
 251:C:/Workspace/FW_Inertia/branch_indesit/PlatformLibrary/LIB_DigitalIO\DigitalInputs.c **** 				DigInput_c[i]=0;
 252:C:/Workspace/FW_Inertia/branch_indesit/PlatformLibrary/LIB_DigitalIO\DigitalInputs.c **** 
 253:C:/Workspace/FW_Inertia/branch_indesit/PlatformLibrary/LIB_DigitalIO\DigitalInputs.c **** 				if ( DigInput_val[i] >= (uint8_t)( nSamplesOnPin-(nSamplesOnPin/4) ) )
 254:C:/Workspace/FW_Inertia/branch_indesit/PlatformLibrary/LIB_DigitalIO\DigitalInputs.c **** 				{
 255:C:/Workspace/FW_Inertia/branch_indesit/PlatformLibrary/LIB_DigitalIO\DigitalInputs.c **** 					if ((DigInputsDisable & mask) == 0)
 256:C:/Workspace/FW_Inertia/branch_indesit/PlatformLibrary/LIB_DigitalIO\DigitalInputs.c **** 					{
 257:C:/Workspace/FW_Inertia/branch_indesit/PlatformLibrary/LIB_DigitalIO\DigitalInputs.c **** 						/* The input is enabled so update the final value */
 258:C:/Workspace/FW_Inertia/branch_indesit/PlatformLibrary/LIB_DigitalIO\DigitalInputs.c **** 						DigInputs |= (mask);
 259:C:/Workspace/FW_Inertia/branch_indesit/PlatformLibrary/LIB_DigitalIO\DigitalInputs.c **** 					}
 260:C:/Workspace/FW_Inertia/branch_indesit/PlatformLibrary/LIB_DigitalIO\DigitalInputs.c **** 				}
 261:C:/Workspace/FW_Inertia/branch_indesit/PlatformLibrary/LIB_DigitalIO\DigitalInputs.c **** 				else if ( DigInput_val[i] <= (nSamplesOnPin/4) )
 262:C:/Workspace/FW_Inertia/branch_indesit/PlatformLibrary/LIB_DigitalIO\DigitalInputs.c **** 				{
 263:C:/Workspace/FW_Inertia/branch_indesit/PlatformLibrary/LIB_DigitalIO\DigitalInputs.c **** 					if ((DigInputsDisable & mask) == 0)
 264:C:/Workspace/FW_Inertia/branch_indesit/PlatformLibrary/LIB_DigitalIO\DigitalInputs.c **** 					{
 265:C:/Workspace/FW_Inertia/branch_indesit/PlatformLibrary/LIB_DigitalIO\DigitalInputs.c **** 						/* The input is enabled so update the final value */
 266:C:/Workspace/FW_Inertia/branch_indesit/PlatformLibrary/LIB_DigitalIO\DigitalInputs.c **** 						DigInputs &= (dig_input_t)(~(uint32_t)mask);
 267:C:/Workspace/FW_Inertia/branch_indesit/PlatformLibrary/LIB_DigitalIO\DigitalInputs.c **** 					}
 268:C:/Workspace/FW_Inertia/branch_indesit/PlatformLibrary/LIB_DigitalIO\DigitalInputs.c **** 				}
 269:C:/Workspace/FW_Inertia/branch_indesit/PlatformLibrary/LIB_DigitalIO\DigitalInputs.c **** 				else
 270:C:/Workspace/FW_Inertia/branch_indesit/PlatformLibrary/LIB_DigitalIO\DigitalInputs.c **** 				{
 271:C:/Workspace/FW_Inertia/branch_indesit/PlatformLibrary/LIB_DigitalIO\DigitalInputs.c **** 					/* stay with the old value */
 272:C:/Workspace/FW_Inertia/branch_indesit/PlatformLibrary/LIB_DigitalIO\DigitalInputs.c **** 				}
 273:C:/Workspace/FW_Inertia/branch_indesit/PlatformLibrary/LIB_DigitalIO\DigitalInputs.c **** 
 274:C:/Workspace/FW_Inertia/branch_indesit/PlatformLibrary/LIB_DigitalIO\DigitalInputs.c **** 				DigInputsReady |= (mask);
 275:C:/Workspace/FW_Inertia/branch_indesit/PlatformLibrary/LIB_DigitalIO\DigitalInputs.c **** 
 276:C:/Workspace/FW_Inertia/branch_indesit/PlatformLibrary/LIB_DigitalIO\DigitalInputs.c **** 				DigInput_val[i]=0;
 277:C:/Workspace/FW_Inertia/branch_indesit/PlatformLibrary/LIB_DigitalIO\DigitalInputs.c **** 			}
 278:C:/Workspace/FW_Inertia/branch_indesit/PlatformLibrary/LIB_DigitalIO\DigitalInputs.c **** 		}
 279:C:/Workspace/FW_Inertia/branch_indesit/PlatformLibrary/LIB_DigitalIO\DigitalInputs.c **** 		mask = (dig_input_t)( mask << 1 );
 280:C:/Workspace/FW_Inertia/branch_indesit/PlatformLibrary/LIB_DigitalIO\DigitalInputs.c **** 
 281:C:/Workspace/FW_Inertia/branch_indesit/PlatformLibrary/LIB_DigitalIO\DigitalInputs.c **** 	}
 282:C:/Workspace/FW_Inertia/branch_indesit/PlatformLibrary/LIB_DigitalIO\DigitalInputs.c **** 	SAFETY_DATA_UPDATE( DigInputs );
 283:C:/Workspace/FW_Inertia/branch_indesit/PlatformLibrary/LIB_DigitalIO\DigitalInputs.c **** 	SAFETY_REGION_END();
 284:C:/Workspace/FW_Inertia/branch_indesit/PlatformLibrary/LIB_DigitalIO\DigitalInputs.c **** }
 285:C:/Workspace/FW_Inertia/branch_indesit/PlatformLibrary/LIB_DigitalIO\DigitalInputs.c **** 
 286:C:/Workspace/FW_Inertia/branch_indesit/PlatformLibrary/LIB_DigitalIO\DigitalInputs.c **** /**
 287:C:/Workspace/FW_Inertia/branch_indesit/PlatformLibrary/LIB_DigitalIO\DigitalInputs.c **** \n Fixed the pin index inside the Module IO Map return it's value.
 288:C:/Workspace/FW_Inertia/branch_indesit/PlatformLibrary/LIB_DigitalIO\DigitalInputs.c **** \n real value if there isn't inversion, otherwise inverted value.
 289:C:/Workspace/FW_Inertia/branch_indesit/PlatformLibrary/LIB_DigitalIO\DigitalInputs.c **** 
 290:C:/Workspace/FW_Inertia/branch_indesit/PlatformLibrary/LIB_DigitalIO\DigitalInputs.c **** \param  [in] pin pin index of ModuleIOmap.
 291:C:/Workspace/FW_Inertia/branch_indesit/PlatformLibrary/LIB_DigitalIO\DigitalInputs.c **** 
 292:C:/Workspace/FW_Inertia/branch_indesit/PlatformLibrary/LIB_DigitalIO\DigitalInputs.c **** \return 	bool_t
 293:C:/Workspace/FW_Inertia/branch_indesit/PlatformLibrary/LIB_DigitalIO\DigitalInputs.c **** 
 294:C:/Workspace/FW_Inertia/branch_indesit/PlatformLibrary/LIB_DigitalIO\DigitalInputs.c **** \retval		input pin value.
 295:C:/Workspace/FW_Inertia/branch_indesit/PlatformLibrary/LIB_DigitalIO\DigitalInputs.c **** 
 296:C:/Workspace/FW_Inertia/branch_indesit/PlatformLibrary/LIB_DigitalIO\DigitalInputs.c **** \author 	Stefano Ughi
 297:C:/Workspace/FW_Inertia/branch_indesit/PlatformLibrary/LIB_DigitalIO\DigitalInputs.c **** \date		17/10/2010
 298:C:/Workspace/FW_Inertia/branch_indesit/PlatformLibrary/LIB_DigitalIO\DigitalInputs.c **** \version	1.0.0
 299:C:/Workspace/FW_Inertia/branch_indesit/PlatformLibrary/LIB_DigitalIO\DigitalInputs.c **** 
 300:C:/Workspace/FW_Inertia/branch_indesit/PlatformLibrary/LIB_DigitalIO\DigitalInputs.c **** */
 301:C:/Workspace/FW_Inertia/branch_indesit/PlatformLibrary/LIB_DigitalIO\DigitalInputs.c **** bool_t LIB_DIO_GET_INPUT( uint8_t pin )
 302:C:/Workspace/FW_Inertia/branch_indesit/PlatformLibrary/LIB_DigitalIO\DigitalInputs.c **** {
  97                             		.loc 1 302 0
  98                             	.LVL7:
  99 0000 6E 7A                   		pushm	r7-r10
 100                             	.LCFI0:
 101 0002 CF 1A                   		mov.B	r1, r10
 303:C:/Workspace/FW_Inertia/branch_indesit/PlatformLibrary/LIB_DigitalIO\DigitalInputs.c **** 	bool_t pinValue;
 304:C:/Workspace/FW_Inertia/branch_indesit/PlatformLibrary/LIB_DigitalIO\DigitalInputs.c **** 	bool_t pinSensing;
 305:C:/Workspace/FW_Inertia/branch_indesit/PlatformLibrary/LIB_DigitalIO\DigitalInputs.c **** 
 306:C:/Workspace/FW_Inertia/branch_indesit/PlatformLibrary/LIB_DigitalIO\DigitalInputs.c **** 	pinValue = OCDIO_GetPinValueSync(pin);
 102                             		.loc 1 306 0
 103 0004 05 00 00 00             		bsr	_OCDIO_GetPinValueSync
 104                             	.LVL8:
 105 0008 EF 17                   		mov.L	r1, r7
 106                             	.LVL9:
 307:C:/Workspace/FW_Inertia/branch_indesit/PlatformLibrary/LIB_DigitalIO\DigitalInputs.c **** 
 308:C:/Workspace/FW_Inertia/branch_indesit/PlatformLibrary/LIB_DigitalIO\DigitalInputs.c **** 	pinSensing = LIB_IOM_Get_IODir_ActiveSense(pin);
 107                             		.loc 1 308 0
 108 000a CF A1                   		mov.B	r10, r1
 109                             	.LVL10:
 110 000c 05 00 00 00             		bsr	_LIB_IOM_Get_IODir_ActiveSense
 111                             	.LVL11:
 309:C:/Workspace/FW_Inertia/branch_indesit/PlatformLibrary/LIB_DigitalIO\DigitalInputs.c **** 
 310:C:/Workspace/FW_Inertia/branch_indesit/PlatformLibrary/LIB_DigitalIO\DigitalInputs.c **** 	return ( (bool_t)(pinValue ^ pinSensing) );
 311:C:/Workspace/FW_Inertia/branch_indesit/PlatformLibrary/LIB_DigitalIO\DigitalInputs.c **** }
 112                             		.loc 1 311 0
 113 0010 FC 37 71                		xor	r7, r1
 114                             	.LVL12:
 115 0013 3F 7A 04                		rtsd	#16, r7-r10
 116                             	.LFE3:
 118                             		.section	.text.LIB_DIO_GET_INPUT_F,"ax",@progbits
 119                             		.global	_LIB_DIO_GET_INPUT_F
 121                             	_LIB_DIO_GET_INPUT_F:
 122                             	.LFB4:
 312:C:/Workspace/FW_Inertia/branch_indesit/PlatformLibrary/LIB_DigitalIO\DigitalInputs.c **** /**
 313:C:/Workspace/FW_Inertia/branch_indesit/PlatformLibrary/LIB_DigitalIO\DigitalInputs.c **** \n Fixed the pin index inside the Module IO Map return it's value.
 314:C:/Workspace/FW_Inertia/branch_indesit/PlatformLibrary/LIB_DigitalIO\DigitalInputs.c **** \n real value if there isn't inversion, otherwise inverted value
 315:C:/Workspace/FW_Inertia/branch_indesit/PlatformLibrary/LIB_DigitalIO\DigitalInputs.c **** \n Reading is filtered with filter value equal to filterValue [range 0-127]
 316:C:/Workspace/FW_Inertia/branch_indesit/PlatformLibrary/LIB_DigitalIO\DigitalInputs.c **** \n The decision on the fact that the value of the pin is high or low is made by a majority.
 317:C:/Workspace/FW_Inertia/branch_indesit/PlatformLibrary/LIB_DigitalIO\DigitalInputs.c **** 
 318:C:/Workspace/FW_Inertia/branch_indesit/PlatformLibrary/LIB_DigitalIO\DigitalInputs.c **** \param  [in] pin pin index of ModuleIOmap.
 319:C:/Workspace/FW_Inertia/branch_indesit/PlatformLibrary/LIB_DigitalIO\DigitalInputs.c **** \param  [in] filterValue number of samples to collect.
 320:C:/Workspace/FW_Inertia/branch_indesit/PlatformLibrary/LIB_DigitalIO\DigitalInputs.c **** 
 321:C:/Workspace/FW_Inertia/branch_indesit/PlatformLibrary/LIB_DigitalIO\DigitalInputs.c **** \return 	bool_t
 322:C:/Workspace/FW_Inertia/branch_indesit/PlatformLibrary/LIB_DigitalIO\DigitalInputs.c **** 
 323:C:/Workspace/FW_Inertia/branch_indesit/PlatformLibrary/LIB_DigitalIO\DigitalInputs.c **** \retval		input pin value.
 324:C:/Workspace/FW_Inertia/branch_indesit/PlatformLibrary/LIB_DigitalIO\DigitalInputs.c **** 
 325:C:/Workspace/FW_Inertia/branch_indesit/PlatformLibrary/LIB_DigitalIO\DigitalInputs.c **** 
 326:C:/Workspace/FW_Inertia/branch_indesit/PlatformLibrary/LIB_DigitalIO\DigitalInputs.c **** \author 	Stefano Ughi
 327:C:/Workspace/FW_Inertia/branch_indesit/PlatformLibrary/LIB_DigitalIO\DigitalInputs.c **** \date		18/10/2010
 328:C:/Workspace/FW_Inertia/branch_indesit/PlatformLibrary/LIB_DigitalIO\DigitalInputs.c **** \version	1.0.0
 329:C:/Workspace/FW_Inertia/branch_indesit/PlatformLibrary/LIB_DigitalIO\DigitalInputs.c **** 
 330:C:/Workspace/FW_Inertia/branch_indesit/PlatformLibrary/LIB_DigitalIO\DigitalInputs.c **** */
 331:C:/Workspace/FW_Inertia/branch_indesit/PlatformLibrary/LIB_DigitalIO\DigitalInputs.c **** bool_t LIB_DIO_GET_INPUT_F( uint8_t pin, int8_t filterValue )
 332:C:/Workspace/FW_Inertia/branch_indesit/PlatformLibrary/LIB_DigitalIO\DigitalInputs.c **** {
 123                             		.loc 1 332 0
 124                             	.LVL13:
 125 0000 6E 7B                   		pushm	r7-r11
 126                             	.LCFI1:
 127 0002 CF 1B                   		mov.B	r1, r11
 128 0004 CF 2A                   		mov.B	r2, r10
 129                             	.LVL14:
 333:C:/Workspace/FW_Inertia/branch_indesit/PlatformLibrary/LIB_DigitalIO\DigitalInputs.c **** 	int8_t value=0;
 130                             		.loc 1 333 0
 131 0006 66 07                   		mov	#0, r7
 334:C:/Workspace/FW_Inertia/branch_indesit/PlatformLibrary/LIB_DigitalIO\DigitalInputs.c **** 
 335:C:/Workspace/FW_Inertia/branch_indesit/PlatformLibrary/LIB_DigitalIO\DigitalInputs.c **** 	while ( filterValue >= 0 )
 132                             		.loc 1 335 0
 133 0008 2E 12                   		bra	.L8
 134                             	.LVL15:
 135                             	.L11:
 336:C:/Workspace/FW_Inertia/branch_indesit/PlatformLibrary/LIB_DigitalIO\DigitalInputs.c **** 	{
 337:C:/Workspace/FW_Inertia/branch_indesit/PlatformLibrary/LIB_DigitalIO\DigitalInputs.c **** 		if ( LIB_DIO_GET_INPUT( pin ) )
 136                             		.loc 1 337 0
 137 000a CF B1                   		mov.B	r11, r1
 138 000c 05 00 00 00             		bsr	_LIB_DIO_GET_INPUT
 139                             	.LVL16:
 140 0010 61 01                   		cmp	#0, r1
 141 0012 14                      		beq	.L9
 338:C:/Workspace/FW_Inertia/branch_indesit/PlatformLibrary/LIB_DigitalIO\DigitalInputs.c **** 		{
 339:C:/Workspace/FW_Inertia/branch_indesit/PlatformLibrary/LIB_DigitalIO\DigitalInputs.c **** 			value ++;
 142                             		.loc 1 339 0
 143 0013 62 17                   		add	#1, r7
 144                             	.LVL17:
 145 0015 0B                      		bra	.L10
 146                             	.L9:
 340:C:/Workspace/FW_Inertia/branch_indesit/PlatformLibrary/LIB_DigitalIO\DigitalInputs.c **** 		}
 341:C:/Workspace/FW_Inertia/branch_indesit/PlatformLibrary/LIB_DigitalIO\DigitalInputs.c **** 		else
 342:C:/Workspace/FW_Inertia/branch_indesit/PlatformLibrary/LIB_DigitalIO\DigitalInputs.c **** 		{
 343:C:/Workspace/FW_Inertia/branch_indesit/PlatformLibrary/LIB_DigitalIO\DigitalInputs.c **** 			value --;
 147                             		.loc 1 343 0
 148 0016 60 17                   		sub	#1, r7
 149                             	.LVL18:
 150                             		.balign 2,3,1
 151                             	.L10:
 344:C:/Workspace/FW_Inertia/branch_indesit/PlatformLibrary/LIB_DigitalIO\DigitalInputs.c **** 		}
 345:C:/Workspace/FW_Inertia/branch_indesit/PlatformLibrary/LIB_DigitalIO\DigitalInputs.c **** 		filterValue --;
 152                             		.loc 1 345 0
 153 0018 60 1A                   		sub	#1, r10
 154                             	.LVL19:
 155                             		.balign 2,3,1
 156                             	.L8:
 335:C:/Workspace/FW_Inertia/branch_indesit/PlatformLibrary/LIB_DigitalIO\DigitalInputs.c **** 	while ( filterValue >= 0 )
 157                             		.loc 1 335 0 discriminator 1
 158 001a CF AE                   		mov.B	r10, r14
 159 001c 61 0E                   		cmp	#0, r14
 160 001e 28 EC                   		bge	.L11
 346:C:/Workspace/FW_Inertia/branch_indesit/PlatformLibrary/LIB_DigitalIO\DigitalInputs.c **** 	}
 347:C:/Workspace/FW_Inertia/branch_indesit/PlatformLibrary/LIB_DigitalIO\DigitalInputs.c **** 
 348:C:/Workspace/FW_Inertia/branch_indesit/PlatformLibrary/LIB_DigitalIO\DigitalInputs.c **** 	if ( value > 0 )
 161                             		.loc 1 348 0
 162 0020 CF 71                   		mov.B	r7, r1
 349:C:/Workspace/FW_Inertia/branch_indesit/PlatformLibrary/LIB_DigitalIO\DigitalInputs.c **** 	{
 350:C:/Workspace/FW_Inertia/branch_indesit/PlatformLibrary/LIB_DigitalIO\DigitalInputs.c **** 		return 1;
 351:C:/Workspace/FW_Inertia/branch_indesit/PlatformLibrary/LIB_DigitalIO\DigitalInputs.c **** 	}
 352:C:/Workspace/FW_Inertia/branch_indesit/PlatformLibrary/LIB_DigitalIO\DigitalInputs.c **** 	else
 353:C:/Workspace/FW_Inertia/branch_indesit/PlatformLibrary/LIB_DigitalIO\DigitalInputs.c **** 	{
 354:C:/Workspace/FW_Inertia/branch_indesit/PlatformLibrary/LIB_DigitalIO\DigitalInputs.c **** 		return 0;
 355:C:/Workspace/FW_Inertia/branch_indesit/PlatformLibrary/LIB_DigitalIO\DigitalInputs.c **** 	}
 356:C:/Workspace/FW_Inertia/branch_indesit/PlatformLibrary/LIB_DigitalIO\DigitalInputs.c **** }
 163                             		.loc 1 356 0
 164 0022 61 01                   		cmp	#0, r1
 165 0024 FC DB 1A                		scgt.L	r1
 166 0027 3F 7B 05                		rtsd	#20, r7-r11
 167                             	.LFE4:
 169                             		.section	.text.LIB_DIO_DigInputManager,"ax",@progbits
 170                             		.global	_LIB_DIO_DigInputManager
 172                             	_LIB_DIO_DigInputManager:
 173                             	.LFB2:
 200:C:/Workspace/FW_Inertia/branch_indesit/PlatformLibrary/LIB_DigitalIO\DigitalInputs.c **** {
 174                             		.loc 1 200 0
 175 0000 6E 7D                   		pushm	r7-r13
 176                             	.LCFI2:
 177                             	.LVL20:
 178 0002 FB B2 00 00 00 00       		mov.L	#_DigInput_val, r11
 179 0008 FB C2 00 00 00 00       		mov.L	#_DigInput_c, r12
 200:C:/Workspace/FW_Inertia/branch_indesit/PlatformLibrary/LIB_DigitalIO\DigitalInputs.c **** {
 180                             		.loc 1 200 0
 181 000e 66 0A                   		mov.L	#0, r10
 203:C:/Workspace/FW_Inertia/branch_indesit/PlatformLibrary/LIB_DigitalIO\DigitalInputs.c **** 	dig_input_t mask = 1;
 182                             		.loc 1 203 0
 183 0010 66 17                   		mov	#1, r7
 247:C:/Workspace/FW_Inertia/branch_indesit/PlatformLibrary/LIB_DigitalIO\DigitalInputs.c **** 			nSamplesOnPin = (uint8_t)(1u<<DigInputPin[i].s.filterPot2);
 184                             		.loc 1 247 0
 185 0012 66 18                   		mov.L	#1, r8
 274:C:/Workspace/FW_Inertia/branch_indesit/PlatformLibrary/LIB_DigitalIO\DigitalInputs.c **** 				DigInputsReady |= (mask);
 186                             		.loc 1 274 0
 187 0014 FB D2 00 00 00 00       		mov.L	#_DigInputsReady, r13
 263:C:/Workspace/FW_Inertia/branch_indesit/PlatformLibrary/LIB_DigitalIO\DigitalInputs.c **** 					if ((DigInputsDisable & mask) == 0)
 188                             		.loc 1 263 0
 189 001a FB 92 00 00 00 00       		mov.L	#_DigInputsDisable, r9
 190                             	.LVL21:
 191                             		.balign 2,3,2
 192                             	.L20:
 211:C:/Workspace/FW_Inertia/branch_indesit/PlatformLibrary/LIB_DigitalIO\DigitalInputs.c **** 		if ( DigInputPin[i].s.active == TRUE )
 193                             		.loc 1 211 0
 194 0020 FF 2E AA                		add	r10, r10, r14
 195 0023 70 EE 00 00 00 00       		add	#_DigInputPin, r14
 196 0029 5C E1                   		movu.W	[r14], r1
 197 002b FD 8F 1E                		shlr	#15, r1, r14
 198 002e 61 1E                   		cmp	#1, r14
 199 0030 3B 8C 00                		bne	.L15
 234:C:/Workspace/FW_Inertia/branch_indesit/PlatformLibrary/LIB_DigitalIO\DigitalInputs.c **** 			if (LIB_DIO_GET_INPUT_F (DigInputPin[i].s.pin, DIGITAL_LOCAL_FILTER_NUM))
 200                             		.loc 1 234 0
 201 0033 68 21                   		shlr	#2, r1
 202 0035 75 21 3F                		and #63, r1
 203 0038 66 82                   		mov	#8, r2
 204 003a 05 00 00 00             		bsr	_LIB_DIO_GET_INPUT_F
 205                             	.LVL22:
 206 003e 61 01                   		cmp	#0, r1
 207 0040 10                      		beq	.L16
 236:C:/Workspace/FW_Inertia/branch_indesit/PlatformLibrary/LIB_DigitalIO\DigitalInputs.c **** 				DigInput_val[i]++;
 208                             		.loc 1 236 0
 209 0041 CC BE                   		mov.B	[r11], r14
 210 0043 62 1E                   		add	#1, r14
 211 0045 C3 BE                   		mov.B	r14, [r11]
 212 0047 03                      		.balign 2,3,5
 213                             	.L16:
 245:C:/Workspace/FW_Inertia/branch_indesit/PlatformLibrary/LIB_DigitalIO\DigitalInputs.c **** 			DigInput_c[i]++;
 214                             		.loc 1 245 0
 215 0048 CC C4                   		mov.B	[r12], r4
 216 004a 62 14                   		add	#1, r4
 217 004c C3 C4                   		mov.B	r4, [r12]
 247:C:/Workspace/FW_Inertia/branch_indesit/PlatformLibrary/LIB_DigitalIO\DigitalInputs.c **** 			nSamplesOnPin = (uint8_t)(1u<<DigInputPin[i].s.filterPot2);
 218                             		.loc 1 247 0
 219 004e FF 2E AA                		add	r10, r10, r14
 220 0051 70 EE 00 00 00 00       		add	#_DigInputPin, r14
 221 0057 5C EE                   		movu.W	[r14], r14
 222 0059 68 BE                   		shlr	#11, r14
 223 005b 64 7E                   		and #7, r14
 224 005d EF 83                   		mov.L	r8, r3
 225 005f FD 62 E3                		shll	r14, r3
 226 0062 EF 3E                   		mov.L	r3, r14
 227                             	.LVL23:
 249:C:/Workspace/FW_Inertia/branch_indesit/PlatformLibrary/LIB_DigitalIO\DigitalInputs.c **** 			if (DigInput_c[i] >= nSamplesOnPin)
 228                             		.loc 1 249 0
 229 0064 5B 43                   		movu.B	r4, r3
 230                             	.LVL24:
 231 0066 5B E4                   		movu.B	r14, r4
 232 0068 47 43                   		cmp	r4, r3
 233 006a 23 52                   		bltu	.L15
 251:C:/Workspace/FW_Inertia/branch_indesit/PlatformLibrary/LIB_DigitalIO\DigitalInputs.c **** 				DigInput_c[i]=0;
 234                             		.loc 1 251 0
 235 006c F8 C4 00                		mov.B	#0, [r12]
 253:C:/Workspace/FW_Inertia/branch_indesit/PlatformLibrary/LIB_DigitalIO\DigitalInputs.c **** 				if ( DigInput_val[i] >= (uint8_t)( nSamplesOnPin-(nSamplesOnPin/4) ) )
 236                             		.loc 1 253 0
 237 006f 68 24                   		shlr	#2, r4
 238 0071 CF 43                   		mov.B	r4, r3
 239 0073 43 4E                   		sub	r4, r14
 240                             	.LVL25:
 241 0075 58 B4                   		movu.B	[r11], r4
 242 0077 5B EE                   		movu.B	r14, r14
 243 0079 47 E4                   		cmp	r14, r4
 244 007b 23 18                   		bltu	.L18
 255:C:/Workspace/FW_Inertia/branch_indesit/PlatformLibrary/LIB_DigitalIO\DigitalInputs.c **** 					if ((DigInputsDisable & mask) == 0)
 245                             		.loc 1 255 0
 246 007d CC 9E                   		mov.B	[r9], r14
 247 007f 53 7E                   		and	r7, r14
 248 0081 76 2E FF 00             		and #0xff, r14
 249 0085 21 2D                   		bne	.L19
 258:C:/Workspace/FW_Inertia/branch_indesit/PlatformLibrary/LIB_DigitalIO\DigitalInputs.c **** 						DigInputs |= (mask);
 250                             		.loc 1 258 0
 251 0087 FB E2 00 00 00 00       		mov.L	#_DigInputs, r14
 252 008d CC E4                   		mov.B	[r14], r4
 253 008f 57 74                   		or	r7, r4
 254 0091 2E 1F                   		bra	.L26
 255                             	.L18:
 261:C:/Workspace/FW_Inertia/branch_indesit/PlatformLibrary/LIB_DigitalIO\DigitalInputs.c **** 				else if ( DigInput_val[i] <= (nSamplesOnPin/4) )
 256                             		.loc 1 261 0
 257 0093 5B 3E                   		movu.B	r3, r14
 258 0095 47 E4                   		cmp	r14, r4
 259 0097 24 1B                   		bgtu	.L19
 263:C:/Workspace/FW_Inertia/branch_indesit/PlatformLibrary/LIB_DigitalIO\DigitalInputs.c **** 					if ((DigInputsDisable & mask) == 0)
 260                             		.loc 1 263 0
 261 0099 CC 9E                   		mov.B	[r9], r14
 262 009b EF 74                   		mov.L	r7, r4
 263 009d 53 7E                   		and	r7, r14
 264 009f 76 2E FF 00             		and #0xff, r14
 265 00a3 21 0F                   		bne	.L19
 266:C:/Workspace/FW_Inertia/branch_indesit/PlatformLibrary/LIB_DigitalIO\DigitalInputs.c **** 						DigInputs &= (dig_input_t)(~(uint32_t)mask);
 266                             		.loc 1 266 0
 267 00a5 FB E2 00 00 00 00       		mov.L	#_DigInputs, r14
 268 00ab 7E 04                   		not	r4
 269 00ad 06 10 E4                		and	[r14].B, r4
 270                             		.balign 2,3,1
 271                             	.L26:
 272 00b0 C3 E4                   		mov.B	r4, [r14]
 273                             		.balign 2,3,5
 274                             	.L19:
 274:C:/Workspace/FW_Inertia/branch_indesit/PlatformLibrary/LIB_DigitalIO\DigitalInputs.c **** 				DigInputsReady |= (mask);
 275                             		.loc 1 274 0
 276 00b2 CC DE                   		mov.B	[r13], r14
 277 00b4 57 7E                   		or	r7, r14
 278 00b6 C3 DE                   		mov.B	r14, [r13]
 276:C:/Workspace/FW_Inertia/branch_indesit/PlatformLibrary/LIB_DigitalIO\DigitalInputs.c **** 				DigInput_val[i]=0;
 279                             		.loc 1 276 0
 280 00b8 F8 B4 00                		mov.B	#0, [r11]
 281                             	.LVL26:
 282 00bb 03                      		.balign 2,3,1
 283                             	.L15:
 279:C:/Workspace/FW_Inertia/branch_indesit/PlatformLibrary/LIB_DigitalIO\DigitalInputs.c **** 		mask = (dig_input_t)( mask << 1 );
 284                             		.loc 1 279 0
 285 00bc EF 7E                   		mov.L	r7, r14
 286 00be 4B 7E                   		add	r7, r14
 287 00c0 EF E7                   		mov.L	r14, r7
 288                             	.LVL27:
 289 00c2 62 1A                   		add	#1, r10
 290 00c4 62 1B                   		add	#1, r11
 291 00c6 62 1C                   		add	#1, r12
 209:C:/Workspace/FW_Inertia/branch_indesit/PlatformLibrary/LIB_DigitalIO\DigitalInputs.c **** 	for ( i = 0; i < DIGINPUT_NUM; i++ )
 292                             		.loc 1 209 0
 293 00c8 61 8A                   		cmp	#8, r10
 294 00ca 3B 56 FF                		bne	.L20
 284:C:/Workspace/FW_Inertia/branch_indesit/PlatformLibrary/LIB_DigitalIO\DigitalInputs.c **** }
 295                             		.loc 1 284 0
 296 00cd 3F 7D 07                		rtsd	#28, r7-r13
 297                             	.LFE2:
 299                             		.section	.text.LIB_DIO_AreDigInputsReady,"ax",@progbits
 300                             		.global	_LIB_DIO_AreDigInputsReady
 302                             	_LIB_DIO_AreDigInputsReady:
 303                             	.LFB5:
 357:C:/Workspace/FW_Inertia/branch_indesit/PlatformLibrary/LIB_DigitalIO\DigitalInputs.c **** 
 358:C:/Workspace/FW_Inertia/branch_indesit/PlatformLibrary/LIB_DigitalIO\DigitalInputs.c **** /**
 359:C:/Workspace/FW_Inertia/branch_indesit/PlatformLibrary/LIB_DigitalIO\DigitalInputs.c **** \n The function returns TRUE if all active digital inputs are ready otherwise FALSE.
 360:C:/Workspace/FW_Inertia/branch_indesit/PlatformLibrary/LIB_DigitalIO\DigitalInputs.c **** 
 361:C:/Workspace/FW_Inertia/branch_indesit/PlatformLibrary/LIB_DigitalIO\DigitalInputs.c **** \attention \b DigInputPin[] (global) Input Description.
 362:C:/Workspace/FW_Inertia/branch_indesit/PlatformLibrary/LIB_DigitalIO\DigitalInputs.c **** \attention \b DigInputsReady (global) bit map, bit i -> result of the input in pos. i is ready.
 363:C:/Workspace/FW_Inertia/branch_indesit/PlatformLibrary/LIB_DigitalIO\DigitalInputs.c **** 
 364:C:/Workspace/FW_Inertia/branch_indesit/PlatformLibrary/LIB_DigitalIO\DigitalInputs.c **** \return 	bool_t
 365:C:/Workspace/FW_Inertia/branch_indesit/PlatformLibrary/LIB_DigitalIO\DigitalInputs.c **** 
 366:C:/Workspace/FW_Inertia/branch_indesit/PlatformLibrary/LIB_DigitalIO\DigitalInputs.c **** \retval		TRUE
 367:C:/Workspace/FW_Inertia/branch_indesit/PlatformLibrary/LIB_DigitalIO\DigitalInputs.c **** \retval     FALSE
 368:C:/Workspace/FW_Inertia/branch_indesit/PlatformLibrary/LIB_DigitalIO\DigitalInputs.c **** 
 369:C:/Workspace/FW_Inertia/branch_indesit/PlatformLibrary/LIB_DigitalIO\DigitalInputs.c **** \author 	Stefano Ughi
 370:C:/Workspace/FW_Inertia/branch_indesit/PlatformLibrary/LIB_DigitalIO\DigitalInputs.c **** \date		09/07/2010
 371:C:/Workspace/FW_Inertia/branch_indesit/PlatformLibrary/LIB_DigitalIO\DigitalInputs.c **** \version	1.0.0
 372:C:/Workspace/FW_Inertia/branch_indesit/PlatformLibrary/LIB_DigitalIO\DigitalInputs.c **** 
 373:C:/Workspace/FW_Inertia/branch_indesit/PlatformLibrary/LIB_DigitalIO\DigitalInputs.c **** 
 374:C:/Workspace/FW_Inertia/branch_indesit/PlatformLibrary/LIB_DigitalIO\DigitalInputs.c **** */
 375:C:/Workspace/FW_Inertia/branch_indesit/PlatformLibrary/LIB_DigitalIO\DigitalInputs.c **** 
 376:C:/Workspace/FW_Inertia/branch_indesit/PlatformLibrary/LIB_DigitalIO\DigitalInputs.c **** bool_t LIB_DIO_AreDigInputsReady(void)
 377:C:/Workspace/FW_Inertia/branch_indesit/PlatformLibrary/LIB_DigitalIO\DigitalInputs.c **** {
 304                             		.loc 1 377 0
 305                             	.LVL28:
 378:C:/Workspace/FW_Inertia/branch_indesit/PlatformLibrary/LIB_DigitalIO\DigitalInputs.c **** 	uint8_t i;
 379:C:/Workspace/FW_Inertia/branch_indesit/PlatformLibrary/LIB_DigitalIO\DigitalInputs.c **** 
 380:C:/Workspace/FW_Inertia/branch_indesit/PlatformLibrary/LIB_DigitalIO\DigitalInputs.c **** 	for ( i = 0; i < DIGINPUT_NUM; i++ )
 381:C:/Workspace/FW_Inertia/branch_indesit/PlatformLibrary/LIB_DigitalIO\DigitalInputs.c **** 	{
 382:C:/Workspace/FW_Inertia/branch_indesit/PlatformLibrary/LIB_DigitalIO\DigitalInputs.c **** 		if ( DigInputPin[i].s.active )
 383:C:/Workspace/FW_Inertia/branch_indesit/PlatformLibrary/LIB_DigitalIO\DigitalInputs.c **** 		{
 384:C:/Workspace/FW_Inertia/branch_indesit/PlatformLibrary/LIB_DigitalIO\DigitalInputs.c **** 			if ( 0 == ( DigInputsReady & ( ( (dig_input_t)1u ) << i ) ) )
 306                             		.loc 1 384 0
 307 0000 FB E2 00 00 00 00       		mov.L	#_DigInputsReady, r14
 308 0006 58 E4                   		movu.B	[r14], r4
 309 0008 66 0E                   		mov.L	#0, r14
 310                             	.LVL29:
 311                             		.balign 2,3,2
 312                             	.L30:
 382:C:/Workspace/FW_Inertia/branch_indesit/PlatformLibrary/LIB_DigitalIO\DigitalInputs.c **** 		if ( DigInputPin[i].s.active )
 313                             		.loc 1 382 0
 314 000a FF 23 EE                		add	r14, r14, r3
 315 000d 70 33 00 00 00 00       		add	#_DigInputPin, r3
 316 0013 DC 33                   		mov.W	[r3], r3
 317 0015 61 03                   		cmp	#0, r3
 318 0017 28 0B                   		bge	.L28
 319                             		.loc 1 384 0
 320 0019 EF 41                   		mov.L	r4, r1
 321 001b FD 61 E1                		shar	r14, r1
 322 001e 64 11                   		and	#1, r1
 323 0020 12                      		beq	.L29
 324 0021 03                      		.balign 2,3,1
 325                             	.L28:
 326 0022 62 1E                   		add	#1, r14
 380:C:/Workspace/FW_Inertia/branch_indesit/PlatformLibrary/LIB_DigitalIO\DigitalInputs.c **** 	for ( i = 0; i < DIGINPUT_NUM; i++ )
 327                             		.loc 1 380 0
 328 0024 61 8E                   		cmp	#8, r14
 329 0026 21 E4                   		bne	.L30
 385:C:/Workspace/FW_Inertia/branch_indesit/PlatformLibrary/LIB_DigitalIO\DigitalInputs.c **** 			{
 386:C:/Workspace/FW_Inertia/branch_indesit/PlatformLibrary/LIB_DigitalIO\DigitalInputs.c **** 				return (FALSE);
 387:C:/Workspace/FW_Inertia/branch_indesit/PlatformLibrary/LIB_DigitalIO\DigitalInputs.c **** 			}
 388:C:/Workspace/FW_Inertia/branch_indesit/PlatformLibrary/LIB_DigitalIO\DigitalInputs.c **** 		}
 389:C:/Workspace/FW_Inertia/branch_indesit/PlatformLibrary/LIB_DigitalIO\DigitalInputs.c **** 	}
 390:C:/Workspace/FW_Inertia/branch_indesit/PlatformLibrary/LIB_DigitalIO\DigitalInputs.c **** 
 391:C:/Workspace/FW_Inertia/branch_indesit/PlatformLibrary/LIB_DigitalIO\DigitalInputs.c **** 	return (TRUE);
 330                             		.loc 1 391 0
 331 0028 66 11                   		mov.L	#1, r1
 332                             	.L29:
 392:C:/Workspace/FW_Inertia/branch_indesit/PlatformLibrary/LIB_DigitalIO\DigitalInputs.c **** }
 333                             		.loc 1 392 0
 334 002a 02                      		rts
 335                             	.LFE5:
 337 002b 03                      		.section	.text.LIB_DIO_GetDigInputVal,"ax",@progbits
 338                             		.global	_LIB_DIO_GetDigInputVal
 340                             	_LIB_DIO_GetDigInputVal:
 341                             	.LFB6:
 393:C:/Workspace/FW_Inertia/branch_indesit/PlatformLibrary/LIB_DigitalIO\DigitalInputs.c **** /**
 394:C:/Workspace/FW_Inertia/branch_indesit/PlatformLibrary/LIB_DigitalIO\DigitalInputs.c **** Fixed pos return the input's value.
 395:C:/Workspace/FW_Inertia/branch_indesit/PlatformLibrary/LIB_DigitalIO\DigitalInputs.c **** 
 396:C:/Workspace/FW_Inertia/branch_indesit/PlatformLibrary/LIB_DigitalIO\DigitalInputs.c **** \param  [in] pos Input position described inside Setting File
 397:C:/Workspace/FW_Inertia/branch_indesit/PlatformLibrary/LIB_DigitalIO\DigitalInputs.c **** \attention \b DigInputs (global) bitfield
 398:C:/Workspace/FW_Inertia/branch_indesit/PlatformLibrary/LIB_DigitalIO\DigitalInputs.c **** 
 399:C:/Workspace/FW_Inertia/branch_indesit/PlatformLibrary/LIB_DigitalIO\DigitalInputs.c **** \return 	uint8_t
 400:C:/Workspace/FW_Inertia/branch_indesit/PlatformLibrary/LIB_DigitalIO\DigitalInputs.c **** 
 401:C:/Workspace/FW_Inertia/branch_indesit/PlatformLibrary/LIB_DigitalIO\DigitalInputs.c **** \retval		TRUE the input in position pos is high
 402:C:/Workspace/FW_Inertia/branch_indesit/PlatformLibrary/LIB_DigitalIO\DigitalInputs.c **** \retval	    FALSE the input in position pos is low
 403:C:/Workspace/FW_Inertia/branch_indesit/PlatformLibrary/LIB_DigitalIO\DigitalInputs.c **** 
 404:C:/Workspace/FW_Inertia/branch_indesit/PlatformLibrary/LIB_DigitalIO\DigitalInputs.c **** 
 405:C:/Workspace/FW_Inertia/branch_indesit/PlatformLibrary/LIB_DigitalIO\DigitalInputs.c **** \author 	Stefano Ughi
 406:C:/Workspace/FW_Inertia/branch_indesit/PlatformLibrary/LIB_DigitalIO\DigitalInputs.c **** \date		09/07/2010
 407:C:/Workspace/FW_Inertia/branch_indesit/PlatformLibrary/LIB_DigitalIO\DigitalInputs.c **** \version	1.0.0
 408:C:/Workspace/FW_Inertia/branch_indesit/PlatformLibrary/LIB_DigitalIO\DigitalInputs.c **** 
 409:C:/Workspace/FW_Inertia/branch_indesit/PlatformLibrary/LIB_DigitalIO\DigitalInputs.c **** */
 410:C:/Workspace/FW_Inertia/branch_indesit/PlatformLibrary/LIB_DigitalIO\DigitalInputs.c **** 
 411:C:/Workspace/FW_Inertia/branch_indesit/PlatformLibrary/LIB_DigitalIO\DigitalInputs.c **** bool_t LIB_DIO_GetDigInputVal(uint8_t pos)
 412:C:/Workspace/FW_Inertia/branch_indesit/PlatformLibrary/LIB_DigitalIO\DigitalInputs.c **** {
 342                             		.loc 1 412 0
 343                             	.LVL30:
 413:C:/Workspace/FW_Inertia/branch_indesit/PlatformLibrary/LIB_DigitalIO\DigitalInputs.c **** 	if ( DigInputs & ( (dig_input_t)(1u<<pos) ) )
 344                             		.loc 1 413 0
 345 0000 5B 11                   		movu.B	r1, r1
 346 0002 66 1E                   		mov.L	#1, r14
 347 0004 FD 62 1E                		shll	r1, r14
 348 0007 FB 42 00 00 00 00       		mov.L	#_DigInputs, r4
 349 000d 06 10 4E                		and	[r4].B, r14
 350 0010 5B E1                   		movu.B	r14, r1
 351                             	.LVL31:
 414:C:/Workspace/FW_Inertia/branch_indesit/PlatformLibrary/LIB_DigitalIO\DigitalInputs.c **** 	{
 415:C:/Workspace/FW_Inertia/branch_indesit/PlatformLibrary/LIB_DigitalIO\DigitalInputs.c **** 		return 1;
 416:C:/Workspace/FW_Inertia/branch_indesit/PlatformLibrary/LIB_DigitalIO\DigitalInputs.c **** 	}
 417:C:/Workspace/FW_Inertia/branch_indesit/PlatformLibrary/LIB_DigitalIO\DigitalInputs.c **** 	else
 418:C:/Workspace/FW_Inertia/branch_indesit/PlatformLibrary/LIB_DigitalIO\DigitalInputs.c **** 	{
 419:C:/Workspace/FW_Inertia/branch_indesit/PlatformLibrary/LIB_DigitalIO\DigitalInputs.c **** 		return 0;
 420:C:/Workspace/FW_Inertia/branch_indesit/PlatformLibrary/LIB_DigitalIO\DigitalInputs.c **** 	}
 421:C:/Workspace/FW_Inertia/branch_indesit/PlatformLibrary/LIB_DigitalIO\DigitalInputs.c **** }
 352                             		.loc 1 421 0
 353 0012 61 01                   		cmp	#0, r1
 354 0014 FC DB 11                		scne.L	r1
 355 0017 02                      		rts
 356                             	.LFE6:
 358                             		.section	.text.LIB_DIO_SetDigInputVal,"ax",@progbits
 359                             		.global	_LIB_DIO_SetDigInputVal
 361                             	_LIB_DIO_SetDigInputVal:
 362                             	.LFB7:
 422:C:/Workspace/FW_Inertia/branch_indesit/PlatformLibrary/LIB_DigitalIO\DigitalInputs.c **** 
 423:C:/Workspace/FW_Inertia/branch_indesit/PlatformLibrary/LIB_DigitalIO\DigitalInputs.c **** /**
 424:C:/Workspace/FW_Inertia/branch_indesit/PlatformLibrary/LIB_DigitalIO\DigitalInputs.c **** Set the input value identified by its position (position is a setting file parameter).
 425:C:/Workspace/FW_Inertia/branch_indesit/PlatformLibrary/LIB_DigitalIO\DigitalInputs.c **** 
 426:C:/Workspace/FW_Inertia/branch_indesit/PlatformLibrary/LIB_DigitalIO\DigitalInputs.c **** \param  [in] pos Input position described inside Setting File
 427:C:/Workspace/FW_Inertia/branch_indesit/PlatformLibrary/LIB_DigitalIO\DigitalInputs.c **** \param  [in] value to set
 428:C:/Workspace/FW_Inertia/branch_indesit/PlatformLibrary/LIB_DigitalIO\DigitalInputs.c **** \attention \b DigInputs (global) bitfield
 429:C:/Workspace/FW_Inertia/branch_indesit/PlatformLibrary/LIB_DigitalIO\DigitalInputs.c **** 
 430:C:/Workspace/FW_Inertia/branch_indesit/PlatformLibrary/LIB_DigitalIO\DigitalInputs.c **** 
 431:C:/Workspace/FW_Inertia/branch_indesit/PlatformLibrary/LIB_DigitalIO\DigitalInputs.c **** \author 	Platform Group
 432:C:/Workspace/FW_Inertia/branch_indesit/PlatformLibrary/LIB_DigitalIO\DigitalInputs.c **** \date		gg/mm/aaaa
 433:C:/Workspace/FW_Inertia/branch_indesit/PlatformLibrary/LIB_DigitalIO\DigitalInputs.c **** \version	1.0.0
 434:C:/Workspace/FW_Inertia/branch_indesit/PlatformLibrary/LIB_DigitalIO\DigitalInputs.c **** 
 435:C:/Workspace/FW_Inertia/branch_indesit/PlatformLibrary/LIB_DigitalIO\DigitalInputs.c **** \note		\par \b Nota 1:
 436:C:/Workspace/FW_Inertia/branch_indesit/PlatformLibrary/LIB_DigitalIO\DigitalInputs.c **** 			Disable automatic read before use this function.
 437:C:/Workspace/FW_Inertia/branch_indesit/PlatformLibrary/LIB_DigitalIO\DigitalInputs.c **** 
 438:C:/Workspace/FW_Inertia/branch_indesit/PlatformLibrary/LIB_DigitalIO\DigitalInputs.c **** */
 439:C:/Workspace/FW_Inertia/branch_indesit/PlatformLibrary/LIB_DigitalIO\DigitalInputs.c **** 
 440:C:/Workspace/FW_Inertia/branch_indesit/PlatformLibrary/LIB_DigitalIO\DigitalInputs.c **** void LIB_DIO_SetDigInputVal(uint8_t pos, uint8_t value)
 441:C:/Workspace/FW_Inertia/branch_indesit/PlatformLibrary/LIB_DigitalIO\DigitalInputs.c **** {
 363                             		.loc 1 441 0
 442:C:/Workspace/FW_Inertia/branch_indesit/PlatformLibrary/LIB_DigitalIO\DigitalInputs.c **** 	SAFETY_REGION_START();
 443:C:/Workspace/FW_Inertia/branch_indesit/PlatformLibrary/LIB_DigitalIO\DigitalInputs.c **** 	if(value)
 364                             		.loc 1 443 0
 365 0000 5B 22                   		movu.B	r2, r2
 366 0002 FB E2 00 00 00 00       		mov.L	#_DigInputs, r14
 367 0008 5B 11                   		movu.B	r1, r1
 368 000a 66 14                   		mov.L	#1, r4
 369 000c 61 02                   		cmp	#0, r2
 370 000e 12                      		beq	.L38
 444:C:/Workspace/FW_Inertia/branch_indesit/PlatformLibrary/LIB_DigitalIO\DigitalInputs.c **** 	{
 445:C:/Workspace/FW_Inertia/branch_indesit/PlatformLibrary/LIB_DigitalIO\DigitalInputs.c **** 		DigInputs |= (dig_input_t)(1u << pos);
 371                             		.loc 1 445 0
 372 000f FD 62 14                		shll	r1, r4
 373 0012 06 14 E4                		or	[r14].B, r4
 374 0015 C3 E4                   		mov.B	r4, [r14]
 375 0017 02                      		rts
 376                             	.L38:
 441:C:/Workspace/FW_Inertia/branch_indesit/PlatformLibrary/LIB_DigitalIO\DigitalInputs.c **** {
 377                             		.loc 1 441 0
 378 0018 7E A7                   		push.l	r7
 379                             	.LCFI3:
 446:C:/Workspace/FW_Inertia/branch_indesit/PlatformLibrary/LIB_DigitalIO\DigitalInputs.c **** 	}
 447:C:/Workspace/FW_Inertia/branch_indesit/PlatformLibrary/LIB_DigitalIO\DigitalInputs.c **** 	else
 448:C:/Workspace/FW_Inertia/branch_indesit/PlatformLibrary/LIB_DigitalIO\DigitalInputs.c **** 	{
 449:C:/Workspace/FW_Inertia/branch_indesit/PlatformLibrary/LIB_DigitalIO\DigitalInputs.c **** 		DigInputs &= (dig_input_t)(~(1u << pos));
 380                             		.loc 1 449 0
 381 001a FD 62 14                		shll	r1, r4
 382 001d 7E 04                   		not	r4
 383 001f 06 10 E4                		and	[r14].B, r4
 384 0022 C3 E4                   		mov.B	r4, [r14]
 450:C:/Workspace/FW_Inertia/branch_indesit/PlatformLibrary/LIB_DigitalIO\DigitalInputs.c **** 	}
 451:C:/Workspace/FW_Inertia/branch_indesit/PlatformLibrary/LIB_DigitalIO\DigitalInputs.c **** 	SAFETY_DATA_UPDATE( DigInputs);
 452:C:/Workspace/FW_Inertia/branch_indesit/PlatformLibrary/LIB_DigitalIO\DigitalInputs.c **** 	SAFETY_REGION_END();
 453:C:/Workspace/FW_Inertia/branch_indesit/PlatformLibrary/LIB_DigitalIO\DigitalInputs.c **** }
 385                             		.loc 1 453 0
 386 0024 3F 77 01                		rtsd	#4, r7-r7
 387                             	.LFE7:
 389                             		.section	.text.LIB_DIO_IsDigitalReady,"ax",@progbits
 390                             		.global	_LIB_DIO_IsDigitalReady
 392                             	_LIB_DIO_IsDigitalReady:
 393                             	.LFB8:
 454:C:/Workspace/FW_Inertia/branch_indesit/PlatformLibrary/LIB_DigitalIO\DigitalInputs.c **** 
 455:C:/Workspace/FW_Inertia/branch_indesit/PlatformLibrary/LIB_DigitalIO\DigitalInputs.c **** /**
 456:C:/Workspace/FW_Inertia/branch_indesit/PlatformLibrary/LIB_DigitalIO\DigitalInputs.c **** \n The function returns TRUE if the digital input identified by its position is ready otherwise FAL
 457:C:/Workspace/FW_Inertia/branch_indesit/PlatformLibrary/LIB_DigitalIO\DigitalInputs.c **** 
 458:C:/Workspace/FW_Inertia/branch_indesit/PlatformLibrary/LIB_DigitalIO\DigitalInputs.c **** \param  [in] pos Input position described inside Setting File
 459:C:/Workspace/FW_Inertia/branch_indesit/PlatformLibrary/LIB_DigitalIO\DigitalInputs.c **** \attention \b DigInputsReady (global) bitfield
 460:C:/Workspace/FW_Inertia/branch_indesit/PlatformLibrary/LIB_DigitalIO\DigitalInputs.c **** 
 461:C:/Workspace/FW_Inertia/branch_indesit/PlatformLibrary/LIB_DigitalIO\DigitalInputs.c **** \return 	bool_t
 462:C:/Workspace/FW_Inertia/branch_indesit/PlatformLibrary/LIB_DigitalIO\DigitalInputs.c **** 
 463:C:/Workspace/FW_Inertia/branch_indesit/PlatformLibrary/LIB_DigitalIO\DigitalInputs.c **** \retval		TRUE
 464:C:/Workspace/FW_Inertia/branch_indesit/PlatformLibrary/LIB_DigitalIO\DigitalInputs.c **** \retval		FALSE
 465:C:/Workspace/FW_Inertia/branch_indesit/PlatformLibrary/LIB_DigitalIO\DigitalInputs.c **** 
 466:C:/Workspace/FW_Inertia/branch_indesit/PlatformLibrary/LIB_DigitalIO\DigitalInputs.c **** \author 	Platform Group
 467:C:/Workspace/FW_Inertia/branch_indesit/PlatformLibrary/LIB_DigitalIO\DigitalInputs.c **** \date		gg/mm/aaaa
 468:C:/Workspace/FW_Inertia/branch_indesit/PlatformLibrary/LIB_DigitalIO\DigitalInputs.c **** \version	1.0.0
 469:C:/Workspace/FW_Inertia/branch_indesit/PlatformLibrary/LIB_DigitalIO\DigitalInputs.c **** 
 470:C:/Workspace/FW_Inertia/branch_indesit/PlatformLibrary/LIB_DigitalIO\DigitalInputs.c **** */
 471:C:/Workspace/FW_Inertia/branch_indesit/PlatformLibrary/LIB_DigitalIO\DigitalInputs.c **** 
 472:C:/Workspace/FW_Inertia/branch_indesit/PlatformLibrary/LIB_DigitalIO\DigitalInputs.c **** bool_t LIB_DIO_IsDigitalReady(uint8_t pos)
 473:C:/Workspace/FW_Inertia/branch_indesit/PlatformLibrary/LIB_DigitalIO\DigitalInputs.c **** {
 394                             		.loc 1 473 0
 395                             	.LVL32:
 474:C:/Workspace/FW_Inertia/branch_indesit/PlatformLibrary/LIB_DigitalIO\DigitalInputs.c **** 	return (bool_t) ((DigInputsReady & (dig_input_t)(1u << pos)) ? TRUE : FALSE);
 396                             		.loc 1 474 0
 397 0000 5B 11                   		movu.B	r1, r1
 398 0002 66 1E                   		mov.L	#1, r14
 399 0004 FD 62 1E                		shll	r1, r14
 400 0007 FB 42 00 00 00 00       		mov.L	#_DigInputsReady, r4
 401 000d 06 10 4E                		and	[r4].B, r14
 402 0010 5B E1                   		movu.B	r14, r1
 403                             	.LVL33:
 475:C:/Workspace/FW_Inertia/branch_indesit/PlatformLibrary/LIB_DigitalIO\DigitalInputs.c **** }
 404                             		.loc 1 475 0
 405 0012 61 01                   		cmp	#0, r1
 406 0014 FC DB 11                		scne.L	r1
 407 0017 02                      		rts
 408                             	.LFE8:
 410                             		.comm	_DigInputsDisable,1,1
 411                             		.comm	_DigInputsReady,1,1
 412                             		.comm	_DigInputs,1,1
 413                             		.section	.bss.DigInputPin,"aw",@nobits
 414                             		.balign 2
 417                             	_DigInputPin:
 418 0000 00 00 00 00 00 00 00 00 		.zero	16
 418      00 00 00 00 00 00 00 00 
 419                             		.section	.bss.DigInput_val,"aw",@nobits
 422                             	_DigInput_val:
 423 0000 00 00 00 00 00 00 00 00 		.zero	8
 424                             		.section	.bss.DigInput_c,"aw",@nobits
 427                             	_DigInput_c:
 428 0000 00 00 00 00 00 00 00 00 		.zero	8
 569                             	.Letext0:
 570                             		.file 2 "C:\\Workspace\\FW_Inertia\\branch_indesit\\HAL\\HAL_General/StandardTypes.h"
 571                             		.file 3 "C:\\Workspace\\FW_Inertia\\branch_indesit\\CFG_DishWasher\\CFG_Inertia/DIO_cfg.h"
 572                             		.file 4 "C:/Workspace/FW_Inertia/branch_indesit/PlatformLibrary/LIB_DigitalIO/DigitalInputs.h"
 573                             		.file 5 "C:\\Workspace\\FW_Inertia\\branch_indesit\\PlatformLibrary\\LIB_Error/LIB_Error.h"
 574                             		.file 6 "C:\\Workspace\\FW_Inertia\\branch_indesit\\PlatformLibrary\\LIB_IOManager/IOSharing.h"
 575                             		.file 7 "C:\\Workspace\\FW_Inertia\\branch_indesit\\Drivers\\OCDIO/OCDIO_drv.h"
DEFINED SYMBOLS
                            *ABS*:00000000 DigitalInputs.c
C:\Users\Andrea\AppData\Local\Temp\cctdKzRQ.s:7      .text.LIB_DIO_InitDigInputs:00000000 _LIB_DIO_InitDigInputs
C:\Users\Andrea\AppData\Local\Temp\cctdKzRQ.s:12     .text.LIB_DIO_InitDigInputs:00000000 L0
                            *COM*:00000001 _DigInputs
                            *COM*:00000001 _DigInputsDisable
                            *COM*:00000001 _DigInputsReady
C:\Users\Andrea\AppData\Local\Temp\cctdKzRQ.s:417    .bss.DigInputPin:00000000 _DigInputPin
C:\Users\Andrea\AppData\Local\Temp\cctdKzRQ.s:422    .bss.DigInput_val:00000000 _DigInput_val
C:\Users\Andrea\AppData\Local\Temp\cctdKzRQ.s:427    .bss.DigInput_c:00000000 _DigInput_c
C:\Users\Andrea\AppData\Local\Temp\cctdKzRQ.s:39     .text.LIB_DIO_InsertDigInput:00000000 _LIB_DIO_InsertDigInput
C:\Users\Andrea\AppData\Local\Temp\cctdKzRQ.s:44     .text.LIB_DIO_InsertDigInput:00000000 L0
C:\Users\Andrea\AppData\Local\Temp\cctdKzRQ.s:95     .text.LIB_DIO_GET_INPUT:00000000 _LIB_DIO_GET_INPUT
C:\Users\Andrea\AppData\Local\Temp\cctdKzRQ.s:99     .text.LIB_DIO_GET_INPUT:00000000 L0
C:\Users\Andrea\AppData\Local\Temp\cctdKzRQ.s:121    .text.LIB_DIO_GET_INPUT_F:00000000 _LIB_DIO_GET_INPUT_F
C:\Users\Andrea\AppData\Local\Temp\cctdKzRQ.s:125    .text.LIB_DIO_GET_INPUT_F:00000000 L0
C:\Users\Andrea\AppData\Local\Temp\cctdKzRQ.s:172    .text.LIB_DIO_DigInputManager:00000000 _LIB_DIO_DigInputManager
C:\Users\Andrea\AppData\Local\Temp\cctdKzRQ.s:175    .text.LIB_DIO_DigInputManager:00000000 L0
C:\Users\Andrea\AppData\Local\Temp\cctdKzRQ.s:302    .text.LIB_DIO_AreDigInputsReady:00000000 _LIB_DIO_AreDigInputsReady
C:\Users\Andrea\AppData\Local\Temp\cctdKzRQ.s:307    .text.LIB_DIO_AreDigInputsReady:00000000 L0
C:\Users\Andrea\AppData\Local\Temp\cctdKzRQ.s:340    .text.LIB_DIO_GetDigInputVal:00000000 _LIB_DIO_GetDigInputVal
C:\Users\Andrea\AppData\Local\Temp\cctdKzRQ.s:345    .text.LIB_DIO_GetDigInputVal:00000000 L0
C:\Users\Andrea\AppData\Local\Temp\cctdKzRQ.s:361    .text.LIB_DIO_SetDigInputVal:00000000 _LIB_DIO_SetDigInputVal
C:\Users\Andrea\AppData\Local\Temp\cctdKzRQ.s:365    .text.LIB_DIO_SetDigInputVal:00000000 L0
C:\Users\Andrea\AppData\Local\Temp\cctdKzRQ.s:392    .text.LIB_DIO_IsDigitalReady:00000000 _LIB_DIO_IsDigitalReady
C:\Users\Andrea\AppData\Local\Temp\cctdKzRQ.s:397    .text.LIB_DIO_IsDigitalReady:00000000 L0
C:\Users\Andrea\AppData\Local\Temp\cctdKzRQ.s:430    .debug_frame:00000000 .Lframe0
C:\Users\Andrea\AppData\Local\Temp\cctdKzRQ.s:8      .text.LIB_DIO_InitDigInputs:00000000 .LFB0
C:\Users\Andrea\AppData\Local\Temp\cctdKzRQ.s:40     .text.LIB_DIO_InsertDigInput:00000000 .LFB1
C:\Users\Andrea\AppData\Local\Temp\cctdKzRQ.s:96     .text.LIB_DIO_GET_INPUT:00000000 .LFB3
C:\Users\Andrea\AppData\Local\Temp\cctdKzRQ.s:122    .text.LIB_DIO_GET_INPUT_F:00000000 .LFB4
C:\Users\Andrea\AppData\Local\Temp\cctdKzRQ.s:173    .text.LIB_DIO_DigInputManager:00000000 .LFB2
C:\Users\Andrea\AppData\Local\Temp\cctdKzRQ.s:303    .text.LIB_DIO_AreDigInputsReady:00000000 .LFB5
C:\Users\Andrea\AppData\Local\Temp\cctdKzRQ.s:341    .text.LIB_DIO_GetDigInputVal:00000000 .LFB6
C:\Users\Andrea\AppData\Local\Temp\cctdKzRQ.s:362    .text.LIB_DIO_SetDigInputVal:00000000 .LFB7
C:\Users\Andrea\AppData\Local\Temp\cctdKzRQ.s:393    .text.LIB_DIO_IsDigitalReady:00000000 .LFB8
C:\Users\Andrea\AppData\Local\Temp\cctdKzRQ.s:1561   .debug_abbrev:00000000 .Ldebug_abbrev0
C:\Users\Andrea\AppData\Local\Temp\cctdKzRQ.s:2632   .debug_str:000003a5 .LASF149
C:\Users\Andrea\AppData\Local\Temp\cctdKzRQ.s:2578   .debug_str:00000124 .LASF150
C:\Users\Andrea\AppData\Local\Temp\cctdKzRQ.s:2524   .debug_ranges:00000000 .Ldebug_ranges0
C:\Users\Andrea\AppData\Local\Temp\cctdKzRQ.s:2546   .debug_line:00000000 .Ldebug_line0
C:\Users\Andrea\AppData\Local\Temp\cctdKzRQ.s:2742   .debug_str:00000916 .LASF0
C:\Users\Andrea\AppData\Local\Temp\cctdKzRQ.s:2610   .debug_str:000002c5 .LASF2
C:\Users\Andrea\AppData\Local\Temp\cctdKzRQ.s:2788   .debug_str:00000b5e .LASF1
C:\Users\Andrea\AppData\Local\Temp\cctdKzRQ.s:2762   .debug_str:00000a0e .LASF3
C:\Users\Andrea\AppData\Local\Temp\cctdKzRQ.s:2656   .debug_str:00000500 .LASF4
C:\Users\Andrea\AppData\Local\Temp\cctdKzRQ.s:2564   .debug_str:000000bf .LASF5
C:\Users\Andrea\AppData\Local\Temp\cctdKzRQ.s:2570   .debug_str:000000e6 .LASF6
C:\Users\Andrea\AppData\Local\Temp\cctdKzRQ.s:2586   .debug_str:000001c3 .LASF7
C:\Users\Andrea\AppData\Local\Temp\cctdKzRQ.s:2776   .debug_str:00000a92 .LASF8
C:\Users\Andrea\AppData\Local\Temp\cctdKzRQ.s:2736   .debug_str:000008e1 .LASF9
C:\Users\Andrea\AppData\Local\Temp\cctdKzRQ.s:2800   .debug_str:00000c16 .LASF10
C:\Users\Andrea\AppData\Local\Temp\cctdKzRQ.s:2588   .debug_str:000001d1 .LASF11
C:\Users\Andrea\AppData\Local\Temp\cctdKzRQ.s:2592   .debug_str:00000200 .LASF12
C:\Users\Andrea\AppData\Local\Temp\cctdKzRQ.s:2770   .debug_str:00000a50 .LASF13
C:\Users\Andrea\AppData\Local\Temp\cctdKzRQ.s:2700   .debug_str:00000708 .LASF14
C:\Users\Andrea\AppData\Local\Temp\cctdKzRQ.s:2764   .debug_str:00000a17 .LASF15
C:\Users\Andrea\AppData\Local\Temp\cctdKzRQ.s:2714   .debug_str:000007a3 .LASF16
C:\Users\Andrea\AppData\Local\Temp\cctdKzRQ.s:2584   .debug_str:000001b9 .LASF17
C:\Users\Andrea\AppData\Local\Temp\cctdKzRQ.s:2690   .debug_str:000006ba .LASF18
C:\Users\Andrea\AppData\Local\Temp\cctdKzRQ.s:2616   .debug_str:00000308 .LASF19
C:\Users\Andrea\AppData\Local\Temp\cctdKzRQ.s:2746   .debug_str:00000937 .LASF20
C:\Users\Andrea\AppData\Local\Temp\cctdKzRQ.s:2694   .debug_str:000006cc .LASF21
C:\Users\Andrea\AppData\Local\Temp\cctdKzRQ.s:2804   .debug_str:00000c3a .LASF22
C:\Users\Andrea\AppData\Local\Temp\cctdKzRQ.s:2692   .debug_str:000006c3 .LASF23
C:\Users\Andrea\AppData\Local\Temp\cctdKzRQ.s:2808   .debug_str:00000c5b .LASF151
C:\Users\Andrea\AppData\Local\Temp\cctdKzRQ.s:2608   .debug_str:000002b2 .LASF24
C:\Users\Andrea\AppData\Local\Temp\cctdKzRQ.s:2596   .debug_str:00000228 .LASF25
C:\Users\Andrea\AppData\Local\Temp\cctdKzRQ.s:2738   .debug_str:000008ef .LASF26
C:\Users\Andrea\AppData\Local\Temp\cctdKzRQ.s:2552   .debug_str:00000045 .LASF27
C:\Users\Andrea\AppData\Local\Temp\cctdKzRQ.s:2830   .debug_str:00000d78 .LASF28
C:\Users\Andrea\AppData\Local\Temp\cctdKzRQ.s:2832   .debug_str:00000d7e .LASF29
C:\Users\Andrea\AppData\Local\Temp\cctdKzRQ.s:2838   .debug_str:00000dd7 .LASF30
C:\Users\Andrea\AppData\Local\Temp\cctdKzRQ.s:2580   .debug_str:00000179 .LASF31
C:\Users\Andrea\AppData\Local\Temp\cctdKzRQ.s:2568   .debug_str:000000d7 .LASF32
C:\Users\Andrea\AppData\Local\Temp\cctdKzRQ.s:2756   .debug_str:000009db .LASF33
C:\Users\Andrea\AppData\Local\Temp\cctdKzRQ.s:2758   .debug_str:000009ee .LASF34
C:\Users\Andrea\AppData\Local\Temp\cctdKzRQ.s:2556   .debug_str:0000005a .LASF35
C:\Users\Andrea\AppData\Local\Temp\cctdKzRQ.s:2558   .debug_str:0000006d .LASF36
C:\Users\Andrea\AppData\Local\Temp\cctdKzRQ.s:2822   .debug_str:00000cf4 .LASF37
C:\Users\Andrea\AppData\Local\Temp\cctdKzRQ.s:2630   .debug_str:00000391 .LASF38
C:\Users\Andrea\AppData\Local\Temp\cctdKzRQ.s:2728   .debug_str:0000088b .LASF39
C:\Users\Andrea\AppData\Local\Temp\cctdKzRQ.s:2730   .debug_str:000008a0 .LASF40
C:\Users\Andrea\AppData\Local\Temp\cctdKzRQ.s:2680   .debug_str:0000060d .LASF41
C:\Users\Andrea\AppData\Local\Temp\cctdKzRQ.s:2648   .debug_str:00000469 .LASF42
C:\Users\Andrea\AppData\Local\Temp\cctdKzRQ.s:2752   .debug_str:00000972 .LASF43
C:\Users\Andrea\AppData\Local\Temp\cctdKzRQ.s:2720   .debug_str:000007e0 .LASF44
C:\Users\Andrea\AppData\Local\Temp\cctdKzRQ.s:2792   .debug_str:00000b7c .LASF45
C:\Users\Andrea\AppData\Local\Temp\cctdKzRQ.s:2682   .debug_str:0000063c .LASF46
C:\Users\Andrea\AppData\Local\Temp\cctdKzRQ.s:2778   .debug_str:00000a9a .LASF47
C:\Users\Andrea\AppData\Local\Temp\cctdKzRQ.s:2828   .debug_str:00000d43 .LASF48
C:\Users\Andrea\AppData\Local\Temp\cctdKzRQ.s:2754   .debug_str:000009a7 .LASF49
C:\Users\Andrea\AppData\Local\Temp\cctdKzRQ.s:2634   .debug_str:000003cb .LASF50
C:\Users\Andrea\AppData\Local\Temp\cctdKzRQ.s:2636   .debug_str:000003e2 .LASF51
C:\Users\Andrea\AppData\Local\Temp\cctdKzRQ.s:2848   .debug_str:00000e2d .LASF52
C:\Users\Andrea\AppData\Local\Temp\cctdKzRQ.s:2640   .debug_str:000003ff .LASF53
C:\Users\Andrea\AppData\Local\Temp\cctdKzRQ.s:2642   .debug_str:00000416 .LASF54
C:\Users\Andrea\AppData\Local\Temp\cctdKzRQ.s:2644   .debug_str:0000042d .LASF55
C:\Users\Andrea\AppData\Local\Temp\cctdKzRQ.s:2854   .debug_str:00000e78 .LASF56
C:\Users\Andrea\AppData\Local\Temp\cctdKzRQ.s:2548   .debug_str:00000000 .LASF57
C:\Users\Andrea\AppData\Local\Temp\cctdKzRQ.s:2698   .debug_str:000006f0 .LASF58
C:\Users\Andrea\AppData\Local\Temp\cctdKzRQ.s:2840   .debug_str:00000de0 .LASF59
C:\Users\Andrea\AppData\Local\Temp\cctdKzRQ.s:2702   .debug_str:00000711 .LASF60
C:\Users\Andrea\AppData\Local\Temp\cctdKzRQ.s:2704   .debug_str:00000729 .LASF61
C:\Users\Andrea\AppData\Local\Temp\cctdKzRQ.s:2706   .debug_str:00000741 .LASF62
C:\Users\Andrea\AppData\Local\Temp\cctdKzRQ.s:2846   .debug_str:00000e15 .LASF63
C:\Users\Andrea\AppData\Local\Temp\cctdKzRQ.s:2710   .debug_str:00000773 .LASF64
C:\Users\Andrea\AppData\Local\Temp\cctdKzRQ.s:2712   .debug_str:0000078b .LASF65
C:\Users\Andrea\AppData\Local\Temp\cctdKzRQ.s:2664   .debug_str:00000555 .LASF66
C:\Users\Andrea\AppData\Local\Temp\cctdKzRQ.s:2666   .debug_str:0000056e .LASF67
C:\Users\Andrea\AppData\Local\Temp\cctdKzRQ.s:2668   .debug_str:00000587 .LASF68
C:\Users\Andrea\AppData\Local\Temp\cctdKzRQ.s:2670   .debug_str:000005a0 .LASF69
C:\Users\Andrea\AppData\Local\Temp\cctdKzRQ.s:2672   .debug_str:000005b9 .LASF70
C:\Users\Andrea\AppData\Local\Temp\cctdKzRQ.s:2850   .debug_str:00000e44 .LASF71
C:\Users\Andrea\AppData\Local\Temp\cctdKzRQ.s:2676   .debug_str:000005db .LASF72
C:\Users\Andrea\AppData\Local\Temp\cctdKzRQ.s:2678   .debug_str:000005f4 .LASF73
C:\Users\Andrea\AppData\Local\Temp\cctdKzRQ.s:2732   .debug_str:000008b5 .LASF74
C:\Users\Andrea\AppData\Local\Temp\cctdKzRQ.s:2796   .debug_str:00000bd7 .LASF75
C:\Users\Andrea\AppData\Local\Temp\cctdKzRQ.s:2794   .debug_str:00000bb2 .LASF76
C:\Users\Andrea\AppData\Local\Temp\cctdKzRQ.s:2688   .debug_str:000006a5 .LASF77
C:\Users\Andrea\AppData\Local\Temp\cctdKzRQ.s:2774   .debug_str:00000a77 .LASF78
C:\Users\Andrea\AppData\Local\Temp\cctdKzRQ.s:2750   .debug_str:0000095f .LASF79
C:\Users\Andrea\AppData\Local\Temp\cctdKzRQ.s:2852   .debug_str:00000e68 .LASF80
C:\Users\Andrea\AppData\Local\Temp\cctdKzRQ.s:2566   .debug_str:000000c8 .LASF81
C:\Users\Andrea\AppData\Local\Temp\cctdKzRQ.s:2650   .debug_str:000004a5 .LASF82
C:\Users\Andrea\AppData\Local\Temp\cctdKzRQ.s:2798   .debug_str:00000bfc .LASF83
C:\Users\Andrea\AppData\Local\Temp\cctdKzRQ.s:2654   .debug_str:000004e4 .LASF84
C:\Users\Andrea\AppData\Local\Temp\cctdKzRQ.s:2624   .debug_str:00000345 .LASF85
C:\Users\Andrea\AppData\Local\Temp\cctdKzRQ.s:2646   .debug_str:00000444 .LASF86
C:\Users\Andrea\AppData\Local\Temp\cctdKzRQ.s:2612   .debug_str:000002ce .LASF87
C:\Users\Andrea\AppData\Local\Temp\cctdKzRQ.s:2722   .debug_str:00000814 .LASF88
C:\Users\Andrea\AppData\Local\Temp\cctdKzRQ.s:2660   .debug_str:00000526 .LASF89
C:\Users\Andrea\AppData\Local\Temp\cctdKzRQ.s:2628   .debug_str:00000371 .LASF90
C:\Users\Andrea\AppData\Local\Temp\cctdKzRQ.s:2806   .debug_str:00000c41 .LASF91
C:\Users\Andrea\AppData\Local\Temp\cctdKzRQ.s:2614   .debug_str:000002ea .LASF92
C:\Users\Andrea\AppData\Local\Temp\cctdKzRQ.s:2834   .debug_str:00000d88 .LASF93
C:\Users\Andrea\AppData\Local\Temp\cctdKzRQ.s:2826   .debug_str:00000d1e .LASF94
C:\Users\Andrea\AppData\Local\Temp\cctdKzRQ.s:2562   .debug_str:00000099 .LASF95
C:\Users\Andrea\AppData\Local\Temp\cctdKzRQ.s:2602   .debug_str:0000025d .LASF96
C:\Users\Andrea\AppData\Local\Temp\cctdKzRQ.s:2836   .debug_str:00000db3 .LASF97
C:\Users\Andrea\AppData\Local\Temp\cctdKzRQ.s:2768   .debug_str:00000a31 .LASF98
C:\Users\Andrea\AppData\Local\Temp\cctdKzRQ.s:2708   .debug_str:00000759 .LASF99
C:\Users\Andrea\AppData\Local\Temp\cctdKzRQ.s:2812   .debug_str:00000c7f .LASF100
C:\Users\Andrea\AppData\Local\Temp\cctdKzRQ.s:2594   .debug_str:00000207 .LASF101
C:\Users\Andrea\AppData\Local\Temp\cctdKzRQ.s:2652   .debug_str:000004c2 .LASF102
C:\Users\Andrea\AppData\Local\Temp\cctdKzRQ.s:2590   .debug_str:000001dd .LASF103
C:\Users\Andrea\AppData\Local\Temp\cctdKzRQ.s:2780   .debug_str:00000acf .LASF104
C:\Users\Andrea\AppData\Local\Temp\cctdKzRQ.s:2724   .debug_str:0000082e .LASF105
C:\Users\Andrea\AppData\Local\Temp\cctdKzRQ.s:2726   .debug_str:0000085d .LASF106
C:\Users\Andrea\AppData\Local\Temp\cctdKzRQ.s:2782   .debug_str:00000afe .LASF107
C:\Users\Andrea\AppData\Local\Temp\cctdKzRQ.s:2582   .debug_str:00000188 .LASF108
C:\Users\Andrea\AppData\Local\Temp\cctdKzRQ.s:2550   .debug_str:00000017 .LASF109
C:\Users\Andrea\AppData\Local\Temp\cctdKzRQ.s:2696   .debug_str:000006d5 .LASF110
C:\Users\Andrea\AppData\Local\Temp\cctdKzRQ.s:2818   .debug_str:00000cc9 .LASF111
C:\Users\Andrea\AppData\Local\Temp\cctdKzRQ.s:2604   .debug_str:00000281 .LASF112
C:\Users\Andrea\AppData\Local\Temp\cctdKzRQ.s:2600   .debug_str:00000245 .LASF113
C:\Users\Andrea\AppData\Local\Temp\cctdKzRQ.s:2748   .debug_str:00000940 .LASF114
C:\Users\Andrea\AppData\Local\Temp\cctdKzRQ.s:2740   .debug_str:000008f8 .LASF115
C:\Users\Andrea\AppData\Local\Temp\cctdKzRQ.s:2686   .debug_str:0000068a .LASF116
C:\Users\Andrea\AppData\Local\Temp\cctdKzRQ.s:2802   .debug_str:00000c1d .LASF117
C:\Users\Andrea\AppData\Local\Temp\cctdKzRQ.s:2766   .debug_str:00000a1c .LASF118
C:\Users\Andrea\AppData\Local\Temp\cctdKzRQ.s:2814   .debug_str:00000c96 .LASF119
C:\Users\Andrea\AppData\Local\Temp\cctdKzRQ.s:2772   .debug_str:00000a5d .LASF120
C:\Users\Andrea\AppData\Local\Temp\cctdKzRQ.s:2560   .debug_str:00000080 .LASF121
C:\Users\Andrea\AppData\Local\Temp\cctdKzRQ.s:2716   .debug_str:000007af .LASF122
C:\Users\Andrea\AppData\Local\Temp\cctdKzRQ.s:2618   .debug_str:0000030e .LASF123
C:\Users\Andrea\AppData\Local\Temp\cctdKzRQ.s:2790   .debug_str:00000b71 .LASF124
C:\Users\Andrea\AppData\Local\Temp\cctdKzRQ.s:2598   .debug_str:0000022f .LASF152
C:\Users\Andrea\AppData\Local\Temp\cctdKzRQ.s:34     .text.LIB_DIO_InitDigInputs:0000003d .LFE0
C:\Users\Andrea\AppData\Local\Temp\cctdKzRQ.s:2606   .debug_str:0000029b .LASF133
C:\Users\Andrea\AppData\Local\Temp\cctdKzRQ.s:90     .text.LIB_DIO_InsertDigInput:0000004a .LFE1
C:\Users\Andrea\AppData\Local\Temp\cctdKzRQ.s:2211   .debug_loc:00000000 .LLST0
C:\Users\Andrea\AppData\Local\Temp\cctdKzRQ.s:2225   .debug_loc:00000021 .LLST1
C:\Users\Andrea\AppData\Local\Temp\cctdKzRQ.s:2239   .debug_loc:00000042 .LLST2
C:\Users\Andrea\AppData\Local\Temp\cctdKzRQ.s:2844   .debug_str:00000e09 .LASF125
C:\Users\Andrea\AppData\Local\Temp\cctdKzRQ.s:2264   .debug_loc:0000007c .LLST3
C:\Users\Andrea\AppData\Local\Temp\cctdKzRQ.s:2760   .debug_str:00000a01 .LASF126
C:\Users\Andrea\AppData\Local\Temp\cctdKzRQ.s:58     .text.LIB_DIO_InsertDigInput:00000014 .LVL3
C:\Users\Andrea\AppData\Local\Temp\cctdKzRQ.s:2626   .debug_str:0000035f .LASF129
C:\Users\Andrea\AppData\Local\Temp\cctdKzRQ.s:116    .text.LIB_DIO_GET_INPUT:00000016 .LFE3
C:\Users\Andrea\AppData\Local\Temp\cctdKzRQ.s:2289   .debug_loc:000000b6 .LLST4
C:\Users\Andrea\AppData\Local\Temp\cctdKzRQ.s:2302   .debug_loc:000000d6 .LLST5
C:\Users\Andrea\AppData\Local\Temp\cctdKzRQ.s:2674   .debug_str:000005d2 .LASF127
C:\Users\Andrea\AppData\Local\Temp\cctdKzRQ.s:2313   .debug_loc:000000f4 .LLST6
C:\Users\Andrea\AppData\Local\Temp\cctdKzRQ.s:2820   .debug_str:00000ce9 .LASF128
C:\Users\Andrea\AppData\Local\Temp\cctdKzRQ.s:2324   .debug_loc:00000112 .LLST7
C:\Users\Andrea\AppData\Local\Temp\cctdKzRQ.s:104    .text.LIB_DIO_GET_INPUT:00000008 .LVL8
C:\Users\Andrea\AppData\Local\Temp\cctdKzRQ.s:111    .text.LIB_DIO_GET_INPUT:00000010 .LVL11
C:\Users\Andrea\AppData\Local\Temp\cctdKzRQ.s:2658   .debug_str:00000512 .LASF130
C:\Users\Andrea\AppData\Local\Temp\cctdKzRQ.s:167    .text.LIB_DIO_GET_INPUT_F:0000002a .LFE4
C:\Users\Andrea\AppData\Local\Temp\cctdKzRQ.s:2331   .debug_loc:00000125 .LLST8
C:\Users\Andrea\AppData\Local\Temp\cctdKzRQ.s:2344   .debug_loc:00000145 .LLST9
C:\Users\Andrea\AppData\Local\Temp\cctdKzRQ.s:2734   .debug_str:000008d5 .LASF131
C:\Users\Andrea\AppData\Local\Temp\cctdKzRQ.s:2355   .debug_loc:00000163 .LLST10
C:\Users\Andrea\AppData\Local\Temp\cctdKzRQ.s:2638   .debug_str:000003f9 .LASF132
C:\Users\Andrea\AppData\Local\Temp\cctdKzRQ.s:2366   .debug_loc:00000181 .LLST11
C:\Users\Andrea\AppData\Local\Temp\cctdKzRQ.s:139    .text.LIB_DIO_GET_INPUT_F:00000010 .LVL16
C:\Users\Andrea\AppData\Local\Temp\cctdKzRQ.s:2622   .debug_str:0000032d .LASF134
C:\Users\Andrea\AppData\Local\Temp\cctdKzRQ.s:297    .text.LIB_DIO_DigInputManager:000000d0 .LFE2
C:\Users\Andrea\AppData\Local\Temp\cctdKzRQ.s:2378   .debug_loc:000001a0 .LLST12
C:\Users\Andrea\AppData\Local\Temp\cctdKzRQ.s:2391   .debug_loc:000001c0 .LLST13
C:\Users\Andrea\AppData\Local\Temp\cctdKzRQ.s:2574   .debug_str:00000109 .LASF135
C:\Users\Andrea\AppData\Local\Temp\cctdKzRQ.s:2399   .debug_loc:000001d4 .LLST14
C:\Users\Andrea\AppData\Local\Temp\cctdKzRQ.s:2620   .debug_str:00000328 .LASF136
C:\Users\Andrea\AppData\Local\Temp\cctdKzRQ.s:2434   .debug_loc:00000215 .LLST15
C:\Users\Andrea\AppData\Local\Temp\cctdKzRQ.s:205    .text.LIB_DIO_DigInputManager:0000003e .LVL22
C:\Users\Andrea\AppData\Local\Temp\cctdKzRQ.s:2816   .debug_str:00000caf .LASF137
C:\Users\Andrea\AppData\Local\Temp\cctdKzRQ.s:335    .text.LIB_DIO_AreDigInputsReady:0000002b .LFE5
C:\Users\Andrea\AppData\Local\Temp\cctdKzRQ.s:2446   .debug_loc:00000234 .LLST16
C:\Users\Andrea\AppData\Local\Temp\cctdKzRQ.s:2744   .debug_str:00000920 .LASF138
C:\Users\Andrea\AppData\Local\Temp\cctdKzRQ.s:356    .text.LIB_DIO_GetDigInputVal:00000018 .LFE6
C:\Users\Andrea\AppData\Local\Temp\cctdKzRQ.s:2454   .debug_loc:00000248 .LLST17
C:\Users\Andrea\AppData\Local\Temp\cctdKzRQ.s:2824   .debug_str:00000d07 .LASF139
C:\Users\Andrea\AppData\Local\Temp\cctdKzRQ.s:387    .text.LIB_DIO_SetDigInputVal:00000027 .LFE7
C:\Users\Andrea\AppData\Local\Temp\cctdKzRQ.s:2468   .debug_loc:00000269 .LLST18
C:\Users\Andrea\AppData\Local\Temp\cctdKzRQ.s:2786   .debug_str:00000b47 .LASF140
C:\Users\Andrea\AppData\Local\Temp\cctdKzRQ.s:408    .text.LIB_DIO_IsDigitalReady:00000018 .LFE8
C:\Users\Andrea\AppData\Local\Temp\cctdKzRQ.s:2481   .debug_loc:00000289 .LLST19
C:\Users\Andrea\AppData\Local\Temp\cctdKzRQ.s:2572   .debug_str:000000fd .LASF141
C:\Users\Andrea\AppData\Local\Temp\cctdKzRQ.s:2576   .debug_str:00000117 .LASF142
C:\Users\Andrea\AppData\Local\Temp\cctdKzRQ.s:2662   .debug_str:0000054a .LASF143
C:\Users\Andrea\AppData\Local\Temp\cctdKzRQ.s:2554   .debug_str:00000050 .LASF144
C:\Users\Andrea\AppData\Local\Temp\cctdKzRQ.s:2810   .debug_str:00000c70 .LASF145
C:\Users\Andrea\AppData\Local\Temp\cctdKzRQ.s:2842   .debug_str:00000df8 .LASF146
C:\Users\Andrea\AppData\Local\Temp\cctdKzRQ.s:2684   .debug_str:00000672 .LASF147
C:\Users\Andrea\AppData\Local\Temp\cctdKzRQ.s:2718   .debug_str:000007ca .LASF153
C:\Users\Andrea\AppData\Local\Temp\cctdKzRQ.s:2784   .debug_str:00000b29 .LASF148
C:\Users\Andrea\AppData\Local\Temp\cctdKzRQ.s:42     .text.LIB_DIO_InsertDigInput:00000000 .LVL0
C:\Users\Andrea\AppData\Local\Temp\cctdKzRQ.s:56     .text.LIB_DIO_InsertDigInput:00000010 .LVL2
C:\Users\Andrea\AppData\Local\Temp\cctdKzRQ.s:51     .text.LIB_DIO_InsertDigInput:0000000d .LVL1
C:\Users\Andrea\AppData\Local\Temp\cctdKzRQ.s:77     .text.LIB_DIO_InsertDigInput:00000034 .LVL5
C:\Users\Andrea\AppData\Local\Temp\cctdKzRQ.s:85     .text.LIB_DIO_InsertDigInput:00000042 .LVL6
C:\Users\Andrea\AppData\Local\Temp\cctdKzRQ.s:100    .text.LIB_DIO_GET_INPUT:00000002 .LCFI0
C:\Users\Andrea\AppData\Local\Temp\cctdKzRQ.s:98     .text.LIB_DIO_GET_INPUT:00000000 .LVL7
C:\Users\Andrea\AppData\Local\Temp\cctdKzRQ.s:106    .text.LIB_DIO_GET_INPUT:0000000a .LVL9
C:\Users\Andrea\AppData\Local\Temp\cctdKzRQ.s:109    .text.LIB_DIO_GET_INPUT:0000000c .LVL10
C:\Users\Andrea\AppData\Local\Temp\cctdKzRQ.s:114    .text.LIB_DIO_GET_INPUT:00000013 .LVL12
C:\Users\Andrea\AppData\Local\Temp\cctdKzRQ.s:126    .text.LIB_DIO_GET_INPUT_F:00000002 .LCFI1
C:\Users\Andrea\AppData\Local\Temp\cctdKzRQ.s:124    .text.LIB_DIO_GET_INPUT_F:00000000 .LVL13
C:\Users\Andrea\AppData\Local\Temp\cctdKzRQ.s:134    .text.LIB_DIO_GET_INPUT_F:0000000a .LVL15
C:\Users\Andrea\AppData\Local\Temp\cctdKzRQ.s:129    .text.LIB_DIO_GET_INPUT_F:00000006 .LVL14
C:\Users\Andrea\AppData\Local\Temp\cctdKzRQ.s:176    .text.LIB_DIO_DigInputManager:00000002 .LCFI2
C:\Users\Andrea\AppData\Local\Temp\cctdKzRQ.s:177    .text.LIB_DIO_DigInputManager:00000002 .LVL20
C:\Users\Andrea\AppData\Local\Temp\cctdKzRQ.s:190    .text.LIB_DIO_DigInputManager:00000020 .LVL21
C:\Users\Andrea\AppData\Local\Temp\cctdKzRQ.s:227    .text.LIB_DIO_DigInputManager:00000064 .LVL23
C:\Users\Andrea\AppData\Local\Temp\cctdKzRQ.s:230    .text.LIB_DIO_DigInputManager:00000066 .LVL24
C:\Users\Andrea\AppData\Local\Temp\cctdKzRQ.s:240    .text.LIB_DIO_DigInputManager:00000075 .LVL25
C:\Users\Andrea\AppData\Local\Temp\cctdKzRQ.s:281    .text.LIB_DIO_DigInputManager:000000bb .LVL26
C:\Users\Andrea\AppData\Local\Temp\cctdKzRQ.s:288    .text.LIB_DIO_DigInputManager:000000c2 .LVL27
C:\Users\Andrea\AppData\Local\Temp\cctdKzRQ.s:305    .text.LIB_DIO_AreDigInputsReady:00000000 .LVL28
C:\Users\Andrea\AppData\Local\Temp\cctdKzRQ.s:310    .text.LIB_DIO_AreDigInputsReady:0000000a .LVL29
C:\Users\Andrea\AppData\Local\Temp\cctdKzRQ.s:343    .text.LIB_DIO_GetDigInputVal:00000000 .LVL30
C:\Users\Andrea\AppData\Local\Temp\cctdKzRQ.s:351    .text.LIB_DIO_GetDigInputVal:00000012 .LVL31
C:\Users\Andrea\AppData\Local\Temp\cctdKzRQ.s:379    .text.LIB_DIO_SetDigInputVal:0000001a .LCFI3
C:\Users\Andrea\AppData\Local\Temp\cctdKzRQ.s:395    .text.LIB_DIO_IsDigitalReady:00000000 .LVL32
C:\Users\Andrea\AppData\Local\Temp\cctdKzRQ.s:403    .text.LIB_DIO_IsDigitalReady:00000012 .LVL33
C:\Users\Andrea\AppData\Local\Temp\cctdKzRQ.s:577    .debug_info:00000000 .Ldebug_info0

UNDEFINED SYMBOLS
_LIB_Error_Fatal_Handler
_OCDIO_GetPinValueSync
_LIB_IOM_Get_IODir_ActiveSense
