   1                             		.file	"ExternalOutputManager.c"
   2                             		.section P,"ax"
   3                             	.Ltext0:
   4                             		.section	.text.LIB_IOM_External_Init,"ax",@progbits
   5                             		.global	_LIB_IOM_External_Init
   7                             	_LIB_IOM_External_Init:
   8                             	.LFB0:
   9                             		.file 1 "C:/Workspace/FW_Inertia/branch_indesit/PlatformLibrary/LIB_IOManager/ExternalOutputManage
   1:C:/Workspace/FW_Inertia/branch_indesit/PlatformLibrary/LIB_IOManager\ExternalOutputManager.c **** /*
   2:C:/Workspace/FW_Inertia/branch_indesit/PlatformLibrary/LIB_IOManager\ExternalOutputManager.c **** Copyright (c) 2004-2005, Indesit Company, I.D.D..
   3:C:/Workspace/FW_Inertia/branch_indesit/PlatformLibrary/LIB_IOManager\ExternalOutputManager.c **** Tutti i diritti sono riservati. All rights reserved.
   4:C:/Workspace/FW_Inertia/branch_indesit/PlatformLibrary/LIB_IOManager\ExternalOutputManager.c **** */
   5:C:/Workspace/FW_Inertia/branch_indesit/PlatformLibrary/LIB_IOManager\ExternalOutputManager.c **** 
   6:C:/Workspace/FW_Inertia/branch_indesit/PlatformLibrary/LIB_IOManager\ExternalOutputManager.c **** /**
   7:C:/Workspace/FW_Inertia/branch_indesit/PlatformLibrary/LIB_IOManager\ExternalOutputManager.c **** \n
   8:C:/Workspace/FW_Inertia/branch_indesit/PlatformLibrary/LIB_IOManager\ExternalOutputManager.c **** \n			Implementation of all functions necessary to achieve the aim.
   9:C:/Workspace/FW_Inertia/branch_indesit/PlatformLibrary/LIB_IOManager\ExternalOutputManager.c **** \n
  10:C:/Workspace/FW_Inertia/branch_indesit/PlatformLibrary/LIB_IOManager\ExternalOutputManager.c **** \file			ExternalOutputManager.c 
  11:C:/Workspace/FW_Inertia/branch_indesit/PlatformLibrary/LIB_IOManager\ExternalOutputManager.c **** \ingroup	ExtOutputsManager
  12:C:/Workspace/FW_Inertia/branch_indesit/PlatformLibrary/LIB_IOManager\ExternalOutputManager.c **** \date			Sep 13, 2010 
  13:C:/Workspace/FW_Inertia/branch_indesit/PlatformLibrary/LIB_IOManager\ExternalOutputManager.c **** \version	01.00.00 
  14:C:/Workspace/FW_Inertia/branch_indesit/PlatformLibrary/LIB_IOManager\ExternalOutputManager.c **** \author		Roberto Fioravanti 
  15:C:/Workspace/FW_Inertia/branch_indesit/PlatformLibrary/LIB_IOManager\ExternalOutputManager.c **** \n
  16:C:/Workspace/FW_Inertia/branch_indesit/PlatformLibrary/LIB_IOManager\ExternalOutputManager.c **** \n
  17:C:/Workspace/FW_Inertia/branch_indesit/PlatformLibrary/LIB_IOManager\ExternalOutputManager.c **** \par\b	History:
  18:C:/Workspace/FW_Inertia/branch_indesit/PlatformLibrary/LIB_IOManager\ExternalOutputManager.c **** \n 
  19:C:/Workspace/FW_Inertia/branch_indesit/PlatformLibrary/LIB_IOManager\ExternalOutputManager.c **** \n 		00.00.64
  20:C:/Workspace/FW_Inertia/branch_indesit/PlatformLibrary/LIB_IOManager\ExternalOutputManager.c **** \n		14/09/2010 
  21:C:/Workspace/FW_Inertia/branch_indesit/PlatformLibrary/LIB_IOManager\ExternalOutputManager.c **** \n		Roberto Fioravanti 
  22:C:/Workspace/FW_Inertia/branch_indesit/PlatformLibrary/LIB_IOManager\ExternalOutputManager.c **** \n		changes 
  23:C:/Workspace/FW_Inertia/branch_indesit/PlatformLibrary/LIB_IOManager\ExternalOutputManager.c **** \n 		- creation
  24:C:/Workspace/FW_Inertia/branch_indesit/PlatformLibrary/LIB_IOManager\ExternalOutputManager.c **** \n
  25:C:/Workspace/FW_Inertia/branch_indesit/PlatformLibrary/LIB_IOManager\ExternalOutputManager.c **** \n etc.
  26:C:/Workspace/FW_Inertia/branch_indesit/PlatformLibrary/LIB_IOManager\ExternalOutputManager.c **** */
  27:C:/Workspace/FW_Inertia/branch_indesit/PlatformLibrary/LIB_IOManager\ExternalOutputManager.c **** #define MODULE_BODY_LIB_IOMANAGER
  28:C:/Workspace/FW_Inertia/branch_indesit/PlatformLibrary/LIB_IOManager\ExternalOutputManager.c **** /* ******** */
  29:C:/Workspace/FW_Inertia/branch_indesit/PlatformLibrary/LIB_IOManager\ExternalOutputManager.c **** /* Includes */
  30:C:/Workspace/FW_Inertia/branch_indesit/PlatformLibrary/LIB_IOManager\ExternalOutputManager.c **** /* ******** */
  31:C:/Workspace/FW_Inertia/branch_indesit/PlatformLibrary/LIB_IOManager\ExternalOutputManager.c **** #include "Config.h"
  32:C:/Workspace/FW_Inertia/branch_indesit/PlatformLibrary/LIB_IOManager\ExternalOutputManager.c **** #include "LIB_Error.h"
  33:C:/Workspace/FW_Inertia/branch_indesit/PlatformLibrary/LIB_IOManager\ExternalOutputManager.c **** #if defined(CONFIG_LIB_EXTERNAL_BOARD_SUPPORT)
  34:C:/Workspace/FW_Inertia/branch_indesit/PlatformLibrary/LIB_IOManager\ExternalOutputManager.c **** 
  35:C:/Workspace/FW_Inertia/branch_indesit/PlatformLibrary/LIB_IOManager\ExternalOutputManager.c **** #include "LIB_Utilities.h"
  36:C:/Workspace/FW_Inertia/branch_indesit/PlatformLibrary/LIB_IOManager\ExternalOutputManager.c **** #if defined(CONFIG_LIB_LOADSREQUEST_SUPPORT)
  37:C:/Workspace/FW_Inertia/branch_indesit/PlatformLibrary/LIB_IOManager\ExternalOutputManager.c **** #include "LoadsRequest.h"
  38:C:/Workspace/FW_Inertia/branch_indesit/PlatformLibrary/LIB_IOManager\ExternalOutputManager.c **** #endif  /* defined(CONFIG_LIB_LOADSREQUEST_SUPPORT) */
  39:C:/Workspace/FW_Inertia/branch_indesit/PlatformLibrary/LIB_IOManager\ExternalOutputManager.c **** #include "OutputManager.h"
  40:C:/Workspace/FW_Inertia/branch_indesit/PlatformLibrary/LIB_IOManager\ExternalOutputManager.c **** /*lint -e537*/
  41:C:/Workspace/FW_Inertia/branch_indesit/PlatformLibrary/LIB_IOManager\ExternalOutputManager.c **** #include "ExternalOutputManager.h"
  42:C:/Workspace/FW_Inertia/branch_indesit/PlatformLibrary/LIB_IOManager\ExternalOutputManager.c **** /*lint +e537*/
  43:C:/Workspace/FW_Inertia/branch_indesit/PlatformLibrary/LIB_IOManager\ExternalOutputManager.c **** #include "ExternalOutputManagerExp.h"
  44:C:/Workspace/FW_Inertia/branch_indesit/PlatformLibrary/LIB_IOManager\ExternalOutputManager.c **** #include "OutputManagerExp.h"
  45:C:/Workspace/FW_Inertia/branch_indesit/PlatformLibrary/LIB_IOManager\ExternalOutputManager.c **** 
  46:C:/Workspace/FW_Inertia/branch_indesit/PlatformLibrary/LIB_IOManager\ExternalOutputManager.c **** /* ****************** */
  47:C:/Workspace/FW_Inertia/branch_indesit/PlatformLibrary/LIB_IOManager\ExternalOutputManager.c **** /* Defines and Macros */
  48:C:/Workspace/FW_Inertia/branch_indesit/PlatformLibrary/LIB_IOManager\ExternalOutputManager.c **** /* ****************** */
  49:C:/Workspace/FW_Inertia/branch_indesit/PlatformLibrary/LIB_IOManager\ExternalOutputManager.c **** 
  50:C:/Workspace/FW_Inertia/branch_indesit/PlatformLibrary/LIB_IOManager\ExternalOutputManager.c **** /*External params*/
  51:C:/Workspace/FW_Inertia/branch_indesit/PlatformLibrary/LIB_IOManager\ExternalOutputManager.c **** #define EXTERNAL_PARAMS_UART(pByte)     			(((*((uint8_t*)(pByte))) & 0xC0)>>6)            /*  */
  52:C:/Workspace/FW_Inertia/branch_indesit/PlatformLibrary/LIB_IOManager\ExternalOutputManager.c **** #define EXTERNAL_PARAMS_DISPL(pByte)     			(*((uint8_t*)(pByte) +1 ))            /*  */
  53:C:/Workspace/FW_Inertia/branch_indesit/PlatformLibrary/LIB_IOManager\ExternalOutputManager.c **** 
  54:C:/Workspace/FW_Inertia/branch_indesit/PlatformLibrary/LIB_IOManager\ExternalOutputManager.c **** /*Debug*/
  55:C:/Workspace/FW_Inertia/branch_indesit/PlatformLibrary/LIB_IOManager\ExternalOutputManager.c **** 
  56:C:/Workspace/FW_Inertia/branch_indesit/PlatformLibrary/LIB_IOManager\ExternalOutputManager.c **** /* *************************** */
  57:C:/Workspace/FW_Inertia/branch_indesit/PlatformLibrary/LIB_IOManager\ExternalOutputManager.c **** /* Typedef, Structs and Unions */
  58:C:/Workspace/FW_Inertia/branch_indesit/PlatformLibrary/LIB_IOManager\ExternalOutputManager.c **** /* *************************** */
  59:C:/Workspace/FW_Inertia/branch_indesit/PlatformLibrary/LIB_IOManager\ExternalOutputManager.c **** 
  60:C:/Workspace/FW_Inertia/branch_indesit/PlatformLibrary/LIB_IOManager\ExternalOutputManager.c **** /* structure for seq id management */
  61:C:/Workspace/FW_Inertia/branch_indesit/PlatformLibrary/LIB_IOManager\ExternalOutputManager.c **** typedef struct {
  62:C:/Workspace/FW_Inertia/branch_indesit/PlatformLibrary/LIB_IOManager\ExternalOutputManager.c **** 	uint8_t Seq;
  63:C:/Workspace/FW_Inertia/branch_indesit/PlatformLibrary/LIB_IOManager\ExternalOutputManager.c **** 	uint8_t OldReq;
  64:C:/Workspace/FW_Inertia/branch_indesit/PlatformLibrary/LIB_IOManager\ExternalOutputManager.c **** 	uint8_t NewReq;
  65:C:/Workspace/FW_Inertia/branch_indesit/PlatformLibrary/LIB_IOManager\ExternalOutputManager.c **** } ExtSeqIdType;
  66:C:/Workspace/FW_Inertia/branch_indesit/PlatformLibrary/LIB_IOManager\ExternalOutputManager.c **** 
  67:C:/Workspace/FW_Inertia/branch_indesit/PlatformLibrary/LIB_IOManager\ExternalOutputManager.c **** /* infopacketdata sub-block header format: each infopacket's sub-block 
  68:C:/Workspace/FW_Inertia/branch_indesit/PlatformLibrary/LIB_IOManager\ExternalOutputManager.c **** has this header  */
  69:C:/Workspace/FW_Inertia/branch_indesit/PlatformLibrary/LIB_IOManager\ExternalOutputManager.c **** typedef struct {
  70:C:/Workspace/FW_Inertia/branch_indesit/PlatformLibrary/LIB_IOManager\ExternalOutputManager.c **** 	uint8_t	szData;
  71:C:/Workspace/FW_Inertia/branch_indesit/PlatformLibrary/LIB_IOManager\ExternalOutputManager.c **** 	uint8_t	pilotType;
  72:C:/Workspace/FW_Inertia/branch_indesit/PlatformLibrary/LIB_IOManager\ExternalOutputManager.c **** } InfoPacketDataHdrType;
  73:C:/Workspace/FW_Inertia/branch_indesit/PlatformLibrary/LIB_IOManager\ExternalOutputManager.c **** 
  74:C:/Workspace/FW_Inertia/branch_indesit/PlatformLibrary/LIB_IOManager\ExternalOutputManager.c **** /* bldc command value */
  75:C:/Workspace/FW_Inertia/branch_indesit/PlatformLibrary/LIB_IOManager\ExternalOutputManager.c **** typedef struct {
  76:C:/Workspace/FW_Inertia/branch_indesit/PlatformLibrary/LIB_IOManager\ExternalOutputManager.c **** 	int16_t 	rpm;
  77:C:/Workspace/FW_Inertia/branch_indesit/PlatformLibrary/LIB_IOManager\ExternalOutputManager.c **** 	uint16_t 	time;
  78:C:/Workspace/FW_Inertia/branch_indesit/PlatformLibrary/LIB_IOManager\ExternalOutputManager.c **** } ExternalBldcWashCmdType;
  79:C:/Workspace/FW_Inertia/branch_indesit/PlatformLibrary/LIB_IOManager\ExternalOutputManager.c **** 
  80:C:/Workspace/FW_Inertia/branch_indesit/PlatformLibrary/LIB_IOManager\ExternalOutputManager.c **** 
  81:C:/Workspace/FW_Inertia/branch_indesit/PlatformLibrary/LIB_IOManager\ExternalOutputManager.c **** /* bldc command value */
  82:C:/Workspace/FW_Inertia/branch_indesit/PlatformLibrary/LIB_IOManager\ExternalOutputManager.c **** typedef ExternalBldcWashCmdType ExternalBldcDrainCmdType;
  83:C:/Workspace/FW_Inertia/branch_indesit/PlatformLibrary/LIB_IOManager\ExternalOutputManager.c **** 
  84:C:/Workspace/FW_Inertia/branch_indesit/PlatformLibrary/LIB_IOManager\ExternalOutputManager.c **** 
  85:C:/Workspace/FW_Inertia/branch_indesit/PlatformLibrary/LIB_IOManager\ExternalOutputManager.c **** 
  86:C:/Workspace/FW_Inertia/branch_indesit/PlatformLibrary/LIB_IOManager\ExternalOutputManager.c **** /* external Command buffer params */
  87:C:/Workspace/FW_Inertia/branch_indesit/PlatformLibrary/LIB_IOManager\ExternalOutputManager.c **** typedef struct{
  88:C:/Workspace/FW_Inertia/branch_indesit/PlatformLibrary/LIB_IOManager\ExternalOutputManager.c **** 	uint8_t* 	pCmdBuffer;
  89:C:/Workspace/FW_Inertia/branch_indesit/PlatformLibrary/LIB_IOManager\ExternalOutputManager.c **** 	uint8_t*	pCmdBufferTx;
  90:C:/Workspace/FW_Inertia/branch_indesit/PlatformLibrary/LIB_IOManager\ExternalOutputManager.c **** 	uint8_t		szCmdBuffer;
  91:C:/Workspace/FW_Inertia/branch_indesit/PlatformLibrary/LIB_IOManager\ExternalOutputManager.c **** }IOM_External_CommandBufferTableType;
  92:C:/Workspace/FW_Inertia/branch_indesit/PlatformLibrary/LIB_IOManager\ExternalOutputManager.c **** 
  93:C:/Workspace/FW_Inertia/branch_indesit/PlatformLibrary/LIB_IOManager\ExternalOutputManager.c **** /* loads param */
  94:C:/Workspace/FW_Inertia/branch_indesit/PlatformLibrary/LIB_IOManager\ExternalOutputManager.c **** typedef struct
  95:C:/Workspace/FW_Inertia/branch_indesit/PlatformLibrary/LIB_IOManager\ExternalOutputManager.c **** {
  96:C:/Workspace/FW_Inertia/branch_indesit/PlatformLibrary/LIB_IOManager\ExternalOutputManager.c **** 	uint8_t* 	pPilotTypeInfo;
  97:C:/Workspace/FW_Inertia/branch_indesit/PlatformLibrary/LIB_IOManager\ExternalOutputManager.c **** 	uint8_t		szPilotTypeInfo;
  98:C:/Workspace/FW_Inertia/branch_indesit/PlatformLibrary/LIB_IOManager\ExternalOutputManager.c **** 	uint8_t		PilotType;
  99:C:/Workspace/FW_Inertia/branch_indesit/PlatformLibrary/LIB_IOManager\ExternalOutputManager.c **** 	uint8_t		CmdOffset;
 100:C:/Workspace/FW_Inertia/branch_indesit/PlatformLibrary/LIB_IOManager\ExternalOutputManager.c **** 	uint8_t		szCmd;
 101:C:/Workspace/FW_Inertia/branch_indesit/PlatformLibrary/LIB_IOManager\ExternalOutputManager.c **** 	uint8_t		Displacement;
 102:C:/Workspace/FW_Inertia/branch_indesit/PlatformLibrary/LIB_IOManager\ExternalOutputManager.c **** 	uint8_t		CommCh;
 103:C:/Workspace/FW_Inertia/branch_indesit/PlatformLibrary/LIB_IOManager\ExternalOutputManager.c **** } IOM_External_LoadsTableType;
 104:C:/Workspace/FW_Inertia/branch_indesit/PlatformLibrary/LIB_IOManager\ExternalOutputManager.c **** 
 105:C:/Workspace/FW_Inertia/branch_indesit/PlatformLibrary/LIB_IOManager\ExternalOutputManager.c **** typedef struct 
 106:C:/Workspace/FW_Inertia/branch_indesit/PlatformLibrary/LIB_IOManager\ExternalOutputManager.c **** {
 107:C:/Workspace/FW_Inertia/branch_indesit/PlatformLibrary/LIB_IOManager\ExternalOutputManager.c **** 	uint8_t* 	pRamBuffer;
 108:C:/Workspace/FW_Inertia/branch_indesit/PlatformLibrary/LIB_IOManager\ExternalOutputManager.c **** 	uint8_t		szRamBuffer;
 109:C:/Workspace/FW_Inertia/branch_indesit/PlatformLibrary/LIB_IOManager\ExternalOutputManager.c **** #if defined(CONFIG_EXTERNAL_GLOBAL_DATA_BLOCK_SUPPORT)
 110:C:/Workspace/FW_Inertia/branch_indesit/PlatformLibrary/LIB_IOManager\ExternalOutputManager.c **** 	uint8_t 	*pGlobalData;
 111:C:/Workspace/FW_Inertia/branch_indesit/PlatformLibrary/LIB_IOManager\ExternalOutputManager.c **** 	uint8_t 	szGlobal;
 112:C:/Workspace/FW_Inertia/branch_indesit/PlatformLibrary/LIB_IOManager\ExternalOutputManager.c **** #endif
 113:C:/Workspace/FW_Inertia/branch_indesit/PlatformLibrary/LIB_IOManager\ExternalOutputManager.c **** }ExternalDataType;
 114:C:/Workspace/FW_Inertia/branch_indesit/PlatformLibrary/LIB_IOManager\ExternalOutputManager.c **** 
 115:C:/Workspace/FW_Inertia/branch_indesit/PlatformLibrary/LIB_IOManager\ExternalOutputManager.c **** 
 116:C:/Workspace/FW_Inertia/branch_indesit/PlatformLibrary/LIB_IOManager\ExternalOutputManager.c **** #if defined(IOM_EXTERNAL_0_ENABLED)
 117:C:/Workspace/FW_Inertia/branch_indesit/PlatformLibrary/LIB_IOManager\ExternalOutputManager.c **** #define EXTERNAL_BOARD_MIN    0
 118:C:/Workspace/FW_Inertia/branch_indesit/PlatformLibrary/LIB_IOManager\ExternalOutputManager.c **** #else
 119:C:/Workspace/FW_Inertia/branch_indesit/PlatformLibrary/LIB_IOManager\ExternalOutputManager.c **** #define EXTERNAL_BOARD_MIN    1
 120:C:/Workspace/FW_Inertia/branch_indesit/PlatformLibrary/LIB_IOManager\ExternalOutputManager.c **** #endif
 121:C:/Workspace/FW_Inertia/branch_indesit/PlatformLibrary/LIB_IOManager\ExternalOutputManager.c **** 
 122:C:/Workspace/FW_Inertia/branch_indesit/PlatformLibrary/LIB_IOManager\ExternalOutputManager.c **** 
 123:C:/Workspace/FW_Inertia/branch_indesit/PlatformLibrary/LIB_IOManager\ExternalOutputManager.c **** /* ********* */
 124:C:/Workspace/FW_Inertia/branch_indesit/PlatformLibrary/LIB_IOManager\ExternalOutputManager.c **** /* Variables */
 125:C:/Workspace/FW_Inertia/branch_indesit/PlatformLibrary/LIB_IOManager\ExternalOutputManager.c **** /* ********* */
 126:C:/Workspace/FW_Inertia/branch_indesit/PlatformLibrary/LIB_IOManager\ExternalOutputManager.c **** 
 127:C:/Workspace/FW_Inertia/branch_indesit/PlatformLibrary/LIB_IOManager\ExternalOutputManager.c **** /* Global */
 128:C:/Workspace/FW_Inertia/branch_indesit/PlatformLibrary/LIB_IOManager\ExternalOutputManager.c **** #if defined(CONFIG_LIB_EXTERNAL_BOARD_SUPPORT) && defined(IOM_EXTERNAL_1_ENABLED)
 129:C:/Workspace/FW_Inertia/branch_indesit/PlatformLibrary/LIB_IOManager\ExternalOutputManager.c **** uint8_t IOM_CommandBufferExternal_1[IOM_EXTERNAL_1_COMMANDBUFFER_SIZE];
 130:C:/Workspace/FW_Inertia/branch_indesit/PlatformLibrary/LIB_IOManager\ExternalOutputManager.c **** uint8_t IOM_CommandBufferExternal_1_Tx[IOM_EXTERNAL_1_COMMANDBUFFER_SIZE];	/*total size is seq ID s
 131:C:/Workspace/FW_Inertia/branch_indesit/PlatformLibrary/LIB_IOManager\ExternalOutputManager.c **** uint8_t	IOM_ReadRamExternal_1[IOM_EXTERNAL_1_GLOBALRAMBUFFER_SIZE];
 132:C:/Workspace/FW_Inertia/branch_indesit/PlatformLibrary/LIB_IOManager\ExternalOutputManager.c **** 
 133:C:/Workspace/FW_Inertia/branch_indesit/PlatformLibrary/LIB_IOManager\ExternalOutputManager.c **** #if defined(CONFIG_EXTERNAL_GLOBAL_DATA_BLOCK_SUPPORT)
 134:C:/Workspace/FW_Inertia/branch_indesit/PlatformLibrary/LIB_IOManager\ExternalOutputManager.c **** uint8_t ExternalGlobalData_1[IOM_EXTERNAL_1_GLOBALDATABUFFER_SIZE];
 135:C:/Workspace/FW_Inertia/branch_indesit/PlatformLibrary/LIB_IOManager\ExternalOutputManager.c **** #endif /* defined(CONFIG_EXTERNAL_GLOBAL_DATA_BLOCK_SUPPORT) */
 136:C:/Workspace/FW_Inertia/branch_indesit/PlatformLibrary/LIB_IOManager\ExternalOutputManager.c **** 
 137:C:/Workspace/FW_Inertia/branch_indesit/PlatformLibrary/LIB_IOManager\ExternalOutputManager.c **** #endif /* defined(CONFIG_LIB_EXTERNAL_BOARD_SUPPORT)	&& defined(IOM_EXTERNAL_1_ENABLED)*/
 138:C:/Workspace/FW_Inertia/branch_indesit/PlatformLibrary/LIB_IOManager\ExternalOutputManager.c **** 
 139:C:/Workspace/FW_Inertia/branch_indesit/PlatformLibrary/LIB_IOManager\ExternalOutputManager.c **** #if defined(CONFIG_LIB_EXTERNAL_BOARD_SUPPORT)	&& defined(IOM_EXTERNAL_0_ENABLED)
 140:C:/Workspace/FW_Inertia/branch_indesit/PlatformLibrary/LIB_IOManager\ExternalOutputManager.c **** 
 141:C:/Workspace/FW_Inertia/branch_indesit/PlatformLibrary/LIB_IOManager\ExternalOutputManager.c **** uint8_t IOM_CommandBufferExternal_0[IOM_EXTERNAL_0_COMMANDBUFFER_SIZE];		/*total size is seq ID siz
 142:C:/Workspace/FW_Inertia/branch_indesit/PlatformLibrary/LIB_IOManager\ExternalOutputManager.c **** uint8_t IOM_CommandBufferExternal_0_Tx[IOM_EXTERNAL_0_COMMANDBUFFER_SIZE];	/*total size is seq ID s
 143:C:/Workspace/FW_Inertia/branch_indesit/PlatformLibrary/LIB_IOManager\ExternalOutputManager.c **** uint8_t	IOM_ReadRamExternal_0[IOM_EXTERNAL_0_GLOBALRAMBUFFER_SIZE];					/*total size is cnt + seq i
 144:C:/Workspace/FW_Inertia/branch_indesit/PlatformLibrary/LIB_IOManager\ExternalOutputManager.c **** 
 145:C:/Workspace/FW_Inertia/branch_indesit/PlatformLibrary/LIB_IOManager\ExternalOutputManager.c **** #if defined(CONFIG_EXTERNAL_GLOBAL_DATA_BLOCK_SUPPORT)
 146:C:/Workspace/FW_Inertia/branch_indesit/PlatformLibrary/LIB_IOManager\ExternalOutputManager.c **** uint8_t ExternalGlobalData_0[IOM_EXTERNAL_0_GLOBALDATABUFFER_SIZE];
 147:C:/Workspace/FW_Inertia/branch_indesit/PlatformLibrary/LIB_IOManager\ExternalOutputManager.c **** #endif /* defined(CONFIG_EXTERNAL_GLOBAL_DATA_BLOCK_SUPPORT) */
 148:C:/Workspace/FW_Inertia/branch_indesit/PlatformLibrary/LIB_IOManager\ExternalOutputManager.c **** 
 149:C:/Workspace/FW_Inertia/branch_indesit/PlatformLibrary/LIB_IOManager\ExternalOutputManager.c **** #endif /* defined(CONFIG_LIB_EXTERNAL_BOARD_SUPPORT)	&& defined(IOM_EXTERNAL_0_ENABLED)*/
 150:C:/Workspace/FW_Inertia/branch_indesit/PlatformLibrary/LIB_IOManager\ExternalOutputManager.c **** 
 151:C:/Workspace/FW_Inertia/branch_indesit/PlatformLibrary/LIB_IOManager\ExternalOutputManager.c **** 
 152:C:/Workspace/FW_Inertia/branch_indesit/PlatformLibrary/LIB_IOManager\ExternalOutputManager.c **** IOM_External_LoadsTableType	IOM_External_LoadsTable[IOM_NUM_OF_EXTERNAL_LOADS];
 153:C:/Workspace/FW_Inertia/branch_indesit/PlatformLibrary/LIB_IOManager\ExternalOutputManager.c **** 
 154:C:/Workspace/FW_Inertia/branch_indesit/PlatformLibrary/LIB_IOManager\ExternalOutputManager.c **** const IOM_External_CommandBufferTableType IOM_External_CommandBufferTable[EXTERNAL_NUM]=
 155:C:/Workspace/FW_Inertia/branch_indesit/PlatformLibrary/LIB_IOManager\ExternalOutputManager.c **** {
 156:C:/Workspace/FW_Inertia/branch_indesit/PlatformLibrary/LIB_IOManager\ExternalOutputManager.c **** #if defined(CONFIG_LIB_EXTERNAL_BOARD_SUPPORT)	&& defined(IOM_EXTERNAL_0_ENABLED)
 157:C:/Workspace/FW_Inertia/branch_indesit/PlatformLibrary/LIB_IOManager\ExternalOutputManager.c **** {IOM_CommandBufferExternal_0, IOM_CommandBufferExternal_0_Tx, sizeof(IOM_CommandBufferExternal_0)},
 158:C:/Workspace/FW_Inertia/branch_indesit/PlatformLibrary/LIB_IOManager\ExternalOutputManager.c **** #endif /* defined(CONFIG_LIB_EXTERNAL_BOARD_SUPPORT)	&& defined(IOM_EXTERNAL_0_ENABLED)*/
 159:C:/Workspace/FW_Inertia/branch_indesit/PlatformLibrary/LIB_IOManager\ExternalOutputManager.c **** #if defined(CONFIG_LIB_EXTERNAL_BOARD_SUPPORT)	&& defined(IOM_EXTERNAL_1_ENABLED)
 160:C:/Workspace/FW_Inertia/branch_indesit/PlatformLibrary/LIB_IOManager\ExternalOutputManager.c **** {IOM_CommandBufferExternal_1, IOM_CommandBufferExternal_1_Tx, sizeof(IOM_CommandBufferExternal_1)},
 161:C:/Workspace/FW_Inertia/branch_indesit/PlatformLibrary/LIB_IOManager\ExternalOutputManager.c **** #endif /* defined(CONFIG_LIB_EXTERNAL_BOARD_SUPPORT)	&& defined(IOM_EXTERNAL_0_ENABLED)*/
 162:C:/Workspace/FW_Inertia/branch_indesit/PlatformLibrary/LIB_IOManager\ExternalOutputManager.c **** };
 163:C:/Workspace/FW_Inertia/branch_indesit/PlatformLibrary/LIB_IOManager\ExternalOutputManager.c **** 
 164:C:/Workspace/FW_Inertia/branch_indesit/PlatformLibrary/LIB_IOManager\ExternalOutputManager.c **** ExtSeqIdType ExternalSeqId[EXTERNAL_NUM];
 165:C:/Workspace/FW_Inertia/branch_indesit/PlatformLibrary/LIB_IOManager\ExternalOutputManager.c **** 
 166:C:/Workspace/FW_Inertia/branch_indesit/PlatformLibrary/LIB_IOManager\ExternalOutputManager.c **** const ExternalDataType ExternalData[EXTERNAL_NUM]=
 167:C:/Workspace/FW_Inertia/branch_indesit/PlatformLibrary/LIB_IOManager\ExternalOutputManager.c **** {
 168:C:/Workspace/FW_Inertia/branch_indesit/PlatformLibrary/LIB_IOManager\ExternalOutputManager.c **** #if defined(CONFIG_LIB_EXTERNAL_BOARD_SUPPORT) && defined(IOM_EXTERNAL_0_ENABLED)
 169:C:/Workspace/FW_Inertia/branch_indesit/PlatformLibrary/LIB_IOManager\ExternalOutputManager.c **** 	{IOM_ReadRamExternal_0, sizeof(IOM_ReadRamExternal_0)
 170:C:/Workspace/FW_Inertia/branch_indesit/PlatformLibrary/LIB_IOManager\ExternalOutputManager.c **** #if defined(CONFIG_EXTERNAL_GLOBAL_DATA_BLOCK_SUPPORT)
 171:C:/Workspace/FW_Inertia/branch_indesit/PlatformLibrary/LIB_IOManager\ExternalOutputManager.c **** 	,
 172:C:/Workspace/FW_Inertia/branch_indesit/PlatformLibrary/LIB_IOManager\ExternalOutputManager.c **** 	ExternalGlobalData_0,
 173:C:/Workspace/FW_Inertia/branch_indesit/PlatformLibrary/LIB_IOManager\ExternalOutputManager.c **** 	sizeof(ExternalGlobalData_0)
 174:C:/Workspace/FW_Inertia/branch_indesit/PlatformLibrary/LIB_IOManager\ExternalOutputManager.c **** #endif
 175:C:/Workspace/FW_Inertia/branch_indesit/PlatformLibrary/LIB_IOManager\ExternalOutputManager.c **** 	},
 176:C:/Workspace/FW_Inertia/branch_indesit/PlatformLibrary/LIB_IOManager\ExternalOutputManager.c **** #endif	
 177:C:/Workspace/FW_Inertia/branch_indesit/PlatformLibrary/LIB_IOManager\ExternalOutputManager.c **** #if defined(CONFIG_LIB_EXTERNAL_BOARD_SUPPORT) && defined(IOM_EXTERNAL_1_ENABLED)
 178:C:/Workspace/FW_Inertia/branch_indesit/PlatformLibrary/LIB_IOManager\ExternalOutputManager.c **** 	{IOM_ReadRamExternal_1, sizeof(IOM_ReadRamExternal_1)
 179:C:/Workspace/FW_Inertia/branch_indesit/PlatformLibrary/LIB_IOManager\ExternalOutputManager.c **** #if defined(CONFIG_EXTERNAL_GLOBAL_DATA_BLOCK_SUPPORT)
 180:C:/Workspace/FW_Inertia/branch_indesit/PlatformLibrary/LIB_IOManager\ExternalOutputManager.c **** 	,
 181:C:/Workspace/FW_Inertia/branch_indesit/PlatformLibrary/LIB_IOManager\ExternalOutputManager.c **** 	ExternalGlobalData_1,
 182:C:/Workspace/FW_Inertia/branch_indesit/PlatformLibrary/LIB_IOManager\ExternalOutputManager.c **** 	sizeof(ExternalGlobalData_1)
 183:C:/Workspace/FW_Inertia/branch_indesit/PlatformLibrary/LIB_IOManager\ExternalOutputManager.c **** #endif
 184:C:/Workspace/FW_Inertia/branch_indesit/PlatformLibrary/LIB_IOManager\ExternalOutputManager.c **** 	},
 185:C:/Workspace/FW_Inertia/branch_indesit/PlatformLibrary/LIB_IOManager\ExternalOutputManager.c **** #endif /* defined(CONFIG_LIB_EXTERNAL_BOARD_SUPPORT)	&& defined(IOM_EXTERNAL_0_ENABLED)*/
 186:C:/Workspace/FW_Inertia/branch_indesit/PlatformLibrary/LIB_IOManager\ExternalOutputManager.c **** };
 187:C:/Workspace/FW_Inertia/branch_indesit/PlatformLibrary/LIB_IOManager\ExternalOutputManager.c **** 
 188:C:/Workspace/FW_Inertia/branch_indesit/PlatformLibrary/LIB_IOManager\ExternalOutputManager.c **** 
 189:C:/Workspace/FW_Inertia/branch_indesit/PlatformLibrary/LIB_IOManager\ExternalOutputManager.c **** uint8_t IOM_External_CommandBufferCntTable[EXTERNAL_NUM];
 190:C:/Workspace/FW_Inertia/branch_indesit/PlatformLibrary/LIB_IOManager\ExternalOutputManager.c **** 
 191:C:/Workspace/FW_Inertia/branch_indesit/PlatformLibrary/LIB_IOManager\ExternalOutputManager.c **** 
 192:C:/Workspace/FW_Inertia/branch_indesit/PlatformLibrary/LIB_IOManager\ExternalOutputManager.c **** /* Static */
 193:C:/Workspace/FW_Inertia/branch_indesit/PlatformLibrary/LIB_IOManager\ExternalOutputManager.c **** static uint8_t ExternalBoardCounter=0;
 194:C:/Workspace/FW_Inertia/branch_indesit/PlatformLibrary/LIB_IOManager\ExternalOutputManager.c **** 
 195:C:/Workspace/FW_Inertia/branch_indesit/PlatformLibrary/LIB_IOManager\ExternalOutputManager.c **** /* ******************* */
 196:C:/Workspace/FW_Inertia/branch_indesit/PlatformLibrary/LIB_IOManager\ExternalOutputManager.c **** /* Functions Prototype */
 197:C:/Workspace/FW_Inertia/branch_indesit/PlatformLibrary/LIB_IOManager\ExternalOutputManager.c **** /* ******************* */
 198:C:/Workspace/FW_Inertia/branch_indesit/PlatformLibrary/LIB_IOManager\ExternalOutputManager.c **** 
 199:C:/Workspace/FW_Inertia/branch_indesit/PlatformLibrary/LIB_IOManager\ExternalOutputManager.c **** 
 200:C:/Workspace/FW_Inertia/branch_indesit/PlatformLibrary/LIB_IOManager\ExternalOutputManager.c **** /* Exported function */
 201:C:/Workspace/FW_Inertia/branch_indesit/PlatformLibrary/LIB_IOManager\ExternalOutputManager.c **** 
 202:C:/Workspace/FW_Inertia/branch_indesit/PlatformLibrary/LIB_IOManager\ExternalOutputManager.c **** /* Local Function */
 203:C:/Workspace/FW_Inertia/branch_indesit/PlatformLibrary/LIB_IOManager\ExternalOutputManager.c **** static uint8_t LIB_IOM_External_PilotType2CmdBufferSize(uint8_t pilotType);
 204:C:/Workspace/FW_Inertia/branch_indesit/PlatformLibrary/LIB_IOManager\ExternalOutputManager.c **** 
 205:C:/Workspace/FW_Inertia/branch_indesit/PlatformLibrary/LIB_IOManager\ExternalOutputManager.c **** 
 206:C:/Workspace/FW_Inertia/branch_indesit/PlatformLibrary/LIB_IOManager\ExternalOutputManager.c **** 
 207:C:/Workspace/FW_Inertia/branch_indesit/PlatformLibrary/LIB_IOManager\ExternalOutputManager.c **** /* *************** */
 208:C:/Workspace/FW_Inertia/branch_indesit/PlatformLibrary/LIB_IOManager\ExternalOutputManager.c **** /* Function Bodies */
 209:C:/Workspace/FW_Inertia/branch_indesit/PlatformLibrary/LIB_IOManager\ExternalOutputManager.c **** /* *************** */
 210:C:/Workspace/FW_Inertia/branch_indesit/PlatformLibrary/LIB_IOManager\ExternalOutputManager.c **** 
 211:C:/Workspace/FW_Inertia/branch_indesit/PlatformLibrary/LIB_IOManager\ExternalOutputManager.c **** /* Exported function */
 212:C:/Workspace/FW_Inertia/branch_indesit/PlatformLibrary/LIB_IOManager\ExternalOutputManager.c **** 
 213:C:/Workspace/FW_Inertia/branch_indesit/PlatformLibrary/LIB_IOManager\ExternalOutputManager.c **** 
 214:C:/Workspace/FW_Inertia/branch_indesit/PlatformLibrary/LIB_IOManager\ExternalOutputManager.c **** /**
 215:C:/Workspace/FW_Inertia/branch_indesit/PlatformLibrary/LIB_IOManager\ExternalOutputManager.c **** External outputs initialization.
 216:C:/Workspace/FW_Inertia/branch_indesit/PlatformLibrary/LIB_IOManager\ExternalOutputManager.c **** */
 217:C:/Workspace/FW_Inertia/branch_indesit/PlatformLibrary/LIB_IOManager\ExternalOutputManager.c **** void LIB_IOM_External_Init(void)
 218:C:/Workspace/FW_Inertia/branch_indesit/PlatformLibrary/LIB_IOManager\ExternalOutputManager.c **** {
  10                             		.loc 1 218 0
 219:C:/Workspace/FW_Inertia/branch_indesit/PlatformLibrary/LIB_IOManager\ExternalOutputManager.c **** 	memset(IOM_External_CommandBufferCntTable, 0, sizeof(IOM_External_CommandBufferCntTable));
  11                             		.loc 1 219 0
  12 0000 FB E2 00 00 00 00       		mov.L	#_IOM_External_CommandBufferCntTable, r14
  13 0006 F8 E4 00                		mov.B	#0, [r14]
  14 0009 02                      		rts
  15                             	.LFE0:
  17                             		.section	.text.LIB_IOM_External_New,"ax",@progbits
  18                             		.global	_LIB_IOM_External_New
  20                             	_LIB_IOM_External_New:
  21                             	.LFB1:
 220:C:/Workspace/FW_Inertia/branch_indesit/PlatformLibrary/LIB_IOManager\ExternalOutputManager.c **** }
 221:C:/Workspace/FW_Inertia/branch_indesit/PlatformLibrary/LIB_IOManager\ExternalOutputManager.c **** 
 222:C:/Workspace/FW_Inertia/branch_indesit/PlatformLibrary/LIB_IOManager\ExternalOutputManager.c **** /**
 223:C:/Workspace/FW_Inertia/branch_indesit/PlatformLibrary/LIB_IOManager\ExternalOutputManager.c **** \n Adds new external load to outputmanager
 224:C:/Workspace/FW_Inertia/branch_indesit/PlatformLibrary/LIB_IOManager\ExternalOutputManager.c **** 
 225:C:/Workspace/FW_Inertia/branch_indesit/PlatformLibrary/LIB_IOManager\ExternalOutputManager.c **** \param  [in] pInfoBuffer pointer to InfoBuffer allocated by Application layer.
 226:C:/Workspace/FW_Inertia/branch_indesit/PlatformLibrary/LIB_IOManager\ExternalOutputManager.c **** \param  [in] szInfoBuffer size in bytes of the InfoBuffer.
 227:C:/Workspace/FW_Inertia/branch_indesit/PlatformLibrary/LIB_IOManager\ExternalOutputManager.c **** \param  [in] loadPos Load's position inside Output Map
 228:C:/Workspace/FW_Inertia/branch_indesit/PlatformLibrary/LIB_IOManager\ExternalOutputManager.c **** 
 229:C:/Workspace/FW_Inertia/branch_indesit/PlatformLibrary/LIB_IOManager\ExternalOutputManager.c **** 
 230:C:/Workspace/FW_Inertia/branch_indesit/PlatformLibrary/LIB_IOManager\ExternalOutputManager.c **** \return 	LIB_IOM_ErrorType
 231:C:/Workspace/FW_Inertia/branch_indesit/PlatformLibrary/LIB_IOManager\ExternalOutputManager.c **** 
 232:C:/Workspace/FW_Inertia/branch_indesit/PlatformLibrary/LIB_IOManager\ExternalOutputManager.c **** \retval		LIB_IOM_NO_ERROR   	 no error
 233:C:/Workspace/FW_Inertia/branch_indesit/PlatformLibrary/LIB_IOManager\ExternalOutputManager.c **** \retval		LIB_IOM_EXTERNAL_SETINFOBUFFER_ERR (error, for detail use LIB_IOM_External_GetExternalOutM
 234:C:/Workspace/FW_Inertia/branch_indesit/PlatformLibrary/LIB_IOManager\ExternalOutputManager.c **** 
 235:C:/Workspace/FW_Inertia/branch_indesit/PlatformLibrary/LIB_IOManager\ExternalOutputManager.c **** \par Example
 236:C:/Workspace/FW_Inertia/branch_indesit/PlatformLibrary/LIB_IOManager\ExternalOutputManager.c **** Once defined info buffer and its size in bytes
 237:C:/Workspace/FW_Inertia/branch_indesit/PlatformLibrary/LIB_IOManager\ExternalOutputManager.c **** \code
 238:C:/Workspace/FW_Inertia/branch_indesit/PlatformLibrary/LIB_IOManager\ExternalOutputManager.c **** #define IOM_EXTERNAL_WP_INFOBUFFER_SIZE (32)
 239:C:/Workspace/FW_Inertia/branch_indesit/PlatformLibrary/LIB_IOManager\ExternalOutputManager.c **** 
 240:C:/Workspace/FW_Inertia/branch_indesit/PlatformLibrary/LIB_IOManager\ExternalOutputManager.c **** _DW_GLOBAL_ uint8_t Wash_Pump_InfoBuffer[IOM_EXTERNAL_WP_INFOBUFFER_SIZE];
 241:C:/Workspace/FW_Inertia/branch_indesit/PlatformLibrary/LIB_IOManager\ExternalOutputManager.c **** \endcode
 242:C:/Workspace/FW_Inertia/branch_indesit/PlatformLibrary/LIB_IOManager\ExternalOutputManager.c **** 
 243:C:/Workspace/FW_Inertia/branch_indesit/PlatformLibrary/LIB_IOManager\ExternalOutputManager.c **** application level adds the load by specyfing load ID in the putput table map
 244:C:/Workspace/FW_Inertia/branch_indesit/PlatformLibrary/LIB_IOManager\ExternalOutputManager.c **** \code
 245:C:/Workspace/FW_Inertia/branch_indesit/PlatformLibrary/LIB_IOManager\ExternalOutputManager.c **** LIB_IOM_External_New ( &Wash_Pump_InfoBuffer[0], (uint8_t)IOM_EXTERNAL_WP_INFOBUFFER_SIZE,  Pump_Po
 246:C:/Workspace/FW_Inertia/branch_indesit/PlatformLibrary/LIB_IOManager\ExternalOutputManager.c **** \endcode
 247:C:/Workspace/FW_Inertia/branch_indesit/PlatformLibrary/LIB_IOManager\ExternalOutputManager.c **** 
 248:C:/Workspace/FW_Inertia/branch_indesit/PlatformLibrary/LIB_IOManager\ExternalOutputManager.c **** \author		Roberto Fioravanti
 249:C:/Workspace/FW_Inertia/branch_indesit/PlatformLibrary/LIB_IOManager\ExternalOutputManager.c **** 
 250:C:/Workspace/FW_Inertia/branch_indesit/PlatformLibrary/LIB_IOManager\ExternalOutputManager.c **** \date			13/09/2010
 251:C:/Workspace/FW_Inertia/branch_indesit/PlatformLibrary/LIB_IOManager\ExternalOutputManager.c **** 
 252:C:/Workspace/FW_Inertia/branch_indesit/PlatformLibrary/LIB_IOManager\ExternalOutputManager.c **** \version    1.0.0
 253:C:/Workspace/FW_Inertia/branch_indesit/PlatformLibrary/LIB_IOManager\ExternalOutputManager.c **** 
 254:C:/Workspace/FW_Inertia/branch_indesit/PlatformLibrary/LIB_IOManager\ExternalOutputManager.c **** \note       \par \b Nota1:
 255:C:/Workspace/FW_Inertia/branch_indesit/PlatformLibrary/LIB_IOManager\ExternalOutputManager.c ****             documentation by Roberto Fioravanti
 256:C:/Workspace/FW_Inertia/branch_indesit/PlatformLibrary/LIB_IOManager\ExternalOutputManager.c **** 
 257:C:/Workspace/FW_Inertia/branch_indesit/PlatformLibrary/LIB_IOManager\ExternalOutputManager.c **** \attention you can add maximum IOM_NUM_OF_EXTERNAL_LOADS of external loads.
 258:C:/Workspace/FW_Inertia/branch_indesit/PlatformLibrary/LIB_IOManager\ExternalOutputManager.c **** */
 259:C:/Workspace/FW_Inertia/branch_indesit/PlatformLibrary/LIB_IOManager\ExternalOutputManager.c **** LIB_IOM_ErrorType LIB_IOM_External_New( uint8_t* pInfoBuffer, uint8_t szInfoBuffer,  uint8_t loadPo
 260:C:/Workspace/FW_Inertia/branch_indesit/PlatformLibrary/LIB_IOManager\ExternalOutputManager.c **** {
  22                             		.loc 1 260 0
  23                             	.LVL0:
  24 0000 6E 7C                   		pushm	r7-r12
  25                             	.LCFI0:
  26 0002 60 C0                   		sub	#12, r0
  27                             	.LCFI1:
 261:C:/Workspace/FW_Inertia/branch_indesit/PlatformLibrary/LIB_IOManager\ExternalOutputManager.c **** #if !defined(CONFIG_EXT_OUTMNG_EMULATE_SETTING)
 262:C:/Workspace/FW_Inertia/branch_indesit/PlatformLibrary/LIB_IOManager\ExternalOutputManager.c **** 	struct Loader pilotTypeParametersPtr={0,0};
  28                             		.loc 1 262 0
  29 0004 3E 00 00                		mov.L	#0, [r0]
  30 0007 3D 02 00                		mov.W	#0, 4[r0]
  31                             	.LVL1:
 263:C:/Workspace/FW_Inertia/branch_indesit/PlatformLibrary/LIB_IOManager\ExternalOutputManager.c **** #endif
 264:C:/Workspace/FW_Inertia/branch_indesit/PlatformLibrary/LIB_IOManager\ExternalOutputManager.c **** 	uint8_t	*pByte;
 265:C:/Workspace/FW_Inertia/branch_indesit/PlatformLibrary/LIB_IOManager\ExternalOutputManager.c **** 	uint8_t		loadIndex;
 266:C:/Workspace/FW_Inertia/branch_indesit/PlatformLibrary/LIB_IOManager\ExternalOutputManager.c **** 	uint8_t		szCmd;
 267:C:/Workspace/FW_Inertia/branch_indesit/PlatformLibrary/LIB_IOManager\ExternalOutputManager.c **** 	uint8_t		pilotType;
 268:C:/Workspace/FW_Inertia/branch_indesit/PlatformLibrary/LIB_IOManager\ExternalOutputManager.c **** 	uint8_t		uart=0;
 269:C:/Workspace/FW_Inertia/branch_indesit/PlatformLibrary/LIB_IOManager\ExternalOutputManager.c **** 	uint8_t		szCmdBuffer;
 270:C:/Workspace/FW_Inertia/branch_indesit/PlatformLibrary/LIB_IOManager\ExternalOutputManager.c **** 	
 271:C:/Workspace/FW_Inertia/branch_indesit/PlatformLibrary/LIB_IOManager\ExternalOutputManager.c **** 	if(ExternalBoardCounter >= IOM_NUM_OF_EXTERNAL_LOADS)
  32                             		.loc 1 271 0
  33 000a FB 72 00 00 00 00       		mov.L	#_ExternalBoardCounter, r7
  34 0010 58 77                   		movu.B	[r7], r7
  35 0012 61 17                   		cmp	#1, r7
  36 0014 25 07                   		bleu	.L3
 272:C:/Workspace/FW_Inertia/branch_indesit/PlatformLibrary/LIB_IOManager\ExternalOutputManager.c **** 	{
 273:C:/Workspace/FW_Inertia/branch_indesit/PlatformLibrary/LIB_IOManager\ExternalOutputManager.c **** 		PLT_ERROR_WARNING(PLT_ERROR_IOM_EXT_OUTMNG_MAX_NUM_EXTERNAL_LOADS_REACHED_ERR);
  37                             		.loc 1 273 0
  38 0016 66 A1                   		mov.L	#10, r1
  39                             	.LVL2:
  40 0018 38 8E 00                		bra	.L21
  41                             	.LVL3:
  42                             	.L3:
  43 001b EF 1B                   		mov.L	r1, r11
  44 001d CF 2A                   		mov.B	r2, r10
 274:C:/Workspace/FW_Inertia/branch_indesit/PlatformLibrary/LIB_IOManager\ExternalOutputManager.c **** 		return LIB_IOM_EXTERNAL_SETINFOBUFFER_ERR; /* Serious Error */
 275:C:/Workspace/FW_Inertia/branch_indesit/PlatformLibrary/LIB_IOManager\ExternalOutputManager.c **** 	}
 276:C:/Workspace/FW_Inertia/branch_indesit/PlatformLibrary/LIB_IOManager\ExternalOutputManager.c **** 
 277:C:/Workspace/FW_Inertia/branch_indesit/PlatformLibrary/LIB_IOManager\ExternalOutputManager.c **** #if defined(CONFIG_EXT_OUTMNG_EMULATE_SETTING_PILOT_TYPE)
 278:C:/Workspace/FW_Inertia/branch_indesit/PlatformLibrary/LIB_IOManager\ExternalOutputManager.c **** 	pilotType = CONFIG_EXT_OUTMNG_EMULATE_SETTING_PILOT_TYPE_ID;
 279:C:/Workspace/FW_Inertia/branch_indesit/PlatformLibrary/LIB_IOManager\ExternalOutputManager.c **** #else
 280:C:/Workspace/FW_Inertia/branch_indesit/PlatformLibrary/LIB_IOManager\ExternalOutputManager.c **** 
 281:C:/Workspace/FW_Inertia/branch_indesit/PlatformLibrary/LIB_IOManager\ExternalOutputManager.c **** 	loadIndex = LIB_IOM_FindLoad(loadPos, &pByte);
  45                             		.loc 1 281 0
  46 001f CF 31                   		mov.B	r3, r1
  47                             	.LVL4:
  48 0021 71 02 08                		add	#8, r0, r2
  49                             	.LVL5:
  50 0024 05 00 00 00             		bsr	_LIB_IOM_FindLoad
  51                             	.LVL6:
 282:C:/Workspace/FW_Inertia/branch_indesit/PlatformLibrary/LIB_IOManager\ExternalOutputManager.c **** 	
 283:C:/Workspace/FW_Inertia/branch_indesit/PlatformLibrary/LIB_IOManager\ExternalOutputManager.c **** 	/* warning: pByte is modified by FinLoad and now point to the start addr. of load's descr.*/
 284:C:/Workspace/FW_Inertia/branch_indesit/PlatformLibrary/LIB_IOManager\ExternalOutputManager.c **** 	if ( loadIndex == LOAD_NOT_FOUND )
  52                             		.loc 1 284 0
  53 0028 5B 11                   		movu.B	r1, r1
  54 002a 75 51 FF                		cmp	#0xff, r1
  55 002d 3A BC 00                		beq	.L14
  56                             	.LVL7:
 285:C:/Workspace/FW_Inertia/branch_indesit/PlatformLibrary/LIB_IOManager\ExternalOutputManager.c **** 	{
 286:C:/Workspace/FW_Inertia/branch_indesit/PlatformLibrary/LIB_IOManager\ExternalOutputManager.c **** 	    return LIB_IOM_EXTERNAL_SETINFOBUFFER_ERR;
 287:C:/Workspace/FW_Inertia/branch_indesit/PlatformLibrary/LIB_IOManager\ExternalOutputManager.c **** 	}
 288:C:/Workspace/FW_Inertia/branch_indesit/PlatformLibrary/LIB_IOManager\ExternalOutputManager.c **** 	
 289:C:/Workspace/FW_Inertia/branch_indesit/PlatformLibrary/LIB_IOManager\ExternalOutputManager.c **** 	pilotType = LIB_IOM_GetPilotType(PILOT_TYPE_FIELD(pByte));
  57                             		.loc 1 289 0
  58 0030 A8 87                   		mov.L	8[r0], r7
  59 0032 88 F1                   		mov.B	2[r7], r1
  60                             	.LVL8:
  61 0034 05 00 00 00             		bsr	_LIB_IOM_GetPilotType
  62                             	.LVL9:
  63 0038 CF 17                   		mov.B	r1, r7
  64                             	.LVL10:
 290:C:/Workspace/FW_Inertia/branch_indesit/PlatformLibrary/LIB_IOManager\ExternalOutputManager.c **** #endif
 291:C:/Workspace/FW_Inertia/branch_indesit/PlatformLibrary/LIB_IOManager\ExternalOutputManager.c **** 
 292:C:/Workspace/FW_Inertia/branch_indesit/PlatformLibrary/LIB_IOManager\ExternalOutputManager.c **** #if !defined(CONFIG_EXT_OUTMNG_EMULATE_SETTING)
 293:C:/Workspace/FW_Inertia/branch_indesit/PlatformLibrary/LIB_IOManager\ExternalOutputManager.c **** 	/* get pointer to pylot type parameters */
 294:C:/Workspace/FW_Inertia/branch_indesit/PlatformLibrary/LIB_IOManager\ExternalOutputManager.c **** 	if (0xFF != PILOT_TYPE_PARAMS_OFFSET(pByte))
  65                             		.loc 1 294 0
  66 003a ED 0C 02                		mov.L	8[r0], r12
  67 003d 59 C2 04                		movu.B	4[r12], r2
  68 0040 75 52 FF                		cmp	#0xff, r2
  69 0043 20 14                   		beq	.L5
 295:C:/Workspace/FW_Inertia/branch_indesit/PlatformLibrary/LIB_IOManager\ExternalOutputManager.c ****     {
 296:C:/Workspace/FW_Inertia/branch_indesit/PlatformLibrary/LIB_IOManager\ExternalOutputManager.c ****         /* Pilot Parameters Available */
 297:C:/Workspace/FW_Inertia/branch_indesit/PlatformLibrary/LIB_IOManager\ExternalOutputManager.c ****         if ( 0 != BasicLoader( SF_PTR_IO_DEVICE,PILOT_TYPE_PARAMS_OFFSET(pByte), &pilotTypeParamete
  70                             		.loc 1 297 0
  71 0045 75 41 21                		mov	#33, r1
  72                             	.LVL11:
  73 0048 EF 03                   		mov.L	r0, r3
  74 004a 05 00 00 00             		bsr	_BasicLoader
  75                             	.LVL12:
  76 004e 76 21 FF 00             		and #0xff, r1
  77 0052 11                      		beq	.L6
 298:C:/Workspace/FW_Inertia/branch_indesit/PlatformLibrary/LIB_IOManager\ExternalOutputManager.c ****         {
 299:C:/Workspace/FW_Inertia/branch_indesit/PlatformLibrary/LIB_IOManager\ExternalOutputManager.c ****             PLT_ERROR_WARNING(PLT_ERROR_IOM_EXT_OUTMNG_OUTPUT_PARAM_NOT_FOUND_ERR);
  78                             		.loc 1 299 0
  79 0053 66 C1                   		mov.L	#12, r1
  80 0055 2E 51                   		bra	.L21
  81                             	.LVL13:
  82                             	.L5:
 300:C:/Workspace/FW_Inertia/branch_indesit/PlatformLibrary/LIB_IOManager\ExternalOutputManager.c ****             return LIB_IOM_EXTERNAL_SETINFOBUFFER_ERR;  /* Serious Error */            
 301:C:/Workspace/FW_Inertia/branch_indesit/PlatformLibrary/LIB_IOManager\ExternalOutputManager.c ****         }
 302:C:/Workspace/FW_Inertia/branch_indesit/PlatformLibrary/LIB_IOManager\ExternalOutputManager.c ****     }
 303:C:/Workspace/FW_Inertia/branch_indesit/PlatformLibrary/LIB_IOManager\ExternalOutputManager.c **** 	else
 304:C:/Workspace/FW_Inertia/branch_indesit/PlatformLibrary/LIB_IOManager\ExternalOutputManager.c **** 	{
 305:C:/Workspace/FW_Inertia/branch_indesit/PlatformLibrary/LIB_IOManager\ExternalOutputManager.c **** 		PLT_ERROR_WARNING(PLT_ERROR_IOM_EXT_OUTMNG_INVALID_PILOTTYPE_OFFSET_ERR);
  83                             		.loc 1 305 0
  84 0057 66 D1                   		mov.L	#13, r1
  85                             	.LVL14:
  86 0059 2E 4D                   		bra	.L21
  87                             	.L6:
 306:C:/Workspace/FW_Inertia/branch_indesit/PlatformLibrary/LIB_IOManager\ExternalOutputManager.c ****         return LIB_IOM_EXTERNAL_SETINFOBUFFER_ERR;  /* Serious Error */
 307:C:/Workspace/FW_Inertia/branch_indesit/PlatformLibrary/LIB_IOManager\ExternalOutputManager.c **** 	}
 308:C:/Workspace/FW_Inertia/branch_indesit/PlatformLibrary/LIB_IOManager\ExternalOutputManager.c **** 	
 309:C:/Workspace/FW_Inertia/branch_indesit/PlatformLibrary/LIB_IOManager\ExternalOutputManager.c **** 	if(!pilotTypeParametersPtr.DataLenght || (pilotTypeParametersPtr.Data==NULL))
  88                             		.loc 1 309 0
  89 005b 5D 0C 02                		movu.W	4[r0], r12
  90 005e 61 0C                   		cmp	#0, r12
  91 0060 16                      		beq	.L7
  92                             		.loc 1 309 0 is_stmt 0 discriminator 1
  93 0061 EC 0C                   		mov.L	[r0], r12
  94 0063 61 0C                   		cmp	#0, r12
  95 0065 1D                      		bne	.L8
  96                             		.balign 2,3,1
  97                             	.L7:
 310:C:/Workspace/FW_Inertia/branch_indesit/PlatformLibrary/LIB_IOManager\ExternalOutputManager.c **** 	{
 311:C:/Workspace/FW_Inertia/branch_indesit/PlatformLibrary/LIB_IOManager\ExternalOutputManager.c **** 		PLT_ERROR_WARNING(PLT_ERROR_IOM_EXT_OUTMNG_INVALID_PILOTTYPE_PARAMS_ERR);
  98                             		.loc 1 311 0 is_stmt 1
  99 0066 66 E1                   		mov.L	#14, r1
 100 0068 2E 3E                   		bra	.L21
 101                             	.L8:
 102                             	.LVL15:
 312:C:/Workspace/FW_Inertia/branch_indesit/PlatformLibrary/LIB_IOManager\ExternalOutputManager.c ****         return LIB_IOM_EXTERNAL_SETINFOBUFFER_ERR;  /* Serious Error */
 313:C:/Workspace/FW_Inertia/branch_indesit/PlatformLibrary/LIB_IOManager\ExternalOutputManager.c **** 	}
 314:C:/Workspace/FW_Inertia/branch_indesit/PlatformLibrary/LIB_IOManager\ExternalOutputManager.c **** 	
 315:C:/Workspace/FW_Inertia/branch_indesit/PlatformLibrary/LIB_IOManager\ExternalOutputManager.c **** 	uart = (uint8_t)(EXTERNAL_PARAMS_UART(pilotTypeParametersPtr.Data)) - (uint8_t)EXTERNAL_BOARD_MIN;
 103                             		.loc 1 315 0
 104 006a 58 CC                   		movu.B	[r12], r12
 105                             	.LVL16:
 316:C:/Workspace/FW_Inertia/branch_indesit/PlatformLibrary/LIB_IOManager\ExternalOutputManager.c **** #endif
 317:C:/Workspace/FW_Inertia/branch_indesit/PlatformLibrary/LIB_IOManager\ExternalOutputManager.c **** 	
 318:C:/Workspace/FW_Inertia/branch_indesit/PlatformLibrary/LIB_IOManager\ExternalOutputManager.c **** 	if(uart >= EXTERNAL_NUM)
 106                             		.loc 1 318 0
 107 006c 68 6C                   		shlr	#6, r12
 108 006e 15                      		beq	.L9
 319:C:/Workspace/FW_Inertia/branch_indesit/PlatformLibrary/LIB_IOManager\ExternalOutputManager.c **** 	{
 320:C:/Workspace/FW_Inertia/branch_indesit/PlatformLibrary/LIB_IOManager\ExternalOutputManager.c **** 		PLT_ERROR_WARNING(PLT_ERROR_IOM_EXT_OUTMNG_MAX_CHANNEL_NUM_REACHED_ERR);
 109                             		.loc 1 320 0
 110 006f 66 F1                   		mov.L	#15, r1
 111 0071 2E 35                   		bra	.L21
 112                             	.L9:
 113                             	.LVL17:
 114                             	.LBB4:
 115                             	.LBB5:
 321:C:/Workspace/FW_Inertia/branch_indesit/PlatformLibrary/LIB_IOManager\ExternalOutputManager.c ****         return LIB_IOM_EXTERNAL_SETINFOBUFFER_ERR;  /* Serious Error */
 322:C:/Workspace/FW_Inertia/branch_indesit/PlatformLibrary/LIB_IOManager\ExternalOutputManager.c **** 	}
 323:C:/Workspace/FW_Inertia/branch_indesit/PlatformLibrary/LIB_IOManager\ExternalOutputManager.c **** 	
 324:C:/Workspace/FW_Inertia/branch_indesit/PlatformLibrary/LIB_IOManager\ExternalOutputManager.c **** 	szCmd=LIB_IOM_External_PilotType2CmdBufferSize(pilotType);
 325:C:/Workspace/FW_Inertia/branch_indesit/PlatformLibrary/LIB_IOManager\ExternalOutputManager.c **** 	
 326:C:/Workspace/FW_Inertia/branch_indesit/PlatformLibrary/LIB_IOManager\ExternalOutputManager.c **** 	szCmdBuffer=IOM_External_CommandBufferCntTable[uart];
 327:C:/Workspace/FW_Inertia/branch_indesit/PlatformLibrary/LIB_IOManager\ExternalOutputManager.c **** 	if(!szCmdBuffer)
 328:C:/Workspace/FW_Inertia/branch_indesit/PlatformLibrary/LIB_IOManager\ExternalOutputManager.c **** 	{
 329:C:/Workspace/FW_Inertia/branch_indesit/PlatformLibrary/LIB_IOManager\ExternalOutputManager.c **** 		szCmdBuffer++; /*byte reserved for Seq ID */
 330:C:/Workspace/FW_Inertia/branch_indesit/PlatformLibrary/LIB_IOManager\ExternalOutputManager.c **** 	}
 331:C:/Workspace/FW_Inertia/branch_indesit/PlatformLibrary/LIB_IOManager\ExternalOutputManager.c **** 	
 332:C:/Workspace/FW_Inertia/branch_indesit/PlatformLibrary/LIB_IOManager\ExternalOutputManager.c **** 	if((szCmdBuffer + szCmd + EXTERNAL_COMMAND_BUFFER_HDR_SZ) > IOM_External_CommandBufferTable[uart].
 333:C:/Workspace/FW_Inertia/branch_indesit/PlatformLibrary/LIB_IOManager\ExternalOutputManager.c **** 	{
 334:C:/Workspace/FW_Inertia/branch_indesit/PlatformLibrary/LIB_IOManager\ExternalOutputManager.c **** 		PLT_ERROR_WARNING(PLT_ERROR_IOM_EXT_OUTMNG_TOOMANY_BYTES_CMDBUFFER_ERR);
 335:C:/Workspace/FW_Inertia/branch_indesit/PlatformLibrary/LIB_IOManager\ExternalOutputManager.c ****         return LIB_IOM_EXTERNAL_SETINFOBUFFER_ERR;  /* Serious Error */
 336:C:/Workspace/FW_Inertia/branch_indesit/PlatformLibrary/LIB_IOManager\ExternalOutputManager.c **** 	}
 337:C:/Workspace/FW_Inertia/branch_indesit/PlatformLibrary/LIB_IOManager\ExternalOutputManager.c **** 	
 338:C:/Workspace/FW_Inertia/branch_indesit/PlatformLibrary/LIB_IOManager\ExternalOutputManager.c **** 	
 339:C:/Workspace/FW_Inertia/branch_indesit/PlatformLibrary/LIB_IOManager\ExternalOutputManager.c **** 	IOM_External_LoadsTable[ExternalBoardCounter].pPilotTypeInfo	= pInfoBuffer;
 340:C:/Workspace/FW_Inertia/branch_indesit/PlatformLibrary/LIB_IOManager\ExternalOutputManager.c **** 	IOM_External_LoadsTable[ExternalBoardCounter].szPilotTypeInfo = szInfoBuffer;
 341:C:/Workspace/FW_Inertia/branch_indesit/PlatformLibrary/LIB_IOManager\ExternalOutputManager.c **** 	IOM_External_LoadsTable[ExternalBoardCounter].PilotType = pilotType;
 342:C:/Workspace/FW_Inertia/branch_indesit/PlatformLibrary/LIB_IOManager\ExternalOutputManager.c **** 	IOM_External_LoadsTable[ExternalBoardCounter].CmdOffset = szCmdBuffer;
 343:C:/Workspace/FW_Inertia/branch_indesit/PlatformLibrary/LIB_IOManager\ExternalOutputManager.c **** 	IOM_External_LoadsTable[ExternalBoardCounter].szCmd = szCmd;
 344:C:/Workspace/FW_Inertia/branch_indesit/PlatformLibrary/LIB_IOManager\ExternalOutputManager.c **** #if !defined(CONFIG_EXT_OUTMNG_EMULATE_SETTING)
 345:C:/Workspace/FW_Inertia/branch_indesit/PlatformLibrary/LIB_IOManager\ExternalOutputManager.c **** 	IOM_External_LoadsTable[ExternalBoardCounter].Displacement = EXTERNAL_PARAMS_DISPL(pilotTypeParame
 346:C:/Workspace/FW_Inertia/branch_indesit/PlatformLibrary/LIB_IOManager\ExternalOutputManager.c **** #else
 347:C:/Workspace/FW_Inertia/branch_indesit/PlatformLibrary/LIB_IOManager\ExternalOutputManager.c **** 	IOM_External_LoadsTable[ExternalBoardCounter].Displacement = ExternalBoardCounter;
 348:C:/Workspace/FW_Inertia/branch_indesit/PlatformLibrary/LIB_IOManager\ExternalOutputManager.c **** #endif
 349:C:/Workspace/FW_Inertia/branch_indesit/PlatformLibrary/LIB_IOManager\ExternalOutputManager.c **** 	IOM_External_LoadsTable[ExternalBoardCounter].CommCh = uart;
 350:C:/Workspace/FW_Inertia/branch_indesit/PlatformLibrary/LIB_IOManager\ExternalOutputManager.c **** 
 351:C:/Workspace/FW_Inertia/branch_indesit/PlatformLibrary/LIB_IOManager\ExternalOutputManager.c **** 	szCmdBuffer += (szCmd+EXTERNAL_COMMAND_BUFFER_HDR_SZ);
 352:C:/Workspace/FW_Inertia/branch_indesit/PlatformLibrary/LIB_IOManager\ExternalOutputManager.c **** 	IOM_External_CommandBufferCntTable[uart] = szCmdBuffer;
 353:C:/Workspace/FW_Inertia/branch_indesit/PlatformLibrary/LIB_IOManager\ExternalOutputManager.c **** 	
 354:C:/Workspace/FW_Inertia/branch_indesit/PlatformLibrary/LIB_IOManager\ExternalOutputManager.c **** 	ExternalBoardCounter++;
 355:C:/Workspace/FW_Inertia/branch_indesit/PlatformLibrary/LIB_IOManager\ExternalOutputManager.c **** 
 356:C:/Workspace/FW_Inertia/branch_indesit/PlatformLibrary/LIB_IOManager\ExternalOutputManager.c **** 	return LIB_IOM_NO_ERROR;
 357:C:/Workspace/FW_Inertia/branch_indesit/PlatformLibrary/LIB_IOManager\ExternalOutputManager.c **** }
 358:C:/Workspace/FW_Inertia/branch_indesit/PlatformLibrary/LIB_IOManager\ExternalOutputManager.c **** 
 359:C:/Workspace/FW_Inertia/branch_indesit/PlatformLibrary/LIB_IOManager\ExternalOutputManager.c **** 
 360:C:/Workspace/FW_Inertia/branch_indesit/PlatformLibrary/LIB_IOManager\ExternalOutputManager.c **** 
 361:C:/Workspace/FW_Inertia/branch_indesit/PlatformLibrary/LIB_IOManager\ExternalOutputManager.c **** 
 362:C:/Workspace/FW_Inertia/branch_indesit/PlatformLibrary/LIB_IOManager\ExternalOutputManager.c **** 
 363:C:/Workspace/FW_Inertia/branch_indesit/PlatformLibrary/LIB_IOManager\ExternalOutputManager.c **** 
 364:C:/Workspace/FW_Inertia/branch_indesit/PlatformLibrary/LIB_IOManager\ExternalOutputManager.c **** 
 365:C:/Workspace/FW_Inertia/branch_indesit/PlatformLibrary/LIB_IOManager\ExternalOutputManager.c **** /**
 366:C:/Workspace/FW_Inertia/branch_indesit/PlatformLibrary/LIB_IOManager\ExternalOutputManager.c **** \n Writes the CommandBuffer with the command value relating to the specified PilotType.
 367:C:/Workspace/FW_Inertia/branch_indesit/PlatformLibrary/LIB_IOManager\ExternalOutputManager.c **** 
 368:C:/Workspace/FW_Inertia/branch_indesit/PlatformLibrary/LIB_IOManager\ExternalOutputManager.c **** \param  [in] pilotType PilotType of the load
 369:C:/Workspace/FW_Inertia/branch_indesit/PlatformLibrary/LIB_IOManager\ExternalOutputManager.c **** \param  [in] pLoad pointer to GIOM_LoadStruct atructure containing the command
 370:C:/Workspace/FW_Inertia/branch_indesit/PlatformLibrary/LIB_IOManager\ExternalOutputManager.c **** 
 371:C:/Workspace/FW_Inertia/branch_indesit/PlatformLibrary/LIB_IOManager\ExternalOutputManager.c **** 
 372:C:/Workspace/FW_Inertia/branch_indesit/PlatformLibrary/LIB_IOManager\ExternalOutputManager.c **** \return 	LIB_IOM_ErrorType
 373:C:/Workspace/FW_Inertia/branch_indesit/PlatformLibrary/LIB_IOManager\ExternalOutputManager.c **** 
 374:C:/Workspace/FW_Inertia/branch_indesit/PlatformLibrary/LIB_IOManager\ExternalOutputManager.c **** \retval		LIB_IOM_NO_ERROR   	 no error
 375:C:/Workspace/FW_Inertia/branch_indesit/PlatformLibrary/LIB_IOManager\ExternalOutputManager.c **** \retval		LIB_IOM_EXTERNAL_SETINFOBUFFER_ERR (error, for detail use LIB_IOM_External_GetExternalOutM
 376:C:/Workspace/FW_Inertia/branch_indesit/PlatformLibrary/LIB_IOManager\ExternalOutputManager.c **** 
 377:C:/Workspace/FW_Inertia/branch_indesit/PlatformLibrary/LIB_IOManager\ExternalOutputManager.c **** \author		Roberto Fioravanti
 378:C:/Workspace/FW_Inertia/branch_indesit/PlatformLibrary/LIB_IOManager\ExternalOutputManager.c **** 
 379:C:/Workspace/FW_Inertia/branch_indesit/PlatformLibrary/LIB_IOManager\ExternalOutputManager.c **** \date			13/09/2010
 380:C:/Workspace/FW_Inertia/branch_indesit/PlatformLibrary/LIB_IOManager\ExternalOutputManager.c **** 
 381:C:/Workspace/FW_Inertia/branch_indesit/PlatformLibrary/LIB_IOManager\ExternalOutputManager.c **** \version    1.0.0
 382:C:/Workspace/FW_Inertia/branch_indesit/PlatformLibrary/LIB_IOManager\ExternalOutputManager.c **** 
 383:C:/Workspace/FW_Inertia/branch_indesit/PlatformLibrary/LIB_IOManager\ExternalOutputManager.c **** \note       \par \b Nota1:
 384:C:/Workspace/FW_Inertia/branch_indesit/PlatformLibrary/LIB_IOManager\ExternalOutputManager.c ****             documentation by Roberto Fioravanti 
 385:C:/Workspace/FW_Inertia/branch_indesit/PlatformLibrary/LIB_IOManager\ExternalOutputManager.c **** */
 386:C:/Workspace/FW_Inertia/branch_indesit/PlatformLibrary/LIB_IOManager\ExternalOutputManager.c **** LIB_IOM_ErrorType LIB_IOM_External_SetCommand(uint8_t pilotType, const GIOM_LoadStruct *const pLoad
 387:C:/Workspace/FW_Inertia/branch_indesit/PlatformLibrary/LIB_IOManager\ExternalOutputManager.c **** {
 388:C:/Workspace/FW_Inertia/branch_indesit/PlatformLibrary/LIB_IOManager\ExternalOutputManager.c **** 	uint8_t i=0;
 389:C:/Workspace/FW_Inertia/branch_indesit/PlatformLibrary/LIB_IOManager\ExternalOutputManager.c **** 	uint8_t uart;
 390:C:/Workspace/FW_Inertia/branch_indesit/PlatformLibrary/LIB_IOManager\ExternalOutputManager.c **** 	uint8_t	offset;
 391:C:/Workspace/FW_Inertia/branch_indesit/PlatformLibrary/LIB_IOManager\ExternalOutputManager.c **** 	uint8_t* pCmd;
 392:C:/Workspace/FW_Inertia/branch_indesit/PlatformLibrary/LIB_IOManager\ExternalOutputManager.c **** 	
 393:C:/Workspace/FW_Inertia/branch_indesit/PlatformLibrary/LIB_IOManager\ExternalOutputManager.c **** 	while((i<IOM_NUM_OF_EXTERNAL_LOADS))
 394:C:/Workspace/FW_Inertia/branch_indesit/PlatformLibrary/LIB_IOManager\ExternalOutputManager.c **** 	{
 395:C:/Workspace/FW_Inertia/branch_indesit/PlatformLibrary/LIB_IOManager\ExternalOutputManager.c **** 		if(pilotType ==  IOM_External_LoadsTable[i].PilotType)
 396:C:/Workspace/FW_Inertia/branch_indesit/PlatformLibrary/LIB_IOManager\ExternalOutputManager.c **** 		{
 397:C:/Workspace/FW_Inertia/branch_indesit/PlatformLibrary/LIB_IOManager\ExternalOutputManager.c **** 			break;
 398:C:/Workspace/FW_Inertia/branch_indesit/PlatformLibrary/LIB_IOManager\ExternalOutputManager.c **** 		}
 399:C:/Workspace/FW_Inertia/branch_indesit/PlatformLibrary/LIB_IOManager\ExternalOutputManager.c **** 		i++;
 400:C:/Workspace/FW_Inertia/branch_indesit/PlatformLibrary/LIB_IOManager\ExternalOutputManager.c **** 	}
 401:C:/Workspace/FW_Inertia/branch_indesit/PlatformLibrary/LIB_IOManager\ExternalOutputManager.c **** 	
 402:C:/Workspace/FW_Inertia/branch_indesit/PlatformLibrary/LIB_IOManager\ExternalOutputManager.c **** 	if(i>=IOM_NUM_OF_EXTERNAL_LOADS)
 403:C:/Workspace/FW_Inertia/branch_indesit/PlatformLibrary/LIB_IOManager\ExternalOutputManager.c **** 	{
 404:C:/Workspace/FW_Inertia/branch_indesit/PlatformLibrary/LIB_IOManager\ExternalOutputManager.c **** 		PLT_ERROR_WARNING(PLT_ERROR_IOM_EXT_OUTMNG_MAX_NUM_EXTERNAL_LOADS_REACHED_ERR);
 405:C:/Workspace/FW_Inertia/branch_indesit/PlatformLibrary/LIB_IOManager\ExternalOutputManager.c ****     	return LIB_IOM_EXTERNAL_SETCOMMAND_ERR;  /* Serious Error */
 406:C:/Workspace/FW_Inertia/branch_indesit/PlatformLibrary/LIB_IOManager\ExternalOutputManager.c **** 	}
 407:C:/Workspace/FW_Inertia/branch_indesit/PlatformLibrary/LIB_IOManager\ExternalOutputManager.c **** 	
 408:C:/Workspace/FW_Inertia/branch_indesit/PlatformLibrary/LIB_IOManager\ExternalOutputManager.c **** 	uart = IOM_External_LoadsTable[i].CommCh;
 409:C:/Workspace/FW_Inertia/branch_indesit/PlatformLibrary/LIB_IOManager\ExternalOutputManager.c **** 	offset = IOM_External_LoadsTable[i].CmdOffset;
 410:C:/Workspace/FW_Inertia/branch_indesit/PlatformLibrary/LIB_IOManager\ExternalOutputManager.c **** 	pCmd = IOM_External_CommandBufferTable[uart].pCmdBuffer + offset;
 411:C:/Workspace/FW_Inertia/branch_indesit/PlatformLibrary/LIB_IOManager\ExternalOutputManager.c **** 	UseExternalBoard();
 412:C:/Workspace/FW_Inertia/branch_indesit/PlatformLibrary/LIB_IOManager\ExternalOutputManager.c **** 	*pCmd = pilotType;
 413:C:/Workspace/FW_Inertia/branch_indesit/PlatformLibrary/LIB_IOManager\ExternalOutputManager.c **** 	*(pCmd+1) = IOM_External_LoadsTable[i].Displacement;	
 414:C:/Workspace/FW_Inertia/branch_indesit/PlatformLibrary/LIB_IOManager\ExternalOutputManager.c **** 	memcpy((pCmd+2), &pLoad->data[0], IOM_External_LoadsTable[i].szCmd);
 415:C:/Workspace/FW_Inertia/branch_indesit/PlatformLibrary/LIB_IOManager\ExternalOutputManager.c **** 	UnuseExternalBoard();
 416:C:/Workspace/FW_Inertia/branch_indesit/PlatformLibrary/LIB_IOManager\ExternalOutputManager.c **** 	
 417:C:/Workspace/FW_Inertia/branch_indesit/PlatformLibrary/LIB_IOManager\ExternalOutputManager.c **** 	return LIB_IOM_NO_ERROR;
 418:C:/Workspace/FW_Inertia/branch_indesit/PlatformLibrary/LIB_IOManager\ExternalOutputManager.c **** }
 419:C:/Workspace/FW_Inertia/branch_indesit/PlatformLibrary/LIB_IOManager\ExternalOutputManager.c **** 
 420:C:/Workspace/FW_Inertia/branch_indesit/PlatformLibrary/LIB_IOManager\ExternalOutputManager.c **** 
 421:C:/Workspace/FW_Inertia/branch_indesit/PlatformLibrary/LIB_IOManager\ExternalOutputManager.c **** /**
 422:C:/Workspace/FW_Inertia/branch_indesit/PlatformLibrary/LIB_IOManager\ExternalOutputManager.c **** \n Sets a ram read request to command buffer
 423:C:/Workspace/FW_Inertia/branch_indesit/PlatformLibrary/LIB_IOManager\ExternalOutputManager.c **** 
 424:C:/Workspace/FW_Inertia/branch_indesit/PlatformLibrary/LIB_IOManager\ExternalOutputManager.c **** \param  [in] pDataRamReq pointer to read ram request parameters.
 425:C:/Workspace/FW_Inertia/branch_indesit/PlatformLibrary/LIB_IOManager\ExternalOutputManager.c **** \param  [in] len size in bytes of the parameters
 426:C:/Workspace/FW_Inertia/branch_indesit/PlatformLibrary/LIB_IOManager\ExternalOutputManager.c **** 
 427:C:/Workspace/FW_Inertia/branch_indesit/PlatformLibrary/LIB_IOManager\ExternalOutputManager.c **** \return 	LIB_IOM_ErrorType
 428:C:/Workspace/FW_Inertia/branch_indesit/PlatformLibrary/LIB_IOManager\ExternalOutputManager.c **** 
 429:C:/Workspace/FW_Inertia/branch_indesit/PlatformLibrary/LIB_IOManager\ExternalOutputManager.c **** \retval		LIB_IOM_NO_ERROR   	 no error
 430:C:/Workspace/FW_Inertia/branch_indesit/PlatformLibrary/LIB_IOManager\ExternalOutputManager.c **** \retval		LIB_IOM_EXTERNAL_SETREADRAMREQ_ERR (error, for detail use LIB_IOM_External_GetExternalOutM
 431:C:/Workspace/FW_Inertia/branch_indesit/PlatformLibrary/LIB_IOManager\ExternalOutputManager.c **** 
 432:C:/Workspace/FW_Inertia/branch_indesit/PlatformLibrary/LIB_IOManager\ExternalOutputManager.c **** \author		Roberto Fioravanti
 433:C:/Workspace/FW_Inertia/branch_indesit/PlatformLibrary/LIB_IOManager\ExternalOutputManager.c **** 
 434:C:/Workspace/FW_Inertia/branch_indesit/PlatformLibrary/LIB_IOManager\ExternalOutputManager.c **** \date			13/09/2010
 435:C:/Workspace/FW_Inertia/branch_indesit/PlatformLibrary/LIB_IOManager\ExternalOutputManager.c **** 
 436:C:/Workspace/FW_Inertia/branch_indesit/PlatformLibrary/LIB_IOManager\ExternalOutputManager.c **** \version    1.0.0
 437:C:/Workspace/FW_Inertia/branch_indesit/PlatformLibrary/LIB_IOManager\ExternalOutputManager.c **** 
 438:C:/Workspace/FW_Inertia/branch_indesit/PlatformLibrary/LIB_IOManager\ExternalOutputManager.c **** \note       \par \b Nota1:
 439:C:/Workspace/FW_Inertia/branch_indesit/PlatformLibrary/LIB_IOManager\ExternalOutputManager.c ****             documentation by Roberto Fioravanti
 440:C:/Workspace/FW_Inertia/branch_indesit/PlatformLibrary/LIB_IOManager\ExternalOutputManager.c **** */
 441:C:/Workspace/FW_Inertia/branch_indesit/PlatformLibrary/LIB_IOManager\ExternalOutputManager.c **** LIB_IOM_ErrorType LIB_IOM_External_SetReadRamRequest(uint8_t * pDataRamReq, uint8_t len)
 442:C:/Workspace/FW_Inertia/branch_indesit/PlatformLibrary/LIB_IOManager\ExternalOutputManager.c **** {
 443:C:/Workspace/FW_Inertia/branch_indesit/PlatformLibrary/LIB_IOManager\ExternalOutputManager.c **** 	uint8_t uart = 0;
 444:C:/Workspace/FW_Inertia/branch_indesit/PlatformLibrary/LIB_IOManager\ExternalOutputManager.c **** 	uint8_t* pCmd;
 445:C:/Workspace/FW_Inertia/branch_indesit/PlatformLibrary/LIB_IOManager\ExternalOutputManager.c **** 	
 446:C:/Workspace/FW_Inertia/branch_indesit/PlatformLibrary/LIB_IOManager\ExternalOutputManager.c **** 	if(len < 5)
 447:C:/Workspace/FW_Inertia/branch_indesit/PlatformLibrary/LIB_IOManager\ExternalOutputManager.c **** 	{
 448:C:/Workspace/FW_Inertia/branch_indesit/PlatformLibrary/LIB_IOManager\ExternalOutputManager.c **** 		PLT_ERROR_WARNING(PLT_ERROR_IOM_EXT_OUTMNG_MISSINGDATA_SETREADRAM_ERR);
 449:C:/Workspace/FW_Inertia/branch_indesit/PlatformLibrary/LIB_IOManager\ExternalOutputManager.c ****         return LIB_IOM_EXTERNAL_SETREADRAMREQ_ERR;  /* Serious Error */
 450:C:/Workspace/FW_Inertia/branch_indesit/PlatformLibrary/LIB_IOManager\ExternalOutputManager.c **** 	}
 451:C:/Workspace/FW_Inertia/branch_indesit/PlatformLibrary/LIB_IOManager\ExternalOutputManager.c **** 	
 452:C:/Workspace/FW_Inertia/branch_indesit/PlatformLibrary/LIB_IOManager\ExternalOutputManager.c **** 	uart = (uint8_t)(*(pDataRamReq+4) & 0x0F);
 453:C:/Workspace/FW_Inertia/branch_indesit/PlatformLibrary/LIB_IOManager\ExternalOutputManager.c **** 	
 454:C:/Workspace/FW_Inertia/branch_indesit/PlatformLibrary/LIB_IOManager\ExternalOutputManager.c **** 	if(uart >= EXTERNAL_NUM)
 455:C:/Workspace/FW_Inertia/branch_indesit/PlatformLibrary/LIB_IOManager\ExternalOutputManager.c **** 	{
 456:C:/Workspace/FW_Inertia/branch_indesit/PlatformLibrary/LIB_IOManager\ExternalOutputManager.c **** 		PLT_ERROR_WARNING(PLT_ERROR_IOM_EXT_OUTMNG_MAX_CHANNEL_NUM_REACHED_ERR);
 457:C:/Workspace/FW_Inertia/branch_indesit/PlatformLibrary/LIB_IOManager\ExternalOutputManager.c ****         return LIB_IOM_EXTERNAL_SETREADRAMREQ_ERR;  /* Serious Error */
 458:C:/Workspace/FW_Inertia/branch_indesit/PlatformLibrary/LIB_IOManager\ExternalOutputManager.c **** 	}
 459:C:/Workspace/FW_Inertia/branch_indesit/PlatformLibrary/LIB_IOManager\ExternalOutputManager.c **** 	
 460:C:/Workspace/FW_Inertia/branch_indesit/PlatformLibrary/LIB_IOManager\ExternalOutputManager.c **** 	pCmd = IOM_External_CommandBufferTable[uart].pCmdBuffer + IOM_External_CommandBufferCntTable[uart]
 461:C:/Workspace/FW_Inertia/branch_indesit/PlatformLibrary/LIB_IOManager\ExternalOutputManager.c **** 	
 462:C:/Workspace/FW_Inertia/branch_indesit/PlatformLibrary/LIB_IOManager\ExternalOutputManager.c **** 	if((IOM_External_CommandBufferTable[uart].pCmdBuffer + IOM_External_CommandBufferTable[uart].szCmd
 463:C:/Workspace/FW_Inertia/branch_indesit/PlatformLibrary/LIB_IOManager\ExternalOutputManager.c **** 	{
 464:C:/Workspace/FW_Inertia/branch_indesit/PlatformLibrary/LIB_IOManager\ExternalOutputManager.c **** 		UseExternalBoard();
 465:C:/Workspace/FW_Inertia/branch_indesit/PlatformLibrary/LIB_IOManager\ExternalOutputManager.c **** 		*pCmd = 0; /* PilotType Reserved for read ram */
 466:C:/Workspace/FW_Inertia/branch_indesit/PlatformLibrary/LIB_IOManager\ExternalOutputManager.c **** 	
 467:C:/Workspace/FW_Inertia/branch_indesit/PlatformLibrary/LIB_IOManager\ExternalOutputManager.c **** 		(void)memcpy((uint8_t*)(pCmd+1), pDataRamReq, IOM_EXT_CMDDATA_RAM_READ_SZ);
 468:C:/Workspace/FW_Inertia/branch_indesit/PlatformLibrary/LIB_IOManager\ExternalOutputManager.c **** 		UnuseExternalBoard();
 469:C:/Workspace/FW_Inertia/branch_indesit/PlatformLibrary/LIB_IOManager\ExternalOutputManager.c **** 	
 470:C:/Workspace/FW_Inertia/branch_indesit/PlatformLibrary/LIB_IOManager\ExternalOutputManager.c **** 		ExternalSeqId[uart].NewReq= (uint8_t)(*(pDataRamReq+IOM_EXT_CMDDATA_RAM_READ_SZ) & 0xF0);
 471:C:/Workspace/FW_Inertia/branch_indesit/PlatformLibrary/LIB_IOManager\ExternalOutputManager.c **** 	}
 472:C:/Workspace/FW_Inertia/branch_indesit/PlatformLibrary/LIB_IOManager\ExternalOutputManager.c **** 	else
 473:C:/Workspace/FW_Inertia/branch_indesit/PlatformLibrary/LIB_IOManager\ExternalOutputManager.c **** 	{
 474:C:/Workspace/FW_Inertia/branch_indesit/PlatformLibrary/LIB_IOManager\ExternalOutputManager.c **** 		PLT_ERROR_WARNING(PLT_ERROR_IOM_EXT_OUTMNG_TOOMANY_BYTES_CMDBUFFER_ERR);
 475:C:/Workspace/FW_Inertia/branch_indesit/PlatformLibrary/LIB_IOManager\ExternalOutputManager.c ****         return LIB_IOM_EXTERNAL_SETREADRAMREQ_ERR;  /* Serious Error */
 476:C:/Workspace/FW_Inertia/branch_indesit/PlatformLibrary/LIB_IOManager\ExternalOutputManager.c **** 	}
 477:C:/Workspace/FW_Inertia/branch_indesit/PlatformLibrary/LIB_IOManager\ExternalOutputManager.c **** 	return LIB_IOM_NO_ERROR;
 478:C:/Workspace/FW_Inertia/branch_indesit/PlatformLibrary/LIB_IOManager\ExternalOutputManager.c **** }
 479:C:/Workspace/FW_Inertia/branch_indesit/PlatformLibrary/LIB_IOManager\ExternalOutputManager.c **** 
 480:C:/Workspace/FW_Inertia/branch_indesit/PlatformLibrary/LIB_IOManager\ExternalOutputManager.c **** 
 481:C:/Workspace/FW_Inertia/branch_indesit/PlatformLibrary/LIB_IOManager\ExternalOutputManager.c **** /**
 482:C:/Workspace/FW_Inertia/branch_indesit/PlatformLibrary/LIB_IOManager\ExternalOutputManager.c **** \n Sets a write ram request to command buffer
 483:C:/Workspace/FW_Inertia/branch_indesit/PlatformLibrary/LIB_IOManager\ExternalOutputManager.c **** 
 484:C:/Workspace/FW_Inertia/branch_indesit/PlatformLibrary/LIB_IOManager\ExternalOutputManager.c **** \param  [in] pDataRamReq pointer to write ram request parameters.
 485:C:/Workspace/FW_Inertia/branch_indesit/PlatformLibrary/LIB_IOManager\ExternalOutputManager.c **** \param  [in] len size in bytes of the parameters
 486:C:/Workspace/FW_Inertia/branch_indesit/PlatformLibrary/LIB_IOManager\ExternalOutputManager.c **** 
 487:C:/Workspace/FW_Inertia/branch_indesit/PlatformLibrary/LIB_IOManager\ExternalOutputManager.c **** \return 	LIB_IOM_ErrorType
 488:C:/Workspace/FW_Inertia/branch_indesit/PlatformLibrary/LIB_IOManager\ExternalOutputManager.c **** 
 489:C:/Workspace/FW_Inertia/branch_indesit/PlatformLibrary/LIB_IOManager\ExternalOutputManager.c **** \retval		LIB_IOM_NO_ERROR   	 no error
 490:C:/Workspace/FW_Inertia/branch_indesit/PlatformLibrary/LIB_IOManager\ExternalOutputManager.c **** \retval		LIB_IOM_EXTERNAL_SETWRITERAMREQ_ERR (error, for detail use LIB_IOM_External_GetExternalOut
 491:C:/Workspace/FW_Inertia/branch_indesit/PlatformLibrary/LIB_IOManager\ExternalOutputManager.c **** 
 492:C:/Workspace/FW_Inertia/branch_indesit/PlatformLibrary/LIB_IOManager\ExternalOutputManager.c **** \author		Roberto Fioravanti
 493:C:/Workspace/FW_Inertia/branch_indesit/PlatformLibrary/LIB_IOManager\ExternalOutputManager.c **** 
 494:C:/Workspace/FW_Inertia/branch_indesit/PlatformLibrary/LIB_IOManager\ExternalOutputManager.c **** \date			13/09/2010
 495:C:/Workspace/FW_Inertia/branch_indesit/PlatformLibrary/LIB_IOManager\ExternalOutputManager.c **** 
 496:C:/Workspace/FW_Inertia/branch_indesit/PlatformLibrary/LIB_IOManager\ExternalOutputManager.c **** \version    1.0.0
 497:C:/Workspace/FW_Inertia/branch_indesit/PlatformLibrary/LIB_IOManager\ExternalOutputManager.c **** 
 498:C:/Workspace/FW_Inertia/branch_indesit/PlatformLibrary/LIB_IOManager\ExternalOutputManager.c **** \note       \par \b Nota1:
 499:C:/Workspace/FW_Inertia/branch_indesit/PlatformLibrary/LIB_IOManager\ExternalOutputManager.c ****             documentation by Roberto Fioravanti
 500:C:/Workspace/FW_Inertia/branch_indesit/PlatformLibrary/LIB_IOManager\ExternalOutputManager.c **** */
 501:C:/Workspace/FW_Inertia/branch_indesit/PlatformLibrary/LIB_IOManager\ExternalOutputManager.c **** LIB_IOM_ErrorType LIB_IOM_External_SetWriteRamRequest(uint8_t * pDataRamReq, uint8_t len)
 502:C:/Workspace/FW_Inertia/branch_indesit/PlatformLibrary/LIB_IOManager\ExternalOutputManager.c **** {
 503:C:/Workspace/FW_Inertia/branch_indesit/PlatformLibrary/LIB_IOManager\ExternalOutputManager.c **** 	uint8_t uart = 0;
 504:C:/Workspace/FW_Inertia/branch_indesit/PlatformLibrary/LIB_IOManager\ExternalOutputManager.c **** 	uint8_t* pCmd;
 505:C:/Workspace/FW_Inertia/branch_indesit/PlatformLibrary/LIB_IOManager\ExternalOutputManager.c **** 	
 506:C:/Workspace/FW_Inertia/branch_indesit/PlatformLibrary/LIB_IOManager\ExternalOutputManager.c **** 	if(len < 5)
 507:C:/Workspace/FW_Inertia/branch_indesit/PlatformLibrary/LIB_IOManager\ExternalOutputManager.c **** 	{
 508:C:/Workspace/FW_Inertia/branch_indesit/PlatformLibrary/LIB_IOManager\ExternalOutputManager.c **** 		PLT_ERROR_WARNING(PLT_ERROR_IOM_EXT_OUTMNG_MISSINGDATA_SETREADRAM_ERR);
 509:C:/Workspace/FW_Inertia/branch_indesit/PlatformLibrary/LIB_IOManager\ExternalOutputManager.c ****         return LIB_IOM_EXTERNAL_SETREADRAMREQ_ERR;  /* Serious Error */
 510:C:/Workspace/FW_Inertia/branch_indesit/PlatformLibrary/LIB_IOManager\ExternalOutputManager.c **** 	}
 511:C:/Workspace/FW_Inertia/branch_indesit/PlatformLibrary/LIB_IOManager\ExternalOutputManager.c **** 	
 512:C:/Workspace/FW_Inertia/branch_indesit/PlatformLibrary/LIB_IOManager\ExternalOutputManager.c **** 	uart = (uint8_t)(*(pDataRamReq+4) & 0x0F);
 513:C:/Workspace/FW_Inertia/branch_indesit/PlatformLibrary/LIB_IOManager\ExternalOutputManager.c **** 	
 514:C:/Workspace/FW_Inertia/branch_indesit/PlatformLibrary/LIB_IOManager\ExternalOutputManager.c **** 	if(uart >= EXTERNAL_NUM)
 515:C:/Workspace/FW_Inertia/branch_indesit/PlatformLibrary/LIB_IOManager\ExternalOutputManager.c **** 	{
 516:C:/Workspace/FW_Inertia/branch_indesit/PlatformLibrary/LIB_IOManager\ExternalOutputManager.c **** 		PLT_ERROR_WARNING(PLT_ERROR_IOM_EXT_OUTMNG_MAX_CHANNEL_NUM_REACHED_ERR);
 517:C:/Workspace/FW_Inertia/branch_indesit/PlatformLibrary/LIB_IOManager\ExternalOutputManager.c ****         return LIB_IOM_EXTERNAL_SETWRITERAMREQ_ERR;  /* Serious Error */
 518:C:/Workspace/FW_Inertia/branch_indesit/PlatformLibrary/LIB_IOManager\ExternalOutputManager.c **** 	}
 519:C:/Workspace/FW_Inertia/branch_indesit/PlatformLibrary/LIB_IOManager\ExternalOutputManager.c **** 	
 520:C:/Workspace/FW_Inertia/branch_indesit/PlatformLibrary/LIB_IOManager\ExternalOutputManager.c **** 	if(uart >= EXTERNAL_NUM)
 521:C:/Workspace/FW_Inertia/branch_indesit/PlatformLibrary/LIB_IOManager\ExternalOutputManager.c **** 	{
 522:C:/Workspace/FW_Inertia/branch_indesit/PlatformLibrary/LIB_IOManager\ExternalOutputManager.c **** 		PLT_ERROR_WARNING(PLT_ERROR_IOM_EXT_OUTMNG_MAX_CHANNEL_NUM_REACHED_ERR);
 523:C:/Workspace/FW_Inertia/branch_indesit/PlatformLibrary/LIB_IOManager\ExternalOutputManager.c ****         return LIB_IOM_EXTERNAL_SETWRITERAMREQ_ERR;  /* Serious Error */
 524:C:/Workspace/FW_Inertia/branch_indesit/PlatformLibrary/LIB_IOManager\ExternalOutputManager.c **** 	}
 525:C:/Workspace/FW_Inertia/branch_indesit/PlatformLibrary/LIB_IOManager\ExternalOutputManager.c **** 	
 526:C:/Workspace/FW_Inertia/branch_indesit/PlatformLibrary/LIB_IOManager\ExternalOutputManager.c **** 	pCmd = IOM_External_CommandBufferTable[uart].pCmdBuffer + IOM_External_CommandBufferCntTable[uart]
 527:C:/Workspace/FW_Inertia/branch_indesit/PlatformLibrary/LIB_IOManager\ExternalOutputManager.c **** 	
 528:C:/Workspace/FW_Inertia/branch_indesit/PlatformLibrary/LIB_IOManager\ExternalOutputManager.c **** 	if((IOM_External_CommandBufferTable[uart].pCmdBuffer + IOM_External_CommandBufferTable[uart].szCmd
 529:C:/Workspace/FW_Inertia/branch_indesit/PlatformLibrary/LIB_IOManager\ExternalOutputManager.c **** 	{
 530:C:/Workspace/FW_Inertia/branch_indesit/PlatformLibrary/LIB_IOManager\ExternalOutputManager.c **** 		UseExternalBoard();
 531:C:/Workspace/FW_Inertia/branch_indesit/PlatformLibrary/LIB_IOManager\ExternalOutputManager.c **** 		*pCmd = 0; /* PilotType Reserved for write ram */
 532:C:/Workspace/FW_Inertia/branch_indesit/PlatformLibrary/LIB_IOManager\ExternalOutputManager.c **** 		
 533:C:/Workspace/FW_Inertia/branch_indesit/PlatformLibrary/LIB_IOManager\ExternalOutputManager.c **** 		pCmd += IOM_EXT_CMDDATA_RAM_READ_SZ;
 534:C:/Workspace/FW_Inertia/branch_indesit/PlatformLibrary/LIB_IOManager\ExternalOutputManager.c **** 	
 535:C:/Workspace/FW_Inertia/branch_indesit/PlatformLibrary/LIB_IOManager\ExternalOutputManager.c **** 		(void)memcpy((uint8_t*)(pCmd+1), pDataRamReq, IOM_EXT_CMDDATA_RAM_WRITE_SZ);
 536:C:/Workspace/FW_Inertia/branch_indesit/PlatformLibrary/LIB_IOManager\ExternalOutputManager.c **** 		UnuseExternalBoard();
 537:C:/Workspace/FW_Inertia/branch_indesit/PlatformLibrary/LIB_IOManager\ExternalOutputManager.c **** 		ExternalSeqId[uart].NewReq= (uint8_t)(*(pDataRamReq+IOM_EXT_CMDDATA_RAM_WRITE_SZ) & 0xF0);
 538:C:/Workspace/FW_Inertia/branch_indesit/PlatformLibrary/LIB_IOManager\ExternalOutputManager.c **** 	}
 539:C:/Workspace/FW_Inertia/branch_indesit/PlatformLibrary/LIB_IOManager\ExternalOutputManager.c **** 	else
 540:C:/Workspace/FW_Inertia/branch_indesit/PlatformLibrary/LIB_IOManager\ExternalOutputManager.c **** 	{
 541:C:/Workspace/FW_Inertia/branch_indesit/PlatformLibrary/LIB_IOManager\ExternalOutputManager.c **** 		PLT_ERROR_WARNING(PLT_ERROR_IOM_EXT_OUTMNG_TOOMANY_BYTES_CMDBUFFER_ERR);
 542:C:/Workspace/FW_Inertia/branch_indesit/PlatformLibrary/LIB_IOManager\ExternalOutputManager.c ****         return LIB_IOM_EXTERNAL_SETWRITERAMREQ_ERR;  /* Serious Error */
 543:C:/Workspace/FW_Inertia/branch_indesit/PlatformLibrary/LIB_IOManager\ExternalOutputManager.c **** 	}
 544:C:/Workspace/FW_Inertia/branch_indesit/PlatformLibrary/LIB_IOManager\ExternalOutputManager.c **** 	return LIB_IOM_NO_ERROR;
 545:C:/Workspace/FW_Inertia/branch_indesit/PlatformLibrary/LIB_IOManager\ExternalOutputManager.c **** }
 546:C:/Workspace/FW_Inertia/branch_indesit/PlatformLibrary/LIB_IOManager\ExternalOutputManager.c **** 
 547:C:/Workspace/FW_Inertia/branch_indesit/PlatformLibrary/LIB_IOManager\ExternalOutputManager.c **** /**
 548:C:/Workspace/FW_Inertia/branch_indesit/PlatformLibrary/LIB_IOManager\ExternalOutputManager.c **** \n Sets a extra request to command buffer
 549:C:/Workspace/FW_Inertia/branch_indesit/PlatformLibrary/LIB_IOManager\ExternalOutputManager.c **** 
 550:C:/Workspace/FW_Inertia/branch_indesit/PlatformLibrary/LIB_IOManager\ExternalOutputManager.c **** \param  [in] pDataRamReq pointer to write ram request parameters.
 551:C:/Workspace/FW_Inertia/branch_indesit/PlatformLibrary/LIB_IOManager\ExternalOutputManager.c **** \param  [in] len size in bytes of the parameters
 552:C:/Workspace/FW_Inertia/branch_indesit/PlatformLibrary/LIB_IOManager\ExternalOutputManager.c **** 
 553:C:/Workspace/FW_Inertia/branch_indesit/PlatformLibrary/LIB_IOManager\ExternalOutputManager.c **** \return 	LIB_IOM_ErrorType
 554:C:/Workspace/FW_Inertia/branch_indesit/PlatformLibrary/LIB_IOManager\ExternalOutputManager.c **** 
 555:C:/Workspace/FW_Inertia/branch_indesit/PlatformLibrary/LIB_IOManager\ExternalOutputManager.c **** \retval		LIB_IOM_NO_ERROR   	 no error
 556:C:/Workspace/FW_Inertia/branch_indesit/PlatformLibrary/LIB_IOManager\ExternalOutputManager.c **** \retval		LIB_IOM_EXTERNAL_SETEXTRAREQ_ERR (error, for detail use LIB_IOM_External_GetExternalOutMng
 557:C:/Workspace/FW_Inertia/branch_indesit/PlatformLibrary/LIB_IOManager\ExternalOutputManager.c **** 
 558:C:/Workspace/FW_Inertia/branch_indesit/PlatformLibrary/LIB_IOManager\ExternalOutputManager.c **** \author		Roberto Fioravanti
 559:C:/Workspace/FW_Inertia/branch_indesit/PlatformLibrary/LIB_IOManager\ExternalOutputManager.c **** 
 560:C:/Workspace/FW_Inertia/branch_indesit/PlatformLibrary/LIB_IOManager\ExternalOutputManager.c **** \date			13/09/2010
 561:C:/Workspace/FW_Inertia/branch_indesit/PlatformLibrary/LIB_IOManager\ExternalOutputManager.c **** 
 562:C:/Workspace/FW_Inertia/branch_indesit/PlatformLibrary/LIB_IOManager\ExternalOutputManager.c **** \version    1.0.0
 563:C:/Workspace/FW_Inertia/branch_indesit/PlatformLibrary/LIB_IOManager\ExternalOutputManager.c **** 
 564:C:/Workspace/FW_Inertia/branch_indesit/PlatformLibrary/LIB_IOManager\ExternalOutputManager.c **** \note       \par \b Nota1:
 565:C:/Workspace/FW_Inertia/branch_indesit/PlatformLibrary/LIB_IOManager\ExternalOutputManager.c ****             documentation by Roberto Fioravanti
 566:C:/Workspace/FW_Inertia/branch_indesit/PlatformLibrary/LIB_IOManager\ExternalOutputManager.c **** */
 567:C:/Workspace/FW_Inertia/branch_indesit/PlatformLibrary/LIB_IOManager\ExternalOutputManager.c **** LIB_IOM_ErrorType LIB_IOM_External_SetExtraRequest(uint8_t * pDataExtraReq, uint8_t len)
 568:C:/Workspace/FW_Inertia/branch_indesit/PlatformLibrary/LIB_IOManager\ExternalOutputManager.c **** {
 569:C:/Workspace/FW_Inertia/branch_indesit/PlatformLibrary/LIB_IOManager\ExternalOutputManager.c **** 	uint8_t uart = 0;
 570:C:/Workspace/FW_Inertia/branch_indesit/PlatformLibrary/LIB_IOManager\ExternalOutputManager.c **** 	uint8_t* pCmd;
 571:C:/Workspace/FW_Inertia/branch_indesit/PlatformLibrary/LIB_IOManager\ExternalOutputManager.c **** 	
 572:C:/Workspace/FW_Inertia/branch_indesit/PlatformLibrary/LIB_IOManager\ExternalOutputManager.c **** 	if(len < 3)
 573:C:/Workspace/FW_Inertia/branch_indesit/PlatformLibrary/LIB_IOManager\ExternalOutputManager.c **** 	{
 574:C:/Workspace/FW_Inertia/branch_indesit/PlatformLibrary/LIB_IOManager\ExternalOutputManager.c **** 		PLT_ERROR_WARNING(PLT_ERROR_IOM_EXT_OUTMNG_MISSINGDATA_SETREADRAM_ERR);
 575:C:/Workspace/FW_Inertia/branch_indesit/PlatformLibrary/LIB_IOManager\ExternalOutputManager.c ****         return LIB_IOM_EXTERNAL_SETEXTRAREQ_ERR;  /* Serious Error */
 576:C:/Workspace/FW_Inertia/branch_indesit/PlatformLibrary/LIB_IOManager\ExternalOutputManager.c **** 	}
 577:C:/Workspace/FW_Inertia/branch_indesit/PlatformLibrary/LIB_IOManager\ExternalOutputManager.c **** 	
 578:C:/Workspace/FW_Inertia/branch_indesit/PlatformLibrary/LIB_IOManager\ExternalOutputManager.c **** 	uart = (uint8_t)(*(pDataExtraReq+2) & 0x0F);
 579:C:/Workspace/FW_Inertia/branch_indesit/PlatformLibrary/LIB_IOManager\ExternalOutputManager.c **** 	
 580:C:/Workspace/FW_Inertia/branch_indesit/PlatformLibrary/LIB_IOManager\ExternalOutputManager.c **** 	if(uart >= EXTERNAL_NUM)
 581:C:/Workspace/FW_Inertia/branch_indesit/PlatformLibrary/LIB_IOManager\ExternalOutputManager.c **** 	{
 582:C:/Workspace/FW_Inertia/branch_indesit/PlatformLibrary/LIB_IOManager\ExternalOutputManager.c **** 		PLT_ERROR_WARNING(PLT_ERROR_IOM_EXT_OUTMNG_MAX_CHANNEL_NUM_REACHED_ERR);
 583:C:/Workspace/FW_Inertia/branch_indesit/PlatformLibrary/LIB_IOManager\ExternalOutputManager.c ****         return LIB_IOM_EXTERNAL_SETEXTRAREQ_ERR;  /* Serious Error */
 584:C:/Workspace/FW_Inertia/branch_indesit/PlatformLibrary/LIB_IOManager\ExternalOutputManager.c **** 	}
 585:C:/Workspace/FW_Inertia/branch_indesit/PlatformLibrary/LIB_IOManager\ExternalOutputManager.c **** 	
 586:C:/Workspace/FW_Inertia/branch_indesit/PlatformLibrary/LIB_IOManager\ExternalOutputManager.c **** 	pCmd = IOM_External_CommandBufferTable[uart].pCmdBuffer + IOM_External_CommandBufferCntTable[uart]
 587:C:/Workspace/FW_Inertia/branch_indesit/PlatformLibrary/LIB_IOManager\ExternalOutputManager.c **** 	
 588:C:/Workspace/FW_Inertia/branch_indesit/PlatformLibrary/LIB_IOManager\ExternalOutputManager.c **** 	
 589:C:/Workspace/FW_Inertia/branch_indesit/PlatformLibrary/LIB_IOManager\ExternalOutputManager.c **** 	if((IOM_External_CommandBufferTable[uart].pCmdBuffer + IOM_External_CommandBufferTable[uart].szCmd
 590:C:/Workspace/FW_Inertia/branch_indesit/PlatformLibrary/LIB_IOManager\ExternalOutputManager.c **** 	{
 591:C:/Workspace/FW_Inertia/branch_indesit/PlatformLibrary/LIB_IOManager\ExternalOutputManager.c **** 		UseExternalBoard();
 592:C:/Workspace/FW_Inertia/branch_indesit/PlatformLibrary/LIB_IOManager\ExternalOutputManager.c **** 		
 593:C:/Workspace/FW_Inertia/branch_indesit/PlatformLibrary/LIB_IOManager\ExternalOutputManager.c **** 		*pCmd = 0; /* PilotType Reserved for write ram */
 594:C:/Workspace/FW_Inertia/branch_indesit/PlatformLibrary/LIB_IOManager\ExternalOutputManager.c **** 		pCmd += IOM_EXT_CMDDATA_RAM_READ_SZ + IOM_EXT_CMDDATA_RAM_WRITE_SZ;
 595:C:/Workspace/FW_Inertia/branch_indesit/PlatformLibrary/LIB_IOManager\ExternalOutputManager.c **** 		
 596:C:/Workspace/FW_Inertia/branch_indesit/PlatformLibrary/LIB_IOManager\ExternalOutputManager.c **** 		(void)memcpy((uint8_t*)(pCmd+1), pDataExtraReq, 2);
 597:C:/Workspace/FW_Inertia/branch_indesit/PlatformLibrary/LIB_IOManager\ExternalOutputManager.c **** 		UnuseExternalBoard();
 598:C:/Workspace/FW_Inertia/branch_indesit/PlatformLibrary/LIB_IOManager\ExternalOutputManager.c **** 	
 599:C:/Workspace/FW_Inertia/branch_indesit/PlatformLibrary/LIB_IOManager\ExternalOutputManager.c **** 		ExternalSeqId[uart].NewReq=(uint8_t)(*(pDataExtraReq+IOM_EXT_CMDDATA_EXTRA_REQ_SZ) & 0xF0);
 600:C:/Workspace/FW_Inertia/branch_indesit/PlatformLibrary/LIB_IOManager\ExternalOutputManager.c **** 	}
 601:C:/Workspace/FW_Inertia/branch_indesit/PlatformLibrary/LIB_IOManager\ExternalOutputManager.c **** 	else
 602:C:/Workspace/FW_Inertia/branch_indesit/PlatformLibrary/LIB_IOManager\ExternalOutputManager.c **** 	{
 603:C:/Workspace/FW_Inertia/branch_indesit/PlatformLibrary/LIB_IOManager\ExternalOutputManager.c **** 		PLT_ERROR_WARNING(PLT_ERROR_IOM_EXT_OUTMNG_TOOMANY_BYTES_CMDBUFFER_ERR);
 604:C:/Workspace/FW_Inertia/branch_indesit/PlatformLibrary/LIB_IOManager\ExternalOutputManager.c ****         return LIB_IOM_EXTERNAL_SETEXTRAREQ_ERR;  /* Serious Error */
 605:C:/Workspace/FW_Inertia/branch_indesit/PlatformLibrary/LIB_IOManager\ExternalOutputManager.c **** 	}
 606:C:/Workspace/FW_Inertia/branch_indesit/PlatformLibrary/LIB_IOManager\ExternalOutputManager.c **** 	return LIB_IOM_NO_ERROR;
 607:C:/Workspace/FW_Inertia/branch_indesit/PlatformLibrary/LIB_IOManager\ExternalOutputManager.c **** }
 608:C:/Workspace/FW_Inertia/branch_indesit/PlatformLibrary/LIB_IOManager\ExternalOutputManager.c **** 
 609:C:/Workspace/FW_Inertia/branch_indesit/PlatformLibrary/LIB_IOManager\ExternalOutputManager.c **** /**
 610:C:/Workspace/FW_Inertia/branch_indesit/PlatformLibrary/LIB_IOManager\ExternalOutputManager.c **** \n Returns Command buffer for the specified external, if ready.
 611:C:/Workspace/FW_Inertia/branch_indesit/PlatformLibrary/LIB_IOManager\ExternalOutputManager.c **** Command buffer becomes ready once  LIB_IOM_External_SetCommand has been called for each load.
 612:C:/Workspace/FW_Inertia/branch_indesit/PlatformLibrary/LIB_IOManager\ExternalOutputManager.c **** 
 613:C:/Workspace/FW_Inertia/branch_indesit/PlatformLibrary/LIB_IOManager\ExternalOutputManager.c **** \param  [in] uart external board index
 614:C:/Workspace/FW_Inertia/branch_indesit/PlatformLibrary/LIB_IOManager\ExternalOutputManager.c **** \param  [out] ppCmd pointer to pointer to command buffer
 615:C:/Workspace/FW_Inertia/branch_indesit/PlatformLibrary/LIB_IOManager\ExternalOutputManager.c **** \param  [out] pCmdLen pointer to size in bytes
 616:C:/Workspace/FW_Inertia/branch_indesit/PlatformLibrary/LIB_IOManager\ExternalOutputManager.c **** 
 617:C:/Workspace/FW_Inertia/branch_indesit/PlatformLibrary/LIB_IOManager\ExternalOutputManager.c **** \return 	LIB_IOM_ErrorType
 618:C:/Workspace/FW_Inertia/branch_indesit/PlatformLibrary/LIB_IOManager\ExternalOutputManager.c **** 
 619:C:/Workspace/FW_Inertia/branch_indesit/PlatformLibrary/LIB_IOManager\ExternalOutputManager.c **** \retval		LIB_IOM_NO_ERROR   	 no error
 620:C:/Workspace/FW_Inertia/branch_indesit/PlatformLibrary/LIB_IOManager\ExternalOutputManager.c **** \retval		LIB_IOM_EXTERNAL_GETCMD_ERR (error, for detail use LIB_IOM_External_GetExternalOutMngError
 621:C:/Workspace/FW_Inertia/branch_indesit/PlatformLibrary/LIB_IOManager\ExternalOutputManager.c **** 
 622:C:/Workspace/FW_Inertia/branch_indesit/PlatformLibrary/LIB_IOManager\ExternalOutputManager.c **** \author		Roberto Fioravanti
 623:C:/Workspace/FW_Inertia/branch_indesit/PlatformLibrary/LIB_IOManager\ExternalOutputManager.c **** 
 624:C:/Workspace/FW_Inertia/branch_indesit/PlatformLibrary/LIB_IOManager\ExternalOutputManager.c **** \date			13/09/2010
 625:C:/Workspace/FW_Inertia/branch_indesit/PlatformLibrary/LIB_IOManager\ExternalOutputManager.c **** 
 626:C:/Workspace/FW_Inertia/branch_indesit/PlatformLibrary/LIB_IOManager\ExternalOutputManager.c **** \version    1.0.0
 627:C:/Workspace/FW_Inertia/branch_indesit/PlatformLibrary/LIB_IOManager\ExternalOutputManager.c **** 
 628:C:/Workspace/FW_Inertia/branch_indesit/PlatformLibrary/LIB_IOManager\ExternalOutputManager.c **** \note       \par \b Nota1:
 629:C:/Workspace/FW_Inertia/branch_indesit/PlatformLibrary/LIB_IOManager\ExternalOutputManager.c ****             documentation by Roberto Fioravanti
 630:C:/Workspace/FW_Inertia/branch_indesit/PlatformLibrary/LIB_IOManager\ExternalOutputManager.c **** */
 631:C:/Workspace/FW_Inertia/branch_indesit/PlatformLibrary/LIB_IOManager\ExternalOutputManager.c **** LIB_IOM_ErrorType LIB_IOM_External_GetCommandBuffer(uint8_t uart, uint8_t** ppCmd, uint8_t* pCmdLen
 632:C:/Workspace/FW_Inertia/branch_indesit/PlatformLibrary/LIB_IOManager\ExternalOutputManager.c **** {
 633:C:/Workspace/FW_Inertia/branch_indesit/PlatformLibrary/LIB_IOManager\ExternalOutputManager.c **** 	uint8_t* pCmd = IOM_External_CommandBufferTable[uart].pCmdBuffer;
 634:C:/Workspace/FW_Inertia/branch_indesit/PlatformLibrary/LIB_IOManager\ExternalOutputManager.c ****     uint16_t    cmd_writeram = 0;
 635:C:/Workspace/FW_Inertia/branch_indesit/PlatformLibrary/LIB_IOManager\ExternalOutputManager.c ****     uint16_t    cmd_readram = 0;
 636:C:/Workspace/FW_Inertia/branch_indesit/PlatformLibrary/LIB_IOManager\ExternalOutputManager.c ****     uint16_t    cmd_extrareq = 0;
 637:C:/Workspace/FW_Inertia/branch_indesit/PlatformLibrary/LIB_IOManager\ExternalOutputManager.c ****     uint8_t i=0;
 638:C:/Workspace/FW_Inertia/branch_indesit/PlatformLibrary/LIB_IOManager\ExternalOutputManager.c ****     uint8_t *p;
 639:C:/Workspace/FW_Inertia/branch_indesit/PlatformLibrary/LIB_IOManager\ExternalOutputManager.c ****     
 640:C:/Workspace/FW_Inertia/branch_indesit/PlatformLibrary/LIB_IOManager\ExternalOutputManager.c **** 	ExternalSeqId[uart].OldReq &= 0xF0;
 641:C:/Workspace/FW_Inertia/branch_indesit/PlatformLibrary/LIB_IOManager\ExternalOutputManager.c **** 	
 642:C:/Workspace/FW_Inertia/branch_indesit/PlatformLibrary/LIB_IOManager\ExternalOutputManager.c **** 	if(uart >= EXTERNAL_NUM)
 643:C:/Workspace/FW_Inertia/branch_indesit/PlatformLibrary/LIB_IOManager\ExternalOutputManager.c **** 	{
 644:C:/Workspace/FW_Inertia/branch_indesit/PlatformLibrary/LIB_IOManager\ExternalOutputManager.c **** 		PLT_ERROR_WARNING(PLT_ERROR_IOM_EXT_OUTMNG_MAX_CHANNEL_NUM_REACHED_ERR);
 645:C:/Workspace/FW_Inertia/branch_indesit/PlatformLibrary/LIB_IOManager\ExternalOutputManager.c ****         return LIB_IOM_EXTERNAL_GETCMD_ERR;  /* Serious Error */
 646:C:/Workspace/FW_Inertia/branch_indesit/PlatformLibrary/LIB_IOManager\ExternalOutputManager.c **** 	}
 647:C:/Workspace/FW_Inertia/branch_indesit/PlatformLibrary/LIB_IOManager\ExternalOutputManager.c **** 	
 648:C:/Workspace/FW_Inertia/branch_indesit/PlatformLibrary/LIB_IOManager\ExternalOutputManager.c **** 	UseExternalBoard();
 649:C:/Workspace/FW_Inertia/branch_indesit/PlatformLibrary/LIB_IOManager\ExternalOutputManager.c ****     /* check if command buffer is ready */
 650:C:/Workspace/FW_Inertia/branch_indesit/PlatformLibrary/LIB_IOManager\ExternalOutputManager.c **** 	for(i=0; i< ExternalBoardCounter; i++)
 651:C:/Workspace/FW_Inertia/branch_indesit/PlatformLibrary/LIB_IOManager\ExternalOutputManager.c **** 	{
 652:C:/Workspace/FW_Inertia/branch_indesit/PlatformLibrary/LIB_IOManager\ExternalOutputManager.c **** 	    if(IOM_External_LoadsTable[i].CommCh == uart)
 653:C:/Workspace/FW_Inertia/branch_indesit/PlatformLibrary/LIB_IOManager\ExternalOutputManager.c **** 	    {
 654:C:/Workspace/FW_Inertia/branch_indesit/PlatformLibrary/LIB_IOManager\ExternalOutputManager.c **** 	        p=(IOM_External_CommandBufferTable[uart].pCmdBuffer + IOM_External_LoadsTable[i].CmdOffset
 655:C:/Workspace/FW_Inertia/branch_indesit/PlatformLibrary/LIB_IOManager\ExternalOutputManager.c **** 			/* command buffer it's assumed to be not ready if there is at least one load not set*/
 656:C:/Workspace/FW_Inertia/branch_indesit/PlatformLibrary/LIB_IOManager\ExternalOutputManager.c **** 	        if((  *(p) != IOM_External_LoadsTable[i].PilotType)
 657:C:/Workspace/FW_Inertia/branch_indesit/PlatformLibrary/LIB_IOManager\ExternalOutputManager.c **** 	        && ( *(p + 1) != IOM_External_LoadsTable[i].Displacement))
 658:C:/Workspace/FW_Inertia/branch_indesit/PlatformLibrary/LIB_IOManager\ExternalOutputManager.c **** 	        {
 659:C:/Workspace/FW_Inertia/branch_indesit/PlatformLibrary/LIB_IOManager\ExternalOutputManager.c **** 	            *pCmdLen=0;
 660:C:/Workspace/FW_Inertia/branch_indesit/PlatformLibrary/LIB_IOManager\ExternalOutputManager.c **** 	            UnuseExternalBoard();
 661:C:/Workspace/FW_Inertia/branch_indesit/PlatformLibrary/LIB_IOManager\ExternalOutputManager.c **** 	            return LIB_IOM_EXTERNAL_GETCMD_ERR;
 662:C:/Workspace/FW_Inertia/branch_indesit/PlatformLibrary/LIB_IOManager\ExternalOutputManager.c **** 	        }
 663:C:/Workspace/FW_Inertia/branch_indesit/PlatformLibrary/LIB_IOManager\ExternalOutputManager.c **** 	    }
 664:C:/Workspace/FW_Inertia/branch_indesit/PlatformLibrary/LIB_IOManager\ExternalOutputManager.c **** 	}
 665:C:/Workspace/FW_Inertia/branch_indesit/PlatformLibrary/LIB_IOManager\ExternalOutputManager.c **** 	
 666:C:/Workspace/FW_Inertia/branch_indesit/PlatformLibrary/LIB_IOManager\ExternalOutputManager.c **** 	*pCmdLen = IOM_External_CommandBufferCntTable[uart]; /* */
 667:C:/Workspace/FW_Inertia/branch_indesit/PlatformLibrary/LIB_IOManager\ExternalOutputManager.c **** 	
 668:C:/Workspace/FW_Inertia/branch_indesit/PlatformLibrary/LIB_IOManager\ExternalOutputManager.c ****     (void)memcpy(&cmd_writeram, 
 669:C:/Workspace/FW_Inertia/branch_indesit/PlatformLibrary/LIB_IOManager\ExternalOutputManager.c ****                  (pCmd + IOM_External_CommandBufferCntTable[uart] + 1/*pilotype for ram*/ + IOM_EXT
 670:C:/Workspace/FW_Inertia/branch_indesit/PlatformLibrary/LIB_IOManager\ExternalOutputManager.c ****                  sizeof(cmd_writeram));
 671:C:/Workspace/FW_Inertia/branch_indesit/PlatformLibrary/LIB_IOManager\ExternalOutputManager.c ****     (void)memcpy(&cmd_readram, 
 672:C:/Workspace/FW_Inertia/branch_indesit/PlatformLibrary/LIB_IOManager\ExternalOutputManager.c ****              (pCmd + IOM_External_CommandBufferCntTable[uart] + 1),
 673:C:/Workspace/FW_Inertia/branch_indesit/PlatformLibrary/LIB_IOManager\ExternalOutputManager.c ****              sizeof(cmd_readram));
 674:C:/Workspace/FW_Inertia/branch_indesit/PlatformLibrary/LIB_IOManager\ExternalOutputManager.c ****     (void)memcpy(&cmd_extrareq, 
 675:C:/Workspace/FW_Inertia/branch_indesit/PlatformLibrary/LIB_IOManager\ExternalOutputManager.c ****                  (pCmd + IOM_External_CommandBufferCntTable[uart] + 1 + IOM_EXT_CMDDATA_RAM_READ_SZ
 676:C:/Workspace/FW_Inertia/branch_indesit/PlatformLibrary/LIB_IOManager\ExternalOutputManager.c ****                  sizeof(cmd_extrareq));
 677:C:/Workspace/FW_Inertia/branch_indesit/PlatformLibrary/LIB_IOManager\ExternalOutputManager.c ****     if(cmd_writeram)
 678:C:/Workspace/FW_Inertia/branch_indesit/PlatformLibrary/LIB_IOManager\ExternalOutputManager.c **** 	{
 679:C:/Workspace/FW_Inertia/branch_indesit/PlatformLibrary/LIB_IOManager\ExternalOutputManager.c **** 		/* write ram */
 680:C:/Workspace/FW_Inertia/branch_indesit/PlatformLibrary/LIB_IOManager\ExternalOutputManager.c **** 		*pCmdLen += 1+IOM_EXT_CMDDATA_RAM_READ_SZ+IOM_EXT_CMDDATA_RAM_WRITE_SZ; /*reserved pilotType +  r
 681:C:/Workspace/FW_Inertia/branch_indesit/PlatformLibrary/LIB_IOManager\ExternalOutputManager.c **** 		ExternalSeqId[uart].OldReq |= 1;
 682:C:/Workspace/FW_Inertia/branch_indesit/PlatformLibrary/LIB_IOManager\ExternalOutputManager.c **** 	}
 683:C:/Workspace/FW_Inertia/branch_indesit/PlatformLibrary/LIB_IOManager\ExternalOutputManager.c **** 	else if(cmd_readram) 
 684:C:/Workspace/FW_Inertia/branch_indesit/PlatformLibrary/LIB_IOManager\ExternalOutputManager.c **** 	{
 685:C:/Workspace/FW_Inertia/branch_indesit/PlatformLibrary/LIB_IOManager\ExternalOutputManager.c **** 		/* read ram */
 686:C:/Workspace/FW_Inertia/branch_indesit/PlatformLibrary/LIB_IOManager\ExternalOutputManager.c **** 		*pCmdLen += 1+IOM_EXT_CMDDATA_RAM_READ_SZ; /*reserved pilotType +  read */
 687:C:/Workspace/FW_Inertia/branch_indesit/PlatformLibrary/LIB_IOManager\ExternalOutputManager.c **** 	}
 688:C:/Workspace/FW_Inertia/branch_indesit/PlatformLibrary/LIB_IOManager\ExternalOutputManager.c **** 	else if(cmd_extrareq) 
 689:C:/Workspace/FW_Inertia/branch_indesit/PlatformLibrary/LIB_IOManager\ExternalOutputManager.c **** 	{
 690:C:/Workspace/FW_Inertia/branch_indesit/PlatformLibrary/LIB_IOManager\ExternalOutputManager.c **** 		/* extra ram */
 691:C:/Workspace/FW_Inertia/branch_indesit/PlatformLibrary/LIB_IOManager\ExternalOutputManager.c **** 		*pCmdLen += 1+IOM_EXT_CMDDATA_RAM_READ_SZ+IOM_EXT_CMDDATA_RAM_WRITE_SZ+IOM_EXT_CMDDATA_EXTRA_REQ_
 692:C:/Workspace/FW_Inertia/branch_indesit/PlatformLibrary/LIB_IOManager\ExternalOutputManager.c **** 		ExternalSeqId[uart].OldReq |= 2;
 693:C:/Workspace/FW_Inertia/branch_indesit/PlatformLibrary/LIB_IOManager\ExternalOutputManager.c **** 	}
 694:C:/Workspace/FW_Inertia/branch_indesit/PlatformLibrary/LIB_IOManager\ExternalOutputManager.c **** 	
 695:C:/Workspace/FW_Inertia/branch_indesit/PlatformLibrary/LIB_IOManager\ExternalOutputManager.c **** 	ExternalSeqId[uart].Seq++;
 696:C:/Workspace/FW_Inertia/branch_indesit/PlatformLibrary/LIB_IOManager\ExternalOutputManager.c **** 	
 697:C:/Workspace/FW_Inertia/branch_indesit/PlatformLibrary/LIB_IOManager\ExternalOutputManager.c **** 	*ppCmd = IOM_External_CommandBufferTable[uart].pCmdBufferTx;
 698:C:/Workspace/FW_Inertia/branch_indesit/PlatformLibrary/LIB_IOManager\ExternalOutputManager.c **** 	
 699:C:/Workspace/FW_Inertia/branch_indesit/PlatformLibrary/LIB_IOManager\ExternalOutputManager.c **** 	if((ExternalSeqId[uart].OldReq & 0xF0) != ExternalSeqId[uart].NewReq)
 700:C:/Workspace/FW_Inertia/branch_indesit/PlatformLibrary/LIB_IOManager\ExternalOutputManager.c **** 	{
 701:C:/Workspace/FW_Inertia/branch_indesit/PlatformLibrary/LIB_IOManager\ExternalOutputManager.c **** 		ExternalSeqId[uart].OldReq &= 0x0F;
 702:C:/Workspace/FW_Inertia/branch_indesit/PlatformLibrary/LIB_IOManager\ExternalOutputManager.c **** 		ExternalSeqId[uart].OldReq += ExternalSeqId[uart].NewReq;
 703:C:/Workspace/FW_Inertia/branch_indesit/PlatformLibrary/LIB_IOManager\ExternalOutputManager.c **** 		ExternalSeqId[uart].Seq=0;
 704:C:/Workspace/FW_Inertia/branch_indesit/PlatformLibrary/LIB_IOManager\ExternalOutputManager.c **** 	}
 705:C:/Workspace/FW_Inertia/branch_indesit/PlatformLibrary/LIB_IOManager\ExternalOutputManager.c **** 	
 706:C:/Workspace/FW_Inertia/branch_indesit/PlatformLibrary/LIB_IOManager\ExternalOutputManager.c **** 	*IOM_External_CommandBufferTable[uart].pCmdBuffer = ExternalSeqId[uart].OldReq;
 707:C:/Workspace/FW_Inertia/branch_indesit/PlatformLibrary/LIB_IOManager\ExternalOutputManager.c **** 	memcpy(IOM_External_CommandBufferTable[uart].pCmdBufferTx, IOM_External_CommandBufferTable[uart].p
 708:C:/Workspace/FW_Inertia/branch_indesit/PlatformLibrary/LIB_IOManager\ExternalOutputManager.c **** 	
 709:C:/Workspace/FW_Inertia/branch_indesit/PlatformLibrary/LIB_IOManager\ExternalOutputManager.c **** 	UnuseExternalBoard();
 710:C:/Workspace/FW_Inertia/branch_indesit/PlatformLibrary/LIB_IOManager\ExternalOutputManager.c **** 	
 711:C:/Workspace/FW_Inertia/branch_indesit/PlatformLibrary/LIB_IOManager\ExternalOutputManager.c **** 	return LIB_IOM_NO_ERROR;
 712:C:/Workspace/FW_Inertia/branch_indesit/PlatformLibrary/LIB_IOManager\ExternalOutputManager.c **** }
 713:C:/Workspace/FW_Inertia/branch_indesit/PlatformLibrary/LIB_IOManager\ExternalOutputManager.c **** 
 714:C:/Workspace/FW_Inertia/branch_indesit/PlatformLibrary/LIB_IOManager\ExternalOutputManager.c **** /**
 715:C:/Workspace/FW_Inertia/branch_indesit/PlatformLibrary/LIB_IOManager\ExternalOutputManager.c **** \n Returns Info buffer related to an Extended Load, if it's an External one
 716:C:/Workspace/FW_Inertia/branch_indesit/PlatformLibrary/LIB_IOManager\ExternalOutputManager.c **** 
 717:C:/Workspace/FW_Inertia/branch_indesit/PlatformLibrary/LIB_IOManager\ExternalOutputManager.c **** \param  [in] extloadItem		Extended Load Item
 718:C:/Workspace/FW_Inertia/branch_indesit/PlatformLibrary/LIB_IOManager\ExternalOutputManager.c **** \param  [out] pByteData 		pointer to pointer to info buffer (destination buffer)
 719:C:/Workspace/FW_Inertia/branch_indesit/PlatformLibrary/LIB_IOManager\ExternalOutputManager.c **** \param  [out] szData 			maximum size in bytes
 720:C:/Workspace/FW_Inertia/branch_indesit/PlatformLibrary/LIB_IOManager\ExternalOutputManager.c **** 
 721:C:/Workspace/FW_Inertia/branch_indesit/PlatformLibrary/LIB_IOManager\ExternalOutputManager.c **** \return 	bool_t
 722:C:/Workspace/FW_Inertia/branch_indesit/PlatformLibrary/LIB_IOManager\ExternalOutputManager.c **** 
 723:C:/Workspace/FW_Inertia/branch_indesit/PlatformLibrary/LIB_IOManager\ExternalOutputManager.c **** \retval		TRUE   	 			no error
 724:C:/Workspace/FW_Inertia/branch_indesit/PlatformLibrary/LIB_IOManager\ExternalOutputManager.c **** \retval		FALSE				Error - extended board is not an external
 725:C:/Workspace/FW_Inertia/branch_indesit/PlatformLibrary/LIB_IOManager\ExternalOutputManager.c **** 
 726:C:/Workspace/FW_Inertia/branch_indesit/PlatformLibrary/LIB_IOManager\ExternalOutputManager.c **** \author		Roberto Fioravanti
 727:C:/Workspace/FW_Inertia/branch_indesit/PlatformLibrary/LIB_IOManager\ExternalOutputManager.c **** 
 728:C:/Workspace/FW_Inertia/branch_indesit/PlatformLibrary/LIB_IOManager\ExternalOutputManager.c **** \date			13/09/2010
 729:C:/Workspace/FW_Inertia/branch_indesit/PlatformLibrary/LIB_IOManager\ExternalOutputManager.c **** 
 730:C:/Workspace/FW_Inertia/branch_indesit/PlatformLibrary/LIB_IOManager\ExternalOutputManager.c **** \version    1.0.0
 731:C:/Workspace/FW_Inertia/branch_indesit/PlatformLibrary/LIB_IOManager\ExternalOutputManager.c **** 
 732:C:/Workspace/FW_Inertia/branch_indesit/PlatformLibrary/LIB_IOManager\ExternalOutputManager.c **** \note       \par \b Nota1:
 733:C:/Workspace/FW_Inertia/branch_indesit/PlatformLibrary/LIB_IOManager\ExternalOutputManager.c ****             documentation by Roberto Fioravanti
 734:C:/Workspace/FW_Inertia/branch_indesit/PlatformLibrary/LIB_IOManager\ExternalOutputManager.c **** */
 735:C:/Workspace/FW_Inertia/branch_indesit/PlatformLibrary/LIB_IOManager\ExternalOutputManager.c **** bool_t LIB_IOM_External_GetInfoBuffer(uint8_t extloadItem, uint8_t *pByteData, uint8_t szData)
 736:C:/Workspace/FW_Inertia/branch_indesit/PlatformLibrary/LIB_IOManager\ExternalOutputManager.c **** {
 737:C:/Workspace/FW_Inertia/branch_indesit/PlatformLibrary/LIB_IOManager\ExternalOutputManager.c **** 	bool_t resVal = FALSE;
 738:C:/Workspace/FW_Inertia/branch_indesit/PlatformLibrary/LIB_IOManager\ExternalOutputManager.c **** 	uint8_t extBoardPos = LIB_IOM_GetExtBoardPos(extloadItem);
 739:C:/Workspace/FW_Inertia/branch_indesit/PlatformLibrary/LIB_IOManager\ExternalOutputManager.c **** 
 740:C:/Workspace/FW_Inertia/branch_indesit/PlatformLibrary/LIB_IOManager\ExternalOutputManager.c **** 	if (extBoardPos != LOAD_NOT_FOUND)
 741:C:/Workspace/FW_Inertia/branch_indesit/PlatformLibrary/LIB_IOManager\ExternalOutputManager.c **** 	{
 742:C:/Workspace/FW_Inertia/branch_indesit/PlatformLibrary/LIB_IOManager\ExternalOutputManager.c **** 		uint8_t maxSize = MIN(IOM_External_LoadsTable[extBoardPos].szPilotTypeInfo, szData);
 743:C:/Workspace/FW_Inertia/branch_indesit/PlatformLibrary/LIB_IOManager\ExternalOutputManager.c **** 
 744:C:/Workspace/FW_Inertia/branch_indesit/PlatformLibrary/LIB_IOManager\ExternalOutputManager.c **** 		memcpy(pByteData, IOM_External_LoadsTable[extBoardPos].pPilotTypeInfo, maxSize);
 745:C:/Workspace/FW_Inertia/branch_indesit/PlatformLibrary/LIB_IOManager\ExternalOutputManager.c **** 		resVal = TRUE;
 746:C:/Workspace/FW_Inertia/branch_indesit/PlatformLibrary/LIB_IOManager\ExternalOutputManager.c **** 	}
 747:C:/Workspace/FW_Inertia/branch_indesit/PlatformLibrary/LIB_IOManager\ExternalOutputManager.c **** 
 748:C:/Workspace/FW_Inertia/branch_indesit/PlatformLibrary/LIB_IOManager\ExternalOutputManager.c **** 	return resVal;
 749:C:/Workspace/FW_Inertia/branch_indesit/PlatformLibrary/LIB_IOManager\ExternalOutputManager.c **** 
 750:C:/Workspace/FW_Inertia/branch_indesit/PlatformLibrary/LIB_IOManager\ExternalOutputManager.c **** }
 751:C:/Workspace/FW_Inertia/branch_indesit/PlatformLibrary/LIB_IOManager\ExternalOutputManager.c **** 
 752:C:/Workspace/FW_Inertia/branch_indesit/PlatformLibrary/LIB_IOManager\ExternalOutputManager.c **** /**
 753:C:/Workspace/FW_Inertia/branch_indesit/PlatformLibrary/LIB_IOManager\ExternalOutputManager.c **** \n Returns Common buffer related to an UART channel
 754:C:/Workspace/FW_Inertia/branch_indesit/PlatformLibrary/LIB_IOManager\ExternalOutputManager.c **** 
 755:C:/Workspace/FW_Inertia/branch_indesit/PlatformLibrary/LIB_IOManager\ExternalOutputManager.c **** \param  [in] commCh		UART channel
 756:C:/Workspace/FW_Inertia/branch_indesit/PlatformLibrary/LIB_IOManager\ExternalOutputManager.c **** \param  [out] pCmnData 		pointer to pointer to common buffer (destination buffer)
 757:C:/Workspace/FW_Inertia/branch_indesit/PlatformLibrary/LIB_IOManager\ExternalOutputManager.c **** \param  [out] szData 			maximum size in bytes
 758:C:/Workspace/FW_Inertia/branch_indesit/PlatformLibrary/LIB_IOManager\ExternalOutputManager.c **** 
 759:C:/Workspace/FW_Inertia/branch_indesit/PlatformLibrary/LIB_IOManager\ExternalOutputManager.c **** \return 	bool_t
 760:C:/Workspace/FW_Inertia/branch_indesit/PlatformLibrary/LIB_IOManager\ExternalOutputManager.c **** 
 761:C:/Workspace/FW_Inertia/branch_indesit/PlatformLibrary/LIB_IOManager\ExternalOutputManager.c **** \retval		TRUE   	 			no error
 762:C:/Workspace/FW_Inertia/branch_indesit/PlatformLibrary/LIB_IOManager\ExternalOutputManager.c **** \retval		FALSE				Error - extended board is not an external
 763:C:/Workspace/FW_Inertia/branch_indesit/PlatformLibrary/LIB_IOManager\ExternalOutputManager.c **** 
 764:C:/Workspace/FW_Inertia/branch_indesit/PlatformLibrary/LIB_IOManager\ExternalOutputManager.c **** \author		Alessandro Sabbatini
 765:C:/Workspace/FW_Inertia/branch_indesit/PlatformLibrary/LIB_IOManager\ExternalOutputManager.c **** 
 766:C:/Workspace/FW_Inertia/branch_indesit/PlatformLibrary/LIB_IOManager\ExternalOutputManager.c **** \date		02/09/2014
 767:C:/Workspace/FW_Inertia/branch_indesit/PlatformLibrary/LIB_IOManager\ExternalOutputManager.c **** 
 768:C:/Workspace/FW_Inertia/branch_indesit/PlatformLibrary/LIB_IOManager\ExternalOutputManager.c **** \version    1.0.0
 769:C:/Workspace/FW_Inertia/branch_indesit/PlatformLibrary/LIB_IOManager\ExternalOutputManager.c **** 
 770:C:/Workspace/FW_Inertia/branch_indesit/PlatformLibrary/LIB_IOManager\ExternalOutputManager.c **** \note       \par \b Nota1:
 771:C:/Workspace/FW_Inertia/branch_indesit/PlatformLibrary/LIB_IOManager\ExternalOutputManager.c ****             documentation by Alessandro Sabbatini
 772:C:/Workspace/FW_Inertia/branch_indesit/PlatformLibrary/LIB_IOManager\ExternalOutputManager.c **** */
 773:C:/Workspace/FW_Inertia/branch_indesit/PlatformLibrary/LIB_IOManager\ExternalOutputManager.c **** bool_t LIB_IOM_Ext_GetCommonBuffer(uint8_t commCh, uint8_t *pCmnData, uint8_t szData)
 774:C:/Workspace/FW_Inertia/branch_indesit/PlatformLibrary/LIB_IOManager\ExternalOutputManager.c **** {
 775:C:/Workspace/FW_Inertia/branch_indesit/PlatformLibrary/LIB_IOManager\ExternalOutputManager.c **** 	bool_t resVal = FALSE;
 776:C:/Workspace/FW_Inertia/branch_indesit/PlatformLibrary/LIB_IOManager\ExternalOutputManager.c **** 
 777:C:/Workspace/FW_Inertia/branch_indesit/PlatformLibrary/LIB_IOManager\ExternalOutputManager.c **** #if defined(CONFIG_LIB_EXTERNAL_BOARD_SUPPORT) && defined(CONFIG_EXTERNAL_GLOBAL_DATA_BLOCK_SUPPORT
 778:C:/Workspace/FW_Inertia/branch_indesit/PlatformLibrary/LIB_IOManager\ExternalOutputManager.c **** 
 779:C:/Workspace/FW_Inertia/branch_indesit/PlatformLibrary/LIB_IOManager\ExternalOutputManager.c **** #if defined(IOM_EXTERNAL_0_ENABLED)
 780:C:/Workspace/FW_Inertia/branch_indesit/PlatformLibrary/LIB_IOManager\ExternalOutputManager.c **** 	if (commCh == EXTERNAL_0)
 781:C:/Workspace/FW_Inertia/branch_indesit/PlatformLibrary/LIB_IOManager\ExternalOutputManager.c **** 	{
 782:C:/Workspace/FW_Inertia/branch_indesit/PlatformLibrary/LIB_IOManager\ExternalOutputManager.c **** 		uint8_t maxSize = MIN(sizeof(ExternalGlobalData_0), szData);
 783:C:/Workspace/FW_Inertia/branch_indesit/PlatformLibrary/LIB_IOManager\ExternalOutputManager.c **** 
 784:C:/Workspace/FW_Inertia/branch_indesit/PlatformLibrary/LIB_IOManager\ExternalOutputManager.c **** 		memcpy(pCmnData, ExternalGlobalData_0, maxSize);
 785:C:/Workspace/FW_Inertia/branch_indesit/PlatformLibrary/LIB_IOManager\ExternalOutputManager.c **** 		resVal = TRUE;
 786:C:/Workspace/FW_Inertia/branch_indesit/PlatformLibrary/LIB_IOManager\ExternalOutputManager.c **** 	}
 787:C:/Workspace/FW_Inertia/branch_indesit/PlatformLibrary/LIB_IOManager\ExternalOutputManager.c **** #endif
 788:C:/Workspace/FW_Inertia/branch_indesit/PlatformLibrary/LIB_IOManager\ExternalOutputManager.c **** #if defined(IOM_EXTERNAL_1_ENABLED)
 789:C:/Workspace/FW_Inertia/branch_indesit/PlatformLibrary/LIB_IOManager\ExternalOutputManager.c **** 	if (commCh == EXTERNAL_1)
 790:C:/Workspace/FW_Inertia/branch_indesit/PlatformLibrary/LIB_IOManager\ExternalOutputManager.c **** 	{
 791:C:/Workspace/FW_Inertia/branch_indesit/PlatformLibrary/LIB_IOManager\ExternalOutputManager.c **** 		uint8_t maxSize = MIN(sizeof(ExternalGlobalData_1), szData);
 792:C:/Workspace/FW_Inertia/branch_indesit/PlatformLibrary/LIB_IOManager\ExternalOutputManager.c **** 
 793:C:/Workspace/FW_Inertia/branch_indesit/PlatformLibrary/LIB_IOManager\ExternalOutputManager.c **** 		memcpy(pCmnData, ExternalGlobalData_1, maxSize);
 794:C:/Workspace/FW_Inertia/branch_indesit/PlatformLibrary/LIB_IOManager\ExternalOutputManager.c **** 		resVal = TRUE;
 795:C:/Workspace/FW_Inertia/branch_indesit/PlatformLibrary/LIB_IOManager\ExternalOutputManager.c **** 	}
 796:C:/Workspace/FW_Inertia/branch_indesit/PlatformLibrary/LIB_IOManager\ExternalOutputManager.c **** #endif
 797:C:/Workspace/FW_Inertia/branch_indesit/PlatformLibrary/LIB_IOManager\ExternalOutputManager.c **** 
 798:C:/Workspace/FW_Inertia/branch_indesit/PlatformLibrary/LIB_IOManager\ExternalOutputManager.c **** #endif
 799:C:/Workspace/FW_Inertia/branch_indesit/PlatformLibrary/LIB_IOManager\ExternalOutputManager.c **** 
 800:C:/Workspace/FW_Inertia/branch_indesit/PlatformLibrary/LIB_IOManager\ExternalOutputManager.c **** 	return resVal;
 801:C:/Workspace/FW_Inertia/branch_indesit/PlatformLibrary/LIB_IOManager\ExternalOutputManager.c **** 
 802:C:/Workspace/FW_Inertia/branch_indesit/PlatformLibrary/LIB_IOManager\ExternalOutputManager.c **** }
 803:C:/Workspace/FW_Inertia/branch_indesit/PlatformLibrary/LIB_IOManager\ExternalOutputManager.c **** 
 804:C:/Workspace/FW_Inertia/branch_indesit/PlatformLibrary/LIB_IOManager\ExternalOutputManager.c **** 
 805:C:/Workspace/FW_Inertia/branch_indesit/PlatformLibrary/LIB_IOManager\ExternalOutputManager.c **** 
 806:C:/Workspace/FW_Inertia/branch_indesit/PlatformLibrary/LIB_IOManager\ExternalOutputManager.c **** /**
 807:C:/Workspace/FW_Inertia/branch_indesit/PlatformLibrary/LIB_IOManager\ExternalOutputManager.c **** \n Returns UART channel of an Extended load - if external
 808:C:/Workspace/FW_Inertia/branch_indesit/PlatformLibrary/LIB_IOManager\ExternalOutputManager.c **** 
 809:C:/Workspace/FW_Inertia/branch_indesit/PlatformLibrary/LIB_IOManager\ExternalOutputManager.c **** \param  [in] commCh		UART channel
 810:C:/Workspace/FW_Inertia/branch_indesit/PlatformLibrary/LIB_IOManager\ExternalOutputManager.c **** 
 811:C:/Workspace/FW_Inertia/branch_indesit/PlatformLibrary/LIB_IOManager\ExternalOutputManager.c **** \return 	uint8_t
 812:C:/Workspace/FW_Inertia/branch_indesit/PlatformLibrary/LIB_IOManager\ExternalOutputManager.c **** 
 813:C:/Workspace/FW_Inertia/branch_indesit/PlatformLibrary/LIB_IOManager\ExternalOutputManager.c **** \retval		LOAD_NOT_FOUND		Load is not external
 814:C:/Workspace/FW_Inertia/branch_indesit/PlatformLibrary/LIB_IOManager\ExternalOutputManager.c **** \retval		!= LOAD_NOT_FOUND	UART channel
 815:C:/Workspace/FW_Inertia/branch_indesit/PlatformLibrary/LIB_IOManager\ExternalOutputManager.c **** 
 816:C:/Workspace/FW_Inertia/branch_indesit/PlatformLibrary/LIB_IOManager\ExternalOutputManager.c **** \author		Alessandro Sabbatini
 817:C:/Workspace/FW_Inertia/branch_indesit/PlatformLibrary/LIB_IOManager\ExternalOutputManager.c **** 
 818:C:/Workspace/FW_Inertia/branch_indesit/PlatformLibrary/LIB_IOManager\ExternalOutputManager.c **** \date		02/09/2014
 819:C:/Workspace/FW_Inertia/branch_indesit/PlatformLibrary/LIB_IOManager\ExternalOutputManager.c **** 
 820:C:/Workspace/FW_Inertia/branch_indesit/PlatformLibrary/LIB_IOManager\ExternalOutputManager.c **** \version    1.0.0
 821:C:/Workspace/FW_Inertia/branch_indesit/PlatformLibrary/LIB_IOManager\ExternalOutputManager.c **** 
 822:C:/Workspace/FW_Inertia/branch_indesit/PlatformLibrary/LIB_IOManager\ExternalOutputManager.c **** \note       \par \b Nota1:
 823:C:/Workspace/FW_Inertia/branch_indesit/PlatformLibrary/LIB_IOManager\ExternalOutputManager.c ****             documentation by Alessandro Sabbatini
 824:C:/Workspace/FW_Inertia/branch_indesit/PlatformLibrary/LIB_IOManager\ExternalOutputManager.c **** */
 825:C:/Workspace/FW_Inertia/branch_indesit/PlatformLibrary/LIB_IOManager\ExternalOutputManager.c **** uint8_t LIB_IOM_Ext_GetExtdLoadComChan(uint8_t extloadItem)
 826:C:/Workspace/FW_Inertia/branch_indesit/PlatformLibrary/LIB_IOManager\ExternalOutputManager.c **** {
 827:C:/Workspace/FW_Inertia/branch_indesit/PlatformLibrary/LIB_IOManager\ExternalOutputManager.c **** 	uint8_t retVal = EXTERNAL_NUM;
 828:C:/Workspace/FW_Inertia/branch_indesit/PlatformLibrary/LIB_IOManager\ExternalOutputManager.c **** 	uint8_t extBoardPos = LIB_IOM_GetExtBoardPos(extloadItem);
 829:C:/Workspace/FW_Inertia/branch_indesit/PlatformLibrary/LIB_IOManager\ExternalOutputManager.c **** 
 830:C:/Workspace/FW_Inertia/branch_indesit/PlatformLibrary/LIB_IOManager\ExternalOutputManager.c **** 	if (extBoardPos != LOAD_NOT_FOUND)
 831:C:/Workspace/FW_Inertia/branch_indesit/PlatformLibrary/LIB_IOManager\ExternalOutputManager.c **** 	{
 832:C:/Workspace/FW_Inertia/branch_indesit/PlatformLibrary/LIB_IOManager\ExternalOutputManager.c **** 		retVal = IOM_External_LoadsTable[extBoardPos].CommCh;
 833:C:/Workspace/FW_Inertia/branch_indesit/PlatformLibrary/LIB_IOManager\ExternalOutputManager.c **** 	}
 834:C:/Workspace/FW_Inertia/branch_indesit/PlatformLibrary/LIB_IOManager\ExternalOutputManager.c **** 
 835:C:/Workspace/FW_Inertia/branch_indesit/PlatformLibrary/LIB_IOManager\ExternalOutputManager.c **** 	return retVal;
 836:C:/Workspace/FW_Inertia/branch_indesit/PlatformLibrary/LIB_IOManager\ExternalOutputManager.c **** }
 837:C:/Workspace/FW_Inertia/branch_indesit/PlatformLibrary/LIB_IOManager\ExternalOutputManager.c **** 
 838:C:/Workspace/FW_Inertia/branch_indesit/PlatformLibrary/LIB_IOManager\ExternalOutputManager.c **** /**
 839:C:/Workspace/FW_Inertia/branch_indesit/PlatformLibrary/LIB_IOManager\ExternalOutputManager.c **** \n Returns last External Board counter set
 840:C:/Workspace/FW_Inertia/branch_indesit/PlatformLibrary/LIB_IOManager\ExternalOutputManager.c **** 
 841:C:/Workspace/FW_Inertia/branch_indesit/PlatformLibrary/LIB_IOManager\ExternalOutputManager.c **** \param  	none
 842:C:/Workspace/FW_Inertia/branch_indesit/PlatformLibrary/LIB_IOManager\ExternalOutputManager.c **** 
 843:C:/Workspace/FW_Inertia/branch_indesit/PlatformLibrary/LIB_IOManager\ExternalOutputManager.c **** \return 	uint8_t				ExternalBoardCounter value
 844:C:/Workspace/FW_Inertia/branch_indesit/PlatformLibrary/LIB_IOManager\ExternalOutputManager.c **** 
 845:C:/Workspace/FW_Inertia/branch_indesit/PlatformLibrary/LIB_IOManager\ExternalOutputManager.c **** \author		Alessandro Sabbatini
 846:C:/Workspace/FW_Inertia/branch_indesit/PlatformLibrary/LIB_IOManager\ExternalOutputManager.c **** 
 847:C:/Workspace/FW_Inertia/branch_indesit/PlatformLibrary/LIB_IOManager\ExternalOutputManager.c **** \date		02/09/2014
 848:C:/Workspace/FW_Inertia/branch_indesit/PlatformLibrary/LIB_IOManager\ExternalOutputManager.c **** 
 849:C:/Workspace/FW_Inertia/branch_indesit/PlatformLibrary/LIB_IOManager\ExternalOutputManager.c **** \version    1.0.0
 850:C:/Workspace/FW_Inertia/branch_indesit/PlatformLibrary/LIB_IOManager\ExternalOutputManager.c **** 
 851:C:/Workspace/FW_Inertia/branch_indesit/PlatformLibrary/LIB_IOManager\ExternalOutputManager.c **** \note       \par \b Nota1:
 852:C:/Workspace/FW_Inertia/branch_indesit/PlatformLibrary/LIB_IOManager\ExternalOutputManager.c ****             documentation by Alessandro Sabbatini
 853:C:/Workspace/FW_Inertia/branch_indesit/PlatformLibrary/LIB_IOManager\ExternalOutputManager.c **** */
 854:C:/Workspace/FW_Inertia/branch_indesit/PlatformLibrary/LIB_IOManager\ExternalOutputManager.c **** uint8_t LIB_IOM_Ext_GetBoardCounter(void)
 855:C:/Workspace/FW_Inertia/branch_indesit/PlatformLibrary/LIB_IOManager\ExternalOutputManager.c **** {
 856:C:/Workspace/FW_Inertia/branch_indesit/PlatformLibrary/LIB_IOManager\ExternalOutputManager.c **** 	return ExternalBoardCounter;
 857:C:/Workspace/FW_Inertia/branch_indesit/PlatformLibrary/LIB_IOManager\ExternalOutputManager.c **** }
 858:C:/Workspace/FW_Inertia/branch_indesit/PlatformLibrary/LIB_IOManager\ExternalOutputManager.c **** 
 859:C:/Workspace/FW_Inertia/branch_indesit/PlatformLibrary/LIB_IOManager\ExternalOutputManager.c **** /**
 860:C:/Workspace/FW_Inertia/branch_indesit/PlatformLibrary/LIB_IOManager\ExternalOutputManager.c **** \n Returns the load's status value decoding the command buffer value
 861:C:/Workspace/FW_Inertia/branch_indesit/PlatformLibrary/LIB_IOManager\ExternalOutputManager.c **** 
 862:C:/Workspace/FW_Inertia/branch_indesit/PlatformLibrary/LIB_IOManager\ExternalOutputManager.c **** \param  [in] pilotType PilotType of the load
 863:C:/Workspace/FW_Inertia/branch_indesit/PlatformLibrary/LIB_IOManager\ExternalOutputManager.c **** \param  [in] pLoad pointer to GIOM_LoadStruct structure containing the command
 864:C:/Workspace/FW_Inertia/branch_indesit/PlatformLibrary/LIB_IOManager\ExternalOutputManager.c **** 
 865:C:/Workspace/FW_Inertia/branch_indesit/PlatformLibrary/LIB_IOManager\ExternalOutputManager.c **** \return 	bool_t
 866:C:/Workspace/FW_Inertia/branch_indesit/PlatformLibrary/LIB_IOManager\ExternalOutputManager.c **** 
 867:C:/Workspace/FW_Inertia/branch_indesit/PlatformLibrary/LIB_IOManager\ExternalOutputManager.c **** \retval		FALSE load is inactive
 868:C:/Workspace/FW_Inertia/branch_indesit/PlatformLibrary/LIB_IOManager\ExternalOutputManager.c **** \retval		TRUE load is active
 869:C:/Workspace/FW_Inertia/branch_indesit/PlatformLibrary/LIB_IOManager\ExternalOutputManager.c **** 
 870:C:/Workspace/FW_Inertia/branch_indesit/PlatformLibrary/LIB_IOManager\ExternalOutputManager.c **** \author		Roberto Fioravanti
 871:C:/Workspace/FW_Inertia/branch_indesit/PlatformLibrary/LIB_IOManager\ExternalOutputManager.c **** 
 872:C:/Workspace/FW_Inertia/branch_indesit/PlatformLibrary/LIB_IOManager\ExternalOutputManager.c **** \date			13/09/2010
 873:C:/Workspace/FW_Inertia/branch_indesit/PlatformLibrary/LIB_IOManager\ExternalOutputManager.c **** 
 874:C:/Workspace/FW_Inertia/branch_indesit/PlatformLibrary/LIB_IOManager\ExternalOutputManager.c **** \version    1.0.0
 875:C:/Workspace/FW_Inertia/branch_indesit/PlatformLibrary/LIB_IOManager\ExternalOutputManager.c **** 
 876:C:/Workspace/FW_Inertia/branch_indesit/PlatformLibrary/LIB_IOManager\ExternalOutputManager.c **** \note       \par \b Nota1:
 877:C:/Workspace/FW_Inertia/branch_indesit/PlatformLibrary/LIB_IOManager\ExternalOutputManager.c ****             documentation by Roberto Fioravanti 
 878:C:/Workspace/FW_Inertia/branch_indesit/PlatformLibrary/LIB_IOManager\ExternalOutputManager.c **** */
 879:C:/Workspace/FW_Inertia/branch_indesit/PlatformLibrary/LIB_IOManager\ExternalOutputManager.c **** bool_t	LIB_IOM_External_GetLoadStatus(uint8_t pilotType, const GIOM_LoadStruct *const pLoad)
 880:C:/Workspace/FW_Inertia/branch_indesit/PlatformLibrary/LIB_IOManager\ExternalOutputManager.c **** {
 881:C:/Workspace/FW_Inertia/branch_indesit/PlatformLibrary/LIB_IOManager\ExternalOutputManager.c **** 	bool_t bLoadStatus=FALSE;
 882:C:/Workspace/FW_Inertia/branch_indesit/PlatformLibrary/LIB_IOManager\ExternalOutputManager.c **** 	
 883:C:/Workspace/FW_Inertia/branch_indesit/PlatformLibrary/LIB_IOManager\ExternalOutputManager.c **** 	switch(pilotType)
 884:C:/Workspace/FW_Inertia/branch_indesit/PlatformLibrary/LIB_IOManager\ExternalOutputManager.c **** 	{
 885:C:/Workspace/FW_Inertia/branch_indesit/PlatformLibrary/LIB_IOManager\ExternalOutputManager.c **** #if defined(CONFIG_EXTERN_MODULE_L_SUPPORT)
 886:C:/Workspace/FW_Inertia/branch_indesit/PlatformLibrary/LIB_IOManager\ExternalOutputManager.c **** 		case EXTERN_MODULE_L:
 887:C:/Workspace/FW_Inertia/branch_indesit/PlatformLibrary/LIB_IOManager\ExternalOutputManager.c **** 		{
 888:C:/Workspace/FW_Inertia/branch_indesit/PlatformLibrary/LIB_IOManager\ExternalOutputManager.c **** 			ExternalBldcWashCmdType* tmpPtr = (ExternalBldcWashCmdType*) &pLoad->data[0];
 889:C:/Workspace/FW_Inertia/branch_indesit/PlatformLibrary/LIB_IOManager\ExternalOutputManager.c **** 
 890:C:/Workspace/FW_Inertia/branch_indesit/PlatformLibrary/LIB_IOManager\ExternalOutputManager.c **** 			if(tmpPtr->rpm)
 891:C:/Workspace/FW_Inertia/branch_indesit/PlatformLibrary/LIB_IOManager\ExternalOutputManager.c **** 			{
 892:C:/Workspace/FW_Inertia/branch_indesit/PlatformLibrary/LIB_IOManager\ExternalOutputManager.c **** 				bLoadStatus=TRUE;
 893:C:/Workspace/FW_Inertia/branch_indesit/PlatformLibrary/LIB_IOManager\ExternalOutputManager.c **** 			}
 894:C:/Workspace/FW_Inertia/branch_indesit/PlatformLibrary/LIB_IOManager\ExternalOutputManager.c **** 		}
 895:C:/Workspace/FW_Inertia/branch_indesit/PlatformLibrary/LIB_IOManager\ExternalOutputManager.c **** 			break;
 896:C:/Workspace/FW_Inertia/branch_indesit/PlatformLibrary/LIB_IOManager\ExternalOutputManager.c **** #endif /* defined(CONFIG_EXTERN_MODULE_L_SUPPORT) */
 897:C:/Workspace/FW_Inertia/branch_indesit/PlatformLibrary/LIB_IOManager\ExternalOutputManager.c **** #if defined(CONFIG_PMSM_MOTOR_L_SUPPORT)
 898:C:/Workspace/FW_Inertia/branch_indesit/PlatformLibrary/LIB_IOManager\ExternalOutputManager.c **** 		case PMSM_MOTOR_L:
 899:C:/Workspace/FW_Inertia/branch_indesit/PlatformLibrary/LIB_IOManager\ExternalOutputManager.c **** 		{
 900:C:/Workspace/FW_Inertia/branch_indesit/PlatformLibrary/LIB_IOManager\ExternalOutputManager.c **** 			ExternalBldcWashCmdType* tmpPtr = (ExternalBldcWashCmdType*) &pLoad->data[0];
 901:C:/Workspace/FW_Inertia/branch_indesit/PlatformLibrary/LIB_IOManager\ExternalOutputManager.c **** 
 902:C:/Workspace/FW_Inertia/branch_indesit/PlatformLibrary/LIB_IOManager\ExternalOutputManager.c **** 			if(tmpPtr->rpm)
 903:C:/Workspace/FW_Inertia/branch_indesit/PlatformLibrary/LIB_IOManager\ExternalOutputManager.c **** 			{
 904:C:/Workspace/FW_Inertia/branch_indesit/PlatformLibrary/LIB_IOManager\ExternalOutputManager.c **** 				bLoadStatus=TRUE;
 905:C:/Workspace/FW_Inertia/branch_indesit/PlatformLibrary/LIB_IOManager\ExternalOutputManager.c **** 			}
 906:C:/Workspace/FW_Inertia/branch_indesit/PlatformLibrary/LIB_IOManager\ExternalOutputManager.c **** 		}
 907:C:/Workspace/FW_Inertia/branch_indesit/PlatformLibrary/LIB_IOManager\ExternalOutputManager.c **** 			break;
 908:C:/Workspace/FW_Inertia/branch_indesit/PlatformLibrary/LIB_IOManager\ExternalOutputManager.c **** #endif
 909:C:/Workspace/FW_Inertia/branch_indesit/PlatformLibrary/LIB_IOManager\ExternalOutputManager.c **** #if defined(CONFIG_BLDC_WASH_L_SUPPORT)
 910:C:/Workspace/FW_Inertia/branch_indesit/PlatformLibrary/LIB_IOManager\ExternalOutputManager.c **** 		case BLDC_WASH_L:
 911:C:/Workspace/FW_Inertia/branch_indesit/PlatformLibrary/LIB_IOManager\ExternalOutputManager.c **** 		{
 912:C:/Workspace/FW_Inertia/branch_indesit/PlatformLibrary/LIB_IOManager\ExternalOutputManager.c **** 			ExternalBldcWashCmdType* tmpPtr = (ExternalBldcWashCmdType*) &pLoad->data[0];
 913:C:/Workspace/FW_Inertia/branch_indesit/PlatformLibrary/LIB_IOManager\ExternalOutputManager.c **** 
 914:C:/Workspace/FW_Inertia/branch_indesit/PlatformLibrary/LIB_IOManager\ExternalOutputManager.c **** 			if(tmpPtr->rpm)
 915:C:/Workspace/FW_Inertia/branch_indesit/PlatformLibrary/LIB_IOManager\ExternalOutputManager.c **** 			{
 916:C:/Workspace/FW_Inertia/branch_indesit/PlatformLibrary/LIB_IOManager\ExternalOutputManager.c **** 				bLoadStatus=TRUE;
 917:C:/Workspace/FW_Inertia/branch_indesit/PlatformLibrary/LIB_IOManager\ExternalOutputManager.c **** 			}
 918:C:/Workspace/FW_Inertia/branch_indesit/PlatformLibrary/LIB_IOManager\ExternalOutputManager.c **** 		}
 919:C:/Workspace/FW_Inertia/branch_indesit/PlatformLibrary/LIB_IOManager\ExternalOutputManager.c **** 			break;
 920:C:/Workspace/FW_Inertia/branch_indesit/PlatformLibrary/LIB_IOManager\ExternalOutputManager.c **** #endif
 921:C:/Workspace/FW_Inertia/branch_indesit/PlatformLibrary/LIB_IOManager\ExternalOutputManager.c **** #if defined(CONFIG_BLDC_DRAIN_L_SUPPORT)
 922:C:/Workspace/FW_Inertia/branch_indesit/PlatformLibrary/LIB_IOManager\ExternalOutputManager.c **** 		case BLDC_DRAIN_L:
 923:C:/Workspace/FW_Inertia/branch_indesit/PlatformLibrary/LIB_IOManager\ExternalOutputManager.c **** 		{
 924:C:/Workspace/FW_Inertia/branch_indesit/PlatformLibrary/LIB_IOManager\ExternalOutputManager.c **** 			ExternalBldcDrainCmdType* tmpPtr = (ExternalBldcDrainCmdType*) &pLoad->data[0];
 925:C:/Workspace/FW_Inertia/branch_indesit/PlatformLibrary/LIB_IOManager\ExternalOutputManager.c **** 
 926:C:/Workspace/FW_Inertia/branch_indesit/PlatformLibrary/LIB_IOManager\ExternalOutputManager.c **** 			if(tmpPtr->rpm)
 927:C:/Workspace/FW_Inertia/branch_indesit/PlatformLibrary/LIB_IOManager\ExternalOutputManager.c **** 			{
 928:C:/Workspace/FW_Inertia/branch_indesit/PlatformLibrary/LIB_IOManager\ExternalOutputManager.c **** 				bLoadStatus=TRUE;
 929:C:/Workspace/FW_Inertia/branch_indesit/PlatformLibrary/LIB_IOManager\ExternalOutputManager.c **** 			}
 930:C:/Workspace/FW_Inertia/branch_indesit/PlatformLibrary/LIB_IOManager\ExternalOutputManager.c **** 		}
 931:C:/Workspace/FW_Inertia/branch_indesit/PlatformLibrary/LIB_IOManager\ExternalOutputManager.c **** 			break;
 932:C:/Workspace/FW_Inertia/branch_indesit/PlatformLibrary/LIB_IOManager\ExternalOutputManager.c **** #endif
 933:C:/Workspace/FW_Inertia/branch_indesit/PlatformLibrary/LIB_IOManager\ExternalOutputManager.c **** #if defined(CONFIG_PMSM_DRYER_L_SUPPORT)
 934:C:/Workspace/FW_Inertia/branch_indesit/PlatformLibrary/LIB_IOManager\ExternalOutputManager.c **** 		case PMSM_DRYER_L:
 935:C:/Workspace/FW_Inertia/branch_indesit/PlatformLibrary/LIB_IOManager\ExternalOutputManager.c **** 		{
 936:C:/Workspace/FW_Inertia/branch_indesit/PlatformLibrary/LIB_IOManager\ExternalOutputManager.c **** 			ExternalBldcDrainCmdType* tmpPtr = (ExternalBldcDrainCmdType*) &pLoad->data[0];
 937:C:/Workspace/FW_Inertia/branch_indesit/PlatformLibrary/LIB_IOManager\ExternalOutputManager.c **** 
 938:C:/Workspace/FW_Inertia/branch_indesit/PlatformLibrary/LIB_IOManager\ExternalOutputManager.c **** 			if(tmpPtr->rpm)
 939:C:/Workspace/FW_Inertia/branch_indesit/PlatformLibrary/LIB_IOManager\ExternalOutputManager.c **** 			{
 940:C:/Workspace/FW_Inertia/branch_indesit/PlatformLibrary/LIB_IOManager\ExternalOutputManager.c **** 				bLoadStatus=TRUE;
 941:C:/Workspace/FW_Inertia/branch_indesit/PlatformLibrary/LIB_IOManager\ExternalOutputManager.c **** 			}
 942:C:/Workspace/FW_Inertia/branch_indesit/PlatformLibrary/LIB_IOManager\ExternalOutputManager.c **** 		}
 943:C:/Workspace/FW_Inertia/branch_indesit/PlatformLibrary/LIB_IOManager\ExternalOutputManager.c **** 			break;
 944:C:/Workspace/FW_Inertia/branch_indesit/PlatformLibrary/LIB_IOManager\ExternalOutputManager.c **** #endif
 945:C:/Workspace/FW_Inertia/branch_indesit/PlatformLibrary/LIB_IOManager\ExternalOutputManager.c **** #if defined(CONFIG_MULTIPOWER_COMP_L_SUPPORT)
 946:C:/Workspace/FW_Inertia/branch_indesit/PlatformLibrary/LIB_IOManager\ExternalOutputManager.c **** 	    case MULTIPOWER_COMP_L:
 947:C:/Workspace/FW_Inertia/branch_indesit/PlatformLibrary/LIB_IOManager\ExternalOutputManager.c **** 	    {
 948:C:/Workspace/FW_Inertia/branch_indesit/PlatformLibrary/LIB_IOManager\ExternalOutputManager.c **** 	    	ExternalBldcDrainCmdType* tmpPtr = (ExternalBldcDrainCmdType*) &pLoad->data[0];
 949:C:/Workspace/FW_Inertia/branch_indesit/PlatformLibrary/LIB_IOManager\ExternalOutputManager.c **** 
 950:C:/Workspace/FW_Inertia/branch_indesit/PlatformLibrary/LIB_IOManager\ExternalOutputManager.c **** 			if(tmpPtr->rpm)
 951:C:/Workspace/FW_Inertia/branch_indesit/PlatformLibrary/LIB_IOManager\ExternalOutputManager.c **** 			{
 952:C:/Workspace/FW_Inertia/branch_indesit/PlatformLibrary/LIB_IOManager\ExternalOutputManager.c **** 				bLoadStatus=TRUE;
 953:C:/Workspace/FW_Inertia/branch_indesit/PlatformLibrary/LIB_IOManager\ExternalOutputManager.c **** 			}
 954:C:/Workspace/FW_Inertia/branch_indesit/PlatformLibrary/LIB_IOManager\ExternalOutputManager.c **** 	    }
 955:C:/Workspace/FW_Inertia/branch_indesit/PlatformLibrary/LIB_IOManager\ExternalOutputManager.c **** 			break;
 956:C:/Workspace/FW_Inertia/branch_indesit/PlatformLibrary/LIB_IOManager\ExternalOutputManager.c **** #endif /* defined(MULTIPOWER_COMP_L_SUPPORT) */
 957:C:/Workspace/FW_Inertia/branch_indesit/PlatformLibrary/LIB_IOManager\ExternalOutputManager.c **** #if defined(CONFIG_BRUSHLESS_HOOD_L_SUPPORT)
 958:C:/Workspace/FW_Inertia/branch_indesit/PlatformLibrary/LIB_IOManager\ExternalOutputManager.c **** 		case BRUSHLESS_HOOD_L:
 959:C:/Workspace/FW_Inertia/branch_indesit/PlatformLibrary/LIB_IOManager\ExternalOutputManager.c **** 		{
 960:C:/Workspace/FW_Inertia/branch_indesit/PlatformLibrary/LIB_IOManager\ExternalOutputManager.c **** 			ExternalBldcDrainCmdType* tmpPtr = (ExternalBldcDrainCmdType*) &pLoad->data[0];
 961:C:/Workspace/FW_Inertia/branch_indesit/PlatformLibrary/LIB_IOManager\ExternalOutputManager.c **** 
 962:C:/Workspace/FW_Inertia/branch_indesit/PlatformLibrary/LIB_IOManager\ExternalOutputManager.c **** 			if(tmpPtr->rpm)
 963:C:/Workspace/FW_Inertia/branch_indesit/PlatformLibrary/LIB_IOManager\ExternalOutputManager.c **** 			{
 964:C:/Workspace/FW_Inertia/branch_indesit/PlatformLibrary/LIB_IOManager\ExternalOutputManager.c **** 				bLoadStatus=TRUE;
 965:C:/Workspace/FW_Inertia/branch_indesit/PlatformLibrary/LIB_IOManager\ExternalOutputManager.c **** 			}
 966:C:/Workspace/FW_Inertia/branch_indesit/PlatformLibrary/LIB_IOManager\ExternalOutputManager.c **** 			break;
 967:C:/Workspace/FW_Inertia/branch_indesit/PlatformLibrary/LIB_IOManager\ExternalOutputManager.c **** 		}
 968:C:/Workspace/FW_Inertia/branch_indesit/PlatformLibrary/LIB_IOManager\ExternalOutputManager.c **** #endif
 969:C:/Workspace/FW_Inertia/branch_indesit/PlatformLibrary/LIB_IOManager\ExternalOutputManager.c **** #if defined(CONFIG_AIRSENSOR_HOOD_L_SUPPORT)
 970:C:/Workspace/FW_Inertia/branch_indesit/PlatformLibrary/LIB_IOManager\ExternalOutputManager.c **** 		case AIRSENSOR_HOOD_L:
 971:C:/Workspace/FW_Inertia/branch_indesit/PlatformLibrary/LIB_IOManager\ExternalOutputManager.c **** 			/* as it's a sensor it's always active */
 972:C:/Workspace/FW_Inertia/branch_indesit/PlatformLibrary/LIB_IOManager\ExternalOutputManager.c **** 			bLoadStatus=TRUE;
 973:C:/Workspace/FW_Inertia/branch_indesit/PlatformLibrary/LIB_IOManager\ExternalOutputManager.c **** 			break;
 974:C:/Workspace/FW_Inertia/branch_indesit/PlatformLibrary/LIB_IOManager\ExternalOutputManager.c **** #endif
 975:C:/Workspace/FW_Inertia/branch_indesit/PlatformLibrary/LIB_IOManager\ExternalOutputManager.c **** 	}
 976:C:/Workspace/FW_Inertia/branch_indesit/PlatformLibrary/LIB_IOManager\ExternalOutputManager.c **** 	
 977:C:/Workspace/FW_Inertia/branch_indesit/PlatformLibrary/LIB_IOManager\ExternalOutputManager.c **** 	return bLoadStatus;
 978:C:/Workspace/FW_Inertia/branch_indesit/PlatformLibrary/LIB_IOManager\ExternalOutputManager.c **** }
 979:C:/Workspace/FW_Inertia/branch_indesit/PlatformLibrary/LIB_IOManager\ExternalOutputManager.c **** 
 980:C:/Workspace/FW_Inertia/branch_indesit/PlatformLibrary/LIB_IOManager\ExternalOutputManager.c **** 
 981:C:/Workspace/FW_Inertia/branch_indesit/PlatformLibrary/LIB_IOManager\ExternalOutputManager.c **** 
 982:C:/Workspace/FW_Inertia/branch_indesit/PlatformLibrary/LIB_IOManager\ExternalOutputManager.c **** 
 983:C:/Workspace/FW_Inertia/branch_indesit/PlatformLibrary/LIB_IOManager\ExternalOutputManager.c **** 
 984:C:/Workspace/FW_Inertia/branch_indesit/PlatformLibrary/LIB_IOManager\ExternalOutputManager.c **** /**
 985:C:/Workspace/FW_Inertia/branch_indesit/PlatformLibrary/LIB_IOManager\ExternalOutputManager.c **** \n Returns the load's status value decoding the connad value
 986:C:/Workspace/FW_Inertia/branch_indesit/PlatformLibrary/LIB_IOManager\ExternalOutputManager.c **** 
 987:C:/Workspace/FW_Inertia/branch_indesit/PlatformLibrary/LIB_IOManager\ExternalOutputManager.c **** \param  [in] pilotType PilotType of the load
 988:C:/Workspace/FW_Inertia/branch_indesit/PlatformLibrary/LIB_IOManager\ExternalOutputManager.c **** \param  [in] pLoad pointer to GIOM_LoadStruct atructure containing the command
 989:C:/Workspace/FW_Inertia/branch_indesit/PlatformLibrary/LIB_IOManager\ExternalOutputManager.c **** 
 990:C:/Workspace/FW_Inertia/branch_indesit/PlatformLibrary/LIB_IOManager\ExternalOutputManager.c **** \return 	bool_t
 991:C:/Workspace/FW_Inertia/branch_indesit/PlatformLibrary/LIB_IOManager\ExternalOutputManager.c **** 
 992:C:/Workspace/FW_Inertia/branch_indesit/PlatformLibrary/LIB_IOManager\ExternalOutputManager.c **** \retval		FALSE load is inactive
 993:C:/Workspace/FW_Inertia/branch_indesit/PlatformLibrary/LIB_IOManager\ExternalOutputManager.c **** \retval		TRUE load is active
 994:C:/Workspace/FW_Inertia/branch_indesit/PlatformLibrary/LIB_IOManager\ExternalOutputManager.c **** 
 995:C:/Workspace/FW_Inertia/branch_indesit/PlatformLibrary/LIB_IOManager\ExternalOutputManager.c **** \author		Roberto Fioravanti
 996:C:/Workspace/FW_Inertia/branch_indesit/PlatformLibrary/LIB_IOManager\ExternalOutputManager.c **** 
 997:C:/Workspace/FW_Inertia/branch_indesit/PlatformLibrary/LIB_IOManager\ExternalOutputManager.c **** \date			13/09/2010
 998:C:/Workspace/FW_Inertia/branch_indesit/PlatformLibrary/LIB_IOManager\ExternalOutputManager.c **** 
 999:C:/Workspace/FW_Inertia/branch_indesit/PlatformLibrary/LIB_IOManager\ExternalOutputManager.c **** \version    1.0.0
1000:C:/Workspace/FW_Inertia/branch_indesit/PlatformLibrary/LIB_IOManager\ExternalOutputManager.c **** 
1001:C:/Workspace/FW_Inertia/branch_indesit/PlatformLibrary/LIB_IOManager\ExternalOutputManager.c **** \note       \par \b Nota1:
1002:C:/Workspace/FW_Inertia/branch_indesit/PlatformLibrary/LIB_IOManager\ExternalOutputManager.c ****             documentation by Roberto Fioravanti 
1003:C:/Workspace/FW_Inertia/branch_indesit/PlatformLibrary/LIB_IOManager\ExternalOutputManager.c **** */
1004:C:/Workspace/FW_Inertia/branch_indesit/PlatformLibrary/LIB_IOManager\ExternalOutputManager.c **** void	LIB_IOM_External_ProcessInfoPacketData(uint8_t ch, uint8_t* pInfoPacketData, uint8_t szInfoPac
1005:C:/Workspace/FW_Inertia/branch_indesit/PlatformLibrary/LIB_IOManager\ExternalOutputManager.c **** {
1006:C:/Workspace/FW_Inertia/branch_indesit/PlatformLibrary/LIB_IOManager\ExternalOutputManager.c **** 	uint8_t offset=0;
1007:C:/Workspace/FW_Inertia/branch_indesit/PlatformLibrary/LIB_IOManager\ExternalOutputManager.c **** 	uint8_t	rem = szInfoPacketData;
1008:C:/Workspace/FW_Inertia/branch_indesit/PlatformLibrary/LIB_IOManager\ExternalOutputManager.c **** 	uint8_t size;
1009:C:/Workspace/FW_Inertia/branch_indesit/PlatformLibrary/LIB_IOManager\ExternalOutputManager.c **** 	uint8_t pilotType;
1010:C:/Workspace/FW_Inertia/branch_indesit/PlatformLibrary/LIB_IOManager\ExternalOutputManager.c **** 	uint8_t i;
1011:C:/Workspace/FW_Inertia/branch_indesit/PlatformLibrary/LIB_IOManager\ExternalOutputManager.c **** 	
1012:C:/Workspace/FW_Inertia/branch_indesit/PlatformLibrary/LIB_IOManager\ExternalOutputManager.c **** 	if(ch >= EXTERNAL_NUM)
1013:C:/Workspace/FW_Inertia/branch_indesit/PlatformLibrary/LIB_IOManager\ExternalOutputManager.c **** 	{
1014:C:/Workspace/FW_Inertia/branch_indesit/PlatformLibrary/LIB_IOManager\ExternalOutputManager.c **** 		PLT_ERROR_WARNING(PLT_ERROR_IOM_EXT_OUTMNG_MAX_CHANNEL_NUM_REACHED_ERR);
1015:C:/Workspace/FW_Inertia/branch_indesit/PlatformLibrary/LIB_IOManager\ExternalOutputManager.c ****         return;  /* Serious Error */
1016:C:/Workspace/FW_Inertia/branch_indesit/PlatformLibrary/LIB_IOManager\ExternalOutputManager.c **** 	}
1017:C:/Workspace/FW_Inertia/branch_indesit/PlatformLibrary/LIB_IOManager\ExternalOutputManager.c **** 
1018:C:/Workspace/FW_Inertia/branch_indesit/PlatformLibrary/LIB_IOManager\ExternalOutputManager.c **** 	*(ExternalData[ch].pRamBuffer) = ExternalSeqId[ch].Seq;	/* seqID*/
1019:C:/Workspace/FW_Inertia/branch_indesit/PlatformLibrary/LIB_IOManager\ExternalOutputManager.c **** 	*(ExternalData[ch].pRamBuffer+1) = *pInfoPacketData;	/* ReqID*/
1020:C:/Workspace/FW_Inertia/branch_indesit/PlatformLibrary/LIB_IOManager\ExternalOutputManager.c **** 	
1021:C:/Workspace/FW_Inertia/branch_indesit/PlatformLibrary/LIB_IOManager\ExternalOutputManager.c **** 	pInfoPacketData +=1;
1022:C:/Workspace/FW_Inertia/branch_indesit/PlatformLibrary/LIB_IOManager\ExternalOutputManager.c **** 	rem--;
1023:C:/Workspace/FW_Inertia/branch_indesit/PlatformLibrary/LIB_IOManager\ExternalOutputManager.c **** 	/*parse PiloTypeInfo data*/
1024:C:/Workspace/FW_Inertia/branch_indesit/PlatformLibrary/LIB_IOManager\ExternalOutputManager.c **** 	
1025:C:/Workspace/FW_Inertia/branch_indesit/PlatformLibrary/LIB_IOManager\ExternalOutputManager.c **** 	
1026:C:/Workspace/FW_Inertia/branch_indesit/PlatformLibrary/LIB_IOManager\ExternalOutputManager.c **** 	while (rem)
1027:C:/Workspace/FW_Inertia/branch_indesit/PlatformLibrary/LIB_IOManager\ExternalOutputManager.c **** 	{
1028:C:/Workspace/FW_Inertia/branch_indesit/PlatformLibrary/LIB_IOManager\ExternalOutputManager.c **** 		pilotType=((InfoPacketDataHdrType*)pInfoPacketData)->pilotType;
1029:C:/Workspace/FW_Inertia/branch_indesit/PlatformLibrary/LIB_IOManager\ExternalOutputManager.c **** 		switch(pilotType)
1030:C:/Workspace/FW_Inertia/branch_indesit/PlatformLibrary/LIB_IOManager\ExternalOutputManager.c **** 		{
1031:C:/Workspace/FW_Inertia/branch_indesit/PlatformLibrary/LIB_IOManager\ExternalOutputManager.c **** 			case 0x00:
1032:C:/Workspace/FW_Inertia/branch_indesit/PlatformLibrary/LIB_IOManager\ExternalOutputManager.c **** 			/* treats the pilotType 0 as read ram data */
1033:C:/Workspace/FW_Inertia/branch_indesit/PlatformLibrary/LIB_IOManager\ExternalOutputManager.c **** 			
1034:C:/Workspace/FW_Inertia/branch_indesit/PlatformLibrary/LIB_IOManager\ExternalOutputManager.c **** 			/* check if the sub field has data
1035:C:/Workspace/FW_Inertia/branch_indesit/PlatformLibrary/LIB_IOManager\ExternalOutputManager.c **** 			if szData is 0 the field is not valid
1036:C:/Workspace/FW_Inertia/branch_indesit/PlatformLibrary/LIB_IOManager\ExternalOutputManager.c **** 			*/
1037:C:/Workspace/FW_Inertia/branch_indesit/PlatformLibrary/LIB_IOManager\ExternalOutputManager.c **** 			if(((InfoPacketDataHdrType*)pInfoPacketData)->szData)
1038:C:/Workspace/FW_Inertia/branch_indesit/PlatformLibrary/LIB_IOManager\ExternalOutputManager.c **** 			{
1039:C:/Workspace/FW_Inertia/branch_indesit/PlatformLibrary/LIB_IOManager\ExternalOutputManager.c **** 			    
1040:C:/Workspace/FW_Inertia/branch_indesit/PlatformLibrary/LIB_IOManager\ExternalOutputManager.c **** 				offset= (uint8_t)(((InfoPacketDataHdrType*)pInfoPacketData)->szData + 1);
1041:C:/Workspace/FW_Inertia/branch_indesit/PlatformLibrary/LIB_IOManager\ExternalOutputManager.c **** 				size = (uint8_t) ((((InfoPacketDataHdrType*)pInfoPacketData)->szData -1 <= (ExternalData[ch].sz
1042:C:/Workspace/FW_Inertia/branch_indesit/PlatformLibrary/LIB_IOManager\ExternalOutputManager.c **** 					((InfoPacketDataHdrType*)pInfoPacketData)->szData -1 :
1043:C:/Workspace/FW_Inertia/branch_indesit/PlatformLibrary/LIB_IOManager\ExternalOutputManager.c **** 					(ExternalData[ch].szRamBuffer-2));
1044:C:/Workspace/FW_Inertia/branch_indesit/PlatformLibrary/LIB_IOManager\ExternalOutputManager.c **** 
1045:C:/Workspace/FW_Inertia/branch_indesit/PlatformLibrary/LIB_IOManager\ExternalOutputManager.c **** 			
1046:C:/Workspace/FW_Inertia/branch_indesit/PlatformLibrary/LIB_IOManager\ExternalOutputManager.c **** 				if(size > ExternalData[ch].szRamBuffer - 2)
1047:C:/Workspace/FW_Inertia/branch_indesit/PlatformLibrary/LIB_IOManager\ExternalOutputManager.c **** 				{
1048:C:/Workspace/FW_Inertia/branch_indesit/PlatformLibrary/LIB_IOManager\ExternalOutputManager.c **** 					size =  (uint8_t)(ExternalData[ch].szRamBuffer - 2);
1049:C:/Workspace/FW_Inertia/branch_indesit/PlatformLibrary/LIB_IOManager\ExternalOutputManager.c **** 				}
1050:C:/Workspace/FW_Inertia/branch_indesit/PlatformLibrary/LIB_IOManager\ExternalOutputManager.c **** 
1051:C:/Workspace/FW_Inertia/branch_indesit/PlatformLibrary/LIB_IOManager\ExternalOutputManager.c **** 				UseExternalInfo();
1052:C:/Workspace/FW_Inertia/branch_indesit/PlatformLibrary/LIB_IOManager\ExternalOutputManager.c **** 				memcpy(ExternalData[ch].pRamBuffer+2/*seqID+toolid*/, pInfoPacketData+2, size);
1053:C:/Workspace/FW_Inertia/branch_indesit/PlatformLibrary/LIB_IOManager\ExternalOutputManager.c **** 				UnuseExternalInfo();
1054:C:/Workspace/FW_Inertia/branch_indesit/PlatformLibrary/LIB_IOManager\ExternalOutputManager.c **** 
1055:C:/Workspace/FW_Inertia/branch_indesit/PlatformLibrary/LIB_IOManager\ExternalOutputManager.c **** 				pInfoPacketData += offset;
1056:C:/Workspace/FW_Inertia/branch_indesit/PlatformLibrary/LIB_IOManager\ExternalOutputManager.c **** 				rem -= offset;
1057:C:/Workspace/FW_Inertia/branch_indesit/PlatformLibrary/LIB_IOManager\ExternalOutputManager.c **** 			}
1058:C:/Workspace/FW_Inertia/branch_indesit/PlatformLibrary/LIB_IOManager\ExternalOutputManager.c **** 			else 
1059:C:/Workspace/FW_Inertia/branch_indesit/PlatformLibrary/LIB_IOManager\ExternalOutputManager.c **** 		    {
1060:C:/Workspace/FW_Inertia/branch_indesit/PlatformLibrary/LIB_IOManager\ExternalOutputManager.c **** 			    rem =0;
1061:C:/Workspace/FW_Inertia/branch_indesit/PlatformLibrary/LIB_IOManager\ExternalOutputManager.c **** 			}
1062:C:/Workspace/FW_Inertia/branch_indesit/PlatformLibrary/LIB_IOManager\ExternalOutputManager.c **** 			break;
1063:C:/Workspace/FW_Inertia/branch_indesit/PlatformLibrary/LIB_IOManager\ExternalOutputManager.c **** #if defined(CONFIG_EXTERNAL_GLOBAL_DATA_BLOCK_SUPPORT)
1064:C:/Workspace/FW_Inertia/branch_indesit/PlatformLibrary/LIB_IOManager\ExternalOutputManager.c **** 			case 0xFF:
1065:C:/Workspace/FW_Inertia/branch_indesit/PlatformLibrary/LIB_IOManager\ExternalOutputManager.c **** 				/* treats the pilotType 0xFF as GLOBAL data */
1066:C:/Workspace/FW_Inertia/branch_indesit/PlatformLibrary/LIB_IOManager\ExternalOutputManager.c **** 
1067:C:/Workspace/FW_Inertia/branch_indesit/PlatformLibrary/LIB_IOManager\ExternalOutputManager.c **** 				if(((InfoPacketDataHdrType*)pInfoPacketData)->szData)
1068:C:/Workspace/FW_Inertia/branch_indesit/PlatformLibrary/LIB_IOManager\ExternalOutputManager.c **** 				{
1069:C:/Workspace/FW_Inertia/branch_indesit/PlatformLibrary/LIB_IOManager\ExternalOutputManager.c **** 
1070:C:/Workspace/FW_Inertia/branch_indesit/PlatformLibrary/LIB_IOManager\ExternalOutputManager.c **** 					offset= (uint8_t)(((InfoPacketDataHdrType*)pInfoPacketData)->szData + 1);
1071:C:/Workspace/FW_Inertia/branch_indesit/PlatformLibrary/LIB_IOManager\ExternalOutputManager.c **** 					size = (uint8_t) ((((InfoPacketDataHdrType*)pInfoPacketData)->szData -1 <= (ExternalData[ch].s
1072:C:/Workspace/FW_Inertia/branch_indesit/PlatformLibrary/LIB_IOManager\ExternalOutputManager.c **** 						((InfoPacketDataHdrType*)pInfoPacketData)->szData -1 :
1073:C:/Workspace/FW_Inertia/branch_indesit/PlatformLibrary/LIB_IOManager\ExternalOutputManager.c **** 						(ExternalData[ch].szGlobal));
1074:C:/Workspace/FW_Inertia/branch_indesit/PlatformLibrary/LIB_IOManager\ExternalOutputManager.c **** 
1075:C:/Workspace/FW_Inertia/branch_indesit/PlatformLibrary/LIB_IOManager\ExternalOutputManager.c **** 
1076:C:/Workspace/FW_Inertia/branch_indesit/PlatformLibrary/LIB_IOManager\ExternalOutputManager.c **** 					if(size > ExternalData[ch].szGlobal - 2)
1077:C:/Workspace/FW_Inertia/branch_indesit/PlatformLibrary/LIB_IOManager\ExternalOutputManager.c **** 					{
1078:C:/Workspace/FW_Inertia/branch_indesit/PlatformLibrary/LIB_IOManager\ExternalOutputManager.c **** 						size =  (uint8_t)(ExternalData[ch].szGlobal - 2);
1079:C:/Workspace/FW_Inertia/branch_indesit/PlatformLibrary/LIB_IOManager\ExternalOutputManager.c **** 					}
1080:C:/Workspace/FW_Inertia/branch_indesit/PlatformLibrary/LIB_IOManager\ExternalOutputManager.c **** 
1081:C:/Workspace/FW_Inertia/branch_indesit/PlatformLibrary/LIB_IOManager\ExternalOutputManager.c **** 					UseExternalInfo();
1082:C:/Workspace/FW_Inertia/branch_indesit/PlatformLibrary/LIB_IOManager\ExternalOutputManager.c **** 					memcpy(ExternalData[ch].pGlobalData, pInfoPacketData+2, size);
1083:C:/Workspace/FW_Inertia/branch_indesit/PlatformLibrary/LIB_IOManager\ExternalOutputManager.c **** 					UnuseExternalInfo();
1084:C:/Workspace/FW_Inertia/branch_indesit/PlatformLibrary/LIB_IOManager\ExternalOutputManager.c **** 
1085:C:/Workspace/FW_Inertia/branch_indesit/PlatformLibrary/LIB_IOManager\ExternalOutputManager.c **** 					pInfoPacketData += offset;
1086:C:/Workspace/FW_Inertia/branch_indesit/PlatformLibrary/LIB_IOManager\ExternalOutputManager.c **** 					rem -= offset;
1087:C:/Workspace/FW_Inertia/branch_indesit/PlatformLibrary/LIB_IOManager\ExternalOutputManager.c **** 				}
1088:C:/Workspace/FW_Inertia/branch_indesit/PlatformLibrary/LIB_IOManager\ExternalOutputManager.c **** 				else
1089:C:/Workspace/FW_Inertia/branch_indesit/PlatformLibrary/LIB_IOManager\ExternalOutputManager.c **** 				{
1090:C:/Workspace/FW_Inertia/branch_indesit/PlatformLibrary/LIB_IOManager\ExternalOutputManager.c **** 					rem =0;
1091:C:/Workspace/FW_Inertia/branch_indesit/PlatformLibrary/LIB_IOManager\ExternalOutputManager.c **** 				}
1092:C:/Workspace/FW_Inertia/branch_indesit/PlatformLibrary/LIB_IOManager\ExternalOutputManager.c **** 
1093:C:/Workspace/FW_Inertia/branch_indesit/PlatformLibrary/LIB_IOManager\ExternalOutputManager.c **** 				break;
1094:C:/Workspace/FW_Inertia/branch_indesit/PlatformLibrary/LIB_IOManager\ExternalOutputManager.c **** #endif
1095:C:/Workspace/FW_Inertia/branch_indesit/PlatformLibrary/LIB_IOManager\ExternalOutputManager.c **** 			default:
1096:C:/Workspace/FW_Inertia/branch_indesit/PlatformLibrary/LIB_IOManager\ExternalOutputManager.c **** 			{
1097:C:/Workspace/FW_Inertia/branch_indesit/PlatformLibrary/LIB_IOManager\ExternalOutputManager.c **** 				
1098:C:/Workspace/FW_Inertia/branch_indesit/PlatformLibrary/LIB_IOManager\ExternalOutputManager.c **** 				i=0;
1099:C:/Workspace/FW_Inertia/branch_indesit/PlatformLibrary/LIB_IOManager\ExternalOutputManager.c **** 				
1100:C:/Workspace/FW_Inertia/branch_indesit/PlatformLibrary/LIB_IOManager\ExternalOutputManager.c **** 				/*search for PilotType */
1101:C:/Workspace/FW_Inertia/branch_indesit/PlatformLibrary/LIB_IOManager\ExternalOutputManager.c **** 				while((i<IOM_NUM_OF_EXTERNAL_LOADS))
1102:C:/Workspace/FW_Inertia/branch_indesit/PlatformLibrary/LIB_IOManager\ExternalOutputManager.c **** 				{
1103:C:/Workspace/FW_Inertia/branch_indesit/PlatformLibrary/LIB_IOManager\ExternalOutputManager.c **** 					if(pilotType ==  IOM_External_LoadsTable[i].PilotType)
1104:C:/Workspace/FW_Inertia/branch_indesit/PlatformLibrary/LIB_IOManager\ExternalOutputManager.c **** 					{
1105:C:/Workspace/FW_Inertia/branch_indesit/PlatformLibrary/LIB_IOManager\ExternalOutputManager.c **** 						break;
1106:C:/Workspace/FW_Inertia/branch_indesit/PlatformLibrary/LIB_IOManager\ExternalOutputManager.c **** 					}
1107:C:/Workspace/FW_Inertia/branch_indesit/PlatformLibrary/LIB_IOManager\ExternalOutputManager.c **** 					i++;
1108:C:/Workspace/FW_Inertia/branch_indesit/PlatformLibrary/LIB_IOManager\ExternalOutputManager.c **** 				}
1109:C:/Workspace/FW_Inertia/branch_indesit/PlatformLibrary/LIB_IOManager\ExternalOutputManager.c **** 	
1110:C:/Workspace/FW_Inertia/branch_indesit/PlatformLibrary/LIB_IOManager\ExternalOutputManager.c **** 				if(i>=IOM_NUM_OF_EXTERNAL_LOADS)
1111:C:/Workspace/FW_Inertia/branch_indesit/PlatformLibrary/LIB_IOManager\ExternalOutputManager.c **** 				{
1112:C:/Workspace/FW_Inertia/branch_indesit/PlatformLibrary/LIB_IOManager\ExternalOutputManager.c **** 					PLT_ERROR_WARNING(PLT_ERROR_IOM_EXT_OUTMNG_INVALID_PILOTTYPE_ERR);
1113:C:/Workspace/FW_Inertia/branch_indesit/PlatformLibrary/LIB_IOManager\ExternalOutputManager.c **** 			    	return;  /* Serious Error */
1114:C:/Workspace/FW_Inertia/branch_indesit/PlatformLibrary/LIB_IOManager\ExternalOutputManager.c **** 				}
1115:C:/Workspace/FW_Inertia/branch_indesit/PlatformLibrary/LIB_IOManager\ExternalOutputManager.c **** 	
1116:C:/Workspace/FW_Inertia/branch_indesit/PlatformLibrary/LIB_IOManager\ExternalOutputManager.c **** 				offset=(uint8_t)(((InfoPacketDataHdrType*)pInfoPacketData)->szData + 1);
1117:C:/Workspace/FW_Inertia/branch_indesit/PlatformLibrary/LIB_IOManager\ExternalOutputManager.c **** 				size = (uint8_t)(((InfoPacketDataHdrType*)pInfoPacketData)->szData - 1);
1118:C:/Workspace/FW_Inertia/branch_indesit/PlatformLibrary/LIB_IOManager\ExternalOutputManager.c **** 				
1119:C:/Workspace/FW_Inertia/branch_indesit/PlatformLibrary/LIB_IOManager\ExternalOutputManager.c **** 				if (size > IOM_External_LoadsTable[i].szPilotTypeInfo)
1120:C:/Workspace/FW_Inertia/branch_indesit/PlatformLibrary/LIB_IOManager\ExternalOutputManager.c **** 				{
1121:C:/Workspace/FW_Inertia/branch_indesit/PlatformLibrary/LIB_IOManager\ExternalOutputManager.c **** 					size = IOM_External_LoadsTable[i].szPilotTypeInfo;
1122:C:/Workspace/FW_Inertia/branch_indesit/PlatformLibrary/LIB_IOManager\ExternalOutputManager.c **** 				}
1123:C:/Workspace/FW_Inertia/branch_indesit/PlatformLibrary/LIB_IOManager\ExternalOutputManager.c **** 				
1124:C:/Workspace/FW_Inertia/branch_indesit/PlatformLibrary/LIB_IOManager\ExternalOutputManager.c **** 				UseExternalInfo();				
1125:C:/Workspace/FW_Inertia/branch_indesit/PlatformLibrary/LIB_IOManager\ExternalOutputManager.c **** 				memcpy(IOM_External_LoadsTable[i].pPilotTypeInfo, pInfoPacketData+2, size);
1126:C:/Workspace/FW_Inertia/branch_indesit/PlatformLibrary/LIB_IOManager\ExternalOutputManager.c **** 				UnuseExternalInfo();				
1127:C:/Workspace/FW_Inertia/branch_indesit/PlatformLibrary/LIB_IOManager\ExternalOutputManager.c **** 				
1128:C:/Workspace/FW_Inertia/branch_indesit/PlatformLibrary/LIB_IOManager\ExternalOutputManager.c **** 				pInfoPacketData += offset;
1129:C:/Workspace/FW_Inertia/branch_indesit/PlatformLibrary/LIB_IOManager\ExternalOutputManager.c **** 				rem -= offset ;
1130:C:/Workspace/FW_Inertia/branch_indesit/PlatformLibrary/LIB_IOManager\ExternalOutputManager.c **** 			}
1131:C:/Workspace/FW_Inertia/branch_indesit/PlatformLibrary/LIB_IOManager\ExternalOutputManager.c **** 		}
1132:C:/Workspace/FW_Inertia/branch_indesit/PlatformLibrary/LIB_IOManager\ExternalOutputManager.c **** 	}
1133:C:/Workspace/FW_Inertia/branch_indesit/PlatformLibrary/LIB_IOManager\ExternalOutputManager.c **** 
1134:C:/Workspace/FW_Inertia/branch_indesit/PlatformLibrary/LIB_IOManager\ExternalOutputManager.c **** }
1135:C:/Workspace/FW_Inertia/branch_indesit/PlatformLibrary/LIB_IOManager\ExternalOutputManager.c **** 
1136:C:/Workspace/FW_Inertia/branch_indesit/PlatformLibrary/LIB_IOManager\ExternalOutputManager.c **** 
1137:C:/Workspace/FW_Inertia/branch_indesit/PlatformLibrary/LIB_IOManager\ExternalOutputManager.c **** 
1138:C:/Workspace/FW_Inertia/branch_indesit/PlatformLibrary/LIB_IOManager\ExternalOutputManager.c **** /* Local Function */
1139:C:/Workspace/FW_Inertia/branch_indesit/PlatformLibrary/LIB_IOManager\ExternalOutputManager.c **** static uint8_t LIB_IOM_External_PilotType2CmdBufferSize(uint8_t pilotType)
1140:C:/Workspace/FW_Inertia/branch_indesit/PlatformLibrary/LIB_IOManager\ExternalOutputManager.c **** {
1141:C:/Workspace/FW_Inertia/branch_indesit/PlatformLibrary/LIB_IOManager\ExternalOutputManager.c **** 	uint8_t cmdsize=0;
1142:C:/Workspace/FW_Inertia/branch_indesit/PlatformLibrary/LIB_IOManager\ExternalOutputManager.c **** 	switch(pilotType)
 116                             		.loc 1 1142 0
 117 0073 5B 7E                   		movu.B	r7, r14
 118 0075 71 EE DE                		add	#-34, r14
 119 0078 61 1E                   		cmp	#1, r14
 120 007a 25 0B                   		bleu	.L19
1143:C:/Workspace/FW_Inertia/branch_indesit/PlatformLibrary/LIB_IOManager\ExternalOutputManager.c **** 	{
1144:C:/Workspace/FW_Inertia/branch_indesit/PlatformLibrary/LIB_IOManager\ExternalOutputManager.c **** #if defined(CONFIG_EXTERN_MODULE_L_SUPPORT)
1145:C:/Workspace/FW_Inertia/branch_indesit/PlatformLibrary/LIB_IOManager\ExternalOutputManager.c **** 		case EXTERN_MODULE_L:
1146:C:/Workspace/FW_Inertia/branch_indesit/PlatformLibrary/LIB_IOManager\ExternalOutputManager.c **** 			cmdsize = EXTERN_MODULE_L_CMD_SZ;
1147:C:/Workspace/FW_Inertia/branch_indesit/PlatformLibrary/LIB_IOManager\ExternalOutputManager.c **** 			break;
1148:C:/Workspace/FW_Inertia/branch_indesit/PlatformLibrary/LIB_IOManager\ExternalOutputManager.c **** #endif /* defined(CONFIG_EXTERN_MODULE_L_SUPPORT) */
1149:C:/Workspace/FW_Inertia/branch_indesit/PlatformLibrary/LIB_IOManager\ExternalOutputManager.c **** #if defined(CONFIG_PMSM_MOTOR_L_SUPPORT)
1150:C:/Workspace/FW_Inertia/branch_indesit/PlatformLibrary/LIB_IOManager\ExternalOutputManager.c **** 		case PMSM_MOTOR_L:
1151:C:/Workspace/FW_Inertia/branch_indesit/PlatformLibrary/LIB_IOManager\ExternalOutputManager.c **** 			cmdsize = PMSM_MOTOR_L_CMD_SZ;
1152:C:/Workspace/FW_Inertia/branch_indesit/PlatformLibrary/LIB_IOManager\ExternalOutputManager.c **** 			break;
1153:C:/Workspace/FW_Inertia/branch_indesit/PlatformLibrary/LIB_IOManager\ExternalOutputManager.c **** #endif /* defined(CONFIG_PMSM_MOTOR_L_SUPPORT) */
1154:C:/Workspace/FW_Inertia/branch_indesit/PlatformLibrary/LIB_IOManager\ExternalOutputManager.c **** #if defined(CONFIG_BLDC_WASH_L_SUPPORT)
1155:C:/Workspace/FW_Inertia/branch_indesit/PlatformLibrary/LIB_IOManager\ExternalOutputManager.c **** 		case BLDC_WASH_L:
1156:C:/Workspace/FW_Inertia/branch_indesit/PlatformLibrary/LIB_IOManager\ExternalOutputManager.c **** 			cmdsize = BLDC_WASH_L_CMD_SZ;
1157:C:/Workspace/FW_Inertia/branch_indesit/PlatformLibrary/LIB_IOManager\ExternalOutputManager.c **** 			break;
1158:C:/Workspace/FW_Inertia/branch_indesit/PlatformLibrary/LIB_IOManager\ExternalOutputManager.c **** #endif /* defined(CONFIG_BLDC_WASH_L_SUPPORT)*/
1159:C:/Workspace/FW_Inertia/branch_indesit/PlatformLibrary/LIB_IOManager\ExternalOutputManager.c **** #if defined(CONFIG_BLDC_DRAIN_L_SUPPORT)
1160:C:/Workspace/FW_Inertia/branch_indesit/PlatformLibrary/LIB_IOManager\ExternalOutputManager.c **** 		case BLDC_DRAIN_L:
1161:C:/Workspace/FW_Inertia/branch_indesit/PlatformLibrary/LIB_IOManager\ExternalOutputManager.c **** 			cmdsize = BLDC_DRAIN_L_CMD_SZ;
1162:C:/Workspace/FW_Inertia/branch_indesit/PlatformLibrary/LIB_IOManager\ExternalOutputManager.c **** 			break;
1163:C:/Workspace/FW_Inertia/branch_indesit/PlatformLibrary/LIB_IOManager\ExternalOutputManager.c **** #endif /* defined(CONFIG_BLDC_DRAIN_L_SUPPORT)*/
1164:C:/Workspace/FW_Inertia/branch_indesit/PlatformLibrary/LIB_IOManager\ExternalOutputManager.c **** #if defined(CONFIG_PMSM_DRYER_L_SUPPORT)			
1165:C:/Workspace/FW_Inertia/branch_indesit/PlatformLibrary/LIB_IOManager\ExternalOutputManager.c **** 		case PMSM_DRYER_L:
1166:C:/Workspace/FW_Inertia/branch_indesit/PlatformLibrary/LIB_IOManager\ExternalOutputManager.c **** 			cmdsize = PMSM_DRYER_L_CMD_SZ;
1167:C:/Workspace/FW_Inertia/branch_indesit/PlatformLibrary/LIB_IOManager\ExternalOutputManager.c **** 			break;
1168:C:/Workspace/FW_Inertia/branch_indesit/PlatformLibrary/LIB_IOManager\ExternalOutputManager.c **** #endif /* defined(CONFIG_PMSM_DRYER_L_SUPPORT) */
1169:C:/Workspace/FW_Inertia/branch_indesit/PlatformLibrary/LIB_IOManager\ExternalOutputManager.c **** #if defined(CONFIG_MULTIPOWER_COMP_L_SUPPORT)			
1170:C:/Workspace/FW_Inertia/branch_indesit/PlatformLibrary/LIB_IOManager\ExternalOutputManager.c **** 	    case MULTIPOWER_COMP_L:
1171:C:/Workspace/FW_Inertia/branch_indesit/PlatformLibrary/LIB_IOManager\ExternalOutputManager.c **** 	        cmdsize = MULTIPOWER_COMP_L_CMD_SZ;
1172:C:/Workspace/FW_Inertia/branch_indesit/PlatformLibrary/LIB_IOManager\ExternalOutputManager.c **** 	        break;
1173:C:/Workspace/FW_Inertia/branch_indesit/PlatformLibrary/LIB_IOManager\ExternalOutputManager.c **** #endif /* defined(CONFIG_MULTIPOWER_COMP_L_SUPPORT) */
1174:C:/Workspace/FW_Inertia/branch_indesit/PlatformLibrary/LIB_IOManager\ExternalOutputManager.c **** #if defined(CONFIG_BRUSHLESS_HOOD_L_SUPPORT)			
1175:C:/Workspace/FW_Inertia/branch_indesit/PlatformLibrary/LIB_IOManager\ExternalOutputManager.c **** 	    case BRUSHLESS_HOOD_L:
1176:C:/Workspace/FW_Inertia/branch_indesit/PlatformLibrary/LIB_IOManager\ExternalOutputManager.c **** 	        cmdsize = BRUSHLESS_HOOD_L_CMD_SZ;
1177:C:/Workspace/FW_Inertia/branch_indesit/PlatformLibrary/LIB_IOManager\ExternalOutputManager.c **** 	        break;
1178:C:/Workspace/FW_Inertia/branch_indesit/PlatformLibrary/LIB_IOManager\ExternalOutputManager.c **** #endif /* defined(CONFIG_BRUSHLESS_HOOD_L_SUPPORT) */
1179:C:/Workspace/FW_Inertia/branch_indesit/PlatformLibrary/LIB_IOManager\ExternalOutputManager.c **** #if defined(CONFIG_AIRSENSOR_HOOD_L_SUPPORT)			
1180:C:/Workspace/FW_Inertia/branch_indesit/PlatformLibrary/LIB_IOManager\ExternalOutputManager.c **** 	    case AIRSENSOR_HOOD_L:
1181:C:/Workspace/FW_Inertia/branch_indesit/PlatformLibrary/LIB_IOManager\ExternalOutputManager.c **** 	        cmdsize = AIRSENSOR_HOOD_L_CMD_SZ;
1182:C:/Workspace/FW_Inertia/branch_indesit/PlatformLibrary/LIB_IOManager\ExternalOutputManager.c **** 	        break;
1183:C:/Workspace/FW_Inertia/branch_indesit/PlatformLibrary/LIB_IOManager\ExternalOutputManager.c **** #endif /* defined(AIRSENSOR_HOOD_L_SUPPORT) */
1184:C:/Workspace/FW_Inertia/branch_indesit/PlatformLibrary/LIB_IOManager\ExternalOutputManager.c **** #if defined(CONFIG_PROBES_AND_SENSORS_L_SUPPORT)
1185:C:/Workspace/FW_Inertia/branch_indesit/PlatformLibrary/LIB_IOManager\ExternalOutputManager.c **** 	    case PROBES_ADN_SENSORS_L:
1186:C:/Workspace/FW_Inertia/branch_indesit/PlatformLibrary/LIB_IOManager\ExternalOutputManager.c **** 	        cmdsize = PROBES_AND_SENSORS_L_CMD_SZ;
1187:C:/Workspace/FW_Inertia/branch_indesit/PlatformLibrary/LIB_IOManager\ExternalOutputManager.c **** 	        break;
1188:C:/Workspace/FW_Inertia/branch_indesit/PlatformLibrary/LIB_IOManager\ExternalOutputManager.c **** #endif /* defined(AIRSENSOR_HOOD_L_SUPPORT) */
1189:C:/Workspace/FW_Inertia/branch_indesit/PlatformLibrary/LIB_IOManager\ExternalOutputManager.c **** 		default:
1190:C:/Workspace/FW_Inertia/branch_indesit/PlatformLibrary/LIB_IOManager\ExternalOutputManager.c **** 		PLT_ERROR_WARNING(PLT_ERROR_IOM_EXT_OUTMNG_INVALID_PILOTTYPE_ERR);
 121                             		.loc 1 1190 0
 122 007c 66 91                   		mov.L	#9, r1
 123 007e 05 00 00 00             		bsr	_LIB_Error_Warning_Handler
 124                             	.LVL18:
1141:C:/Workspace/FW_Inertia/branch_indesit/PlatformLibrary/LIB_IOManager\ExternalOutputManager.c **** 	uint8_t cmdsize=0;
 125                             		.loc 1 1141 0
 126 0082 CF C3                   		mov.B	r12, r3
 127 0084 0C                      		bra	.L11
 128                             	.LVL19:
 129                             	.L19:
1156:C:/Workspace/FW_Inertia/branch_indesit/PlatformLibrary/LIB_IOManager\ExternalOutputManager.c **** 			cmdsize = BLDC_WASH_L_CMD_SZ;
 130                             		.loc 1 1156 0
 131 0085 66 63                   		mov	#6, r3
 132                             	.LVL20:
 133 0087 03                      		.balign 2,3,5
 134                             	.L11:
 135                             	.LBE5:
 136                             	.LBE4:
 326:C:/Workspace/FW_Inertia/branch_indesit/PlatformLibrary/LIB_IOManager\ExternalOutputManager.c **** 	szCmdBuffer=IOM_External_CommandBufferCntTable[uart];
 137                             		.loc 1 326 0
 138 0088 FB C2 00 00 00 00       		mov.L	#_IOM_External_CommandBufferCntTable, r12
 139 008e CC CE                   		mov.B	[r12], r14
 140                             	.LVL21:
 327:C:/Workspace/FW_Inertia/branch_indesit/PlatformLibrary/LIB_IOManager\ExternalOutputManager.c **** 	if(!szCmdBuffer)
 141                             		.loc 1 327 0
 142 0090 5B EC                   		movu.B	r14, r12
 143 0092 61 0C                   		cmp	#0, r12
 144 0094 1C                      		bne	.L12
 329:C:/Workspace/FW_Inertia/branch_indesit/PlatformLibrary/LIB_IOManager\ExternalOutputManager.c **** 		szCmdBuffer++; /*byte reserved for Seq ID */
 145                             		.loc 1 329 0
 146 0095 66 1E                   		mov	#1, r14
 147                             	.LVL22:
 148 0097 03                      		.balign 2,3,1
 149                             	.L12:
 332:C:/Workspace/FW_Inertia/branch_indesit/PlatformLibrary/LIB_IOManager\ExternalOutputManager.c **** 	if((szCmdBuffer + szCmd + EXTERNAL_COMMAND_BUFFER_HDR_SZ) > IOM_External_CommandBufferTable[uart].
 150                             		.loc 1 332 0
 151 0098 5B E4                   		movu.B	r14, r4
 152 009a 5B 3C                   		movu.B	r3, r12
 153 009c 4B 4C                   		add	r4, r12
 154 009e 75 5C 1A                		cmp	#26, r12
 155 00a1 2B 0B                   		ble	.L13
 334:C:/Workspace/FW_Inertia/branch_indesit/PlatformLibrary/LIB_IOManager\ExternalOutputManager.c **** 		PLT_ERROR_WARNING(PLT_ERROR_IOM_EXT_OUTMNG_TOOMANY_BYTES_CMDBUFFER_ERR);
 156                             		.loc 1 334 0
 157 00a3 75 41 10                		mov.L	#16, r1
 158                             	.LVL23:
 159                             		.balign 2,3,3
 160                             	.L21:
 161 00a6 05 00 00 00             		bsr	_LIB_Error_Warning_Handler
 162                             	.LVL24:
 163 00aa 2E 3F                   		bra	.L14
 164                             	.LVL25:
 165                             	.L13:
 339:C:/Workspace/FW_Inertia/branch_indesit/PlatformLibrary/LIB_IOManager\ExternalOutputManager.c **** 	IOM_External_LoadsTable[ExternalBoardCounter].pPilotTypeInfo	= pInfoBuffer;
 166                             		.loc 1 339 0
 167 00ac FB C2 00 00 00 00       		mov.L	#_ExternalBoardCounter, r12
 168 00b2 CC C2                   		mov.B	[r12], r2
 169 00b4 5B 25                   		movu.B	r2, r5
 170 00b6 63 C5                   		mul	#12, r5
 171 00b8 70 55 00 00 00 00       		add	#_IOM_External_LoadsTable, r5
 172 00be EF 54                   		mov.L	r5, r4
 173 00c0 FD 22 4B                		mov.L	r11, [r4+]
 340:C:/Workspace/FW_Inertia/branch_indesit/PlatformLibrary/LIB_IOManager\ExternalOutputManager.c **** 	IOM_External_LoadsTable[ExternalBoardCounter].szPilotTypeInfo = szInfoBuffer;
 174                             		.loc 1 340 0
 175 00c3 C7 5A 04                		mov.B	r10, 4[r5]
 341:C:/Workspace/FW_Inertia/branch_indesit/PlatformLibrary/LIB_IOManager\ExternalOutputManager.c **** 	IOM_External_LoadsTable[ExternalBoardCounter].PilotType = pilotType;
 176                             		.loc 1 341 0
 177 00c6 80 4F                   		mov.B	r7, 1[r4]
 342:C:/Workspace/FW_Inertia/branch_indesit/PlatformLibrary/LIB_IOManager\ExternalOutputManager.c **** 	IOM_External_LoadsTable[ExternalBoardCounter].CmdOffset = szCmdBuffer;
 178                             		.loc 1 342 0
 179 00c8 C7 4E 02                		mov.B	r14, 2[r4]
 343:C:/Workspace/FW_Inertia/branch_indesit/PlatformLibrary/LIB_IOManager\ExternalOutputManager.c **** 	IOM_External_LoadsTable[ExternalBoardCounter].szCmd = szCmd;
 180                             		.loc 1 343 0
 181 00cb 80 CB                   		mov.B	r3, 3[r4]
 345:C:/Workspace/FW_Inertia/branch_indesit/PlatformLibrary/LIB_IOManager\ExternalOutputManager.c **** 	IOM_External_LoadsTable[ExternalBoardCounter].Displacement = EXTERNAL_PARAMS_DISPL(pilotTypeParame
 182                             		.loc 1 345 0
 183 00cd EC 07                   		mov.L	[r0], r7
 184                             	.LVL26:
 185 00cf C5 75 01 08             		mov.B	1[r7], 8[r5]
 349:C:/Workspace/FW_Inertia/branch_indesit/PlatformLibrary/LIB_IOManager\ExternalOutputManager.c **** 	IOM_External_LoadsTable[ExternalBoardCounter].CommCh = uart;
 186                             		.loc 1 349 0
 187 00d3 3C 59 00                		mov.B	#0, 9[r5]
 188                             	.LVL27:
 351:C:/Workspace/FW_Inertia/branch_indesit/PlatformLibrary/LIB_IOManager\ExternalOutputManager.c **** 	szCmdBuffer += (szCmd+EXTERNAL_COMMAND_BUFFER_HDR_SZ);
 189                             		.loc 1 351 0
 190 00d6 62 23                   		add	#2, r3
 191                             	.LVL28:
 192 00d8 4B 3E                   		add	r3, r14
 352:C:/Workspace/FW_Inertia/branch_indesit/PlatformLibrary/LIB_IOManager\ExternalOutputManager.c **** 	IOM_External_CommandBufferCntTable[uart] = szCmdBuffer;
 193                             		.loc 1 352 0
 194 00da FB 72 00 00 00 00       		mov.L	#_IOM_External_CommandBufferCntTable, r7
 195 00e0 C3 7E                   		mov.B	r14, [r7]
 354:C:/Workspace/FW_Inertia/branch_indesit/PlatformLibrary/LIB_IOManager\ExternalOutputManager.c **** 	ExternalBoardCounter++;
 196                             		.loc 1 354 0
 197 00e2 62 12                   		add	#1, r2
 198 00e4 C3 C2                   		mov.B	r2, [r12]
 356:C:/Workspace/FW_Inertia/branch_indesit/PlatformLibrary/LIB_IOManager\ExternalOutputManager.c **** 	return LIB_IOM_NO_ERROR;
 199                             		.loc 1 356 0
 200 00e6 66 01                   		mov.L	#0, r1
 201 00e8 0C                      		bra	.L4
 202                             	.LVL29:
 203                             	.L14:
 286:C:/Workspace/FW_Inertia/branch_indesit/PlatformLibrary/LIB_IOManager\ExternalOutputManager.c **** 	    return LIB_IOM_EXTERNAL_SETINFOBUFFER_ERR;
 204                             		.loc 1 286 0
 205 00e9 66 11                   		mov.L	#1, r1
 206 00eb 03                      		.balign 2,3,2
 207                             	.L4:
 357:C:/Workspace/FW_Inertia/branch_indesit/PlatformLibrary/LIB_IOManager\ExternalOutputManager.c **** }
 208                             		.loc 1 357 0
 209 00ec 3F 7C 09                		rtsd	#36, r7-r12
 210                             	.LFE1:
 212 00ef 03                      		.section	.text.LIB_IOM_External_SetCommand,"ax",@progbits
 213                             		.global	_LIB_IOM_External_SetCommand
 215                             	_LIB_IOM_External_SetCommand:
 216                             	.LFB2:
 387:C:/Workspace/FW_Inertia/branch_indesit/PlatformLibrary/LIB_IOManager\ExternalOutputManager.c **** {
 217                             		.loc 1 387 0
 218                             	.LVL30:
 219 0000 6E 7D                   		pushm	r7-r13
 220                             	.LCFI2:
 221 0002 CF 1C                   		mov.B	r1, r12
 222 0004 EF 2D                   		mov.L	r2, r13
 223                             	.LVL31:
 395:C:/Workspace/FW_Inertia/branch_indesit/PlatformLibrary/LIB_IOManager\ExternalOutputManager.c **** 		if(pilotType ==  IOM_External_LoadsTable[i].PilotType)
 224                             		.loc 1 395 0
 225 0006 FB A2 00 00 00 00       		mov.L	#_IOM_External_LoadsTable, r10
 226 000c 5B 17                   		movu.B	r1, r7
 227 000e 45 A7 05                		cmp	5[r10].UB, r7
 228 0011 17                      		beq	.L26
 229                             	.LVL32:
 230 0012 45 A7 11                		cmp	17[r10].UB, r7
 231 0015 21 41                   		bne	.L28
 232 0017 0C                      		bra	.L27
 233                             	.LVL33:
 234                             	.L26:
 388:C:/Workspace/FW_Inertia/branch_indesit/PlatformLibrary/LIB_IOManager\ExternalOutputManager.c **** 	uint8_t i=0;
 235                             		.loc 1 388 0
 236 0018 66 0A                   		mov	#0, r10
 237 001a 0C                      		bra	.L23
 238                             	.LVL34:
 239                             	.L27:
 399:C:/Workspace/FW_Inertia/branch_indesit/PlatformLibrary/LIB_IOManager\ExternalOutputManager.c **** 		i++;
 240                             		.loc 1 399 0
 241 001b 66 1A                   		mov	#1, r10
 242                             	.LVL35:
 243 001d 03                      		.balign 2,3,1
 244                             	.L23:
 408:C:/Workspace/FW_Inertia/branch_indesit/PlatformLibrary/LIB_IOManager\ExternalOutputManager.c **** 	uart = IOM_External_LoadsTable[i].CommCh;
 245                             		.loc 1 408 0
 246 001e 5B AA                   		movu.B	r10, r10
 247                             	.LVL36:
 248 0020 63 CA                   		mul	#12, r10
 249                             	.LVL37:
 250 0022 70 AA 00 00 00 00       		add	#_IOM_External_LoadsTable, r10
 410:C:/Workspace/FW_Inertia/branch_indesit/PlatformLibrary/LIB_IOManager\ExternalOutputManager.c **** 	pCmd = IOM_External_CommandBufferTable[uart].pCmdBuffer + offset;
 251                             		.loc 1 410 0
 252 0028 59 A7 09                		movu.B	9[r10], r7
 253 002b 63 C7                   		mul	#12, r7
 254 002d 70 77 00 00 00 00       		add	#_IOM_External_CommandBufferTable, r7
 255 0033 59 AE 06                		movu.B	6[r10], r14
 256 0036 EC 77                   		mov.L	[r7], r7
 257 0038 4B E7                   		add	r14, r7
 258                             	.LVL38:
 411:C:/Workspace/FW_Inertia/branch_indesit/PlatformLibrary/LIB_IOManager\ExternalOutputManager.c **** 	UseExternalBoard();
 259                             		.loc 1 411 0
 260 003a 05 00 00 00             		bsr	_UseExternalBoard
 261                             	.LVL39:
 412:C:/Workspace/FW_Inertia/branch_indesit/PlatformLibrary/LIB_IOManager\ExternalOutputManager.c **** 	*pCmd = pilotType;
 262                             		.loc 1 412 0
 263 003e C3 7C                   		mov.B	r12, [r7]
 413:C:/Workspace/FW_Inertia/branch_indesit/PlatformLibrary/LIB_IOManager\ExternalOutputManager.c **** 	*(pCmd+1) = IOM_External_LoadsTable[i].Displacement;	
 264                             		.loc 1 413 0
 265 0040 C5 A7 08 01             		mov.B	8[r10], 1[r7]
 414:C:/Workspace/FW_Inertia/branch_indesit/PlatformLibrary/LIB_IOManager\ExternalOutputManager.c **** 	memcpy((pCmd+2), &pLoad->data[0], IOM_External_LoadsTable[i].szCmd);
 266                             		.loc 1 414 0
 267 0044 71 71 02                		add	#2, r7, r1
 268 0047 71 D2 02                		add	#2, r13, r2
 269 004a 59 A3 07                		movu.B	7[r10], r3
 270 004d 7F 8F                   		smovf
 415:C:/Workspace/FW_Inertia/branch_indesit/PlatformLibrary/LIB_IOManager\ExternalOutputManager.c **** 	UnuseExternalBoard();
 271                             		.loc 1 415 0
 272 004f 05 00 00 00             		bsr	_UnuseExternalBoard
 273                             	.LVL40:
 417:C:/Workspace/FW_Inertia/branch_indesit/PlatformLibrary/LIB_IOManager\ExternalOutputManager.c **** 	return LIB_IOM_NO_ERROR;
 274                             		.loc 1 417 0
 275 0053 66 01                   		mov.L	#0, r1
 276 0055 09                      		bra	.L29
 277                             	.LVL41:
 278                             	.L28:
 404:C:/Workspace/FW_Inertia/branch_indesit/PlatformLibrary/LIB_IOManager\ExternalOutputManager.c **** 		PLT_ERROR_WARNING(PLT_ERROR_IOM_EXT_OUTMNG_MAX_NUM_EXTERNAL_LOADS_REACHED_ERR);
 279                             		.loc 1 404 0
 280 0056 66 A1                   		mov.L	#10, r1
 281                             	.LVL42:
 282 0058 05 00 00 00             		bsr	_LIB_Error_Warning_Handler
 283                             	.LVL43:
 405:C:/Workspace/FW_Inertia/branch_indesit/PlatformLibrary/LIB_IOManager\ExternalOutputManager.c ****     	return LIB_IOM_EXTERNAL_SETCOMMAND_ERR;  /* Serious Error */
 284                             		.loc 1 405 0
 285 005c 66 31                   		mov.L	#3, r1
 286                             	.LVL44:
 287                             		.balign 2,3,2
 288                             	.L29:
 418:C:/Workspace/FW_Inertia/branch_indesit/PlatformLibrary/LIB_IOManager\ExternalOutputManager.c **** }
 289                             		.loc 1 418 0
 290 005e 3F 7D 07                		rtsd	#28, r7-r13
 291                             	.LFE2:
 293 0061 03                      		.section	.text.LIB_IOM_External_SetReadRamRequest,"ax",@progbits
 294                             		.global	_LIB_IOM_External_SetReadRamRequest
 296                             	_LIB_IOM_External_SetReadRamRequest:
 297                             	.LFB3:
 442:C:/Workspace/FW_Inertia/branch_indesit/PlatformLibrary/LIB_IOManager\ExternalOutputManager.c **** {
 298                             		.loc 1 442 0
 299                             	.LVL45:
 300 0000 6E 7C                   		pushm	r7-r12
 301                             	.LCFI3:
 302                             	.LVL46:
 446:C:/Workspace/FW_Inertia/branch_indesit/PlatformLibrary/LIB_IOManager\ExternalOutputManager.c **** 	if(len < 5)
 303                             		.loc 1 446 0
 304 0002 5B 22                   		movu.B	r2, r2
 305 0004 61 42                   		cmp	#4, r2
 306 0006 24 07                   		bgtu	.L32
 448:C:/Workspace/FW_Inertia/branch_indesit/PlatformLibrary/LIB_IOManager\ExternalOutputManager.c **** 		PLT_ERROR_WARNING(PLT_ERROR_IOM_EXT_OUTMNG_MISSINGDATA_SETREADRAM_ERR);
 307                             		.loc 1 448 0
 308 0008 75 41 11                		mov.L	#17, r1
 309                             	.LVL47:
 310 000b 2E 51                   		bra	.L37
 311                             	.LVL48:
 312                             	.L32:
 313 000d EF 17                   		mov.L	r1, r7
 314                             	.LVL49:
 452:C:/Workspace/FW_Inertia/branch_indesit/PlatformLibrary/LIB_IOManager\ExternalOutputManager.c **** 	uart = (uint8_t)(*(pDataRamReq+4) & 0x0F);
 315                             		.loc 1 452 0
 316 000f CD 1B 04                		mov.B	4[r1], r11
 317 0012 64 FB                   		and	#15, r11
 454:C:/Workspace/FW_Inertia/branch_indesit/PlatformLibrary/LIB_IOManager\ExternalOutputManager.c **** 	if(uart >= EXTERNAL_NUM)
 318                             		.loc 1 454 0
 319 0014 EF BA                   		mov.L	r11, r10
 320 0016 15                      		beq	.L34
 321                             	.LVL50:
 456:C:/Workspace/FW_Inertia/branch_indesit/PlatformLibrary/LIB_IOManager\ExternalOutputManager.c **** 		PLT_ERROR_WARNING(PLT_ERROR_IOM_EXT_OUTMNG_MAX_CHANNEL_NUM_REACHED_ERR);
 322                             		.loc 1 456 0
 323 0017 66 F1                   		mov.L	#15, r1
 324                             	.LVL51:
 325 0019 2E 43                   		bra	.L37
 326                             	.LVL52:
 327                             	.L34:
 460:C:/Workspace/FW_Inertia/branch_indesit/PlatformLibrary/LIB_IOManager\ExternalOutputManager.c **** 	pCmd = IOM_External_CommandBufferTable[uart].pCmdBuffer + IOM_External_CommandBufferCntTable[uart]
 328                             		.loc 1 460 0
 329 001b FB C2 00 00 00 00       		mov.L	#_IOM_External_CommandBufferCntTable, r12
 330 0021 58 CC                   		movu.B	[r12], r12
 331                             	.LVL53:
 462:C:/Workspace/FW_Inertia/branch_indesit/PlatformLibrary/LIB_IOManager\ExternalOutputManager.c **** 	if((IOM_External_CommandBufferTable[uart].pCmdBuffer + IOM_External_CommandBufferTable[uart].szCmd
 332                             		.loc 1 462 0
 333 0023 70 CE 00 00 00 00       		add	#_IOM_CommandBufferExternal_0+4, r12, r14
 460:C:/Workspace/FW_Inertia/branch_indesit/PlatformLibrary/LIB_IOManager\ExternalOutputManager.c **** 	pCmd = IOM_External_CommandBufferTable[uart].pCmdBuffer + IOM_External_CommandBufferCntTable[uart]
 334                             		.loc 1 460 0
 335 0029 70 CC 00 00 00 00       		add	#_IOM_CommandBufferExternal_0, r12
 336                             	.LVL54:
 462:C:/Workspace/FW_Inertia/branch_indesit/PlatformLibrary/LIB_IOManager\ExternalOutputManager.c **** 	if((IOM_External_CommandBufferTable[uart].pCmdBuffer + IOM_External_CommandBufferTable[uart].szCmd
 337                             		.loc 1 462 0
 338 002f 74 0E 00 00 00 00       		cmp	#_IOM_CommandBufferExternal_0+27, r14
 339 0035 24 24                   		bgtu	.L35
 464:C:/Workspace/FW_Inertia/branch_indesit/PlatformLibrary/LIB_IOManager\ExternalOutputManager.c **** 		UseExternalBoard();
 340                             		.loc 1 464 0
 341 0037 05 00 00 00             		bsr	_UseExternalBoard
 342                             	.LVL55:
 465:C:/Workspace/FW_Inertia/branch_indesit/PlatformLibrary/LIB_IOManager\ExternalOutputManager.c **** 		*pCmd = 0; /* PilotType Reserved for read ram */
 343                             		.loc 1 465 0
 344 003b EF CE                   		mov.L	r12, r14
 345 003d FD 20 EB                		mov.B	r11, [r14+]
 467:C:/Workspace/FW_Inertia/branch_indesit/PlatformLibrary/LIB_IOManager\ExternalOutputManager.c **** 		(void)memcpy((uint8_t*)(pCmd+1), pDataRamReq, IOM_EXT_CMDDATA_RAM_READ_SZ);
 346                             		.loc 1 467 0
 347 0040 E0 7E                   		mov.L	[r7], [r14]
 468:C:/Workspace/FW_Inertia/branch_indesit/PlatformLibrary/LIB_IOManager\ExternalOutputManager.c **** 		UnuseExternalBoard();
 348                             		.loc 1 468 0
 349 0042 05 00 00 00             		bsr	_UnuseExternalBoard
 350                             	.LVL56:
 470:C:/Workspace/FW_Inertia/branch_indesit/PlatformLibrary/LIB_IOManager\ExternalOutputManager.c **** 		ExternalSeqId[uart].NewReq= (uint8_t)(*(pDataRamReq+IOM_EXT_CMDDATA_RAM_READ_SZ) & 0xF0);
 351                             		.loc 1 470 0
 352 0046 CD 7B 04                		mov.B	4[r7], r11
 353 0049 75 2B F0                		and #-16, r11
 354 004c FB 72 00 00 00 00       		mov.L	#_ExternalSeqId, r7
 355                             	.LVL57:
 356 0052 C7 7B 02                		mov.B	r11, 2[r7]
 477:C:/Workspace/FW_Inertia/branch_indesit/PlatformLibrary/LIB_IOManager\ExternalOutputManager.c **** 	return LIB_IOM_NO_ERROR;
 357                             		.loc 1 477 0
 358 0055 EF A1                   		mov.L	r10, r1
 359 0057 2E 0B                   		bra	.L33
 360                             	.LVL58:
 361                             	.L35:
 474:C:/Workspace/FW_Inertia/branch_indesit/PlatformLibrary/LIB_IOManager\ExternalOutputManager.c **** 		PLT_ERROR_WARNING(PLT_ERROR_IOM_EXT_OUTMNG_TOOMANY_BYTES_CMDBUFFER_ERR);
 362                             		.loc 1 474 0
 363 0059 75 41 10                		mov.L	#16, r1
 364                             	.LVL59:
 365                             		.balign 2,3,3
 366                             	.L37:
 367 005c 05 00 00 00             		bsr	_LIB_Error_Warning_Handler
 368                             	.LVL60:
 475:C:/Workspace/FW_Inertia/branch_indesit/PlatformLibrary/LIB_IOManager\ExternalOutputManager.c ****         return LIB_IOM_EXTERNAL_SETREADRAMREQ_ERR;  /* Serious Error */
 369                             		.loc 1 475 0
 370 0060 66 41                   		mov.L	#4, r1
 371                             		.balign 2,3,2
 372                             	.L33:
 478:C:/Workspace/FW_Inertia/branch_indesit/PlatformLibrary/LIB_IOManager\ExternalOutputManager.c **** }
 373                             		.loc 1 478 0
 374 0062 3F 7C 06                		rtsd	#24, r7-r12
 375                             	.LFE3:
 377 0065 03                      		.section	.text.LIB_IOM_External_SetWriteRamRequest,"ax",@progbits
 378                             		.global	_LIB_IOM_External_SetWriteRamRequest
 380                             	_LIB_IOM_External_SetWriteRamRequest:
 381                             	.LFB4:
 502:C:/Workspace/FW_Inertia/branch_indesit/PlatformLibrary/LIB_IOManager\ExternalOutputManager.c **** {
 382                             		.loc 1 502 0
 383                             	.LVL61:
 384 0000 6E 7C                   		pushm	r7-r12
 385                             	.LCFI4:
 386                             	.LVL62:
 506:C:/Workspace/FW_Inertia/branch_indesit/PlatformLibrary/LIB_IOManager\ExternalOutputManager.c **** 	if(len < 5)
 387                             		.loc 1 506 0
 388 0002 5B 22                   		movu.B	r2, r2
 389 0004 61 42                   		cmp	#4, r2
 390 0006 24 0D                   		bgtu	.L39
 508:C:/Workspace/FW_Inertia/branch_indesit/PlatformLibrary/LIB_IOManager\ExternalOutputManager.c **** 		PLT_ERROR_WARNING(PLT_ERROR_IOM_EXT_OUTMNG_MISSINGDATA_SETREADRAM_ERR);
 391                             		.loc 1 508 0
 392 0008 75 41 11                		mov.L	#17, r1
 393                             	.LVL63:
 394 000b 05 00 00 00             		bsr	_LIB_Error_Warning_Handler
 395                             	.LVL64:
 509:C:/Workspace/FW_Inertia/branch_indesit/PlatformLibrary/LIB_IOManager\ExternalOutputManager.c ****         return LIB_IOM_EXTERNAL_SETREADRAMREQ_ERR;  /* Serious Error */
 396                             		.loc 1 509 0
 397 000f 66 41                   		mov.L	#4, r1
 398 0011 2E 55                   		bra	.L40
 399                             	.LVL65:
 400                             	.L39:
 401 0013 EF 17                   		mov.L	r1, r7
 402                             	.LVL66:
 512:C:/Workspace/FW_Inertia/branch_indesit/PlatformLibrary/LIB_IOManager\ExternalOutputManager.c **** 	uart = (uint8_t)(*(pDataRamReq+4) & 0x0F);
 403                             		.loc 1 512 0
 404 0015 CD 1C 04                		mov.B	4[r1], r12
 405 0018 64 FC                   		and	#15, r12
 514:C:/Workspace/FW_Inertia/branch_indesit/PlatformLibrary/LIB_IOManager\ExternalOutputManager.c **** 	if(uart >= EXTERNAL_NUM)
 406                             		.loc 1 514 0
 407 001a 15                      		beq	.L41
 408                             	.LVL67:
 516:C:/Workspace/FW_Inertia/branch_indesit/PlatformLibrary/LIB_IOManager\ExternalOutputManager.c **** 		PLT_ERROR_WARNING(PLT_ERROR_IOM_EXT_OUTMNG_MAX_CHANNEL_NUM_REACHED_ERR);
 409                             		.loc 1 516 0
 410 001b 66 F1                   		mov.L	#15, r1
 411                             	.LVL68:
 412 001d 2E 43                   		bra	.L44
 413                             	.LVL69:
 414                             	.L41:
 526:C:/Workspace/FW_Inertia/branch_indesit/PlatformLibrary/LIB_IOManager\ExternalOutputManager.c **** 	pCmd = IOM_External_CommandBufferTable[uart].pCmdBuffer + IOM_External_CommandBufferCntTable[uart]
 415                             		.loc 1 526 0
 416 001f FB A2 00 00 00 00       		mov.L	#_IOM_External_CommandBufferCntTable, r10
 417 0025 58 AA                   		movu.B	[r10], r10
 418                             	.LVL70:
 528:C:/Workspace/FW_Inertia/branch_indesit/PlatformLibrary/LIB_IOManager\ExternalOutputManager.c **** 	if((IOM_External_CommandBufferTable[uart].pCmdBuffer + IOM_External_CommandBufferTable[uart].szCmd
 419                             		.loc 1 528 0
 420 0027 70 AE 00 00 00 00       		add	#_IOM_CommandBufferExternal_0+4, r10, r14
 526:C:/Workspace/FW_Inertia/branch_indesit/PlatformLibrary/LIB_IOManager\ExternalOutputManager.c **** 	pCmd = IOM_External_CommandBufferTable[uart].pCmdBuffer + IOM_External_CommandBufferCntTable[uart]
 421                             		.loc 1 526 0
 422 002d 70 AA 00 00 00 00       		add	#_IOM_CommandBufferExternal_0, r10
 423                             	.LVL71:
 528:C:/Workspace/FW_Inertia/branch_indesit/PlatformLibrary/LIB_IOManager\ExternalOutputManager.c **** 	if((IOM_External_CommandBufferTable[uart].pCmdBuffer + IOM_External_CommandBufferTable[uart].szCmd
 424                             		.loc 1 528 0
 425 0033 74 0E 00 00 00 00       		cmp	#_IOM_CommandBufferExternal_0+27, r14
 426 0039 24 23                   		bgtu	.L42
 530:C:/Workspace/FW_Inertia/branch_indesit/PlatformLibrary/LIB_IOManager\ExternalOutputManager.c **** 		UseExternalBoard();
 427                             		.loc 1 530 0
 428 003b 05 00 00 00             		bsr	_UseExternalBoard
 429                             	.LVL72:
 531:C:/Workspace/FW_Inertia/branch_indesit/PlatformLibrary/LIB_IOManager\ExternalOutputManager.c **** 		*pCmd = 0; /* PilotType Reserved for write ram */
 430                             		.loc 1 531 0
 431 003f C3 AC                   		mov.B	r12, [r10]
 432                             	.LVL73:
 535:C:/Workspace/FW_Inertia/branch_indesit/PlatformLibrary/LIB_IOManager\ExternalOutputManager.c **** 		(void)memcpy((uint8_t*)(pCmd+1), pDataRamReq, IOM_EXT_CMDDATA_RAM_WRITE_SZ);
 433                             		.loc 1 535 0
 434 0041 62 5A                   		add	#5, r10
 435                             	.LVL74:
 436 0043 E0 7A                   		mov.L	[r7], [r10]
 536:C:/Workspace/FW_Inertia/branch_indesit/PlatformLibrary/LIB_IOManager\ExternalOutputManager.c **** 		UnuseExternalBoard();
 437                             		.loc 1 536 0
 438 0045 05 00 00 00             		bsr	_UnuseExternalBoard
 439                             	.LVL75:
 537:C:/Workspace/FW_Inertia/branch_indesit/PlatformLibrary/LIB_IOManager\ExternalOutputManager.c **** 		ExternalSeqId[uart].NewReq= (uint8_t)(*(pDataRamReq+IOM_EXT_CMDDATA_RAM_WRITE_SZ) & 0xF0);
 440                             		.loc 1 537 0
 441 0049 CD 7A 04                		mov.B	4[r7], r10
 442                             	.LVL76:
 443 004c 75 2A F0                		and #-16, r10
 444 004f FB 72 00 00 00 00       		mov.L	#_ExternalSeqId, r7
 445                             	.LVL77:
 446 0055 C7 7A 02                		mov.B	r10, 2[r7]
 544:C:/Workspace/FW_Inertia/branch_indesit/PlatformLibrary/LIB_IOManager\ExternalOutputManager.c **** 	return LIB_IOM_NO_ERROR;
 447                             		.loc 1 544 0
 448 0058 EF C1                   		mov.L	r12, r1
 449 005a 2E 0C                   		bra	.L40
 450                             	.LVL78:
 451                             	.L42:
 541:C:/Workspace/FW_Inertia/branch_indesit/PlatformLibrary/LIB_IOManager\ExternalOutputManager.c **** 		PLT_ERROR_WARNING(PLT_ERROR_IOM_EXT_OUTMNG_TOOMANY_BYTES_CMDBUFFER_ERR);
 452                             		.loc 1 541 0
 453 005c 75 41 10                		mov.L	#16, r1
 454                             	.LVL79:
 455 005f 03                      		.balign 2,3,3
 456                             	.L44:
 457 0060 05 00 00 00             		bsr	_LIB_Error_Warning_Handler
 458                             	.LVL80:
 542:C:/Workspace/FW_Inertia/branch_indesit/PlatformLibrary/LIB_IOManager\ExternalOutputManager.c ****         return LIB_IOM_EXTERNAL_SETWRITERAMREQ_ERR;  /* Serious Error */
 459                             		.loc 1 542 0
 460 0064 66 51                   		mov.L	#5, r1
 461                             	.LVL81:
 462                             		.balign 2,3,2
 463                             	.L40:
 545:C:/Workspace/FW_Inertia/branch_indesit/PlatformLibrary/LIB_IOManager\ExternalOutputManager.c **** }
 464                             		.loc 1 545 0
 465 0066 3F 7C 06                		rtsd	#24, r7-r12
 466                             	.LFE4:
 468 0069 03                      		.section	.text.LIB_IOM_External_SetExtraRequest,"ax",@progbits
 469                             		.global	_LIB_IOM_External_SetExtraRequest
 471                             	_LIB_IOM_External_SetExtraRequest:
 472                             	.LFB5:
 568:C:/Workspace/FW_Inertia/branch_indesit/PlatformLibrary/LIB_IOManager\ExternalOutputManager.c **** {
 473                             		.loc 1 568 0
 474                             	.LVL82:
 475 0000 6E 7C                   		pushm	r7-r12
 476                             	.LCFI5:
 477                             	.LVL83:
 572:C:/Workspace/FW_Inertia/branch_indesit/PlatformLibrary/LIB_IOManager\ExternalOutputManager.c **** 	if(len < 3)
 478                             		.loc 1 572 0
 479 0002 5B 22                   		movu.B	r2, r2
 480 0004 61 22                   		cmp	#2, r2
 481 0006 24 07                   		bgtu	.L46
 574:C:/Workspace/FW_Inertia/branch_indesit/PlatformLibrary/LIB_IOManager\ExternalOutputManager.c **** 		PLT_ERROR_WARNING(PLT_ERROR_IOM_EXT_OUTMNG_MISSINGDATA_SETREADRAM_ERR);
 482                             		.loc 1 574 0
 483 0008 75 41 11                		mov.L	#17, r1
 484                             	.LVL84:
 485 000b 2E 4F                   		bra	.L51
 486                             	.LVL85:
 487                             	.L46:
 488 000d EF 17                   		mov.L	r1, r7
 489                             	.LVL86:
 578:C:/Workspace/FW_Inertia/branch_indesit/PlatformLibrary/LIB_IOManager\ExternalOutputManager.c **** 	uart = (uint8_t)(*(pDataExtraReq+2) & 0x0F);
 490                             		.loc 1 578 0
 491 000f CD 1C 02                		mov.B	2[r1], r12
 492 0012 64 FC                   		and	#15, r12
 580:C:/Workspace/FW_Inertia/branch_indesit/PlatformLibrary/LIB_IOManager\ExternalOutputManager.c **** 	if(uart >= EXTERNAL_NUM)
 493                             		.loc 1 580 0
 494 0014 15                      		beq	.L48
 495                             	.LVL87:
 582:C:/Workspace/FW_Inertia/branch_indesit/PlatformLibrary/LIB_IOManager\ExternalOutputManager.c **** 		PLT_ERROR_WARNING(PLT_ERROR_IOM_EXT_OUTMNG_MAX_CHANNEL_NUM_REACHED_ERR);
 496                             		.loc 1 582 0
 497 0015 66 F1                   		mov.L	#15, r1
 498                             	.LVL88:
 499 0017 2E 43                   		bra	.L51
 500                             	.LVL89:
 501                             	.L48:
 586:C:/Workspace/FW_Inertia/branch_indesit/PlatformLibrary/LIB_IOManager\ExternalOutputManager.c **** 	pCmd = IOM_External_CommandBufferTable[uart].pCmdBuffer + IOM_External_CommandBufferCntTable[uart]
 502                             		.loc 1 586 0
 503 0019 FB A2 00 00 00 00       		mov.L	#_IOM_External_CommandBufferCntTable, r10
 504 001f 58 AA                   		movu.B	[r10], r10
 505                             	.LVL90:
 589:C:/Workspace/FW_Inertia/branch_indesit/PlatformLibrary/LIB_IOManager\ExternalOutputManager.c **** 	if((IOM_External_CommandBufferTable[uart].pCmdBuffer + IOM_External_CommandBufferTable[uart].szCmd
 506                             		.loc 1 589 0
 507 0021 70 AE 00 00 00 00       		add	#_IOM_CommandBufferExternal_0+2, r10, r14
 586:C:/Workspace/FW_Inertia/branch_indesit/PlatformLibrary/LIB_IOManager\ExternalOutputManager.c **** 	pCmd = IOM_External_CommandBufferTable[uart].pCmdBuffer + IOM_External_CommandBufferCntTable[uart]
 508                             		.loc 1 586 0
 509 0027 70 AA 00 00 00 00       		add	#_IOM_CommandBufferExternal_0, r10
 510                             	.LVL91:
 589:C:/Workspace/FW_Inertia/branch_indesit/PlatformLibrary/LIB_IOManager\ExternalOutputManager.c **** 	if((IOM_External_CommandBufferTable[uart].pCmdBuffer + IOM_External_CommandBufferTable[uart].szCmd
 511                             		.loc 1 589 0
 512 002d 74 0E 00 00 00 00       		cmp	#_IOM_CommandBufferExternal_0+27, r14
 513 0033 24 23                   		bgtu	.L49
 591:C:/Workspace/FW_Inertia/branch_indesit/PlatformLibrary/LIB_IOManager\ExternalOutputManager.c **** 		UseExternalBoard();
 514                             		.loc 1 591 0
 515 0035 05 00 00 00             		bsr	_UseExternalBoard
 516                             	.LVL92:
 593:C:/Workspace/FW_Inertia/branch_indesit/PlatformLibrary/LIB_IOManager\ExternalOutputManager.c **** 		*pCmd = 0; /* PilotType Reserved for write ram */
 517                             		.loc 1 593 0
 518 0039 C3 AC                   		mov.B	r12, [r10]
 519                             	.LVL93:
 596:C:/Workspace/FW_Inertia/branch_indesit/PlatformLibrary/LIB_IOManager\ExternalOutputManager.c **** 		(void)memcpy((uint8_t*)(pCmd+1), pDataExtraReq, 2);
 520                             		.loc 1 596 0
 521 003b 62 9A                   		add	#9, r10
 522                             	.LVL94:
 523 003d D0 7A                   		mov.W	[r7], [r10]
 597:C:/Workspace/FW_Inertia/branch_indesit/PlatformLibrary/LIB_IOManager\ExternalOutputManager.c **** 		UnuseExternalBoard();
 524                             		.loc 1 597 0
 525 003f 05 00 00 00             		bsr	_UnuseExternalBoard
 526                             	.LVL95:
 599:C:/Workspace/FW_Inertia/branch_indesit/PlatformLibrary/LIB_IOManager\ExternalOutputManager.c **** 		ExternalSeqId[uart].NewReq=(uint8_t)(*(pDataExtraReq+IOM_EXT_CMDDATA_EXTRA_REQ_SZ) & 0xF0);
 527                             		.loc 1 599 0
 528 0043 CD 7A 02                		mov.B	2[r7], r10
 529                             	.LVL96:
 530 0046 75 2A F0                		and #-16, r10
 531 0049 FB 72 00 00 00 00       		mov.L	#_ExternalSeqId, r7
 532                             	.LVL97:
 533 004f C7 7A 02                		mov.B	r10, 2[r7]
 606:C:/Workspace/FW_Inertia/branch_indesit/PlatformLibrary/LIB_IOManager\ExternalOutputManager.c **** 	return LIB_IOM_NO_ERROR;
 534                             		.loc 1 606 0
 535 0052 EF C1                   		mov.L	r12, r1
 536 0054 2E 0C                   		bra	.L47
 537                             	.LVL98:
 538                             	.L49:
 603:C:/Workspace/FW_Inertia/branch_indesit/PlatformLibrary/LIB_IOManager\ExternalOutputManager.c **** 		PLT_ERROR_WARNING(PLT_ERROR_IOM_EXT_OUTMNG_TOOMANY_BYTES_CMDBUFFER_ERR);
 539                             		.loc 1 603 0
 540 0056 75 41 10                		mov.L	#16, r1
 541                             	.LVL99:
 542 0059 03                      		.balign 2,3,3
 543                             	.L51:
 544 005a 05 00 00 00             		bsr	_LIB_Error_Warning_Handler
 545                             	.LVL100:
 604:C:/Workspace/FW_Inertia/branch_indesit/PlatformLibrary/LIB_IOManager\ExternalOutputManager.c ****         return LIB_IOM_EXTERNAL_SETEXTRAREQ_ERR;  /* Serious Error */
 546                             		.loc 1 604 0
 547 005e 66 61                   		mov.L	#6, r1
 548                             		.balign 2,3,2
 549                             	.L47:
 607:C:/Workspace/FW_Inertia/branch_indesit/PlatformLibrary/LIB_IOManager\ExternalOutputManager.c **** }
 550                             		.loc 1 607 0
 551 0060 3F 7C 06                		rtsd	#24, r7-r12
 552                             	.LFE5:
 554 0063 03                      		.section	.text.LIB_IOM_External_GetCommandBuffer,"ax",@progbits
 555                             		.global	_LIB_IOM_External_GetCommandBuffer
 557                             	_LIB_IOM_External_GetCommandBuffer:
 558                             	.LFB6:
 632:C:/Workspace/FW_Inertia/branch_indesit/PlatformLibrary/LIB_IOManager\ExternalOutputManager.c **** {
 559                             		.loc 1 632 0
 560                             	.LVL101:
 561 0000 6E 7C                   		pushm	r7-r12
 562                             	.LCFI6:
 633:C:/Workspace/FW_Inertia/branch_indesit/PlatformLibrary/LIB_IOManager\ExternalOutputManager.c **** 	uint8_t* pCmd = IOM_External_CommandBufferTable[uart].pCmdBuffer;
 563                             		.loc 1 633 0
 564 0002 5B 1B                   		movu.B	r1, r11
 565 0004 EF BA                   		mov.L	r11, r10
 566 0006 63 CA                   		mul	#12, r10
 567 0008 70 AA 00 00 00 00       		add	#_IOM_External_CommandBufferTable, r10
 568 000e EC AA                   		mov.L	[r10], r10
 569                             	.LVL102:
 640:C:/Workspace/FW_Inertia/branch_indesit/PlatformLibrary/LIB_IOManager\ExternalOutputManager.c **** 	ExternalSeqId[uart].OldReq &= 0xF0;
 570                             		.loc 1 640 0
 571 0010 EF BE                   		mov.L	r11, r14
 572 0012 63 3E                   		mul	#3, r14
 573 0014 70 EE 00 00 00 00       		add	#_ExternalSeqId, r14
 574 001a CD E4 01                		mov.B	1[r14], r4
 575 001d 75 24 F0                		and #-16, r4
 576 0020 C7 E4 01                		mov.B	r4, 1[r14]
 642:C:/Workspace/FW_Inertia/branch_indesit/PlatformLibrary/LIB_IOManager\ExternalOutputManager.c **** 	if(uart >= EXTERNAL_NUM)
 577                             		.loc 1 642 0
 578 0023 61 0B                   		cmp	#0, r11
 579 0025 11                      		beq	.L53
 644:C:/Workspace/FW_Inertia/branch_indesit/PlatformLibrary/LIB_IOManager\ExternalOutputManager.c **** 		PLT_ERROR_WARNING(PLT_ERROR_IOM_EXT_OUTMNG_MAX_CHANNEL_NUM_REACHED_ERR);
 580                             		.loc 1 644 0
 581 0026 66 F1                   		mov.L	#15, r1
 582                             	.LVL103:
 583 0028 05 00 00 00             		bsr	_LIB_Error_Warning_Handler
 584                             	.LVL104:
 585 002c 2E 40                   		bra	.L67
 586                             	.LVL105:
 587                             	.L53:
 588 002e EF 2C                   		mov.L	r2, r12
 589 0030 EF 37                   		mov.L	r3, r7
 648:C:/Workspace/FW_Inertia/branch_indesit/PlatformLibrary/LIB_IOManager\ExternalOutputManager.c **** 	UseExternalBoard();
 590                             		.loc 1 648 0
 591 0032 05 00 00 00             		bsr	_UseExternalBoard
 592                             	.LVL106:
 593 0036 FB E2 00 00 00 00       		mov.L	#_IOM_External_LoadsTable+9, r14
 650:C:/Workspace/FW_Inertia/branch_indesit/PlatformLibrary/LIB_IOManager\ExternalOutputManager.c **** 	for(i=0; i< ExternalBoardCounter; i++)
 594                             		.loc 1 650 0
 595 003c FB 42 00 00 00 00       		mov.L	#_ExternalBoardCounter, r4
 596 0042 58 42                   		movu.B	[r4], r2
 597 0044 2E 32                   		bra	.L55
 598                             	.LVL107:
 599                             	.L57:
 652:C:/Workspace/FW_Inertia/branch_indesit/PlatformLibrary/LIB_IOManager\ExternalOutputManager.c **** 	    if(IOM_External_LoadsTable[i].CommCh == uart)
 600                             		.loc 1 652 0
 601 0046 58 E4                   		movu.B	[r14], r4
 602 0048 61 04                   		cmp	#0, r4
 603 004a 21 27                   		bne	.L56
 631:C:/Workspace/FW_Inertia/branch_indesit/PlatformLibrary/LIB_IOManager\ExternalOutputManager.c **** LIB_IOM_ErrorType LIB_IOM_External_GetCommandBuffer(uint8_t uart, uint8_t** ppCmd, uint8_t* pCmdLen
 604                             		.loc 1 631 0
 605 004c 71 E3 FD                		add	#-3, r14, r3
 654:C:/Workspace/FW_Inertia/branch_indesit/PlatformLibrary/LIB_IOManager\ExternalOutputManager.c **** 	        p=(IOM_External_CommandBufferTable[uart].pCmdBuffer + IOM_External_LoadsTable[i].CmdOffset
 606                             		.loc 1 654 0
 607 004f 58 33                   		movu.B	[r3], r3
 608 0051 4B A3                   		add	r10, r3
 609                             	.LVL108:
 631:C:/Workspace/FW_Inertia/branch_indesit/PlatformLibrary/LIB_IOManager\ExternalOutputManager.c **** LIB_IOM_ErrorType LIB_IOM_External_GetCommandBuffer(uint8_t uart, uint8_t** ppCmd, uint8_t* pCmdLen
 610                             		.loc 1 631 0
 611 0053 71 E1 FC                		add	#-4, r14, r1
 656:C:/Workspace/FW_Inertia/branch_indesit/PlatformLibrary/LIB_IOManager\ExternalOutputManager.c **** 	        if((  *(p) != IOM_External_LoadsTable[i].PilotType)
 612                             		.loc 1 656 0
 613 0056 58 35                   		movu.B	[r3], r5
 614 0058 44 15                   		cmp	[r1].UB, r5
 615 005a 20 17                   		beq	.L56
 631:C:/Workspace/FW_Inertia/branch_indesit/PlatformLibrary/LIB_IOManager\ExternalOutputManager.c **** LIB_IOM_ErrorType LIB_IOM_External_GetCommandBuffer(uint8_t uart, uint8_t** ppCmd, uint8_t* pCmdLen
 616                             		.loc 1 631 0
 617 005c 71 E5 FF                		add	#-1, r14, r5
 657:C:/Workspace/FW_Inertia/branch_indesit/PlatformLibrary/LIB_IOManager\ExternalOutputManager.c **** 	        && ( *(p + 1) != IOM_External_LoadsTable[i].Displacement))
 618                             		.loc 1 657 0
 619 005f B0 39                   		movu.B	1[r3], r1
 620 0061 44 51                   		cmp	[r5].UB, r1
 621 0063 20 0E                   		beq	.L56
 659:C:/Workspace/FW_Inertia/branch_indesit/PlatformLibrary/LIB_IOManager\ExternalOutputManager.c **** 	            *pCmdLen=0;
 622                             		.loc 1 659 0
 623 0065 C3 74                   		mov.B	r4, [r7]
 660:C:/Workspace/FW_Inertia/branch_indesit/PlatformLibrary/LIB_IOManager\ExternalOutputManager.c **** 	            UnuseExternalBoard();
 624                             		.loc 1 660 0
 625 0067 05 00 00 00             		bsr	_UnuseExternalBoard
 626                             	.LVL109:
 627 006b 03                      		.balign 2,3,1
 628                             	.L67:
 661:C:/Workspace/FW_Inertia/branch_indesit/PlatformLibrary/LIB_IOManager\ExternalOutputManager.c **** 	            return LIB_IOM_EXTERNAL_GETCMD_ERR;
 629                             		.loc 1 661 0
 630 006c 66 21                   		mov.L	#2, r1
 631 006e 38 AE 00                		bra	.L54
 632                             	.LVL110:
 633                             	.L56:
 650:C:/Workspace/FW_Inertia/branch_indesit/PlatformLibrary/LIB_IOManager\ExternalOutputManager.c **** 	for(i=0; i< ExternalBoardCounter; i++)
 634                             		.loc 1 650 0
 635 0071 62 1B                   		add	#1, r11
 636                             	.LVL111:
 637 0073 62 CE                   		add	#12, r14
 638                             	.LVL112:
 639 0075 03                      		.balign 2,3,1
 640                             	.L55:
 650:C:/Workspace/FW_Inertia/branch_indesit/PlatformLibrary/LIB_IOManager\ExternalOutputManager.c **** 	for(i=0; i< ExternalBoardCounter; i++)
 641                             		.loc 1 650 0 is_stmt 0 discriminator 1
 642 0076 5B B4                   		movu.B	r11, r4
 643 0078 47 24                   		cmp	r2, r4
 644 007a 21 CC                   		bne	.L57
 666:C:/Workspace/FW_Inertia/branch_indesit/PlatformLibrary/LIB_IOManager\ExternalOutputManager.c **** 	*pCmdLen = IOM_External_CommandBufferCntTable[uart]; /* */
 645                             		.loc 1 666 0 is_stmt 1
 646 007c FB B2 00 00 00 00       		mov.L	#_IOM_External_CommandBufferCntTable, r11
 647                             	.LVL113:
 648 0082 CC BE                   		mov.B	[r11], r14
 649 0084 C3 7E                   		mov.B	r14, [r7]
 669:C:/Workspace/FW_Inertia/branch_indesit/PlatformLibrary/LIB_IOManager\ExternalOutputManager.c ****                  (pCmd + IOM_External_CommandBufferCntTable[uart] + 1/*pilotype for ram*/ + IOM_EXT
 650                             		.loc 1 669 0
 651 0086 58 BB                   		movu.B	[r11], r11
 652                             	.LVL114:
 671:C:/Workspace/FW_Inertia/branch_indesit/PlatformLibrary/LIB_IOManager\ExternalOutputManager.c ****     (void)memcpy(&cmd_readram, 
 653                             		.loc 1 671 0
 654 0088 4B AB                   		add	r10, r11
 655                             	.LVL115:
 656 008a 71 B4 01                		add	#1, r11, r4
 657                             	.LVL116:
 658 008d DC 43                   		mov.W	[r4], r3
 659                             	.LVL117:
 674:C:/Workspace/FW_Inertia/branch_indesit/PlatformLibrary/LIB_IOManager\ExternalOutputManager.c ****     (void)memcpy(&cmd_extrareq, 
 660                             		.loc 1 674 0
 661 008f 71 B4 09                		add	#9, r11, r4
 662 0092 DC 44                   		mov.W	[r4], r4
 663                             	.LVL118:
 668:C:/Workspace/FW_Inertia/branch_indesit/PlatformLibrary/LIB_IOManager\ExternalOutputManager.c ****     (void)memcpy(&cmd_writeram, 
 664                             		.loc 1 668 0
 665 0094 62 5B                   		add	#5, r11
 666                             	.LVL119:
 677:C:/Workspace/FW_Inertia/branch_indesit/PlatformLibrary/LIB_IOManager\ExternalOutputManager.c ****     if(cmd_writeram)
 667                             		.loc 1 677 0
 668 0096 5C BB                   		movu.W	[r11], r11
 669                             	.LVL120:
 670 0098 61 0B                   		cmp	#0, r11
 671 009a 20 13                   		beq	.L58
 680:C:/Workspace/FW_Inertia/branch_indesit/PlatformLibrary/LIB_IOManager\ExternalOutputManager.c **** 		*pCmdLen += 1+IOM_EXT_CMDDATA_RAM_READ_SZ+IOM_EXT_CMDDATA_RAM_WRITE_SZ; /*reserved pilotType +  r
 672                             		.loc 1 680 0
 673 009c 62 9E                   		add	#9, r14
 674 009e C3 7E                   		mov.B	r14, [r7]
 681:C:/Workspace/FW_Inertia/branch_indesit/PlatformLibrary/LIB_IOManager\ExternalOutputManager.c **** 		ExternalSeqId[uart].OldReq |= 1;
 675                             		.loc 1 681 0
 676 00a0 FB B2 00 00 00 00       		mov.L	#_ExternalSeqId, r11
 677 00a6 CD BE 01                		mov.B	1[r11], r14
 678 00a9 78 0E                   		bset #0, r14
 679 00ab 2E 23                   		bra	.L66
 680                             	.L58:
 683:C:/Workspace/FW_Inertia/branch_indesit/PlatformLibrary/LIB_IOManager\ExternalOutputManager.c **** 	else if(cmd_readram) 
 681                             		.loc 1 683 0
 682 00ad 5F 3B                   		movu.W	r3, r11
 683 00af 61 0B                   		cmp	#0, r11
 684 00b1 17                      		beq	.L60
 686:C:/Workspace/FW_Inertia/branch_indesit/PlatformLibrary/LIB_IOManager\ExternalOutputManager.c **** 		*pCmdLen += 1+IOM_EXT_CMDDATA_RAM_READ_SZ; /*reserved pilotType +  read */
 685                             		.loc 1 686 0
 686 00b2 62 5E                   		add	#5, r14
 687 00b4 C3 7E                   		mov.B	r14, [r7]
 688 00b6 2E 1C                   		bra	.L59
 689                             	.L60:
 688:C:/Workspace/FW_Inertia/branch_indesit/PlatformLibrary/LIB_IOManager\ExternalOutputManager.c **** 	else if(cmd_extrareq) 
 690                             		.loc 1 688 0
 691 00b8 5F 4B                   		movu.W	r4, r11
 692 00ba 61 0B                   		cmp	#0, r11
 693 00bc 20 16                   		beq	.L59
 691:C:/Workspace/FW_Inertia/branch_indesit/PlatformLibrary/LIB_IOManager\ExternalOutputManager.c **** 		*pCmdLen += 1+IOM_EXT_CMDDATA_RAM_READ_SZ+IOM_EXT_CMDDATA_RAM_WRITE_SZ+IOM_EXT_CMDDATA_EXTRA_REQ_
 694                             		.loc 1 691 0
 695 00be 62 BE                   		add	#11, r14
 696 00c0 C3 7E                   		mov.B	r14, [r7]
 692:C:/Workspace/FW_Inertia/branch_indesit/PlatformLibrary/LIB_IOManager\ExternalOutputManager.c **** 		ExternalSeqId[uart].OldReq |= 2;
 697                             		.loc 1 692 0
 698 00c2 FB B2 00 00 00 00       		mov.L	#_ExternalSeqId, r11
 699 00c8 CD BE 01                		mov.B	1[r11], r14
 700 00cb 78 1E                   		bset #1, r14
 701 00cd 03                      		.balign 2,3,5
 702                             	.L66:
 703 00ce C7 BE 01                		mov.B	r14, 1[r11]
 704 00d1 03                      		.balign 2,3,5
 705                             	.L59:
 695:C:/Workspace/FW_Inertia/branch_indesit/PlatformLibrary/LIB_IOManager\ExternalOutputManager.c **** 	ExternalSeqId[uart].Seq++;
 706                             		.loc 1 695 0
 707 00d2 FB E2 00 00 00 00       		mov.L	#_ExternalSeqId, r14
 708 00d8 CC EB                   		mov.B	[r14], r11
 709 00da 62 1B                   		add	#1, r11
 710 00dc C3 EB                   		mov.B	r11, [r14]
 697:C:/Workspace/FW_Inertia/branch_indesit/PlatformLibrary/LIB_IOManager\ExternalOutputManager.c **** 	*ppCmd = IOM_External_CommandBufferTable[uart].pCmdBufferTx;
 711                             		.loc 1 697 0
 712 00de FB B2 00 00 00 00       		mov.L	#_IOM_External_CommandBufferTable, r11
 713 00e4 ED B1 01                		mov.L	4[r11], r1
 714 00e7 E3 C1                   		mov.L	r1, [r12]
 699:C:/Workspace/FW_Inertia/branch_indesit/PlatformLibrary/LIB_IOManager\ExternalOutputManager.c **** 	if((ExternalSeqId[uart].OldReq & 0xF0) != ExternalSeqId[uart].NewReq)
 715                             		.loc 1 699 0
 716 00e9 CD EB 01                		mov.B	1[r14], r11
 717 00ec 59 E4 02                		movu.B	2[r14], r4
 718                             	.LVL121:
 719 00ef EF BC                   		mov.L	r11, r12
 720                             	.LVL122:
 721 00f1 76 2C F0 00             		and #0xf0, r12
 722 00f5 47 C4                   		cmp	r12, r4
 723 00f7 20 0F                   		beq	.L61
 701:C:/Workspace/FW_Inertia/branch_indesit/PlatformLibrary/LIB_IOManager\ExternalOutputManager.c **** 		ExternalSeqId[uart].OldReq &= 0x0F;
 724                             		.loc 1 701 0
 725 00f9 64 FB                   		and #15, r11
 702:C:/Workspace/FW_Inertia/branch_indesit/PlatformLibrary/LIB_IOManager\ExternalOutputManager.c **** 		ExternalSeqId[uart].OldReq += ExternalSeqId[uart].NewReq;
 726                             		.loc 1 702 0
 727 00fb 06 09 EB 02             		add	2[r14].B, r11
 728 00ff C7 EB 01                		mov.B	r11, 1[r14]
 703:C:/Workspace/FW_Inertia/branch_indesit/PlatformLibrary/LIB_IOManager\ExternalOutputManager.c **** 		ExternalSeqId[uart].Seq=0;
 729                             		.loc 1 703 0
 730 0102 F8 E4 00                		mov.B	#0, [r14]
 731 0105 03                      		.balign 2,3,5
 732                             	.L61:
 706:C:/Workspace/FW_Inertia/branch_indesit/PlatformLibrary/LIB_IOManager\ExternalOutputManager.c **** 	*IOM_External_CommandBufferTable[uart].pCmdBuffer = ExternalSeqId[uart].OldReq;
 733                             		.loc 1 706 0
 734 0106 FB B2 00 00 00 00       		mov.L	#_ExternalSeqId, r11
 735 010c C1 BA 01                		mov.B	1[r11], [r10]
 707:C:/Workspace/FW_Inertia/branch_indesit/PlatformLibrary/LIB_IOManager\ExternalOutputManager.c **** 	memcpy(IOM_External_CommandBufferTable[uart].pCmdBufferTx, IOM_External_CommandBufferTable[uart].p
 736                             		.loc 1 707 0
 737 010f EF A2                   		mov.L	r10, r2
 738 0111 58 73                   		movu.B	[r7], r3
 739                             	.LVL123:
 740 0113 7F 8F                   		smovf
 709:C:/Workspace/FW_Inertia/branch_indesit/PlatformLibrary/LIB_IOManager\ExternalOutputManager.c **** 	UnuseExternalBoard();
 741                             		.loc 1 709 0
 742 0115 05 00 00 00             		bsr	_UnuseExternalBoard
 743                             	.LVL124:
 711:C:/Workspace/FW_Inertia/branch_indesit/PlatformLibrary/LIB_IOManager\ExternalOutputManager.c **** 	return LIB_IOM_NO_ERROR;
 744                             		.loc 1 711 0
 745 0119 66 01                   		mov.L	#0, r1
 746                             	.LVL125:
 747 011b 03                      		.balign 2,3,2
 748                             	.L54:
 712:C:/Workspace/FW_Inertia/branch_indesit/PlatformLibrary/LIB_IOManager\ExternalOutputManager.c **** }
 749                             		.loc 1 712 0
 750 011c 3F 7C 06                		rtsd	#24, r7-r12
 751                             	.LFE6:
 753 011f 03                      		.section	.text.LIB_IOM_External_GetInfoBuffer,"ax",@progbits
 754                             		.global	_LIB_IOM_External_GetInfoBuffer
 756                             	_LIB_IOM_External_GetInfoBuffer:
 757                             	.LFB7:
 736:C:/Workspace/FW_Inertia/branch_indesit/PlatformLibrary/LIB_IOManager\ExternalOutputManager.c **** {
 758                             		.loc 1 736 0
 759                             	.LVL126:
 760 0000 6E 7A                   		pushm	r7-r10
 761                             	.LCFI7:
 762 0002 EF 27                   		mov.L	r2, r7
 763 0004 CF 3A                   		mov.B	r3, r10
 764                             	.LVL127:
 738:C:/Workspace/FW_Inertia/branch_indesit/PlatformLibrary/LIB_IOManager\ExternalOutputManager.c **** 	uint8_t extBoardPos = LIB_IOM_GetExtBoardPos(extloadItem);
 765                             		.loc 1 738 0
 766 0006 5B 11                   		movu.B	r1, r1
 767 0008 05 00 00 00             		bsr	_LIB_IOM_GetExtBoardPos
 768                             	.LVL128:
 740:C:/Workspace/FW_Inertia/branch_indesit/PlatformLibrary/LIB_IOManager\ExternalOutputManager.c **** 	if (extBoardPos != LOAD_NOT_FOUND)
 769                             		.loc 1 740 0
 770 000c 5B 14                   		movu.B	r1, r4
 771 000e 75 54 FF                		cmp	#0xff, r4
 772 0011 20 30                   		beq	.L71
 773                             	.LBB6:
 742:C:/Workspace/FW_Inertia/branch_indesit/PlatformLibrary/LIB_IOManager\ExternalOutputManager.c **** 		uint8_t maxSize = MIN(IOM_External_LoadsTable[extBoardPos].szPilotTypeInfo, szData);
 774                             		.loc 1 742 0
 775 0013 EF 1E                   		mov.L	r1, r14
 776 0015 76 2E FF 00             		and #0xff, r14
 777                             	.LVL129:
 778 0019 63 CE                   		mul	#12, r14
 779                             	.LVL130:
 780 001b 70 E4 00 00 00 00       		add	#_IOM_External_LoadsTable, r14, r4
 781 0021 89 44                   		mov.B	4[r4], r4
 782 0023 CF A3                   		mov.B	r10, r3
 783 0025 5B A1                   		movu.B	r10, r1
 784                             	.LVL131:
 785 0027 5B 42                   		movu.B	r4, r2
 786 0029 47 21                   		cmp	r2, r1
 787 002b 25 05                   		bleu	.L70
 788 002d CF 43                   		mov.B	r4, r3
 789 002f 03                      		.balign 2,3,5
 790                             	.L70:
 744:C:/Workspace/FW_Inertia/branch_indesit/PlatformLibrary/LIB_IOManager\ExternalOutputManager.c **** 		memcpy(pByteData, IOM_External_LoadsTable[extBoardPos].pPilotTypeInfo, maxSize);
 791                             		.loc 1 744 0
 792 0030 70 EE 00 00 00 00       		add	#_IOM_External_LoadsTable, r14
 793 0036 EF 71                   		mov.L	r7, r1
 794 0038 EC E2                   		mov.L	[r14], r2
 795 003a 5B 33                   		movu.B	r3, r3
 796 003c 7F 8F                   		smovf
 797                             	.LVL132:
 745:C:/Workspace/FW_Inertia/branch_indesit/PlatformLibrary/LIB_IOManager\ExternalOutputManager.c **** 		resVal = TRUE;
 798                             		.loc 1 745 0
 799 003e 66 11                   		mov.L	#1, r1
 800 0040 0C                      		bra	.L69
 801                             	.LVL133:
 802                             	.L71:
 803                             	.LBE6:
 737:C:/Workspace/FW_Inertia/branch_indesit/PlatformLibrary/LIB_IOManager\ExternalOutputManager.c **** 	bool_t resVal = FALSE;
 804                             		.loc 1 737 0
 805 0041 66 01                   		mov.L	#0, r1
 806                             	.LVL134:
 807 0043 03                      		.balign 2,3,2
 808                             	.L69:
 750:C:/Workspace/FW_Inertia/branch_indesit/PlatformLibrary/LIB_IOManager\ExternalOutputManager.c **** }
 809                             		.loc 1 750 0
 810 0044 3F 7A 04                		rtsd	#16, r7-r10
 811                             	.LFE7:
 813 0047 03                      		.section	.text.LIB_IOM_Ext_GetCommonBuffer,"ax",@progbits
 814                             		.global	_LIB_IOM_Ext_GetCommonBuffer
 816                             	_LIB_IOM_Ext_GetCommonBuffer:
 817                             	.LFB8:
 774:C:/Workspace/FW_Inertia/branch_indesit/PlatformLibrary/LIB_IOManager\ExternalOutputManager.c **** {
 818                             		.loc 1 774 0
 819                             	.LVL135:
 780:C:/Workspace/FW_Inertia/branch_indesit/PlatformLibrary/LIB_IOManager\ExternalOutputManager.c **** 	if (commCh == EXTERNAL_0)
 820                             		.loc 1 780 0
 821 0000 76 21 FF 00             		and #0xff, r1
 822                             	.LVL136:
 823 0004 21 19                   		bne	.L76
 824                             	.LVL137:
 825                             	.LBB7:
 782:C:/Workspace/FW_Inertia/branch_indesit/PlatformLibrary/LIB_IOManager\ExternalOutputManager.c **** 		uint8_t maxSize = MIN(sizeof(ExternalGlobalData_0), szData);
 826                             		.loc 1 782 0
 827 0006 5B 3E                   		movu.B	r3, r14
 828 0008 61 CE                   		cmp	#12, r14
 829 000a 25 04                   		bleu	.L75
 830 000c 66 C3                   		mov	#12, r3
 831                             	.LVL138:
 832                             		.balign 2,3,1
 833                             	.L75:
 784:C:/Workspace/FW_Inertia/branch_indesit/PlatformLibrary/LIB_IOManager\ExternalOutputManager.c **** 		memcpy(pCmnData, ExternalGlobalData_0, maxSize);
 834                             		.loc 1 784 0
 835 000e EF 21                   		mov.L	r2, r1
 836 0010 FB 22 00 00 00 00       		mov.L	#_ExternalGlobalData_0, r2
 837                             	.LVL139:
 838 0016 5B 33                   		movu.B	r3, r3
 839 0018 7F 8F                   		smovf
 840                             	.LVL140:
 785:C:/Workspace/FW_Inertia/branch_indesit/PlatformLibrary/LIB_IOManager\ExternalOutputManager.c **** 		resVal = TRUE;
 841                             		.loc 1 785 0
 842 001a 66 11                   		mov.L	#1, r1
 843 001c 02                      		rts
 844                             	.LVL141:
 845                             	.L76:
 846                             	.LBE7:
 775:C:/Workspace/FW_Inertia/branch_indesit/PlatformLibrary/LIB_IOManager\ExternalOutputManager.c **** 	bool_t resVal = FALSE;
 847                             		.loc 1 775 0
 848 001d 66 01                   		mov.L	#0, r1
 849                             	.LVL142:
 802:C:/Workspace/FW_Inertia/branch_indesit/PlatformLibrary/LIB_IOManager\ExternalOutputManager.c **** }
 850                             		.loc 1 802 0
 851 001f 02                      		rts
 852                             	.LFE8:
 854                             		.section	.text.LIB_IOM_Ext_GetExtdLoadComChan,"ax",@progbits
 855                             		.global	_LIB_IOM_Ext_GetExtdLoadComChan
 857                             	_LIB_IOM_Ext_GetExtdLoadComChan:
 858                             	.LFB9:
 826:C:/Workspace/FW_Inertia/branch_indesit/PlatformLibrary/LIB_IOManager\ExternalOutputManager.c **** {
 859                             		.loc 1 826 0
 860                             	.LVL143:
 828:C:/Workspace/FW_Inertia/branch_indesit/PlatformLibrary/LIB_IOManager\ExternalOutputManager.c **** 	uint8_t extBoardPos = LIB_IOM_GetExtBoardPos(extloadItem);
 861                             		.loc 1 828 0
 862 0000 5B 11                   		movu.B	r1, r1
 863 0002 05 00 00 00             		bsr	_LIB_IOM_GetExtBoardPos
 864                             	.LVL144:
 830:C:/Workspace/FW_Inertia/branch_indesit/PlatformLibrary/LIB_IOManager\ExternalOutputManager.c **** 	if (extBoardPos != LOAD_NOT_FOUND)
 865                             		.loc 1 830 0
 866 0006 5B 1E                   		movu.B	r1, r14
 867 0008 75 5E FF                		cmp	#0xff, r14
 868 000b 20 11                   		beq	.L79
 832:C:/Workspace/FW_Inertia/branch_indesit/PlatformLibrary/LIB_IOManager\ExternalOutputManager.c **** 		retVal = IOM_External_LoadsTable[extBoardPos].CommCh;
 869                             		.loc 1 832 0
 870 000d 76 21 FF 00             		and #0xff, r1
 871                             	.LVL145:
 872 0011 63 C1                   		mul	#12, r1
 873 0013 70 11 00 00 00 00       		add	#_IOM_External_LoadsTable+8, r1
 874 0019 88 19                   		mov.B	1[r1], r1
 875                             	.LVL146:
 876 001b 0B                      		bra	.L78
 877                             	.LVL147:
 878                             	.L79:
 827:C:/Workspace/FW_Inertia/branch_indesit/PlatformLibrary/LIB_IOManager\ExternalOutputManager.c **** 	uint8_t retVal = EXTERNAL_NUM;
 879                             		.loc 1 827 0
 880 001c 66 11                   		mov	#1, r1
 881                             	.LVL148:
 882                             		.balign 2,3,1
 883                             	.L78:
 836:C:/Workspace/FW_Inertia/branch_indesit/PlatformLibrary/LIB_IOManager\ExternalOutputManager.c **** }
 884                             		.loc 1 836 0
 885 001e 5B 11                   		movu.B	r1, r1
 886 0020 02                      		rts
 887                             	.LFE9:
 889 0021 03                      		.section	.text.LIB_IOM_Ext_GetBoardCounter,"ax",@progbits
 890                             		.global	_LIB_IOM_Ext_GetBoardCounter
 892                             	_LIB_IOM_Ext_GetBoardCounter:
 893                             	.LFB10:
 855:C:/Workspace/FW_Inertia/branch_indesit/PlatformLibrary/LIB_IOManager\ExternalOutputManager.c **** {
 894                             		.loc 1 855 0
 857:C:/Workspace/FW_Inertia/branch_indesit/PlatformLibrary/LIB_IOManager\ExternalOutputManager.c **** }
 895                             		.loc 1 857 0
 896 0000 FB E2 00 00 00 00       		mov.L	#_ExternalBoardCounter, r14
 897 0006 58 E1                   		movu.B	[r14], r1
 898 0008 02                      		rts
 899                             	.LFE10:
 901                             		.section	.text.LIB_IOM_External_GetLoadStatus,"ax",@progbits
 902                             		.global	_LIB_IOM_External_GetLoadStatus
 904                             	_LIB_IOM_External_GetLoadStatus:
 905                             	.LFB11:
 880:C:/Workspace/FW_Inertia/branch_indesit/PlatformLibrary/LIB_IOManager\ExternalOutputManager.c **** {
 906                             		.loc 1 880 0
 907                             	.LVL149:
 883:C:/Workspace/FW_Inertia/branch_indesit/PlatformLibrary/LIB_IOManager\ExternalOutputManager.c **** 	switch(pilotType)
 908                             		.loc 1 883 0
 909 0000 5B 11                   		movu.B	r1, r1
 910 0002 75 51 22                		cmp	#34, r1
 911 0005 15                      		beq	.L84
 912 0006 75 51 23                		cmp	#35, r1
 913 0009 19                      		bne	.L86
 914                             		.balign 2,3,5
 915                             	.L84:
 916                             	.LVL150:
 926:C:/Workspace/FW_Inertia/branch_indesit/PlatformLibrary/LIB_IOManager\ExternalOutputManager.c **** 			if(tmpPtr->rpm)
 917                             		.loc 1 926 0
 918 000a 98 29                   		mov.W	2[r2], r1
 919                             	.LVL151:
 881:C:/Workspace/FW_Inertia/branch_indesit/PlatformLibrary/LIB_IOManager\ExternalOutputManager.c **** 	bool_t bLoadStatus=FALSE;
 920                             		.loc 1 881 0
 921 000c 61 01                   		cmp	#0, r1
 922 000e FC DB 11                		scne.L	r1
 923 0011 02                      		rts
 924                             	.LVL152:
 925                             	.L86:
 926 0012 66 01                   		mov.L	#0, r1
 927                             	.LVL153:
 978:C:/Workspace/FW_Inertia/branch_indesit/PlatformLibrary/LIB_IOManager\ExternalOutputManager.c **** }
 928                             		.loc 1 978 0
 929 0014 02                      		rts
 930                             	.LFE11:
 932 0015 03                      		.section	.text.LIB_IOM_External_ProcessInfoPacketData,"ax",@progbits
 933                             		.global	_LIB_IOM_External_ProcessInfoPacketData
 935                             	_LIB_IOM_External_ProcessInfoPacketData:
 936                             	.LFB12:
1005:C:/Workspace/FW_Inertia/branch_indesit/PlatformLibrary/LIB_IOManager\ExternalOutputManager.c **** {
 937                             		.loc 1 1005 0
1012:C:/Workspace/FW_Inertia/branch_indesit/PlatformLibrary/LIB_IOManager\ExternalOutputManager.c **** 	if(ch >= EXTERNAL_NUM)
 938                             		.loc 1 1012 0
 939 0000 76 21 FF 00             		and #0xff, r1
 940 0004 16                      		beq	.L88
1014:C:/Workspace/FW_Inertia/branch_indesit/PlatformLibrary/LIB_IOManager\ExternalOutputManager.c **** 		PLT_ERROR_WARNING(PLT_ERROR_IOM_EXT_OUTMNG_MAX_CHANNEL_NUM_REACHED_ERR);
 941                             		.loc 1 1014 0
 942 0005 66 F1                   		mov.L	#15, r1
 943 0007 38 A5 00                		bra	.L116
 944                             	.L88:
1005:C:/Workspace/FW_Inertia/branch_indesit/PlatformLibrary/LIB_IOManager\ExternalOutputManager.c **** {
 945                             		.loc 1 1005 0
 946 000a 6E 7D                   		pushm	r7-r13
 947                             	.LCFI8:
1018:C:/Workspace/FW_Inertia/branch_indesit/PlatformLibrary/LIB_IOManager\ExternalOutputManager.c **** 	*(ExternalData[ch].pRamBuffer) = ExternalSeqId[ch].Seq;	/* seqID*/
 948                             		.loc 1 1018 0
 949 000c FB B2 00 00 00 00       		mov.L	#_IOM_ReadRamExternal_0, r11
 950 0012 FB 72 00 00 00 00       		mov.L	#_ExternalSeqId, r7
 951 0018 C0 7B                   		mov.B	[r7], [r11]
1019:C:/Workspace/FW_Inertia/branch_indesit/PlatformLibrary/LIB_IOManager\ExternalOutputManager.c **** 	*(ExternalData[ch].pRamBuffer+1) = *pInfoPacketData;	/* ReqID*/
 952                             		.loc 1 1019 0
 953 001a EF 27                   		mov.L	r2, r7
 954 001c FD 28 7A                		mov.B	[r7+], r10
 955 001f C7 BA 01                		mov.B	r10, 1[r11]
1022:C:/Workspace/FW_Inertia/branch_indesit/PlatformLibrary/LIB_IOManager\ExternalOutputManager.c **** 	rem--;
 956                             		.loc 1 1022 0
 957 0022 71 3A FF                		add	#-1, r3, r10
1026:C:/Workspace/FW_Inertia/branch_indesit/PlatformLibrary/LIB_IOManager\ExternalOutputManager.c **** 	while (rem)
 958                             		.loc 1 1026 0
 959 0025 2E 7B                   		bra	.L110
 960                             	.L100:
1029:C:/Workspace/FW_Inertia/branch_indesit/PlatformLibrary/LIB_IOManager\ExternalOutputManager.c **** 		switch(pilotType)
 961                             		.loc 1 1029 0
 962 0027 59 7B 01                		movu.B	1[r7], r11
 963 002a 61 0B                   		cmp	#0, r11
 964 002c 20 19                   		beq	.L91
 965 002e 75 5B FF                		cmp	#0xff, r11
 966 0031 20 3F                   		beq	.L92
1103:C:/Workspace/FW_Inertia/branch_indesit/PlatformLibrary/LIB_IOManager\ExternalOutputManager.c **** 					if(pilotType ==  IOM_External_LoadsTable[i].PilotType)
 967                             		.loc 1 1103 0 discriminator 1
 968 0033 FB C2 00 00 00 00       		mov.L	#_IOM_External_LoadsTable, r12
 969 0039 45 CB 05                		cmp	5[r12].UB, r11
 970 003c 20 74                   		beq	.L102
1103:C:/Workspace/FW_Inertia/branch_indesit/PlatformLibrary/LIB_IOManager\ExternalOutputManager.c **** 					if(pilotType ==  IOM_External_LoadsTable[i].PilotType)
 971                             		.loc 1 1103 0 is_stmt 0
 972 003e 45 CB 11                		cmp	17[r12].UB, r11
 973 0041 21 67                   		bne	.L111
 974 0043 2E 70                   		bra	.L103
 975                             	.L91:
1037:C:/Workspace/FW_Inertia/branch_indesit/PlatformLibrary/LIB_IOManager\ExternalOutputManager.c **** 			if(((InfoPacketDataHdrType*)pInfoPacketData)->szData)
 976                             		.loc 1 1037 0 is_stmt 1
 977 0045 CC 7B                   		mov.B	[r7], r11
 978 0047 5B BC                   		movu.B	r11, r12
 979 0049 61 0C                   		cmp	#0, r12
 980 004b 20 52                   		beq	.L107
1040:C:/Workspace/FW_Inertia/branch_indesit/PlatformLibrary/LIB_IOManager\ExternalOutputManager.c **** 				offset= (uint8_t)(((InfoPacketDataHdrType*)pInfoPacketData)->szData + 1);
 981                             		.loc 1 1040 0
 982 004d 71 BD 01                		add	#1, r11, r13
 983 0050 CF D9                   		mov.B	r13, r9
1041:C:/Workspace/FW_Inertia/branch_indesit/PlatformLibrary/LIB_IOManager\ExternalOutputManager.c **** 				size = (uint8_t) ((((InfoPacketDataHdrType*)pInfoPacketData)->szData -1 <= (ExternalData[ch].sz
 984                             		.loc 1 1041 0
 985 0052 75 5C 21                		cmp	#33, r12
 986 0055 2A 0C                   		bgt	.L106
 987 0057 60 1B                   		sub	#1, r11
1046:C:/Workspace/FW_Inertia/branch_indesit/PlatformLibrary/LIB_IOManager\ExternalOutputManager.c **** 				if(size > ExternalData[ch].szRamBuffer - 2)
 988                             		.loc 1 1046 0
 989 0059 5B BC                   		movu.B	r11, r12
 990 005b 75 5C 20                		cmp	#32, r12
 991 005e 2A 03                   		bgt	.L106
 992 0060 0C                      		bra	.L97
 993                             	.L106:
1048:C:/Workspace/FW_Inertia/branch_indesit/PlatformLibrary/LIB_IOManager\ExternalOutputManager.c **** 					size =  (uint8_t)(ExternalData[ch].szRamBuffer - 2);
 994                             		.loc 1 1048 0
 995 0061 75 4B 20                		mov	#32, r11
 996                             		.balign 2,3,3
 997                             	.L97:
1051:C:/Workspace/FW_Inertia/branch_indesit/PlatformLibrary/LIB_IOManager\ExternalOutputManager.c **** 				UseExternalInfo();
 998                             		.loc 1 1051 0
 999 0064 05 00 00 00             		bsr	_UseExternalInfo
1052:C:/Workspace/FW_Inertia/branch_indesit/PlatformLibrary/LIB_IOManager\ExternalOutputManager.c **** 				memcpy(ExternalData[ch].pRamBuffer+2/*seqID+toolid*/, pInfoPacketData+2, size);
 1000                             		.loc 1 1052 0
 1001 0068 FB 12 00 00 00 00       		mov.L	#_IOM_ReadRamExternal_0+2, r1
 1002 006e 2E 28                   		bra	.L115
 1003                             	.L92:
1067:C:/Workspace/FW_Inertia/branch_indesit/PlatformLibrary/LIB_IOManager\ExternalOutputManager.c **** 				if(((InfoPacketDataHdrType*)pInfoPacketData)->szData)
 1004                             		.loc 1 1067 0
 1005 0070 CC 7B                   		mov.B	[r7], r11
 1006 0072 5B BC                   		movu.B	r11, r12
 1007 0074 61 0C                   		cmp	#0, r12
 1008 0076 20 27                   		beq	.L107
1070:C:/Workspace/FW_Inertia/branch_indesit/PlatformLibrary/LIB_IOManager\ExternalOutputManager.c **** 					offset= (uint8_t)(((InfoPacketDataHdrType*)pInfoPacketData)->szData + 1);
 1009                             		.loc 1 1070 0
 1010 0078 71 BD 01                		add	#1, r11, r13
 1011 007b CF D9                   		mov.B	r13, r9
1071:C:/Workspace/FW_Inertia/branch_indesit/PlatformLibrary/LIB_IOManager\ExternalOutputManager.c **** 					size = (uint8_t) ((((InfoPacketDataHdrType*)pInfoPacketData)->szData -1 <= (ExternalData[ch].s
 1012                             		.loc 1 1071 0
 1013 007d 61 DC                   		cmp	#13, r12
 1014 007f 2A 0B                   		bgt	.L109
 1015 0081 60 1B                   		sub	#1, r11
1076:C:/Workspace/FW_Inertia/branch_indesit/PlatformLibrary/LIB_IOManager\ExternalOutputManager.c **** 					if(size > ExternalData[ch].szGlobal - 2)
 1016                             		.loc 1 1076 0
 1017 0083 5B BC                   		movu.B	r11, r12
 1018 0085 61 AC                   		cmp	#10, r12
 1019 0087 2B 05                   		ble	.L99
 1020 0089 03                      		.balign 2,3,1
 1021                             	.L109:
1078:C:/Workspace/FW_Inertia/branch_indesit/PlatformLibrary/LIB_IOManager\ExternalOutputManager.c **** 						size =  (uint8_t)(ExternalData[ch].szGlobal - 2);
 1022                             		.loc 1 1078 0
 1023 008a 66 AB                   		mov	#10, r11
 1024                             		.balign 2,3,3
 1025                             	.L99:
1081:C:/Workspace/FW_Inertia/branch_indesit/PlatformLibrary/LIB_IOManager\ExternalOutputManager.c **** 					UseExternalInfo();
 1026                             		.loc 1 1081 0
 1027 008c 05 00 00 00             		bsr	_UseExternalInfo
1082:C:/Workspace/FW_Inertia/branch_indesit/PlatformLibrary/LIB_IOManager\ExternalOutputManager.c **** 					memcpy(ExternalData[ch].pGlobalData, pInfoPacketData+2, size);
 1028                             		.loc 1 1082 0
 1029 0090 FB 12 00 00 00 00       		mov.L	#_ExternalGlobalData_0, r1
 1030                             		.balign 2,3,2
 1031                             	.L115:
 1032 0096 71 72 02                		add	#2, r7, r2
 1033 0099 5B B3                   		movu.B	r11, r3
 1034 009b 2E 4D                   		bra	.L114
 1035                             	.L107:
1090:C:/Workspace/FW_Inertia/branch_indesit/PlatformLibrary/LIB_IOManager\ExternalOutputManager.c **** 					rem =0;
 1036                             		.loc 1 1090 0
 1037 009d CF CA                   		mov.B	r12, r10
 1038 009f 03                      		.balign 2,3,1
 1039                             	.L110:
1026:C:/Workspace/FW_Inertia/branch_indesit/PlatformLibrary/LIB_IOManager\ExternalOutputManager.c **** 	while (rem)
 1040                             		.loc 1 1026 0 discriminator 1
 1041 00a0 5B AB                   		movu.B	r10, r11
 1042 00a2 61 0B                   		cmp	#0, r11
 1043 00a4 21 83                   		bne	.L100
 1044 00a6 2E 50                   		bra	.L112
 1045                             	.L111:
1112:C:/Workspace/FW_Inertia/branch_indesit/PlatformLibrary/LIB_IOManager\ExternalOutputManager.c **** 					PLT_ERROR_WARNING(PLT_ERROR_IOM_EXT_OUTMNG_INVALID_PILOTTYPE_ERR);
 1046                             		.loc 1 1112 0
 1047 00a8 66 91                   		mov.L	#9, r1
1134:C:/Workspace/FW_Inertia/branch_indesit/PlatformLibrary/LIB_IOManager\ExternalOutputManager.c **** }
 1048                             		.loc 1 1134 0
 1049 00aa 6F 7D                   		popm	r7-r13
 1050                             		.balign 2,3,3
 1051                             	.L116:
 1052                             	.LCFI9:
1112:C:/Workspace/FW_Inertia/branch_indesit/PlatformLibrary/LIB_IOManager\ExternalOutputManager.c **** 					PLT_ERROR_WARNING(PLT_ERROR_IOM_EXT_OUTMNG_INVALID_PILOTTYPE_ERR);
 1053                             		.loc 1 1112 0
 1054 00ac 04 00 00 00             		bra	_LIB_Error_Warning_Handler
 1055                             	.L102:
 1056                             	.LCFI10:
1103:C:/Workspace/FW_Inertia/branch_indesit/PlatformLibrary/LIB_IOManager\ExternalOutputManager.c **** 					if(pilotType ==  IOM_External_LoadsTable[i].PilotType)
 1057                             		.loc 1 1103 0
 1058 00b0 66 0B                   		mov	#0, r11
 1059 00b2 0C                      		bra	.L93
 1060                             	.L103:
1107:C:/Workspace/FW_Inertia/branch_indesit/PlatformLibrary/LIB_IOManager\ExternalOutputManager.c **** 					i++;
 1061                             		.loc 1 1107 0
 1062 00b3 66 1B                   		mov	#1, r11
 1063 00b5 03                      		.balign 2,3,5
 1064                             	.L93:
1116:C:/Workspace/FW_Inertia/branch_indesit/PlatformLibrary/LIB_IOManager\ExternalOutputManager.c **** 				offset=(uint8_t)(((InfoPacketDataHdrType*)pInfoPacketData)->szData + 1);
 1065                             		.loc 1 1116 0
 1066 00b6 CC 7C                   		mov.B	[r7], r12
 1067 00b8 71 CD 01                		add	#1, r12, r13
 1068 00bb CF D9                   		mov.B	r13, r9
1119:C:/Workspace/FW_Inertia/branch_indesit/PlatformLibrary/LIB_IOManager\ExternalOutputManager.c **** 				if (size > IOM_External_LoadsTable[i].szPilotTypeInfo)
 1069                             		.loc 1 1119 0
 1070 00bd 5B BB                   		movu.B	r11, r11
 1071 00bf 63 CB                   		mul	#12, r11
 1072 00c1 70 BE 00 00 00 00       		add	#_IOM_External_LoadsTable, r11, r14
 1073 00c7 CD EE 04                		mov.B	4[r14], r14
 1074 00ca 60 1C                   		sub	#1, r12
 1075 00cc 5B C3                   		movu.B	r12, r3
 1076 00ce 5B E4                   		movu.B	r14, r4
 1077 00d0 47 43                   		cmp	r4, r3
 1078 00d2 25 04                   		bleu	.L101
 1079 00d4 CF EC                   		mov.B	r14, r12
 1080                             		.balign 2,3,3
 1081                             	.L101:
1124:C:/Workspace/FW_Inertia/branch_indesit/PlatformLibrary/LIB_IOManager\ExternalOutputManager.c **** 				UseExternalInfo();				
 1082                             		.loc 1 1124 0
 1083 00d6 05 00 00 00             		bsr	_UseExternalInfo
1125:C:/Workspace/FW_Inertia/branch_indesit/PlatformLibrary/LIB_IOManager\ExternalOutputManager.c **** 				memcpy(IOM_External_LoadsTable[i].pPilotTypeInfo, pInfoPacketData+2, size);
 1084                             		.loc 1 1125 0
 1085 00da 70 BB 00 00 00 00       		add	#_IOM_External_LoadsTable, r11
 1086 00e0 EC B1                   		mov.L	[r11], r1
 1087 00e2 71 72 02                		add	#2, r7, r2
 1088 00e5 5B C3                   		movu.B	r12, r3
 1089 00e7 03                      		.balign 2,3,1
 1090                             	.L114:
 1091 00e8 7F 8F                   		smovf
1126:C:/Workspace/FW_Inertia/branch_indesit/PlatformLibrary/LIB_IOManager\ExternalOutputManager.c **** 				UnuseExternalInfo();				
 1092                             		.loc 1 1126 0
 1093 00ea 05 00 00 00             		bsr	_UnuseExternalInfo
1128:C:/Workspace/FW_Inertia/branch_indesit/PlatformLibrary/LIB_IOManager\ExternalOutputManager.c **** 				pInfoPacketData += offset;
 1094                             		.loc 1 1128 0
 1095 00ee 5B 99                   		movu.B	r9, r9
 1096 00f0 4B 97                   		add	r9, r7
1129:C:/Workspace/FW_Inertia/branch_indesit/PlatformLibrary/LIB_IOManager\ExternalOutputManager.c **** 				rem -= offset ;
 1097                             		.loc 1 1129 0
 1098 00f2 43 DA                   		sub	r13, r10
 1099 00f4 2E AC                   		bra	.L110
 1100                             	.L112:
1134:C:/Workspace/FW_Inertia/branch_indesit/PlatformLibrary/LIB_IOManager\ExternalOutputManager.c **** }
 1101                             		.loc 1 1134 0
 1102 00f6 3F 7D 07                		rtsd	#28, r7-r13
 1103                             	.LFE12:
 1105                             		.comm	_IOM_External_CommandBufferCntTable,1,1
 1106                             		.global	_ExternalData
 1107 00f9 03                      		.section	.rodata.ExternalData,"a",@progbits
 1108                             		.balign 4
 1111                             	_ExternalData:
 1112 0000 00 00 00 00             		.long	_IOM_ReadRamExternal_0
 1113 0004 22                      		.byte	34
 1114 0005 00 00 00                		.zero	3
 1115 0008 00 00 00 00             		.long	_ExternalGlobalData_0
 1116 000c 0C                      		.byte	12
 1117 000d 00 00 00                		.zero	3
 1118                             		.comm	_ExternalSeqId,3,1
 1119                             		.global	_IOM_External_CommandBufferTable
 1120                             		.section	.rodata.IOM_External_CommandBufferTable,"a",@progbits
 1121                             		.balign 4
 1124                             	_IOM_External_CommandBufferTable:
 1125 0000 00 00 00 00             		.long	_IOM_CommandBufferExternal_0
 1126 0004 00 00 00 00             		.long	_IOM_CommandBufferExternal_0_Tx
 1127 0008 1C                      		.byte	28
 1128 0009 00 00 00                		.zero	3
 1129                             		.comm	_IOM_External_LoadsTable,24,4
 1130                             		.comm	_ExternalGlobalData_0,12,1
 1131                             		.comm	_IOM_ReadRamExternal_0,34,1
 1132                             		.comm	_IOM_CommandBufferExternal_0_Tx,28,1
 1133                             		.comm	_IOM_CommandBufferExternal_0,28,1
 1134                             		.section	.bss.ExternalBoardCounter,"aw",@nobits
 1137                             	_ExternalBoardCounter:
 1138 0000 00                      		.zero	1
 1422                             	.Letext0:
 1423                             		.file 2 "C:\\Workspace\\FW_Inertia\\branch_indesit\\HAL\\HAL_General/StandardTypes.h"
 1424                             		.file 3 "C:\\Workspace\\FW_Inertia\\branch_indesit\\PlatformLibrary\\LIB_Error/LIB_Error.h"
 1425                             		.file 4 "C:\\Workspace\\FW_Inertia\\branch_indesit\\ProductModules\\PM_Library/LIB_Utilities.h"
 1426                             		.file 5 "C:/Workspace/FW_Inertia/branch_indesit/PlatformLibrary/LIB_IOManager/OutputManagerExp.h"
 1427                             		.file 6 "C:/Workspace/FW_Inertia/branch_indesit/PlatformLibrary/LIB_IOManager/ExternalOutputManage
 1428                             		.file 7 "C:/Workspace/FW_Inertia/branch_indesit/PlatformLibrary/LIB_IOManager/OutputManager.h"
 1429                             		.file 8 "C:\\Workspace\\FW_Inertia\\branch_indesit\\CFG_DishWasher\\CFG_Inertia/Config.h"
DEFINED SYMBOLS
                            *ABS*:00000000 ExternalOutputManager.c
C:\Users\Andrea\AppData\Local\Temp\ccSQva6n.s:7      .text.LIB_IOM_External_Init:00000000 _LIB_IOM_External_Init
C:\Users\Andrea\AppData\Local\Temp\ccSQva6n.s:12     .text.LIB_IOM_External_Init:00000000 L0
                            *COM*:00000001 _IOM_External_CommandBufferCntTable
C:\Users\Andrea\AppData\Local\Temp\ccSQva6n.s:20     .text.LIB_IOM_External_New:00000000 _LIB_IOM_External_New
C:\Users\Andrea\AppData\Local\Temp\ccSQva6n.s:24     .text.LIB_IOM_External_New:00000000 L0
C:\Users\Andrea\AppData\Local\Temp\ccSQva6n.s:1137   .bss.ExternalBoardCounter:00000000 _ExternalBoardCounter
                            *COM*:00000018 _IOM_External_LoadsTable
C:\Users\Andrea\AppData\Local\Temp\ccSQva6n.s:215    .text.LIB_IOM_External_SetCommand:00000000 _LIB_IOM_External_SetCommand
C:\Users\Andrea\AppData\Local\Temp\ccSQva6n.s:219    .text.LIB_IOM_External_SetCommand:00000000 L0
C:\Users\Andrea\AppData\Local\Temp\ccSQva6n.s:1124   .rodata.IOM_External_CommandBufferTable:00000000 _IOM_External_CommandBufferTable
C:\Users\Andrea\AppData\Local\Temp\ccSQva6n.s:296    .text.LIB_IOM_External_SetReadRamRequest:00000000 _LIB_IOM_External_SetReadRamRequest
C:\Users\Andrea\AppData\Local\Temp\ccSQva6n.s:300    .text.LIB_IOM_External_SetReadRamRequest:00000000 L0
                            *COM*:0000001c _IOM_CommandBufferExternal_0
                            *COM*:00000003 _ExternalSeqId
C:\Users\Andrea\AppData\Local\Temp\ccSQva6n.s:380    .text.LIB_IOM_External_SetWriteRamRequest:00000000 _LIB_IOM_External_SetWriteRamRequest
C:\Users\Andrea\AppData\Local\Temp\ccSQva6n.s:384    .text.LIB_IOM_External_SetWriteRamRequest:00000000 L0
C:\Users\Andrea\AppData\Local\Temp\ccSQva6n.s:471    .text.LIB_IOM_External_SetExtraRequest:00000000 _LIB_IOM_External_SetExtraRequest
C:\Users\Andrea\AppData\Local\Temp\ccSQva6n.s:475    .text.LIB_IOM_External_SetExtraRequest:00000000 L0
C:\Users\Andrea\AppData\Local\Temp\ccSQva6n.s:557    .text.LIB_IOM_External_GetCommandBuffer:00000000 _LIB_IOM_External_GetCommandBuffer
C:\Users\Andrea\AppData\Local\Temp\ccSQva6n.s:561    .text.LIB_IOM_External_GetCommandBuffer:00000000 L0
C:\Users\Andrea\AppData\Local\Temp\ccSQva6n.s:756    .text.LIB_IOM_External_GetInfoBuffer:00000000 _LIB_IOM_External_GetInfoBuffer
C:\Users\Andrea\AppData\Local\Temp\ccSQva6n.s:760    .text.LIB_IOM_External_GetInfoBuffer:00000000 L0
C:\Users\Andrea\AppData\Local\Temp\ccSQva6n.s:816    .text.LIB_IOM_Ext_GetCommonBuffer:00000000 _LIB_IOM_Ext_GetCommonBuffer
C:\Users\Andrea\AppData\Local\Temp\ccSQva6n.s:821    .text.LIB_IOM_Ext_GetCommonBuffer:00000000 L0
                            *COM*:0000000c _ExternalGlobalData_0
C:\Users\Andrea\AppData\Local\Temp\ccSQva6n.s:857    .text.LIB_IOM_Ext_GetExtdLoadComChan:00000000 _LIB_IOM_Ext_GetExtdLoadComChan
C:\Users\Andrea\AppData\Local\Temp\ccSQva6n.s:862    .text.LIB_IOM_Ext_GetExtdLoadComChan:00000000 L0
C:\Users\Andrea\AppData\Local\Temp\ccSQva6n.s:892    .text.LIB_IOM_Ext_GetBoardCounter:00000000 _LIB_IOM_Ext_GetBoardCounter
C:\Users\Andrea\AppData\Local\Temp\ccSQva6n.s:896    .text.LIB_IOM_Ext_GetBoardCounter:00000000 L0
C:\Users\Andrea\AppData\Local\Temp\ccSQva6n.s:904    .text.LIB_IOM_External_GetLoadStatus:00000000 _LIB_IOM_External_GetLoadStatus
C:\Users\Andrea\AppData\Local\Temp\ccSQva6n.s:909    .text.LIB_IOM_External_GetLoadStatus:00000000 L0
C:\Users\Andrea\AppData\Local\Temp\ccSQva6n.s:935    .text.LIB_IOM_External_ProcessInfoPacketData:00000000 _LIB_IOM_External_ProcessInfoPacketData
C:\Users\Andrea\AppData\Local\Temp\ccSQva6n.s:939    .text.LIB_IOM_External_ProcessInfoPacketData:00000000 L0
                            *COM*:00000022 _IOM_ReadRamExternal_0
C:\Users\Andrea\AppData\Local\Temp\ccSQva6n.s:1111   .rodata.ExternalData:00000000 _ExternalData
                            *COM*:0000001c _IOM_CommandBufferExternal_0_Tx
C:\Users\Andrea\AppData\Local\Temp\ccSQva6n.s:1140   .debug_frame:00000000 .Lframe0
C:\Users\Andrea\AppData\Local\Temp\ccSQva6n.s:8      .text.LIB_IOM_External_Init:00000000 .LFB0
C:\Users\Andrea\AppData\Local\Temp\ccSQva6n.s:21     .text.LIB_IOM_External_New:00000000 .LFB1
C:\Users\Andrea\AppData\Local\Temp\ccSQva6n.s:216    .text.LIB_IOM_External_SetCommand:00000000 .LFB2
C:\Users\Andrea\AppData\Local\Temp\ccSQva6n.s:297    .text.LIB_IOM_External_SetReadRamRequest:00000000 .LFB3
C:\Users\Andrea\AppData\Local\Temp\ccSQva6n.s:381    .text.LIB_IOM_External_SetWriteRamRequest:00000000 .LFB4
C:\Users\Andrea\AppData\Local\Temp\ccSQva6n.s:472    .text.LIB_IOM_External_SetExtraRequest:00000000 .LFB5
C:\Users\Andrea\AppData\Local\Temp\ccSQva6n.s:558    .text.LIB_IOM_External_GetCommandBuffer:00000000 .LFB6
C:\Users\Andrea\AppData\Local\Temp\ccSQva6n.s:757    .text.LIB_IOM_External_GetInfoBuffer:00000000 .LFB7
C:\Users\Andrea\AppData\Local\Temp\ccSQva6n.s:817    .text.LIB_IOM_Ext_GetCommonBuffer:00000000 .LFB8
C:\Users\Andrea\AppData\Local\Temp\ccSQva6n.s:858    .text.LIB_IOM_Ext_GetExtdLoadComChan:00000000 .LFB9
C:\Users\Andrea\AppData\Local\Temp\ccSQva6n.s:893    .text.LIB_IOM_Ext_GetBoardCounter:00000000 .LFB10
C:\Users\Andrea\AppData\Local\Temp\ccSQva6n.s:905    .text.LIB_IOM_External_GetLoadStatus:00000000 .LFB11
C:\Users\Andrea\AppData\Local\Temp\ccSQva6n.s:936    .text.LIB_IOM_External_ProcessInfoPacketData:00000000 .LFB12
C:\Users\Andrea\AppData\Local\Temp\ccSQva6n.s:3218   .debug_abbrev:00000000 .Ldebug_abbrev0
C:\Users\Andrea\AppData\Local\Temp\ccSQva6n.s:5661   .debug_str:0000054c .LASF211
C:\Users\Andrea\AppData\Local\Temp\ccSQva6n.s:5657   .debug_str:000004db .LASF212
C:\Users\Andrea\AppData\Local\Temp\ccSQva6n.s:5507   .debug_ranges:00000000 .Ldebug_ranges0
C:\Users\Andrea\AppData\Local\Temp\ccSQva6n.s:5537   .debug_line:00000000 .Ldebug_line0
C:\Users\Andrea\AppData\Local\Temp\ccSQva6n.s:5591   .debug_str:00000218 .LASF0
C:\Users\Andrea\AppData\Local\Temp\ccSQva6n.s:5845   .debug_str:00000d47 .LASF2
C:\Users\Andrea\AppData\Local\Temp\ccSQva6n.s:5633   .debug_str:000003d1 .LASF1
C:\Users\Andrea\AppData\Local\Temp\ccSQva6n.s:5707   .debug_str:00000763 .LASF3
C:\Users\Andrea\AppData\Local\Temp\ccSQva6n.s:5691   .debug_str:000006f3 .LASF4
C:\Users\Andrea\AppData\Local\Temp\ccSQva6n.s:5571   .debug_str:0000016e .LASF5
C:\Users\Andrea\AppData\Local\Temp\ccSQva6n.s:5577   .debug_str:00000193 .LASF6
C:\Users\Andrea\AppData\Local\Temp\ccSQva6n.s:5593   .debug_str:00000220 .LASF7
C:\Users\Andrea\AppData\Local\Temp\ccSQva6n.s:5931   .debug_str:0000114f .LASF8
C:\Users\Andrea\AppData\Local\Temp\ccSQva6n.s:5831   .debug_str:00000cd5 .LASF9
C:\Users\Andrea\AppData\Local\Temp\ccSQva6n.s:5595   .debug_str:0000022e .LASF10
C:\Users\Andrea\AppData\Local\Temp\ccSQva6n.s:5601   .debug_str:0000026b .LASF11
C:\Users\Andrea\AppData\Local\Temp\ccSQva6n.s:5839   .debug_str:00000d10 .LASF12
C:\Users\Andrea\AppData\Local\Temp\ccSQva6n.s:5589   .debug_str:00000211 .LASF213
C:\Users\Andrea\AppData\Local\Temp\ccSQva6n.s:5935   .debug_str:00001177 .LASF13
C:\Users\Andrea\AppData\Local\Temp\ccSQva6n.s:5753   .debug_str:00000979 .LASF14
C:\Users\Andrea\AppData\Local\Temp\ccSQva6n.s:5921   .debug_str:000010d7 .LASF15
C:\Users\Andrea\AppData\Local\Temp\ccSQva6n.s:5765   .debug_str:000009eb .LASF16
C:\Users\Andrea\AppData\Local\Temp\ccSQva6n.s:5871   .debug_str:00000e71 .LASF17
C:\Users\Andrea\AppData\Local\Temp\ccSQva6n.s:5915   .debug_str:0000108c .LASF18
C:\Users\Andrea\AppData\Local\Temp\ccSQva6n.s:5861   .debug_str:00000e14 .LASF19
C:\Users\Andrea\AppData\Local\Temp\ccSQva6n.s:5863   .debug_str:00000e27 .LASF20
C:\Users\Andrea\AppData\Local\Temp\ccSQva6n.s:5563   .debug_str:00000109 .LASF21
C:\Users\Andrea\AppData\Local\Temp\ccSQva6n.s:5565   .debug_str:0000011c .LASF22
C:\Users\Andrea\AppData\Local\Temp\ccSQva6n.s:5939   .debug_str:00001195 .LASF23
C:\Users\Andrea\AppData\Local\Temp\ccSQva6n.s:5659   .debug_str:00000538 .LASF24
C:\Users\Andrea\AppData\Local\Temp\ccSQva6n.s:5611   .debug_str:000002d9 .LASF25
C:\Users\Andrea\AppData\Local\Temp\ccSQva6n.s:5809   .debug_str:00000bc9 .LASF26
C:\Users\Andrea\AppData\Local\Temp\ccSQva6n.s:5723   .debug_str:00000814 .LASF27
C:\Users\Andrea\AppData\Local\Temp\ccSQva6n.s:5677   .debug_str:0000061b .LASF28
C:\Users\Andrea\AppData\Local\Temp\ccSQva6n.s:5857   .debug_str:00000dab .LASF29
C:\Users\Andrea\AppData\Local\Temp\ccSQva6n.s:5783   .debug_str:00000ac2 .LASF30
C:\Users\Andrea\AppData\Local\Temp\ccSQva6n.s:5897   .debug_str:00000fa5 .LASF31
C:\Users\Andrea\AppData\Local\Temp\ccSQva6n.s:5731   .debug_str:00000869 .LASF32
C:\Users\Andrea\AppData\Local\Temp\ccSQva6n.s:5887   .debug_str:00000ef4 .LASF33
C:\Users\Andrea\AppData\Local\Temp\ccSQva6n.s:5945   .debug_str:000011d4 .LASF34
C:\Users\Andrea\AppData\Local\Temp\ccSQva6n.s:5859   .debug_str:00000de0 .LASF35
C:\Users\Andrea\AppData\Local\Temp\ccSQva6n.s:5963   .debug_str:000012c7 .LASF36
C:\Users\Andrea\AppData\Local\Temp\ccSQva6n.s:5665   .debug_str:00000583 .LASF37
C:\Users\Andrea\AppData\Local\Temp\ccSQva6n.s:5667   .debug_str:0000059a .LASF38
C:\Users\Andrea\AppData\Local\Temp\ccSQva6n.s:5669   .debug_str:000005b1 .LASF39
C:\Users\Andrea\AppData\Local\Temp\ccSQva6n.s:5671   .debug_str:000005c8 .LASF40
C:\Users\Andrea\AppData\Local\Temp\ccSQva6n.s:5673   .debug_str:000005df .LASF41
C:\Users\Andrea\AppData\Local\Temp\ccSQva6n.s:5975   .debug_str:0000134c .LASF42
C:\Users\Andrea\AppData\Local\Temp\ccSQva6n.s:5541   .debug_str:0000001c .LASF43
C:\Users\Andrea\AppData\Local\Temp\ccSQva6n.s:5763   .debug_str:000009d3 .LASF44
C:\Users\Andrea\AppData\Local\Temp\ccSQva6n.s:5955   .debug_str:0000125f .LASF45
C:\Users\Andrea\AppData\Local\Temp\ccSQva6n.s:5767   .debug_str:000009f4 .LASF46
C:\Users\Andrea\AppData\Local\Temp\ccSQva6n.s:5769   .debug_str:00000a0c .LASF47
C:\Users\Andrea\AppData\Local\Temp\ccSQva6n.s:5771   .debug_str:00000a24 .LASF48
C:\Users\Andrea\AppData\Local\Temp\ccSQva6n.s:5959   .debug_str:0000129a .LASF49
C:\Users\Andrea\AppData\Local\Temp\ccSQva6n.s:5775   .debug_str:00000a56 .LASF50
C:\Users\Andrea\AppData\Local\Temp\ccSQva6n.s:5777   .debug_str:00000a6e .LASF51
C:\Users\Andrea\AppData\Local\Temp\ccSQva6n.s:5709   .debug_str:00000776 .LASF52
C:\Users\Andrea\AppData\Local\Temp\ccSQva6n.s:5791   .debug_str:00000b27 .LASF53
C:\Users\Andrea\AppData\Local\Temp\ccSQva6n.s:5713   .debug_str:0000079c .LASF54
C:\Users\Andrea\AppData\Local\Temp\ccSQva6n.s:5795   .debug_str:00000b4d .LASF55
C:\Users\Andrea\AppData\Local\Temp\ccSQva6n.s:5797   .debug_str:00000b66 .LASF56
C:\Users\Andrea\AppData\Local\Temp\ccSQva6n.s:5967   .debug_str:000012e9 .LASF57
C:\Users\Andrea\AppData\Local\Temp\ccSQva6n.s:5719   .debug_str:000007e2 .LASF58
C:\Users\Andrea\AppData\Local\Temp\ccSQva6n.s:5721   .debug_str:000007fb .LASF59
C:\Users\Andrea\AppData\Local\Temp\ccSQva6n.s:5815   .debug_str:00000bfc .LASF60
C:\Users\Andrea\AppData\Local\Temp\ccSQva6n.s:5903   .debug_str:0000100e .LASF61
C:\Users\Andrea\AppData\Local\Temp\ccSQva6n.s:5901   .debug_str:00000fe9 .LASF62
C:\Users\Andrea\AppData\Local\Temp\ccSQva6n.s:5741   .debug_str:000008ff .LASF63
C:\Users\Andrea\AppData\Local\Temp\ccSQva6n.s:5557   .debug_str:000000d5 .LASF64
C:\Users\Andrea\AppData\Local\Temp\ccSQva6n.s:5855   .debug_str:00000d98 .LASF65
C:\Users\Andrea\AppData\Local\Temp\ccSQva6n.s:5971   .debug_str:00001330 .LASF66
C:\Users\Andrea\AppData\Local\Temp\ccSQva6n.s:5573   .debug_str:00000177 .LASF67
C:\Users\Andrea\AppData\Local\Temp\ccSQva6n.s:5681   .debug_str:00000663 .LASF68
C:\Users\Andrea\AppData\Local\Temp\ccSQva6n.s:5905   .debug_str:00001033 .LASF69
C:\Users\Andrea\AppData\Local\Temp\ccSQva6n.s:5685   .debug_str:000006a2 .LASF70
C:\Users\Andrea\AppData\Local\Temp\ccSQva6n.s:5867   .debug_str:00000e46 .LASF71
C:\Users\Andrea\AppData\Local\Temp\ccSQva6n.s:5675   .debug_str:000005f6 .LASF72
C:\Users\Andrea\AppData\Local\Temp\ccSQva6n.s:5635   .debug_str:000003da .LASF73
C:\Users\Andrea\AppData\Local\Temp\ccSQva6n.s:5787   .debug_str:00000b03 .LASF74
C:\Users\Andrea\AppData\Local\Temp\ccSQva6n.s:5701   .debug_str:00000735 .LASF75
C:\Users\Andrea\AppData\Local\Temp\ccSQva6n.s:5655   .debug_str:000004bb .LASF76
C:\Users\Andrea\AppData\Local\Temp\ccSQva6n.s:5917   .debug_str:0000109b .LASF77
C:\Users\Andrea\AppData\Local\Temp\ccSQva6n.s:5637   .debug_str:000003f6 .LASF78
C:\Users\Andrea\AppData\Local\Temp\ccSQva6n.s:5947   .debug_str:00001209 .LASF79
C:\Users\Andrea\AppData\Local\Temp\ccSQva6n.s:5943   .debug_str:000011af .LASF80
C:\Users\Andrea\AppData\Local\Temp\ccSQva6n.s:5569   .debug_str:00000148 .LASF81
C:\Users\Andrea\AppData\Local\Temp\ccSQva6n.s:5619   .debug_str:0000031d .LASF82
C:\Users\Andrea\AppData\Local\Temp\ccSQva6n.s:5747   .debug_str:0000093e .LASF83
C:\Users\Andrea\AppData\Local\Temp\ccSQva6n.s:5875   .debug_str:00000e8b .LASF84
C:\Users\Andrea\AppData\Local\Temp\ccSQva6n.s:5773   .debug_str:00000a3c .LASF85
C:\Users\Andrea\AppData\Local\Temp\ccSQva6n.s:5759   .debug_str:000009a1 .LASF86
C:\Users\Andrea\AppData\Local\Temp\ccSQva6n.s:5607   .debug_str:000002a7 .LASF87
C:\Users\Andrea\AppData\Local\Temp\ccSQva6n.s:5683   .debug_str:00000680 .LASF88
C:\Users\Andrea\AppData\Local\Temp\ccSQva6n.s:5599   .debug_str:00000248 .LASF89
C:\Users\Andrea\AppData\Local\Temp\ccSQva6n.s:5889   .debug_str:00000f29 .LASF90
C:\Users\Andrea\AppData\Local\Temp\ccSQva6n.s:5605   .debug_str:00000278 .LASF91
C:\Users\Andrea\AppData\Local\Temp\ccSQva6n.s:5827   .debug_str:00000c83 .LASF92
C:\Users\Andrea\AppData\Local\Temp\ccSQva6n.s:5893   .debug_str:00000f6f .LASF93
C:\Users\Andrea\AppData\Local\Temp\ccSQva6n.s:5583   .debug_str:000001c1 .LASF94
C:\Users\Andrea\AppData\Local\Temp\ccSQva6n.s:5549   .debug_str:0000006f .LASF95
C:\Users\Andrea\AppData\Local\Temp\ccSQva6n.s:5761   .debug_str:000009b8 .LASF96
C:\Users\Andrea\AppData\Local\Temp\ccSQva6n.s:5933   .debug_str:00001157 .LASF97
C:\Users\Andrea\AppData\Local\Temp\ccSQva6n.s:5621   .debug_str:00000341 .LASF98
C:\Users\Andrea\AppData\Local\Temp\ccSQva6n.s:5617   .debug_str:00000305 .LASF99
C:\Users\Andrea\AppData\Local\Temp\ccSQva6n.s:5547   .debug_str:00000050 .LASF100
C:\Users\Andrea\AppData\Local\Temp\ccSQva6n.s:5843   .debug_str:00000d29 .LASF101
C:\Users\Andrea\AppData\Local\Temp\ccSQva6n.s:5739   .debug_str:000008e4 .LASF102
C:\Users\Andrea\AppData\Local\Temp\ccSQva6n.s:5909   .debug_str:00001054 .LASF103
C:\Users\Andrea\AppData\Local\Temp\ccSQva6n.s:5873   .debug_str:00000e76 .LASF104
C:\Users\Andrea\AppData\Local\Temp\ccSQva6n.s:5925   .debug_str:00001108 .LASF105
C:\Users\Andrea\AppData\Local\Temp\ccSQva6n.s:5879   .debug_str:00000eb1 .LASF106
C:\Users\Andrea\AppData\Local\Temp\ccSQva6n.s:5567   .debug_str:0000012f .LASF107
C:\Users\Andrea\AppData\Local\Temp\ccSQva6n.s:5781   .debug_str:00000aa7 .LASF108
C:\Users\Andrea\AppData\Local\Temp\ccSQva6n.s:5647   .debug_str:00000487 .LASF109
C:\Users\Andrea\AppData\Local\Temp\ccSQva6n.s:5895   .debug_str:00000f9a .LASF110
C:\Users\Andrea\AppData\Local\Temp\ccSQva6n.s:5899   .debug_str:00000fdb .LASF111
C:\Users\Andrea\AppData\Local\Temp\ccSQva6n.s:5911   .debug_str:00001071 .LASF214
C:\Users\Andrea\AppData\Local\Temp\ccSQva6n.s:5869   .debug_str:00000e60 .LASF112
C:\Users\Andrea\AppData\Local\Temp\ccSQva6n.s:5957   .debug_str:00001277 .LASF113
C:\Users\Andrea\AppData\Local\Temp\ccSQva6n.s:5835   .debug_str:00000cec .LASF114
C:\Users\Andrea\AppData\Local\Temp\ccSQva6n.s:5743   .debug_str:00000914 .LASF115
C:\Users\Andrea\AppData\Local\Temp\ccSQva6n.s:5969   .debug_str:0000130d .LASF116
C:\Users\Andrea\AppData\Local\Temp\ccSQva6n.s:5829   .debug_str:00000cb1 .LASF117
C:\Users\Andrea\AppData\Local\Temp\ccSQva6n.s:5779   .debug_str:00000a86 .LASF118
C:\Users\Andrea\AppData\Local\Temp\ccSQva6n.s:5631   .debug_str:000003bf .LASF119
C:\Users\Andrea\AppData\Local\Temp\ccSQva6n.s:5877   .debug_str:00000eaa .LASF120
C:\Users\Andrea\AppData\Local\Temp\ccSQva6n.s:5883   .debug_str:00000edc .LASF121
C:\Users\Andrea\AppData\Local\Temp\ccSQva6n.s:5651   .debug_str:000004ad .LASF122
C:\Users\Andrea\AppData\Local\Temp\ccSQva6n.s:5745   .debug_str:00000934 .LASF123
C:\Users\Andrea\AppData\Local\Temp\ccSQva6n.s:5703   .debug_str:00000759 .LASF124
C:\Users\Andrea\AppData\Local\Temp\ccSQva6n.s:5581   .debug_str:000001b1 .LASF125
C:\Users\Andrea\AppData\Local\Temp\ccSQva6n.s:5965   .debug_str:000012de .LASF126
C:\Users\Andrea\AppData\Local\Temp\ccSQva6n.s:5711   .debug_str:0000078f .LASF127
C:\Users\Andrea\AppData\Local\Temp\ccSQva6n.s:5907   .debug_str:0000104d .LASF128
C:\Users\Andrea\AppData\Local\Temp\ccSQva6n.s:5941   .debug_str:000011a8 .LASF129
C:\Users\Andrea\AppData\Local\Temp\ccSQva6n.s:5793   .debug_str:00000b40 .LASF130
C:\Users\Andrea\AppData\Local\Temp\ccSQva6n.s:5579   .debug_str:000001aa .LASF131
C:\Users\Andrea\AppData\Local\Temp\ccSQva6n.s:5929   .debug_str:00001145 .LASF132
C:\Users\Andrea\AppData\Local\Temp\ccSQva6n.s:5543   .debug_str:00000033 .LASF133
C:\Users\Andrea\AppData\Local\Temp\ccSQva6n.s:5801   .debug_str:00000b9b .LASF134
C:\Users\Andrea\AppData\Local\Temp\ccSQva6n.s:5587   .debug_str:000001f9 .LASF135
C:\Users\Andrea\AppData\Local\Temp\ccSQva6n.s:5937   .debug_str:0000117c .LASF136
C:\Users\Andrea\AppData\Local\Temp\ccSQva6n.s:5629   .debug_str:000003b4 .LASF137
C:\Users\Andrea\AppData\Local\Temp\ccSQva6n.s:5751   .debug_str:0000096c .LASF138
C:\Users\Andrea\AppData\Local\Temp\ccSQva6n.s:5913   .debug_str:00001080 .LASF139
C:\Users\Andrea\AppData\Local\Temp\ccSQva6n.s:5817   .debug_str:00000c1c .LASF140
C:\Users\Andrea\AppData\Local\Temp\ccSQva6n.s:5729   .debug_str:0000085a .LASF141
C:\Users\Andrea\AppData\Local\Temp\ccSQva6n.s:5813   .debug_str:00000bec .LASF142
C:\Users\Andrea\AppData\Local\Temp\ccSQva6n.s:5789   .debug_str:00000b1d .LASF143
C:\Users\Andrea\AppData\Local\Temp\ccSQva6n.s:5749   .debug_str:00000962 .LASF144
C:\Users\Andrea\AppData\Local\Temp\ccSQva6n.s:5553   .debug_str:000000b0 .LASF145
C:\Users\Andrea\AppData\Local\Temp\ccSQva6n.s:5575   .debug_str:00000186 .LASF146
C:\Users\Andrea\AppData\Local\Temp\ccSQva6n.s:5851   .debug_str:00000d87 .LASF147
C:\Users\Andrea\AppData\Local\Temp\ccSQva6n.s:5951   .debug_str:0000123a .LASF148
C:\Users\Andrea\AppData\Local\Temp\ccSQva6n.s:5725   .debug_str:00000843 .LASF149
C:\Users\Andrea\AppData\Local\Temp\ccSQva6n.s:5559   .debug_str:000000f0 .LASF150
C:\Users\Andrea\AppData\Local\Temp\ccSQva6n.s:5841   .debug_str:00000d1d .LASF151
C:\Users\Andrea\AppData\Local\Temp\ccSQva6n.s:5833   .debug_str:00000ce3 .LASF152
C:\Users\Andrea\AppData\Local\Temp\ccSQva6n.s:5881   .debug_str:00000ecb .LASF153
C:\Users\Andrea\AppData\Local\Temp\ccSQva6n.s:5643   .debug_str:0000044a .LASF215
C:\Users\Andrea\AppData\Local\Temp\ccSQva6n.s:15     .text.LIB_IOM_External_Init:0000000a .LFE0
C:\Users\Andrea\AppData\Local\Temp\ccSQva6n.s:5625   .debug_str:0000036c .LASF216
C:\Users\Andrea\AppData\Local\Temp\ccSQva6n.s:5819   .debug_str:00000c40 .LASF193
C:\Users\Andrea\AppData\Local\Temp\ccSQva6n.s:5961   .debug_str:000012b2 .LASF161
C:\Users\Andrea\AppData\Local\Temp\ccSQva6n.s:210    .text.LIB_IOM_External_New:000000ef .LFE1
C:\Users\Andrea\AppData\Local\Temp\ccSQva6n.s:4014   .debug_loc:00000000 .LLST0
C:\Users\Andrea\AppData\Local\Temp\ccSQva6n.s:5727   .debug_str:0000084e .LASF154
C:\Users\Andrea\AppData\Local\Temp\ccSQva6n.s:4032   .debug_loc:0000002c .LLST1
C:\Users\Andrea\AppData\Local\Temp\ccSQva6n.s:5785   .debug_str:00000af6 .LASF155
C:\Users\Andrea\AppData\Local\Temp\ccSQva6n.s:4072   .debug_loc:0000008a .LLST2
C:\Users\Andrea\AppData\Local\Temp\ccSQva6n.s:5837   .debug_str:00000d08 .LASF156
C:\Users\Andrea\AppData\Local\Temp\ccSQva6n.s:4101   .debug_loc:000000cf .LLST3
C:\Users\Andrea\AppData\Local\Temp\ccSQva6n.s:5641   .debug_str:00000433 .LASF157
C:\Users\Andrea\AppData\Local\Temp\ccSQva6n.s:5603   .debug_str:00000272 .LASF158
C:\Users\Andrea\AppData\Local\Temp\ccSQva6n.s:5615   .debug_str:000002fb .LASF159
C:\Users\Andrea\AppData\Local\Temp\ccSQva6n.s:4115   .debug_loc:000000f0 .LLST4
C:\Users\Andrea\AppData\Local\Temp\ccSQva6n.s:4122   .debug_loc:00000103 .LLST5
C:\Users\Andrea\AppData\Local\Temp\ccSQva6n.s:5807   .debug_str:00000bc4 .LASF160
C:\Users\Andrea\AppData\Local\Temp\ccSQva6n.s:4150   .debug_loc:0000014e .LLST6
C:\Users\Andrea\AppData\Local\Temp\ccSQva6n.s:4190   .debug_loc:00000197 .LLST7
C:\Users\Andrea\AppData\Local\Temp\ccSQva6n.s:114    .text.LIB_IOM_External_New:00000073 .LBB4
C:\Users\Andrea\AppData\Local\Temp\ccSQva6n.s:136    .text.LIB_IOM_External_New:00000088 .LBE4
C:\Users\Andrea\AppData\Local\Temp\ccSQva6n.s:4216   .debug_loc:000001cb .LLST8
C:\Users\Andrea\AppData\Local\Temp\ccSQva6n.s:115    .text.LIB_IOM_External_New:00000073 .LBB5
C:\Users\Andrea\AppData\Local\Temp\ccSQva6n.s:135    .text.LIB_IOM_External_New:00000088 .LBE5
C:\Users\Andrea\AppData\Local\Temp\ccSQva6n.s:4232   .debug_loc:000001f5 .LLST9
C:\Users\Andrea\AppData\Local\Temp\ccSQva6n.s:124    .text.LIB_IOM_External_New:00000082 .LVL18
C:\Users\Andrea\AppData\Local\Temp\ccSQva6n.s:51     .text.LIB_IOM_External_New:00000028 .LVL6
C:\Users\Andrea\AppData\Local\Temp\ccSQva6n.s:62     .text.LIB_IOM_External_New:00000038 .LVL9
C:\Users\Andrea\AppData\Local\Temp\ccSQva6n.s:75     .text.LIB_IOM_External_New:0000004e .LVL12
C:\Users\Andrea\AppData\Local\Temp\ccSQva6n.s:162    .text.LIB_IOM_External_New:000000aa .LVL24
C:\Users\Andrea\AppData\Local\Temp\ccSQva6n.s:5539   .debug_str:00000000 .LASF162
C:\Users\Andrea\AppData\Local\Temp\ccSQva6n.s:291    .text.LIB_IOM_External_SetCommand:00000061 .LFE2
C:\Users\Andrea\AppData\Local\Temp\ccSQva6n.s:4253   .debug_loc:0000022b .LLST10
C:\Users\Andrea\AppData\Local\Temp\ccSQva6n.s:4266   .debug_loc:0000024b .LLST11
C:\Users\Andrea\AppData\Local\Temp\ccSQva6n.s:5699   .debug_str:0000072f .LASF163
C:\Users\Andrea\AppData\Local\Temp\ccSQva6n.s:4285   .debug_loc:0000027f .LLST12
C:\Users\Andrea\AppData\Local\Temp\ccSQva6n.s:4304   .debug_loc:000002b3 .LLST13
C:\Users\Andrea\AppData\Local\Temp\ccSQva6n.s:4332   .debug_loc:000002f7 .LLST14
C:\Users\Andrea\AppData\Local\Temp\ccSQva6n.s:5653   .debug_str:000004b4 .LASF164
C:\Users\Andrea\AppData\Local\Temp\ccSQva6n.s:4345   .debug_loc:00000313 .LLST15
C:\Users\Andrea\AppData\Local\Temp\ccSQva6n.s:5803   .debug_str:00000ba0 .LASF165
C:\Users\Andrea\AppData\Local\Temp\ccSQva6n.s:4358   .debug_loc:0000032f .LLST16
C:\Users\Andrea\AppData\Local\Temp\ccSQva6n.s:261    .text.LIB_IOM_External_SetCommand:0000003e .LVL39
C:\Users\Andrea\AppData\Local\Temp\ccSQva6n.s:273    .text.LIB_IOM_External_SetCommand:00000053 .LVL40
C:\Users\Andrea\AppData\Local\Temp\ccSQva6n.s:283    .text.LIB_IOM_External_SetCommand:0000005c .LVL43
C:\Users\Andrea\AppData\Local\Temp\ccSQva6n.s:5737   .debug_str:000008c1 .LASF166
C:\Users\Andrea\AppData\Local\Temp\ccSQva6n.s:375    .text.LIB_IOM_External_SetReadRamRequest:00000065 .LFE3
C:\Users\Andrea\AppData\Local\Temp\ccSQva6n.s:4365   .debug_loc:00000342 .LLST17
C:\Users\Andrea\AppData\Local\Temp\ccSQva6n.s:5693   .debug_str:00000705 .LASF167
C:\Users\Andrea\AppData\Local\Temp\ccSQva6n.s:4378   .debug_loc:00000362 .LLST18
C:\Users\Andrea\AppData\Local\Temp\ccSQva6n.s:4426   .debug_loc:000003d6 .LLST19
C:\Users\Andrea\AppData\Local\Temp\ccSQva6n.s:4440   .debug_loc:000003f7 .LLST20
C:\Users\Andrea\AppData\Local\Temp\ccSQva6n.s:4498   .debug_loc:00000460 .LLST21
C:\Users\Andrea\AppData\Local\Temp\ccSQva6n.s:342    .text.LIB_IOM_External_SetReadRamRequest:0000003b .LVL55
C:\Users\Andrea\AppData\Local\Temp\ccSQva6n.s:350    .text.LIB_IOM_External_SetReadRamRequest:00000046 .LVL56
C:\Users\Andrea\AppData\Local\Temp\ccSQva6n.s:368    .text.LIB_IOM_External_SetReadRamRequest:00000060 .LVL60
C:\Users\Andrea\AppData\Local\Temp\ccSQva6n.s:5927   .debug_str:00001121 .LASF168
C:\Users\Andrea\AppData\Local\Temp\ccSQva6n.s:466    .text.LIB_IOM_External_SetWriteRamRequest:00000069 .LFE4
C:\Users\Andrea\AppData\Local\Temp\ccSQva6n.s:4514   .debug_loc:00000486 .LLST22
C:\Users\Andrea\AppData\Local\Temp\ccSQva6n.s:4527   .debug_loc:000004a6 .LLST23
C:\Users\Andrea\AppData\Local\Temp\ccSQva6n.s:4579   .debug_loc:00000525 .LLST24
C:\Users\Andrea\AppData\Local\Temp\ccSQva6n.s:4593   .debug_loc:00000546 .LLST25
C:\Users\Andrea\AppData\Local\Temp\ccSQva6n.s:4661   .debug_loc:000005c0 .LLST26
C:\Users\Andrea\AppData\Local\Temp\ccSQva6n.s:395    .text.LIB_IOM_External_SetWriteRamRequest:0000000f .LVL64
C:\Users\Andrea\AppData\Local\Temp\ccSQva6n.s:429    .text.LIB_IOM_External_SetWriteRamRequest:0000003f .LVL72
C:\Users\Andrea\AppData\Local\Temp\ccSQva6n.s:439    .text.LIB_IOM_External_SetWriteRamRequest:00000049 .LVL75
C:\Users\Andrea\AppData\Local\Temp\ccSQva6n.s:458    .text.LIB_IOM_External_SetWriteRamRequest:00000064 .LVL80
C:\Users\Andrea\AppData\Local\Temp\ccSQva6n.s:5715   .debug_str:000007b5 .LASF169
C:\Users\Andrea\AppData\Local\Temp\ccSQva6n.s:552    .text.LIB_IOM_External_SetExtraRequest:00000063 .LFE5
C:\Users\Andrea\AppData\Local\Temp\ccSQva6n.s:4693   .debug_loc:0000060b .LLST27
C:\Users\Andrea\AppData\Local\Temp\ccSQva6n.s:5597   .debug_str:0000023a .LASF170
C:\Users\Andrea\AppData\Local\Temp\ccSQva6n.s:4706   .debug_loc:0000062b .LLST28
C:\Users\Andrea\AppData\Local\Temp\ccSQva6n.s:4754   .debug_loc:0000069f .LLST29
C:\Users\Andrea\AppData\Local\Temp\ccSQva6n.s:4768   .debug_loc:000006c0 .LLST30
C:\Users\Andrea\AppData\Local\Temp\ccSQva6n.s:4826   .debug_loc:00000729 .LLST31
C:\Users\Andrea\AppData\Local\Temp\ccSQva6n.s:516    .text.LIB_IOM_External_SetExtraRequest:00000039 .LVL92
C:\Users\Andrea\AppData\Local\Temp\ccSQva6n.s:526    .text.LIB_IOM_External_SetExtraRequest:00000043 .LVL95
C:\Users\Andrea\AppData\Local\Temp\ccSQva6n.s:545    .text.LIB_IOM_External_SetExtraRequest:0000005e .LVL100
C:\Users\Andrea\AppData\Local\Temp\ccSQva6n.s:5919   .debug_str:000010b5 .LASF171
C:\Users\Andrea\AppData\Local\Temp\ccSQva6n.s:751    .text.LIB_IOM_External_GetCommandBuffer:0000011f .LFE6
C:\Users\Andrea\AppData\Local\Temp\ccSQva6n.s:4858   .debug_loc:00000774 .LLST32
C:\Users\Andrea\AppData\Local\Temp\ccSQva6n.s:4871   .debug_loc:00000794 .LLST33
C:\Users\Andrea\AppData\Local\Temp\ccSQva6n.s:5949   .debug_str:00001234 .LASF172
C:\Users\Andrea\AppData\Local\Temp\ccSQva6n.s:4897   .debug_loc:000007d6 .LLST34
C:\Users\Andrea\AppData\Local\Temp\ccSQva6n.s:5697   .debug_str:00000727 .LASF173
C:\Users\Andrea\AppData\Local\Temp\ccSQva6n.s:4937   .debug_loc:00000834 .LLST35
C:\Users\Andrea\AppData\Local\Temp\ccSQva6n.s:5735   .debug_str:000008b4 .LASF174
C:\Users\Andrea\AppData\Local\Temp\ccSQva6n.s:4977   .debug_loc:00000892 .LLST36
C:\Users\Andrea\AppData\Local\Temp\ccSQva6n.s:5679   .debug_str:00000657 .LASF175
C:\Users\Andrea\AppData\Local\Temp\ccSQva6n.s:5030   .debug_loc:000008f5 .LLST37
C:\Users\Andrea\AppData\Local\Temp\ccSQva6n.s:5613   .debug_str:000002ee .LASF176
C:\Users\Andrea\AppData\Local\Temp\ccSQva6n.s:5057   .debug_loc:0000092d .LLST38
C:\Users\Andrea\AppData\Local\Temp\ccSQva6n.s:5084   .debug_loc:00000965 .LLST39
C:\Users\Andrea\AppData\Local\Temp\ccSQva6n.s:5104   .debug_loc:0000099a .LLST40
C:\Users\Andrea\AppData\Local\Temp\ccSQva6n.s:584    .text.LIB_IOM_External_GetCommandBuffer:0000002c .LVL104
C:\Users\Andrea\AppData\Local\Temp\ccSQva6n.s:592    .text.LIB_IOM_External_GetCommandBuffer:00000036 .LVL106
C:\Users\Andrea\AppData\Local\Temp\ccSQva6n.s:626    .text.LIB_IOM_External_GetCommandBuffer:0000006b .LVL109
C:\Users\Andrea\AppData\Local\Temp\ccSQva6n.s:743    .text.LIB_IOM_External_GetCommandBuffer:00000119 .LVL124
C:\Users\Andrea\AppData\Local\Temp\ccSQva6n.s:5639   .debug_str:00000414 .LASF177
C:\Users\Andrea\AppData\Local\Temp\ccSQva6n.s:811    .text.LIB_IOM_External_GetInfoBuffer:00000047 .LFE7
C:\Users\Andrea\AppData\Local\Temp\ccSQva6n.s:5111   .debug_loc:000009ad .LLST41
C:\Users\Andrea\AppData\Local\Temp\ccSQva6n.s:5717   .debug_str:000007d6 .LASF178
C:\Users\Andrea\AppData\Local\Temp\ccSQva6n.s:5124   .debug_loc:000009cd .LLST42
C:\Users\Andrea\AppData\Local\Temp\ccSQva6n.s:5853   .debug_str:00000d8e .LASF179
C:\Users\Andrea\AppData\Local\Temp\ccSQva6n.s:5138   .debug_loc:000009ee .LLST43
C:\Users\Andrea\AppData\Local\Temp\ccSQva6n.s:5149   .debug_loc:00000a0c .LLST44
C:\Users\Andrea\AppData\Local\Temp\ccSQva6n.s:5585   .debug_str:000001f2 .LASF180
C:\Users\Andrea\AppData\Local\Temp\ccSQva6n.s:5160   .debug_loc:00000a2a .LLST45
C:\Users\Andrea\AppData\Local\Temp\ccSQva6n.s:5649   .debug_str:000004a1 .LASF181
C:\Users\Andrea\AppData\Local\Temp\ccSQva6n.s:5182   .debug_loc:00000a61 .LLST46
C:\Users\Andrea\AppData\Local\Temp\ccSQva6n.s:5891   .debug_str:00000f58 .LASF188
C:\Users\Andrea\AppData\Local\Temp\ccSQva6n.s:773    .text.LIB_IOM_External_GetInfoBuffer:00000013 .LBB6
C:\Users\Andrea\AppData\Local\Temp\ccSQva6n.s:803    .text.LIB_IOM_External_GetInfoBuffer:00000041 .LBE6
C:\Users\Andrea\AppData\Local\Temp\ccSQva6n.s:5757   .debug_str:00000999 .LASF182
C:\Users\Andrea\AppData\Local\Temp\ccSQva6n.s:5193   .debug_loc:00000a7f .LLST47
C:\Users\Andrea\AppData\Local\Temp\ccSQva6n.s:768    .text.LIB_IOM_External_GetInfoBuffer:0000000c .LVL128
C:\Users\Andrea\AppData\Local\Temp\ccSQva6n.s:5825   .debug_str:00000c67 .LASF183
C:\Users\Andrea\AppData\Local\Temp\ccSQva6n.s:852    .text.LIB_IOM_Ext_GetCommonBuffer:00000020 .LFE8
C:\Users\Andrea\AppData\Local\Temp\ccSQva6n.s:5821   .debug_str:00000c48 .LASF184
C:\Users\Andrea\AppData\Local\Temp\ccSQva6n.s:5257   .debug_loc:00000ada .LLST48
C:\Users\Andrea\AppData\Local\Temp\ccSQva6n.s:5953   .debug_str:00001256 .LASF185
C:\Users\Andrea\AppData\Local\Temp\ccSQva6n.s:5271   .debug_loc:00000afb .LLST49
C:\Users\Andrea\AppData\Local\Temp\ccSQva6n.s:5293   .debug_loc:00000b32 .LLST50
C:\Users\Andrea\AppData\Local\Temp\ccSQva6n.s:5308   .debug_loc:00000b5b .LLST51
C:\Users\Andrea\AppData\Local\Temp\ccSQva6n.s:825    .text.LIB_IOM_Ext_GetCommonBuffer:00000006 .LBB7
C:\Users\Andrea\AppData\Local\Temp\ccSQva6n.s:846    .text.LIB_IOM_Ext_GetCommonBuffer:0000001d .LBE7
C:\Users\Andrea\AppData\Local\Temp\ccSQva6n.s:5330   .debug_loc:00000b92 .LLST52
C:\Users\Andrea\AppData\Local\Temp\ccSQva6n.s:5805   .debug_str:00000ba5 .LASF186
C:\Users\Andrea\AppData\Local\Temp\ccSQva6n.s:887    .text.LIB_IOM_Ext_GetExtdLoadComChan:00000021 .LFE9
C:\Users\Andrea\AppData\Local\Temp\ccSQva6n.s:5375   .debug_loc:00000bd4 .LLST53
C:\Users\Andrea\AppData\Local\Temp\ccSQva6n.s:5545   .debug_str:00000049 .LASF187
C:\Users\Andrea\AppData\Local\Temp\ccSQva6n.s:5389   .debug_loc:00000bf5 .LLST54
C:\Users\Andrea\AppData\Local\Temp\ccSQva6n.s:5410   .debug_loc:00000c2b .LLST55
C:\Users\Andrea\AppData\Local\Temp\ccSQva6n.s:864    .text.LIB_IOM_Ext_GetExtdLoadComChan:00000006 .LVL144
C:\Users\Andrea\AppData\Local\Temp\ccSQva6n.s:5799   .debug_str:00000b7f .LASF217
C:\Users\Andrea\AppData\Local\Temp\ccSQva6n.s:899    .text.LIB_IOM_Ext_GetBoardCounter:00000009 .LFE10
C:\Users\Andrea\AppData\Local\Temp\ccSQva6n.s:5555   .debug_str:000000b6 .LASF189
C:\Users\Andrea\AppData\Local\Temp\ccSQva6n.s:930    .text.LIB_IOM_External_GetLoadStatus:00000015 .LFE11
C:\Users\Andrea\AppData\Local\Temp\ccSQva6n.s:5421   .debug_loc:00000c49 .LLST56
C:\Users\Andrea\AppData\Local\Temp\ccSQva6n.s:5865   .debug_str:00000e3a .LASF190
C:\Users\Andrea\AppData\Local\Temp\ccSQva6n.s:5435   .debug_loc:00000c6a .LLST57
C:\Users\Andrea\AppData\Local\Temp\ccSQva6n.s:5645   .debug_str:00000460 .LASF218
C:\Users\Andrea\AppData\Local\Temp\ccSQva6n.s:1103   .text.LIB_IOM_External_ProcessInfoPacketData:000000f9 .LFE12
C:\Users\Andrea\AppData\Local\Temp\ccSQva6n.s:5447   .debug_loc:00000c89 .LLST58
C:\Users\Andrea\AppData\Local\Temp\ccSQva6n.s:5885   .debug_str:00000ee4 .LASF191
C:\Users\Andrea\AppData\Local\Temp\ccSQva6n.s:5609   .debug_str:000002c8 .LASF192
C:\Users\Andrea\AppData\Local\Temp\ccSQva6n.s:5705   .debug_str:0000075e .LASF194
C:\Users\Andrea\AppData\Local\Temp\ccSQva6n.s:5755   .debug_str:00000984 .LASF195
C:\Users\Andrea\AppData\Local\Temp\ccSQva6n.s:5847   .debug_str:00000d51 .LASF196
C:\Users\Andrea\AppData\Local\Temp\ccSQva6n.s:5627   .debug_str:00000395 .LASF197
C:\Users\Andrea\AppData\Local\Temp\ccSQva6n.s:5695   .debug_str:00000711 .LASF198
C:\Users\Andrea\AppData\Local\Temp\ccSQva6n.s:5733   .debug_str:0000089f .LASF199
C:\Users\Andrea\AppData\Local\Temp\ccSQva6n.s:5823   .debug_str:00000c4f .LASF200
C:\Users\Andrea\AppData\Local\Temp\ccSQva6n.s:5689   .debug_str:000006d3 .LASF201
C:\Users\Andrea\AppData\Local\Temp\ccSQva6n.s:5811   .debug_str:00000bde .LASF202
C:\Users\Andrea\AppData\Local\Temp\ccSQva6n.s:5561   .debug_str:000000fc .LASF203
C:\Users\Andrea\AppData\Local\Temp\ccSQva6n.s:5923   .debug_str:000010e5 .LASF204
C:\Users\Andrea\AppData\Local\Temp\ccSQva6n.s:5849   .debug_str:00000d6d .LASF205
C:\Users\Andrea\AppData\Local\Temp\ccSQva6n.s:5623   .debug_str:0000035b .LASF206
C:\Users\Andrea\AppData\Local\Temp\ccSQva6n.s:5687   .debug_str:000006be .LASF207
C:\Users\Andrea\AppData\Local\Temp\ccSQva6n.s:5973   .debug_str:00001340 .LASF208
C:\Users\Andrea\AppData\Local\Temp\ccSQva6n.s:5663   .debug_str:00000572 .LASF209
C:\Users\Andrea\AppData\Local\Temp\ccSQva6n.s:5551   .debug_str:0000009d .LASF210
C:\Users\Andrea\AppData\Local\Temp\ccSQva6n.s:25     .text.LIB_IOM_External_New:00000002 .LCFI0
C:\Users\Andrea\AppData\Local\Temp\ccSQva6n.s:27     .text.LIB_IOM_External_New:00000004 .LCFI1
C:\Users\Andrea\AppData\Local\Temp\ccSQva6n.s:23     .text.LIB_IOM_External_New:00000000 .LVL0
C:\Users\Andrea\AppData\Local\Temp\ccSQva6n.s:39     .text.LIB_IOM_External_New:00000018 .LVL2
C:\Users\Andrea\AppData\Local\Temp\ccSQva6n.s:41     .text.LIB_IOM_External_New:0000001b .LVL3
C:\Users\Andrea\AppData\Local\Temp\ccSQva6n.s:47     .text.LIB_IOM_External_New:00000021 .LVL4
C:\Users\Andrea\AppData\Local\Temp\ccSQva6n.s:158    .text.LIB_IOM_External_New:000000a6 .LVL23
C:\Users\Andrea\AppData\Local\Temp\ccSQva6n.s:164    .text.LIB_IOM_External_New:000000ac .LVL25
C:\Users\Andrea\AppData\Local\Temp\ccSQva6n.s:202    .text.LIB_IOM_External_New:000000e9 .LVL29
C:\Users\Andrea\AppData\Local\Temp\ccSQva6n.s:49     .text.LIB_IOM_External_New:00000024 .LVL5
C:\Users\Andrea\AppData\Local\Temp\ccSQva6n.s:60     .text.LIB_IOM_External_New:00000034 .LVL8
C:\Users\Andrea\AppData\Local\Temp\ccSQva6n.s:64     .text.LIB_IOM_External_New:0000003a .LVL10
C:\Users\Andrea\AppData\Local\Temp\ccSQva6n.s:72     .text.LIB_IOM_External_New:00000048 .LVL11
C:\Users\Andrea\AppData\Local\Temp\ccSQva6n.s:81     .text.LIB_IOM_External_New:00000057 .LVL13
C:\Users\Andrea\AppData\Local\Temp\ccSQva6n.s:85     .text.LIB_IOM_External_New:00000059 .LVL14
C:\Users\Andrea\AppData\Local\Temp\ccSQva6n.s:184    .text.LIB_IOM_External_New:000000cf .LVL26
C:\Users\Andrea\AppData\Local\Temp\ccSQva6n.s:31     .text.LIB_IOM_External_New:0000000a .LVL1
C:\Users\Andrea\AppData\Local\Temp\ccSQva6n.s:102    .text.LIB_IOM_External_New:0000006a .LVL15
C:\Users\Andrea\AppData\Local\Temp\ccSQva6n.s:105    .text.LIB_IOM_External_New:0000006c .LVL16
C:\Users\Andrea\AppData\Local\Temp\ccSQva6n.s:128    .text.LIB_IOM_External_New:00000085 .LVL19
C:\Users\Andrea\AppData\Local\Temp\ccSQva6n.s:132    .text.LIB_IOM_External_New:00000087 .LVL20
C:\Users\Andrea\AppData\Local\Temp\ccSQva6n.s:140    .text.LIB_IOM_External_New:00000090 .LVL21
C:\Users\Andrea\AppData\Local\Temp\ccSQva6n.s:188    .text.LIB_IOM_External_New:000000d6 .LVL27
C:\Users\Andrea\AppData\Local\Temp\ccSQva6n.s:113    .text.LIB_IOM_External_New:00000073 .LVL17
C:\Users\Andrea\AppData\Local\Temp\ccSQva6n.s:191    .text.LIB_IOM_External_New:000000d8 .LVL28
C:\Users\Andrea\AppData\Local\Temp\ccSQva6n.s:220    .text.LIB_IOM_External_SetCommand:00000002 .LCFI2
C:\Users\Andrea\AppData\Local\Temp\ccSQva6n.s:218    .text.LIB_IOM_External_SetCommand:00000000 .LVL30
C:\Users\Andrea\AppData\Local\Temp\ccSQva6n.s:277    .text.LIB_IOM_External_SetCommand:00000056 .LVL41
C:\Users\Andrea\AppData\Local\Temp\ccSQva6n.s:281    .text.LIB_IOM_External_SetCommand:00000058 .LVL42
C:\Users\Andrea\AppData\Local\Temp\ccSQva6n.s:223    .text.LIB_IOM_External_SetCommand:00000006 .LVL31
C:\Users\Andrea\AppData\Local\Temp\ccSQva6n.s:229    .text.LIB_IOM_External_SetCommand:00000012 .LVL32
C:\Users\Andrea\AppData\Local\Temp\ccSQva6n.s:233    .text.LIB_IOM_External_SetCommand:00000018 .LVL33
C:\Users\Andrea\AppData\Local\Temp\ccSQva6n.s:238    .text.LIB_IOM_External_SetCommand:0000001b .LVL34
C:\Users\Andrea\AppData\Local\Temp\ccSQva6n.s:242    .text.LIB_IOM_External_SetCommand:0000001d .LVL35
C:\Users\Andrea\AppData\Local\Temp\ccSQva6n.s:286    .text.LIB_IOM_External_SetCommand:0000005e .LVL44
C:\Users\Andrea\AppData\Local\Temp\ccSQva6n.s:247    .text.LIB_IOM_External_SetCommand:00000020 .LVL36
C:\Users\Andrea\AppData\Local\Temp\ccSQva6n.s:249    .text.LIB_IOM_External_SetCommand:00000022 .LVL37
C:\Users\Andrea\AppData\Local\Temp\ccSQva6n.s:258    .text.LIB_IOM_External_SetCommand:0000003a .LVL38
C:\Users\Andrea\AppData\Local\Temp\ccSQva6n.s:301    .text.LIB_IOM_External_SetReadRamRequest:00000002 .LCFI3
C:\Users\Andrea\AppData\Local\Temp\ccSQva6n.s:299    .text.LIB_IOM_External_SetReadRamRequest:00000000 .LVL45
C:\Users\Andrea\AppData\Local\Temp\ccSQva6n.s:309    .text.LIB_IOM_External_SetReadRamRequest:0000000b .LVL47
C:\Users\Andrea\AppData\Local\Temp\ccSQva6n.s:311    .text.LIB_IOM_External_SetReadRamRequest:0000000d .LVL48
C:\Users\Andrea\AppData\Local\Temp\ccSQva6n.s:324    .text.LIB_IOM_External_SetReadRamRequest:00000019 .LVL51
C:\Users\Andrea\AppData\Local\Temp\ccSQva6n.s:326    .text.LIB_IOM_External_SetReadRamRequest:0000001b .LVL52
C:\Users\Andrea\AppData\Local\Temp\ccSQva6n.s:355    .text.LIB_IOM_External_SetReadRamRequest:00000052 .LVL57
C:\Users\Andrea\AppData\Local\Temp\ccSQva6n.s:360    .text.LIB_IOM_External_SetReadRamRequest:00000059 .LVL58
C:\Users\Andrea\AppData\Local\Temp\ccSQva6n.s:364    .text.LIB_IOM_External_SetReadRamRequest:0000005c .LVL59
C:\Users\Andrea\AppData\Local\Temp\ccSQva6n.s:302    .text.LIB_IOM_External_SetReadRamRequest:00000002 .LVL46
C:\Users\Andrea\AppData\Local\Temp\ccSQva6n.s:314    .text.LIB_IOM_External_SetReadRamRequest:0000000f .LVL49
C:\Users\Andrea\AppData\Local\Temp\ccSQva6n.s:321    .text.LIB_IOM_External_SetReadRamRequest:00000017 .LVL50
C:\Users\Andrea\AppData\Local\Temp\ccSQva6n.s:331    .text.LIB_IOM_External_SetReadRamRequest:00000023 .LVL53
C:\Users\Andrea\AppData\Local\Temp\ccSQva6n.s:336    .text.LIB_IOM_External_SetReadRamRequest:0000002f .LVL54
C:\Users\Andrea\AppData\Local\Temp\ccSQva6n.s:385    .text.LIB_IOM_External_SetWriteRamRequest:00000002 .LCFI4
C:\Users\Andrea\AppData\Local\Temp\ccSQva6n.s:383    .text.LIB_IOM_External_SetWriteRamRequest:00000000 .LVL61
C:\Users\Andrea\AppData\Local\Temp\ccSQva6n.s:393    .text.LIB_IOM_External_SetWriteRamRequest:0000000b .LVL63
C:\Users\Andrea\AppData\Local\Temp\ccSQva6n.s:399    .text.LIB_IOM_External_SetWriteRamRequest:00000013 .LVL65
C:\Users\Andrea\AppData\Local\Temp\ccSQva6n.s:411    .text.LIB_IOM_External_SetWriteRamRequest:0000001d .LVL68
C:\Users\Andrea\AppData\Local\Temp\ccSQva6n.s:413    .text.LIB_IOM_External_SetWriteRamRequest:0000001f .LVL69
C:\Users\Andrea\AppData\Local\Temp\ccSQva6n.s:445    .text.LIB_IOM_External_SetWriteRamRequest:00000055 .LVL77
C:\Users\Andrea\AppData\Local\Temp\ccSQva6n.s:450    .text.LIB_IOM_External_SetWriteRamRequest:0000005c .LVL78
C:\Users\Andrea\AppData\Local\Temp\ccSQva6n.s:454    .text.LIB_IOM_External_SetWriteRamRequest:0000005f .LVL79
C:\Users\Andrea\AppData\Local\Temp\ccSQva6n.s:461    .text.LIB_IOM_External_SetWriteRamRequest:00000066 .LVL81
C:\Users\Andrea\AppData\Local\Temp\ccSQva6n.s:386    .text.LIB_IOM_External_SetWriteRamRequest:00000002 .LVL62
C:\Users\Andrea\AppData\Local\Temp\ccSQva6n.s:402    .text.LIB_IOM_External_SetWriteRamRequest:00000015 .LVL66
C:\Users\Andrea\AppData\Local\Temp\ccSQva6n.s:408    .text.LIB_IOM_External_SetWriteRamRequest:0000001b .LVL67
C:\Users\Andrea\AppData\Local\Temp\ccSQva6n.s:418    .text.LIB_IOM_External_SetWriteRamRequest:00000027 .LVL70
C:\Users\Andrea\AppData\Local\Temp\ccSQva6n.s:423    .text.LIB_IOM_External_SetWriteRamRequest:00000033 .LVL71
C:\Users\Andrea\AppData\Local\Temp\ccSQva6n.s:432    .text.LIB_IOM_External_SetWriteRamRequest:00000041 .LVL73
C:\Users\Andrea\AppData\Local\Temp\ccSQva6n.s:435    .text.LIB_IOM_External_SetWriteRamRequest:00000043 .LVL74
C:\Users\Andrea\AppData\Local\Temp\ccSQva6n.s:442    .text.LIB_IOM_External_SetWriteRamRequest:0000004c .LVL76
C:\Users\Andrea\AppData\Local\Temp\ccSQva6n.s:476    .text.LIB_IOM_External_SetExtraRequest:00000002 .LCFI5
C:\Users\Andrea\AppData\Local\Temp\ccSQva6n.s:474    .text.LIB_IOM_External_SetExtraRequest:00000000 .LVL82
C:\Users\Andrea\AppData\Local\Temp\ccSQva6n.s:484    .text.LIB_IOM_External_SetExtraRequest:0000000b .LVL84
C:\Users\Andrea\AppData\Local\Temp\ccSQva6n.s:486    .text.LIB_IOM_External_SetExtraRequest:0000000d .LVL85
C:\Users\Andrea\AppData\Local\Temp\ccSQva6n.s:498    .text.LIB_IOM_External_SetExtraRequest:00000017 .LVL88
C:\Users\Andrea\AppData\Local\Temp\ccSQva6n.s:500    .text.LIB_IOM_External_SetExtraRequest:00000019 .LVL89
C:\Users\Andrea\AppData\Local\Temp\ccSQva6n.s:532    .text.LIB_IOM_External_SetExtraRequest:0000004f .LVL97
C:\Users\Andrea\AppData\Local\Temp\ccSQva6n.s:537    .text.LIB_IOM_External_SetExtraRequest:00000056 .LVL98
C:\Users\Andrea\AppData\Local\Temp\ccSQva6n.s:541    .text.LIB_IOM_External_SetExtraRequest:00000059 .LVL99
C:\Users\Andrea\AppData\Local\Temp\ccSQva6n.s:477    .text.LIB_IOM_External_SetExtraRequest:00000002 .LVL83
C:\Users\Andrea\AppData\Local\Temp\ccSQva6n.s:489    .text.LIB_IOM_External_SetExtraRequest:0000000f .LVL86
C:\Users\Andrea\AppData\Local\Temp\ccSQva6n.s:495    .text.LIB_IOM_External_SetExtraRequest:00000015 .LVL87
C:\Users\Andrea\AppData\Local\Temp\ccSQva6n.s:505    .text.LIB_IOM_External_SetExtraRequest:00000021 .LVL90
C:\Users\Andrea\AppData\Local\Temp\ccSQva6n.s:510    .text.LIB_IOM_External_SetExtraRequest:0000002d .LVL91
C:\Users\Andrea\AppData\Local\Temp\ccSQva6n.s:519    .text.LIB_IOM_External_SetExtraRequest:0000003b .LVL93
C:\Users\Andrea\AppData\Local\Temp\ccSQva6n.s:522    .text.LIB_IOM_External_SetExtraRequest:0000003d .LVL94
C:\Users\Andrea\AppData\Local\Temp\ccSQva6n.s:529    .text.LIB_IOM_External_SetExtraRequest:00000046 .LVL96
C:\Users\Andrea\AppData\Local\Temp\ccSQva6n.s:562    .text.LIB_IOM_External_GetCommandBuffer:00000002 .LCFI6
C:\Users\Andrea\AppData\Local\Temp\ccSQva6n.s:560    .text.LIB_IOM_External_GetCommandBuffer:00000000 .LVL101
C:\Users\Andrea\AppData\Local\Temp\ccSQva6n.s:582    .text.LIB_IOM_External_GetCommandBuffer:00000028 .LVL103
C:\Users\Andrea\AppData\Local\Temp\ccSQva6n.s:586    .text.LIB_IOM_External_GetCommandBuffer:0000002e .LVL105
C:\Users\Andrea\AppData\Local\Temp\ccSQva6n.s:598    .text.LIB_IOM_External_GetCommandBuffer:00000046 .LVL107
C:\Users\Andrea\AppData\Local\Temp\ccSQva6n.s:632    .text.LIB_IOM_External_GetCommandBuffer:00000071 .LVL110
C:\Users\Andrea\AppData\Local\Temp\ccSQva6n.s:720    .text.LIB_IOM_External_GetCommandBuffer:000000f1 .LVL122
C:\Users\Andrea\AppData\Local\Temp\ccSQva6n.s:746    .text.LIB_IOM_External_GetCommandBuffer:0000011b .LVL125
C:\Users\Andrea\AppData\Local\Temp\ccSQva6n.s:569    .text.LIB_IOM_External_GetCommandBuffer:00000010 .LVL102
C:\Users\Andrea\AppData\Local\Temp\ccSQva6n.s:652    .text.LIB_IOM_External_GetCommandBuffer:00000088 .LVL114
C:\Users\Andrea\AppData\Local\Temp\ccSQva6n.s:655    .text.LIB_IOM_External_GetCommandBuffer:0000008a .LVL115
C:\Users\Andrea\AppData\Local\Temp\ccSQva6n.s:666    .text.LIB_IOM_External_GetCommandBuffer:00000096 .LVL119
C:\Users\Andrea\AppData\Local\Temp\ccSQva6n.s:669    .text.LIB_IOM_External_GetCommandBuffer:00000098 .LVL120
C:\Users\Andrea\AppData\Local\Temp\ccSQva6n.s:659    .text.LIB_IOM_External_GetCommandBuffer:0000008f .LVL117
C:\Users\Andrea\AppData\Local\Temp\ccSQva6n.s:739    .text.LIB_IOM_External_GetCommandBuffer:00000113 .LVL123
C:\Users\Andrea\AppData\Local\Temp\ccSQva6n.s:663    .text.LIB_IOM_External_GetCommandBuffer:00000094 .LVL118
C:\Users\Andrea\AppData\Local\Temp\ccSQva6n.s:718    .text.LIB_IOM_External_GetCommandBuffer:000000ef .LVL121
C:\Users\Andrea\AppData\Local\Temp\ccSQva6n.s:647    .text.LIB_IOM_External_GetCommandBuffer:00000082 .LVL113
C:\Users\Andrea\AppData\Local\Temp\ccSQva6n.s:657    .text.LIB_IOM_External_GetCommandBuffer:0000008d .LVL116
C:\Users\Andrea\AppData\Local\Temp\ccSQva6n.s:609    .text.LIB_IOM_External_GetCommandBuffer:00000053 .LVL108
C:\Users\Andrea\AppData\Local\Temp\ccSQva6n.s:761    .text.LIB_IOM_External_GetInfoBuffer:00000002 .LCFI7
C:\Users\Andrea\AppData\Local\Temp\ccSQva6n.s:759    .text.LIB_IOM_External_GetInfoBuffer:00000000 .LVL126
C:\Users\Andrea\AppData\Local\Temp\ccSQva6n.s:764    .text.LIB_IOM_External_GetInfoBuffer:00000006 .LVL127
C:\Users\Andrea\AppData\Local\Temp\ccSQva6n.s:797    .text.LIB_IOM_External_GetInfoBuffer:0000003e .LVL132
C:\Users\Andrea\AppData\Local\Temp\ccSQva6n.s:801    .text.LIB_IOM_External_GetInfoBuffer:00000041 .LVL133
C:\Users\Andrea\AppData\Local\Temp\ccSQva6n.s:806    .text.LIB_IOM_External_GetInfoBuffer:00000043 .LVL134
C:\Users\Andrea\AppData\Local\Temp\ccSQva6n.s:784    .text.LIB_IOM_External_GetInfoBuffer:00000027 .LVL131
C:\Users\Andrea\AppData\Local\Temp\ccSQva6n.s:777    .text.LIB_IOM_External_GetInfoBuffer:00000019 .LVL129
C:\Users\Andrea\AppData\Local\Temp\ccSQva6n.s:779    .text.LIB_IOM_External_GetInfoBuffer:0000001b .LVL130
C:\Users\Andrea\AppData\Local\Temp\ccSQva6n.s:819    .text.LIB_IOM_Ext_GetCommonBuffer:00000000 .LVL135
C:\Users\Andrea\AppData\Local\Temp\ccSQva6n.s:822    .text.LIB_IOM_Ext_GetCommonBuffer:00000004 .LVL136
C:\Users\Andrea\AppData\Local\Temp\ccSQva6n.s:837    .text.LIB_IOM_Ext_GetCommonBuffer:00000016 .LVL139
C:\Users\Andrea\AppData\Local\Temp\ccSQva6n.s:840    .text.LIB_IOM_Ext_GetCommonBuffer:0000001a .LVL140
C:\Users\Andrea\AppData\Local\Temp\ccSQva6n.s:844    .text.LIB_IOM_Ext_GetCommonBuffer:0000001d .LVL141
C:\Users\Andrea\AppData\Local\Temp\ccSQva6n.s:831    .text.LIB_IOM_Ext_GetCommonBuffer:0000000e .LVL138
C:\Users\Andrea\AppData\Local\Temp\ccSQva6n.s:849    .text.LIB_IOM_Ext_GetCommonBuffer:0000001f .LVL142
C:\Users\Andrea\AppData\Local\Temp\ccSQva6n.s:824    .text.LIB_IOM_Ext_GetCommonBuffer:00000006 .LVL137
C:\Users\Andrea\AppData\Local\Temp\ccSQva6n.s:860    .text.LIB_IOM_Ext_GetExtdLoadComChan:00000000 .LVL143
C:\Users\Andrea\AppData\Local\Temp\ccSQva6n.s:875    .text.LIB_IOM_Ext_GetExtdLoadComChan:0000001b .LVL146
C:\Users\Andrea\AppData\Local\Temp\ccSQva6n.s:877    .text.LIB_IOM_Ext_GetExtdLoadComChan:0000001c .LVL147
C:\Users\Andrea\AppData\Local\Temp\ccSQva6n.s:881    .text.LIB_IOM_Ext_GetExtdLoadComChan:0000001e .LVL148
C:\Users\Andrea\AppData\Local\Temp\ccSQva6n.s:871    .text.LIB_IOM_Ext_GetExtdLoadComChan:00000011 .LVL145
C:\Users\Andrea\AppData\Local\Temp\ccSQva6n.s:907    .text.LIB_IOM_External_GetLoadStatus:00000000 .LVL149
C:\Users\Andrea\AppData\Local\Temp\ccSQva6n.s:919    .text.LIB_IOM_External_GetLoadStatus:0000000c .LVL151
C:\Users\Andrea\AppData\Local\Temp\ccSQva6n.s:927    .text.LIB_IOM_External_GetLoadStatus:00000014 .LVL153
C:\Users\Andrea\AppData\Local\Temp\ccSQva6n.s:947    .text.LIB_IOM_External_ProcessInfoPacketData:0000000c .LCFI8
C:\Users\Andrea\AppData\Local\Temp\ccSQva6n.s:1052   .text.LIB_IOM_External_ProcessInfoPacketData:000000ac .LCFI9
C:\Users\Andrea\AppData\Local\Temp\ccSQva6n.s:1056   .text.LIB_IOM_External_ProcessInfoPacketData:000000b0 .LCFI10
C:\Users\Andrea\AppData\Local\Temp\ccSQva6n.s:1431   .debug_info:00000000 .Ldebug_info0

UNDEFINED SYMBOLS
_LIB_IOM_FindLoad
_LIB_IOM_GetPilotType
_BasicLoader
_LIB_Error_Warning_Handler
_UseExternalBoard
_UnuseExternalBoard
_LIB_IOM_GetExtBoardPos
_UseExternalInfo
_UnuseExternalInfo
