   1                             		.file	"Feedbacks.c"
   2                             		.section P,"ax"
   3                             	.Ltext0:
   4                             		.section	.text.LIB_FDB_FeedbackInitMeasure,"ax",@progbits
   5                             		.global	_LIB_FDB_FeedbackInitMeasure
   7                             	_LIB_FDB_FeedbackInitMeasure:
   8                             	.LFB0:
   9                             		.file 1 "C:/Workspace/FW_Inertia/branch_indesit/PlatformLibrary/LIB_Feedbacks/Feedbacks.c"
   1:C:/Workspace/FW_Inertia/branch_indesit/PlatformLibrary/LIB_Feedbacks\Feedbacks.c **** /*
   2:C:/Workspace/FW_Inertia/branch_indesit/PlatformLibrary/LIB_Feedbacks\Feedbacks.c **** Copyright (c) 2004-2005, Indesit Company, I.D.D..
   3:C:/Workspace/FW_Inertia/branch_indesit/PlatformLibrary/LIB_Feedbacks\Feedbacks.c **** Tutti i diritti sono riservati. All rights reserved.
   4:C:/Workspace/FW_Inertia/branch_indesit/PlatformLibrary/LIB_Feedbacks\Feedbacks.c **** */
   5:C:/Workspace/FW_Inertia/branch_indesit/PlatformLibrary/LIB_Feedbacks\Feedbacks.c **** 
   6:C:/Workspace/FW_Inertia/branch_indesit/PlatformLibrary/LIB_Feedbacks\Feedbacks.c **** /**
   7:C:/Workspace/FW_Inertia/branch_indesit/PlatformLibrary/LIB_Feedbacks\Feedbacks.c **** \n
   8:C:/Workspace/FW_Inertia/branch_indesit/PlatformLibrary/LIB_Feedbacks\Feedbacks.c **** \par		Feedbacks.c
   9:C:/Workspace/FW_Inertia/branch_indesit/PlatformLibrary/LIB_Feedbacks\Feedbacks.c **** \n			Implementation of all functions necessary to achieve the aim.
  10:C:/Workspace/FW_Inertia/branch_indesit/PlatformLibrary/LIB_Feedbacks\Feedbacks.c **** \n
  11:C:/Workspace/FW_Inertia/branch_indesit/PlatformLibrary/LIB_Feedbacks\Feedbacks.c **** \file		Feedbacks.c
  12:C:/Workspace/FW_Inertia/branch_indesit/PlatformLibrary/LIB_Feedbacks\Feedbacks.c **** \ingroup	LIB_Feedbacks
  13:C:/Workspace/FW_Inertia/branch_indesit/PlatformLibrary/LIB_Feedbacks\Feedbacks.c **** \date		Nov 2, 2010
  14:C:/Workspace/FW_Inertia/branch_indesit/PlatformLibrary/LIB_Feedbacks\Feedbacks.c **** \version	01.00.00
  15:C:/Workspace/FW_Inertia/branch_indesit/PlatformLibrary/LIB_Feedbacks\Feedbacks.c **** \author		stefano.ughi
  16:C:/Workspace/FW_Inertia/branch_indesit/PlatformLibrary/LIB_Feedbacks\Feedbacks.c **** \n
  17:C:/Workspace/FW_Inertia/branch_indesit/PlatformLibrary/LIB_Feedbacks\Feedbacks.c **** \n
  18:C:/Workspace/FW_Inertia/branch_indesit/PlatformLibrary/LIB_Feedbacks\Feedbacks.c **** \par\b	History:
  19:C:/Workspace/FW_Inertia/branch_indesit/PlatformLibrary/LIB_Feedbacks\Feedbacks.c **** \n
  20:C:/Workspace/FW_Inertia/branch_indesit/PlatformLibrary/LIB_Feedbacks\Feedbacks.c **** \n 		01.00.01
  21:C:/Workspace/FW_Inertia/branch_indesit/PlatformLibrary/LIB_Feedbacks\Feedbacks.c **** \n		Apr 18, 2010
  22:C:/Workspace/FW_Inertia/branch_indesit/PlatformLibrary/LIB_Feedbacks\Feedbacks.c **** \n		stefano.ughi
  23:C:/Workspace/FW_Inertia/branch_indesit/PlatformLibrary/LIB_Feedbacks\Feedbacks.c **** \n		changes
  24:C:/Workspace/FW_Inertia/branch_indesit/PlatformLibrary/LIB_Feedbacks\Feedbacks.c **** \n         - in LIB_FDB_Manager() added support for Zero Crossing Voltage signal on I.C.U. pin
  25:C:/Workspace/FW_Inertia/branch_indesit/PlatformLibrary/LIB_Feedbacks\Feedbacks.c **** \n
  26:C:/Workspace/FW_Inertia/branch_indesit/PlatformLibrary/LIB_Feedbacks\Feedbacks.c **** \n 		01.00.00
  27:C:/Workspace/FW_Inertia/branch_indesit/PlatformLibrary/LIB_Feedbacks\Feedbacks.c **** \n		Nov 2, 2010
  28:C:/Workspace/FW_Inertia/branch_indesit/PlatformLibrary/LIB_Feedbacks\Feedbacks.c **** \n		stefano.ughi
  29:C:/Workspace/FW_Inertia/branch_indesit/PlatformLibrary/LIB_Feedbacks\Feedbacks.c **** \n		changes
  30:C:/Workspace/FW_Inertia/branch_indesit/PlatformLibrary/LIB_Feedbacks\Feedbacks.c **** \n          Creation
  31:C:/Workspace/FW_Inertia/branch_indesit/PlatformLibrary/LIB_Feedbacks\Feedbacks.c **** \n
  32:C:/Workspace/FW_Inertia/branch_indesit/PlatformLibrary/LIB_Feedbacks\Feedbacks.c **** */
  33:C:/Workspace/FW_Inertia/branch_indesit/PlatformLibrary/LIB_Feedbacks\Feedbacks.c **** 
  34:C:/Workspace/FW_Inertia/branch_indesit/PlatformLibrary/LIB_Feedbacks\Feedbacks.c **** #define MODULE_BODY_LIB_FEEDBACKS
  35:C:/Workspace/FW_Inertia/branch_indesit/PlatformLibrary/LIB_Feedbacks\Feedbacks.c **** /* ******** */
  36:C:/Workspace/FW_Inertia/branch_indesit/PlatformLibrary/LIB_Feedbacks\Feedbacks.c **** /* Includes */
  37:C:/Workspace/FW_Inertia/branch_indesit/PlatformLibrary/LIB_Feedbacks\Feedbacks.c **** /* ******** */
  38:C:/Workspace/FW_Inertia/branch_indesit/PlatformLibrary/LIB_Feedbacks\Feedbacks.c **** #include "Config.h"
  39:C:/Workspace/FW_Inertia/branch_indesit/PlatformLibrary/LIB_Feedbacks\Feedbacks.c **** #include <string.h>
  40:C:/Workspace/FW_Inertia/branch_indesit/PlatformLibrary/LIB_Feedbacks\Feedbacks.c **** #include <stdlib.h>
  41:C:/Workspace/FW_Inertia/branch_indesit/PlatformLibrary/LIB_Feedbacks\Feedbacks.c **** #include "Feedbacks.h"
  42:C:/Workspace/FW_Inertia/branch_indesit/PlatformLibrary/LIB_Feedbacks\Feedbacks.c **** #include "OCDIO_drv.h"
  43:C:/Workspace/FW_Inertia/branch_indesit/PlatformLibrary/LIB_Feedbacks\Feedbacks.c **** #include "OCTPM_drv.h"
  44:C:/Workspace/FW_Inertia/branch_indesit/PlatformLibrary/LIB_Feedbacks\Feedbacks.c **** #include "OCIRQ_drv.h"
  45:C:/Workspace/FW_Inertia/branch_indesit/PlatformLibrary/LIB_Feedbacks\Feedbacks.c **** #include "DigitalInputs.h"
  46:C:/Workspace/FW_Inertia/branch_indesit/PlatformLibrary/LIB_Feedbacks\Feedbacks.c **** #include "LIB_Error.h"
  47:C:/Workspace/FW_Inertia/branch_indesit/PlatformLibrary/LIB_Feedbacks\Feedbacks.c **** #include "InputManagerExp.h"
  48:C:/Workspace/FW_Inertia/branch_indesit/PlatformLibrary/LIB_Feedbacks\Feedbacks.c **** #include "IOSharing.h"
  49:C:/Workspace/FW_Inertia/branch_indesit/PlatformLibrary/LIB_Feedbacks\Feedbacks.c **** #include "LIB_ClassBVar.h"
  50:C:/Workspace/FW_Inertia/branch_indesit/PlatformLibrary/LIB_Feedbacks\Feedbacks.c **** #include "LIB_Trace.h"
  51:C:/Workspace/FW_Inertia/branch_indesit/PlatformLibrary/LIB_Feedbacks\Feedbacks.c **** 
  52:C:/Workspace/FW_Inertia/branch_indesit/PlatformLibrary/LIB_Feedbacks\Feedbacks.c **** /* ****************** */
  53:C:/Workspace/FW_Inertia/branch_indesit/PlatformLibrary/LIB_Feedbacks\Feedbacks.c **** /* Defines and Macros */
  54:C:/Workspace/FW_Inertia/branch_indesit/PlatformLibrary/LIB_Feedbacks\Feedbacks.c **** /* ****************** */
  55:C:/Workspace/FW_Inertia/branch_indesit/PlatformLibrary/LIB_Feedbacks\Feedbacks.c **** 
  56:C:/Workspace/FW_Inertia/branch_indesit/PlatformLibrary/LIB_Feedbacks\Feedbacks.c **** /** All feedbacks are not ready */
  57:C:/Workspace/FW_Inertia/branch_indesit/PlatformLibrary/LIB_Feedbacks\Feedbacks.c **** #define FDB_ALL_ARE_NOT_READY   ((feedbackBitfield_t)0u)
  58:C:/Workspace/FW_Inertia/branch_indesit/PlatformLibrary/LIB_Feedbacks\Feedbacks.c **** /** Reading of all feedbacks is enabled */
  59:C:/Workspace/FW_Inertia/branch_indesit/PlatformLibrary/LIB_Feedbacks\Feedbacks.c **** #define FDB_ALL_READ_ENABLED    ((feedbackBitfield_t)0u)
  60:C:/Workspace/FW_Inertia/branch_indesit/PlatformLibrary/LIB_Feedbacks\Feedbacks.c **** /** Feedback's value is indeterminate */
  61:C:/Workspace/FW_Inertia/branch_indesit/PlatformLibrary/LIB_Feedbacks\Feedbacks.c **** #define FDB_INDETERMINATE       0xFF
  62:C:/Workspace/FW_Inertia/branch_indesit/PlatformLibrary/LIB_Feedbacks\Feedbacks.c **** 
  63:C:/Workspace/FW_Inertia/branch_indesit/PlatformLibrary/LIB_Feedbacks\Feedbacks.c **** /* *************************** */
  64:C:/Workspace/FW_Inertia/branch_indesit/PlatformLibrary/LIB_Feedbacks\Feedbacks.c **** /* Typedef, Structs and Unions */
  65:C:/Workspace/FW_Inertia/branch_indesit/PlatformLibrary/LIB_Feedbacks\Feedbacks.c **** /* *************************** */
  66:C:/Workspace/FW_Inertia/branch_indesit/PlatformLibrary/LIB_Feedbacks\Feedbacks.c **** /*lint -esym( 754,FDB_descriptorType_tag::w ) w not referenced */
  67:C:/Workspace/FW_Inertia/branch_indesit/PlatformLibrary/LIB_Feedbacks\Feedbacks.c **** /*lint -esym( 754,free ) free not referenced */
  68:C:/Workspace/FW_Inertia/branch_indesit/PlatformLibrary/LIB_Feedbacks\Feedbacks.c **** 
  69:C:/Workspace/FW_Inertia/branch_indesit/PlatformLibrary/LIB_Feedbacks\Feedbacks.c **** /**
  70:C:/Workspace/FW_Inertia/branch_indesit/PlatformLibrary/LIB_Feedbacks\Feedbacks.c **** Feedback's descriptor
  71:C:/Workspace/FW_Inertia/branch_indesit/PlatformLibrary/LIB_Feedbacks\Feedbacks.c **** */
  72:C:/Workspace/FW_Inertia/branch_indesit/PlatformLibrary/LIB_Feedbacks\Feedbacks.c **** typedef union FDB_descriptorType_tag
  73:C:/Workspace/FW_Inertia/branch_indesit/PlatformLibrary/LIB_Feedbacks\Feedbacks.c **** {
  74:C:/Workspace/FW_Inertia/branch_indesit/PlatformLibrary/LIB_Feedbacks\Feedbacks.c ****     /** word's access */
  75:C:/Workspace/FW_Inertia/branch_indesit/PlatformLibrary/LIB_Feedbacks\Feedbacks.c ****     uint16_t w;
  76:C:/Workspace/FW_Inertia/branch_indesit/PlatformLibrary/LIB_Feedbacks\Feedbacks.c ****     /** bit's access */
  77:C:/Workspace/FW_Inertia/branch_indesit/PlatformLibrary/LIB_Feedbacks\Feedbacks.c ****     struct
  78:C:/Workspace/FW_Inertia/branch_indesit/PlatformLibrary/LIB_Feedbacks\Feedbacks.c ****     {
  79:C:/Workspace/FW_Inertia/branch_indesit/PlatformLibrary/LIB_Feedbacks\Feedbacks.c ****         /** If '1' the feedback is updated */
  80:C:/Workspace/FW_Inertia/branch_indesit/PlatformLibrary/LIB_Feedbacks\Feedbacks.c ****         uint8_t active:1;
  81:C:/Workspace/FW_Inertia/branch_indesit/PlatformLibrary/LIB_Feedbacks\Feedbacks.c ****         /** If '1' feedback read through multiplexer if '0' direct */
  82:C:/Workspace/FW_Inertia/branch_indesit/PlatformLibrary/LIB_Feedbacks\Feedbacks.c ****         uint8_t readtype:1;
  83:C:/Workspace/FW_Inertia/branch_indesit/PlatformLibrary/LIB_Feedbacks\Feedbacks.c ****         /** Multiplexer's configuration for feedback's reading */
  84:C:/Workspace/FW_Inertia/branch_indesit/PlatformLibrary/LIB_Feedbacks\Feedbacks.c ****         uint8_t chsel:3;
  85:C:/Workspace/FW_Inertia/branch_indesit/PlatformLibrary/LIB_Feedbacks\Feedbacks.c ****         /** Pull-up enable */
  86:C:/Workspace/FW_Inertia/branch_indesit/PlatformLibrary/LIB_Feedbacks\Feedbacks.c ****         uint8_t pullupEn:1;
  87:C:/Workspace/FW_Inertia/branch_indesit/PlatformLibrary/LIB_Feedbacks\Feedbacks.c ****         /** Unused */
  88:C:/Workspace/FW_Inertia/branch_indesit/PlatformLibrary/LIB_Feedbacks\Feedbacks.c ****         uint8_t free:2;
  89:C:/Workspace/FW_Inertia/branch_indesit/PlatformLibrary/LIB_Feedbacks\Feedbacks.c ****         /** If '1' feedback is linked to a partializated load */
  90:C:/Workspace/FW_Inertia/branch_indesit/PlatformLibrary/LIB_Feedbacks\Feedbacks.c ****         uint8_t loadP:1;
  91:C:/Workspace/FW_Inertia/branch_indesit/PlatformLibrary/LIB_Feedbacks\Feedbacks.c ****         /** Pin of the linkage module minus 1 linked to the feedback */
  92:C:/Workspace/FW_Inertia/branch_indesit/PlatformLibrary/LIB_Feedbacks\Feedbacks.c ****         uint8_t pin:6;
  93:C:/Workspace/FW_Inertia/branch_indesit/PlatformLibrary/LIB_Feedbacks\Feedbacks.c ****         /** If '1' reading inverted */
  94:C:/Workspace/FW_Inertia/branch_indesit/PlatformLibrary/LIB_Feedbacks\Feedbacks.c ****         uint8_t actvsense:1;
  95:C:/Workspace/FW_Inertia/branch_indesit/PlatformLibrary/LIB_Feedbacks\Feedbacks.c ****     } s;
  96:C:/Workspace/FW_Inertia/branch_indesit/PlatformLibrary/LIB_Feedbacks\Feedbacks.c **** } FDB_descriptorType;
  97:C:/Workspace/FW_Inertia/branch_indesit/PlatformLibrary/LIB_Feedbacks\Feedbacks.c **** 
  98:C:/Workspace/FW_Inertia/branch_indesit/PlatformLibrary/LIB_Feedbacks\Feedbacks.c **** typedef struct
  99:C:/Workspace/FW_Inertia/branch_indesit/PlatformLibrary/LIB_Feedbacks\Feedbacks.c **** {
 100:C:/Workspace/FW_Inertia/branch_indesit/PlatformLibrary/LIB_Feedbacks\Feedbacks.c ****     uint8_t cntSamples;
 101:C:/Workspace/FW_Inertia/branch_indesit/PlatformLibrary/LIB_Feedbacks\Feedbacks.c ****     int8_t cntVal;
 102:C:/Workspace/FW_Inertia/branch_indesit/PlatformLibrary/LIB_Feedbacks\Feedbacks.c ****     int8_t cntZCmatch;
 103:C:/Workspace/FW_Inertia/branch_indesit/PlatformLibrary/LIB_Feedbacks\Feedbacks.c ****     unsigned int  ready: 1; /*  indicating if feedback is ready */
 104:C:/Workspace/FW_Inertia/branch_indesit/PlatformLibrary/LIB_Feedbacks\Feedbacks.c ****     unsigned int  readyWritable: 1;
 105:C:/Workspace/FW_Inertia/branch_indesit/PlatformLibrary/LIB_Feedbacks\Feedbacks.c ****     unsigned int  zcCompare: 1;
 106:C:/Workspace/FW_Inertia/branch_indesit/PlatformLibrary/LIB_Feedbacks\Feedbacks.c **** } FDB_StatusType;
 107:C:/Workspace/FW_Inertia/branch_indesit/PlatformLibrary/LIB_Feedbacks\Feedbacks.c **** 
 108:C:/Workspace/FW_Inertia/branch_indesit/PlatformLibrary/LIB_Feedbacks\Feedbacks.c **** /* **************************** */
 109:C:/Workspace/FW_Inertia/branch_indesit/PlatformLibrary/LIB_Feedbacks\Feedbacks.c **** /* Prototype of local functions */
 110:C:/Workspace/FW_Inertia/branch_indesit/PlatformLibrary/LIB_Feedbacks\Feedbacks.c **** /* **************************** */
 111:C:/Workspace/FW_Inertia/branch_indesit/PlatformLibrary/LIB_Feedbacks\Feedbacks.c **** 
 112:C:/Workspace/FW_Inertia/branch_indesit/PlatformLibrary/LIB_Feedbacks\Feedbacks.c **** /* ****************** */
 113:C:/Workspace/FW_Inertia/branch_indesit/PlatformLibrary/LIB_Feedbacks\Feedbacks.c **** /* Exported variables */
 114:C:/Workspace/FW_Inertia/branch_indesit/PlatformLibrary/LIB_Feedbacks\Feedbacks.c **** /* ****************** */
 115:C:/Workspace/FW_Inertia/branch_indesit/PlatformLibrary/LIB_Feedbacks\Feedbacks.c **** 
 116:C:/Workspace/FW_Inertia/branch_indesit/PlatformLibrary/LIB_Feedbacks\Feedbacks.c **** /* **************** */
 117:C:/Workspace/FW_Inertia/branch_indesit/PlatformLibrary/LIB_Feedbacks\Feedbacks.c **** /* Global variables */
 118:C:/Workspace/FW_Inertia/branch_indesit/PlatformLibrary/LIB_Feedbacks\Feedbacks.c **** /* **************** */
 119:C:/Workspace/FW_Inertia/branch_indesit/PlatformLibrary/LIB_Feedbacks\Feedbacks.c **** /** The output of the module */
 120:C:/Workspace/FW_Inertia/branch_indesit/PlatformLibrary/LIB_Feedbacks\Feedbacks.c **** uint8_t Feedback[N_FEEDBACK];
 121:C:/Workspace/FW_Inertia/branch_indesit/PlatformLibrary/LIB_Feedbacks\Feedbacks.c **** /** Feedback's Descriptor */
 122:C:/Workspace/FW_Inertia/branch_indesit/PlatformLibrary/LIB_Feedbacks\Feedbacks.c **** feedbackBitfield_t FeedbackInputDisable;
 123:C:/Workspace/FW_Inertia/branch_indesit/PlatformLibrary/LIB_Feedbacks\Feedbacks.c **** static FDB_descriptorType FeedbackDescriptor[N_FEEDBACK];
 124:C:/Workspace/FW_Inertia/branch_indesit/PlatformLibrary/LIB_Feedbacks\Feedbacks.c **** FDB_StatusType FeedbackStatus[N_FEEDBACK];
 125:C:/Workspace/FW_Inertia/branch_indesit/PlatformLibrary/LIB_Feedbacks\Feedbacks.c **** 
 126:C:/Workspace/FW_Inertia/branch_indesit/PlatformLibrary/LIB_Feedbacks\Feedbacks.c **** /**
 127:C:/Workspace/FW_Inertia/branch_indesit/PlatformLibrary/LIB_Feedbacks\Feedbacks.c ****  * LIB_FDB_FeedbackInitMeasure
 128:C:/Workspace/FW_Inertia/branch_indesit/PlatformLibrary/LIB_Feedbacks\Feedbacks.c ****  * \param  [in] pos feedback position described inside Setting File
 129:C:/Workspace/FW_Inertia/branch_indesit/PlatformLibrary/LIB_Feedbacks\Feedbacks.c ****  *
 130:C:/Workspace/FW_Inertia/branch_indesit/PlatformLibrary/LIB_Feedbacks\Feedbacks.c ****  **/
 131:C:/Workspace/FW_Inertia/branch_indesit/PlatformLibrary/LIB_Feedbacks\Feedbacks.c **** void LIB_FDB_FeedbackInitMeasure(uint8_t pos)
 132:C:/Workspace/FW_Inertia/branch_indesit/PlatformLibrary/LIB_Feedbacks\Feedbacks.c **** {
  10                             		.loc 1 132 0
  11                             	.LVL0:
 133:C:/Workspace/FW_Inertia/branch_indesit/PlatformLibrary/LIB_Feedbacks\Feedbacks.c ****     if ( pos < N_FEEDBACK )
  12                             		.loc 1 133 0
  13 0000 5B 11                   		movu.B	r1, r1
  14 0002 61 71                   		cmp	#7, r1
  15 0004 24 21                   		bgtu	.L2
 134:C:/Workspace/FW_Inertia/branch_indesit/PlatformLibrary/LIB_Feedbacks\Feedbacks.c ****     {
 135:C:/Workspace/FW_Inertia/branch_indesit/PlatformLibrary/LIB_Feedbacks\Feedbacks.c ****         SAFETY_REGION_START();
 136:C:/Workspace/FW_Inertia/branch_indesit/PlatformLibrary/LIB_Feedbacks\Feedbacks.c ****         SAFETY_DATA_ELEM_CHECK( FeedbackStatus, pos);
 137:C:/Workspace/FW_Inertia/branch_indesit/PlatformLibrary/LIB_Feedbacks\Feedbacks.c **** 
 138:C:/Workspace/FW_Inertia/branch_indesit/PlatformLibrary/LIB_Feedbacks\Feedbacks.c ****         /* Disable feedback's reading */
 139:C:/Workspace/FW_Inertia/branch_indesit/PlatformLibrary/LIB_Feedbacks\Feedbacks.c ****         FeedbackStatus[pos].cntSamples = 0;
  16                             		.loc 1 139 0
  17 0006 FD C3 1E                		shll	#3, r1, r14
  18 0009 70 EE 00 00 00 00       		add	#_FeedbackStatus, r14
  19 000f F8 E4 00                		mov.B	#0, [r14]
 140:C:/Workspace/FW_Inertia/branch_indesit/PlatformLibrary/LIB_Feedbacks\Feedbacks.c ****         FeedbackStatus[pos].cntZCmatch = 0;
  20                             		.loc 1 140 0
  21 0012 F9 E4 02 00             		mov.B	#0, 2[r14]
 141:C:/Workspace/FW_Inertia/branch_indesit/PlatformLibrary/LIB_Feedbacks\Feedbacks.c ****         FeedbackStatus[pos].cntVal = 0;
  22                             		.loc 1 141 0
  23 0016 F9 E4 01 00             		mov.B	#0, 1[r14]
 142:C:/Workspace/FW_Inertia/branch_indesit/PlatformLibrary/LIB_Feedbacks\Feedbacks.c ****         FeedbackStatus[pos].readyWritable = 0;
  24                             		.loc 1 142 0
  25 001a CD E4 04                		mov.B	4[r14], r4
  26 001d 7A 64                   		bclr	#6, r4
 143:C:/Workspace/FW_Inertia/branch_indesit/PlatformLibrary/LIB_Feedbacks\Feedbacks.c ****         FeedbackStatus[pos].zcCompare = 1;
  27                             		.loc 1 143 0
  28 001f 78 54                   		bset	#5, r4
  29 0021 C7 E4 04                		mov.B	r4, 4[r14]
  30 0024 02                      		rts
  31                             	.L2:
 144:C:/Workspace/FW_Inertia/branch_indesit/PlatformLibrary/LIB_Feedbacks\Feedbacks.c **** 
 145:C:/Workspace/FW_Inertia/branch_indesit/PlatformLibrary/LIB_Feedbacks\Feedbacks.c ****         SAFETY_DATA_ELEM_UPDATE( FeedbackStatus, pos );
 146:C:/Workspace/FW_Inertia/branch_indesit/PlatformLibrary/LIB_Feedbacks\Feedbacks.c ****         SAFETY_REGION_END();
 147:C:/Workspace/FW_Inertia/branch_indesit/PlatformLibrary/LIB_Feedbacks\Feedbacks.c ****     }
 148:C:/Workspace/FW_Inertia/branch_indesit/PlatformLibrary/LIB_Feedbacks\Feedbacks.c ****     else
 149:C:/Workspace/FW_Inertia/branch_indesit/PlatformLibrary/LIB_Feedbacks\Feedbacks.c ****     {
 150:C:/Workspace/FW_Inertia/branch_indesit/PlatformLibrary/LIB_Feedbacks\Feedbacks.c ****         PLT_ERROR_FATAL(PLT_ERROR_FEEDBACK_2);
  32                             		.loc 1 150 0
  33 0025 66 81                   		mov.L	#8, r1
  34                             	.LVL1:
  35 0027 04 00 00 00             		bra	_LIB_Error_Fatal_Handler
  36                             	.LVL2:
  37                             	.LFE0:
  39                             		.section	.text.LIB_FDB_AreFeedbackReady,"ax",@progbits
  40                             		.global	_LIB_FDB_AreFeedbackReady
  42                             	_LIB_FDB_AreFeedbackReady:
  43                             	.LFB1:
 151:C:/Workspace/FW_Inertia/branch_indesit/PlatformLibrary/LIB_Feedbacks\Feedbacks.c ****     }
 152:C:/Workspace/FW_Inertia/branch_indesit/PlatformLibrary/LIB_Feedbacks\Feedbacks.c **** }
 153:C:/Workspace/FW_Inertia/branch_indesit/PlatformLibrary/LIB_Feedbacks\Feedbacks.c **** 
 154:C:/Workspace/FW_Inertia/branch_indesit/PlatformLibrary/LIB_Feedbacks\Feedbacks.c **** /**
 155:C:/Workspace/FW_Inertia/branch_indesit/PlatformLibrary/LIB_Feedbacks\Feedbacks.c **** LIB_FDB_AreFeedbackReady
 156:C:/Workspace/FW_Inertia/branch_indesit/PlatformLibrary/LIB_Feedbacks\Feedbacks.c **** This function returns TRUE if all active feedbacks are ready otherwise FALSE.
 157:C:/Workspace/FW_Inertia/branch_indesit/PlatformLibrary/LIB_Feedbacks\Feedbacks.c **** 
 158:C:/Workspace/FW_Inertia/branch_indesit/PlatformLibrary/LIB_Feedbacks\Feedbacks.c **** \return 	bool_t
 159:C:/Workspace/FW_Inertia/branch_indesit/PlatformLibrary/LIB_Feedbacks\Feedbacks.c **** 
 160:C:/Workspace/FW_Inertia/branch_indesit/PlatformLibrary/LIB_Feedbacks\Feedbacks.c **** \retval		TRUE all active feedbacks are ready\n
 161:C:/Workspace/FW_Inertia/branch_indesit/PlatformLibrary/LIB_Feedbacks\Feedbacks.c ****             FALSE at least one feedback is not ready
 162:C:/Workspace/FW_Inertia/branch_indesit/PlatformLibrary/LIB_Feedbacks\Feedbacks.c **** 
 163:C:/Workspace/FW_Inertia/branch_indesit/PlatformLibrary/LIB_Feedbacks\Feedbacks.c **** \author 	Stefano Ughi
 164:C:/Workspace/FW_Inertia/branch_indesit/PlatformLibrary/LIB_Feedbacks\Feedbacks.c **** \date		Nov. 08, 2010
 165:C:/Workspace/FW_Inertia/branch_indesit/PlatformLibrary/LIB_Feedbacks\Feedbacks.c **** \version	1.0.0
 166:C:/Workspace/FW_Inertia/branch_indesit/PlatformLibrary/LIB_Feedbacks\Feedbacks.c **** 
 167:C:/Workspace/FW_Inertia/branch_indesit/PlatformLibrary/LIB_Feedbacks\Feedbacks.c **** */
 168:C:/Workspace/FW_Inertia/branch_indesit/PlatformLibrary/LIB_Feedbacks\Feedbacks.c **** bool_t LIB_FDB_AreFeedbackReady(void)
 169:C:/Workspace/FW_Inertia/branch_indesit/PlatformLibrary/LIB_Feedbacks\Feedbacks.c **** {
  44                             		.loc 1 169 0
  45                             	.LVL3:
  46                             		.loc 1 169 0
  47 0000 66 0E                   		mov.L	#0, r14
  48                             	.LVL4:
  49                             		.balign 2,3,2
  50                             	.L8:
 170:C:/Workspace/FW_Inertia/branch_indesit/PlatformLibrary/LIB_Feedbacks\Feedbacks.c ****     uint8_t i;
 171:C:/Workspace/FW_Inertia/branch_indesit/PlatformLibrary/LIB_Feedbacks\Feedbacks.c **** 
 172:C:/Workspace/FW_Inertia/branch_indesit/PlatformLibrary/LIB_Feedbacks\Feedbacks.c ****     for ( i = 0; i < N_FEEDBACK ; i++ )
 173:C:/Workspace/FW_Inertia/branch_indesit/PlatformLibrary/LIB_Feedbacks\Feedbacks.c ****     {
 174:C:/Workspace/FW_Inertia/branch_indesit/PlatformLibrary/LIB_Feedbacks\Feedbacks.c ****         if ( FeedbackDescriptor[i].s.active )
  51                             		.loc 1 174 0
  52 0002 FF 24 EE                		add	r14, r14, r4
  53 0005 70 44 00 00 00 00       		add	#_FeedbackDescriptor, r4
  54 000b DC 44                   		mov.W	[r4], r4
  55 000d 61 04                   		cmp	#0, r4
  56 000f 28 11                   		bge	.L6
 175:C:/Workspace/FW_Inertia/branch_indesit/PlatformLibrary/LIB_Feedbacks\Feedbacks.c ****         {
 176:C:/Workspace/FW_Inertia/branch_indesit/PlatformLibrary/LIB_Feedbacks\Feedbacks.c ****             if ( FeedbackStatus[i].ready  == 0 )
  57                             		.loc 1 176 0
  58 0011 FD C3 E4                		shll	#3, r14, r4
  59 0014 70 44 00 00 00 00       		add	#_FeedbackStatus, r4
  60 001a A8 49                   		mov.L	4[r4], r1
  61 001c 69 F1                   		shlr	#31, r1
  62 001e 12                      		beq	.L7
  63 001f 03                      		.balign 2,3,1
  64                             	.L6:
  65 0020 62 1E                   		add	#1, r14
 172:C:/Workspace/FW_Inertia/branch_indesit/PlatformLibrary/LIB_Feedbacks\Feedbacks.c ****     for ( i = 0; i < N_FEEDBACK ; i++ )
  66                             		.loc 1 172 0
  67 0022 61 8E                   		cmp	#8, r14
  68 0024 21 DE                   		bne	.L8
 177:C:/Workspace/FW_Inertia/branch_indesit/PlatformLibrary/LIB_Feedbacks\Feedbacks.c ****             {
 178:C:/Workspace/FW_Inertia/branch_indesit/PlatformLibrary/LIB_Feedbacks\Feedbacks.c ****                 return FALSE;
 179:C:/Workspace/FW_Inertia/branch_indesit/PlatformLibrary/LIB_Feedbacks\Feedbacks.c ****             }
 180:C:/Workspace/FW_Inertia/branch_indesit/PlatformLibrary/LIB_Feedbacks\Feedbacks.c ****         }
 181:C:/Workspace/FW_Inertia/branch_indesit/PlatformLibrary/LIB_Feedbacks\Feedbacks.c ****     }
 182:C:/Workspace/FW_Inertia/branch_indesit/PlatformLibrary/LIB_Feedbacks\Feedbacks.c ****     return TRUE;
  69                             		.loc 1 182 0
  70 0026 66 11                   		mov.L	#1, r1
  71                             	.L7:
 183:C:/Workspace/FW_Inertia/branch_indesit/PlatformLibrary/LIB_Feedbacks\Feedbacks.c **** }
  72                             		.loc 1 183 0
  73 0028 02                      		rts
  74                             	.LFE1:
  76 0029 03                      		.section	.text.LIB_FDB_InitSync,"ax",@progbits
  77                             		.global	_LIB_FDB_InitSync
  79                             	_LIB_FDB_InitSync:
  80                             	.LFB2:
 184:C:/Workspace/FW_Inertia/branch_indesit/PlatformLibrary/LIB_Feedbacks\Feedbacks.c **** 
 185:C:/Workspace/FW_Inertia/branch_indesit/PlatformLibrary/LIB_Feedbacks\Feedbacks.c **** /** TODO: LIB_FDB_InitSync doc */
 186:C:/Workspace/FW_Inertia/branch_indesit/PlatformLibrary/LIB_Feedbacks\Feedbacks.c **** void LIB_FDB_InitSync(void)
 187:C:/Workspace/FW_Inertia/branch_indesit/PlatformLibrary/LIB_Feedbacks\Feedbacks.c **** {
  81                             		.loc 1 187 0
 188:C:/Workspace/FW_Inertia/branch_indesit/PlatformLibrary/LIB_Feedbacks\Feedbacks.c ****     int i;
 189:C:/Workspace/FW_Inertia/branch_indesit/PlatformLibrary/LIB_Feedbacks\Feedbacks.c **** 
 190:C:/Workspace/FW_Inertia/branch_indesit/PlatformLibrary/LIB_Feedbacks\Feedbacks.c ****     SAFETY_REGION_START();
 191:C:/Workspace/FW_Inertia/branch_indesit/PlatformLibrary/LIB_Feedbacks\Feedbacks.c **** 
 192:C:/Workspace/FW_Inertia/branch_indesit/PlatformLibrary/LIB_Feedbacks\Feedbacks.c ****     FeedbackInputDisable = FDB_ALL_READ_ENABLED;
  82                             		.loc 1 192 0
  83 0000 FB E2 00 00 00 00       		mov.L	#_FeedbackInputDisable, r14
  84 0006 F8 E4 00                		mov.B	#0, [r14]
 193:C:/Workspace/FW_Inertia/branch_indesit/PlatformLibrary/LIB_Feedbacks\Feedbacks.c **** 
 194:C:/Workspace/FW_Inertia/branch_indesit/PlatformLibrary/LIB_Feedbacks\Feedbacks.c ****     (void)memset(&FeedbackDescriptor[0], 0, sizeof(FeedbackDescriptor));
  85                             		.loc 1 194 0
  86 0009 FB 12 00 00 00 00       		mov.L	#_FeedbackDescriptor, r1
  87 000f 75 43 10                		mov.L	#16, r3
  88 0012 66 02                   		mov	#0, r2
  89 0014 7F 88                   		sstr.b
 195:C:/Workspace/FW_Inertia/branch_indesit/PlatformLibrary/LIB_Feedbacks\Feedbacks.c **** 
 196:C:/Workspace/FW_Inertia/branch_indesit/PlatformLibrary/LIB_Feedbacks\Feedbacks.c ****     (void)memset(&FeedbackStatus[0], 0, sizeof(FDB_StatusType));
  90                             		.loc 1 196 0
  91 0016 FB 12 00 00 00 00       		mov.L	#_FeedbackStatus, r1
  92 001c 66 83                   		mov.L	#8, r3
  93 001e 7F 88                   		sstr.b
  94                             	.LVL5:
  95 0020 02                      		rts
  96                             	.LFE2:
  98                             		.section	.text.LIB_FDB_GetFeedbackVal,"ax",@progbits
  99                             		.global	_LIB_FDB_GetFeedbackVal
 101                             	_LIB_FDB_GetFeedbackVal:
 102                             	.LFB3:
 197:C:/Workspace/FW_Inertia/branch_indesit/PlatformLibrary/LIB_Feedbacks\Feedbacks.c **** 
 198:C:/Workspace/FW_Inertia/branch_indesit/PlatformLibrary/LIB_Feedbacks\Feedbacks.c ****     for(i=0; i<N_FEEDBACK; i++)
 199:C:/Workspace/FW_Inertia/branch_indesit/PlatformLibrary/LIB_Feedbacks\Feedbacks.c ****     {
 200:C:/Workspace/FW_Inertia/branch_indesit/PlatformLibrary/LIB_Feedbacks\Feedbacks.c ****         SAFETY_DATA_ELEM_UPDATE( Feedback, i );
 201:C:/Workspace/FW_Inertia/branch_indesit/PlatformLibrary/LIB_Feedbacks\Feedbacks.c ****         SAFETY_DATA_ELEM_UPDATE( FeedbackStatus,i);
 202:C:/Workspace/FW_Inertia/branch_indesit/PlatformLibrary/LIB_Feedbacks\Feedbacks.c ****         SAFETY_DATA_ELEM_UPDATE( FeedbackDescriptor, i);
 203:C:/Workspace/FW_Inertia/branch_indesit/PlatformLibrary/LIB_Feedbacks\Feedbacks.c ****     }
 204:C:/Workspace/FW_Inertia/branch_indesit/PlatformLibrary/LIB_Feedbacks\Feedbacks.c ****     SAFETY_DATA_UPDATE( FeedbackInputDisable );
 205:C:/Workspace/FW_Inertia/branch_indesit/PlatformLibrary/LIB_Feedbacks\Feedbacks.c ****     SAFETY_REGION_END();
 206:C:/Workspace/FW_Inertia/branch_indesit/PlatformLibrary/LIB_Feedbacks\Feedbacks.c **** }
 207:C:/Workspace/FW_Inertia/branch_indesit/PlatformLibrary/LIB_Feedbacks\Feedbacks.c **** 
 208:C:/Workspace/FW_Inertia/branch_indesit/PlatformLibrary/LIB_Feedbacks\Feedbacks.c **** /**
 209:C:/Workspace/FW_Inertia/branch_indesit/PlatformLibrary/LIB_Feedbacks\Feedbacks.c **** LIB_FDB_GetFeedbackVal
 210:C:/Workspace/FW_Inertia/branch_indesit/PlatformLibrary/LIB_Feedbacks\Feedbacks.c **** This function returns feedback's value on the position "pos"
 211:C:/Workspace/FW_Inertia/branch_indesit/PlatformLibrary/LIB_Feedbacks\Feedbacks.c **** 
 212:C:/Workspace/FW_Inertia/branch_indesit/PlatformLibrary/LIB_Feedbacks\Feedbacks.c **** \param  [in]    pos feedback's position, the position is that of setting's file.
 213:C:/Workspace/FW_Inertia/branch_indesit/PlatformLibrary/LIB_Feedbacks\Feedbacks.c **** 
 214:C:/Workspace/FW_Inertia/branch_indesit/PlatformLibrary/LIB_Feedbacks\Feedbacks.c **** \return     uint8_t
 215:C:/Workspace/FW_Inertia/branch_indesit/PlatformLibrary/LIB_Feedbacks\Feedbacks.c **** 
 216:C:/Workspace/FW_Inertia/branch_indesit/PlatformLibrary/LIB_Feedbacks\Feedbacks.c **** \retval     FDB_INPUT_LOW
 217:C:/Workspace/FW_Inertia/branch_indesit/PlatformLibrary/LIB_Feedbacks\Feedbacks.c **** \retval     FDB_INPUT_HI
 218:C:/Workspace/FW_Inertia/branch_indesit/PlatformLibrary/LIB_Feedbacks\Feedbacks.c **** \retval     FDB_INPUT_FREQ_OPP_PHASE
 219:C:/Workspace/FW_Inertia/branch_indesit/PlatformLibrary/LIB_Feedbacks\Feedbacks.c **** \retval     FDB_INPUT_FREQ_PHASE
 220:C:/Workspace/FW_Inertia/branch_indesit/PlatformLibrary/LIB_Feedbacks\Feedbacks.c **** 
 221:C:/Workspace/FW_Inertia/branch_indesit/PlatformLibrary/LIB_Feedbacks\Feedbacks.c **** \author 	Stefano Ughi
 222:C:/Workspace/FW_Inertia/branch_indesit/PlatformLibrary/LIB_Feedbacks\Feedbacks.c **** \date		Nov. 08, 2010
 223:C:/Workspace/FW_Inertia/branch_indesit/PlatformLibrary/LIB_Feedbacks\Feedbacks.c **** \version	1.0.0
 224:C:/Workspace/FW_Inertia/branch_indesit/PlatformLibrary/LIB_Feedbacks\Feedbacks.c **** 
 225:C:/Workspace/FW_Inertia/branch_indesit/PlatformLibrary/LIB_Feedbacks\Feedbacks.c **** */
 226:C:/Workspace/FW_Inertia/branch_indesit/PlatformLibrary/LIB_Feedbacks\Feedbacks.c **** uint8_t LIB_FDB_GetFeedbackVal(uint8_t pos)
 227:C:/Workspace/FW_Inertia/branch_indesit/PlatformLibrary/LIB_Feedbacks\Feedbacks.c **** {
 103                             		.loc 1 227 0
 104                             	.LVL6:
 228:C:/Workspace/FW_Inertia/branch_indesit/PlatformLibrary/LIB_Feedbacks\Feedbacks.c ****     return Feedback[pos];
 105                             		.loc 1 228 0
 106 0000 5B 11                   		movu.B	r1, r1
 107 0002 70 11 00 00 00 00       		add	#_Feedback, r1
 108                             	.LVL7:
 229:C:/Workspace/FW_Inertia/branch_indesit/PlatformLibrary/LIB_Feedbacks\Feedbacks.c **** }
 109                             		.loc 1 229 0
 110 0008 58 11                   		movu.B	[r1], r1
 111                             	.LVL8:
 112 000a 02                      		rts
 113                             	.LFE3:
 115                             		.section	.text.LIB_FDB_GetFeedbackInput,"ax",@progbits
 116                             		.global	_LIB_FDB_GetFeedbackInput
 118                             	_LIB_FDB_GetFeedbackInput:
 119                             	.LFB4:
 230:C:/Workspace/FW_Inertia/branch_indesit/PlatformLibrary/LIB_Feedbacks\Feedbacks.c **** 
 231:C:/Workspace/FW_Inertia/branch_indesit/PlatformLibrary/LIB_Feedbacks\Feedbacks.c **** /**
 232:C:/Workspace/FW_Inertia/branch_indesit/PlatformLibrary/LIB_Feedbacks\Feedbacks.c **** LIB_FDB_GetFeedbackInput
 233:C:/Workspace/FW_Inertia/branch_indesit/PlatformLibrary/LIB_Feedbacks\Feedbacks.c **** This function, fixed feedback's position, returns the value of the pin linked to the feedback.
 234:C:/Workspace/FW_Inertia/branch_indesit/PlatformLibrary/LIB_Feedbacks\Feedbacks.c **** 
 235:C:/Workspace/FW_Inertia/branch_indesit/PlatformLibrary/LIB_Feedbacks\Feedbacks.c **** \param  [in] pos feedback's position, the position is that of setting's file.
 236:C:/Workspace/FW_Inertia/branch_indesit/PlatformLibrary/LIB_Feedbacks\Feedbacks.c **** 
 237:C:/Workspace/FW_Inertia/branch_indesit/PlatformLibrary/LIB_Feedbacks\Feedbacks.c **** \return 	bool_t
 238:C:/Workspace/FW_Inertia/branch_indesit/PlatformLibrary/LIB_Feedbacks\Feedbacks.c **** 
 239:C:/Workspace/FW_Inertia/branch_indesit/PlatformLibrary/LIB_Feedbacks\Feedbacks.c **** \retval		TRUE pin is high
 240:C:/Workspace/FW_Inertia/branch_indesit/PlatformLibrary/LIB_Feedbacks\Feedbacks.c **** \retval     FALSE pin is low
 241:C:/Workspace/FW_Inertia/branch_indesit/PlatformLibrary/LIB_Feedbacks\Feedbacks.c **** 
 242:C:/Workspace/FW_Inertia/branch_indesit/PlatformLibrary/LIB_Feedbacks\Feedbacks.c **** \author 	Stefano Ughi
 243:C:/Workspace/FW_Inertia/branch_indesit/PlatformLibrary/LIB_Feedbacks\Feedbacks.c **** \date		Nov. 08, 2010
 244:C:/Workspace/FW_Inertia/branch_indesit/PlatformLibrary/LIB_Feedbacks\Feedbacks.c **** \version	1.0.0
 245:C:/Workspace/FW_Inertia/branch_indesit/PlatformLibrary/LIB_Feedbacks\Feedbacks.c **** 
 246:C:/Workspace/FW_Inertia/branch_indesit/PlatformLibrary/LIB_Feedbacks\Feedbacks.c **** */
 247:C:/Workspace/FW_Inertia/branch_indesit/PlatformLibrary/LIB_Feedbacks\Feedbacks.c **** bool_t LIB_FDB_GetFeedbackInput(uint8_t pos)
 248:C:/Workspace/FW_Inertia/branch_indesit/PlatformLibrary/LIB_Feedbacks\Feedbacks.c **** {
 120                             		.loc 1 248 0
 121                             	.LVL9:
 249:C:/Workspace/FW_Inertia/branch_indesit/PlatformLibrary/LIB_Feedbacks\Feedbacks.c ****     return LIB_DIO_GET_INPUT(FeedbackDescriptor[pos].s.pin);
 122                             		.loc 1 249 0
 123 0000 5B 11                   		movu.B	r1, r1
 124 0002 4B 11                   		add	r1, r1
 125                             	.LVL10:
 126 0004 70 11 00 00 00 00       		add	#_FeedbackDescriptor, r1
 127 000a 5C 11                   		movu.W	[r1], r1
 128 000c 68 11                   		shlr	#1, r1
 129 000e 75 21 3F                		and #63, r1
 130 0011 04 00 00 00             		bra	_LIB_DIO_GET_INPUT
 131                             	.LVL11:
 132                             	.LFE4:
 134                             		.section	.text.LIB_FDB_IsFeedbackReady,"ax",@progbits
 135                             		.global	_LIB_FDB_IsFeedbackReady
 137                             	_LIB_FDB_IsFeedbackReady:
 138                             	.LFB5:
 250:C:/Workspace/FW_Inertia/branch_indesit/PlatformLibrary/LIB_Feedbacks\Feedbacks.c **** }
 251:C:/Workspace/FW_Inertia/branch_indesit/PlatformLibrary/LIB_Feedbacks\Feedbacks.c **** 
 252:C:/Workspace/FW_Inertia/branch_indesit/PlatformLibrary/LIB_Feedbacks\Feedbacks.c **** /**
 253:C:/Workspace/FW_Inertia/branch_indesit/PlatformLibrary/LIB_Feedbacks\Feedbacks.c ****  * LIB_FDB_IsFeedbackReady
 254:C:/Workspace/FW_Inertia/branch_indesit/PlatformLibrary/LIB_Feedbacks\Feedbacks.c **** This function returns TRUE if feedback in position "pos" was acquired at least once.
 255:C:/Workspace/FW_Inertia/branch_indesit/PlatformLibrary/LIB_Feedbacks\Feedbacks.c **** 
 256:C:/Workspace/FW_Inertia/branch_indesit/PlatformLibrary/LIB_Feedbacks\Feedbacks.c **** \param  [in]    pos feedback's position, the position is that of setting's file.
 257:C:/Workspace/FW_Inertia/branch_indesit/PlatformLibrary/LIB_Feedbacks\Feedbacks.c **** 
 258:C:/Workspace/FW_Inertia/branch_indesit/PlatformLibrary/LIB_Feedbacks\Feedbacks.c **** \return 	bool_t
 259:C:/Workspace/FW_Inertia/branch_indesit/PlatformLibrary/LIB_Feedbacks\Feedbacks.c **** 
 260:C:/Workspace/FW_Inertia/branch_indesit/PlatformLibrary/LIB_Feedbacks\Feedbacks.c **** \retval		TRUE   feedback in position "pos" was acquired at least once
 261:C:/Workspace/FW_Inertia/branch_indesit/PlatformLibrary/LIB_Feedbacks\Feedbacks.c **** \retval		FALSE  feedback in position "pos" was not acquired at least once
 262:C:/Workspace/FW_Inertia/branch_indesit/PlatformLibrary/LIB_Feedbacks\Feedbacks.c **** 
 263:C:/Workspace/FW_Inertia/branch_indesit/PlatformLibrary/LIB_Feedbacks\Feedbacks.c **** */
 264:C:/Workspace/FW_Inertia/branch_indesit/PlatformLibrary/LIB_Feedbacks\Feedbacks.c **** bool_t LIB_FDB_IsFeedbackReady(uint8_t pos)
 265:C:/Workspace/FW_Inertia/branch_indesit/PlatformLibrary/LIB_Feedbacks\Feedbacks.c **** {
 139                             		.loc 1 265 0
 140                             	.LVL12:
 266:C:/Workspace/FW_Inertia/branch_indesit/PlatformLibrary/LIB_Feedbacks\Feedbacks.c ****     return (bool_t)FeedbackStatus[pos].ready;
 141                             		.loc 1 266 0
 142 0000 5B 11                   		movu.B	r1, r1
 143 0002 FD C3 1E                		shll	#3, r1, r14
 144 0005 70 EE 00 00 00 00       		add	#_FeedbackStatus, r14
 145 000b ED E1 01                		mov.L	4[r14], r1
 146                             	.LVL13:
 267:C:/Workspace/FW_Inertia/branch_indesit/PlatformLibrary/LIB_Feedbacks\Feedbacks.c **** }
 147                             		.loc 1 267 0
 148 000e 69 F1                   		shlr	#31, r1
 149 0010 02                      		rts
 150                             	.LFE5:
 152                             		.section	.text.LIB_FDB_RegisterFeedback,"ax",@progbits
 153                             		.global	_LIB_FDB_RegisterFeedback
 155                             	_LIB_FDB_RegisterFeedback:
 156                             	.LFB6:
 268:C:/Workspace/FW_Inertia/branch_indesit/PlatformLibrary/LIB_Feedbacks\Feedbacks.c **** 
 269:C:/Workspace/FW_Inertia/branch_indesit/PlatformLibrary/LIB_Feedbacks\Feedbacks.c **** /**
 270:C:/Workspace/FW_Inertia/branch_indesit/PlatformLibrary/LIB_Feedbacks\Feedbacks.c ****  * LIB_FDB_RegisterFeedback
 271:C:/Workspace/FW_Inertia/branch_indesit/PlatformLibrary/LIB_Feedbacks\Feedbacks.c **** \n Setup of a single feedback channel.
 272:C:/Workspace/FW_Inertia/branch_indesit/PlatformLibrary/LIB_Feedbacks\Feedbacks.c **** \n This function is called inside LIB_IOM_InputInitialization()  at cold reset.
 273:C:/Workspace/FW_Inertia/branch_indesit/PlatformLibrary/LIB_Feedbacks\Feedbacks.c **** 
 274:C:/Workspace/FW_Inertia/branch_indesit/PlatformLibrary/LIB_Feedbacks\Feedbacks.c **** \attention \b FeedbackDescriptor[] (global) used W
 275:C:/Workspace/FW_Inertia/branch_indesit/PlatformLibrary/LIB_Feedbacks\Feedbacks.c **** 
 276:C:/Workspace/FW_Inertia/branch_indesit/PlatformLibrary/LIB_Feedbacks\Feedbacks.c **** \param  [in]	pos Ram Position Conversion Result vs vector Feedback[]
 277:C:/Workspace/FW_Inertia/branch_indesit/PlatformLibrary/LIB_Feedbacks\Feedbacks.c **** \param  [in]	pin pin of the linkage module minus 1 linked to the feedback
 278:C:/Workspace/FW_Inertia/branch_indesit/PlatformLibrary/LIB_Feedbacks\Feedbacks.c **** \param  [in]	readtype '0' -> direct feedback \n
 279:C:/Workspace/FW_Inertia/branch_indesit/PlatformLibrary/LIB_Feedbacks\Feedbacks.c **** 						 '!0' -> multiplexed feedback
 280:C:/Workspace/FW_Inertia/branch_indesit/PlatformLibrary/LIB_Feedbacks\Feedbacks.c **** \param  [in]	pConfigData pointer to the description feedback area
 281:C:/Workspace/FW_Inertia/branch_indesit/PlatformLibrary/LIB_Feedbacks\Feedbacks.c **** 
 282:C:/Workspace/FW_Inertia/branch_indesit/PlatformLibrary/LIB_Feedbacks\Feedbacks.c **** 
 283:C:/Workspace/FW_Inertia/branch_indesit/PlatformLibrary/LIB_Feedbacks\Feedbacks.c **** \author 	stefano.ughi
 284:C:/Workspace/FW_Inertia/branch_indesit/PlatformLibrary/LIB_Feedbacks\Feedbacks.c **** \date		Nov 05, 2010
 285:C:/Workspace/FW_Inertia/branch_indesit/PlatformLibrary/LIB_Feedbacks\Feedbacks.c **** \version	1.0.0
 286:C:/Workspace/FW_Inertia/branch_indesit/PlatformLibrary/LIB_Feedbacks\Feedbacks.c **** 
 287:C:/Workspace/FW_Inertia/branch_indesit/PlatformLibrary/LIB_Feedbacks\Feedbacks.c **** \note		\par \b Note 1:
 288:C:/Workspace/FW_Inertia/branch_indesit/PlatformLibrary/LIB_Feedbacks\Feedbacks.c **** 			documentation by stefano.ughi
 289:C:/Workspace/FW_Inertia/branch_indesit/PlatformLibrary/LIB_Feedbacks\Feedbacks.c **** 			\par \b Note 2:
 290:C:/Workspace/FW_Inertia/branch_indesit/PlatformLibrary/LIB_Feedbacks\Feedbacks.c **** 			if feedack is not multiplexed actvsense and pullupEn are set in LIB_IOM_InputInitialization()
 291:C:/Workspace/FW_Inertia/branch_indesit/PlatformLibrary/LIB_Feedbacks\Feedbacks.c **** */
 292:C:/Workspace/FW_Inertia/branch_indesit/PlatformLibrary/LIB_Feedbacks\Feedbacks.c **** void LIB_FDB_RegisterFeedback( uint8_t pos, uint8_t pin, uint8_t readtype, const uint8_t *const pCo
 293:C:/Workspace/FW_Inertia/branch_indesit/PlatformLibrary/LIB_Feedbacks\Feedbacks.c **** {
 157                             		.loc 1 293 0
 158                             	.LVL14:
 294:C:/Workspace/FW_Inertia/branch_indesit/PlatformLibrary/LIB_Feedbacks\Feedbacks.c ****     FDB_descriptorType *pFeedbackpin;
 295:C:/Workspace/FW_Inertia/branch_indesit/PlatformLibrary/LIB_Feedbacks\Feedbacks.c **** 
 296:C:/Workspace/FW_Inertia/branch_indesit/PlatformLibrary/LIB_Feedbacks\Feedbacks.c ****     if ( pos < N_FEEDBACK )
 159                             		.loc 1 296 0
 160 0000 5B 11                   		movu.B	r1, r1
 161 0002 61 71                   		cmp	#7, r1
 162 0004 24 33                   		bgtu	.L19
 297:C:/Workspace/FW_Inertia/branch_indesit/PlatformLibrary/LIB_Feedbacks\Feedbacks.c ****     {
 298:C:/Workspace/FW_Inertia/branch_indesit/PlatformLibrary/LIB_Feedbacks\Feedbacks.c ****         SAFETY_REGION_START();
 299:C:/Workspace/FW_Inertia/branch_indesit/PlatformLibrary/LIB_Feedbacks\Feedbacks.c ****         SAFETY_DATA_ELEM_CHECK( FeedbackDescriptor, pos);
 300:C:/Workspace/FW_Inertia/branch_indesit/PlatformLibrary/LIB_Feedbacks\Feedbacks.c **** 
 301:C:/Workspace/FW_Inertia/branch_indesit/PlatformLibrary/LIB_Feedbacks\Feedbacks.c ****         pFeedbackpin = &FeedbackDescriptor[pos];
 163                             		.loc 1 301 0
 164 0006 4B 11                   		add	r1, r1
 165                             	.LVL15:
 166 0008 70 1E 00 00 00 00       		add	#_FeedbackDescriptor, r1, r14
 167                             	.LVL16:
 302:C:/Workspace/FW_Inertia/branch_indesit/PlatformLibrary/LIB_Feedbacks\Feedbacks.c ****         /* multiplexed feedback or direct ?  */
 303:C:/Workspace/FW_Inertia/branch_indesit/PlatformLibrary/LIB_Feedbacks\Feedbacks.c ****         pFeedbackpin->s.readtype = readtype;
 168                             		.loc 1 303 0
 169 000e DC E1                   		mov.W	[r14], r1
 170 0010 FD 74 C3 01             		tst	#1, r3
 171 0014 FD EE 11                		bmne	#14, r1
 304:C:/Workspace/FW_Inertia/branch_indesit/PlatformLibrary/LIB_Feedbacks\Feedbacks.c ****         pFeedbackpin->s.pin = pin;
 172                             		.loc 1 304 0
 173 0017 EF 23                   		mov.L	r2, r3
 174                             	.LVL17:
 175 0019 75 23 3F                		and #63, r3
 176 001c 4B 33                   		add	r3, r3
 177 001e 75 21 81                		and #0xffffff81, r1
 178 0021 57 13                   		or	r1, r3
 179 0023 D3 E3                   		mov.W	r3, [r14]
 305:C:/Workspace/FW_Inertia/branch_indesit/PlatformLibrary/LIB_Feedbacks\Feedbacks.c ****         /* feedback linked to partializated load ? */
 306:C:/Workspace/FW_Inertia/branch_indesit/PlatformLibrary/LIB_Feedbacks\Feedbacks.c ****         pFeedbackpin->s.loadP = ((feedbackLLIparams_t*)pConfigData)->bit.partialized;
 180                             		.loc 1 306 0
 181 0025 5C 42                   		movu.W	[r4], r2
 182                             	.LVL18:
 183 0027 68 62                   		shlr	#6, r2
 184 0029 DF 34                   		mov.W	r3, r4
 185                             	.LVL19:
 186 002b FD 74 C2 01             		tst	#1, r2
 187 002f FD E7 14                		bmne	#7, r4
 307:C:/Workspace/FW_Inertia/branch_indesit/PlatformLibrary/LIB_Feedbacks\Feedbacks.c **** 
 308:C:/Workspace/FW_Inertia/branch_indesit/PlatformLibrary/LIB_Feedbacks\Feedbacks.c **** #if defined __MULTI_H
 309:C:/Workspace/FW_Inertia/branch_indesit/PlatformLibrary/LIB_Feedbacks\Feedbacks.c ****         /* multiplexer's configuration for feedback's reading */
 310:C:/Workspace/FW_Inertia/branch_indesit/PlatformLibrary/LIB_Feedbacks\Feedbacks.c ****         pFeedbackpin->s.chsel = ((feedbackMpxLLIparams_t*)pConfigData)->bit.mpxCfg;
 311:C:/Workspace/FW_Inertia/branch_indesit/PlatformLibrary/LIB_Feedbacks\Feedbacks.c ****         /* inversion of reading ? */
 312:C:/Workspace/FW_Inertia/branch_indesit/PlatformLibrary/LIB_Feedbacks\Feedbacks.c ****         pFeedbackpin->s.actvsense = ((feedbackMpxLLIparams_t*)pConfigData)->bit.inverted;
 313:C:/Workspace/FW_Inertia/branch_indesit/PlatformLibrary/LIB_Feedbacks\Feedbacks.c ****         /* pull-up ? */
 314:C:/Workspace/FW_Inertia/branch_indesit/PlatformLibrary/LIB_Feedbacks\Feedbacks.c ****         pFeedbackpin->s.pullupEn = ((feedbackMpxLLIparams_t*)pConfigData)->bit.pullUp;
 315:C:/Workspace/FW_Inertia/branch_indesit/PlatformLibrary/LIB_Feedbacks\Feedbacks.c **** #endif  /* #if defined __MULTI_H */
 316:C:/Workspace/FW_Inertia/branch_indesit/PlatformLibrary/LIB_Feedbacks\Feedbacks.c **** 
 317:C:/Workspace/FW_Inertia/branch_indesit/PlatformLibrary/LIB_Feedbacks\Feedbacks.c ****         /* Feedback's reading always active */
 318:C:/Workspace/FW_Inertia/branch_indesit/PlatformLibrary/LIB_Feedbacks\Feedbacks.c ****         pFeedbackpin->s.active = 1;
 188                             		.loc 1 318 0
 189 0032 78 F4                   		bset	#15, r4
 190 0034 D3 E4                   		mov.W	r4, [r14]
 191 0036 02                      		rts
 192                             	.LVL20:
 193                             	.L19:
 319:C:/Workspace/FW_Inertia/branch_indesit/PlatformLibrary/LIB_Feedbacks\Feedbacks.c **** 
 320:C:/Workspace/FW_Inertia/branch_indesit/PlatformLibrary/LIB_Feedbacks\Feedbacks.c ****         SAFETY_DATA_ELEM_UPDATE( FeedbackDescriptor, pos);
 321:C:/Workspace/FW_Inertia/branch_indesit/PlatformLibrary/LIB_Feedbacks\Feedbacks.c ****         SAFETY_REGION_END();
 322:C:/Workspace/FW_Inertia/branch_indesit/PlatformLibrary/LIB_Feedbacks\Feedbacks.c ****     }
 323:C:/Workspace/FW_Inertia/branch_indesit/PlatformLibrary/LIB_Feedbacks\Feedbacks.c ****     else
 324:C:/Workspace/FW_Inertia/branch_indesit/PlatformLibrary/LIB_Feedbacks\Feedbacks.c ****     {
 325:C:/Workspace/FW_Inertia/branch_indesit/PlatformLibrary/LIB_Feedbacks\Feedbacks.c ****         PLT_ERROR_FATAL(PLT_ERROR_FEEDBACK_1);
 194                             		.loc 1 325 0
 195 0037 66 71                   		mov.L	#7, r1
 196 0039 04 00 00 00             		bra	_LIB_Error_Fatal_Handler
 197                             	.LVL21:
 198                             	.LFE6:
 200                             		.section	.text.LIB_FDB_Manager,"ax",@progbits
 201                             		.global	_LIB_FDB_Manager
 203                             	_LIB_FDB_Manager:
 204                             	.LFB7:
 326:C:/Workspace/FW_Inertia/branch_indesit/PlatformLibrary/LIB_Feedbacks\Feedbacks.c ****     }
 327:C:/Workspace/FW_Inertia/branch_indesit/PlatformLibrary/LIB_Feedbacks\Feedbacks.c **** }
 328:C:/Workspace/FW_Inertia/branch_indesit/PlatformLibrary/LIB_Feedbacks\Feedbacks.c **** 
 329:C:/Workspace/FW_Inertia/branch_indesit/PlatformLibrary/LIB_Feedbacks\Feedbacks.c **** /**
 330:C:/Workspace/FW_Inertia/branch_indesit/PlatformLibrary/LIB_Feedbacks\Feedbacks.c **** LIB_FDB_Manager
 331:C:/Workspace/FW_Inertia/branch_indesit/PlatformLibrary/LIB_Feedbacks\Feedbacks.c **** \n Feedbacks's Manager.
 332:C:/Workspace/FW_Inertia/branch_indesit/PlatformLibrary/LIB_Feedbacks\Feedbacks.c **** \n This function performs feedbacks's acquisition.
 333:C:/Workspace/FW_Inertia/branch_indesit/PlatformLibrary/LIB_Feedbacks\Feedbacks.c **** \n The output of the function is Feedback[], possibles value for Feedback[] are:
 334:C:/Workspace/FW_Inertia/branch_indesit/PlatformLibrary/LIB_Feedbacks\Feedbacks.c **** \n \li FDB_INPUT_LOW
 335:C:/Workspace/FW_Inertia/branch_indesit/PlatformLibrary/LIB_Feedbacks\Feedbacks.c **** \n \li FDB_INPUT_HI
 336:C:/Workspace/FW_Inertia/branch_indesit/PlatformLibrary/LIB_Feedbacks\Feedbacks.c **** \n \li FDB_INPUT_FREQ_OPP_PHASE
 337:C:/Workspace/FW_Inertia/branch_indesit/PlatformLibrary/LIB_Feedbacks\Feedbacks.c **** \n \li FDB_INPUT_FREQ_PHASE
 338:C:/Workspace/FW_Inertia/branch_indesit/PlatformLibrary/LIB_Feedbacks\Feedbacks.c **** 
 339:C:/Workspace/FW_Inertia/branch_indesit/PlatformLibrary/LIB_Feedbacks\Feedbacks.c **** \param  [in]    loadType    if '0' read feedbacks linked to partialized loads \n
 340:C:/Workspace/FW_Inertia/branch_indesit/PlatformLibrary/LIB_Feedbacks\Feedbacks.c **** 			                if '1' read feedbacks linked to non partialized loads.
 341:C:/Workspace/FW_Inertia/branch_indesit/PlatformLibrary/LIB_Feedbacks\Feedbacks.c **** \param  [in]	zcIsAvailable   if '0' zero crossing voltage not available \n
 342:C:/Workspace/FW_Inertia/branch_indesit/PlatformLibrary/LIB_Feedbacks\Feedbacks.c ****                                 if '1' zero crossing voltage available
 343:C:/Workspace/FW_Inertia/branch_indesit/PlatformLibrary/LIB_Feedbacks\Feedbacks.c **** 
 344:C:/Workspace/FW_Inertia/branch_indesit/PlatformLibrary/LIB_Feedbacks\Feedbacks.c **** \n Below the scheme of feedback's update
 345:C:/Workspace/FW_Inertia/branch_indesit/PlatformLibrary/LIB_Feedbacks\Feedbacks.c **** \n <b>
 346:C:/Workspace/FW_Inertia/branch_indesit/PlatformLibrary/LIB_Feedbacks\Feedbacks.c **** \n \li case zcIsAvailable=FALSE
 347:C:/Workspace/FW_Inertia/branch_indesit/PlatformLibrary/LIB_Feedbacks\Feedbacks.c **** \n
 348:C:/Workspace/FW_Inertia/branch_indesit/PlatformLibrary/LIB_Feedbacks\Feedbacks.c **** \n -FeedbackVal[i]:
 349:C:/Workspace/FW_Inertia/branch_indesit/PlatformLibrary/LIB_Feedbacks\Feedbacks.c **** \n
 350:C:/Workspace/FW_Inertia/branch_indesit/PlatformLibrary/LIB_Feedbacks\Feedbacks.c **** \n       low
 351:C:/Workspace/FW_Inertia/branch_indesit/PlatformLibrary/LIB_Feedbacks\Feedbacks.c **** \n -------------|    (-FDB_NO_ZC_LIMIT_FOR_LEVEL)
 352:C:/Workspace/FW_Inertia/branch_indesit/PlatformLibrary/LIB_Feedbacks\Feedbacks.c **** \n        no decision
 353:C:/Workspace/FW_Inertia/branch_indesit/PlatformLibrary/LIB_Feedbacks\Feedbacks.c **** \n |-----------------------| (-FDB_NO_ZC_LIMIT_FOR_FREQ)
 354:C:/Workspace/FW_Inertia/branch_indesit/PlatformLibrary/LIB_Feedbacks\Feedbacks.c **** \n           freq
 355:C:/Workspace/FW_Inertia/branch_indesit/PlatformLibrary/LIB_Feedbacks\Feedbacks.c **** \n |-----------------|  0
 356:C:/Workspace/FW_Inertia/branch_indesit/PlatformLibrary/LIB_Feedbacks\Feedbacks.c **** \n           freq
 357:C:/Workspace/FW_Inertia/branch_indesit/PlatformLibrary/LIB_Feedbacks\Feedbacks.c **** \n |-----------------------| (+FDB_NO_ZC_LIMIT_FOR_FREQ)
 358:C:/Workspace/FW_Inertia/branch_indesit/PlatformLibrary/LIB_Feedbacks\Feedbacks.c **** \n           no decision
 359:C:/Workspace/FW_Inertia/branch_indesit/PlatformLibrary/LIB_Feedbacks\Feedbacks.c **** \n |------------|    (FDB_NO_ZC_LIMIT_FOR_LEVEL)
 360:C:/Workspace/FW_Inertia/branch_indesit/PlatformLibrary/LIB_Feedbacks\Feedbacks.c **** \n            high
 361:C:/Workspace/FW_Inertia/branch_indesit/PlatformLibrary/LIB_Feedbacks\Feedbacks.c **** \n |---------------
 362:C:/Workspace/FW_Inertia/branch_indesit/PlatformLibrary/LIB_Feedbacks\Feedbacks.c **** \n
 363:C:/Workspace/FW_Inertia/branch_indesit/PlatformLibrary/LIB_Feedbacks\Feedbacks.c **** \n however with signals whose properties is not known acquisition might lead to indeterminate state
 364:C:/Workspace/FW_Inertia/branch_indesit/PlatformLibrary/LIB_Feedbacks\Feedbacks.c **** \n To avoid indeterminate state FDB_NO_ZC_LIMIT_FOR_FREQ could be set @ a value greater than FEEDBA
 365:C:/Workspace/FW_Inertia/branch_indesit/PlatformLibrary/LIB_Feedbacks\Feedbacks.c **** \n in this way
 366:C:/Workspace/FW_Inertia/branch_indesit/PlatformLibrary/LIB_Feedbacks\Feedbacks.c **** \n       low
 367:C:/Workspace/FW_Inertia/branch_indesit/PlatformLibrary/LIB_Feedbacks\Feedbacks.c **** \n -------------|    (-FDB_NO_ZC_LIMIT_FOR_LEVEL)
 368:C:/Workspace/FW_Inertia/branch_indesit/PlatformLibrary/LIB_Feedbacks\Feedbacks.c **** \n           freq
 369:C:/Workspace/FW_Inertia/branch_indesit/PlatformLibrary/LIB_Feedbacks\Feedbacks.c **** \n |-----------------|  0
 370:C:/Workspace/FW_Inertia/branch_indesit/PlatformLibrary/LIB_Feedbacks\Feedbacks.c **** \n           freq
 371:C:/Workspace/FW_Inertia/branch_indesit/PlatformLibrary/LIB_Feedbacks\Feedbacks.c **** \n |------------|    (FDB_NO_ZC_LIMIT_FOR_LEVEL)
 372:C:/Workspace/FW_Inertia/branch_indesit/PlatformLibrary/LIB_Feedbacks\Feedbacks.c **** \n            high
 373:C:/Workspace/FW_Inertia/branch_indesit/PlatformLibrary/LIB_Feedbacks\Feedbacks.c **** \n |---------------
 374:C:/Workspace/FW_Inertia/branch_indesit/PlatformLibrary/LIB_Feedbacks\Feedbacks.c **** \n
 375:C:/Workspace/FW_Inertia/branch_indesit/PlatformLibrary/LIB_Feedbacks\Feedbacks.c **** \n \li case zcIsAvailable=TRUE
 376:C:/Workspace/FW_Inertia/branch_indesit/PlatformLibrary/LIB_Feedbacks\Feedbacks.c **** \n
 377:C:/Workspace/FW_Inertia/branch_indesit/PlatformLibrary/LIB_Feedbacks\Feedbacks.c **** \n -FeedbackZCmatch[i]:
 378:C:/Workspace/FW_Inertia/branch_indesit/PlatformLibrary/LIB_Feedbacks\Feedbacks.c **** \n
 379:C:/Workspace/FW_Inertia/branch_indesit/PlatformLibrary/LIB_Feedbacks\Feedbacks.c **** \n   freq not in phase
 380:C:/Workspace/FW_Inertia/branch_indesit/PlatformLibrary/LIB_Feedbacks\Feedbacks.c **** \n ---------------------|  (-FDB_ZC_LIMIT_FOR_FREQ)
 381:C:/Workspace/FW_Inertia/branch_indesit/PlatformLibrary/LIB_Feedbacks\Feedbacks.c **** \n     no decision
 382:C:/Workspace/FW_Inertia/branch_indesit/PlatformLibrary/LIB_Feedbacks\Feedbacks.c **** \n |----------------|  0
 383:C:/Workspace/FW_Inertia/branch_indesit/PlatformLibrary/LIB_Feedbacks\Feedbacks.c **** \n       no decision
 384:C:/Workspace/FW_Inertia/branch_indesit/PlatformLibrary/LIB_Feedbacks\Feedbacks.c **** \n |--------------------|  (FDB_ZC_LIMIT_FOR_FREQ)
 385:C:/Workspace/FW_Inertia/branch_indesit/PlatformLibrary/LIB_Feedbacks\Feedbacks.c **** \n      freq in phase
 386:C:/Workspace/FW_Inertia/branch_indesit/PlatformLibrary/LIB_Feedbacks\Feedbacks.c **** \n |---------------------
 387:C:/Workspace/FW_Inertia/branch_indesit/PlatformLibrary/LIB_Feedbacks\Feedbacks.c **** \n
 388:C:/Workspace/FW_Inertia/branch_indesit/PlatformLibrary/LIB_Feedbacks\Feedbacks.c **** \n
 389:C:/Workspace/FW_Inertia/branch_indesit/PlatformLibrary/LIB_Feedbacks\Feedbacks.c **** \n
 390:C:/Workspace/FW_Inertia/branch_indesit/PlatformLibrary/LIB_Feedbacks\Feedbacks.c **** \n -FeedbackVal[i]:
 391:C:/Workspace/FW_Inertia/branch_indesit/PlatformLibrary/LIB_Feedbacks\Feedbacks.c **** \n
 392:C:/Workspace/FW_Inertia/branch_indesit/PlatformLibrary/LIB_Feedbacks\Feedbacks.c **** \n         low
 393:C:/Workspace/FW_Inertia/branch_indesit/PlatformLibrary/LIB_Feedbacks\Feedbacks.c **** \n -------------------------|  (-FDB_ZC_LIMIT_FOR_LEVEL)
 394:C:/Workspace/FW_Inertia/branch_indesit/PlatformLibrary/LIB_Feedbacks\Feedbacks.c **** \n      no decision
 395:C:/Workspace/FW_Inertia/branch_indesit/PlatformLibrary/LIB_Feedbacks\Feedbacks.c **** \n |--------------------|  0
 396:C:/Workspace/FW_Inertia/branch_indesit/PlatformLibrary/LIB_Feedbacks\Feedbacks.c **** \n      no decision
 397:C:/Workspace/FW_Inertia/branch_indesit/PlatformLibrary/LIB_Feedbacks\Feedbacks.c **** \n |-------------------------|  (+FDB_ZC_LIMIT_FOR_LEVEL)
 398:C:/Workspace/FW_Inertia/branch_indesit/PlatformLibrary/LIB_Feedbacks\Feedbacks.c **** \n       high
 399:C:/Workspace/FW_Inertia/branch_indesit/PlatformLibrary/LIB_Feedbacks\Feedbacks.c **** \n |-------------------------
 400:C:/Workspace/FW_Inertia/branch_indesit/PlatformLibrary/LIB_Feedbacks\Feedbacks.c **** \n
 401:C:/Workspace/FW_Inertia/branch_indesit/PlatformLibrary/LIB_Feedbacks\Feedbacks.c **** \n
 402:C:/Workspace/FW_Inertia/branch_indesit/PlatformLibrary/LIB_Feedbacks\Feedbacks.c **** \n </b>
 403:C:/Workspace/FW_Inertia/branch_indesit/PlatformLibrary/LIB_Feedbacks\Feedbacks.c **** 
 404:C:/Workspace/FW_Inertia/branch_indesit/PlatformLibrary/LIB_Feedbacks\Feedbacks.c **** \author 	Stefano Ughi
 405:C:/Workspace/FW_Inertia/branch_indesit/PlatformLibrary/LIB_Feedbacks\Feedbacks.c **** \date		Nov. 08, 2010
 406:C:/Workspace/FW_Inertia/branch_indesit/PlatformLibrary/LIB_Feedbacks\Feedbacks.c **** \version	1.0.0
 407:C:/Workspace/FW_Inertia/branch_indesit/PlatformLibrary/LIB_Feedbacks\Feedbacks.c **** 
 408:C:/Workspace/FW_Inertia/branch_indesit/PlatformLibrary/LIB_Feedbacks\Feedbacks.c **** \note		\par \b Note 1:
 409:C:/Workspace/FW_Inertia/branch_indesit/PlatformLibrary/LIB_Feedbacks\Feedbacks.c **** 			documentation by Stefano Ughi
 410:C:/Workspace/FW_Inertia/branch_indesit/PlatformLibrary/LIB_Feedbacks\Feedbacks.c **** 
 411:C:/Workspace/FW_Inertia/branch_indesit/PlatformLibrary/LIB_Feedbacks\Feedbacks.c **** */
 412:C:/Workspace/FW_Inertia/branch_indesit/PlatformLibrary/LIB_Feedbacks\Feedbacks.c **** void LIB_FDB_Manager(bool_t loadType, bool_t zcIsAvailable)
 413:C:/Workspace/FW_Inertia/branch_indesit/PlatformLibrary/LIB_Feedbacks\Feedbacks.c **** {
 205                             		.loc 1 413 0
 206                             	.LVL22:
 207 0000 6E 6D                   		pushm	r6-r13
 208                             	.LCFI0:
 209 0002 EF 1B                   		mov.L	r1, r11
 210 0004 EF 28                   		mov.L	r2, r8
 211                             	.LVL23:
 212 0006 FB 72 00 00 00 00       		mov.L	#_FeedbackStatus, r7
 213                             		.loc 1 413 0
 214 000c 66 0A                   		mov.L	#0, r10
 414:C:/Workspace/FW_Inertia/branch_indesit/PlatformLibrary/LIB_Feedbacks\Feedbacks.c ****     feedbackBitfield_t feedbackMask;
 415:C:/Workspace/FW_Inertia/branch_indesit/PlatformLibrary/LIB_Feedbacks\Feedbacks.c ****     uint8_t i;
 416:C:/Workspace/FW_Inertia/branch_indesit/PlatformLibrary/LIB_Feedbacks\Feedbacks.c ****     uint8_t tmpFeedbackValue;
 417:C:/Workspace/FW_Inertia/branch_indesit/PlatformLibrary/LIB_Feedbacks\Feedbacks.c ****     bool_t pinval;
 418:C:/Workspace/FW_Inertia/branch_indesit/PlatformLibrary/LIB_Feedbacks\Feedbacks.c ****     bool_t zcSyncEdge;
 419:C:/Workspace/FW_Inertia/branch_indesit/PlatformLibrary/LIB_Feedbacks\Feedbacks.c **** #if defined(ZCV_CH_ID)
 420:C:/Workspace/FW_Inertia/branch_indesit/PlatformLibrary/LIB_Feedbacks\Feedbacks.c ****     ICU_EdgeModeType mode;
 421:C:/Workspace/FW_Inertia/branch_indesit/PlatformLibrary/LIB_Feedbacks\Feedbacks.c **** #endif
 422:C:/Workspace/FW_Inertia/branch_indesit/PlatformLibrary/LIB_Feedbacks\Feedbacks.c **** 
 423:C:/Workspace/FW_Inertia/branch_indesit/PlatformLibrary/LIB_Feedbacks\Feedbacks.c **** 
 424:C:/Workspace/FW_Inertia/branch_indesit/PlatformLibrary/LIB_Feedbacks\Feedbacks.c ****     for ( i = 0; i < N_FEEDBACK ; i++ )
 425:C:/Workspace/FW_Inertia/branch_indesit/PlatformLibrary/LIB_Feedbacks\Feedbacks.c ****     {
 426:C:/Workspace/FW_Inertia/branch_indesit/PlatformLibrary/LIB_Feedbacks\Feedbacks.c ****         /* SAFETY REGION START */
 427:C:/Workspace/FW_Inertia/branch_indesit/PlatformLibrary/LIB_Feedbacks\Feedbacks.c ****         /* check consistency FeedbackDescriptor, FeedbackStatus, Feedbacks
 428:C:/Workspace/FW_Inertia/branch_indesit/PlatformLibrary/LIB_Feedbacks\Feedbacks.c ****          *
 429:C:/Workspace/FW_Inertia/branch_indesit/PlatformLibrary/LIB_Feedbacks\Feedbacks.c ****          */
 430:C:/Workspace/FW_Inertia/branch_indesit/PlatformLibrary/LIB_Feedbacks\Feedbacks.c **** 
 431:C:/Workspace/FW_Inertia/branch_indesit/PlatformLibrary/LIB_Feedbacks\Feedbacks.c ****         SAFETY_REGION_START();
 432:C:/Workspace/FW_Inertia/branch_indesit/PlatformLibrary/LIB_Feedbacks\Feedbacks.c **** 
 433:C:/Workspace/FW_Inertia/branch_indesit/PlatformLibrary/LIB_Feedbacks\Feedbacks.c ****         SAFETY_DATA_ELEM_CHECK( Feedback, i);
 434:C:/Workspace/FW_Inertia/branch_indesit/PlatformLibrary/LIB_Feedbacks\Feedbacks.c ****         SAFETY_DATA_ELEM_CHECK( FeedbackStatus, i);
 435:C:/Workspace/FW_Inertia/branch_indesit/PlatformLibrary/LIB_Feedbacks\Feedbacks.c ****         SAFETY_DATA_ELEM_CHECK( FeedbackDescriptor, i);
 436:C:/Workspace/FW_Inertia/branch_indesit/PlatformLibrary/LIB_Feedbacks\Feedbacks.c ****         SAFETY_DATA_CHECK( FeedbackInputDisable );
 437:C:/Workspace/FW_Inertia/branch_indesit/PlatformLibrary/LIB_Feedbacks\Feedbacks.c **** 
 438:C:/Workspace/FW_Inertia/branch_indesit/PlatformLibrary/LIB_Feedbacks\Feedbacks.c ****         /* Check if the feedback is active and is of the loadType to read */
 439:C:/Workspace/FW_Inertia/branch_indesit/PlatformLibrary/LIB_Feedbacks\Feedbacks.c ****         if ( FeedbackDescriptor[i].s.active && (FeedbackDescriptor[i].s.loadP == loadType) )
 440:C:/Workspace/FW_Inertia/branch_indesit/PlatformLibrary/LIB_Feedbacks\Feedbacks.c ****         {
 441:C:/Workspace/FW_Inertia/branch_indesit/PlatformLibrary/LIB_Feedbacks\Feedbacks.c **** #ifdef __MULTI_H
 442:C:/Workspace/FW_Inertia/branch_indesit/PlatformLibrary/LIB_Feedbacks\Feedbacks.c ****         	bool_t activeSense;
 443:C:/Workspace/FW_Inertia/branch_indesit/PlatformLibrary/LIB_Feedbacks\Feedbacks.c **** 
 444:C:/Workspace/FW_Inertia/branch_indesit/PlatformLibrary/LIB_Feedbacks\Feedbacks.c ****             if (FeedbackDescriptor[i].s.readtype)
 445:C:/Workspace/FW_Inertia/branch_indesit/PlatformLibrary/LIB_Feedbacks\Feedbacks.c ****             {
 446:C:/Workspace/FW_Inertia/branch_indesit/PlatformLibrary/LIB_Feedbacks\Feedbacks.c ****                 /* This is a Multiplexed Feedback */
 447:C:/Workspace/FW_Inertia/branch_indesit/PlatformLibrary/LIB_Feedbacks\Feedbacks.c **** 
 448:C:/Workspace/FW_Inertia/branch_indesit/PlatformLibrary/LIB_Feedbacks\Feedbacks.c ****                 if ( FeedbackDescriptor[i].s.pullupEn )
 449:C:/Workspace/FW_Inertia/branch_indesit/PlatformLibrary/LIB_Feedbacks\Feedbacks.c ****                 {
 450:C:/Workspace/FW_Inertia/branch_indesit/PlatformLibrary/LIB_Feedbacks\Feedbacks.c ****                     (void)OCDIO_SetPinPullUpSync(FeedbackDescriptor[i].s.pin);
 451:C:/Workspace/FW_Inertia/branch_indesit/PlatformLibrary/LIB_Feedbacks\Feedbacks.c ****                 }
 452:C:/Workspace/FW_Inertia/branch_indesit/PlatformLibrary/LIB_Feedbacks\Feedbacks.c ****                 else
 453:C:/Workspace/FW_Inertia/branch_indesit/PlatformLibrary/LIB_Feedbacks\Feedbacks.c ****                 {
 454:C:/Workspace/FW_Inertia/branch_indesit/PlatformLibrary/LIB_Feedbacks\Feedbacks.c ****                     (void)OCDIO_ResetPinPullUpSync(FeedbackDescriptor[i].s.pin);
 455:C:/Workspace/FW_Inertia/branch_indesit/PlatformLibrary/LIB_Feedbacks\Feedbacks.c ****                 }
 456:C:/Workspace/FW_Inertia/branch_indesit/PlatformLibrary/LIB_Feedbacks\Feedbacks.c ****                 activeSense = (bool_t)(FeedbackDescriptor[i].s.actvsense?1:0);
 457:C:/Workspace/FW_Inertia/branch_indesit/PlatformLibrary/LIB_Feedbacks\Feedbacks.c ****                 LIB_IOM_Set_IODir_ActiveSense(activeSense,FeedbackDescriptor[i].s.pin);
 458:C:/Workspace/FW_Inertia/branch_indesit/PlatformLibrary/LIB_Feedbacks\Feedbacks.c **** 
 459:C:/Workspace/FW_Inertia/branch_indesit/PlatformLibrary/LIB_Feedbacks\Feedbacks.c ****                 /* Select multiplexer's channel */
 460:C:/Workspace/FW_Inertia/branch_indesit/PlatformLibrary/LIB_Feedbacks\Feedbacks.c ****                 PM_setInMux(FeedbackDescriptor[i].s.chsel);
 461:C:/Workspace/FW_Inertia/branch_indesit/PlatformLibrary/LIB_Feedbacks\Feedbacks.c ****             }
 462:C:/Workspace/FW_Inertia/branch_indesit/PlatformLibrary/LIB_Feedbacks\Feedbacks.c **** 
 463:C:/Workspace/FW_Inertia/branch_indesit/PlatformLibrary/LIB_Feedbacks\Feedbacks.c **** #endif  /* #ifdef __MULTI_H */
 464:C:/Workspace/FW_Inertia/branch_indesit/PlatformLibrary/LIB_Feedbacks\Feedbacks.c **** 
 465:C:/Workspace/FW_Inertia/branch_indesit/PlatformLibrary/LIB_Feedbacks\Feedbacks.c ****             /* Get the Feedback value according with inversion bit */
 466:C:/Workspace/FW_Inertia/branch_indesit/PlatformLibrary/LIB_Feedbacks\Feedbacks.c ****             pinval = LIB_DIO_GET_INPUT( FeedbackDescriptor[i].s.pin );
 467:C:/Workspace/FW_Inertia/branch_indesit/PlatformLibrary/LIB_Feedbacks\Feedbacks.c **** 
 468:C:/Workspace/FW_Inertia/branch_indesit/PlatformLibrary/LIB_Feedbacks\Feedbacks.c ****             /* Count the values */
 469:C:/Workspace/FW_Inertia/branch_indesit/PlatformLibrary/LIB_Feedbacks\Feedbacks.c ****             if (pinval)
 470:C:/Workspace/FW_Inertia/branch_indesit/PlatformLibrary/LIB_Feedbacks\Feedbacks.c ****             {
 471:C:/Workspace/FW_Inertia/branch_indesit/PlatformLibrary/LIB_Feedbacks\Feedbacks.c ****                 FeedbackStatus[i].cntVal++;
 472:C:/Workspace/FW_Inertia/branch_indesit/PlatformLibrary/LIB_Feedbacks\Feedbacks.c ****             }
 473:C:/Workspace/FW_Inertia/branch_indesit/PlatformLibrary/LIB_Feedbacks\Feedbacks.c ****             else
 474:C:/Workspace/FW_Inertia/branch_indesit/PlatformLibrary/LIB_Feedbacks\Feedbacks.c ****             {
 475:C:/Workspace/FW_Inertia/branch_indesit/PlatformLibrary/LIB_Feedbacks\Feedbacks.c ****                 FeedbackStatus[i].cntVal--;
 476:C:/Workspace/FW_Inertia/branch_indesit/PlatformLibrary/LIB_Feedbacks\Feedbacks.c ****             }
 477:C:/Workspace/FW_Inertia/branch_indesit/PlatformLibrary/LIB_Feedbacks\Feedbacks.c **** 
 478:C:/Workspace/FW_Inertia/branch_indesit/PlatformLibrary/LIB_Feedbacks\Feedbacks.c ****             /* If Zero Crossing Voltage is available */
 479:C:/Workspace/FW_Inertia/branch_indesit/PlatformLibrary/LIB_Feedbacks\Feedbacks.c ****             if ( TRUE == zcIsAvailable )
 480:C:/Workspace/FW_Inertia/branch_indesit/PlatformLibrary/LIB_Feedbacks\Feedbacks.c ****             {
 481:C:/Workspace/FW_Inertia/branch_indesit/PlatformLibrary/LIB_Feedbacks\Feedbacks.c ****                 /* Check the matching with the ZC signal */
 482:C:/Workspace/FW_Inertia/branch_indesit/PlatformLibrary/LIB_Feedbacks\Feedbacks.c ****                 zcSyncEdge = LIB_ZC_GetCurrentEdge();
 483:C:/Workspace/FW_Inertia/branch_indesit/PlatformLibrary/LIB_Feedbacks\Feedbacks.c **** 
 484:C:/Workspace/FW_Inertia/branch_indesit/PlatformLibrary/LIB_Feedbacks\Feedbacks.c ****                 /*
 485:C:/Workspace/FW_Inertia/branch_indesit/PlatformLibrary/LIB_Feedbacks\Feedbacks.c ****                    I am waiting for positive edge so I am on the low level of zero crossing and I r
 486:C:/Workspace/FW_Inertia/branch_indesit/PlatformLibrary/LIB_Feedbacks\Feedbacks.c ****                    or
 487:C:/Workspace/FW_Inertia/branch_indesit/PlatformLibrary/LIB_Feedbacks\Feedbacks.c ****                    I am waiting for negative edge so I am on the high level of zero crossing and I 
 488:C:/Workspace/FW_Inertia/branch_indesit/PlatformLibrary/LIB_Feedbacks\Feedbacks.c ****                 */
 489:C:/Workspace/FW_Inertia/branch_indesit/PlatformLibrary/LIB_Feedbacks\Feedbacks.c ****                 if (((IRQ_ON_POSITIVE_EDGE == zcSyncEdge) && (FALSE == pinval)) ||
 490:C:/Workspace/FW_Inertia/branch_indesit/PlatformLibrary/LIB_Feedbacks\Feedbacks.c ****                         ((IRQ_ON_NEGATIVE_EDGE == zcSyncEdge) && (TRUE == pinval)))
 491:C:/Workspace/FW_Inertia/branch_indesit/PlatformLibrary/LIB_Feedbacks\Feedbacks.c ****                 {
 492:C:/Workspace/FW_Inertia/branch_indesit/PlatformLibrary/LIB_Feedbacks\Feedbacks.c ****                     /* Match -> feedback in phase with zero crossing voltage */
 493:C:/Workspace/FW_Inertia/branch_indesit/PlatformLibrary/LIB_Feedbacks\Feedbacks.c ****                     FeedbackStatus[i].cntZCmatch++;
 494:C:/Workspace/FW_Inertia/branch_indesit/PlatformLibrary/LIB_Feedbacks\Feedbacks.c ****                 }
 495:C:/Workspace/FW_Inertia/branch_indesit/PlatformLibrary/LIB_Feedbacks\Feedbacks.c ****                 else
 496:C:/Workspace/FW_Inertia/branch_indesit/PlatformLibrary/LIB_Feedbacks\Feedbacks.c ****                 {
 497:C:/Workspace/FW_Inertia/branch_indesit/PlatformLibrary/LIB_Feedbacks\Feedbacks.c ****                     /* No match -> feedback in phase opposition respect zero crossing voltage */
 498:C:/Workspace/FW_Inertia/branch_indesit/PlatformLibrary/LIB_Feedbacks\Feedbacks.c ****                     FeedbackStatus[i].cntZCmatch--;
 499:C:/Workspace/FW_Inertia/branch_indesit/PlatformLibrary/LIB_Feedbacks\Feedbacks.c ****                 }
 500:C:/Workspace/FW_Inertia/branch_indesit/PlatformLibrary/LIB_Feedbacks\Feedbacks.c ****             }
 501:C:/Workspace/FW_Inertia/branch_indesit/PlatformLibrary/LIB_Feedbacks\Feedbacks.c **** 
 502:C:/Workspace/FW_Inertia/branch_indesit/PlatformLibrary/LIB_Feedbacks\Feedbacks.c ****             if ( FALSE == zcIsAvailable )
 503:C:/Workspace/FW_Inertia/branch_indesit/PlatformLibrary/LIB_Feedbacks\Feedbacks.c ****             {
 504:C:/Workspace/FW_Inertia/branch_indesit/PlatformLibrary/LIB_Feedbacks\Feedbacks.c ****                 FeedbackStatus[i].zcCompare = 0;
 505:C:/Workspace/FW_Inertia/branch_indesit/PlatformLibrary/LIB_Feedbacks\Feedbacks.c ****             }
 506:C:/Workspace/FW_Inertia/branch_indesit/PlatformLibrary/LIB_Feedbacks\Feedbacks.c **** 
 507:C:/Workspace/FW_Inertia/branch_indesit/PlatformLibrary/LIB_Feedbacks\Feedbacks.c ****             /* Update num. samples Counter  */
 508:C:/Workspace/FW_Inertia/branch_indesit/PlatformLibrary/LIB_Feedbacks\Feedbacks.c ****             FeedbackStatus[i].cntSamples++;
 509:C:/Workspace/FW_Inertia/branch_indesit/PlatformLibrary/LIB_Feedbacks\Feedbacks.c **** 
 510:C:/Workspace/FW_Inertia/branch_indesit/PlatformLibrary/LIB_Feedbacks\Feedbacks.c ****             /* Check if time to decide feedback's state */
 511:C:/Workspace/FW_Inertia/branch_indesit/PlatformLibrary/LIB_Feedbacks\Feedbacks.c ****             if ( FeedbackStatus[i].cntSamples >= FEEDBACK_SAMPLES )
 512:C:/Workspace/FW_Inertia/branch_indesit/PlatformLibrary/LIB_Feedbacks\Feedbacks.c ****             {
 513:C:/Workspace/FW_Inertia/branch_indesit/PlatformLibrary/LIB_Feedbacks\Feedbacks.c ****                 /* No value for feedbacks */
 514:C:/Workspace/FW_Inertia/branch_indesit/PlatformLibrary/LIB_Feedbacks\Feedbacks.c ****                 tmpFeedbackValue = FDB_INDETERMINATE;
 515:C:/Workspace/FW_Inertia/branch_indesit/PlatformLibrary/LIB_Feedbacks\Feedbacks.c **** 
 516:C:/Workspace/FW_Inertia/branch_indesit/PlatformLibrary/LIB_Feedbacks\Feedbacks.c ****                 if ( FeedbackStatus[i].zcCompare == 0 )
 517:C:/Workspace/FW_Inertia/branch_indesit/PlatformLibrary/LIB_Feedbacks\Feedbacks.c ****                 {
 518:C:/Workspace/FW_Inertia/branch_indesit/PlatformLibrary/LIB_Feedbacks\Feedbacks.c ****                     /* Zero Crossing Voltage Not Available */
 519:C:/Workspace/FW_Inertia/branch_indesit/PlatformLibrary/LIB_Feedbacks\Feedbacks.c ****                     if ( FeedbackStatus[i].cntVal >= FDB_NO_ZC_LIMIT_FOR_LEVEL)
 520:C:/Workspace/FW_Inertia/branch_indesit/PlatformLibrary/LIB_Feedbacks\Feedbacks.c ****                     {
 521:C:/Workspace/FW_Inertia/branch_indesit/PlatformLibrary/LIB_Feedbacks\Feedbacks.c ****                         /* feedback is high */
 522:C:/Workspace/FW_Inertia/branch_indesit/PlatformLibrary/LIB_Feedbacks\Feedbacks.c ****                         tmpFeedbackValue = FDB_INPUT_HI;
 523:C:/Workspace/FW_Inertia/branch_indesit/PlatformLibrary/LIB_Feedbacks\Feedbacks.c ****                     }
 524:C:/Workspace/FW_Inertia/branch_indesit/PlatformLibrary/LIB_Feedbacks\Feedbacks.c ****                     else if ( FeedbackStatus[i].cntVal <= -FDB_NO_ZC_LIMIT_FOR_LEVEL)
 525:C:/Workspace/FW_Inertia/branch_indesit/PlatformLibrary/LIB_Feedbacks\Feedbacks.c ****                     {
 526:C:/Workspace/FW_Inertia/branch_indesit/PlatformLibrary/LIB_Feedbacks\Feedbacks.c ****                         /* feedback is low */
 527:C:/Workspace/FW_Inertia/branch_indesit/PlatformLibrary/LIB_Feedbacks\Feedbacks.c ****                         tmpFeedbackValue = FDB_INPUT_LOW;
 528:C:/Workspace/FW_Inertia/branch_indesit/PlatformLibrary/LIB_Feedbacks\Feedbacks.c ****                     }
 529:C:/Workspace/FW_Inertia/branch_indesit/PlatformLibrary/LIB_Feedbacks\Feedbacks.c ****                     else if ( abs(FeedbackStatus[i].cntVal) <= FDB_NO_ZC_LIMIT_FOR_FREQ)
 530:C:/Workspace/FW_Inertia/branch_indesit/PlatformLibrary/LIB_Feedbacks\Feedbacks.c ****                     {
 531:C:/Workspace/FW_Inertia/branch_indesit/PlatformLibrary/LIB_Feedbacks\Feedbacks.c ****                         /* frequency on feedback */
 532:C:/Workspace/FW_Inertia/branch_indesit/PlatformLibrary/LIB_Feedbacks\Feedbacks.c ****                         tmpFeedbackValue = FDB_INPUT_FREQ_PHASE;
 533:C:/Workspace/FW_Inertia/branch_indesit/PlatformLibrary/LIB_Feedbacks\Feedbacks.c ****                     }
 534:C:/Workspace/FW_Inertia/branch_indesit/PlatformLibrary/LIB_Feedbacks\Feedbacks.c ****                     else
 535:C:/Workspace/FW_Inertia/branch_indesit/PlatformLibrary/LIB_Feedbacks\Feedbacks.c ****                     {
 536:C:/Workspace/FW_Inertia/branch_indesit/PlatformLibrary/LIB_Feedbacks\Feedbacks.c ****                         /* nothing to do - do not modify ! */
 537:C:/Workspace/FW_Inertia/branch_indesit/PlatformLibrary/LIB_Feedbacks\Feedbacks.c ****                     }
 538:C:/Workspace/FW_Inertia/branch_indesit/PlatformLibrary/LIB_Feedbacks\Feedbacks.c ****                 }
 539:C:/Workspace/FW_Inertia/branch_indesit/PlatformLibrary/LIB_Feedbacks\Feedbacks.c ****                 else
 540:C:/Workspace/FW_Inertia/branch_indesit/PlatformLibrary/LIB_Feedbacks\Feedbacks.c ****                 {
 541:C:/Workspace/FW_Inertia/branch_indesit/PlatformLibrary/LIB_Feedbacks\Feedbacks.c ****                     /* Zero Crossing Voltage Available */
 542:C:/Workspace/FW_Inertia/branch_indesit/PlatformLibrary/LIB_Feedbacks\Feedbacks.c ****                 	if ( FeedbackStatus[i].cntVal >= FDB_ZC_LIMIT_FOR_LEVEL )
 543:C:/Workspace/FW_Inertia/branch_indesit/PlatformLibrary/LIB_Feedbacks\Feedbacks.c **** 					{
 544:C:/Workspace/FW_Inertia/branch_indesit/PlatformLibrary/LIB_Feedbacks\Feedbacks.c **** 							/* high value on feedback */
 545:C:/Workspace/FW_Inertia/branch_indesit/PlatformLibrary/LIB_Feedbacks\Feedbacks.c **** 							tmpFeedbackValue = FDB_INPUT_HI;
 546:C:/Workspace/FW_Inertia/branch_indesit/PlatformLibrary/LIB_Feedbacks\Feedbacks.c **** 					}
 547:C:/Workspace/FW_Inertia/branch_indesit/PlatformLibrary/LIB_Feedbacks\Feedbacks.c **** 					else if ( FeedbackStatus[i].cntVal <= -FDB_ZC_LIMIT_FOR_LEVEL )
 548:C:/Workspace/FW_Inertia/branch_indesit/PlatformLibrary/LIB_Feedbacks\Feedbacks.c **** 					{
 549:C:/Workspace/FW_Inertia/branch_indesit/PlatformLibrary/LIB_Feedbacks\Feedbacks.c **** 						/* low value on feedback */
 550:C:/Workspace/FW_Inertia/branch_indesit/PlatformLibrary/LIB_Feedbacks\Feedbacks.c **** 						tmpFeedbackValue = FDB_INPUT_LOW;
 551:C:/Workspace/FW_Inertia/branch_indesit/PlatformLibrary/LIB_Feedbacks\Feedbacks.c **** 					}
 552:C:/Workspace/FW_Inertia/branch_indesit/PlatformLibrary/LIB_Feedbacks\Feedbacks.c **** 					else if ( FeedbackStatus[i].cntZCmatch >= FDB_ZC_LIMIT_FOR_FREQ )
 553:C:/Workspace/FW_Inertia/branch_indesit/PlatformLibrary/LIB_Feedbacks\Feedbacks.c ****                     {
 554:C:/Workspace/FW_Inertia/branch_indesit/PlatformLibrary/LIB_Feedbacks\Feedbacks.c ****                         /* frequency in phase respect zero crossing voltage on feedback */
 555:C:/Workspace/FW_Inertia/branch_indesit/PlatformLibrary/LIB_Feedbacks\Feedbacks.c ****                         tmpFeedbackValue = FDB_INPUT_FREQ_PHASE;
 556:C:/Workspace/FW_Inertia/branch_indesit/PlatformLibrary/LIB_Feedbacks\Feedbacks.c ****                     }
 557:C:/Workspace/FW_Inertia/branch_indesit/PlatformLibrary/LIB_Feedbacks\Feedbacks.c ****                     else if ( FeedbackStatus[i].cntZCmatch <= -FDB_ZC_LIMIT_FOR_FREQ )
 558:C:/Workspace/FW_Inertia/branch_indesit/PlatformLibrary/LIB_Feedbacks\Feedbacks.c ****                     {
 559:C:/Workspace/FW_Inertia/branch_indesit/PlatformLibrary/LIB_Feedbacks\Feedbacks.c ****                         /* frequency in opposition phase respect zero crossing voltage on feedback 
 560:C:/Workspace/FW_Inertia/branch_indesit/PlatformLibrary/LIB_Feedbacks\Feedbacks.c ****                         tmpFeedbackValue = FDB_INPUT_FREQ_OPP_PHASE;
 561:C:/Workspace/FW_Inertia/branch_indesit/PlatformLibrary/LIB_Feedbacks\Feedbacks.c ****                     }
 562:C:/Workspace/FW_Inertia/branch_indesit/PlatformLibrary/LIB_Feedbacks\Feedbacks.c ****                     else
 563:C:/Workspace/FW_Inertia/branch_indesit/PlatformLibrary/LIB_Feedbacks\Feedbacks.c ****                     {
 564:C:/Workspace/FW_Inertia/branch_indesit/PlatformLibrary/LIB_Feedbacks\Feedbacks.c ****                         /* no decision ! */
 565:C:/Workspace/FW_Inertia/branch_indesit/PlatformLibrary/LIB_Feedbacks\Feedbacks.c ****                     }
 566:C:/Workspace/FW_Inertia/branch_indesit/PlatformLibrary/LIB_Feedbacks\Feedbacks.c ****                 }
 567:C:/Workspace/FW_Inertia/branch_indesit/PlatformLibrary/LIB_Feedbacks\Feedbacks.c **** 
 568:C:/Workspace/FW_Inertia/branch_indesit/PlatformLibrary/LIB_Feedbacks\Feedbacks.c ****                 feedbackMask = (feedbackBitfield_t)(1u<<i);
 215                             		.loc 1 568 0
 216 000e 66 1C                   		mov.L	#1, r12
 569:C:/Workspace/FW_Inertia/branch_indesit/PlatformLibrary/LIB_Feedbacks\Feedbacks.c ****                 /* Process tmpFeedbackValue and update Feedback[] if feedback is not disabled */
 570:C:/Workspace/FW_Inertia/branch_indesit/PlatformLibrary/LIB_Feedbacks\Feedbacks.c ****                 if ( ( FeedbackInputDisable & feedbackMask ) == 0 )
 217                             		.loc 1 570 0
 218 0010 FB D2 00 00 00 00       		mov.L	#_FeedbackInputDisable, r13
 571:C:/Workspace/FW_Inertia/branch_indesit/PlatformLibrary/LIB_Feedbacks\Feedbacks.c ****                 {
 572:C:/Workspace/FW_Inertia/branch_indesit/PlatformLibrary/LIB_Feedbacks\Feedbacks.c ****                     if ( tmpFeedbackValue != FDB_INDETERMINATE )
 573:C:/Workspace/FW_Inertia/branch_indesit/PlatformLibrary/LIB_Feedbacks\Feedbacks.c ****                     {
 574:C:/Workspace/FW_Inertia/branch_indesit/PlatformLibrary/LIB_Feedbacks\Feedbacks.c ****                         Feedback[i] = tmpFeedbackValue;
 219                             		.loc 1 574 0
 220 0016 FB 92 00 00 00 00       		mov.L	#_Feedback, r9
 221                             	.LVL24:
 222                             		.balign 2,3,2
 223                             	.L38:
 439:C:/Workspace/FW_Inertia/branch_indesit/PlatformLibrary/LIB_Feedbacks\Feedbacks.c ****         if ( FeedbackDescriptor[i].s.active && (FeedbackDescriptor[i].s.loadP == loadType) )
 224                             		.loc 1 439 0
 225 001c FF 2E AA                		add	r10, r10, r14
 226 001f 70 EE 00 00 00 00       		add	#_FeedbackDescriptor, r14
 227 0025 5C E1                   		movu.W	[r14], r1
 228 0027 FD 8F 1E                		shlr	#15, r1, r14
 229 002a 3A F6 00                		beq	.L24
 439:C:/Workspace/FW_Inertia/branch_indesit/PlatformLibrary/LIB_Feedbacks\Feedbacks.c ****         if ( FeedbackDescriptor[i].s.active && (FeedbackDescriptor[i].s.loadP == loadType) )
 230                             		.loc 1 439 0 is_stmt 0 discriminator 1
 231 002d FD 87 1E                		shlr	#7, r1, r14
 232 0030 64 1E                   		and #1, r14
 233 0032 47 BE                   		cmp	r11, r14
 234 0034 3B EC 00                		bne	.L24
 466:C:/Workspace/FW_Inertia/branch_indesit/PlatformLibrary/LIB_Feedbacks\Feedbacks.c ****             pinval = LIB_DIO_GET_INPUT( FeedbackDescriptor[i].s.pin );
 235                             		.loc 1 466 0 is_stmt 1
 236 0037 68 11                   		shlr	#1, r1
 237 0039 75 21 3F                		and #63, r1
 238 003c 05 00 00 00             		bsr	_LIB_DIO_GET_INPUT
 239                             	.LVL25:
 240 0040 EF 16                   		mov.L	r1, r6
 241                             	.LVL26:
 471:C:/Workspace/FW_Inertia/branch_indesit/PlatformLibrary/LIB_Feedbacks\Feedbacks.c ****                 FeedbackStatus[i].cntVal++;
 242                             		.loc 1 471 0
 243 0042 CD 7E 01                		mov.B	1[r7], r14
 469:C:/Workspace/FW_Inertia/branch_indesit/PlatformLibrary/LIB_Feedbacks\Feedbacks.c ****             if (pinval)
 244                             		.loc 1 469 0
 245 0045 61 01                   		cmp	#0, r1
 246 0047 14                      		beq	.L26
 471:C:/Workspace/FW_Inertia/branch_indesit/PlatformLibrary/LIB_Feedbacks\Feedbacks.c ****                 FeedbackStatus[i].cntVal++;
 247                             		.loc 1 471 0
 248 0048 62 1E                   		add	#1, r14
 249 004a 0C                      		bra	.L53
 250                             	.L26:
 475:C:/Workspace/FW_Inertia/branch_indesit/PlatformLibrary/LIB_Feedbacks\Feedbacks.c ****                 FeedbackStatus[i].cntVal--;
 251                             		.loc 1 475 0
 252 004b 60 1E                   		sub	#1, r14
 253 004d 03                      		.balign 2,3,5
 254                             	.L53:
 255 004e C7 7E 01                		mov.B	r14, 1[r7]
 479:C:/Workspace/FW_Inertia/branch_indesit/PlatformLibrary/LIB_Feedbacks\Feedbacks.c ****             if ( TRUE == zcIsAvailable )
 256                             		.loc 1 479 0
 257 0051 61 18                   		cmp	#1, r8
 258 0053 21 22                   		bne	.L28
 259                             	.LBB2:
 482:C:/Workspace/FW_Inertia/branch_indesit/PlatformLibrary/LIB_Feedbacks\Feedbacks.c ****                 zcSyncEdge = LIB_ZC_GetCurrentEdge();
 260                             		.loc 1 482 0
 261 0055 05 00 00 00             		bsr	_LIB_ZC_GetCurrentEdge
 262                             	.LVL27:
 489:C:/Workspace/FW_Inertia/branch_indesit/PlatformLibrary/LIB_Feedbacks\Feedbacks.c ****                 if (((IRQ_ON_POSITIVE_EDGE == zcSyncEdge) && (FALSE == pinval)) ||
 263                             		.loc 1 489 0
 264 0059 61 11                   		cmp	#1, r1
 265 005b 1C                      		bne	.L29
 489:C:/Workspace/FW_Inertia/branch_indesit/PlatformLibrary/LIB_Feedbacks\Feedbacks.c ****                 if (((IRQ_ON_POSITIVE_EDGE == zcSyncEdge) && (FALSE == pinval)) ||
 266                             		.loc 1 489 0 is_stmt 0 discriminator 1
 267 005c 61 06                   		cmp	#0, r6
 268 005e 0E                      		bra	.L54
 269                             	.L29:
 489:C:/Workspace/FW_Inertia/branch_indesit/PlatformLibrary/LIB_Feedbacks\Feedbacks.c ****                 if (((IRQ_ON_POSITIVE_EDGE == zcSyncEdge) && (FALSE == pinval)) ||
 270                             		.loc 1 489 0 discriminator 2
 271 005f 61 01                   		cmp	#0, r1
 272 0061 1A                      		bne	.L31
 490:C:/Workspace/FW_Inertia/branch_indesit/PlatformLibrary/LIB_Feedbacks\Feedbacks.c ****                         ((IRQ_ON_NEGATIVE_EDGE == zcSyncEdge) && (TRUE == pinval)))
 273                             		.loc 1 490 0 is_stmt 1
 274 0062 61 16                   		cmp	#1, r6
 275                             	.L54:
 276 0064 1F                      		bne	.L31
 493:C:/Workspace/FW_Inertia/branch_indesit/PlatformLibrary/LIB_Feedbacks\Feedbacks.c ****                     FeedbackStatus[i].cntZCmatch++;
 277                             		.loc 1 493 0
 278 0065 CD 7E 02                		mov.B	2[r7], r14
 279 0068 62 1E                   		add	#1, r14
 280 006a 0E                      		bra	.L55
 281                             	.L31:
 498:C:/Workspace/FW_Inertia/branch_indesit/PlatformLibrary/LIB_Feedbacks\Feedbacks.c ****                     FeedbackStatus[i].cntZCmatch--;
 282                             		.loc 1 498 0
 283 006b CD 7E 02                		mov.B	2[r7], r14
 284 006e 60 1E                   		sub	#1, r14
 285                             		.balign 2,3,5
 286                             	.L55:
 287 0070 C7 7E 02                		mov.B	r14, 2[r7]
 288 0073 2E 17                   		bra	.L33
 289                             	.LVL28:
 290                             	.L28:
 291                             	.LBE2:
 502:C:/Workspace/FW_Inertia/branch_indesit/PlatformLibrary/LIB_Feedbacks\Feedbacks.c ****             if ( FALSE == zcIsAvailable )
 292                             		.loc 1 502 0
 293 0075 61 08                   		cmp	#0, r8
 294 0077 21 13                   		bne	.L33
 504:C:/Workspace/FW_Inertia/branch_indesit/PlatformLibrary/LIB_Feedbacks\Feedbacks.c ****                 FeedbackStatus[i].zcCompare = 0;
 295                             		.loc 1 504 0
 296 0079 FD C3 AE                		shll	#3, r10, r14
 297 007c 70 EE 00 00 00 00       		add	#_FeedbackStatus, r14
 298 0082 CD E4 04                		mov.B	4[r14], r4
 299 0085 7A 54                   		bclr	#5, r4
 300 0087 C7 E4 04                		mov.B	r4, 4[r14]
 301                             	.LVL29:
 302                             		.balign 2,3,5
 303                             	.L33:
 508:C:/Workspace/FW_Inertia/branch_indesit/PlatformLibrary/LIB_Feedbacks\Feedbacks.c ****             FeedbackStatus[i].cntSamples++;
 304                             		.loc 1 508 0
 305 008a CC 7E                   		mov.B	[r7], r14
 306 008c 62 1E                   		add	#1, r14
 307 008e C3 7E                   		mov.B	r14, [r7]
 511:C:/Workspace/FW_Inertia/branch_indesit/PlatformLibrary/LIB_Feedbacks\Feedbacks.c ****             if ( FeedbackStatus[i].cntSamples >= FEEDBACK_SAMPLES )
 308                             		.loc 1 511 0
 309 0090 5B EE                   		movu.B	r14, r14
 310 0092 61 FE                   		cmp	#15, r14
 311 0094 24 05 38 8A 00          		bleu	.L24
 312                             	.LVL30:
 516:C:/Workspace/FW_Inertia/branch_indesit/PlatformLibrary/LIB_Feedbacks\Feedbacks.c ****                 if ( FeedbackStatus[i].zcCompare == 0 )
 313                             		.loc 1 516 0
 314 0099 FD C3 AE                		shll	#3, r10, r14
 315 009c 70 EE 00 00 00 00       		add	#_FeedbackStatus, r14
 316 00a2 ED EE 01                		mov.L	4[r14], r14
 317 00a5 69 DE                   		shlr	#29, r14
 318 00a7 64 1E                   		and	#1, r14
 319 00a9 21 1E                   		bne	.L34
 519:C:/Workspace/FW_Inertia/branch_indesit/PlatformLibrary/LIB_Feedbacks\Feedbacks.c ****                     if ( FeedbackStatus[i].cntVal >= FDB_NO_ZC_LIMIT_FOR_LEVEL)
 320                             		.loc 1 519 0
 321 00ab 88 7C                   		mov.B	1[r7], r4
 322 00ad CF 43                   		mov.B	r4, r3
 323 00af 61 E3                   		cmp	#14, r3
 324 00b1 2A 31                   		bgt	.L42
 524:C:/Workspace/FW_Inertia/branch_indesit/PlatformLibrary/LIB_Feedbacks\Feedbacks.c ****                     else if ( FeedbackStatus[i].cntVal <= -FDB_NO_ZC_LIMIT_FOR_LEVEL)
 325                             		.loc 1 524 0
 326 00b3 75 03 F2                		cmp	#-14, r3
 327 00b6 29 34                   		blt	.L35
 529:C:/Workspace/FW_Inertia/branch_indesit/PlatformLibrary/LIB_Feedbacks\Feedbacks.c ****                     else if ( abs(FeedbackStatus[i].cntVal) <= FDB_NO_ZC_LIMIT_FOR_FREQ)
 328                             		.loc 1 529 0
 329 00b8 71 44 10                		add	#16, r4
 330 00bb 5B 44                   		movu.B	r4, r4
 331 00bd 75 54 20                		cmp	#32, r4
 332 00c0 25 28                   		bleu	.L44
 333                             		.balign 2,3,2
 334                             	.L36:
 514:C:/Workspace/FW_Inertia/branch_indesit/PlatformLibrary/LIB_Feedbacks\Feedbacks.c ****                 tmpFeedbackValue = FDB_INDETERMINATE;
 335                             		.loc 1 514 0
 336 00c2 FB E6 FF                		mov	#-1, r14
 337 00c5 2E 25                   		bra	.L35
 338                             	.L34:
 542:C:/Workspace/FW_Inertia/branch_indesit/PlatformLibrary/LIB_Feedbacks\Feedbacks.c ****                 	if ( FeedbackStatus[i].cntVal >= FDB_ZC_LIMIT_FOR_LEVEL )
 339                             		.loc 1 542 0
 340 00c7 CD 7E 01                		mov.B	1[r7], r14
 341 00ca 61 DE                   		cmp	#13, r14
 342 00cc 2A 16                   		bgt	.L42
 547:C:/Workspace/FW_Inertia/branch_indesit/PlatformLibrary/LIB_Feedbacks\Feedbacks.c **** 					else if ( FeedbackStatus[i].cntVal <= -FDB_ZC_LIMIT_FOR_LEVEL )
 343                             		.loc 1 547 0
 344 00ce 75 0E F3                		cmp	#-13, r14
 345 00d1 29 14                   		blt	.L43
 552:C:/Workspace/FW_Inertia/branch_indesit/PlatformLibrary/LIB_Feedbacks\Feedbacks.c **** 					else if ( FeedbackStatus[i].cntZCmatch >= FDB_ZC_LIMIT_FOR_FREQ )
 346                             		.loc 1 552 0
 347 00d3 CD 7E 02                		mov.B	2[r7], r14
 348 00d6 61 DE                   		cmp	#13, r14
 349 00d8 2A 10                   		bgt	.L44
 557:C:/Workspace/FW_Inertia/branch_indesit/PlatformLibrary/LIB_Feedbacks\Feedbacks.c ****                     else if ( FeedbackStatus[i].cntZCmatch <= -FDB_ZC_LIMIT_FOR_FREQ )
 350                             		.loc 1 557 0
 351 00da 75 0E F3                		cmp	#-13, r14
 352 00dd 28 E5                   		bge	.L36
 560:C:/Workspace/FW_Inertia/branch_indesit/PlatformLibrary/LIB_Feedbacks\Feedbacks.c ****                         tmpFeedbackValue = FDB_INPUT_FREQ_OPP_PHASE;
 353                             		.loc 1 560 0
 354 00df 66 2E                   		mov	#2, r14
 355 00e1 09                      		bra	.L35
 356                             	.L42:
 522:C:/Workspace/FW_Inertia/branch_indesit/PlatformLibrary/LIB_Feedbacks\Feedbacks.c ****                         tmpFeedbackValue = FDB_INPUT_HI;
 357                             		.loc 1 522 0
 358 00e2 66 1E                   		mov	#1, r14
 359 00e4 0E                      		bra	.L35
 360                             	.L43:
 527:C:/Workspace/FW_Inertia/branch_indesit/PlatformLibrary/LIB_Feedbacks\Feedbacks.c ****                         tmpFeedbackValue = FDB_INPUT_LOW;
 361                             		.loc 1 527 0
 362 00e5 66 0E                   		mov	#0, r14
 363 00e7 0B                      		bra	.L35
 364                             	.L44:
 555:C:/Workspace/FW_Inertia/branch_indesit/PlatformLibrary/LIB_Feedbacks\Feedbacks.c ****                         tmpFeedbackValue = FDB_INPUT_FREQ_PHASE;
 365                             		.loc 1 555 0
 366 00e8 66 3E                   		mov	#3, r14
 367                             		.balign 2,3,1
 368                             	.L35:
 369                             	.LVL31:
 568:C:/Workspace/FW_Inertia/branch_indesit/PlatformLibrary/LIB_Feedbacks\Feedbacks.c ****                 feedbackMask = (feedbackBitfield_t)(1u<<i);
 370                             		.loc 1 568 0
 371 00ea EF C4                   		mov.L	r12, r4
 372 00ec FD 62 A4                		shll	r10, r4
 570:C:/Workspace/FW_Inertia/branch_indesit/PlatformLibrary/LIB_Feedbacks\Feedbacks.c ****                 if ( ( FeedbackInputDisable & feedbackMask ) == 0 )
 373                             		.loc 1 570 0
 374 00ef 06 10 D4                		and	[r13].B, r4
 375 00f2 76 24 FF 00             		and #0xff, r4
 376 00f6 21 0C                   		bne	.L37
 572:C:/Workspace/FW_Inertia/branch_indesit/PlatformLibrary/LIB_Feedbacks\Feedbacks.c ****                     if ( tmpFeedbackValue != FDB_INDETERMINATE )
 377                             		.loc 1 572 0
 378 00f8 5B E4                   		movu.B	r14, r4
 379 00fa 75 54 FF                		cmp	#0xff, r4
 380 00fd 15                      		beq	.L37
 381                             		.loc 1 574 0
 382 00fe FE 0A 9E                		mov.B	r14, [r10,r9]
 383 0101 03                      		.balign 2,3,2
 384                             	.L37:
 575:C:/Workspace/FW_Inertia/branch_indesit/PlatformLibrary/LIB_Feedbacks\Feedbacks.c ****                     }
 576:C:/Workspace/FW_Inertia/branch_indesit/PlatformLibrary/LIB_Feedbacks\Feedbacks.c ****                 }
 577:C:/Workspace/FW_Inertia/branch_indesit/PlatformLibrary/LIB_Feedbacks\Feedbacks.c **** 
 578:C:/Workspace/FW_Inertia/branch_indesit/PlatformLibrary/LIB_Feedbacks\Feedbacks.c ****                 FeedbackStatus[i].ready 			= 1;
 385                             		.loc 1 578 0
 386 0102 FD C3 AE                		shll	#3, r10, r14
 387                             	.LVL32:
 388 0105 70 EE 00 00 00 00       		add	#_FeedbackStatus, r14
 389 010b CD E4 04                		mov.B	4[r14], r4
 390 010e 78 74                   		bset	#7, r4
 579:C:/Workspace/FW_Inertia/branch_indesit/PlatformLibrary/LIB_Feedbacks\Feedbacks.c ****                 FeedbackStatus[i].readyWritable 	= 1;
 391                             		.loc 1 579 0
 392 0110 78 64                   		bset	#6, r4
 580:C:/Workspace/FW_Inertia/branch_indesit/PlatformLibrary/LIB_Feedbacks\Feedbacks.c ****                 FeedbackStatus[i].zcCompare 		= 1;
 393                             		.loc 1 580 0
 394 0112 78 54                   		bset	#5, r4
 395 0114 C7 E4 04                		mov.B	r4, 4[r14]
 581:C:/Workspace/FW_Inertia/branch_indesit/PlatformLibrary/LIB_Feedbacks\Feedbacks.c ****                 FeedbackStatus[i].cntZCmatch       	= 0;
 396                             		.loc 1 581 0
 397 0117 3C 72 00                		mov.B	#0, 2[r7]
 582:C:/Workspace/FW_Inertia/branch_indesit/PlatformLibrary/LIB_Feedbacks\Feedbacks.c ****                 FeedbackStatus[i].cntVal 			= 0;
 398                             		.loc 1 582 0
 399 011a 3C 71 00                		mov.B	#0, 1[r7]
 583:C:/Workspace/FW_Inertia/branch_indesit/PlatformLibrary/LIB_Feedbacks\Feedbacks.c ****                 FeedbackStatus[i].cntSamples 		= 0;
 400                             		.loc 1 583 0
 401 011d 3C 70 00                		mov.B	#0, [r7]
 402                             	.LVL33:
 403                             		.balign 2,3,1
 404                             	.L24:
 405 0120 62 1A                   		add	#1, r10
 406 0122 62 87                   		add	#8, r7
 424:C:/Workspace/FW_Inertia/branch_indesit/PlatformLibrary/LIB_Feedbacks\Feedbacks.c ****     for ( i = 0; i < N_FEEDBACK ; i++ )
 407                             		.loc 1 424 0
 408 0124 61 8A                   		cmp	#8, r10
 409 0126 3B F6 FE                		bne	.L38
 584:C:/Workspace/FW_Inertia/branch_indesit/PlatformLibrary/LIB_Feedbacks\Feedbacks.c **** 
 585:C:/Workspace/FW_Inertia/branch_indesit/PlatformLibrary/LIB_Feedbacks\Feedbacks.c ****             }
 586:C:/Workspace/FW_Inertia/branch_indesit/PlatformLibrary/LIB_Feedbacks\Feedbacks.c **** 
 587:C:/Workspace/FW_Inertia/branch_indesit/PlatformLibrary/LIB_Feedbacks\Feedbacks.c ****         }
 588:C:/Workspace/FW_Inertia/branch_indesit/PlatformLibrary/LIB_Feedbacks\Feedbacks.c **** 
 589:C:/Workspace/FW_Inertia/branch_indesit/PlatformLibrary/LIB_Feedbacks\Feedbacks.c ****         SAFETY_DATA_ELEM_UPDATE( Feedback, i);
 590:C:/Workspace/FW_Inertia/branch_indesit/PlatformLibrary/LIB_Feedbacks\Feedbacks.c ****         SAFETY_DATA_ELEM_UPDATE( FeedbackStatus, i);
 591:C:/Workspace/FW_Inertia/branch_indesit/PlatformLibrary/LIB_Feedbacks\Feedbacks.c ****         SAFETY_DATA_ELEM_UPDATE( FeedbackDescriptor, i);
 592:C:/Workspace/FW_Inertia/branch_indesit/PlatformLibrary/LIB_Feedbacks\Feedbacks.c ****         SAFETY_DATA_UPDATE( FeedbackInputDisable );
 593:C:/Workspace/FW_Inertia/branch_indesit/PlatformLibrary/LIB_Feedbacks\Feedbacks.c **** 
 594:C:/Workspace/FW_Inertia/branch_indesit/PlatformLibrary/LIB_Feedbacks\Feedbacks.c ****         SAFETY_REGION_END();
 595:C:/Workspace/FW_Inertia/branch_indesit/PlatformLibrary/LIB_Feedbacks\Feedbacks.c ****         /* SAFETY REGION END */
 596:C:/Workspace/FW_Inertia/branch_indesit/PlatformLibrary/LIB_Feedbacks\Feedbacks.c ****     }
 597:C:/Workspace/FW_Inertia/branch_indesit/PlatformLibrary/LIB_Feedbacks\Feedbacks.c **** 
 598:C:/Workspace/FW_Inertia/branch_indesit/PlatformLibrary/LIB_Feedbacks\Feedbacks.c **** }
 410                             		.loc 1 598 0
 411 0129 3F 6D 08                		rtsd	#32, r6-r13
 412                             	.LFE7:
 414                             		.section	.text.LIB_FDB_IsFeedbackWritableReady,"ax",@progbits
 415                             		.global	_LIB_FDB_IsFeedbackWritableReady
 417                             	_LIB_FDB_IsFeedbackWritableReady:
 418                             	.LFB8:
 599:C:/Workspace/FW_Inertia/branch_indesit/PlatformLibrary/LIB_Feedbacks\Feedbacks.c **** 
 600:C:/Workspace/FW_Inertia/branch_indesit/PlatformLibrary/LIB_Feedbacks\Feedbacks.c **** /**
 601:C:/Workspace/FW_Inertia/branch_indesit/PlatformLibrary/LIB_Feedbacks\Feedbacks.c **** LIB_FDB_IsFeedbackWritableReady
 602:C:/Workspace/FW_Inertia/branch_indesit/PlatformLibrary/LIB_Feedbacks\Feedbacks.c **** This function returns TRUE if feedback in position "pos" was acquired.
 603:C:/Workspace/FW_Inertia/branch_indesit/PlatformLibrary/LIB_Feedbacks\Feedbacks.c **** \n The function acts on FeedbackReadyWritable.
 604:C:/Workspace/FW_Inertia/branch_indesit/PlatformLibrary/LIB_Feedbacks\Feedbacks.c **** 
 605:C:/Workspace/FW_Inertia/branch_indesit/PlatformLibrary/LIB_Feedbacks\Feedbacks.c **** \param  [in]    pos feedback's position, the position is that of setting's file.
 606:C:/Workspace/FW_Inertia/branch_indesit/PlatformLibrary/LIB_Feedbacks\Feedbacks.c **** 
 607:C:/Workspace/FW_Inertia/branch_indesit/PlatformLibrary/LIB_Feedbacks\Feedbacks.c **** \return 	bool_t
 608:C:/Workspace/FW_Inertia/branch_indesit/PlatformLibrary/LIB_Feedbacks\Feedbacks.c **** 
 609:C:/Workspace/FW_Inertia/branch_indesit/PlatformLibrary/LIB_Feedbacks\Feedbacks.c **** \retval		TRUE
 610:C:/Workspace/FW_Inertia/branch_indesit/PlatformLibrary/LIB_Feedbacks\Feedbacks.c **** \retval		FALSE
 611:C:/Workspace/FW_Inertia/branch_indesit/PlatformLibrary/LIB_Feedbacks\Feedbacks.c **** */
 612:C:/Workspace/FW_Inertia/branch_indesit/PlatformLibrary/LIB_Feedbacks\Feedbacks.c **** 
 613:C:/Workspace/FW_Inertia/branch_indesit/PlatformLibrary/LIB_Feedbacks\Feedbacks.c **** bool_t LIB_FDB_IsFeedbackWritableReady(uint8_t pos)
 614:C:/Workspace/FW_Inertia/branch_indesit/PlatformLibrary/LIB_Feedbacks\Feedbacks.c **** {
 419                             		.loc 1 614 0
 420                             	.LVL34:
 615:C:/Workspace/FW_Inertia/branch_indesit/PlatformLibrary/LIB_Feedbacks\Feedbacks.c ****     return (bool_t)FeedbackStatus[pos].readyWritable ;
 421                             		.loc 1 615 0
 422 0000 5B 11                   		movu.B	r1, r1
 423 0002 FD C3 1E                		shll	#3, r1, r14
 424 0005 70 EE 00 00 00 00       		add	#_FeedbackStatus, r14
 425 000b ED E1 01                		mov.L	4[r14], r1
 426                             	.LVL35:
 427 000e 69 E1                   		shlr	#30, r1
 616:C:/Workspace/FW_Inertia/branch_indesit/PlatformLibrary/LIB_Feedbacks\Feedbacks.c **** }
 428                             		.loc 1 616 0
 429 0010 64 11                   		and #1, r1
 430 0012 02                      		rts
 431                             	.LFE8:
 433                             		.section	.text.LIB_FDB_GetFeedbackWritableBitMap,"ax",@progbits
 434                             		.global	_LIB_FDB_GetFeedbackWritableBitMap
 436                             	_LIB_FDB_GetFeedbackWritableBitMap:
 437                             	.LFB9:
 617:C:/Workspace/FW_Inertia/branch_indesit/PlatformLibrary/LIB_Feedbacks\Feedbacks.c **** 
 618:C:/Workspace/FW_Inertia/branch_indesit/PlatformLibrary/LIB_Feedbacks\Feedbacks.c **** /**
 619:C:/Workspace/FW_Inertia/branch_indesit/PlatformLibrary/LIB_Feedbacks\Feedbacks.c **** This function returns a bitmap of all feedbacks acquired.
 620:C:/Workspace/FW_Inertia/branch_indesit/PlatformLibrary/LIB_Feedbacks\Feedbacks.c **** 
 621:C:/Workspace/FW_Inertia/branch_indesit/PlatformLibrary/LIB_Feedbacks\Feedbacks.c **** \param  	none
 622:C:/Workspace/FW_Inertia/branch_indesit/PlatformLibrary/LIB_Feedbacks\Feedbacks.c **** 
 623:C:/Workspace/FW_Inertia/branch_indesit/PlatformLibrary/LIB_Feedbacks\Feedbacks.c **** \return 	feedbackBitfield_t
 624:C:/Workspace/FW_Inertia/branch_indesit/PlatformLibrary/LIB_Feedbacks\Feedbacks.c **** 
 625:C:/Workspace/FW_Inertia/branch_indesit/PlatformLibrary/LIB_Feedbacks\Feedbacks.c **** \retval		FeedbackReadyWritable bitmap
 626:C:/Workspace/FW_Inertia/branch_indesit/PlatformLibrary/LIB_Feedbacks\Feedbacks.c **** 
 627:C:/Workspace/FW_Inertia/branch_indesit/PlatformLibrary/LIB_Feedbacks\Feedbacks.c **** 
 628:C:/Workspace/FW_Inertia/branch_indesit/PlatformLibrary/LIB_Feedbacks\Feedbacks.c **** \author 	Alessandro Sabbatini
 629:C:/Workspace/FW_Inertia/branch_indesit/PlatformLibrary/LIB_Feedbacks\Feedbacks.c **** \date		Dec. 12, 2012
 630:C:/Workspace/FW_Inertia/branch_indesit/PlatformLibrary/LIB_Feedbacks\Feedbacks.c **** \version	1.0.0
 631:C:/Workspace/FW_Inertia/branch_indesit/PlatformLibrary/LIB_Feedbacks\Feedbacks.c **** */
 632:C:/Workspace/FW_Inertia/branch_indesit/PlatformLibrary/LIB_Feedbacks\Feedbacks.c **** feedbackBitfield_t LIB_FDB_GetFeedbackWritableBitMap(void)
 633:C:/Workspace/FW_Inertia/branch_indesit/PlatformLibrary/LIB_Feedbacks\Feedbacks.c **** {
 438                             		.loc 1 633 0
 439                             	.LVL36:
 440                             		.loc 1 633 0
 441 0000 66 0E                   		mov.L	#0, r14
 634:C:/Workspace/FW_Inertia/branch_indesit/PlatformLibrary/LIB_Feedbacks\Feedbacks.c **** 	uint8_t i;
 635:C:/Workspace/FW_Inertia/branch_indesit/PlatformLibrary/LIB_Feedbacks\Feedbacks.c **** 	feedbackBitfield_t res = 0;
 442                             		.loc 1 635 0
 443 0002 CF E1                   		mov.B	r14, r1
 444                             	.LVL37:
 445                             		.balign 2,3,2
 446                             	.L59:
 636:C:/Workspace/FW_Inertia/branch_indesit/PlatformLibrary/LIB_Feedbacks\Feedbacks.c **** 
 637:C:/Workspace/FW_Inertia/branch_indesit/PlatformLibrary/LIB_Feedbacks\Feedbacks.c **** 	for (i = 0; i < N_FEEDBACK; i++)
 638:C:/Workspace/FW_Inertia/branch_indesit/PlatformLibrary/LIB_Feedbacks\Feedbacks.c **** 	{
 639:C:/Workspace/FW_Inertia/branch_indesit/PlatformLibrary/LIB_Feedbacks\Feedbacks.c **** 		if (FeedbackStatus[i].readyWritable) {
 447                             		.loc 1 639 0
 448 0004 FD C3 E4                		shll	#3, r14, r4
 449 0007 70 44 00 00 00 00       		add	#_FeedbackStatus, r4
 450 000d A8 4C                   		mov.L	4[r4], r4
 451 000f 7D E4                   		btst #30, r4
 452 0011 15                      		beq	.L58
 640:C:/Workspace/FW_Inertia/branch_indesit/PlatformLibrary/LIB_Feedbacks\Feedbacks.c **** 			res |= ( ((feedbackBitfield_t)1) << i );
 453                             		.loc 1 640 0
 454 0012 FC 63 1E                		bset	r14, r1
 455                             	.LVL38:
 456 0015 03                      		.balign 2,3,1
 457                             	.L58:
 458 0016 62 1E                   		add	#1, r14
 637:C:/Workspace/FW_Inertia/branch_indesit/PlatformLibrary/LIB_Feedbacks\Feedbacks.c **** 	for (i = 0; i < N_FEEDBACK; i++)
 459                             		.loc 1 637 0
 460 0018 61 8E                   		cmp	#8, r14
 461 001a 21 EA                   		bne	.L59
 641:C:/Workspace/FW_Inertia/branch_indesit/PlatformLibrary/LIB_Feedbacks\Feedbacks.c **** 		}
 642:C:/Workspace/FW_Inertia/branch_indesit/PlatformLibrary/LIB_Feedbacks\Feedbacks.c **** 	}
 643:C:/Workspace/FW_Inertia/branch_indesit/PlatformLibrary/LIB_Feedbacks\Feedbacks.c **** 
 644:C:/Workspace/FW_Inertia/branch_indesit/PlatformLibrary/LIB_Feedbacks\Feedbacks.c **** 	return res;
 645:C:/Workspace/FW_Inertia/branch_indesit/PlatformLibrary/LIB_Feedbacks\Feedbacks.c **** }
 462                             		.loc 1 645 0
 463 001c 5B 11                   		movu.B	r1, r1
 464 001e 02                      		rts
 465                             	.LFE9:
 467                             		.comm	_FeedbackStatus,64,4
 468                             		.comm	_FeedbackInputDisable,1,1
 469                             		.comm	_Feedback,8,1
 470 001f 03                      		.section	.bss.FeedbackDescriptor,"aw",@nobits
 471                             		.balign 2
 474                             	_FeedbackDescriptor:
 475 0000 00 00 00 00 00 00 00 00 		.zero	16
 475      00 00 00 00 00 00 00 00 
 594                             	.Letext0:
 595                             		.file 2 "C:\\Workspace\\FW_Inertia\\branch_indesit\\HAL\\HAL_General/StandardTypes.h"
 596                             		.file 3 "C:/Workspace/FW_Inertia/branch_indesit/PlatformLibrary/LIB_Feedbacks/FeedbacksExp.h"
 597                             		.file 4 "C:\\Workspace\\FW_Inertia\\branch_indesit\\PlatformLibrary\\LIB_Error/LIB_Error.h"
 598                             		.file 5 "C:\\Workspace\\FW_Inertia\\branch_indesit\\PlatformLibrary\\LIB_IOManager/InputManagerExp
 599                             		.file 6 "C:\\Workspace\\FW_Inertia\\branch_indesit\\PlatformLibrary\\LIB_DigitalIO/DigitalInputs.h
DEFINED SYMBOLS
                            *ABS*:00000000 Feedbacks.c
C:\Users\Andrea\AppData\Local\Temp\ccypa4vm.s:7      .text.LIB_FDB_FeedbackInitMeasure:00000000 _LIB_FDB_FeedbackInitMeasure
C:\Users\Andrea\AppData\Local\Temp\ccypa4vm.s:13     .text.LIB_FDB_FeedbackInitMeasure:00000000 L0
                            *COM*:00000040 _FeedbackStatus
C:\Users\Andrea\AppData\Local\Temp\ccypa4vm.s:42     .text.LIB_FDB_AreFeedbackReady:00000000 _LIB_FDB_AreFeedbackReady
C:\Users\Andrea\AppData\Local\Temp\ccypa4vm.s:47     .text.LIB_FDB_AreFeedbackReady:00000000 L0
C:\Users\Andrea\AppData\Local\Temp\ccypa4vm.s:474    .bss.FeedbackDescriptor:00000000 _FeedbackDescriptor
C:\Users\Andrea\AppData\Local\Temp\ccypa4vm.s:79     .text.LIB_FDB_InitSync:00000000 _LIB_FDB_InitSync
C:\Users\Andrea\AppData\Local\Temp\ccypa4vm.s:83     .text.LIB_FDB_InitSync:00000000 L0
                            *COM*:00000001 _FeedbackInputDisable
C:\Users\Andrea\AppData\Local\Temp\ccypa4vm.s:101    .text.LIB_FDB_GetFeedbackVal:00000000 _LIB_FDB_GetFeedbackVal
C:\Users\Andrea\AppData\Local\Temp\ccypa4vm.s:106    .text.LIB_FDB_GetFeedbackVal:00000000 L0
                            *COM*:00000008 _Feedback
C:\Users\Andrea\AppData\Local\Temp\ccypa4vm.s:118    .text.LIB_FDB_GetFeedbackInput:00000000 _LIB_FDB_GetFeedbackInput
C:\Users\Andrea\AppData\Local\Temp\ccypa4vm.s:123    .text.LIB_FDB_GetFeedbackInput:00000000 L0
C:\Users\Andrea\AppData\Local\Temp\ccypa4vm.s:137    .text.LIB_FDB_IsFeedbackReady:00000000 _LIB_FDB_IsFeedbackReady
C:\Users\Andrea\AppData\Local\Temp\ccypa4vm.s:142    .text.LIB_FDB_IsFeedbackReady:00000000 L0
C:\Users\Andrea\AppData\Local\Temp\ccypa4vm.s:155    .text.LIB_FDB_RegisterFeedback:00000000 _LIB_FDB_RegisterFeedback
C:\Users\Andrea\AppData\Local\Temp\ccypa4vm.s:160    .text.LIB_FDB_RegisterFeedback:00000000 L0
C:\Users\Andrea\AppData\Local\Temp\ccypa4vm.s:203    .text.LIB_FDB_Manager:00000000 _LIB_FDB_Manager
C:\Users\Andrea\AppData\Local\Temp\ccypa4vm.s:207    .text.LIB_FDB_Manager:00000000 L0
C:\Users\Andrea\AppData\Local\Temp\ccypa4vm.s:417    .text.LIB_FDB_IsFeedbackWritableReady:00000000 _LIB_FDB_IsFeedbackWritableReady
C:\Users\Andrea\AppData\Local\Temp\ccypa4vm.s:422    .text.LIB_FDB_IsFeedbackWritableReady:00000000 L0
C:\Users\Andrea\AppData\Local\Temp\ccypa4vm.s:436    .text.LIB_FDB_GetFeedbackWritableBitMap:00000000 _LIB_FDB_GetFeedbackWritableBitMap
C:\Users\Andrea\AppData\Local\Temp\ccypa4vm.s:441    .text.LIB_FDB_GetFeedbackWritableBitMap:00000000 L0
C:\Users\Andrea\AppData\Local\Temp\ccypa4vm.s:477    .debug_frame:00000000 .Lframe0
C:\Users\Andrea\AppData\Local\Temp\ccypa4vm.s:8      .text.LIB_FDB_FeedbackInitMeasure:00000000 .LFB0
C:\Users\Andrea\AppData\Local\Temp\ccypa4vm.s:43     .text.LIB_FDB_AreFeedbackReady:00000000 .LFB1
C:\Users\Andrea\AppData\Local\Temp\ccypa4vm.s:80     .text.LIB_FDB_InitSync:00000000 .LFB2
C:\Users\Andrea\AppData\Local\Temp\ccypa4vm.s:102    .text.LIB_FDB_GetFeedbackVal:00000000 .LFB3
C:\Users\Andrea\AppData\Local\Temp\ccypa4vm.s:119    .text.LIB_FDB_GetFeedbackInput:00000000 .LFB4
C:\Users\Andrea\AppData\Local\Temp\ccypa4vm.s:138    .text.LIB_FDB_IsFeedbackReady:00000000 .LFB5
C:\Users\Andrea\AppData\Local\Temp\ccypa4vm.s:156    .text.LIB_FDB_RegisterFeedback:00000000 .LFB6
C:\Users\Andrea\AppData\Local\Temp\ccypa4vm.s:204    .text.LIB_FDB_Manager:00000000 .LFB7
C:\Users\Andrea\AppData\Local\Temp\ccypa4vm.s:418    .text.LIB_FDB_IsFeedbackWritableReady:00000000 .LFB8
C:\Users\Andrea\AppData\Local\Temp\ccypa4vm.s:437    .text.LIB_FDB_GetFeedbackWritableBitMap:00000000 .LFB9
C:\Users\Andrea\AppData\Local\Temp\ccypa4vm.s:1655   .debug_abbrev:00000000 .Ldebug_abbrev0
C:\Users\Andrea\AppData\Local\Temp\ccypa4vm.s:2778   .debug_str:0000035e .LASF155
C:\Users\Andrea\AppData\Local\Temp\ccypa4vm.s:2884   .debug_str:0000087c .LASF156
C:\Users\Andrea\AppData\Local\Temp\ccypa4vm.s:2676   .debug_ranges:00000000 .Ldebug_ranges0
C:\Users\Andrea\AppData\Local\Temp\ccypa4vm.s:2700   .debug_line:00000000 .Ldebug_line0
C:\Users\Andrea\AppData\Local\Temp\ccypa4vm.s:2912   .debug_str:000009f3 .LASF0
C:\Users\Andrea\AppData\Local\Temp\ccypa4vm.s:2762   .debug_str:000002a1 .LASF6
C:\Users\Andrea\AppData\Local\Temp\ccypa4vm.s:2818   .debug_str:0000054d .LASF1
C:\Users\Andrea\AppData\Local\Temp\ccypa4vm.s:2808   .debug_str:000004ed .LASF2
C:\Users\Andrea\AppData\Local\Temp\ccypa4vm.s:2722   .debug_str:00000116 .LASF3
C:\Users\Andrea\AppData\Local\Temp\ccypa4vm.s:2730   .debug_str:00000151 .LASF4
C:\Users\Andrea\AppData\Local\Temp\ccypa4vm.s:2740   .debug_str:000001b4 .LASF5
C:\Users\Andrea\AppData\Local\Temp\ccypa4vm.s:2982   .debug_str:00000d40 .LASF7
C:\Users\Andrea\AppData\Local\Temp\ccypa4vm.s:2904   .debug_str:000009b2 .LASF8
C:\Users\Andrea\AppData\Local\Temp\ccypa4vm.s:2966   .debug_str:00000cbc .LASF9
C:\Users\Andrea\AppData\Local\Temp\ccypa4vm.s:2742   .debug_str:000001c2 .LASF10
C:\Users\Andrea\AppData\Local\Temp\ccypa4vm.s:2750   .debug_str:0000021c .LASF11
C:\Users\Andrea\AppData\Local\Temp\ccypa4vm.s:2940   .debug_str:00000b2f .LASF12
C:\Users\Andrea\AppData\Local\Temp\ccypa4vm.s:2860   .debug_str:0000073a .LASF13
C:\Users\Andrea\AppData\Local\Temp\ccypa4vm.s:2934   .debug_str:00000af6 .LASF14
C:\Users\Andrea\AppData\Local\Temp\ccypa4vm.s:2746   .debug_str:000001e6 .LASF15
C:\Users\Andrea\AppData\Local\Temp\ccypa4vm.s:2726   .debug_str:0000012e .LASF16
C:\Users\Andrea\AppData\Local\Temp\ccypa4vm.s:2930   .debug_str:00000ad0 .LASF17
C:\Users\Andrea\AppData\Local\Temp\ccypa4vm.s:2932   .debug_str:00000ae3 .LASF18
C:\Users\Andrea\AppData\Local\Temp\ccypa4vm.s:2712   .debug_str:0000009b .LASF19
C:\Users\Andrea\AppData\Local\Temp\ccypa4vm.s:2714   .debug_str:000000ae .LASF20
C:\Users\Andrea\AppData\Local\Temp\ccypa4vm.s:2986   .debug_str:00000d68 .LASF21
C:\Users\Andrea\AppData\Local\Temp\ccypa4vm.s:2776   .debug_str:0000034a .LASF22
C:\Users\Andrea\AppData\Local\Temp\ccypa4vm.s:2892   .debug_str:00000929 .LASF23
C:\Users\Andrea\AppData\Local\Temp\ccypa4vm.s:2894   .debug_str:0000093e .LASF24
C:\Users\Andrea\AppData\Local\Temp\ccypa4vm.s:2834   .debug_str:0000060f .LASF25
C:\Users\Andrea\AppData\Local\Temp\ccypa4vm.s:2794   .debug_str:0000041b .LASF26
C:\Users\Andrea\AppData\Local\Temp\ccypa4vm.s:2924   .debug_str:00000a7b .LASF27
C:\Users\Andrea\AppData\Local\Temp\ccypa4vm.s:2876   .debug_str:000007f0 .LASF28
C:\Users\Andrea\AppData\Local\Temp\ccypa4vm.s:2958   .debug_str:00000c22 .LASF29
C:\Users\Andrea\AppData\Local\Temp\ccypa4vm.s:2838   .debug_str:00000648 .LASF30
C:\Users\Andrea\AppData\Local\Temp\ccypa4vm.s:2948   .debug_str:00000b7a .LASF31
C:\Users\Andrea\AppData\Local\Temp\ccypa4vm.s:2992   .debug_str:00000da6 .LASF32
C:\Users\Andrea\AppData\Local\Temp\ccypa4vm.s:2920   .debug_str:00000a34 .LASF33
C:\Users\Andrea\AppData\Local\Temp\ccypa4vm.s:3010   .debug_str:00000e8d .LASF34
C:\Users\Andrea\AppData\Local\Temp\ccypa4vm.s:2782   .debug_str:0000038f .LASF35
C:\Users\Andrea\AppData\Local\Temp\ccypa4vm.s:3012   .debug_str:00000ea4 .LASF36
C:\Users\Andrea\AppData\Local\Temp\ccypa4vm.s:2786   .debug_str:000003b1 .LASF37
C:\Users\Andrea\AppData\Local\Temp\ccypa4vm.s:2788   .debug_str:000003c8 .LASF38
C:\Users\Andrea\AppData\Local\Temp\ccypa4vm.s:2790   .debug_str:000003df .LASF39
C:\Users\Andrea\AppData\Local\Temp\ccypa4vm.s:3018   .debug_str:00000eef .LASF40
C:\Users\Andrea\AppData\Local\Temp\ccypa4vm.s:2702   .debug_str:00000000 .LASF41
C:\Users\Andrea\AppData\Local\Temp\ccypa4vm.s:3000   .debug_str:00000e30 .LASF42
C:\Users\Andrea\AppData\Local\Temp\ccypa4vm.s:3004   .debug_str:00000e51 .LASF43
C:\Users\Andrea\AppData\Local\Temp\ccypa4vm.s:2862   .debug_str:00000743 .LASF44
C:\Users\Andrea\AppData\Local\Temp\ccypa4vm.s:2864   .debug_str:0000075b .LASF45
C:\Users\Andrea\AppData\Local\Temp\ccypa4vm.s:2866   .debug_str:00000773 .LASF46
C:\Users\Andrea\AppData\Local\Temp\ccypa4vm.s:3008   .debug_str:00000e75 .LASF47
C:\Users\Andrea\AppData\Local\Temp\ccypa4vm.s:2870   .debug_str:000007a5 .LASF48
C:\Users\Andrea\AppData\Local\Temp\ccypa4vm.s:2872   .debug_str:000007bd .LASF49
C:\Users\Andrea\AppData\Local\Temp\ccypa4vm.s:2820   .debug_str:00000560 .LASF50
C:\Users\Andrea\AppData\Local\Temp\ccypa4vm.s:2822   .debug_str:00000579 .LASF51
C:\Users\Andrea\AppData\Local\Temp\ccypa4vm.s:2824   .debug_str:00000592 .LASF52
C:\Users\Andrea\AppData\Local\Temp\ccypa4vm.s:2826   .debug_str:000005ab .LASF53
C:\Users\Andrea\AppData\Local\Temp\ccypa4vm.s:2828   .debug_str:000005c4 .LASF54
C:\Users\Andrea\AppData\Local\Temp\ccypa4vm.s:3014   .debug_str:00000ebb .LASF55
C:\Users\Andrea\AppData\Local\Temp\ccypa4vm.s:2830   .debug_str:000005dd .LASF56
C:\Users\Andrea\AppData\Local\Temp\ccypa4vm.s:2832   .debug_str:000005f6 .LASF57
C:\Users\Andrea\AppData\Local\Temp\ccypa4vm.s:2896   .debug_str:00000953 .LASF58
C:\Users\Andrea\AppData\Local\Temp\ccypa4vm.s:2962   .debug_str:00000c7d .LASF59
C:\Users\Andrea\AppData\Local\Temp\ccypa4vm.s:2960   .debug_str:00000c58 .LASF60
C:\Users\Andrea\AppData\Local\Temp\ccypa4vm.s:2848   .debug_str:000006d5 .LASF61
C:\Users\Andrea\AppData\Local\Temp\ccypa4vm.s:2708   .debug_str:0000005e .LASF62
C:\Users\Andrea\AppData\Local\Temp\ccypa4vm.s:2922   .debug_str:00000a68 .LASF63
C:\Users\Andrea\AppData\Local\Temp\ccypa4vm.s:3016   .debug_str:00000edf .LASF64
C:\Users\Andrea\AppData\Local\Temp\ccypa4vm.s:2724   .debug_str:0000011f .LASF65
C:\Users\Andrea\AppData\Local\Temp\ccypa4vm.s:2796   .debug_str:00000457 .LASF66
C:\Users\Andrea\AppData\Local\Temp\ccypa4vm.s:2964   .debug_str:00000ca2 .LASF67
C:\Users\Andrea\AppData\Local\Temp\ccypa4vm.s:2800   .debug_str:00000496 .LASF68
C:\Users\Andrea\AppData\Local\Temp\ccypa4vm.s:2770   .debug_str:000002fe .LASF69
C:\Users\Andrea\AppData\Local\Temp\ccypa4vm.s:2792   .debug_str:000003f6 .LASF70
C:\Users\Andrea\AppData\Local\Temp\ccypa4vm.s:2764   .debug_str:000002aa .LASF71
C:\Users\Andrea\AppData\Local\Temp\ccypa4vm.s:2878   .debug_str:00000824 .LASF72
C:\Users\Andrea\AppData\Local\Temp\ccypa4vm.s:2816   .debug_str:00000529 .LASF73
C:\Users\Andrea\AppData\Local\Temp\ccypa4vm.s:2774   .debug_str:0000032a .LASF74
C:\Users\Andrea\AppData\Local\Temp\ccypa4vm.s:2974   .debug_str:00000cf0 .LASF75
C:\Users\Andrea\AppData\Local\Temp\ccypa4vm.s:2766   .debug_str:000002c6 .LASF76
C:\Users\Andrea\AppData\Local\Temp\ccypa4vm.s:2996   .debug_str:00000de1 .LASF77
C:\Users\Andrea\AppData\Local\Temp\ccypa4vm.s:2990   .debug_str:00000d81 .LASF78
C:\Users\Andrea\AppData\Local\Temp\ccypa4vm.s:2720   .debug_str:000000f0 .LASF79
C:\Users\Andrea\AppData\Local\Temp\ccypa4vm.s:2758   .debug_str:00000263 .LASF80
C:\Users\Andrea\AppData\Local\Temp\ccypa4vm.s:2998   .debug_str:00000e0c .LASF81
C:\Users\Andrea\AppData\Local\Temp\ccypa4vm.s:2938   .debug_str:00000b10 .LASF82
C:\Users\Andrea\AppData\Local\Temp\ccypa4vm.s:2868   .debug_str:0000078b .LASF83
C:\Users\Andrea\AppData\Local\Temp\ccypa4vm.s:2976   .debug_str:00000d0a .LASF84
C:\Users\Andrea\AppData\Local\Temp\ccypa4vm.s:2752   .debug_str:00000223 .LASF85
C:\Users\Andrea\AppData\Local\Temp\ccypa4vm.s:2798   .debug_str:00000474 .LASF86
C:\Users\Andrea\AppData\Local\Temp\ccypa4vm.s:2748   .debug_str:000001f9 .LASF87
C:\Users\Andrea\AppData\Local\Temp\ccypa4vm.s:2952   .debug_str:00000bbd .LASF88
C:\Users\Andrea\AppData\Local\Temp\ccypa4vm.s:2880   .debug_str:0000083e .LASF89
C:\Users\Andrea\AppData\Local\Temp\ccypa4vm.s:2886   .debug_str:000008cd .LASF90
C:\Users\Andrea\AppData\Local\Temp\ccypa4vm.s:2954   .debug_str:00000bec .LASF91
C:\Users\Andrea\AppData\Local\Temp\ccypa4vm.s:2732   .debug_str:00000168 .LASF92
C:\Users\Andrea\AppData\Local\Temp\ccypa4vm.s:2704   .debug_str:00000017 .LASF93
C:\Users\Andrea\AppData\Local\Temp\ccypa4vm.s:2856   .debug_str:00000703 .LASF94
C:\Users\Andrea\AppData\Local\Temp\ccypa4vm.s:2984   .debug_str:00000d48 .LASF95
C:\Users\Andrea\AppData\Local\Temp\ccypa4vm.s:2760   .debug_str:00000287 .LASF96
C:\Users\Andrea\AppData\Local\Temp\ccypa4vm.s:2756   .debug_str:0000024b .LASF97
C:\Users\Andrea\AppData\Local\Temp\ccypa4vm.s:2918   .debug_str:00000a15 .LASF98
C:\Users\Andrea\AppData\Local\Temp\ccypa4vm.s:2910   .debug_str:000009d5 .LASF99
C:\Users\Andrea\AppData\Local\Temp\ccypa4vm.s:2846   .debug_str:000006ba .LASF100
C:\Users\Andrea\AppData\Local\Temp\ccypa4vm.s:2968   .debug_str:00000cc3 .LASF101
C:\Users\Andrea\AppData\Local\Temp\ccypa4vm.s:2936   .debug_str:00000afb .LASF102
C:\Users\Andrea\AppData\Local\Temp\ccypa4vm.s:2978   .debug_str:00000d21 .LASF103
C:\Users\Andrea\AppData\Local\Temp\ccypa4vm.s:2942   .debug_str:00000b3c .LASF104
C:\Users\Andrea\AppData\Local\Temp\ccypa4vm.s:2718   .debug_str:000000d7 .LASF105
C:\Users\Andrea\AppData\Local\Temp\ccypa4vm.s:2874   .debug_str:000007d5 .LASF106
C:\Users\Andrea\AppData\Local\Temp\ccypa4vm.s:2768   .debug_str:000002e4 .LASF107
C:\Users\Andrea\AppData\Local\Temp\ccypa4vm.s:2956   .debug_str:00000c17 .LASF108
C:\Users\Andrea\AppData\Local\Temp\ccypa4vm.s:2850   .debug_str:000006ea .LASF109
C:\Users\Andrea\AppData\Local\Temp\ccypa4vm.s:2916   .debug_str:00000a0c .LASF110
C:\Users\Andrea\AppData\Local\Temp\ccypa4vm.s:2908   .debug_str:000009c9 .LASF111
C:\Users\Andrea\AppData\Local\Temp\ccypa4vm.s:2970   .debug_str:00000ce0 .LASF112
C:\Users\Andrea\AppData\Local\Temp\ccypa4vm.s:2852   .debug_str:000006f3 .LASF113
C:\Users\Andrea\AppData\Local\Temp\ccypa4vm.s:2804   .debug_str:000004c2 .LASF122
C:\Users\Andrea\AppData\Local\Temp\ccypa4vm.s:2728   .debug_str:0000013d .LASF114
C:\Users\Andrea\AppData\Local\Temp\ccypa4vm.s:2754   .debug_str:00000244 .LASF115
C:\Users\Andrea\AppData\Local\Temp\ccypa4vm.s:2906   .debug_str:000009c0 .LASF116
C:\Users\Andrea\AppData\Local\Temp\ccypa4vm.s:2994   .debug_str:00000ddb .LASF117
C:\Users\Andrea\AppData\Local\Temp\ccypa4vm.s:3002   .debug_str:00000e48 .LASF118
C:\Users\Andrea\AppData\Local\Temp\ccypa4vm.s:2734   .debug_str:00000199 .LASF119
C:\Users\Andrea\AppData\Local\Temp\ccypa4vm.s:2980   .debug_str:00000d3a .LASF120
C:\Users\Andrea\AppData\Local\Temp\ccypa4vm.s:2810   .debug_str:000004ff .LASF121
C:\Users\Andrea\AppData\Local\Temp\ccypa4vm.s:2888   .debug_str:000008fb .LASF123
C:\Users\Andrea\AppData\Local\Temp\ccypa4vm.s:2946   .debug_str:00000b67 .LASF124
C:\Users\Andrea\AppData\Local\Temp\ccypa4vm.s:2780   .debug_str:00000384 .LASF125
C:\Users\Andrea\AppData\Local\Temp\ccypa4vm.s:2926   .debug_str:00000ab0 .LASF126
C:\Users\Andrea\AppData\Local\Temp\ccypa4vm.s:2842   .debug_str:00000697 .LASF127
C:\Users\Andrea\AppData\Local\Temp\ccypa4vm.s:2988   .debug_str:00000d7b .LASF128
C:\Users\Andrea\AppData\Local\Temp\ccypa4vm.s:2950   .debug_str:00000baf .LASF129
C:\Users\Andrea\AppData\Local\Temp\ccypa4vm.s:2836   .debug_str:0000063e .LASF130
C:\Users\Andrea\AppData\Local\Temp\ccypa4vm.s:2882   .debug_str:0000086d .LASF131
C:\Users\Andrea\AppData\Local\Temp\ccypa4vm.s:2858   .debug_str:0000071e .LASF132
C:\Users\Andrea\AppData\Local\Temp\ccypa4vm.s:37     .text.LIB_FDB_FeedbackInitMeasure:0000002b .LFE0
C:\Users\Andrea\AppData\Local\Temp\ccypa4vm.s:2360   .debug_loc:00000000 .LLST0
C:\Users\Andrea\AppData\Local\Temp\ccypa4vm.s:36     .text.LIB_FDB_FeedbackInitMeasure:0000002b .LVL2
C:\Users\Andrea\AppData\Local\Temp\ccypa4vm.s:2928   .debug_str:00000ab7 .LASF134
C:\Users\Andrea\AppData\Local\Temp\ccypa4vm.s:74     .text.LIB_FDB_AreFeedbackReady:00000029 .LFE1
C:\Users\Andrea\AppData\Local\Temp\ccypa4vm.s:2374   .debug_loc:00000021 .LLST1
C:\Users\Andrea\AppData\Local\Temp\ccypa4vm.s:2944   .debug_str:00000b56 .LASF133
C:\Users\Andrea\AppData\Local\Temp\ccypa4vm.s:96     .text.LIB_FDB_InitSync:00000021 .LFE2
C:\Users\Andrea\AppData\Local\Temp\ccypa4vm.s:2890   .debug_str:00000912 .LASF135
C:\Users\Andrea\AppData\Local\Temp\ccypa4vm.s:113    .text.LIB_FDB_GetFeedbackVal:0000000b .LFE3
C:\Users\Andrea\AppData\Local\Temp\ccypa4vm.s:2382   .debug_loc:00000035 .LLST2
C:\Users\Andrea\AppData\Local\Temp\ccypa4vm.s:2706   .debug_str:00000045 .LASF136
C:\Users\Andrea\AppData\Local\Temp\ccypa4vm.s:132    .text.LIB_FDB_GetFeedbackInput:00000015 .LFE4
C:\Users\Andrea\AppData\Local\Temp\ccypa4vm.s:2405   .debug_loc:00000069 .LLST3
C:\Users\Andrea\AppData\Local\Temp\ccypa4vm.s:131    .text.LIB_FDB_GetFeedbackInput:00000015 .LVL11
C:\Users\Andrea\AppData\Local\Temp\ccypa4vm.s:2744   .debug_str:000001ce .LASF137
C:\Users\Andrea\AppData\Local\Temp\ccypa4vm.s:150    .text.LIB_FDB_IsFeedbackReady:00000011 .LFE5
C:\Users\Andrea\AppData\Local\Temp\ccypa4vm.s:2419   .debug_loc:0000008a .LLST4
C:\Users\Andrea\AppData\Local\Temp\ccypa4vm.s:2840   .debug_str:0000067e .LASF138
C:\Users\Andrea\AppData\Local\Temp\ccypa4vm.s:198    .text.LIB_FDB_RegisterFeedback:0000003d .LFE6
C:\Users\Andrea\AppData\Local\Temp\ccypa4vm.s:2433   .debug_loc:000000ab .LLST5
C:\Users\Andrea\AppData\Local\Temp\ccypa4vm.s:2447   .debug_loc:000000cc .LLST6
C:\Users\Andrea\AppData\Local\Temp\ccypa4vm.s:2472   .debug_loc:00000106 .LLST7
C:\Users\Andrea\AppData\Local\Temp\ccypa4vm.s:3006   .debug_str:00000e69 .LASF139
C:\Users\Andrea\AppData\Local\Temp\ccypa4vm.s:2497   .debug_loc:00000140 .LLST8
C:\Users\Andrea\AppData\Local\Temp\ccypa4vm.s:2812   .debug_str:00000509 .LASF140
C:\Users\Andrea\AppData\Local\Temp\ccypa4vm.s:2522   .debug_loc:0000017a .LLST9
C:\Users\Andrea\AppData\Local\Temp\ccypa4vm.s:197    .text.LIB_FDB_RegisterFeedback:0000003d .LVL21
C:\Users\Andrea\AppData\Local\Temp\ccypa4vm.s:2802   .debug_str:000004b2 .LASF141
C:\Users\Andrea\AppData\Local\Temp\ccypa4vm.s:412    .text.LIB_FDB_Manager:0000012c .LFE7
C:\Users\Andrea\AppData\Local\Temp\ccypa4vm.s:2529   .debug_loc:0000018d .LLST10
C:\Users\Andrea\AppData\Local\Temp\ccypa4vm.s:2738   .debug_str:000001ab .LASF142
C:\Users\Andrea\AppData\Local\Temp\ccypa4vm.s:2542   .debug_loc:000001ad .LLST11
C:\Users\Andrea\AppData\Local\Temp\ccypa4vm.s:2902   .debug_str:000009a4 .LASF143
C:\Users\Andrea\AppData\Local\Temp\ccypa4vm.s:2553   .debug_loc:000001cb .LLST12
C:\Users\Andrea\AppData\Local\Temp\ccypa4vm.s:2736   .debug_str:0000019e .LASF157
C:\Users\Andrea\AppData\Local\Temp\ccypa4vm.s:2564   .debug_loc:000001e9 .LLST13
C:\Users\Andrea\AppData\Local\Temp\ccypa4vm.s:2898   .debug_str:00000973 .LASF144
C:\Users\Andrea\AppData\Local\Temp\ccypa4vm.s:2572   .debug_loc:000001fd .LLST14
C:\Users\Andrea\AppData\Local\Temp\ccypa4vm.s:2854   .debug_str:000006fc .LASF145
C:\Users\Andrea\AppData\Local\Temp\ccypa4vm.s:2585   .debug_loc:0000021d .LLST15
C:\Users\Andrea\AppData\Local\Temp\ccypa4vm.s:2784   .debug_str:000003a6 .LASF146
C:\Users\Andrea\AppData\Local\Temp\ccypa4vm.s:2604   .debug_loc:00000251 .LLST16
C:\Users\Andrea\AppData\Local\Temp\ccypa4vm.s:259    .text.LIB_FDB_Manager:00000055 .LBB2
C:\Users\Andrea\AppData\Local\Temp\ccypa4vm.s:291    .text.LIB_FDB_Manager:00000075 .LBE2
C:\Users\Andrea\AppData\Local\Temp\ccypa4vm.s:2716   .debug_str:000000c1 .LASF153
C:\Users\Andrea\AppData\Local\Temp\ccypa4vm.s:262    .text.LIB_FDB_Manager:00000059 .LVL27
C:\Users\Andrea\AppData\Local\Temp\ccypa4vm.s:239    .text.LIB_FDB_Manager:00000040 .LVL25
C:\Users\Andrea\AppData\Local\Temp\ccypa4vm.s:2900   .debug_str:00000984 .LASF147
C:\Users\Andrea\AppData\Local\Temp\ccypa4vm.s:431    .text.LIB_FDB_IsFeedbackWritableReady:00000013 .LFE8
C:\Users\Andrea\AppData\Local\Temp\ccypa4vm.s:2611   .debug_loc:00000264 .LLST17
C:\Users\Andrea\AppData\Local\Temp\ccypa4vm.s:2710   .debug_str:00000079 .LASF148
C:\Users\Andrea\AppData\Local\Temp\ccypa4vm.s:465    .text.LIB_FDB_GetFeedbackWritableBitMap:0000001f .LFE9
C:\Users\Andrea\AppData\Local\Temp\ccypa4vm.s:2625   .debug_loc:00000285 .LLST18
C:\Users\Andrea\AppData\Local\Temp\ccypa4vm.s:2633   .debug_loc:00000299 .LLST19
C:\Users\Andrea\AppData\Local\Temp\ccypa4vm.s:2814   .debug_str:00000516 .LASF149
C:\Users\Andrea\AppData\Local\Temp\ccypa4vm.s:2972   .debug_str:00000ce7 .LASF150
C:\Users\Andrea\AppData\Local\Temp\ccypa4vm.s:2806   .debug_str:000004d8 .LASF151
C:\Users\Andrea\AppData\Local\Temp\ccypa4vm.s:2914   .debug_str:000009fd .LASF152
C:\Users\Andrea\AppData\Local\Temp\ccypa4vm.s:2844   .debug_str:000006a2 .LASF154
C:\Users\Andrea\AppData\Local\Temp\ccypa4vm.s:2772   .debug_str:00000318 .LASF158
C:\Users\Andrea\AppData\Local\Temp\ccypa4vm.s:11     .text.LIB_FDB_FeedbackInitMeasure:00000000 .LVL0
C:\Users\Andrea\AppData\Local\Temp\ccypa4vm.s:34     .text.LIB_FDB_FeedbackInitMeasure:00000027 .LVL1
C:\Users\Andrea\AppData\Local\Temp\ccypa4vm.s:45     .text.LIB_FDB_AreFeedbackReady:00000000 .LVL3
C:\Users\Andrea\AppData\Local\Temp\ccypa4vm.s:48     .text.LIB_FDB_AreFeedbackReady:00000002 .LVL4
C:\Users\Andrea\AppData\Local\Temp\ccypa4vm.s:104    .text.LIB_FDB_GetFeedbackVal:00000000 .LVL6
C:\Users\Andrea\AppData\Local\Temp\ccypa4vm.s:108    .text.LIB_FDB_GetFeedbackVal:00000008 .LVL7
C:\Users\Andrea\AppData\Local\Temp\ccypa4vm.s:111    .text.LIB_FDB_GetFeedbackVal:0000000a .LVL8
C:\Users\Andrea\AppData\Local\Temp\ccypa4vm.s:121    .text.LIB_FDB_GetFeedbackInput:00000000 .LVL9
C:\Users\Andrea\AppData\Local\Temp\ccypa4vm.s:125    .text.LIB_FDB_GetFeedbackInput:00000004 .LVL10
C:\Users\Andrea\AppData\Local\Temp\ccypa4vm.s:140    .text.LIB_FDB_IsFeedbackReady:00000000 .LVL12
C:\Users\Andrea\AppData\Local\Temp\ccypa4vm.s:146    .text.LIB_FDB_IsFeedbackReady:0000000e .LVL13
C:\Users\Andrea\AppData\Local\Temp\ccypa4vm.s:158    .text.LIB_FDB_RegisterFeedback:00000000 .LVL14
C:\Users\Andrea\AppData\Local\Temp\ccypa4vm.s:165    .text.LIB_FDB_RegisterFeedback:00000008 .LVL15
C:\Users\Andrea\AppData\Local\Temp\ccypa4vm.s:182    .text.LIB_FDB_RegisterFeedback:00000027 .LVL18
C:\Users\Andrea\AppData\Local\Temp\ccypa4vm.s:192    .text.LIB_FDB_RegisterFeedback:00000037 .LVL20
C:\Users\Andrea\AppData\Local\Temp\ccypa4vm.s:174    .text.LIB_FDB_RegisterFeedback:00000019 .LVL17
C:\Users\Andrea\AppData\Local\Temp\ccypa4vm.s:185    .text.LIB_FDB_RegisterFeedback:0000002b .LVL19
C:\Users\Andrea\AppData\Local\Temp\ccypa4vm.s:167    .text.LIB_FDB_RegisterFeedback:0000000e .LVL16
C:\Users\Andrea\AppData\Local\Temp\ccypa4vm.s:208    .text.LIB_FDB_Manager:00000002 .LCFI0
C:\Users\Andrea\AppData\Local\Temp\ccypa4vm.s:206    .text.LIB_FDB_Manager:00000000 .LVL22
C:\Users\Andrea\AppData\Local\Temp\ccypa4vm.s:221    .text.LIB_FDB_Manager:0000001c .LVL24
C:\Users\Andrea\AppData\Local\Temp\ccypa4vm.s:211    .text.LIB_FDB_Manager:00000006 .LVL23
C:\Users\Andrea\AppData\Local\Temp\ccypa4vm.s:312    .text.LIB_FDB_Manager:00000099 .LVL30
C:\Users\Andrea\AppData\Local\Temp\ccypa4vm.s:369    .text.LIB_FDB_Manager:000000ea .LVL31
C:\Users\Andrea\AppData\Local\Temp\ccypa4vm.s:387    .text.LIB_FDB_Manager:00000105 .LVL32
C:\Users\Andrea\AppData\Local\Temp\ccypa4vm.s:241    .text.LIB_FDB_Manager:00000042 .LVL26
C:\Users\Andrea\AppData\Local\Temp\ccypa4vm.s:289    .text.LIB_FDB_Manager:00000075 .LVL28
C:\Users\Andrea\AppData\Local\Temp\ccypa4vm.s:301    .text.LIB_FDB_Manager:0000008a .LVL29
C:\Users\Andrea\AppData\Local\Temp\ccypa4vm.s:402    .text.LIB_FDB_Manager:00000120 .LVL33
C:\Users\Andrea\AppData\Local\Temp\ccypa4vm.s:420    .text.LIB_FDB_IsFeedbackWritableReady:00000000 .LVL34
C:\Users\Andrea\AppData\Local\Temp\ccypa4vm.s:426    .text.LIB_FDB_IsFeedbackWritableReady:0000000e .LVL35
C:\Users\Andrea\AppData\Local\Temp\ccypa4vm.s:439    .text.LIB_FDB_GetFeedbackWritableBitMap:00000000 .LVL36
C:\Users\Andrea\AppData\Local\Temp\ccypa4vm.s:444    .text.LIB_FDB_GetFeedbackWritableBitMap:00000004 .LVL37
C:\Users\Andrea\AppData\Local\Temp\ccypa4vm.s:455    .text.LIB_FDB_GetFeedbackWritableBitMap:00000015 .LVL38
C:\Users\Andrea\AppData\Local\Temp\ccypa4vm.s:601    .debug_info:00000000 .Ldebug_info0

UNDEFINED SYMBOLS
_LIB_Error_Fatal_Handler
_LIB_DIO_GET_INPUT
_LIB_ZC_GetCurrentEdge
