   1                             		.file	"InputManager.c"
   2                             		.section P,"ax"
   3                             	.Ltext0:
   4                             		.section	.text.LIB_IOM_InputInitialization,"ax",@progbits
   5                             		.global	_LIB_IOM_InputInitialization
   7                             	_LIB_IOM_InputInitialization:
   8                             	.LFB0:
   9                             		.file 1 "C:/Workspace/FW_Inertia/branch_indesit/PlatformLibrary/LIB_IOManager/InputManager.c"
   1:C:/Workspace/FW_Inertia/branch_indesit/PlatformLibrary/LIB_IOManager\InputManager.c **** /*
   2:C:/Workspace/FW_Inertia/branch_indesit/PlatformLibrary/LIB_IOManager\InputManager.c **** Copyright (c) 2004-2005, Indesit Company, I.D.D..
   3:C:/Workspace/FW_Inertia/branch_indesit/PlatformLibrary/LIB_IOManager\InputManager.c **** Tutti i diritti sono riservati. All rights reserved.
   4:C:/Workspace/FW_Inertia/branch_indesit/PlatformLibrary/LIB_IOManager\InputManager.c **** */
   5:C:/Workspace/FW_Inertia/branch_indesit/PlatformLibrary/LIB_IOManager\InputManager.c **** 
   6:C:/Workspace/FW_Inertia/branch_indesit/PlatformLibrary/LIB_IOManager\InputManager.c **** /**
   7:C:/Workspace/FW_Inertia/branch_indesit/PlatformLibrary/LIB_IOManager\InputManager.c **** 			Implementation of all functions necessary to achieve the aim.
   8:C:/Workspace/FW_Inertia/branch_indesit/PlatformLibrary/LIB_IOManager\InputManager.c **** \n
   9:C:/Workspace/FW_Inertia/branch_indesit/PlatformLibrary/LIB_IOManager\InputManager.c **** \file		InputManager.c
  10:C:/Workspace/FW_Inertia/branch_indesit/PlatformLibrary/LIB_IOManager\InputManager.c **** \ingroup	InputsManager
  11:C:/Workspace/FW_Inertia/branch_indesit/PlatformLibrary/LIB_IOManager\InputManager.c **** \date		Jun 8, 2010
  12:C:/Workspace/FW_Inertia/branch_indesit/PlatformLibrary/LIB_IOManager\InputManager.c **** \version	01.00.00
  13:C:/Workspace/FW_Inertia/branch_indesit/PlatformLibrary/LIB_IOManager\InputManager.c **** \author		stefano.ughi
  14:C:/Workspace/FW_Inertia/branch_indesit/PlatformLibrary/LIB_IOManager\InputManager.c **** \n
  15:C:/Workspace/FW_Inertia/branch_indesit/PlatformLibrary/LIB_IOManager\InputManager.c **** \n
  16:C:/Workspace/FW_Inertia/branch_indesit/PlatformLibrary/LIB_IOManager\InputManager.c **** \Par\b	History:
  17:C:/Workspace/FW_Inertia/branch_indesit/PlatformLibrary/LIB_IOManager\InputManager.c **** \n
  18:C:/Workspace/FW_Inertia/branch_indesit/PlatformLibrary/LIB_IOManager\InputManager.c **** \n 		01.00.00
  19:C:/Workspace/FW_Inertia/branch_indesit/PlatformLibrary/LIB_IOManager\InputManager.c **** \n		Jun 8, 2010
  20:C:/Workspace/FW_Inertia/branch_indesit/PlatformLibrary/LIB_IOManager\InputManager.c **** \n		Stefano Ughi
  21:C:/Workspace/FW_Inertia/branch_indesit/PlatformLibrary/LIB_IOManager\InputManager.c **** \n		changes
  22:C:/Workspace/FW_Inertia/branch_indesit/PlatformLibrary/LIB_IOManager\InputManager.c **** \n 	    - Creation
  23:C:/Workspace/FW_Inertia/branch_indesit/PlatformLibrary/LIB_IOManager\InputManager.c **** \n
  24:C:/Workspace/FW_Inertia/branch_indesit/PlatformLibrary/LIB_IOManager\InputManager.c **** \n
  25:C:/Workspace/FW_Inertia/branch_indesit/PlatformLibrary/LIB_IOManager\InputManager.c **** \n 		01.00.01
  26:C:/Workspace/FW_Inertia/branch_indesit/PlatformLibrary/LIB_IOManager\InputManager.c **** \n		Nov 15, 2010
  27:C:/Workspace/FW_Inertia/branch_indesit/PlatformLibrary/LIB_IOManager\InputManager.c **** \n		Stefano Ughi
  28:C:/Workspace/FW_Inertia/branch_indesit/PlatformLibrary/LIB_IOManager\InputManager.c **** \n		changes
  29:C:/Workspace/FW_Inertia/branch_indesit/PlatformLibrary/LIB_IOManager\InputManager.c **** \n 		- void LIB_IOM_InputInitialization( uint8_t resetType )
  30:C:/Workspace/FW_Inertia/branch_indesit/PlatformLibrary/LIB_IOManager\InputManager.c **** \n		  added error handling in input pin setup
  31:C:/Workspace/FW_Inertia/branch_indesit/PlatformLibrary/LIB_IOManager\InputManager.c **** \n        added new call to feedbacks's init. if defined PLATFORM2_FEEDBACK
  32:C:/Workspace/FW_Inertia/branch_indesit/PlatformLibrary/LIB_IOManager\InputManager.c **** \n
  33:C:/Workspace/FW_Inertia/branch_indesit/PlatformLibrary/LIB_IOManager\InputManager.c **** \n 		01.00.02
  34:C:/Workspace/FW_Inertia/branch_indesit/PlatformLibrary/LIB_IOManager\InputManager.c **** \n		Mar 30, 2011
  35:C:/Workspace/FW_Inertia/branch_indesit/PlatformLibrary/LIB_IOManager\InputManager.c **** \n		Stefano Ughi
  36:C:/Workspace/FW_Inertia/branch_indesit/PlatformLibrary/LIB_IOManager\InputManager.c **** \n		changes
  37:C:/Workspace/FW_Inertia/branch_indesit/PlatformLibrary/LIB_IOManager\InputManager.c **** \n 		- added #include "ProductModules_Cfg.h"
  38:C:/Workspace/FW_Inertia/branch_indesit/PlatformLibrary/LIB_IOManager\InputManager.c **** \n      - added define WILD_CARD to use with PLATFORM2_SUPPORT define
  39:C:/Workspace/FW_Inertia/branch_indesit/PlatformLibrary/LIB_IOManager\InputManager.c **** \n
  40:C:/Workspace/FW_Inertia/branch_indesit/PlatformLibrary/LIB_IOManager\InputManager.c **** \n etc.
  41:C:/Workspace/FW_Inertia/branch_indesit/PlatformLibrary/LIB_IOManager\InputManager.c **** */
  42:C:/Workspace/FW_Inertia/branch_indesit/PlatformLibrary/LIB_IOManager\InputManager.c **** #define MODULE_BODY_LIB_IOMANAGER
  43:C:/Workspace/FW_Inertia/branch_indesit/PlatformLibrary/LIB_IOManager\InputManager.c **** /* ******** */
  44:C:/Workspace/FW_Inertia/branch_indesit/PlatformLibrary/LIB_IOManager\InputManager.c **** /* Includes */
  45:C:/Workspace/FW_Inertia/branch_indesit/PlatformLibrary/LIB_IOManager\InputManager.c **** /* ******** */
  46:C:/Workspace/FW_Inertia/branch_indesit/PlatformLibrary/LIB_IOManager\InputManager.c **** 
  47:C:/Workspace/FW_Inertia/branch_indesit/PlatformLibrary/LIB_IOManager\InputManager.c **** #include "Config.h"
  48:C:/Workspace/FW_Inertia/branch_indesit/PlatformLibrary/LIB_IOManager\InputManager.c **** 
  49:C:/Workspace/FW_Inertia/branch_indesit/PlatformLibrary/LIB_IOManager\InputManager.c **** #include "LIB_Utilities.h"
  50:C:/Workspace/FW_Inertia/branch_indesit/PlatformLibrary/LIB_IOManager\InputManager.c **** #include "InputManager.h"
  51:C:/Workspace/FW_Inertia/branch_indesit/PlatformLibrary/LIB_IOManager\InputManager.c **** #include "LIB_Error.h"
  52:C:/Workspace/FW_Inertia/branch_indesit/PlatformLibrary/LIB_IOManager\InputManager.c **** /*#include "InputManagerExp.h"*/
  53:C:/Workspace/FW_Inertia/branch_indesit/PlatformLibrary/LIB_IOManager\InputManager.c **** 
  54:C:/Workspace/FW_Inertia/branch_indesit/PlatformLibrary/LIB_IOManager\InputManager.c **** #include "IOSharing.h"
  55:C:/Workspace/FW_Inertia/branch_indesit/PlatformLibrary/LIB_IOManager\InputManager.c **** #include "DigitalInputs.h"
  56:C:/Workspace/FW_Inertia/branch_indesit/PlatformLibrary/LIB_IOManager\InputManager.c **** #include "Analog.h"
  57:C:/Workspace/FW_Inertia/branch_indesit/PlatformLibrary/LIB_IOManager\InputManager.c **** #include "OCDIO_drv.h"
  58:C:/Workspace/FW_Inertia/branch_indesit/PlatformLibrary/LIB_IOManager\InputManager.c **** #include "LIB_ZeroCrossing.h"
  59:C:/Workspace/FW_Inertia/branch_indesit/PlatformLibrary/LIB_IOManager\InputManager.c **** #if defined(PLATFORM1_MODULES_USED)
  60:C:/Workspace/FW_Inertia/branch_indesit/PlatformLibrary/LIB_IOManager\InputManager.c **** #include "Feedback.h"
  61:C:/Workspace/FW_Inertia/branch_indesit/PlatformLibrary/LIB_IOManager\InputManager.c **** #else
  62:C:/Workspace/FW_Inertia/branch_indesit/PlatformLibrary/LIB_IOManager\InputManager.c **** #include "Feedbacks.h"
  63:C:/Workspace/FW_Inertia/branch_indesit/PlatformLibrary/LIB_IOManager\InputManager.c **** #endif
  64:C:/Workspace/FW_Inertia/branch_indesit/PlatformLibrary/LIB_IOManager\InputManager.c **** /*lint -e537*/
  65:C:/Workspace/FW_Inertia/branch_indesit/PlatformLibrary/LIB_IOManager\InputManager.c **** #include "ProductModules_Cfg.h"
  66:C:/Workspace/FW_Inertia/branch_indesit/PlatformLibrary/LIB_IOManager\InputManager.c **** /*lint +e537*/
  67:C:/Workspace/FW_Inertia/branch_indesit/PlatformLibrary/LIB_IOManager\InputManager.c **** #ifdef CONFIG_PM_CONDUCTIVITY_SENSOR
  68:C:/Workspace/FW_Inertia/branch_indesit/PlatformLibrary/LIB_IOManager\InputManager.c **** #include "PM_ConductivitySensor.h"
  69:C:/Workspace/FW_Inertia/branch_indesit/PlatformLibrary/LIB_IOManager\InputManager.c **** #endif /* CONFIG_PM_CONDUCTIVITY_SENSOR */
  70:C:/Workspace/FW_Inertia/branch_indesit/PlatformLibrary/LIB_IOManager\InputManager.c **** 
  71:C:/Workspace/FW_Inertia/branch_indesit/PlatformLibrary/LIB_IOManager\InputManager.c **** #ifdef CONFIG_PM_LINEARPRESSURE_SENSOR
  72:C:/Workspace/FW_Inertia/branch_indesit/PlatformLibrary/LIB_IOManager\InputManager.c **** #include "PM_LinearPressureSensor.h"
  73:C:/Workspace/FW_Inertia/branch_indesit/PlatformLibrary/LIB_IOManager\InputManager.c **** #endif /* CONFIG_PM_LINEARPRESSURESENSOR */
  74:C:/Workspace/FW_Inertia/branch_indesit/PlatformLibrary/LIB_IOManager\InputManager.c **** 
  75:C:/Workspace/FW_Inertia/branch_indesit/PlatformLibrary/LIB_IOManager\InputManager.c **** #ifdef CONFIG_PM_ANALOG_FEEDBACKS_SUPPORT
  76:C:/Workspace/FW_Inertia/branch_indesit/PlatformLibrary/LIB_IOManager\InputManager.c **** #include "PM_AnalogFeedback.h"
  77:C:/Workspace/FW_Inertia/branch_indesit/PlatformLibrary/LIB_IOManager\InputManager.c **** #endif /* CONFIG_PM_ANALOG_FEEDBACK */
  78:C:/Workspace/FW_Inertia/branch_indesit/PlatformLibrary/LIB_IOManager\InputManager.c **** 
  79:C:/Workspace/FW_Inertia/branch_indesit/PlatformLibrary/LIB_IOManager\InputManager.c **** #ifdef CONFIG_PM_MOTORGATE
  80:C:/Workspace/FW_Inertia/branch_indesit/PlatformLibrary/LIB_IOManager\InputManager.c **** #include "PM_UM_UniversalMotor.h"
  81:C:/Workspace/FW_Inertia/branch_indesit/PlatformLibrary/LIB_IOManager\InputManager.c **** #include "PM_UM_Tachometer.h"
  82:C:/Workspace/FW_Inertia/branch_indesit/PlatformLibrary/LIB_IOManager\InputManager.c **** #endif
  83:C:/Workspace/FW_Inertia/branch_indesit/PlatformLibrary/LIB_IOManager\InputManager.c **** 
  84:C:/Workspace/FW_Inertia/branch_indesit/PlatformLibrary/LIB_IOManager\InputManager.c **** #if defined(CONFIG_PM_FREQUENCY_FEEDBACKS_SUPPORT)
  85:C:/Workspace/FW_Inertia/branch_indesit/PlatformLibrary/LIB_IOManager\InputManager.c **** #include "PM_FrequencyFeedbacks.h"
  86:C:/Workspace/FW_Inertia/branch_indesit/PlatformLibrary/LIB_IOManager\InputManager.c **** #endif /* defined(CONFIG_PM_FREQUENCY_FEEDBACKS_SUPPORT) */
  87:C:/Workspace/FW_Inertia/branch_indesit/PlatformLibrary/LIB_IOManager\InputManager.c **** 
  88:C:/Workspace/FW_Inertia/branch_indesit/PlatformLibrary/LIB_IOManager\InputManager.c **** #if defined(CONFIG_PM_TURBIDITY_SENSOR_SUPPORT)
  89:C:/Workspace/FW_Inertia/branch_indesit/PlatformLibrary/LIB_IOManager\InputManager.c **** #include "PM_TurbiditySensor.h"
  90:C:/Workspace/FW_Inertia/branch_indesit/PlatformLibrary/LIB_IOManager\InputManager.c **** #endif /* defined(CONFIG_PM_TURBIDITY_SENSOR_SUPPORT) */
  91:C:/Workspace/FW_Inertia/branch_indesit/PlatformLibrary/LIB_IOManager\InputManager.c **** #if defined(CONFIG_PM_PULSECOUNTER)
  92:C:/Workspace/FW_Inertia/branch_indesit/PlatformLibrary/LIB_IOManager\InputManager.c **** #include "PM_PulseCounter.h"
  93:C:/Workspace/FW_Inertia/branch_indesit/PlatformLibrary/LIB_IOManager\InputManager.c **** #endif
  94:C:/Workspace/FW_Inertia/branch_indesit/PlatformLibrary/LIB_IOManager\InputManager.c **** 
  95:C:/Workspace/FW_Inertia/branch_indesit/PlatformLibrary/LIB_IOManager\InputManager.c **** /* ****************** */
  96:C:/Workspace/FW_Inertia/branch_indesit/PlatformLibrary/LIB_IOManager\InputManager.c **** /* Defines and Macros */
  97:C:/Workspace/FW_Inertia/branch_indesit/PlatformLibrary/LIB_IOManager\InputManager.c **** /* ****************** */
  98:C:/Workspace/FW_Inertia/branch_indesit/PlatformLibrary/LIB_IOManager\InputManager.c **** 
  99:C:/Workspace/FW_Inertia/branch_indesit/PlatformLibrary/LIB_IOManager\InputManager.c **** #define EEP_LOWLEVELINPUT_TABPTR_OFFSET		0		/* L.L.I. displacement vs PTR_IO_CONFIG_DATA */
 100:C:/Workspace/FW_Inertia/branch_indesit/PlatformLibrary/LIB_IOManager\InputManager.c **** #define EEP_PIN_TABPTR_OFFSET    			4		/* Pins displacement vs PTR_IO_CONFIG_DATA */
 101:C:/Workspace/FW_Inertia/branch_indesit/PlatformLibrary/LIB_IOManager\InputManager.c **** 
 102:C:/Workspace/FW_Inertia/branch_indesit/PlatformLibrary/LIB_IOManager\InputManager.c **** #define LLI_TABLE_ITEM_SIZE_IN_BYTES 		4		/* Size in bytes of a single item inside L.L.I. table */
 103:C:/Workspace/FW_Inertia/branch_indesit/PlatformLibrary/LIB_IOManager\InputManager.c **** /* Input Maps Field Access */
 104:C:/Workspace/FW_Inertia/branch_indesit/PlatformLibrary/LIB_IOManager\InputManager.c **** #define READ_TYPE(pByte)                    (*(pByte))      /* Input Read Type */
 105:C:/Workspace/FW_Inertia/branch_indesit/PlatformLibrary/LIB_IOManager\InputManager.c **** #define INPUT_PIN_TAB_OFFSET(pByte)         (*(pByte+1))    /* Pin Tab Offset Field vs PTR_IO_DEVIC
 106:C:/Workspace/FW_Inertia/branch_indesit/PlatformLibrary/LIB_IOManager\InputManager.c **** #define INPUT_TYPE_PARAMS_OFFSET(pByte)     (*(pByte+2))    /* Input Type Params Offset vs PTR_IO_D
 107:C:/Workspace/FW_Inertia/branch_indesit/PlatformLibrary/LIB_IOManager\InputManager.c **** #define INPUT_RESULT_POS(pByte)             (*(pByte+3))    /* Where Input Result is stored */
 108:C:/Workspace/FW_Inertia/branch_indesit/PlatformLibrary/LIB_IOManager\InputManager.c **** /* *************************** */
 109:C:/Workspace/FW_Inertia/branch_indesit/PlatformLibrary/LIB_IOManager\InputManager.c **** /* Typedef, Structs and Unions */
 110:C:/Workspace/FW_Inertia/branch_indesit/PlatformLibrary/LIB_IOManager\InputManager.c **** /* *************************** */
 111:C:/Workspace/FW_Inertia/branch_indesit/PlatformLibrary/LIB_IOManager\InputManager.c **** 
 112:C:/Workspace/FW_Inertia/branch_indesit/PlatformLibrary/LIB_IOManager\InputManager.c **** 
 113:C:/Workspace/FW_Inertia/branch_indesit/PlatformLibrary/LIB_IOManager\InputManager.c **** /* ********* */
 114:C:/Workspace/FW_Inertia/branch_indesit/PlatformLibrary/LIB_IOManager\InputManager.c **** /* Variables */
 115:C:/Workspace/FW_Inertia/branch_indesit/PlatformLibrary/LIB_IOManager\InputManager.c **** /* ********* */
 116:C:/Workspace/FW_Inertia/branch_indesit/PlatformLibrary/LIB_IOManager\InputManager.c **** 
 117:C:/Workspace/FW_Inertia/branch_indesit/PlatformLibrary/LIB_IOManager\InputManager.c **** /* Global */
 118:C:/Workspace/FW_Inertia/branch_indesit/PlatformLibrary/LIB_IOManager\InputManager.c **** 
 119:C:/Workspace/FW_Inertia/branch_indesit/PlatformLibrary/LIB_IOManager\InputManager.c **** /* Static */
 120:C:/Workspace/FW_Inertia/branch_indesit/PlatformLibrary/LIB_IOManager\InputManager.c **** 
 121:C:/Workspace/FW_Inertia/branch_indesit/PlatformLibrary/LIB_IOManager\InputManager.c **** 
 122:C:/Workspace/FW_Inertia/branch_indesit/PlatformLibrary/LIB_IOManager\InputManager.c **** /* ******************* */
 123:C:/Workspace/FW_Inertia/branch_indesit/PlatformLibrary/LIB_IOManager\InputManager.c **** /* Functions Prototype */
 124:C:/Workspace/FW_Inertia/branch_indesit/PlatformLibrary/LIB_IOManager\InputManager.c **** /* ******************* */
 125:C:/Workspace/FW_Inertia/branch_indesit/PlatformLibrary/LIB_IOManager\InputManager.c **** 
 126:C:/Workspace/FW_Inertia/branch_indesit/PlatformLibrary/LIB_IOManager\InputManager.c **** /* Exported function */
 127:C:/Workspace/FW_Inertia/branch_indesit/PlatformLibrary/LIB_IOManager\InputManager.c **** 
 128:C:/Workspace/FW_Inertia/branch_indesit/PlatformLibrary/LIB_IOManager\InputManager.c **** /* Local Function */
 129:C:/Workspace/FW_Inertia/branch_indesit/PlatformLibrary/LIB_IOManager\InputManager.c **** 
 130:C:/Workspace/FW_Inertia/branch_indesit/PlatformLibrary/LIB_IOManager\InputManager.c **** /* *************** */
 131:C:/Workspace/FW_Inertia/branch_indesit/PlatformLibrary/LIB_IOManager\InputManager.c **** /* Function Bodies */
 132:C:/Workspace/FW_Inertia/branch_indesit/PlatformLibrary/LIB_IOManager\InputManager.c **** /* *************** */
 133:C:/Workspace/FW_Inertia/branch_indesit/PlatformLibrary/LIB_IOManager\InputManager.c **** 
 134:C:/Workspace/FW_Inertia/branch_indesit/PlatformLibrary/LIB_IOManager\InputManager.c **** /* Exported function */
 135:C:/Workspace/FW_Inertia/branch_indesit/PlatformLibrary/LIB_IOManager\InputManager.c **** /**
 136:C:/Workspace/FW_Inertia/branch_indesit/PlatformLibrary/LIB_IOManager\InputManager.c **** \n Inputs Initialization.
 137:C:/Workspace/FW_Inertia/branch_indesit/PlatformLibrary/LIB_IOManager\InputManager.c **** \n This function is called in ResetModuleManager() if SystemMode==SYSTEM_NORMAL_MODE
 138:C:/Workspace/FW_Inertia/branch_indesit/PlatformLibrary/LIB_IOManager\InputManager.c **** \n regardless cold or warm reset.
 139:C:/Workspace/FW_Inertia/branch_indesit/PlatformLibrary/LIB_IOManager\InputManager.c **** 
 140:C:/Workspace/FW_Inertia/branch_indesit/PlatformLibrary/LIB_IOManager\InputManager.c **** \param  [in] resetType if !=0 -> cold reset otherwise warm reset.
 141:C:/Workspace/FW_Inertia/branch_indesit/PlatformLibrary/LIB_IOManager\InputManager.c **** 
 142:C:/Workspace/FW_Inertia/branch_indesit/PlatformLibrary/LIB_IOManager\InputManager.c **** \author 	Stefano Ughi
 143:C:/Workspace/FW_Inertia/branch_indesit/PlatformLibrary/LIB_IOManager\InputManager.c **** \date		10/06/2010
 144:C:/Workspace/FW_Inertia/branch_indesit/PlatformLibrary/LIB_IOManager\InputManager.c **** \version	1.0.0
 145:C:/Workspace/FW_Inertia/branch_indesit/PlatformLibrary/LIB_IOManager\InputManager.c **** 
 146:C:/Workspace/FW_Inertia/branch_indesit/PlatformLibrary/LIB_IOManager\InputManager.c **** 
 147:C:/Workspace/FW_Inertia/branch_indesit/PlatformLibrary/LIB_IOManager\InputManager.c **** \note		\par \b Nota 1:
 148:C:/Workspace/FW_Inertia/branch_indesit/PlatformLibrary/LIB_IOManager\InputManager.c **** 			documentation by Stefano Ughi
 149:C:/Workspace/FW_Inertia/branch_indesit/PlatformLibrary/LIB_IOManager\InputManager.c **** 
 150:C:/Workspace/FW_Inertia/branch_indesit/PlatformLibrary/LIB_IOManager\InputManager.c **** */
 151:C:/Workspace/FW_Inertia/branch_indesit/PlatformLibrary/LIB_IOManager\InputManager.c **** 
 152:C:/Workspace/FW_Inertia/branch_indesit/PlatformLibrary/LIB_IOManager\InputManager.c **** void LIB_IOM_InputInitialization( uint8_t resetType )
 153:C:/Workspace/FW_Inertia/branch_indesit/PlatformLibrary/LIB_IOManager\InputManager.c **** {
  10                             		.loc 1 153 0
  11                             	.LVL0:
  12 0000 6E 7D                   		pushm	r7-r13
  13                             	.LCFI0:
  14 0002 71 00 E4                		add	#-28, r0
  15                             	.LCFI1:
  16 0005 CF 1D                   		mov.B	r1, r13
 154:C:/Workspace/FW_Inertia/branch_indesit/PlatformLibrary/LIB_IOManager\InputManager.c **** 	struct Loader lowLevelInputTabPtr;
 155:C:/Workspace/FW_Inertia/branch_indesit/PlatformLibrary/LIB_IOManager\InputManager.c **** 	struct Loader pinTabPtr;
 156:C:/Workspace/FW_Inertia/branch_indesit/PlatformLibrary/LIB_IOManager\InputManager.c **** 	struct Loader lowLevelParametersPtr;
 157:C:/Workspace/FW_Inertia/branch_indesit/PlatformLibrary/LIB_IOManager\InputManager.c **** 	IO_ErrorType err;
 158:C:/Workspace/FW_Inertia/branch_indesit/PlatformLibrary/LIB_IOManager\InputManager.c **** 	uint8_t *pByte;          /* local pointer used to scan inputs */
 159:C:/Workspace/FW_Inertia/branch_indesit/PlatformLibrary/LIB_IOManager\InputManager.c **** 	uint8_t pin;
 160:C:/Workspace/FW_Inertia/branch_indesit/PlatformLibrary/LIB_IOManager\InputManager.c **** 	uint8_t readType;
 161:C:/Workspace/FW_Inertia/branch_indesit/PlatformLibrary/LIB_IOManager\InputManager.c **** 	uint8_t activeSense;
 162:C:/Workspace/FW_Inertia/branch_indesit/PlatformLibrary/LIB_IOManager\InputManager.c **** 
 163:C:/Workspace/FW_Inertia/branch_indesit/PlatformLibrary/LIB_IOManager\InputManager.c **** 	uint8_t channelAD;
 164:C:/Workspace/FW_Inertia/branch_indesit/PlatformLibrary/LIB_IOManager\InputManager.c **** 
 165:C:/Workspace/FW_Inertia/branch_indesit/PlatformLibrary/LIB_IOManager\InputManager.c **** 
 166:C:/Workspace/FW_Inertia/branch_indesit/PlatformLibrary/LIB_IOManager\InputManager.c **** 	if ( 0 != BasicLoader(SF_PTR_IO_CONFIG, EEP_LOWLEVELINPUT_TABPTR_OFFSET, &lowLevelInputTabPtr) )
  17                             		.loc 1 166 0
  18 0007 75 41 20                		mov	#32, r1
  19                             	.LVL1:
  20 000a 66 02                   		mov	#0, r2
  21 000c 71 03 10                		add	#16, r0, r3
  22 000f 05 00 00 00             		bsr	_BasicLoader
  23                             	.LVL2:
  24 0013 76 21 FF 00             		and #0xff, r1
  25 0017 17                      		beq	.L2
 167:C:/Workspace/FW_Inertia/branch_indesit/PlatformLibrary/LIB_IOManager\InputManager.c **** 	{
 168:C:/Workspace/FW_Inertia/branch_indesit/PlatformLibrary/LIB_IOManager\InputManager.c **** 		PLT_ERROR_FATAL(PLT_ERROR_INPUT_MNGR_1);
  26                             		.loc 1 168 0
  27 0018 75 41 12                		mov.L	#18, r1
  28 001b 38 E9 00                		bra	.L43
  29                             	.L2:
 169:C:/Workspace/FW_Inertia/branch_indesit/PlatformLibrary/LIB_IOManager\InputManager.c **** 		return; /* Serious Error */
 170:C:/Workspace/FW_Inertia/branch_indesit/PlatformLibrary/LIB_IOManager\InputManager.c **** 	}
 171:C:/Workspace/FW_Inertia/branch_indesit/PlatformLibrary/LIB_IOManager\InputManager.c **** 	if ( 0 != BasicLoader(SF_PTR_IO_CONFIG, EEP_PIN_TABPTR_OFFSET, &pinTabPtr) )
  30                             		.loc 1 171 0
  31 001e 75 41 20                		mov	#32, r1
  32 0021 66 42                   		mov	#4, r2
  33 0023 71 03 08                		add	#8, r0, r3
  34 0026 05 00 00 00             		bsr	_BasicLoader
  35                             	.LVL3:
  36 002a 76 21 FF 00             		and #0xff, r1
  37 002e 17                      		beq	.L4
 172:C:/Workspace/FW_Inertia/branch_indesit/PlatformLibrary/LIB_IOManager\InputManager.c **** 	{
 173:C:/Workspace/FW_Inertia/branch_indesit/PlatformLibrary/LIB_IOManager\InputManager.c **** 		PLT_ERROR_FATAL(PLT_ERROR_INPUT_MNGR_2);
  38                             		.loc 1 173 0
  39 002f 75 41 13                		mov.L	#19, r1
  40 0032 38 D2 00                		bra	.L43
  41                             	.L4:
 174:C:/Workspace/FW_Inertia/branch_indesit/PlatformLibrary/LIB_IOManager\InputManager.c **** 		return; /* Serious Error */
 175:C:/Workspace/FW_Inertia/branch_indesit/PlatformLibrary/LIB_IOManager\InputManager.c **** 	}
 176:C:/Workspace/FW_Inertia/branch_indesit/PlatformLibrary/LIB_IOManager\InputManager.c **** 	LIB_ADC_UnregisterAllADch();
  42                             		.loc 1 176 0
  43 0035 05 00 00 00             		bsr	_LIB_ADC_UnregisterAllADch
  44                             	.LVL4:
 177:C:/Workspace/FW_Inertia/branch_indesit/PlatformLibrary/LIB_IOManager\InputManager.c **** 	/* For All Inputs in Setting File */
 178:C:/Workspace/FW_Inertia/branch_indesit/PlatformLibrary/LIB_IOManager\InputManager.c **** 	for ( pByte = lowLevelInputTabPtr.Data;
  45                             		.loc 1 178 0
  46 0039 ED 0A 04                		mov.L	16[r0], r10
  47                             	.LVL5:
 152:C:/Workspace/FW_Inertia/branch_indesit/PlatformLibrary/LIB_IOManager\InputManager.c **** void LIB_IOM_InputInitialization( uint8_t resetType )
  48                             		.loc 1 152 0
  49 003c 71 AC 01                		add	#1, r10, r12
  50 003f 71 AB 03                		add	#3, r10, r11
 179:C:/Workspace/FW_Inertia/branch_indesit/PlatformLibrary/LIB_IOManager\InputManager.c **** 	        pByte < (lowLevelInputTabPtr.Data + (lowLevelInputTabPtr.DataLenght*2));
 180:C:/Workspace/FW_Inertia/branch_indesit/PlatformLibrary/LIB_IOManager\InputManager.c **** 	        pByte += LLI_TABLE_ITEM_SIZE_IN_BYTES )
 181:C:/Workspace/FW_Inertia/branch_indesit/PlatformLibrary/LIB_IOManager\InputManager.c **** 	{
 182:C:/Workspace/FW_Inertia/branch_indesit/PlatformLibrary/LIB_IOManager\InputManager.c **** 		/* pin (refer to Linkage M.C.U. Board) linked with Input
 183:C:/Workspace/FW_Inertia/branch_indesit/PlatformLibrary/LIB_IOManager\InputManager.c **** 		pin = value inserted in Editor minus 1 */
 184:C:/Workspace/FW_Inertia/branch_indesit/PlatformLibrary/LIB_IOManager\InputManager.c **** 		pin = *(pinTabPtr.Data + INPUT_PIN_TAB_OFFSET(pByte));
 185:C:/Workspace/FW_Inertia/branch_indesit/PlatformLibrary/LIB_IOManager\InputManager.c **** 		if ( pin >= IO_MODULE_MAP_SIZE )
 186:C:/Workspace/FW_Inertia/branch_indesit/PlatformLibrary/LIB_IOManager\InputManager.c **** 		{
 187:C:/Workspace/FW_Inertia/branch_indesit/PlatformLibrary/LIB_IOManager\InputManager.c **** 			PLT_ERROR_FATAL(PLT_ERROR_INPUT_MNGR_3);
 188:C:/Workspace/FW_Inertia/branch_indesit/PlatformLibrary/LIB_IOManager\InputManager.c **** 			return;  /* Serious Error */
 189:C:/Workspace/FW_Inertia/branch_indesit/PlatformLibrary/LIB_IOManager\InputManager.c **** 		}
 190:C:/Workspace/FW_Inertia/branch_indesit/PlatformLibrary/LIB_IOManager\InputManager.c **** 
 191:C:/Workspace/FW_Inertia/branch_indesit/PlatformLibrary/LIB_IOManager\InputManager.c **** 
 192:C:/Workspace/FW_Inertia/branch_indesit/PlatformLibrary/LIB_IOManager\InputManager.c **** 		/* Set the pin as input */
 193:C:/Workspace/FW_Inertia/branch_indesit/PlatformLibrary/LIB_IOManager\InputManager.c **** 		err = OCDIO_SetPinDirValueSync(pin,0);
 194:C:/Workspace/FW_Inertia/branch_indesit/PlatformLibrary/LIB_IOManager\InputManager.c **** 		if ( (IO_ErrorType)IO_E_UNKNOWN_MODE == err )
 195:C:/Workspace/FW_Inertia/branch_indesit/PlatformLibrary/LIB_IOManager\InputManager.c **** 		{
 196:C:/Workspace/FW_Inertia/branch_indesit/PlatformLibrary/LIB_IOManager\InputManager.c **** 			/* Serious Error */
 197:C:/Workspace/FW_Inertia/branch_indesit/PlatformLibrary/LIB_IOManager\InputManager.c **** 			PLT_ERROR_FATAL(PLT_ERROR_INPUT_MNGR_6);
 198:C:/Workspace/FW_Inertia/branch_indesit/PlatformLibrary/LIB_IOManager\InputManager.c **** 		}
 199:C:/Workspace/FW_Inertia/branch_indesit/PlatformLibrary/LIB_IOManager\InputManager.c **** 		else if ( (IO_ErrorType)IO_E_INVALID_VALUE == err )
 200:C:/Workspace/FW_Inertia/branch_indesit/PlatformLibrary/LIB_IOManager\InputManager.c **** 		{
 201:C:/Workspace/FW_Inertia/branch_indesit/PlatformLibrary/LIB_IOManager\InputManager.c **** 			/* Serious Error */
 202:C:/Workspace/FW_Inertia/branch_indesit/PlatformLibrary/LIB_IOManager\InputManager.c **** 			PLT_ERROR_FATAL(PLT_ERROR_INPUT_MNGR_7);
 203:C:/Workspace/FW_Inertia/branch_indesit/PlatformLibrary/LIB_IOManager\InputManager.c **** 		}
 204:C:/Workspace/FW_Inertia/branch_indesit/PlatformLibrary/LIB_IOManager\InputManager.c **** 		else
 205:C:/Workspace/FW_Inertia/branch_indesit/PlatformLibrary/LIB_IOManager\InputManager.c **** 		{
 206:C:/Workspace/FW_Inertia/branch_indesit/PlatformLibrary/LIB_IOManager\InputManager.c **** 			/* do nothing */
 207:C:/Workspace/FW_Inertia/branch_indesit/PlatformLibrary/LIB_IOManager\InputManager.c **** 		}
 208:C:/Workspace/FW_Inertia/branch_indesit/PlatformLibrary/LIB_IOManager\InputManager.c **** 		/* get pointer to low level input parameters */
 209:C:/Workspace/FW_Inertia/branch_indesit/PlatformLibrary/LIB_IOManager\InputManager.c **** 		if ( 0 != BasicLoader( SF_PTR_IO_DEVICE, INPUT_TYPE_PARAMS_OFFSET(pByte), &lowLevelParametersPtr)
 210:C:/Workspace/FW_Inertia/branch_indesit/PlatformLibrary/LIB_IOManager\InputManager.c **** 		{
 211:C:/Workspace/FW_Inertia/branch_indesit/PlatformLibrary/LIB_IOManager\InputManager.c **** 			PLT_ERROR_FATAL(PLT_ERROR_INPUT_MNGR_4);
 212:C:/Workspace/FW_Inertia/branch_indesit/PlatformLibrary/LIB_IOManager\InputManager.c **** 			return;  /* Serious Error */
 213:C:/Workspace/FW_Inertia/branch_indesit/PlatformLibrary/LIB_IOManager\InputManager.c **** 		}
 214:C:/Workspace/FW_Inertia/branch_indesit/PlatformLibrary/LIB_IOManager\InputManager.c **** 
 215:C:/Workspace/FW_Inertia/branch_indesit/PlatformLibrary/LIB_IOManager\InputManager.c **** 
 216:C:/Workspace/FW_Inertia/branch_indesit/PlatformLibrary/LIB_IOManager\InputManager.c **** 		readType = READ_TYPE(pByte);
 217:C:/Workspace/FW_Inertia/branch_indesit/PlatformLibrary/LIB_IOManager\InputManager.c **** 		switch (readType)
  51                             		.loc 1 217 0
  52 0042 FB 82 00 00 00 00       		mov.L	#.L16, r8
 218:C:/Workspace/FW_Inertia/branch_indesit/PlatformLibrary/LIB_IOManager\InputManager.c **** 		{
 219:C:/Workspace/FW_Inertia/branch_indesit/PlatformLibrary/LIB_IOManager\InputManager.c **** 
 220:C:/Workspace/FW_Inertia/branch_indesit/PlatformLibrary/LIB_IOManager\InputManager.c **** 		case I2C_I:
 221:C:/Workspace/FW_Inertia/branch_indesit/PlatformLibrary/LIB_IOManager\InputManager.c **** 
 222:C:/Workspace/FW_Inertia/branch_indesit/PlatformLibrary/LIB_IOManager\InputManager.c **** 			/* Nothing to do up to now ..... */
 223:C:/Workspace/FW_Inertia/branch_indesit/PlatformLibrary/LIB_IOManager\InputManager.c **** 
 224:C:/Workspace/FW_Inertia/branch_indesit/PlatformLibrary/LIB_IOManager\InputManager.c **** 			break;
 225:C:/Workspace/FW_Inertia/branch_indesit/PlatformLibrary/LIB_IOManager\InputManager.c **** 
 226:C:/Workspace/FW_Inertia/branch_indesit/PlatformLibrary/LIB_IOManager\InputManager.c **** 
 227:C:/Workspace/FW_Inertia/branch_indesit/PlatformLibrary/LIB_IOManager\InputManager.c **** 		case ZEROCROSSING_I:
 228:C:/Workspace/FW_Inertia/branch_indesit/PlatformLibrary/LIB_IOManager\InputManager.c **** #if defined(CONFIG_LIB_ZC_ICU_OVR_SETTING)
 229:C:/Workspace/FW_Inertia/branch_indesit/PlatformLibrary/LIB_IOManager\InputManager.c **** 		{
 230:C:/Workspace/FW_Inertia/branch_indesit/PlatformLibrary/LIB_IOManager\InputManager.c **** 			LIB_ZC_RegisterICUFromPin(pin);
 231:C:/Workspace/FW_Inertia/branch_indesit/PlatformLibrary/LIB_IOManager\InputManager.c **** 		}
 232:C:/Workspace/FW_Inertia/branch_indesit/PlatformLibrary/LIB_IOManager\InputManager.c **** #endif
 233:C:/Workspace/FW_Inertia/branch_indesit/PlatformLibrary/LIB_IOManager\InputManager.c **** 
 234:C:/Workspace/FW_Inertia/branch_indesit/PlatformLibrary/LIB_IOManager\InputManager.c **** 			break;
 235:C:/Workspace/FW_Inertia/branch_indesit/PlatformLibrary/LIB_IOManager\InputManager.c **** 	
 236:C:/Workspace/FW_Inertia/branch_indesit/PlatformLibrary/LIB_IOManager\InputManager.c **** #ifdef __FREQFEEDBACKCHK_H
 237:C:/Workspace/FW_Inertia/branch_indesit/PlatformLibrary/LIB_IOManager\InputManager.c **** 		case FREQFEEDBACK_I:
 238:C:/Workspace/FW_Inertia/branch_indesit/PlatformLibrary/LIB_IOManager\InputManager.c **** 			if ( ((freqFeedbackLLIparams_t*)lowLevelParametersPtr.Data)->bit.pullUp )
 239:C:/Workspace/FW_Inertia/branch_indesit/PlatformLibrary/LIB_IOManager\InputManager.c **** 			{
 240:C:/Workspace/FW_Inertia/branch_indesit/PlatformLibrary/LIB_IOManager\InputManager.c **** 				(void)OCDIO_SetPinPullUpSync(pin);
 241:C:/Workspace/FW_Inertia/branch_indesit/PlatformLibrary/LIB_IOManager\InputManager.c **** 			}
 242:C:/Workspace/FW_Inertia/branch_indesit/PlatformLibrary/LIB_IOManager\InputManager.c **** 			activeSense = ((((freqFeedbackLLIparams_t*)lowLevelParametersPtr.Data)->bit.inverted)?1:0);
 243:C:/Workspace/FW_Inertia/branch_indesit/PlatformLibrary/LIB_IOManager\InputManager.c **** 			LIB_IOM_Set_IODir_ActiveSense(activeSense,pin);
 244:C:/Workspace/FW_Inertia/branch_indesit/PlatformLibrary/LIB_IOManager\InputManager.c **** 			FFC_Enable(pin,(*lowLevelParametersPtr.Data & 0x7F), INPUT_RESULT_POS(pByte),30);
 245:C:/Workspace/FW_Inertia/branch_indesit/PlatformLibrary/LIB_IOManager\InputManager.c **** 
 246:C:/Workspace/FW_Inertia/branch_indesit/PlatformLibrary/LIB_IOManager\InputManager.c **** 			break;
 247:C:/Workspace/FW_Inertia/branch_indesit/PlatformLibrary/LIB_IOManager\InputManager.c **** #elif defined(CONFIG_PM_FREQUENCY_FEEDBACKS_SUPPORT)
 248:C:/Workspace/FW_Inertia/branch_indesit/PlatformLibrary/LIB_IOManager\InputManager.c **** 		case FREQFEEDBACK_I:
 249:C:/Workspace/FW_Inertia/branch_indesit/PlatformLibrary/LIB_IOManager\InputManager.c **** 
 250:C:/Workspace/FW_Inertia/branch_indesit/PlatformLibrary/LIB_IOManager\InputManager.c **** 			if( IO_E_OK != PM_FrequencyFeedbacks_Configure(pin,(freqFeedbackLLIparams_t*)((void*)lowLevelPar
 251:C:/Workspace/FW_Inertia/branch_indesit/PlatformLibrary/LIB_IOManager\InputManager.c **** 				PLT_ERROR_FATAL(PLT_ERROR_INPUT_MNGR_8);
 252:C:/Workspace/FW_Inertia/branch_indesit/PlatformLibrary/LIB_IOManager\InputManager.c **** 			}
 253:C:/Workspace/FW_Inertia/branch_indesit/PlatformLibrary/LIB_IOManager\InputManager.c **** 
 254:C:/Workspace/FW_Inertia/branch_indesit/PlatformLibrary/LIB_IOManager\InputManager.c **** 			break;
 255:C:/Workspace/FW_Inertia/branch_indesit/PlatformLibrary/LIB_IOManager\InputManager.c **** #endif /*CONFIG_PM_FREQUENCY_FEEDBACKS_SUPPORT */
 256:C:/Workspace/FW_Inertia/branch_indesit/PlatformLibrary/LIB_IOManager\InputManager.c **** 
 257:C:/Workspace/FW_Inertia/branch_indesit/PlatformLibrary/LIB_IOManager\InputManager.c **** #if defined(CONFIG_PM_MOTORGATE) /* ex __TACHIMETRICA_H */
 258:C:/Workspace/FW_Inertia/branch_indesit/PlatformLibrary/LIB_IOManager\InputManager.c **** 		case TACHO_I:
 259:C:/Workspace/FW_Inertia/branch_indesit/PlatformLibrary/LIB_IOManager\InputManager.c **** 			if ( ((tachoLLIparams_t*)lowLevelParametersPtr.Data)->bit.pullUp)
 260:C:/Workspace/FW_Inertia/branch_indesit/PlatformLibrary/LIB_IOManager\InputManager.c **** 			{
 261:C:/Workspace/FW_Inertia/branch_indesit/PlatformLibrary/LIB_IOManager\InputManager.c **** 				(void)OCDIO_SetPinPullUpSync(pin);
 262:C:/Workspace/FW_Inertia/branch_indesit/PlatformLibrary/LIB_IOManager\InputManager.c **** 			}
 263:C:/Workspace/FW_Inertia/branch_indesit/PlatformLibrary/LIB_IOManager\InputManager.c **** 			LIB_IOM_Set_IODir_ActiveSense(0,pin);
 264:C:/Workspace/FW_Inertia/branch_indesit/PlatformLibrary/LIB_IOManager\InputManager.c **** 
 265:C:/Workspace/FW_Inertia/branch_indesit/PlatformLibrary/LIB_IOManager\InputManager.c **** 			PM_UM_Tacho_Init(pin);
 266:C:/Workspace/FW_Inertia/branch_indesit/PlatformLibrary/LIB_IOManager\InputManager.c **** 
 267:C:/Workspace/FW_Inertia/branch_indesit/PlatformLibrary/LIB_IOManager\InputManager.c **** 			break;
 268:C:/Workspace/FW_Inertia/branch_indesit/PlatformLibrary/LIB_IOManager\InputManager.c **** #endif /*defined(CONFIG_PM_MOTORGATE) ex __TACHIMETRICA_H */
 269:C:/Workspace/FW_Inertia/branch_indesit/PlatformLibrary/LIB_IOManager\InputManager.c **** 
 270:C:/Workspace/FW_Inertia/branch_indesit/PlatformLibrary/LIB_IOManager\InputManager.c **** /* Linear Pressure Sensor on Plaform 1 */
 271:C:/Workspace/FW_Inertia/branch_indesit/PlatformLibrary/LIB_IOManager\InputManager.c **** #ifdef __PRESSOSTATOLINEARE_H
 272:C:/Workspace/FW_Inertia/branch_indesit/PlatformLibrary/LIB_IOManager\InputManager.c **** 		case PRESSLIN_I:
 273:C:/Workspace/FW_Inertia/branch_indesit/PlatformLibrary/LIB_IOManager\InputManager.c **** 			if ( ((linearPressureSensLLIparams_t*)lowLevelParametersPtr.Data)->bit.pullUp )
 274:C:/Workspace/FW_Inertia/branch_indesit/PlatformLibrary/LIB_IOManager\InputManager.c **** 			{
 275:C:/Workspace/FW_Inertia/branch_indesit/PlatformLibrary/LIB_IOManager\InputManager.c **** 				(void)OCDIO_SetPinPullUpSync(pin);
 276:C:/Workspace/FW_Inertia/branch_indesit/PlatformLibrary/LIB_IOManager\InputManager.c **** 			}
 277:C:/Workspace/FW_Inertia/branch_indesit/PlatformLibrary/LIB_IOManager\InputManager.c **** 
 278:C:/Workspace/FW_Inertia/branch_indesit/PlatformLibrary/LIB_IOManager\InputManager.c **** 			LIB_IOM_Set_IODir_ActiveSense(0,pin);
 279:C:/Workspace/FW_Inertia/branch_indesit/PlatformLibrary/LIB_IOManager\InputManager.c **** 
 280:C:/Workspace/FW_Inertia/branch_indesit/PlatformLibrary/LIB_IOManager\InputManager.c **** 			PSL_Init(pin,*(lowLevelParametersPtr.Data+2));
 281:C:/Workspace/FW_Inertia/branch_indesit/PlatformLibrary/LIB_IOManager\InputManager.c **** 			PSL_Enable(lowLevelParametersPtr.Data,1);
 282:C:/Workspace/FW_Inertia/branch_indesit/PlatformLibrary/LIB_IOManager\InputManager.c **** 
 283:C:/Workspace/FW_Inertia/branch_indesit/PlatformLibrary/LIB_IOManager\InputManager.c **** 			break;
 284:C:/Workspace/FW_Inertia/branch_indesit/PlatformLibrary/LIB_IOManager\InputManager.c **** #elif defined(CONFIG_PM_LINEARPRESSURE_SENSOR)
 285:C:/Workspace/FW_Inertia/branch_indesit/PlatformLibrary/LIB_IOManager\InputManager.c **** 		case PRESSLIN_I:
 286:C:/Workspace/FW_Inertia/branch_indesit/PlatformLibrary/LIB_IOManager\InputManager.c **** 			if ( ((linearPressureSensLLIparams_t*)((void*)lowLevelParametersPtr.Data))->bit.pullUp )
 287:C:/Workspace/FW_Inertia/branch_indesit/PlatformLibrary/LIB_IOManager\InputManager.c **** 			{
 288:C:/Workspace/FW_Inertia/branch_indesit/PlatformLibrary/LIB_IOManager\InputManager.c **** 				(void)OCDIO_SetPinPullUpSync(pin);
 289:C:/Workspace/FW_Inertia/branch_indesit/PlatformLibrary/LIB_IOManager\InputManager.c **** 			}
 290:C:/Workspace/FW_Inertia/branch_indesit/PlatformLibrary/LIB_IOManager\InputManager.c **** 
 291:C:/Workspace/FW_Inertia/branch_indesit/PlatformLibrary/LIB_IOManager\InputManager.c **** 			LIB_IOM_Set_IODir_ActiveSense(0,pin);
 292:C:/Workspace/FW_Inertia/branch_indesit/PlatformLibrary/LIB_IOManager\InputManager.c **** 
 293:C:/Workspace/FW_Inertia/branch_indesit/PlatformLibrary/LIB_IOManager\InputManager.c **** 			PM_LPS_Init(pin, lowLevelParametersPtr.Data);
 294:C:/Workspace/FW_Inertia/branch_indesit/PlatformLibrary/LIB_IOManager\InputManager.c **** 			break;
 295:C:/Workspace/FW_Inertia/branch_indesit/PlatformLibrary/LIB_IOManager\InputManager.c **** #endif /*CONFIG_PM_LINEARPRESSURESENSOR */
 296:C:/Workspace/FW_Inertia/branch_indesit/PlatformLibrary/LIB_IOManager\InputManager.c **** 
 297:C:/Workspace/FW_Inertia/branch_indesit/PlatformLibrary/LIB_IOManager\InputManager.c **** #ifdef __PM_PULSECOUNTER_H
 298:C:/Workspace/FW_Inertia/branch_indesit/PlatformLibrary/LIB_IOManager\InputManager.c **** 		case PULSECNTR_I:
 299:C:/Workspace/FW_Inertia/branch_indesit/PlatformLibrary/LIB_IOManager\InputManager.c **** 			if ( ((pulseCounterLLIparams_t*)lowLevelParametersPtr.Data)->bit.pullUp )
 300:C:/Workspace/FW_Inertia/branch_indesit/PlatformLibrary/LIB_IOManager\InputManager.c **** 			{
 301:C:/Workspace/FW_Inertia/branch_indesit/PlatformLibrary/LIB_IOManager\InputManager.c **** 				(void)OCDIO_SetPinPullUpSync(pin);
 302:C:/Workspace/FW_Inertia/branch_indesit/PlatformLibrary/LIB_IOManager\InputManager.c **** 			}
 303:C:/Workspace/FW_Inertia/branch_indesit/PlatformLibrary/LIB_IOManager\InputManager.c **** 			LIB_IOM_Set_IODir_ActiveSense(0,pin);
 304:C:/Workspace/FW_Inertia/branch_indesit/PlatformLibrary/LIB_IOManager\InputManager.c **** 			(void)PM_PulseCounter_Init(pin,lowLevelParametersPtr.Data);
 305:C:/Workspace/FW_Inertia/branch_indesit/PlatformLibrary/LIB_IOManager\InputManager.c **** 			(void)PM_PulseCounter_SetChannelStatus ( PULSECOUNTER_ENABLE );
 306:C:/Workspace/FW_Inertia/branch_indesit/PlatformLibrary/LIB_IOManager\InputManager.c **** 			break;
 307:C:/Workspace/FW_Inertia/branch_indesit/PlatformLibrary/LIB_IOManager\InputManager.c **** #endif /* __PM_PULSECOUNTER_H */
 308:C:/Workspace/FW_Inertia/branch_indesit/PlatformLibrary/LIB_IOManager\InputManager.c **** 
 309:C:/Workspace/FW_Inertia/branch_indesit/PlatformLibrary/LIB_IOManager\InputManager.c **** 		case ANALOG_I:
 310:C:/Workspace/FW_Inertia/branch_indesit/PlatformLibrary/LIB_IOManager\InputManager.c **** #if defined(__TURBIDITY_SENSOR_H) || defined(CONFIG_PM_TURBIDITY_SENSOR_SUPPORT)
 311:C:/Workspace/FW_Inertia/branch_indesit/PlatformLibrary/LIB_IOManager\InputManager.c **** 		case TURBIDITY_I:
 312:C:/Workspace/FW_Inertia/branch_indesit/PlatformLibrary/LIB_IOManager\InputManager.c **** #endif
 313:C:/Workspace/FW_Inertia/branch_indesit/PlatformLibrary/LIB_IOManager\InputManager.c **** #ifdef CONFIG_PM_ANALOG_FEEDBACKS_SUPPORT
 314:C:/Workspace/FW_Inertia/branch_indesit/PlatformLibrary/LIB_IOManager\InputManager.c **** 		case ANALOGFEEDBACK_I:
 315:C:/Workspace/FW_Inertia/branch_indesit/PlatformLibrary/LIB_IOManager\InputManager.c **** #endif /* CONFIG_PM_ANALOG_FEEDBACKS_SUPPORT */
 316:C:/Workspace/FW_Inertia/branch_indesit/PlatformLibrary/LIB_IOManager\InputManager.c **** 
 317:C:/Workspace/FW_Inertia/branch_indesit/PlatformLibrary/LIB_IOManager\InputManager.c **** 			/* fixed the linkage's pin return the AD channel linked with that pin */
 318:C:/Workspace/FW_Inertia/branch_indesit/PlatformLibrary/LIB_IOManager\InputManager.c **** 
 319:C:/Workspace/FW_Inertia/branch_indesit/PlatformLibrary/LIB_IOManager\InputManager.c **** 			if ( OCADC_GetADchannelSync(OCDIO_GetIOMapItem(pin),&channelAD) != (IO_ErrorType)IO_E_OK )
 320:C:/Workspace/FW_Inertia/branch_indesit/PlatformLibrary/LIB_IOManager\InputManager.c **** 			{
 321:C:/Workspace/FW_Inertia/branch_indesit/PlatformLibrary/LIB_IOManager\InputManager.c **** 				PLT_ERROR_FATAL(PLT_ERROR_INPUT_MNGR_5);
 322:C:/Workspace/FW_Inertia/branch_indesit/PlatformLibrary/LIB_IOManager\InputManager.c **** 				return; /* Serious Error !*/
 323:C:/Workspace/FW_Inertia/branch_indesit/PlatformLibrary/LIB_IOManager\InputManager.c **** 			}
 324:C:/Workspace/FW_Inertia/branch_indesit/PlatformLibrary/LIB_IOManager\InputManager.c **** 
 325:C:/Workspace/FW_Inertia/branch_indesit/PlatformLibrary/LIB_IOManager\InputManager.c **** 			/* Function Parameters: Param 1: channelAD -> A/D channel
 326:C:/Workspace/FW_Inertia/branch_indesit/PlatformLibrary/LIB_IOManager\InputManager.c **** 								    Param 2: Ram Position Conversion Result
 327:C:/Workspace/FW_Inertia/branch_indesit/PlatformLibrary/LIB_IOManager\InputManager.c **** 								    Param 3: lowLevelParametersPtr.Data -> pointer to Setting File Params
 328:C:/Workspace/FW_Inertia/branch_indesit/PlatformLibrary/LIB_IOManager\InputManager.c **** 			*/
 329:C:/Workspace/FW_Inertia/branch_indesit/PlatformLibrary/LIB_IOManager\InputManager.c **** 
 330:C:/Workspace/FW_Inertia/branch_indesit/PlatformLibrary/LIB_IOManager\InputManager.c **** 			LIB_ADC_RegisterADchannel( channelAD, INPUT_RESULT_POS(pByte), lowLevelParametersPtr.Data );
 331:C:/Workspace/FW_Inertia/branch_indesit/PlatformLibrary/LIB_IOManager\InputManager.c **** 
 332:C:/Workspace/FW_Inertia/branch_indesit/PlatformLibrary/LIB_IOManager\InputManager.c **** #ifdef __TURBIDITY_SENSOR_H
 333:C:/Workspace/FW_Inertia/branch_indesit/PlatformLibrary/LIB_IOManager\InputManager.c **** 
 334:C:/Workspace/FW_Inertia/branch_indesit/PlatformLibrary/LIB_IOManager\InputManager.c **** 			if ( readType == TURBIDITY_I )
 335:C:/Workspace/FW_Inertia/branch_indesit/PlatformLibrary/LIB_IOManager\InputManager.c **** 			{
 336:C:/Workspace/FW_Inertia/branch_indesit/PlatformLibrary/LIB_IOManager\InputManager.c **** 				uint8_t pinPWMCh = *(pinTabPtr.Data + INPUT_PIN_TAB_OFFSET(pByte) + 1 );
 337:C:/Workspace/FW_Inertia/branch_indesit/PlatformLibrary/LIB_IOManager\InputManager.c **** 				(void)TurbiditySensor_Init( channelAD, pinPWMCh, lowLevelParametersPtr.Data );
 338:C:/Workspace/FW_Inertia/branch_indesit/PlatformLibrary/LIB_IOManager\InputManager.c **** 			}
 339:C:/Workspace/FW_Inertia/branch_indesit/PlatformLibrary/LIB_IOManager\InputManager.c **** 
 340:C:/Workspace/FW_Inertia/branch_indesit/PlatformLibrary/LIB_IOManager\InputManager.c **** #endif /* __TURBIDITY_SENSOR_H */
 341:C:/Workspace/FW_Inertia/branch_indesit/PlatformLibrary/LIB_IOManager\InputManager.c **** #if defined(CONFIG_PM_TURBIDITY_SENSOR_SUPPORT)
 342:C:/Workspace/FW_Inertia/branch_indesit/PlatformLibrary/LIB_IOManager\InputManager.c **** 			if ( readType == TURBIDITY_I )
 343:C:/Workspace/FW_Inertia/branch_indesit/PlatformLibrary/LIB_IOManager\InputManager.c **** 			{
 344:C:/Workspace/FW_Inertia/branch_indesit/PlatformLibrary/LIB_IOManager\InputManager.c **** 				uint8_t pinPWMCh = *(pinTabPtr.Data + INPUT_PIN_TAB_OFFSET(pByte) + 1 );
 345:C:/Workspace/FW_Inertia/branch_indesit/PlatformLibrary/LIB_IOManager\InputManager.c **** 				PM_TurbiditySensor_SetParam( channelAD, pinPWMCh, (PM_TurbSensLLISettingsType*)lowLevelParamete
 346:C:/Workspace/FW_Inertia/branch_indesit/PlatformLibrary/LIB_IOManager\InputManager.c **** 			}
 347:C:/Workspace/FW_Inertia/branch_indesit/PlatformLibrary/LIB_IOManager\InputManager.c **** #endif /* defined(CONFIG_PM_TURBIDITY_SENSOR_SUPPORT) */
 348:C:/Workspace/FW_Inertia/branch_indesit/PlatformLibrary/LIB_IOManager\InputManager.c **** 
 349:C:/Workspace/FW_Inertia/branch_indesit/PlatformLibrary/LIB_IOManager\InputManager.c **** #ifdef CONFIG_PM_ANALOG_FEEDBACKS_SUPPORT
 350:C:/Workspace/FW_Inertia/branch_indesit/PlatformLibrary/LIB_IOManager\InputManager.c **** 
 351:C:/Workspace/FW_Inertia/branch_indesit/PlatformLibrary/LIB_IOManager\InputManager.c **** 			if ( readType == ANALOGFEEDBACK_I )
 352:C:/Workspace/FW_Inertia/branch_indesit/PlatformLibrary/LIB_IOManager\InputManager.c **** 			{
 353:C:/Workspace/FW_Inertia/branch_indesit/PlatformLibrary/LIB_IOManager\InputManager.c **** #if defined (PLATFORM2_SUPPORT) && ( defined(DR_DRYER) || defined (DW_DEA700) || defined(WILD_CARD)
 354:C:/Workspace/FW_Inertia/branch_indesit/PlatformLibrary/LIB_IOManager\InputManager.c **** 				(void)PM_AnalogFeedback_Setup( channelAD, lowLevelParametersPtr.Data );
 355:C:/Workspace/FW_Inertia/branch_indesit/PlatformLibrary/LIB_IOManager\InputManager.c **** #else
 356:C:/Workspace/FW_Inertia/branch_indesit/PlatformLibrary/LIB_IOManager\InputManager.c **** 				(void)AnalogFeedback_Setup( channelAD, lowLevelParametersPtr.Data );
 357:C:/Workspace/FW_Inertia/branch_indesit/PlatformLibrary/LIB_IOManager\InputManager.c **** #endif
 358:C:/Workspace/FW_Inertia/branch_indesit/PlatformLibrary/LIB_IOManager\InputManager.c **** 			}
 359:C:/Workspace/FW_Inertia/branch_indesit/PlatformLibrary/LIB_IOManager\InputManager.c **** 
 360:C:/Workspace/FW_Inertia/branch_indesit/PlatformLibrary/LIB_IOManager\InputManager.c **** #endif /* CONFIG_PM_ANALOG_FEEDBACKS_SUPPORT */
 361:C:/Workspace/FW_Inertia/branch_indesit/PlatformLibrary/LIB_IOManager\InputManager.c **** 
 362:C:/Workspace/FW_Inertia/branch_indesit/PlatformLibrary/LIB_IOManager\InputManager.c **** 			break;
 363:C:/Workspace/FW_Inertia/branch_indesit/PlatformLibrary/LIB_IOManager\InputManager.c **** 
 364:C:/Workspace/FW_Inertia/branch_indesit/PlatformLibrary/LIB_IOManager\InputManager.c **** #ifdef __TIME_COUNTER_H
 365:C:/Workspace/FW_Inertia/branch_indesit/PlatformLibrary/LIB_IOManager\InputManager.c **** 		case TIME_I:
 366:C:/Workspace/FW_Inertia/branch_indesit/PlatformLibrary/LIB_IOManager\InputManager.c **** 			/* If not to add to TimeInputs[] Array */
 367:C:/Workspace/FW_Inertia/branch_indesit/PlatformLibrary/LIB_IOManager\InputManager.c **** 			if( !(((timeLLIparams_t *)lowLevelParametersPtr.Data) -> bit.automatic) )
 368:C:/Workspace/FW_Inertia/branch_indesit/PlatformLibrary/LIB_IOManager\InputManager.c **** 			{
 369:C:/Workspace/FW_Inertia/branch_indesit/PlatformLibrary/LIB_IOManager\InputManager.c **** 				break;
 370:C:/Workspace/FW_Inertia/branch_indesit/PlatformLibrary/LIB_IOManager\InputManager.c **** 			}
 371:C:/Workspace/FW_Inertia/branch_indesit/PlatformLibrary/LIB_IOManager\InputManager.c **** 
 372:C:/Workspace/FW_Inertia/branch_indesit/PlatformLibrary/LIB_IOManager\InputManager.c **** 			if (resetType)
 373:C:/Workspace/FW_Inertia/branch_indesit/PlatformLibrary/LIB_IOManager\InputManager.c **** 			{
 374:C:/Workspace/FW_Inertia/branch_indesit/PlatformLibrary/LIB_IOManager\InputManager.c **** 				/*                     POS                  NSAMPLES                          DELTA            
 375:C:/Workspace/FW_Inertia/branch_indesit/PlatformLibrary/LIB_IOManager\InputManager.c **** 				if (InsertTimeInput( INPUT_RESULT_POS(pByte),(*lowLevelParametersPtr.Data & 0x7F),(*(lowLevelPa
 376:C:/Workspace/FW_Inertia/branch_indesit/PlatformLibrary/LIB_IOManager\InputManager.c **** 				{
 377:C:/Workspace/FW_Inertia/branch_indesit/PlatformLibrary/LIB_IOManager\InputManager.c **** 					/* errore !!! */
 378:C:/Workspace/FW_Inertia/branch_indesit/PlatformLibrary/LIB_IOManager\InputManager.c **** 				}
 379:C:/Workspace/FW_Inertia/branch_indesit/PlatformLibrary/LIB_IOManager\InputManager.c **** 			}
 380:C:/Workspace/FW_Inertia/branch_indesit/PlatformLibrary/LIB_IOManager\InputManager.c **** 
 381:C:/Workspace/FW_Inertia/branch_indesit/PlatformLibrary/LIB_IOManager\InputManager.c **** 			break;
 382:C:/Workspace/FW_Inertia/branch_indesit/PlatformLibrary/LIB_IOManager\InputManager.c **** 
 383:C:/Workspace/FW_Inertia/branch_indesit/PlatformLibrary/LIB_IOManager\InputManager.c **** 
 384:C:/Workspace/FW_Inertia/branch_indesit/PlatformLibrary/LIB_IOManager\InputManager.c **** 
 385:C:/Workspace/FW_Inertia/branch_indesit/PlatformLibrary/LIB_IOManager\InputManager.c **** 		case TIMEMULT_I:
 386:C:/Workspace/FW_Inertia/branch_indesit/PlatformLibrary/LIB_IOManager\InputManager.c **** 			/* If not to add to TimeInputs[] Array */
 387:C:/Workspace/FW_Inertia/branch_indesit/PlatformLibrary/LIB_IOManager\InputManager.c **** 			if( !(((timeMpxLLIparams_t *)lowLevelParametersPtr.Data) -> bit.automatic) )
 388:C:/Workspace/FW_Inertia/branch_indesit/PlatformLibrary/LIB_IOManager\InputManager.c **** 			{
 389:C:/Workspace/FW_Inertia/branch_indesit/PlatformLibrary/LIB_IOManager\InputManager.c **** 				break;
 390:C:/Workspace/FW_Inertia/branch_indesit/PlatformLibrary/LIB_IOManager\InputManager.c **** 			}
 391:C:/Workspace/FW_Inertia/branch_indesit/PlatformLibrary/LIB_IOManager\InputManager.c **** 			if (resetType)
 392:C:/Workspace/FW_Inertia/branch_indesit/PlatformLibrary/LIB_IOManager\InputManager.c **** 			{
 393:C:/Workspace/FW_Inertia/branch_indesit/PlatformLibrary/LIB_IOManager\InputManager.c **** 				/* POS       NSAMPLES              DELTA                        MULCONF     ENABLED  READTYPE	 
 394:C:/Workspace/FW_Inertia/branch_indesit/PlatformLibrary/LIB_IOManager\InputManager.c **** 				if (InsertTimeInput( INPUT_RESULT_POS(pByte),(*lowLevelParametersPtr.Data & 0x7F),(*(lowLevelPa
 395:C:/Workspace/FW_Inertia/branch_indesit/PlatformLibrary/LIB_IOManager\InputManager.c **** 				{
 396:C:/Workspace/FW_Inertia/branch_indesit/PlatformLibrary/LIB_IOManager\InputManager.c **** 
 397:C:/Workspace/FW_Inertia/branch_indesit/PlatformLibrary/LIB_IOManager\InputManager.c **** 					/* errore !!! */
 398:C:/Workspace/FW_Inertia/branch_indesit/PlatformLibrary/LIB_IOManager\InputManager.c **** 				}
 399:C:/Workspace/FW_Inertia/branch_indesit/PlatformLibrary/LIB_IOManager\InputManager.c **** 			}
 400:C:/Workspace/FW_Inertia/branch_indesit/PlatformLibrary/LIB_IOManager\InputManager.c **** 			/* per il TIME semplice togliere il selettore mulsel */
 401:C:/Workspace/FW_Inertia/branch_indesit/PlatformLibrary/LIB_IOManager\InputManager.c **** 			break;
 402:C:/Workspace/FW_Inertia/branch_indesit/PlatformLibrary/LIB_IOManager\InputManager.c **** 
 403:C:/Workspace/FW_Inertia/branch_indesit/PlatformLibrary/LIB_IOManager\InputManager.c **** #endif /*__TIME_COUNTER_H */
 404:C:/Workspace/FW_Inertia/branch_indesit/PlatformLibrary/LIB_IOManager\InputManager.c **** 
 405:C:/Workspace/FW_Inertia/branch_indesit/PlatformLibrary/LIB_IOManager\InputManager.c **** #ifdef __PUSH_H
 406:C:/Workspace/FW_Inertia/branch_indesit/PlatformLibrary/LIB_IOManager\InputManager.c **** 
 407:C:/Workspace/FW_Inertia/branch_indesit/PlatformLibrary/LIB_IOManager\InputManager.c **** 		case KEY_I:
 408:C:/Workspace/FW_Inertia/branch_indesit/PlatformLibrary/LIB_IOManager\InputManager.c **** 
 409:C:/Workspace/FW_Inertia/branch_indesit/PlatformLibrary/LIB_IOManager\InputManager.c **** 			/* No pullup */
 410:C:/Workspace/FW_Inertia/branch_indesit/PlatformLibrary/LIB_IOManager\InputManager.c **** 			activeSense = ((((keyLLIparams_t*)lowLevelParametersPtr.Data)->bit.inverted)?1:0);
 411:C:/Workspace/FW_Inertia/branch_indesit/PlatformLibrary/LIB_IOManager\InputManager.c **** 			LIB_IOM_Set_IODir_ActiveSense(activeSense,pin);
 412:C:/Workspace/FW_Inertia/branch_indesit/PlatformLibrary/LIB_IOManager\InputManager.c **** 
 413:C:/Workspace/FW_Inertia/branch_indesit/PlatformLibrary/LIB_IOManager\InputManager.c **** 			if (PUSH_InsertDigInput( INPUT_RESULT_POS(pByte), pin, 0, 0, (*lowLevelParametersPtr.Data & 0x7F
 414:C:/Workspace/FW_Inertia/branch_indesit/PlatformLibrary/LIB_IOManager\InputManager.c **** 			{
 415:C:/Workspace/FW_Inertia/branch_indesit/PlatformLibrary/LIB_IOManager\InputManager.c **** 				/* errore !!! */
 416:C:/Workspace/FW_Inertia/branch_indesit/PlatformLibrary/LIB_IOManager\InputManager.c **** 			}
 417:C:/Workspace/FW_Inertia/branch_indesit/PlatformLibrary/LIB_IOManager\InputManager.c **** 
 418:C:/Workspace/FW_Inertia/branch_indesit/PlatformLibrary/LIB_IOManager\InputManager.c **** 			break;
 419:C:/Workspace/FW_Inertia/branch_indesit/PlatformLibrary/LIB_IOManager\InputManager.c **** 
 420:C:/Workspace/FW_Inertia/branch_indesit/PlatformLibrary/LIB_IOManager\InputManager.c **** #endif /* __PUSH_H */
 421:C:/Workspace/FW_Inertia/branch_indesit/PlatformLibrary/LIB_IOManager\InputManager.c **** 
 422:C:/Workspace/FW_Inertia/branch_indesit/PlatformLibrary/LIB_IOManager\InputManager.c **** 		case DIGITAL_I:
 423:C:/Workspace/FW_Inertia/branch_indesit/PlatformLibrary/LIB_IOManager\InputManager.c **** 
 424:C:/Workspace/FW_Inertia/branch_indesit/PlatformLibrary/LIB_IOManager\InputManager.c **** 			if ( ((digitalLLIparams_t*)((void*)lowLevelParametersPtr.Data))->bit.pullUp )
 425:C:/Workspace/FW_Inertia/branch_indesit/PlatformLibrary/LIB_IOManager\InputManager.c **** 			{
 426:C:/Workspace/FW_Inertia/branch_indesit/PlatformLibrary/LIB_IOManager\InputManager.c **** 				(void)OCDIO_SetPinPullUpSync(pin);
 427:C:/Workspace/FW_Inertia/branch_indesit/PlatformLibrary/LIB_IOManager\InputManager.c **** 			}
 428:C:/Workspace/FW_Inertia/branch_indesit/PlatformLibrary/LIB_IOManager\InputManager.c **** 			activeSense = (uint8_t) ((((digitalLLIparams_t*)((void*)lowLevelParametersPtr.Data))->bit.invert
 429:C:/Workspace/FW_Inertia/branch_indesit/PlatformLibrary/LIB_IOManager\InputManager.c **** 			LIB_IOM_Set_IODir_ActiveSense(activeSense,pin);
 430:C:/Workspace/FW_Inertia/branch_indesit/PlatformLibrary/LIB_IOManager\InputManager.c **** 
 431:C:/Workspace/FW_Inertia/branch_indesit/PlatformLibrary/LIB_IOManager\InputManager.c **** 
 432:C:/Workspace/FW_Inertia/branch_indesit/PlatformLibrary/LIB_IOManager\InputManager.c **** 			if (resetType)		/* if reset is cold */
 433:C:/Workspace/FW_Inertia/branch_indesit/PlatformLibrary/LIB_IOManager\InputManager.c **** 			{
 434:C:/Workspace/FW_Inertia/branch_indesit/PlatformLibrary/LIB_IOManager\InputManager.c **** 				/* param 1: Ram Position Conversion's Result */
 435:C:/Workspace/FW_Inertia/branch_indesit/PlatformLibrary/LIB_IOManager\InputManager.c **** 				/* param 2: pin -> pin linkage module M.C.U. - 1 */
 436:C:/Workspace/FW_Inertia/branch_indesit/PlatformLibrary/LIB_IOManager\InputManager.c **** 				/* param 3: multiplexed or not multiplexed input */
 437:C:/Workspace/FW_Inertia/branch_indesit/PlatformLibrary/LIB_IOManager\InputManager.c **** 				/* param 4: pointer to config. params  */
 438:C:/Workspace/FW_Inertia/branch_indesit/PlatformLibrary/LIB_IOManager\InputManager.c **** 
 439:C:/Workspace/FW_Inertia/branch_indesit/PlatformLibrary/LIB_IOManager\InputManager.c **** 				LIB_DIO_InsertDigInput( INPUT_RESULT_POS(pByte), pin, NO_MPX_INPUT, lowLevelParametersPtr.Data)
 440:C:/Workspace/FW_Inertia/branch_indesit/PlatformLibrary/LIB_IOManager\InputManager.c **** 
 441:C:/Workspace/FW_Inertia/branch_indesit/PlatformLibrary/LIB_IOManager\InputManager.c **** 			}
 442:C:/Workspace/FW_Inertia/branch_indesit/PlatformLibrary/LIB_IOManager\InputManager.c **** 
 443:C:/Workspace/FW_Inertia/branch_indesit/PlatformLibrary/LIB_IOManager\InputManager.c **** 			break;
 444:C:/Workspace/FW_Inertia/branch_indesit/PlatformLibrary/LIB_IOManager\InputManager.c **** #if defined( __CONDUCTIVITY_SENSOR_H_ )
 445:C:/Workspace/FW_Inertia/branch_indesit/PlatformLibrary/LIB_IOManager\InputManager.c **** 
 446:C:/Workspace/FW_Inertia/branch_indesit/PlatformLibrary/LIB_IOManager\InputManager.c **** 		case CONDUCTIVITYSENSOR_I:
 447:C:/Workspace/FW_Inertia/branch_indesit/PlatformLibrary/LIB_IOManager\InputManager.c **** 			/*longfill conductivity sensor and conductivity sensor*/
 448:C:/Workspace/FW_Inertia/branch_indesit/PlatformLibrary/LIB_IOManager\InputManager.c **** 			if ( ((conductivitySensorLLI_t*)lowLevelParametersPtr.Data)->bit.pullUp)
 449:C:/Workspace/FW_Inertia/branch_indesit/PlatformLibrary/LIB_IOManager\InputManager.c **** 			{
 450:C:/Workspace/FW_Inertia/branch_indesit/PlatformLibrary/LIB_IOManager\InputManager.c **** 				(void)OCDIO_SetPinPullUpSync(pin);
 451:C:/Workspace/FW_Inertia/branch_indesit/PlatformLibrary/LIB_IOManager\InputManager.c **** 			}
 452:C:/Workspace/FW_Inertia/branch_indesit/PlatformLibrary/LIB_IOManager\InputManager.c **** 
 453:C:/Workspace/FW_Inertia/branch_indesit/PlatformLibrary/LIB_IOManager\InputManager.c **** 			activeSense = ((((conductivitySensorLLI_t*)lowLevelParametersPtr.Data)->bit.inverted)?1:0);
 454:C:/Workspace/FW_Inertia/branch_indesit/PlatformLibrary/LIB_IOManager\InputManager.c **** 
 455:C:/Workspace/FW_Inertia/branch_indesit/PlatformLibrary/LIB_IOManager\InputManager.c **** 			LIB_IOM_Set_IODir_ActiveSense(activeSense,pin);
 456:C:/Workspace/FW_Inertia/branch_indesit/PlatformLibrary/LIB_IOManager\InputManager.c **** 			/*Tout, Tmin, Tmax non used*/
 457:C:/Workspace/FW_Inertia/branch_indesit/PlatformLibrary/LIB_IOManager\InputManager.c **** 			CSN_Init(pin,  *(lowLevelParametersPtr.Data+9), *(lowLevelParametersPtr.Data+8), *(lowLevelParam
 458:C:/Workspace/FW_Inertia/branch_indesit/PlatformLibrary/LIB_IOManager\InputManager.c **** 
 459:C:/Workspace/FW_Inertia/branch_indesit/PlatformLibrary/LIB_IOManager\InputManager.c **** 			break;
 460:C:/Workspace/FW_Inertia/branch_indesit/PlatformLibrary/LIB_IOManager\InputManager.c **** 
 461:C:/Workspace/FW_Inertia/branch_indesit/PlatformLibrary/LIB_IOManager\InputManager.c **** #elif defined( CONFIG_PM_CONDUCTIVITY_SENSOR )
 462:C:/Workspace/FW_Inertia/branch_indesit/PlatformLibrary/LIB_IOManager\InputManager.c **** 
 463:C:/Workspace/FW_Inertia/branch_indesit/PlatformLibrary/LIB_IOManager\InputManager.c **** 		case CONDUCTIVITYSENSOR_I:
 464:C:/Workspace/FW_Inertia/branch_indesit/PlatformLibrary/LIB_IOManager\InputManager.c **** 			/*longfill conductivity sensor and conductivity sensor*/
 465:C:/Workspace/FW_Inertia/branch_indesit/PlatformLibrary/LIB_IOManager\InputManager.c **** 			if ( ((conductivitySensorLLI_t*)lowLevelParametersPtr.Data)->bit.pullUp)
 466:C:/Workspace/FW_Inertia/branch_indesit/PlatformLibrary/LIB_IOManager\InputManager.c **** 			{
 467:C:/Workspace/FW_Inertia/branch_indesit/PlatformLibrary/LIB_IOManager\InputManager.c **** 				(void)OCDIO_SetPinPullUpSync(pin);
 468:C:/Workspace/FW_Inertia/branch_indesit/PlatformLibrary/LIB_IOManager\InputManager.c **** 			}
 469:C:/Workspace/FW_Inertia/branch_indesit/PlatformLibrary/LIB_IOManager\InputManager.c **** 
 470:C:/Workspace/FW_Inertia/branch_indesit/PlatformLibrary/LIB_IOManager\InputManager.c **** 			activeSense = ((((conductivitySensorLLI_t*)lowLevelParametersPtr.Data)->bit.inverted)?1:0);
 471:C:/Workspace/FW_Inertia/branch_indesit/PlatformLibrary/LIB_IOManager\InputManager.c **** 
 472:C:/Workspace/FW_Inertia/branch_indesit/PlatformLibrary/LIB_IOManager\InputManager.c **** 			LIB_IOM_Set_IODir_ActiveSense(activeSense,pin);
 473:C:/Workspace/FW_Inertia/branch_indesit/PlatformLibrary/LIB_IOManager\InputManager.c **** 			/*Tout, Tmin, Tmax non used*/		
 474:C:/Workspace/FW_Inertia/branch_indesit/PlatformLibrary/LIB_IOManager\InputManager.c **** 			PM_CSN_Init(pin,  lowLevelParametersPtr.Data );
 475:C:/Workspace/FW_Inertia/branch_indesit/PlatformLibrary/LIB_IOManager\InputManager.c **** 
 476:C:/Workspace/FW_Inertia/branch_indesit/PlatformLibrary/LIB_IOManager\InputManager.c **** 			break;
 477:C:/Workspace/FW_Inertia/branch_indesit/PlatformLibrary/LIB_IOManager\InputManager.c **** 
 478:C:/Workspace/FW_Inertia/branch_indesit/PlatformLibrary/LIB_IOManager\InputManager.c **** #endif /*__CONDUCTIVITY_SENSOR_2_H_*/
 479:C:/Workspace/FW_Inertia/branch_indesit/PlatformLibrary/LIB_IOManager\InputManager.c **** 
 480:C:/Workspace/FW_Inertia/branch_indesit/PlatformLibrary/LIB_IOManager\InputManager.c **** #ifdef __MULTI_H
 481:C:/Workspace/FW_Inertia/branch_indesit/PlatformLibrary/LIB_IOManager\InputManager.c **** 
 482:C:/Workspace/FW_Inertia/branch_indesit/PlatformLibrary/LIB_IOManager\InputManager.c **** 		case DIGMULT_I:
 483:C:/Workspace/FW_Inertia/branch_indesit/PlatformLibrary/LIB_IOManager\InputManager.c **** 
 484:C:/Workspace/FW_Inertia/branch_indesit/PlatformLibrary/LIB_IOManager\InputManager.c **** 			if (resetType)
 485:C:/Workspace/FW_Inertia/branch_indesit/PlatformLibrary/LIB_IOManager\InputManager.c **** 			{
 486:C:/Workspace/FW_Inertia/branch_indesit/PlatformLibrary/LIB_IOManager\InputManager.c **** 				/* param 1: Ram Position Conversion's Result */
 487:C:/Workspace/FW_Inertia/branch_indesit/PlatformLibrary/LIB_IOManager\InputManager.c **** 				/* param 2: pin -> pin linkage module M.C.U. - 1 */
 488:C:/Workspace/FW_Inertia/branch_indesit/PlatformLibrary/LIB_IOManager\InputManager.c **** 				/* param 3: multiplexed or not multiplexed input */
 489:C:/Workspace/FW_Inertia/branch_indesit/PlatformLibrary/LIB_IOManager\InputManager.c **** 				/* param 4: pointer to config. params  */
 490:C:/Workspace/FW_Inertia/branch_indesit/PlatformLibrary/LIB_IOManager\InputManager.c **** 
 491:C:/Workspace/FW_Inertia/branch_indesit/PlatformLibrary/LIB_IOManager\InputManager.c **** 				LIB_DIO_InsertDigInput( INPUT_RESULT_POS(pByte), pin, MPX_INPUT, lowLevelParametersPtr.Data);
 492:C:/Workspace/FW_Inertia/branch_indesit/PlatformLibrary/LIB_IOManager\InputManager.c **** 			}
 493:C:/Workspace/FW_Inertia/branch_indesit/PlatformLibrary/LIB_IOManager\InputManager.c **** 
 494:C:/Workspace/FW_Inertia/branch_indesit/PlatformLibrary/LIB_IOManager\InputManager.c **** 			break;
 495:C:/Workspace/FW_Inertia/branch_indesit/PlatformLibrary/LIB_IOManager\InputManager.c **** #endif
 496:C:/Workspace/FW_Inertia/branch_indesit/PlatformLibrary/LIB_IOManager\InputManager.c **** 
 497:C:/Workspace/FW_Inertia/branch_indesit/PlatformLibrary/LIB_IOManager\InputManager.c **** #ifdef CONFIG_FEEDBACK_ENABLE
 498:C:/Workspace/FW_Inertia/branch_indesit/PlatformLibrary/LIB_IOManager\InputManager.c **** 
 499:C:/Workspace/FW_Inertia/branch_indesit/PlatformLibrary/LIB_IOManager\InputManager.c **** 		case FEEDBACK_I:
 500:C:/Workspace/FW_Inertia/branch_indesit/PlatformLibrary/LIB_IOManager\InputManager.c **** 
 501:C:/Workspace/FW_Inertia/branch_indesit/PlatformLibrary/LIB_IOManager\InputManager.c **** 			if ( ((feedbackLLIparams_t*)((void*)lowLevelParametersPtr.Data))->bit.pullUp)
 502:C:/Workspace/FW_Inertia/branch_indesit/PlatformLibrary/LIB_IOManager\InputManager.c **** 			{
 503:C:/Workspace/FW_Inertia/branch_indesit/PlatformLibrary/LIB_IOManager\InputManager.c **** 				(void)OCDIO_SetPinPullUpSync(pin);
 504:C:/Workspace/FW_Inertia/branch_indesit/PlatformLibrary/LIB_IOManager\InputManager.c **** 			}
 505:C:/Workspace/FW_Inertia/branch_indesit/PlatformLibrary/LIB_IOManager\InputManager.c **** 			activeSense = (uint8_t) ((((feedbackLLIparams_t*)((void*)lowLevelParametersPtr.Data))->bit.inver
 506:C:/Workspace/FW_Inertia/branch_indesit/PlatformLibrary/LIB_IOManager\InputManager.c **** 			LIB_IOM_Set_IODir_ActiveSense(activeSense,pin);
 507:C:/Workspace/FW_Inertia/branch_indesit/PlatformLibrary/LIB_IOManager\InputManager.c **** 
 508:C:/Workspace/FW_Inertia/branch_indesit/PlatformLibrary/LIB_IOManager\InputManager.c **** 			if (resetType)
  53                             		.loc 1 508 0
  54 0048 5B DD                   		movu.B	r13, r13
 178:C:/Workspace/FW_Inertia/branch_indesit/PlatformLibrary/LIB_IOManager\InputManager.c **** 	for ( pByte = lowLevelInputTabPtr.Data;
  55                             		.loc 1 178 0
  56 004a 38 5A 01                		bra	.L5
  57                             	.LVL6:
  58                             	.L24:
 184:C:/Workspace/FW_Inertia/branch_indesit/PlatformLibrary/LIB_IOManager\InputManager.c **** 		pin = *(pinTabPtr.Data + INPUT_PIN_TAB_OFFSET(pByte));
  59                             		.loc 1 184 0
  60 004d 58 C7                   		movu.B	[r12], r7
  61 004f 06 89 07 02             		add	8[r0].L, r7
  62 0053 CC 77                   		mov.B	[r7], r7
  63                             	.LVL7:
 185:C:/Workspace/FW_Inertia/branch_indesit/PlatformLibrary/LIB_IOManager\InputManager.c **** 		if ( pin >= IO_MODULE_MAP_SIZE )
  64                             		.loc 1 185 0
  65 0055 5B 7E                   		movu.B	r7, r14
  66 0057 75 5E 2B                		cmp	#43, r14
  67 005a 25 08                   		bleu	.L6
 187:C:/Workspace/FW_Inertia/branch_indesit/PlatformLibrary/LIB_IOManager\InputManager.c **** 			PLT_ERROR_FATAL(PLT_ERROR_INPUT_MNGR_3);
  68                             		.loc 1 187 0
  69 005c 75 41 14                		mov.L	#20, r1
  70 005f 38 A5 00                		bra	.L43
  71                             	.L6:
 193:C:/Workspace/FW_Inertia/branch_indesit/PlatformLibrary/LIB_IOManager\InputManager.c **** 		err = OCDIO_SetPinDirValueSync(pin,0);
  72                             		.loc 1 193 0
  73 0062 CF 71                   		mov.B	r7, r1
  74 0064 66 02                   		mov	#0, r2
  75 0066 05 00 00 00             		bsr	_OCDIO_SetPinDirValueSync
  76                             	.LVL8:
 194:C:/Workspace/FW_Inertia/branch_indesit/PlatformLibrary/LIB_IOManager\InputManager.c **** 		if ( (IO_ErrorType)IO_E_UNKNOWN_MODE == err )
  77                             		.loc 1 194 0
  78 006a 5B 11                   		movu.B	r1, r1
  79 006c 61 31                   		cmp	#3, r1
  80 006e 1D                      		bne	.L7
 197:C:/Workspace/FW_Inertia/branch_indesit/PlatformLibrary/LIB_IOManager\InputManager.c **** 			PLT_ERROR_FATAL(PLT_ERROR_INPUT_MNGR_6);
  81                             		.loc 1 197 0
  82 006f 75 41 17                		mov.L	#23, r1
  83                             	.LVL9:
  84 0072 08                      		bra	.L42
  85                             	.LVL10:
  86                             	.L7:
 199:C:/Workspace/FW_Inertia/branch_indesit/PlatformLibrary/LIB_IOManager\InputManager.c **** 		else if ( (IO_ErrorType)IO_E_INVALID_VALUE == err )
  87                             		.loc 1 199 0
  88 0073 75 51 13                		cmp	#19, r1
  89 0076 18                      		bne	.L8
 202:C:/Workspace/FW_Inertia/branch_indesit/PlatformLibrary/LIB_IOManager\InputManager.c **** 			PLT_ERROR_FATAL(PLT_ERROR_INPUT_MNGR_7);
  90                             		.loc 1 202 0
  91 0077 75 41 18                		mov.L	#24, r1
  92                             	.LVL11:
  93                             		.balign 2,3,3
  94                             	.L42:
  95 007a 05 00 00 00             		bsr	_LIB_Error_Fatal_Handler
  96                             	.LVL12:
  97                             		.balign 2,3,3
  98                             	.L8:
 209:C:/Workspace/FW_Inertia/branch_indesit/PlatformLibrary/LIB_IOManager\InputManager.c **** 		if ( 0 != BasicLoader( SF_PTR_IO_DEVICE, INPUT_TYPE_PARAMS_OFFSET(pByte), &lowLevelParametersPtr)
  99                             		.loc 1 209 0
 100 007e 59 A2 02                		movu.B	2[r10], r2
 101 0081 75 41 21                		mov	#33, r1
 102 0084 EF 03                   		mov.L	r0, r3
 103 0086 05 00 00 00             		bsr	_BasicLoader
 104                             	.LVL13:
 105 008a 76 21 FF 00             		and #0xff, r1
 106 008e 16                      		beq	.L9
 211:C:/Workspace/FW_Inertia/branch_indesit/PlatformLibrary/LIB_IOManager\InputManager.c **** 			PLT_ERROR_FATAL(PLT_ERROR_INPUT_MNGR_4);
 107                             		.loc 1 211 0
 108 008f 75 41 15                		mov.L	#21, r1
 109 0092 2E 72                   		bra	.L43
 110                             	.L9:
 216:C:/Workspace/FW_Inertia/branch_indesit/PlatformLibrary/LIB_IOManager\InputManager.c **** 		readType = READ_TYPE(pByte);
 111                             		.loc 1 216 0
 112 0094 CC A9                   		mov.B	[r10], r9
 113                             	.LVL14:
 217:C:/Workspace/FW_Inertia/branch_indesit/PlatformLibrary/LIB_IOManager\InputManager.c **** 		switch (readType)
 114                             		.loc 1 217 0
 115 0096 5B 9E                   		movu.B	r9, r14
 116 0098 61 DE                   		cmp	#13, r14
 117 009a 25 05 38 02 01          		bgtu	.L10
 118 009f FE 6E 8E                		mov.L	[r14,r8], r14
 119                             		
 120 00a2 7F 0E                   	1:jmp	r14
 121                             		.section	.rodata.LIB_IOM_InputInitialization,"a",@progbits
 122                             		.balign 4
 123                             		.balign 4
 124                             	.L16:
 125 0000 00 00 01 3B             		.long .L11
 126 0004 00 00 00 EB             		.long .L12
 127 0008 00 00 01 6E             		.long .L13
 128 000c 00 00 01 9E             		.long .L10
 129 0010 00 00 01 9E             		.long .L10
 130 0014 00 00 01 9E             		.long .L10
 131 0018 00 00 01 9E             		.long .L10
 132 001c 00 00 00 A4             		.long .L14
 133 0020 00 00 01 9E             		.long .L10
 134 0024 00 00 01 9E             		.long .L10
 135 0028 00 00 01 9E             		.long .L10
 136 002c 00 00 00 BF             		.long .L15
 137 0030 00 00 00 EB             		.long .L12
 138 0034 00 00 00 EB             		.long .L12
 139                             		.section	.text.LIB_IOM_InputInitialization
 140                             	.L14:
 250:C:/Workspace/FW_Inertia/branch_indesit/PlatformLibrary/LIB_IOManager\InputManager.c **** 			if( IO_E_OK != PM_FrequencyFeedbacks_Configure(pin,(freqFeedbackLLIparams_t*)((void*)lowLevelPar
 141                             		.loc 1 250 0
 142 00a4 CF 71                   		mov.B	r7, r1
 143 00a6 EC 02                   		mov.L	[r0], r2
 144 00a8 CC B3                   		mov.B	[r11], r3
 145 00aa 05 00 00 00             		bsr	_PM_FrequencyFeedbacks_Configure
 146                             	.LVL15:
 147 00ae 76 21 FF 00             		and #0xff, r1
 148 00b2 3A EC 00                		beq	.L10
 251:C:/Workspace/FW_Inertia/branch_indesit/PlatformLibrary/LIB_IOManager\InputManager.c **** 				PLT_ERROR_FATAL(PLT_ERROR_INPUT_MNGR_8);
 149                             		.loc 1 251 0
 150 00b5 75 41 19                		mov.L	#25, r1
 151 00b8 05 00 00 00             		bsr	_LIB_Error_Fatal_Handler
 152                             	.LVL16:
 153 00bc 38 E2 00                		bra	.L10
 154                             	.L15:
 299:C:/Workspace/FW_Inertia/branch_indesit/PlatformLibrary/LIB_IOManager\InputManager.c **** 			if ( ((pulseCounterLLIparams_t*)lowLevelParametersPtr.Data)->bit.pullUp )
 155                             		.loc 1 299 0
 156 00bf EC 0E                   		mov.L	[r0], r14
 157 00c1 DC EE                   		mov.W	[r14], r14
 158 00c3 75 2E 20                		and #32, r14
 159 00c6 5F EE                   		movu.W	r14, r14
 160 00c8 61 0E                   		cmp	#0, r14
 161 00ca 10                      		beq	.L18
 301:C:/Workspace/FW_Inertia/branch_indesit/PlatformLibrary/LIB_IOManager\InputManager.c **** 				(void)OCDIO_SetPinPullUpSync(pin);
 162                             		.loc 1 301 0
 163 00cb CF 71                   		mov.B	r7, r1
 164 00cd 05 00 00 00             		bsr	_OCDIO_SetPinPullUpSync
 165                             	.LVL17:
 166 00d1 03                      		.balign 2,3,1
 167                             	.L18:
 303:C:/Workspace/FW_Inertia/branch_indesit/PlatformLibrary/LIB_IOManager\InputManager.c **** 			LIB_IOM_Set_IODir_ActiveSense(0,pin);
 168                             		.loc 1 303 0
 169 00d2 66 01                   		mov.L	#0, r1
 170 00d4 CF 72                   		mov.B	r7, r2
 171 00d6 05 00 00 00             		bsr	_LIB_IOM_Set_IODir_ActiveSense
 172                             	.LVL18:
 304:C:/Workspace/FW_Inertia/branch_indesit/PlatformLibrary/LIB_IOManager\InputManager.c **** 			(void)PM_PulseCounter_Init(pin,lowLevelParametersPtr.Data);
 173                             		.loc 1 304 0
 174 00da CF 71                   		mov.B	r7, r1
 175 00dc EC 02                   		mov.L	[r0], r2
 176 00de 05 00 00 00             		bsr	_PM_PulseCounter_Init
 177                             	.LVL19:
 305:C:/Workspace/FW_Inertia/branch_indesit/PlatformLibrary/LIB_IOManager\InputManager.c **** 			(void)PM_PulseCounter_SetChannelStatus ( PULSECOUNTER_ENABLE );
 178                             		.loc 1 305 0
 179 00e2 66 11                   		mov	#1, r1
 180 00e4 05 00 00 00             		bsr	_PM_PulseCounter_SetChannelStatus
 181                             	.LVL20:
 306:C:/Workspace/FW_Inertia/branch_indesit/PlatformLibrary/LIB_IOManager\InputManager.c **** 			break;
 182                             		.loc 1 306 0
 183 00e8 38 B6 00                		bra	.L10
 184                             	.L12:
 319:C:/Workspace/FW_Inertia/branch_indesit/PlatformLibrary/LIB_IOManager\InputManager.c **** 			if ( OCADC_GetADchannelSync(OCDIO_GetIOMapItem(pin),&channelAD) != (IO_ErrorType)IO_E_OK )
 185                             		.loc 1 319 0
 186 00eb CF 71                   		mov.B	r7, r1
 187 00ed 05 00 00 00             		bsr	_OCDIO_GetIOMapItem
 188                             	.LVL21:
 189 00f1 75 42 18                		mov.L	#24, r2
 190 00f4 4B 02                   		add	r0, r2
 191 00f6 05 00 00 00             		bsr	_OCADC_GetADchannelSync
 192                             	.LVL22:
 193 00fa 76 21 FF 00             		and #0xff, r1
 194 00fe 20 0D                   		beq	.L19
 321:C:/Workspace/FW_Inertia/branch_indesit/PlatformLibrary/LIB_IOManager\InputManager.c **** 				PLT_ERROR_FATAL(PLT_ERROR_INPUT_MNGR_5);
 195                             		.loc 1 321 0
 196 0100 75 41 16                		mov.L	#22, r1
 197                             	.LVL23:
 198 0103 03                      		.balign 2,3,3
 199                             	.L43:
 200 0104 05 00 00 00             		bsr	_LIB_Error_Fatal_Handler
 201                             	.LVL24:
 202 0108 38 AC 00                		bra	.L1
 203                             	.LVL25:
 204                             	.L19:
 330:C:/Workspace/FW_Inertia/branch_indesit/PlatformLibrary/LIB_IOManager\InputManager.c **** 			LIB_ADC_RegisterADchannel( channelAD, INPUT_RESULT_POS(pByte), lowLevelParametersPtr.Data );
 205                             		.loc 1 330 0
 206 010b 8E 01                   		mov.B	24[r0], r1
 207 010d CC B2                   		mov.B	[r11], r2
 208 010f EC 03                   		mov.L	[r0], r3
 209 0111 05 00 00 00             		bsr	_LIB_ADC_RegisterADchannel
 210                             	.LVL26:
 342:C:/Workspace/FW_Inertia/branch_indesit/PlatformLibrary/LIB_IOManager\InputManager.c **** 			if ( readType == TURBIDITY_I )
 211                             		.loc 1 342 0
 212 0115 5B 99                   		movu.B	r9, r9
 213 0117 61 C9                   		cmp	#12, r9
 214 0119 21 14                   		bne	.L20
 215                             	.LVL27:
 216                             	.LBB2:
 344:C:/Workspace/FW_Inertia/branch_indesit/PlatformLibrary/LIB_IOManager\InputManager.c **** 				uint8_t pinPWMCh = *(pinTabPtr.Data + INPUT_PIN_TAB_OFFSET(pByte) + 1 );
 217                             		.loc 1 344 0
 218 011b 58 C7                   		movu.B	[r12], r7
 219                             	.LVL28:
 220 011d 06 89 07 02             		add	8[r0].L, r7
 345:C:/Workspace/FW_Inertia/branch_indesit/PlatformLibrary/LIB_IOManager\InputManager.c **** 				PM_TurbiditySensor_SetParam( channelAD, pinPWMCh, (PM_TurbSensLLISettingsType*)lowLevelParamete
 221                             		.loc 1 345 0
 222 0121 8E 01                   		mov.B	24[r0], r1
 223 0123 88 7A                   		mov.B	1[r7], r2
 224 0125 EC 03                   		mov.L	[r0], r3
 225 0127 05 00 00 00             		bsr	_PM_TurbiditySensor_SetParam
 226                             	.LVL29:
 227 012b 2E 73                   		bra	.L10
 228                             	.LVL30:
 229                             	.L20:
 230                             	.LBE2:
 351:C:/Workspace/FW_Inertia/branch_indesit/PlatformLibrary/LIB_IOManager\InputManager.c **** 			if ( readType == ANALOGFEEDBACK_I )
 231                             		.loc 1 351 0
 232 012d 61 D9                   		cmp	#13, r9
 233 012f 21 6F                   		bne	.L10
 354:C:/Workspace/FW_Inertia/branch_indesit/PlatformLibrary/LIB_IOManager\InputManager.c **** 				(void)PM_AnalogFeedback_Setup( channelAD, lowLevelParametersPtr.Data );
 234                             		.loc 1 354 0
 235 0131 8E 01                   		mov.B	24[r0], r1
 236 0133 EC 02                   		mov.L	[r0], r2
 237 0135 05 00 00 00             		bsr	_PM_AnalogFeedback_Setup
 238                             	.LVL31:
 239 0139 2E 65                   		bra	.L10
 240                             	.L11:
 424:C:/Workspace/FW_Inertia/branch_indesit/PlatformLibrary/LIB_IOManager\InputManager.c **** 			if ( ((digitalLLIparams_t*)((void*)lowLevelParametersPtr.Data))->bit.pullUp )
 241                             		.loc 1 424 0
 242 013b EC 0E                   		mov.L	[r0], r14
 243 013d DC EE                   		mov.W	[r14], r14
 244 013f 75 2E 20                		and #32, r14
 245 0142 5F EE                   		movu.W	r14, r14
 246 0144 61 0E                   		cmp	#0, r14
 247 0146 10                      		beq	.L22
 426:C:/Workspace/FW_Inertia/branch_indesit/PlatformLibrary/LIB_IOManager\InputManager.c **** 				(void)OCDIO_SetPinPullUpSync(pin);
 248                             		.loc 1 426 0
 249 0147 CF 71                   		mov.B	r7, r1
 250 0149 05 00 00 00             		bsr	_OCDIO_SetPinPullUpSync
 251                             	.LVL32:
 252 014d 03                      		.balign 2,3,1
 253                             	.L22:
 428:C:/Workspace/FW_Inertia/branch_indesit/PlatformLibrary/LIB_IOManager\InputManager.c **** 			activeSense = (uint8_t) ((((digitalLLIparams_t*)((void*)lowLevelParametersPtr.Data))->bit.invert
 254                             		.loc 1 428 0
 255 014e EC 0E                   		mov.L	[r0], r14
 256 0150 DC E1                   		mov.W	[r14], r1
 257 0152 6A 71                   		shar	#7, r1
 429:C:/Workspace/FW_Inertia/branch_indesit/PlatformLibrary/LIB_IOManager\InputManager.c **** 			LIB_IOM_Set_IODir_ActiveSense(activeSense,pin);
 258                             		.loc 1 429 0
 259 0154 64 11                   		and #1, r1
 260 0156 CF 72                   		mov.B	r7, r2
 261 0158 05 00 00 00             		bsr	_LIB_IOM_Set_IODir_ActiveSense
 262                             	.LVL33:
 432:C:/Workspace/FW_Inertia/branch_indesit/PlatformLibrary/LIB_IOManager\InputManager.c **** 			if (resetType)		/* if reset is cold */
 263                             		.loc 1 432 0
 264 015c 61 0D                   		cmp	#0, r13
 265 015e 20 40                   		beq	.L10
 439:C:/Workspace/FW_Inertia/branch_indesit/PlatformLibrary/LIB_IOManager\InputManager.c **** 				LIB_DIO_InsertDigInput( INPUT_RESULT_POS(pByte), pin, NO_MPX_INPUT, lowLevelParametersPtr.Data)
 266                             		.loc 1 439 0
 267 0160 CC B1                   		mov.B	[r11], r1
 268 0162 CF 72                   		mov.B	r7, r2
 269 0164 66 03                   		mov	#0, r3
 270 0166 EC 04                   		mov.L	[r0], r4
 271 0168 05 00 00 00             		bsr	_LIB_DIO_InsertDigInput
 272                             	.LVL34:
 273 016c 2E 32                   		bra	.L10
 274                             	.L13:
 501:C:/Workspace/FW_Inertia/branch_indesit/PlatformLibrary/LIB_IOManager\InputManager.c **** 			if ( ((feedbackLLIparams_t*)((void*)lowLevelParametersPtr.Data))->bit.pullUp)
 275                             		.loc 1 501 0
 276 016e EC 0E                   		mov.L	[r0], r14
 277 0170 DC EE                   		mov.W	[r14], r14
 278 0172 75 2E 20                		and #32, r14
 279 0175 5F EE                   		movu.W	r14, r14
 280 0177 61 0E                   		cmp	#0, r14
 281 0179 17                      		beq	.L23
 503:C:/Workspace/FW_Inertia/branch_indesit/PlatformLibrary/LIB_IOManager\InputManager.c **** 				(void)OCDIO_SetPinPullUpSync(pin);
 282                             		.loc 1 503 0
 283 017a CF 71                   		mov.B	r7, r1
 284 017c 05 00 00 00             		bsr	_OCDIO_SetPinPullUpSync
 285                             	.LVL35:
 286                             		.balign 2,3,1
 287                             	.L23:
 505:C:/Workspace/FW_Inertia/branch_indesit/PlatformLibrary/LIB_IOManager\InputManager.c **** 			activeSense = (uint8_t) ((((feedbackLLIparams_t*)((void*)lowLevelParametersPtr.Data))->bit.inver
 288                             		.loc 1 505 0
 289 0180 EC 0E                   		mov.L	[r0], r14
 290 0182 DC E1                   		mov.W	[r14], r1
 291 0184 6A 71                   		shar	#7, r1
 506:C:/Workspace/FW_Inertia/branch_indesit/PlatformLibrary/LIB_IOManager\InputManager.c **** 			LIB_IOM_Set_IODir_ActiveSense(activeSense,pin);
 292                             		.loc 1 506 0
 293 0186 64 11                   		and #1, r1
 294 0188 CF 72                   		mov.B	r7, r2
 295 018a 05 00 00 00             		bsr	_LIB_IOM_Set_IODir_ActiveSense
 296                             	.LVL36:
 297                             		.loc 1 508 0
 298 018e 61 0D                   		cmp	#0, r13
 299 0190 20 0E                   		beq	.L10
 509:C:/Workspace/FW_Inertia/branch_indesit/PlatformLibrary/LIB_IOManager\InputManager.c **** 			{
 510:C:/Workspace/FW_Inertia/branch_indesit/PlatformLibrary/LIB_IOManager\InputManager.c **** 				/* param 1: Ram Position Conversion Result */
 511:C:/Workspace/FW_Inertia/branch_indesit/PlatformLibrary/LIB_IOManager\InputManager.c **** 				/* param 2: pin -> pin del linkage - 1 */
 512:C:/Workspace/FW_Inertia/branch_indesit/PlatformLibrary/LIB_IOManager\InputManager.c **** 				/* param 3: '0' -> ingresso semplice, '1' multiplexato */
 513:C:/Workspace/FW_Inertia/branch_indesit/PlatformLibrary/LIB_IOManager\InputManager.c **** 				/* param 4: puntatore alla word descrittiva del feedback */
 514:C:/Workspace/FW_Inertia/branch_indesit/PlatformLibrary/LIB_IOManager\InputManager.c **** #if defined (CONFIG_PLATFORM2_FEEDBACK)
 515:C:/Workspace/FW_Inertia/branch_indesit/PlatformLibrary/LIB_IOManager\InputManager.c **** 				LIB_FDB_RegisterFeedback( INPUT_RESULT_POS(pByte), pin, 0, lowLevelParametersPtr.Data );
 300                             		.loc 1 515 0
 301 0192 CC B1                   		mov.B	[r11], r1
 302 0194 CF 72                   		mov.B	r7, r2
 303 0196 66 03                   		mov	#0, r3
 304 0198 EC 04                   		mov.L	[r0], r4
 305 019a 05 00 00 00             		bsr	_LIB_FDB_RegisterFeedback
 306                             	.LVL37:
 307                             		.balign 2,3,1
 308                             	.L10:
 180:C:/Workspace/FW_Inertia/branch_indesit/PlatformLibrary/LIB_IOManager\InputManager.c **** 	        pByte += LLI_TABLE_ITEM_SIZE_IN_BYTES )
 309                             		.loc 1 180 0
 310 019e 62 4A                   		add	#4, r10
 311                             	.LVL38:
 312 01a0 62 4C                   		add	#4, r12
 313 01a2 62 4B                   		add	#4, r11
 314                             		.balign 2,3,3
 315                             	.L5:
 179:C:/Workspace/FW_Inertia/branch_indesit/PlatformLibrary/LIB_IOManager\InputManager.c **** 	        pByte < (lowLevelInputTabPtr.Data + (lowLevelInputTabPtr.DataLenght*2));
 316                             		.loc 1 179 0 discriminator 1
 317 01a4 BA 87                   		movu.W	20[r0], r7
 318 01a6 4B 77                   		add	r7, r7
 319 01a8 06 89 07 04             		add	16[r0], r7
 178:C:/Workspace/FW_Inertia/branch_indesit/PlatformLibrary/LIB_IOManager\InputManager.c **** 	for ( pByte = lowLevelInputTabPtr.Data;
 320                             		.loc 1 178 0 discriminator 1
 321 01ac 47 7A                   		cmp	r7, r10
 322 01ae 22 05 38 9D FE          		bltu	.L24
 323                             	.LVL39:
 324 01b3 03                      		.balign 2,3,2
 325                             	.L1:
 516:C:/Workspace/FW_Inertia/branch_indesit/PlatformLibrary/LIB_IOManager\InputManager.c **** #else
 517:C:/Workspace/FW_Inertia/branch_indesit/PlatformLibrary/LIB_IOManager\InputManager.c **** 				InsertFeedback( INPUT_RESULT_POS(pByte), pin, 0, lowLevelParametersPtr.Data );
 518:C:/Workspace/FW_Inertia/branch_indesit/PlatformLibrary/LIB_IOManager\InputManager.c **** #endif /* defined (CONFIG_PLATFORM2_FEEDBACK) */
 519:C:/Workspace/FW_Inertia/branch_indesit/PlatformLibrary/LIB_IOManager\InputManager.c **** 			}
 520:C:/Workspace/FW_Inertia/branch_indesit/PlatformLibrary/LIB_IOManager\InputManager.c **** 			break;
 521:C:/Workspace/FW_Inertia/branch_indesit/PlatformLibrary/LIB_IOManager\InputManager.c **** 
 522:C:/Workspace/FW_Inertia/branch_indesit/PlatformLibrary/LIB_IOManager\InputManager.c **** #ifdef __MULTI_H
 523:C:/Workspace/FW_Inertia/branch_indesit/PlatformLibrary/LIB_IOManager\InputManager.c **** 
 524:C:/Workspace/FW_Inertia/branch_indesit/PlatformLibrary/LIB_IOManager\InputManager.c **** 		case FEEDMULT_I:
 525:C:/Workspace/FW_Inertia/branch_indesit/PlatformLibrary/LIB_IOManager\InputManager.c **** 
 526:C:/Workspace/FW_Inertia/branch_indesit/PlatformLibrary/LIB_IOManager\InputManager.c **** 			if (resetType)
 527:C:/Workspace/FW_Inertia/branch_indesit/PlatformLibrary/LIB_IOManager\InputManager.c **** 			{
 528:C:/Workspace/FW_Inertia/branch_indesit/PlatformLibrary/LIB_IOManager\InputManager.c **** 
 529:C:/Workspace/FW_Inertia/branch_indesit/PlatformLibrary/LIB_IOManager\InputManager.c **** 				/* param 1: Ram Position Conversion Result */
 530:C:/Workspace/FW_Inertia/branch_indesit/PlatformLibrary/LIB_IOManager\InputManager.c **** 				/* param 2: pin -> pin del linkage - 1 */
 531:C:/Workspace/FW_Inertia/branch_indesit/PlatformLibrary/LIB_IOManager\InputManager.c **** 				/* param 3: '0' -> ingresso semplice, '1' multiplexato */
 532:C:/Workspace/FW_Inertia/branch_indesit/PlatformLibrary/LIB_IOManager\InputManager.c **** 				/* param 4: puntatore alla word descrittiva del feedback */
 533:C:/Workspace/FW_Inertia/branch_indesit/PlatformLibrary/LIB_IOManager\InputManager.c **** #if defined (CONFIG_PLATFORM2_FEEDBACK)
 534:C:/Workspace/FW_Inertia/branch_indesit/PlatformLibrary/LIB_IOManager\InputManager.c **** 				LIB_FDB_RegisterFeedback( INPUT_RESULT_POS(pByte), pin, 1, lowLevelParametersPtr.Data );
 535:C:/Workspace/FW_Inertia/branch_indesit/PlatformLibrary/LIB_IOManager\InputManager.c **** #else
 536:C:/Workspace/FW_Inertia/branch_indesit/PlatformLibrary/LIB_IOManager\InputManager.c **** 				InsertFeedback( INPUT_RESULT_POS(pByte), pin, 1, lowLevelParametersPtr.Data );
 537:C:/Workspace/FW_Inertia/branch_indesit/PlatformLibrary/LIB_IOManager\InputManager.c **** #endif /* #if defined (CONFIG_PLATFORM2_FEEDBACK) */
 538:C:/Workspace/FW_Inertia/branch_indesit/PlatformLibrary/LIB_IOManager\InputManager.c **** 			}
 539:C:/Workspace/FW_Inertia/branch_indesit/PlatformLibrary/LIB_IOManager\InputManager.c **** 
 540:C:/Workspace/FW_Inertia/branch_indesit/PlatformLibrary/LIB_IOManager\InputManager.c **** 			break;
 541:C:/Workspace/FW_Inertia/branch_indesit/PlatformLibrary/LIB_IOManager\InputManager.c **** 
 542:C:/Workspace/FW_Inertia/branch_indesit/PlatformLibrary/LIB_IOManager\InputManager.c **** #endif /* __MULTI_H */
 543:C:/Workspace/FW_Inertia/branch_indesit/PlatformLibrary/LIB_IOManager\InputManager.c **** 
 544:C:/Workspace/FW_Inertia/branch_indesit/PlatformLibrary/LIB_IOManager\InputManager.c **** 
 545:C:/Workspace/FW_Inertia/branch_indesit/PlatformLibrary/LIB_IOManager\InputManager.c **** #endif /* CONFIG_FEEDBACK_ENABLE */
 546:C:/Workspace/FW_Inertia/branch_indesit/PlatformLibrary/LIB_IOManager\InputManager.c **** 
 547:C:/Workspace/FW_Inertia/branch_indesit/PlatformLibrary/LIB_IOManager\InputManager.c **** #ifdef __RLTEC_DDC_H
 548:C:/Workspace/FW_Inertia/branch_indesit/PlatformLibrary/LIB_IOManager\InputManager.c **** 		case DDC_I:
 549:C:/Workspace/FW_Inertia/branch_indesit/PlatformLibrary/LIB_IOManager\InputManager.c **** 			if ( ((ddcLLIparams_t*)lowLevelParametersPtr.Data)->bit.pullUp )
 550:C:/Workspace/FW_Inertia/branch_indesit/PlatformLibrary/LIB_IOManager\InputManager.c **** 			{
 551:C:/Workspace/FW_Inertia/branch_indesit/PlatformLibrary/LIB_IOManager\InputManager.c **** 				(void)OCDIO_SetPinPullUpSync(pin);
 552:C:/Workspace/FW_Inertia/branch_indesit/PlatformLibrary/LIB_IOManager\InputManager.c **** 			}
 553:C:/Workspace/FW_Inertia/branch_indesit/PlatformLibrary/LIB_IOManager\InputManager.c **** 
 554:C:/Workspace/FW_Inertia/branch_indesit/PlatformLibrary/LIB_IOManager\InputManager.c **** 			LIB_IOM_Set_IODir_ActiveSense(0,pin);
 555:C:/Workspace/FW_Inertia/branch_indesit/PlatformLibrary/LIB_IOManager\InputManager.c **** 			/** pin  il pin del modulo linkage
 556:C:/Workspace/FW_Inertia/branch_indesit/PlatformLibrary/LIB_IOManager\InputManager.c **** 			    lowLevelParametersPtr.Data  il puntatore ai parametri Low Level Input */
 557:C:/Workspace/FW_Inertia/branch_indesit/PlatformLibrary/LIB_IOManager\InputManager.c **** 			DDC_Init( pin, lowLevelParametersPtr.Data );
 558:C:/Workspace/FW_Inertia/branch_indesit/PlatformLibrary/LIB_IOManager\InputManager.c **** 
 559:C:/Workspace/FW_Inertia/branch_indesit/PlatformLibrary/LIB_IOManager\InputManager.c **** 			break;
 560:C:/Workspace/FW_Inertia/branch_indesit/PlatformLibrary/LIB_IOManager\InputManager.c **** #endif  /* __RLTEC_DDC_H */
 561:C:/Workspace/FW_Inertia/branch_indesit/PlatformLibrary/LIB_IOManager\InputManager.c **** 		default:
 562:C:/Workspace/FW_Inertia/branch_indesit/PlatformLibrary/LIB_IOManager\InputManager.c **** 			/* CODICE NON CONTEMPLATO */
 563:C:/Workspace/FW_Inertia/branch_indesit/PlatformLibrary/LIB_IOManager\InputManager.c **** 			break;
 564:C:/Workspace/FW_Inertia/branch_indesit/PlatformLibrary/LIB_IOManager\InputManager.c **** 
 565:C:/Workspace/FW_Inertia/branch_indesit/PlatformLibrary/LIB_IOManager\InputManager.c **** 
 566:C:/Workspace/FW_Inertia/branch_indesit/PlatformLibrary/LIB_IOManager\InputManager.c **** 		} /* end switch */
 567:C:/Workspace/FW_Inertia/branch_indesit/PlatformLibrary/LIB_IOManager\InputManager.c **** 	}
 568:C:/Workspace/FW_Inertia/branch_indesit/PlatformLibrary/LIB_IOManager\InputManager.c **** }
 326                             		.loc 1 568 0
 327 01b4 3F 7D 0E                		rtsd	#56, r7-r13
 328                             	.LFE0:
 378                             	.Letext0:
 379                             		.file 2 "C:\\Workspace\\FW_Inertia\\branch_indesit\\HAL\\HAL_General/StandardTypes.h"
 380                             		.file 3 "C:\\Workspace\\FW_Inertia\\branch_indesit\\HAL\\RN_RX200/RN_RX200_cfg.h"
 381                             		.file 4 "C:\\Workspace\\FW_Inertia\\branch_indesit\\ProductModules\\PM_Library/LIB_Utilities.h"
 382                             		.file 5 "C:/Workspace/FW_Inertia/branch_indesit/PlatformLibrary/LIB_IOManager/InputManagerExp.h"
 383                             		.file 6 "C:\\Workspace\\FW_Inertia\\branch_indesit\\PlatformLibrary\\LIB_Error/LIB_Error.h"
 384                             		.file 7 "C:\\Workspace\\FW_Inertia\\branch_indesit\\PlatformLibrary\\LIB_DigitalIO/DigitalInputs.h
 385                             		.file 8 "C:\\Workspace\\FW_Inertia\\branch_indesit\\Drivers/IO_driver.h"
 386                             		.file 9 "C:\\Workspace\\FW_Inertia\\branch_indesit\\ProductModules\\PM_AnalogFeedbacks/PM_AnalogFe
 387                             		.file 10 "C:\\Workspace\\FW_Inertia\\branch_indesit\\ProductModules\\PM_FreqFeedbacks/PM_Frequency
 388                             		.file 11 "C:\\Workspace\\FW_Inertia\\branch_indesit\\ProductModules\\PM_TurbiditySensor/PM_Turbidi
 389                             		.file 12 "C:\\Workspace\\FW_Inertia\\branch_indesit\\ProductModules\\PM_PulseCounter/PM_PulseCount
 390                             		.file 13 "C:\\Workspace\\FW_Inertia\\branch_indesit\\Drivers\\OCDIO/OCDIO_drv.h"
 391                             		.file 14 "C:\\Workspace\\FW_Inertia\\branch_indesit\\ProductModules\\PM_FreqFeedbacks/PM_Frequency
 392                             		.file 15 "C:/Workspace/FW_Inertia/branch_indesit/PlatformLibrary/LIB_IOManager/IOSharing.h"
 393                             		.file 16 "C:\\Workspace\\FW_Inertia\\branch_indesit\\Drivers\\OCADC/OCADC_drv.h"
 394                             		.file 17 "C:\\Workspace\\FW_Inertia\\branch_indesit\\PlatformLibrary\\LIB_Analog/Analog.h"
 395                             		.file 18 "C:\\Workspace\\FW_Inertia\\branch_indesit\\PlatformLibrary\\LIB_Feedbacks/Feedbacks.h"
DEFINED SYMBOLS
                            *ABS*:00000000 InputManager.c
C:\Users\Andrea\AppData\Local\Temp\cchgiFNZ.s:7      .text.LIB_IOM_InputInitialization:00000000 _LIB_IOM_InputInitialization
C:\Users\Andrea\AppData\Local\Temp\cchgiFNZ.s:12     .text.LIB_IOM_InputInitialization:00000000 L0
C:\Users\Andrea\AppData\Local\Temp\cchgiFNZ.s:124    .rodata.LIB_IOM_InputInitialization:00000000 .L16
C:\Users\Andrea\AppData\Local\Temp\cchgiFNZ.s:240    .text.LIB_IOM_InputInitialization:0000013b .L11
C:\Users\Andrea\AppData\Local\Temp\cchgiFNZ.s:184    .text.LIB_IOM_InputInitialization:000000eb .L12
C:\Users\Andrea\AppData\Local\Temp\cchgiFNZ.s:274    .text.LIB_IOM_InputInitialization:0000016e .L13
C:\Users\Andrea\AppData\Local\Temp\cchgiFNZ.s:308    .text.LIB_IOM_InputInitialization:0000019e .L10
C:\Users\Andrea\AppData\Local\Temp\cchgiFNZ.s:140    .text.LIB_IOM_InputInitialization:000000a4 .L14
C:\Users\Andrea\AppData\Local\Temp\cchgiFNZ.s:154    .text.LIB_IOM_InputInitialization:000000bf .L15
C:\Users\Andrea\AppData\Local\Temp\cchgiFNZ.s:331    .debug_frame:00000000 .Lframe0
C:\Users\Andrea\AppData\Local\Temp\cchgiFNZ.s:8      .text.LIB_IOM_InputInitialization:00000000 .LFB0
C:\Users\Andrea\AppData\Local\Temp\cchgiFNZ.s:2053   .debug_abbrev:00000000 .Ldebug_abbrev0
C:\Users\Andrea\AppData\Local\Temp\cchgiFNZ.s:2904   .debug_str:00000548 .LASF203
C:\Users\Andrea\AppData\Local\Temp\cchgiFNZ.s:2938   .debug_str:0000070f .LASF204
C:\Users\Andrea\AppData\Local\Temp\cchgiFNZ.s:2772   .debug_ranges:00000000 .Ldebug_ranges0
C:\Users\Andrea\AppData\Local\Temp\cchgiFNZ.s:2778   .debug_line:00000000 .Ldebug_line0
C:\Users\Andrea\AppData\Local\Temp\cchgiFNZ.s:3064   .debug_str:00000cef .LASF0
C:\Users\Andrea\AppData\Local\Temp\cchgiFNZ.s:2870   .debug_str:000003cf .LASF2
C:\Users\Andrea\AppData\Local\Temp\cchgiFNZ.s:2942   .debug_str:00000787 .LASF1
C:\Users\Andrea\AppData\Local\Temp\cchgiFNZ.s:3086   .debug_str:00000deb .LASF3
C:\Users\Andrea\AppData\Local\Temp\cchgiFNZ.s:2844   .debug_str:00000289 .LASF4
C:\Users\Andrea\AppData\Local\Temp\cchgiFNZ.s:2812   .debug_str:0000016a .LASF5
C:\Users\Andrea\AppData\Local\Temp\cchgiFNZ.s:2820   .debug_str:000001a5 .LASF6
C:\Users\Andrea\AppData\Local\Temp\cchgiFNZ.s:2840   .debug_str:0000026f .LASF7
C:\Users\Andrea\AppData\Local\Temp\cchgiFNZ.s:3148   .debug_str:000010a6 .LASF8
C:\Users\Andrea\AppData\Local\Temp\cchgiFNZ.s:3056   .debug_str:00000ca3 .LASF9
C:\Users\Andrea\AppData\Local\Temp\cchgiFNZ.s:2842   .debug_str:0000027d .LASF10
C:\Users\Andrea\AppData\Local\Temp\cchgiFNZ.s:2834   .debug_str:0000024e .LASF11
C:\Users\Andrea\AppData\Local\Temp\cchgiFNZ.s:3100   .debug_str:00000e3c .LASF12
C:\Users\Andrea\AppData\Local\Temp\cchgiFNZ.s:2838   .debug_str:00000268 .LASF171
C:\Users\Andrea\AppData\Local\Temp\cchgiFNZ.s:3152   .debug_str:000010ce .LASF13
C:\Users\Andrea\AppData\Local\Temp\cchgiFNZ.s:2992   .debug_str:000009c5 .LASF14
C:\Users\Andrea\AppData\Local\Temp\cchgiFNZ.s:3158   .debug_str:000010ff .LASF15
C:\Users\Andrea\AppData\Local\Temp\cchgiFNZ.s:3002   .debug_str:00000a06 .LASF16
C:\Users\Andrea\AppData\Local\Temp\cchgiFNZ.s:3094   .debug_str:00000e19 .LASF17
C:\Users\Andrea\AppData\Local\Temp\cchgiFNZ.s:2882   .debug_str:00000460 .LASF18
C:\Users\Andrea\AppData\Local\Temp\cchgiFNZ.s:2856   .debug_str:00000304 .LASF19
C:\Users\Andrea\AppData\Local\Temp\cchgiFNZ.s:3040   .debug_str:00000bfa .LASF20
C:\Users\Andrea\AppData\Local\Temp\cchgiFNZ.s:2892   .debug_str:000004ad .LASF21
C:\Users\Andrea\AppData\Local\Temp\cchgiFNZ.s:2824   .debug_str:000001c9 .LASF22
C:\Users\Andrea\AppData\Local\Temp\cchgiFNZ.s:3088   .debug_str:00000df4 .LASF23
C:\Users\Andrea\AppData\Local\Temp\cchgiFNZ.s:3106   .debug_str:00000e83 .LASF24
C:\Users\Andrea\AppData\Local\Temp\cchgiFNZ.s:3122   .debug_str:00000f96 .LASF25
C:\Users\Andrea\AppData\Local\Temp\cchgiFNZ.s:3022   .debug_str:00000af6 .LASF26
C:\Users\Andrea\AppData\Local\Temp\cchgiFNZ.s:2982   .debug_str:0000098a .LASF27
C:\Users\Andrea\AppData\Local\Temp\cchgiFNZ.s:2884   .debug_str:00000479 .LASF28
C:\Users\Andrea\AppData\Local\Temp\cchgiFNZ.s:3068   .debug_str:00000d0f .LASF29
C:\Users\Andrea\AppData\Local\Temp\cchgiFNZ.s:2986   .debug_str:0000099c .LASF30
C:\Users\Andrea\AppData\Local\Temp\cchgiFNZ.s:3134   .debug_str:0000102e .LASF31
C:\Users\Andrea\AppData\Local\Temp\cchgiFNZ.s:2984   .debug_str:00000993 .LASF32
C:\Users\Andrea\AppData\Local\Temp\cchgiFNZ.s:2930   .debug_str:000006bf .LASF35
C:\Users\Andrea\AppData\Local\Temp\cchgiFNZ.s:2798   .debug_str:000000d0 .LASF33
C:\Users\Andrea\AppData\Local\Temp\cchgiFNZ.s:2988   .debug_str:000009a5 .LASF34
C:\Users\Andrea\AppData\Local\Temp\cchgiFNZ.s:2972   .debug_str:00000910 .LASF36
C:\Users\Andrea\AppData\Local\Temp\cchgiFNZ.s:2962   .debug_str:00000876 .LASF37
C:\Users\Andrea\AppData\Local\Temp\cchgiFNZ.s:3060   .debug_str:00000cc5 .LASF38
C:\Users\Andrea\AppData\Local\Temp\cchgiFNZ.s:2790   .debug_str:0000006b .LASF39
C:\Users\Andrea\AppData\Local\Temp\cchgiFNZ.s:2818   .debug_str:00000191 .LASF40
C:\Users\Andrea\AppData\Local\Temp\cchgiFNZ.s:2816   .debug_str:00000182 .LASF41
C:\Users\Andrea\AppData\Local\Temp\cchgiFNZ.s:3082   .debug_str:00000dc5 .LASF42
C:\Users\Andrea\AppData\Local\Temp\cchgiFNZ.s:3084   .debug_str:00000dd8 .LASF43
C:\Users\Andrea\AppData\Local\Temp\cchgiFNZ.s:2804   .debug_str:00000105 .LASF44
C:\Users\Andrea\AppData\Local\Temp\cchgiFNZ.s:2806   .debug_str:00000118 .LASF45
C:\Users\Andrea\AppData\Local\Temp\cchgiFNZ.s:3156   .debug_str:000010ec .LASF46
C:\Users\Andrea\AppData\Local\Temp\cchgiFNZ.s:2902   .debug_str:00000534 .LASF47
C:\Users\Andrea\AppData\Local\Temp\cchgiFNZ.s:3042   .debug_str:00000c00 .LASF48
C:\Users\Andrea\AppData\Local\Temp\cchgiFNZ.s:3044   .debug_str:00000c15 .LASF49
C:\Users\Andrea\AppData\Local\Temp\cchgiFNZ.s:2960   .debug_str:00000847 .LASF50
C:\Users\Andrea\AppData\Local\Temp\cchgiFNZ.s:2920   .debug_str:00000610 .LASF51
C:\Users\Andrea\AppData\Local\Temp\cchgiFNZ.s:2866   .debug_str:00000387 .LASF52
C:\Users\Andrea\AppData\Local\Temp\cchgiFNZ.s:3024   .debug_str:00000b00 .LASF53
C:\Users\Andrea\AppData\Local\Temp\cchgiFNZ.s:3120   .debug_str:00000f60 .LASF54
C:\Users\Andrea\AppData\Local\Temp\cchgiFNZ.s:2968   .debug_str:000008c1 .LASF55
C:\Users\Andrea\AppData\Local\Temp\cchgiFNZ.s:3108   .debug_str:00000e96 .LASF56
C:\Users\Andrea\AppData\Local\Temp\cchgiFNZ.s:3164   .debug_str:00001141 .LASF57
C:\Users\Andrea\AppData\Local\Temp\cchgiFNZ.s:3078   .debug_str:00000d7a .LASF58
C:\Users\Andrea\AppData\Local\Temp\cchgiFNZ.s:2906   .debug_str:0000056e .LASF59
C:\Users\Andrea\AppData\Local\Temp\cchgiFNZ.s:3182   .debug_str:00001246 .LASF60
C:\Users\Andrea\AppData\Local\Temp\cchgiFNZ.s:2910   .debug_str:0000058f .LASF61
C:\Users\Andrea\AppData\Local\Temp\cchgiFNZ.s:2912   .debug_str:000005a6 .LASF62
C:\Users\Andrea\AppData\Local\Temp\cchgiFNZ.s:2914   .debug_str:000005bd .LASF63
C:\Users\Andrea\AppData\Local\Temp\cchgiFNZ.s:2916   .debug_str:000005d4 .LASF64
C:\Users\Andrea\AppData\Local\Temp\cchgiFNZ.s:3194   .debug_str:000012cb .LASF65
C:\Users\Andrea\AppData\Local\Temp\cchgiFNZ.s:2780   .debug_str:00000000 .LASF66
C:\Users\Andrea\AppData\Local\Temp\cchgiFNZ.s:3000   .debug_str:000009ee .LASF67
C:\Users\Andrea\AppData\Local\Temp\cchgiFNZ.s:3172   .debug_str:000011dd .LASF68
C:\Users\Andrea\AppData\Local\Temp\cchgiFNZ.s:3004   .debug_str:00000a0f .LASF69
C:\Users\Andrea\AppData\Local\Temp\cchgiFNZ.s:3006   .debug_str:00000a27 .LASF70
C:\Users\Andrea\AppData\Local\Temp\cchgiFNZ.s:3008   .debug_str:00000a3f .LASF71
C:\Users\Andrea\AppData\Local\Temp\cchgiFNZ.s:3174   .debug_str:000011f5 .LASF72
C:\Users\Andrea\AppData\Local\Temp\cchgiFNZ.s:3178   .debug_str:0000121c .LASF73
C:\Users\Andrea\AppData\Local\Temp\cchgiFNZ.s:3014   .debug_str:00000a8f .LASF74
C:\Users\Andrea\AppData\Local\Temp\cchgiFNZ.s:2946   .debug_str:000007a4 .LASF75
C:\Users\Andrea\AppData\Local\Temp\cchgiFNZ.s:3028   .debug_str:00000b4e .LASF76
C:\Users\Andrea\AppData\Local\Temp\cchgiFNZ.s:2950   .debug_str:000007d8 .LASF77
C:\Users\Andrea\AppData\Local\Temp\cchgiFNZ.s:2952   .debug_str:000007f1 .LASF78
C:\Users\Andrea\AppData\Local\Temp\cchgiFNZ.s:2954   .debug_str:0000080a .LASF79
C:\Users\Andrea\AppData\Local\Temp\cchgiFNZ.s:3186   .debug_str:0000126d .LASF80
C:\Users\Andrea\AppData\Local\Temp\cchgiFNZ.s:3036   .debug_str:00000bb3 .LASF81
C:\Users\Andrea\AppData\Local\Temp\cchgiFNZ.s:2958   .debug_str:0000082e .LASF82
C:\Users\Andrea\AppData\Local\Temp\cchgiFNZ.s:3048   .debug_str:00000c44 .LASF83
C:\Users\Andrea\AppData\Local\Temp\cchgiFNZ.s:3126   .debug_str:00000fc9 .LASF84
C:\Users\Andrea\AppData\Local\Temp\cchgiFNZ.s:3124   .debug_str:00000fa4 .LASF85
C:\Users\Andrea\AppData\Local\Temp\cchgiFNZ.s:2980   .debug_str:00000975 .LASF86
C:\Users\Andrea\AppData\Local\Temp\cchgiFNZ.s:2794   .debug_str:000000a2 .LASF87
C:\Users\Andrea\AppData\Local\Temp\cchgiFNZ.s:3074   .debug_str:00000d4c .LASF88
C:\Users\Andrea\AppData\Local\Temp\cchgiFNZ.s:3190   .debug_str:000012af .LASF89
C:\Users\Andrea\AppData\Local\Temp\cchgiFNZ.s:2814   .debug_str:00000173 .LASF90
C:\Users\Andrea\AppData\Local\Temp\cchgiFNZ.s:2922   .debug_str:0000064c .LASF91
C:\Users\Andrea\AppData\Local\Temp\cchgiFNZ.s:2964   .debug_str:0000088e .LASF92
C:\Users\Andrea\AppData\Local\Temp\cchgiFNZ.s:2926   .debug_str:0000068b .LASF93
C:\Users\Andrea\AppData\Local\Temp\cchgiFNZ.s:2894   .debug_str:000004ca .LASF94
C:\Users\Andrea\AppData\Local\Temp\cchgiFNZ.s:2918   .debug_str:000005eb .LASF95
C:\Users\Andrea\AppData\Local\Temp\cchgiFNZ.s:2872   .debug_str:000003d8 .LASF96
C:\Users\Andrea\AppData\Local\Temp\cchgiFNZ.s:3026   .debug_str:00000b34 .LASF97
C:\Users\Andrea\AppData\Local\Temp\cchgiFNZ.s:2940   .debug_str:00000763 .LASF98
C:\Users\Andrea\AppData\Local\Temp\cchgiFNZ.s:2898   .debug_str:000004fe .LASF99
C:\Users\Andrea\AppData\Local\Temp\cchgiFNZ.s:3138   .debug_str:00001048 .LASF100
C:\Users\Andrea\AppData\Local\Temp\cchgiFNZ.s:2880   .debug_str:00000442 .LASF101
C:\Users\Andrea\AppData\Local\Temp\cchgiFNZ.s:3166   .debug_str:00001176 .LASF102
C:\Users\Andrea\AppData\Local\Temp\cchgiFNZ.s:3162   .debug_str:0000111c .LASF103
C:\Users\Andrea\AppData\Local\Temp\cchgiFNZ.s:2810   .debug_str:00000144 .LASF104
C:\Users\Andrea\AppData\Local\Temp\cchgiFNZ.s:2860   .debug_str:00000332 .LASF105
C:\Users\Andrea\AppData\Local\Temp\cchgiFNZ.s:3168   .debug_str:000011a1 .LASF106
C:\Users\Andrea\AppData\Local\Temp\cchgiFNZ.s:3016   .debug_str:00000aa7 .LASF107
C:\Users\Andrea\AppData\Local\Temp\cchgiFNZ.s:3010   .debug_str:00000a57 .LASF108
C:\Users\Andrea\AppData\Local\Temp\cchgiFNZ.s:3142   .debug_str:00001077 .LASF109
C:\Users\Andrea\AppData\Local\Temp\cchgiFNZ.s:2852   .debug_str:000002da .LASF110
C:\Users\Andrea\AppData\Local\Temp\cchgiFNZ.s:2924   .debug_str:00000669 .LASF111
C:\Users\Andrea\AppData\Local\Temp\cchgiFNZ.s:2846   .debug_str:0000029b .LASF112
C:\Users\Andrea\AppData\Local\Temp\cchgiFNZ.s:3110   .debug_str:00000ecb .LASF113
C:\Users\Andrea\AppData\Local\Temp\cchgiFNZ.s:3030   .debug_str:00000b67 .LASF114
C:\Users\Andrea\AppData\Local\Temp\cchgiFNZ.s:3038   .debug_str:00000bcc .LASF115
C:\Users\Andrea\AppData\Local\Temp\cchgiFNZ.s:3112   .debug_str:00000efa .LASF116
C:\Users\Andrea\AppData\Local\Temp\cchgiFNZ.s:2828   .debug_str:000001f6 .LASF117
C:\Users\Andrea\AppData\Local\Temp\cchgiFNZ.s:2786   .debug_str:00000028 .LASF118
C:\Users\Andrea\AppData\Local\Temp\cchgiFNZ.s:2948   .debug_str:000007bd .LASF119
C:\Users\Andrea\AppData\Local\Temp\cchgiFNZ.s:3150   .debug_str:000010ae .LASF120
C:\Users\Andrea\AppData\Local\Temp\cchgiFNZ.s:2862   .debug_str:00000356 .LASF121
C:\Users\Andrea\AppData\Local\Temp\cchgiFNZ.s:2858   .debug_str:0000031a .LASF122
C:\Users\Andrea\AppData\Local\Temp\cchgiFNZ.s:3070   .debug_str:00000d18 .LASF123
C:\Users\Andrea\AppData\Local\Temp\cchgiFNZ.s:3062   .debug_str:00000cd1 .LASF124
C:\Users\Andrea\AppData\Local\Temp\cchgiFNZ.s:2978   .debug_str:0000095a .LASF125
C:\Users\Andrea\AppData\Local\Temp\cchgiFNZ.s:3130   .debug_str:00000fff .LASF126
C:\Users\Andrea\AppData\Local\Temp\cchgiFNZ.s:3096   .debug_str:00000e1e .LASF127
C:\Users\Andrea\AppData\Local\Temp\cchgiFNZ.s:3154   .debug_str:000010d3 .LASF128
C:\Users\Andrea\AppData\Local\Temp\cchgiFNZ.s:2832   .debug_str:00000234 .LASF129
C:\Users\Andrea\AppData\Local\Temp\cchgiFNZ.s:2808   .debug_str:0000012b .LASF130
C:\Users\Andrea\AppData\Local\Temp\cchgiFNZ.s:3018   .debug_str:00000ac6 .LASF131
C:\Users\Andrea\AppData\Local\Temp\cchgiFNZ.s:2888   .debug_str:00000487 .LASF132
C:\Users\Andrea\AppData\Local\Temp\cchgiFNZ.s:3118   .debug_str:00000f55 .LASF133
C:\Users\Andrea\AppData\Local\Temp\cchgiFNZ.s:3140   .debug_str:00001062 .LASF134
C:\Users\Andrea\AppData\Local\Temp\cchgiFNZ.s:2868   .debug_str:000003bc .LASF135
C:\Users\Andrea\AppData\Local\Temp\cchgiFNZ.s:2998   .debug_str:000009e4 .LASF164
C:\Users\Andrea\AppData\Local\Temp\cchgiFNZ.s:2886   .debug_str:0000047f .LASF136
C:\Users\Andrea\AppData\Local\Temp\cchgiFNZ.s:3032   .debug_str:00000b96 .LASF137
C:\Users\Andrea\AppData\Local\Temp\cchgiFNZ.s:2830   .debug_str:00000227 .LASF138
C:\Users\Andrea\AppData\Local\Temp\cchgiFNZ.s:2934   .debug_str:000006ec .LASF139
C:\Users\Andrea\AppData\Local\Temp\cchgiFNZ.s:2796   .debug_str:000000bd .LASF140
C:\Users\Andrea\AppData\Local\Temp\cchgiFNZ.s:2836   .debug_str:00000255 .LASF141
C:\Users\Andrea\AppData\Local\Temp\cchgiFNZ.s:2928   .debug_str:000006a7 .LASF142
C:\Users\Andrea\AppData\Local\Temp\cchgiFNZ.s:3034   .debug_str:00000ba0 .LASF143
C:\Users\Andrea\AppData\Local\Temp\cchgiFNZ.s:3180   .debug_str:00001234 .LASF144
C:\Users\Andrea\AppData\Local\Temp\cchgiFNZ.s:3066   .debug_str:00000cf9 .LASF145
C:\Users\Andrea\AppData\Local\Temp\cchgiFNZ.s:2976   .debug_str:00000942 .LASF146
C:\Users\Andrea\AppData\Local\Temp\cchgiFNZ.s:3102   .debug_str:00000e49 .LASF147
C:\Users\Andrea\AppData\Local\Temp\cchgiFNZ.s:2788   .debug_str:00000056 .LASF148
C:\Users\Andrea\AppData\Local\Temp\cchgiFNZ.s:3184   .debug_str:0000125d .LASF149
C:\Users\Andrea\AppData\Local\Temp\cchgiFNZ.s:2944   .debug_str:0000079a .LASF150
C:\Users\Andrea\AppData\Local\Temp\cchgiFNZ.s:3052   .debug_str:00000c72 .LASF151
C:\Users\Andrea\AppData\Local\Temp\cchgiFNZ.s:3050   .debug_str:00000c64 .LASF152
C:\Users\Andrea\AppData\Local\Temp\cchgiFNZ.s:3144   .debug_str:0000108e .LASF153
C:\Users\Andrea\AppData\Local\Temp\cchgiFNZ.s:2994   .debug_str:000009d0 .LASF154
C:\Users\Andrea\AppData\Local\Temp\cchgiFNZ.s:2956   .debug_str:00000823 .LASF155
C:\Users\Andrea\AppData\Local\Temp\cchgiFNZ.s:3136   .debug_str:00001035 .LASF156
C:\Users\Andrea\AppData\Local\Temp\cchgiFNZ.s:2932   .debug_str:000006d9 .LASF157
C:\Users\Andrea\AppData\Local\Temp\cchgiFNZ.s:3160   .debug_str:0000110d .LASF158
C:\Users\Andrea\AppData\Local\Temp\cchgiFNZ.s:3128   .debug_str:00000fee .LASF159
C:\Users\Andrea\AppData\Local\Temp\cchgiFNZ.s:3146   .debug_str:0000109a .LASF160
C:\Users\Andrea\AppData\Local\Temp\cchgiFNZ.s:3020   .debug_str:00000ae1 .LASF161
C:\Users\Andrea\AppData\Local\Temp\cchgiFNZ.s:2822   .debug_str:000001bc .LASF162
C:\Users\Andrea\AppData\Local\Temp\cchgiFNZ.s:3176   .debug_str:0000120d .LASF163
C:\Users\Andrea\AppData\Local\Temp\cchgiFNZ.s:3092   .debug_str:00000e03 .LASF165
C:\Users\Andrea\AppData\Local\Temp\cchgiFNZ.s:2936   .debug_str:000006fe .LASF166
C:\Users\Andrea\AppData\Local\Temp\cchgiFNZ.s:2792   .debug_str:00000081 .LASF167
C:\Users\Andrea\AppData\Local\Temp\cchgiFNZ.s:3188   .debug_str:00001291 .LASF168
C:\Users\Andrea\AppData\Local\Temp\cchgiFNZ.s:2900   .debug_str:0000051e .LASF169
C:\Users\Andrea\AppData\Local\Temp\cchgiFNZ.s:2876   .debug_str:0000040c .LASF170
C:\Users\Andrea\AppData\Local\Temp\cchgiFNZ.s:3170   .debug_str:000011c5 .LASF172
C:\Users\Andrea\AppData\Local\Temp\cchgiFNZ.s:2996   .debug_str:000009dd .LASF173
C:\Users\Andrea\AppData\Local\Temp\cchgiFNZ.s:3090   .debug_str:00000dfc .LASF174
C:\Users\Andrea\AppData\Local\Temp\cchgiFNZ.s:2784   .debug_str:00000021 .LASF175
C:\Users\Andrea\AppData\Local\Temp\cchgiFNZ.s:3076   .debug_str:00000d5f .LASF176
C:\Users\Andrea\AppData\Local\Temp\cchgiFNZ.s:3058   .debug_str:00000cb1 .LASF177
C:\Users\Andrea\AppData\Local\Temp\cchgiFNZ.s:3132   .debug_str:0000101c .LASF178
C:\Users\Andrea\AppData\Local\Temp\cchgiFNZ.s:2878   .debug_str:0000042e .LASF179
C:\Users\Andrea\AppData\Local\Temp\cchgiFNZ.s:3054   .debug_str:00000c87 .LASF205
C:\Users\Andrea\AppData\Local\Temp\cchgiFNZ.s:328    .text.LIB_IOM_InputInitialization:000001b7 .LFE0
C:\Users\Andrea\AppData\Local\Temp\cchgiFNZ.s:2610   .debug_loc:00000000 .LLST0
C:\Users\Andrea\AppData\Local\Temp\cchgiFNZ.s:2782   .debug_str:00000017 .LASF206
C:\Users\Andrea\AppData\Local\Temp\cchgiFNZ.s:2628   .debug_loc:0000002c .LLST1
C:\Users\Andrea\AppData\Local\Temp\cchgiFNZ.s:3114   .debug_str:00000f25 .LASF180
C:\Users\Andrea\AppData\Local\Temp\cchgiFNZ.s:2908   .debug_str:00000585 .LASF181
C:\Users\Andrea\AppData\Local\Temp\cchgiFNZ.s:2848   .debug_str:000002be .LASF182
C:\Users\Andrea\AppData\Local\Temp\cchgiFNZ.s:2657   .debug_loc:00000071 .LLST2
C:\Users\Andrea\AppData\Local\Temp\cchgiFNZ.s:2850   .debug_str:000002d4 .LASF183
C:\Users\Andrea\AppData\Local\Temp\cchgiFNZ.s:2668   .debug_loc:0000008f .LLST3
C:\Users\Andrea\AppData\Local\Temp\cchgiFNZ.s:2679   .debug_loc:000000ad .LLST4
C:\Users\Andrea\AppData\Local\Temp\cchgiFNZ.s:2854   .debug_str:000002fb .LASF184
C:\Users\Andrea\AppData\Local\Temp\cchgiFNZ.s:2694   .debug_loc:000000d6 .LLST5
C:\Users\Andrea\AppData\Local\Temp\cchgiFNZ.s:2890   .debug_str:000004a1 .LASF185
C:\Users\Andrea\AppData\Local\Temp\cchgiFNZ.s:2705   .debug_loc:000000f4 .LLST6
C:\Users\Andrea\AppData\Local\Temp\cchgiFNZ.s:2802   .debug_str:000000fb .LASF186
C:\Users\Andrea\AppData\Local\Temp\cchgiFNZ.s:216    .text.LIB_IOM_InputInitialization:0000011b .LBB2
C:\Users\Andrea\AppData\Local\Temp\cchgiFNZ.s:230    .text.LIB_IOM_InputInitialization:0000012d .LBE2
C:\Users\Andrea\AppData\Local\Temp\cchgiFNZ.s:3098   .debug_str:00000e33 .LASF187
C:\Users\Andrea\AppData\Local\Temp\cchgiFNZ.s:2740   .debug_loc:0000012a .LLST7
C:\Users\Andrea\AppData\Local\Temp\cchgiFNZ.s:226    .text.LIB_IOM_InputInitialization:0000012b .LVL29
C:\Users\Andrea\AppData\Local\Temp\cchgiFNZ.s:23     .text.LIB_IOM_InputInitialization:00000013 .LVL2
C:\Users\Andrea\AppData\Local\Temp\cchgiFNZ.s:35     .text.LIB_IOM_InputInitialization:0000002a .LVL3
C:\Users\Andrea\AppData\Local\Temp\cchgiFNZ.s:44     .text.LIB_IOM_InputInitialization:00000039 .LVL4
C:\Users\Andrea\AppData\Local\Temp\cchgiFNZ.s:76     .text.LIB_IOM_InputInitialization:0000006a .LVL8
C:\Users\Andrea\AppData\Local\Temp\cchgiFNZ.s:96     .text.LIB_IOM_InputInitialization:0000007e .LVL12
C:\Users\Andrea\AppData\Local\Temp\cchgiFNZ.s:104    .text.LIB_IOM_InputInitialization:0000008a .LVL13
C:\Users\Andrea\AppData\Local\Temp\cchgiFNZ.s:146    .text.LIB_IOM_InputInitialization:000000ae .LVL15
C:\Users\Andrea\AppData\Local\Temp\cchgiFNZ.s:152    .text.LIB_IOM_InputInitialization:000000bc .LVL16
C:\Users\Andrea\AppData\Local\Temp\cchgiFNZ.s:165    .text.LIB_IOM_InputInitialization:000000d1 .LVL17
C:\Users\Andrea\AppData\Local\Temp\cchgiFNZ.s:172    .text.LIB_IOM_InputInitialization:000000da .LVL18
C:\Users\Andrea\AppData\Local\Temp\cchgiFNZ.s:177    .text.LIB_IOM_InputInitialization:000000e2 .LVL19
C:\Users\Andrea\AppData\Local\Temp\cchgiFNZ.s:181    .text.LIB_IOM_InputInitialization:000000e8 .LVL20
C:\Users\Andrea\AppData\Local\Temp\cchgiFNZ.s:188    .text.LIB_IOM_InputInitialization:000000f1 .LVL21
C:\Users\Andrea\AppData\Local\Temp\cchgiFNZ.s:192    .text.LIB_IOM_InputInitialization:000000fa .LVL22
C:\Users\Andrea\AppData\Local\Temp\cchgiFNZ.s:201    .text.LIB_IOM_InputInitialization:00000108 .LVL24
C:\Users\Andrea\AppData\Local\Temp\cchgiFNZ.s:210    .text.LIB_IOM_InputInitialization:00000115 .LVL26
C:\Users\Andrea\AppData\Local\Temp\cchgiFNZ.s:238    .text.LIB_IOM_InputInitialization:00000139 .LVL31
C:\Users\Andrea\AppData\Local\Temp\cchgiFNZ.s:251    .text.LIB_IOM_InputInitialization:0000014d .LVL32
C:\Users\Andrea\AppData\Local\Temp\cchgiFNZ.s:262    .text.LIB_IOM_InputInitialization:0000015c .LVL33
C:\Users\Andrea\AppData\Local\Temp\cchgiFNZ.s:272    .text.LIB_IOM_InputInitialization:0000016c .LVL34
C:\Users\Andrea\AppData\Local\Temp\cchgiFNZ.s:285    .text.LIB_IOM_InputInitialization:00000180 .LVL35
C:\Users\Andrea\AppData\Local\Temp\cchgiFNZ.s:296    .text.LIB_IOM_InputInitialization:0000018e .LVL36
C:\Users\Andrea\AppData\Local\Temp\cchgiFNZ.s:306    .text.LIB_IOM_InputInitialization:0000019e .LVL37
C:\Users\Andrea\AppData\Local\Temp\cchgiFNZ.s:3116   .debug_str:00000f39 .LASF190
C:\Users\Andrea\AppData\Local\Temp\cchgiFNZ.s:3192   .debug_str:000012bf .LASF188
C:\Users\Andrea\AppData\Local\Temp\cchgiFNZ.s:2896   .debug_str:000004e4 .LASF207
C:\Users\Andrea\AppData\Local\Temp\cchgiFNZ.s:2966   .debug_str:000008a8 .LASF189
C:\Users\Andrea\AppData\Local\Temp\cchgiFNZ.s:2974   .debug_str:0000092a .LASF191
C:\Users\Andrea\AppData\Local\Temp\cchgiFNZ.s:3104   .debug_str:00000e63 .LASF192
C:\Users\Andrea\AppData\Local\Temp\cchgiFNZ.s:2990   .debug_str:000009ae .LASF193
C:\Users\Andrea\AppData\Local\Temp\cchgiFNZ.s:3012   .debug_str:00000a71 .LASF194
C:\Users\Andrea\AppData\Local\Temp\cchgiFNZ.s:3072   .debug_str:00000d37 .LASF195
C:\Users\Andrea\AppData\Local\Temp\cchgiFNZ.s:2826   .debug_str:000001d5 .LASF196
C:\Users\Andrea\AppData\Local\Temp\cchgiFNZ.s:2800   .debug_str:000000e8 .LASF197
C:\Users\Andrea\AppData\Local\Temp\cchgiFNZ.s:3080   .debug_str:00000dae .LASF198
C:\Users\Andrea\AppData\Local\Temp\cchgiFNZ.s:3046   .debug_str:00000c2a .LASF199
C:\Users\Andrea\AppData\Local\Temp\cchgiFNZ.s:2874   .debug_str:000003f4 .LASF200
C:\Users\Andrea\AppData\Local\Temp\cchgiFNZ.s:2864   .debug_str:00000370 .LASF201
C:\Users\Andrea\AppData\Local\Temp\cchgiFNZ.s:2970   .debug_str:000008f7 .LASF202
C:\Users\Andrea\AppData\Local\Temp\cchgiFNZ.s:13     .text.LIB_IOM_InputInitialization:00000002 .LCFI0
C:\Users\Andrea\AppData\Local\Temp\cchgiFNZ.s:15     .text.LIB_IOM_InputInitialization:00000005 .LCFI1
C:\Users\Andrea\AppData\Local\Temp\cchgiFNZ.s:11     .text.LIB_IOM_InputInitialization:00000000 .LVL0
C:\Users\Andrea\AppData\Local\Temp\cchgiFNZ.s:19     .text.LIB_IOM_InputInitialization:0000000a .LVL1
C:\Users\Andrea\AppData\Local\Temp\cchgiFNZ.s:197    .text.LIB_IOM_InputInitialization:00000103 .LVL23
C:\Users\Andrea\AppData\Local\Temp\cchgiFNZ.s:203    .text.LIB_IOM_InputInitialization:0000010b .LVL25
C:\Users\Andrea\AppData\Local\Temp\cchgiFNZ.s:323    .text.LIB_IOM_InputInitialization:000001b3 .LVL39
C:\Users\Andrea\AppData\Local\Temp\cchgiFNZ.s:83     .text.LIB_IOM_InputInitialization:00000072 .LVL9
C:\Users\Andrea\AppData\Local\Temp\cchgiFNZ.s:85     .text.LIB_IOM_InputInitialization:00000073 .LVL10
C:\Users\Andrea\AppData\Local\Temp\cchgiFNZ.s:92     .text.LIB_IOM_InputInitialization:0000007a .LVL11
C:\Users\Andrea\AppData\Local\Temp\cchgiFNZ.s:47     .text.LIB_IOM_InputInitialization:0000003c .LVL5
C:\Users\Andrea\AppData\Local\Temp\cchgiFNZ.s:63     .text.LIB_IOM_InputInitialization:00000055 .LVL7
C:\Users\Andrea\AppData\Local\Temp\cchgiFNZ.s:219    .text.LIB_IOM_InputInitialization:0000011d .LVL28
C:\Users\Andrea\AppData\Local\Temp\cchgiFNZ.s:228    .text.LIB_IOM_InputInitialization:0000012d .LVL30
C:\Users\Andrea\AppData\Local\Temp\cchgiFNZ.s:113    .text.LIB_IOM_InputInitialization:00000096 .LVL14
C:\Users\Andrea\AppData\Local\Temp\cchgiFNZ.s:215    .text.LIB_IOM_InputInitialization:0000011b .LVL27
C:\Users\Andrea\AppData\Local\Temp\cchgiFNZ.s:397    .debug_info:00000000 .Ldebug_info0

UNDEFINED SYMBOLS
_BasicLoader
_LIB_ADC_UnregisterAllADch
_OCDIO_SetPinDirValueSync
_LIB_Error_Fatal_Handler
_PM_FrequencyFeedbacks_Configure
_OCDIO_SetPinPullUpSync
_LIB_IOM_Set_IODir_ActiveSense
_PM_PulseCounter_Init
_PM_PulseCounter_SetChannelStatus
_OCDIO_GetIOMapItem
_OCADC_GetADchannelSync
_LIB_ADC_RegisterADchannel
_PM_TurbiditySensor_SetParam
_PM_AnalogFeedback_Setup
_LIB_DIO_InsertDigInput
_LIB_FDB_RegisterFeedback
