   1                             		.file	"interrupt_handlers.c"
   2                             		.section P,"ax"
   3                             	.Ltext0:
   4                             		.section	.text.INT_Excep_SuperVisorInst,"ax",@progbits
   5                             		.global	_INT_Excep_SuperVisorInst
   7                             	_INT_Excep_SuperVisorInst:
   8                             	.LFB0:
   9                             		.file 1 "C:/Workspace/FW_Inertia/branch_indesit/HAL/RN_RX200/EmbOS/interrupt_handlers.c"
   1:C:/Workspace/FW_Inertia/branch_indesit/HAL/RN_RX200/EmbOS\interrupt_handlers.c **** /***********************************************************************/
   2:C:/Workspace/FW_Inertia/branch_indesit/HAL/RN_RX200/EmbOS\interrupt_handlers.c **** /*                                                                     */
   3:C:/Workspace/FW_Inertia/branch_indesit/HAL/RN_RX200/EmbOS\interrupt_handlers.c **** /*  FILE        :interrupt_handlers.c                                  */
   4:C:/Workspace/FW_Inertia/branch_indesit/HAL/RN_RX200/EmbOS\interrupt_handlers.c **** /*  DATE        :Thu, Sep 08, 2011                                     */
   5:C:/Workspace/FW_Inertia/branch_indesit/HAL/RN_RX200/EmbOS\interrupt_handlers.c **** /*  DESCRIPTION :Interrupt Handler                                     */
   6:C:/Workspace/FW_Inertia/branch_indesit/HAL/RN_RX200/EmbOS\interrupt_handlers.c **** /*  CPU TYPE    :RX200                                                 */
   7:C:/Workspace/FW_Inertia/branch_indesit/HAL/RN_RX200/EmbOS\interrupt_handlers.c **** /*                                                                     */
   8:C:/Workspace/FW_Inertia/branch_indesit/HAL/RN_RX200/EmbOS\interrupt_handlers.c **** /*                                                                     */
   9:C:/Workspace/FW_Inertia/branch_indesit/HAL/RN_RX200/EmbOS\interrupt_handlers.c **** /***********************************************************************/
  10:C:/Workspace/FW_Inertia/branch_indesit/HAL/RN_RX200/EmbOS\interrupt_handlers.c ****                 
  11:C:/Workspace/FW_Inertia/branch_indesit/HAL/RN_RX200/EmbOS\interrupt_handlers.c **** 
  12:C:/Workspace/FW_Inertia/branch_indesit/HAL/RN_RX200/EmbOS\interrupt_handlers.c **** 
  13:C:/Workspace/FW_Inertia/branch_indesit/HAL/RN_RX200/EmbOS\interrupt_handlers.c **** 
  14:C:/Workspace/FW_Inertia/branch_indesit/HAL/RN_RX200/EmbOS\interrupt_handlers.c **** #include "interrupt_handlers.h"
  15:C:/Workspace/FW_Inertia/branch_indesit/HAL/RN_RX200/EmbOS\interrupt_handlers.c **** #include "OS_Config.h"
  16:C:/Workspace/FW_Inertia/branch_indesit/HAL/RN_RX200/EmbOS\interrupt_handlers.c **** #include "OCI2C_drv.h"
  17:C:/Workspace/FW_Inertia/branch_indesit/HAL/RN_RX200/EmbOS\interrupt_handlers.c **** #include "OCUART_drv.h"
  18:C:/Workspace/FW_Inertia/branch_indesit/HAL/RN_RX200/EmbOS\interrupt_handlers.c **** #include "OCLVD_drv.h"
  19:C:/Workspace/FW_Inertia/branch_indesit/HAL/RN_RX200/EmbOS\interrupt_handlers.c **** #include "OCADC_drv.h"
  20:C:/Workspace/FW_Inertia/branch_indesit/HAL/RN_RX200/EmbOS\interrupt_handlers.c **** #include "OCIRQ_drv.h"
  21:C:/Workspace/FW_Inertia/branch_indesit/HAL/RN_RX200/EmbOS\interrupt_handlers.c **** #include "OCTPM_drv.h"
  22:C:/Workspace/FW_Inertia/branch_indesit/HAL/RN_RX200/EmbOS\interrupt_handlers.c **** 
  23:C:/Workspace/FW_Inertia/branch_indesit/HAL/RN_RX200/EmbOS\interrupt_handlers.c **** #include "ISR_TMR.h"
  24:C:/Workspace/FW_Inertia/branch_indesit/HAL/RN_RX200/EmbOS\interrupt_handlers.c **** #include "LIB_Error.h"
  25:C:/Workspace/FW_Inertia/branch_indesit/HAL/RN_RX200/EmbOS\interrupt_handlers.c **** 
  26:C:/Workspace/FW_Inertia/branch_indesit/HAL/RN_RX200/EmbOS\interrupt_handlers.c **** #define	 USER_EXCEP_SUPERVISOR_ADDR	(FLASH_BASE_ADDRESS + (20 * 4) )
  27:C:/Workspace/FW_Inertia/branch_indesit/HAL/RN_RX200/EmbOS\interrupt_handlers.c **** #define	 USER_EXCEP_UND_INST_ADDR	(FLASH_BASE_ADDRESS + (23 * 4) )
  28:C:/Workspace/FW_Inertia/branch_indesit/HAL/RN_RX200/EmbOS\interrupt_handlers.c **** #define	 USER_EXCEP_NMI_ADDR		(FLASH_BASE_ADDRESS + (30 * 4) )
  29:C:/Workspace/FW_Inertia/branch_indesit/HAL/RN_RX200/EmbOS\interrupt_handlers.c **** 
  30:C:/Workspace/FW_Inertia/branch_indesit/HAL/RN_RX200/EmbOS\interrupt_handlers.c **** typedef void (*fp) (void);
  31:C:/Workspace/FW_Inertia/branch_indesit/HAL/RN_RX200/EmbOS\interrupt_handlers.c **** 
  32:C:/Workspace/FW_Inertia/branch_indesit/HAL/RN_RX200/EmbOS\interrupt_handlers.c **** 
  33:C:/Workspace/FW_Inertia/branch_indesit/HAL/RN_RX200/EmbOS\interrupt_handlers.c **** /* Exception(Supervisor Instruction)*/
  34:C:/Workspace/FW_Inertia/branch_indesit/HAL/RN_RX200/EmbOS\interrupt_handlers.c **** void INT_Excep_SuperVisorInst(void){
  10                             		.loc 1 34 0
  11                             		; Note: Interrupt Handler
  12 0000 6E 1F                   		pushm	r1-r15
  13                             	.LCFI0:
  35:C:/Workspace/FW_Inertia/branch_indesit/HAL/RN_RX200/EmbOS\interrupt_handlers.c **** #if 0
  36:C:/Workspace/FW_Inertia/branch_indesit/HAL/RN_RX200/EmbOS\interrupt_handlers.c **** 	fp f;
  37:C:/Workspace/FW_Inertia/branch_indesit/HAL/RN_RX200/EmbOS\interrupt_handlers.c **** 	uint32_t *p;
  38:C:/Workspace/FW_Inertia/branch_indesit/HAL/RN_RX200/EmbOS\interrupt_handlers.c **** 
  39:C:/Workspace/FW_Inertia/branch_indesit/HAL/RN_RX200/EmbOS\interrupt_handlers.c **** 	p = (uint32_t *)USER_EXCEP_SUPERVISOR_ADDR;
  40:C:/Workspace/FW_Inertia/branch_indesit/HAL/RN_RX200/EmbOS\interrupt_handlers.c **** 	f = (fp)(*p);
  41:C:/Workspace/FW_Inertia/branch_indesit/HAL/RN_RX200/EmbOS\interrupt_handlers.c **** 	f();
  42:C:/Workspace/FW_Inertia/branch_indesit/HAL/RN_RX200/EmbOS\interrupt_handlers.c **** #endif
  43:C:/Workspace/FW_Inertia/branch_indesit/HAL/RN_RX200/EmbOS\interrupt_handlers.c **** 	LIB_Error_Fatal_Handler(PLT_ERROR_EXCEPT_SVR_INSTR);
  14                             		.loc 1 43 0
  15 0002 75 41 54                		mov.L	#0x54, r1
  16 0005 05 00 00 00             		bsr	_LIB_Error_Fatal_Handler
  17                             	.LVL0:
  44:C:/Workspace/FW_Inertia/branch_indesit/HAL/RN_RX200/EmbOS\interrupt_handlers.c **** }
  18                             		.loc 1 44 0
  19 0009 6F 1F                   		popm	r1-r15
  20 000b 7F 95                   		rte
  21                             	.LFE0:
  23                             		.section	.text.INT_Excep_UndefinedInst,"ax",@progbits
  24                             		.global	_INT_Excep_UndefinedInst
  26                             	_INT_Excep_UndefinedInst:
  27                             	.LFB1:
  45:C:/Workspace/FW_Inertia/branch_indesit/HAL/RN_RX200/EmbOS\interrupt_handlers.c **** /* Exception(Undefined Instruction)*/
  46:C:/Workspace/FW_Inertia/branch_indesit/HAL/RN_RX200/EmbOS\interrupt_handlers.c **** void INT_Excep_UndefinedInst(void){
  28                             		.loc 1 46 0
  29                             		; Note: Interrupt Handler
  30 0000 6E 1F                   		pushm	r1-r15
  31                             	.LCFI1:
  47:C:/Workspace/FW_Inertia/branch_indesit/HAL/RN_RX200/EmbOS\interrupt_handlers.c **** #if 0
  48:C:/Workspace/FW_Inertia/branch_indesit/HAL/RN_RX200/EmbOS\interrupt_handlers.c **** 	fp f;
  49:C:/Workspace/FW_Inertia/branch_indesit/HAL/RN_RX200/EmbOS\interrupt_handlers.c **** 	uint32_t *p;
  50:C:/Workspace/FW_Inertia/branch_indesit/HAL/RN_RX200/EmbOS\interrupt_handlers.c **** 
  51:C:/Workspace/FW_Inertia/branch_indesit/HAL/RN_RX200/EmbOS\interrupt_handlers.c **** 	p = (uint32_t *)USER_EXCEP_UND_INST_ADDR;
  52:C:/Workspace/FW_Inertia/branch_indesit/HAL/RN_RX200/EmbOS\interrupt_handlers.c **** 	f = (fp)(*p);
  53:C:/Workspace/FW_Inertia/branch_indesit/HAL/RN_RX200/EmbOS\interrupt_handlers.c **** 	f();
  54:C:/Workspace/FW_Inertia/branch_indesit/HAL/RN_RX200/EmbOS\interrupt_handlers.c **** #endif
  55:C:/Workspace/FW_Inertia/branch_indesit/HAL/RN_RX200/EmbOS\interrupt_handlers.c **** 	LIB_Error_Fatal_Handler(PLT_ERROR_EXCEPT_UNDEF_INSTR);
  32                             		.loc 1 55 0
  33 0002 75 41 55                		mov.L	#0x55, r1
  34 0005 05 00 00 00             		bsr	_LIB_Error_Fatal_Handler
  35                             	.LVL1:
  56:C:/Workspace/FW_Inertia/branch_indesit/HAL/RN_RX200/EmbOS\interrupt_handlers.c **** }
  36                             		.loc 1 56 0
  37 0009 6F 1F                   		popm	r1-r15
  38 000b 7F 95                   		rte
  39                             	.LFE1:
  41                             		.section	.text.INT_NonMaskableInterrupt,"ax",@progbits
  42                             		.global	_INT_NonMaskableInterrupt
  44                             	_INT_NonMaskableInterrupt:
  45                             	.LFB2:
  57:C:/Workspace/FW_Inertia/branch_indesit/HAL/RN_RX200/EmbOS\interrupt_handlers.c **** /*
  58:C:/Workspace/FW_Inertia/branch_indesit/HAL/RN_RX200/EmbOS\interrupt_handlers.c **** Exception(Floating Point)
  59:C:/Workspace/FW_Inertia/branch_indesit/HAL/RN_RX200/EmbOS\interrupt_handlers.c **** void INT_Excep_FloatingPoint(void){ brk(); }
  60:C:/Workspace/FW_Inertia/branch_indesit/HAL/RN_RX200/EmbOS\interrupt_handlers.c **** */
  61:C:/Workspace/FW_Inertia/branch_indesit/HAL/RN_RX200/EmbOS\interrupt_handlers.c **** /* NMI*/
  62:C:/Workspace/FW_Inertia/branch_indesit/HAL/RN_RX200/EmbOS\interrupt_handlers.c **** void INT_NonMaskableInterrupt(void){
  46                             		.loc 1 62 0
  47                             		; Note: Interrupt Handler
  48 0000 6E 1F                   		pushm	r1-r15
  49                             	.LCFI2:
  63:C:/Workspace/FW_Inertia/branch_indesit/HAL/RN_RX200/EmbOS\interrupt_handlers.c **** #if 0
  64:C:/Workspace/FW_Inertia/branch_indesit/HAL/RN_RX200/EmbOS\interrupt_handlers.c **** 		fp f;
  65:C:/Workspace/FW_Inertia/branch_indesit/HAL/RN_RX200/EmbOS\interrupt_handlers.c **** 		uint32_t *p;
  66:C:/Workspace/FW_Inertia/branch_indesit/HAL/RN_RX200/EmbOS\interrupt_handlers.c **** 
  67:C:/Workspace/FW_Inertia/branch_indesit/HAL/RN_RX200/EmbOS\interrupt_handlers.c **** 		p = (uint32_t *)USER_EXCEP_NMI_ADDR;
  68:C:/Workspace/FW_Inertia/branch_indesit/HAL/RN_RX200/EmbOS\interrupt_handlers.c **** 		f = (fp)(*p);
  69:C:/Workspace/FW_Inertia/branch_indesit/HAL/RN_RX200/EmbOS\interrupt_handlers.c **** 		f();
  70:C:/Workspace/FW_Inertia/branch_indesit/HAL/RN_RX200/EmbOS\interrupt_handlers.c **** #endif
  71:C:/Workspace/FW_Inertia/branch_indesit/HAL/RN_RX200/EmbOS\interrupt_handlers.c **** 		LIB_Error_Fatal_Handler(PLT_ERROR_EXCEPT_NMI);
  50                             		.loc 1 71 0
  51 0002 75 41 56                		mov.L	#0x56, r1
  52 0005 05 00 00 00             		bsr	_LIB_Error_Fatal_Handler
  53                             	.LVL2:
  72:C:/Workspace/FW_Inertia/branch_indesit/HAL/RN_RX200/EmbOS\interrupt_handlers.c **** }
  54                             		.loc 1 72 0
  55 0009 6F 1F                   		popm	r1-r15
  56 000b 7F 95                   		rte
  57                             	.LFE2:
  59                             		.section	.text.DummyFunc,"ax",@progbits
  60                             		.global	_DummyFunc
  62                             	_DummyFunc:
  63                             	.LFB3:
  73:C:/Workspace/FW_Inertia/branch_indesit/HAL/RN_RX200/EmbOS\interrupt_handlers.c **** /*Dummy*/
  74:C:/Workspace/FW_Inertia/branch_indesit/HAL/RN_RX200/EmbOS\interrupt_handlers.c **** void DummyFunc(void){/* brk(); */}
  64                             		.loc 1 74 0
  65                             		; Note: Interrupt Handler
  66                             		.loc 1 74 0
  67 0000 7F 95                   		rte
  68                             	.LFE3:
  70                             		.section	.text.INT_Excep_IRQ0,"ax",@progbits
  71                             		.global	_INT_Excep_IRQ0
  73                             	_INT_Excep_IRQ0:
  74                             	.LFB4:
  75:C:/Workspace/FW_Inertia/branch_indesit/HAL/RN_RX200/EmbOS\interrupt_handlers.c **** 
  76:C:/Workspace/FW_Inertia/branch_indesit/HAL/RN_RX200/EmbOS\interrupt_handlers.c **** /* BRK*/
  77:C:/Workspace/FW_Inertia/branch_indesit/HAL/RN_RX200/EmbOS\interrupt_handlers.c **** /*void INT_Excep_BRK(void){ wait(); }*/
  78:C:/Workspace/FW_Inertia/branch_indesit/HAL/RN_RX200/EmbOS\interrupt_handlers.c **** 
  79:C:/Workspace/FW_Inertia/branch_indesit/HAL/RN_RX200/EmbOS\interrupt_handlers.c **** 
  80:C:/Workspace/FW_Inertia/branch_indesit/HAL/RN_RX200/EmbOS\interrupt_handlers.c **** /* IRQ0*/
  81:C:/Workspace/FW_Inertia/branch_indesit/HAL/RN_RX200/EmbOS\interrupt_handlers.c **** void INT_Excep_IRQ0(void){
  75                             		.loc 1 81 0
  76                             		; Note: Interrupt Handler
  77 0000 6E 1F                   		pushm	r1-r15
  78                             	.LCFI3:
  82:C:/Workspace/FW_Inertia/branch_indesit/HAL/RN_RX200/EmbOS\interrupt_handlers.c **** 	OS_EnterInterrupt();
  79                             		.loc 1 82 0
  80 0002 05 00 00 00             		bsr	_OS_DisableInterrupt
  81                             	.LVL3:
  82 0006 FD 6A 07                		mvfc	psw, r7
  83 0009 79 07                   		bset #16, r7
  84 000b FD 68 70                		mvtc	r7, psw
  85 000e FB 72 00 00 00 00       		mov.L	#_OS_Global, r7
  86 0014 CC 7E                   		mov.B	[r7], r14
  87 0016 62 1E                   		add	#1, r14
  88 0018 C3 7E                   		mov.B	r14, [r7]
  89 001a CD 7E 01                		mov.B	1[r7], r14
  90 001d 62 1E                   		add	#1, r14
  91 001f C7 7E 01                		mov.B	r14, 1[r7]
  83:C:/Workspace/FW_Inertia/branch_indesit/HAL/RN_RX200/EmbOS\interrupt_handlers.c **** 	IRQ_ISR();	
  92                             		.loc 1 83 0
  93 0022 05 00 00 00             		bsr	_IRQ_ISR
  94                             	.LVL4:
  84:C:/Workspace/FW_Inertia/branch_indesit/HAL/RN_RX200/EmbOS\interrupt_handlers.c **** 	OS_LeaveInterrupt();
  95                             		.loc 1 84 0
  96 0026 CD 7E 01                		mov.B	1[r7], r14
  97 0029 60 1E                   		sub	#1, r14
  98 002b C7 7E 01                		mov.B	r14, 1[r7]
  99 002e CC 7E                   		mov.B	[r7], r14
 100 0030 5B E3                   		movu.B	r14, r3
 101 0032 EF 74                   		mov.L	r7, r4
 102 0034 61 13                   		cmp	#1, r3
 103 0036 21 0C                   		bne	.L9
 104                             		.loc 1 84 0 is_stmt 0 discriminator 1
 105 0038 A8 7F                   		mov.L	4[r7], r7
 106 003a 61 07                   		cmp	#0, r7
 107 003c 16                      		beq	.L9
 108                             		.loc 1 84 0 discriminator 3
 109 003d 05 00 00 00             		bsr	_OS_SwitchFromInt
 110                             	.LVL5:
 111 0041 0D                      		bra	.L8
 112                             	.L9:
 113                             		.loc 1 84 0 discriminator 2
 114 0042 60 1E                   		sub	#1, r14
 115 0044 C3 4E                   		mov.B	r14, [r4]
 116                             		.balign 2,3,1
 117                             	.L8:
  85:C:/Workspace/FW_Inertia/branch_indesit/HAL/RN_RX200/EmbOS\interrupt_handlers.c **** }
 118                             		.loc 1 85 0 is_stmt 1
 119 0046 6F 1F                   		popm	r1-r15
 120 0048 7F 95                   		rte
 121                             	.LFE4:
 123                             		.section	.text.INT_Excep_IRQ1,"ax",@progbits
 124                             		.global	_INT_Excep_IRQ1
 126                             	_INT_Excep_IRQ1:
 127                             	.LFB5:
  86:C:/Workspace/FW_Inertia/branch_indesit/HAL/RN_RX200/EmbOS\interrupt_handlers.c **** 
  87:C:/Workspace/FW_Inertia/branch_indesit/HAL/RN_RX200/EmbOS\interrupt_handlers.c **** /* IRQ1*/
  88:C:/Workspace/FW_Inertia/branch_indesit/HAL/RN_RX200/EmbOS\interrupt_handlers.c **** void INT_Excep_IRQ1(void){
 128                             		.loc 1 88 0
 129                             		; Note: Interrupt Handler
 130 0000 6E 1F                   		pushm	r1-r15
 131                             	.LCFI4:
  89:C:/Workspace/FW_Inertia/branch_indesit/HAL/RN_RX200/EmbOS\interrupt_handlers.c **** 	OS_EnterInterrupt();
 132                             		.loc 1 89 0
 133 0002 05 00 00 00             		bsr	_OS_DisableInterrupt
 134                             	.LVL6:
 135 0006 FD 6A 07                		mvfc	psw, r7
 136 0009 79 07                   		bset #16, r7
 137 000b FD 68 70                		mvtc	r7, psw
 138 000e FB 72 00 00 00 00       		mov.L	#_OS_Global, r7
 139 0014 CC 7E                   		mov.B	[r7], r14
 140 0016 62 1E                   		add	#1, r14
 141 0018 C3 7E                   		mov.B	r14, [r7]
 142 001a CD 7E 01                		mov.B	1[r7], r14
 143 001d 62 1E                   		add	#1, r14
 144 001f C7 7E 01                		mov.B	r14, 1[r7]
  90:C:/Workspace/FW_Inertia/branch_indesit/HAL/RN_RX200/EmbOS\interrupt_handlers.c **** 	IRQ_ISR();
 145                             		.loc 1 90 0
 146 0022 05 00 00 00             		bsr	_IRQ_ISR
 147                             	.LVL7:
  91:C:/Workspace/FW_Inertia/branch_indesit/HAL/RN_RX200/EmbOS\interrupt_handlers.c **** 	OS_LeaveInterrupt();
 148                             		.loc 1 91 0
 149 0026 CD 7E 01                		mov.B	1[r7], r14
 150 0029 60 1E                   		sub	#1, r14
 151 002b C7 7E 01                		mov.B	r14, 1[r7]
 152 002e CC 7E                   		mov.B	[r7], r14
 153 0030 5B E3                   		movu.B	r14, r3
 154 0032 EF 74                   		mov.L	r7, r4
 155 0034 61 13                   		cmp	#1, r3
 156 0036 21 0C                   		bne	.L16
 157                             		.loc 1 91 0 is_stmt 0 discriminator 1
 158 0038 A8 7F                   		mov.L	4[r7], r7
 159 003a 61 07                   		cmp	#0, r7
 160 003c 16                      		beq	.L16
 161                             		.loc 1 91 0 discriminator 3
 162 003d 05 00 00 00             		bsr	_OS_SwitchFromInt
 163                             	.LVL8:
 164 0041 0D                      		bra	.L15
 165                             	.L16:
 166                             		.loc 1 91 0 discriminator 2
 167 0042 60 1E                   		sub	#1, r14
 168 0044 C3 4E                   		mov.B	r14, [r4]
 169                             		.balign 2,3,1
 170                             	.L15:
  92:C:/Workspace/FW_Inertia/branch_indesit/HAL/RN_RX200/EmbOS\interrupt_handlers.c **** }
 171                             		.loc 1 92 0 is_stmt 1
 172 0046 6F 1F                   		popm	r1-r15
 173 0048 7F 95                   		rte
 174                             	.LFE5:
 176                             		.section	.text.INT_Excep_IRQ5,"ax",@progbits
 177                             		.global	_INT_Excep_IRQ5
 179                             	_INT_Excep_IRQ5:
 180                             	.LFB6:
  93:C:/Workspace/FW_Inertia/branch_indesit/HAL/RN_RX200/EmbOS\interrupt_handlers.c **** 
  94:C:/Workspace/FW_Inertia/branch_indesit/HAL/RN_RX200/EmbOS\interrupt_handlers.c **** 
  95:C:/Workspace/FW_Inertia/branch_indesit/HAL/RN_RX200/EmbOS\interrupt_handlers.c **** /* IRQ5*/
  96:C:/Workspace/FW_Inertia/branch_indesit/HAL/RN_RX200/EmbOS\interrupt_handlers.c **** void INT_Excep_IRQ5(void){ 
 181                             		.loc 1 96 0
 182                             		; Note: Interrupt Handler
 183 0000 6E 1F                   		pushm	r1-r15
 184                             	.LCFI5:
  97:C:/Workspace/FW_Inertia/branch_indesit/HAL/RN_RX200/EmbOS\interrupt_handlers.c **** 	OS_EnterInterrupt();
 185                             		.loc 1 97 0
 186 0002 05 00 00 00             		bsr	_OS_DisableInterrupt
 187                             	.LVL9:
 188 0006 FD 6A 07                		mvfc	psw, r7
 189 0009 79 07                   		bset #16, r7
 190 000b FD 68 70                		mvtc	r7, psw
 191 000e FB 72 00 00 00 00       		mov.L	#_OS_Global, r7
 192 0014 CC 7E                   		mov.B	[r7], r14
 193 0016 62 1E                   		add	#1, r14
 194 0018 C3 7E                   		mov.B	r14, [r7]
 195 001a CD 7E 01                		mov.B	1[r7], r14
 196 001d 62 1E                   		add	#1, r14
 197 001f C7 7E 01                		mov.B	r14, 1[r7]
  98:C:/Workspace/FW_Inertia/branch_indesit/HAL/RN_RX200/EmbOS\interrupt_handlers.c **** 	IRQ_ISR();
 198                             		.loc 1 98 0
 199 0022 05 00 00 00             		bsr	_IRQ_ISR
 200                             	.LVL10:
  99:C:/Workspace/FW_Inertia/branch_indesit/HAL/RN_RX200/EmbOS\interrupt_handlers.c **** 	OS_LeaveInterrupt();
 201                             		.loc 1 99 0
 202 0026 CD 7E 01                		mov.B	1[r7], r14
 203 0029 60 1E                   		sub	#1, r14
 204 002b C7 7E 01                		mov.B	r14, 1[r7]
 205 002e CC 7E                   		mov.B	[r7], r14
 206 0030 5B E3                   		movu.B	r14, r3
 207 0032 EF 74                   		mov.L	r7, r4
 208 0034 61 13                   		cmp	#1, r3
 209 0036 21 0C                   		bne	.L23
 210                             		.loc 1 99 0 is_stmt 0 discriminator 1
 211 0038 A8 7F                   		mov.L	4[r7], r7
 212 003a 61 07                   		cmp	#0, r7
 213 003c 16                      		beq	.L23
 214                             		.loc 1 99 0 discriminator 3
 215 003d 05 00 00 00             		bsr	_OS_SwitchFromInt
 216                             	.LVL11:
 217 0041 0D                      		bra	.L22
 218                             	.L23:
 219                             		.loc 1 99 0 discriminator 2
 220 0042 60 1E                   		sub	#1, r14
 221 0044 C3 4E                   		mov.B	r14, [r4]
 222                             		.balign 2,3,1
 223                             	.L22:
 100:C:/Workspace/FW_Inertia/branch_indesit/HAL/RN_RX200/EmbOS\interrupt_handlers.c **** }
 224                             		.loc 1 100 0 is_stmt 1
 225 0046 6F 1F                   		popm	r1-r15
 226 0048 7F 95                   		rte
 227                             	.LFE6:
 229                             		.section	.text.INT_Excep_IRQ6,"ax",@progbits
 230                             		.global	_INT_Excep_IRQ6
 232                             	_INT_Excep_IRQ6:
 233                             	.LFB7:
 101:C:/Workspace/FW_Inertia/branch_indesit/HAL/RN_RX200/EmbOS\interrupt_handlers.c **** 
 102:C:/Workspace/FW_Inertia/branch_indesit/HAL/RN_RX200/EmbOS\interrupt_handlers.c **** /* IRQ6*/
 103:C:/Workspace/FW_Inertia/branch_indesit/HAL/RN_RX200/EmbOS\interrupt_handlers.c **** void INT_Excep_IRQ6(void){ 
 234                             		.loc 1 103 0
 235                             		; Note: Interrupt Handler
 236 0000 6E 1F                   		pushm	r1-r15
 237                             	.LCFI6:
 104:C:/Workspace/FW_Inertia/branch_indesit/HAL/RN_RX200/EmbOS\interrupt_handlers.c **** 	OS_EnterInterrupt();
 238                             		.loc 1 104 0
 239 0002 05 00 00 00             		bsr	_OS_DisableInterrupt
 240                             	.LVL12:
 241 0006 FD 6A 07                		mvfc	psw, r7
 242 0009 79 07                   		bset #16, r7
 243 000b FD 68 70                		mvtc	r7, psw
 244 000e FB 72 00 00 00 00       		mov.L	#_OS_Global, r7
 245 0014 CC 7E                   		mov.B	[r7], r14
 246 0016 62 1E                   		add	#1, r14
 247 0018 C3 7E                   		mov.B	r14, [r7]
 248 001a CD 7E 01                		mov.B	1[r7], r14
 249 001d 62 1E                   		add	#1, r14
 250 001f C7 7E 01                		mov.B	r14, 1[r7]
 105:C:/Workspace/FW_Inertia/branch_indesit/HAL/RN_RX200/EmbOS\interrupt_handlers.c **** 	IRQ_ISR();
 251                             		.loc 1 105 0
 252 0022 05 00 00 00             		bsr	_IRQ_ISR
 253                             	.LVL13:
 106:C:/Workspace/FW_Inertia/branch_indesit/HAL/RN_RX200/EmbOS\interrupt_handlers.c **** 	OS_LeaveInterrupt();
 254                             		.loc 1 106 0
 255 0026 CD 7E 01                		mov.B	1[r7], r14
 256 0029 60 1E                   		sub	#1, r14
 257 002b C7 7E 01                		mov.B	r14, 1[r7]
 258 002e CC 7E                   		mov.B	[r7], r14
 259 0030 5B E3                   		movu.B	r14, r3
 260 0032 EF 74                   		mov.L	r7, r4
 261 0034 61 13                   		cmp	#1, r3
 262 0036 21 0C                   		bne	.L30
 263                             		.loc 1 106 0 is_stmt 0 discriminator 1
 264 0038 A8 7F                   		mov.L	4[r7], r7
 265 003a 61 07                   		cmp	#0, r7
 266 003c 16                      		beq	.L30
 267                             		.loc 1 106 0 discriminator 3
 268 003d 05 00 00 00             		bsr	_OS_SwitchFromInt
 269                             	.LVL14:
 270 0041 0D                      		bra	.L29
 271                             	.L30:
 272                             		.loc 1 106 0 discriminator 2
 273 0042 60 1E                   		sub	#1, r14
 274 0044 C3 4E                   		mov.B	r14, [r4]
 275                             		.balign 2,3,1
 276                             	.L29:
 107:C:/Workspace/FW_Inertia/branch_indesit/HAL/RN_RX200/EmbOS\interrupt_handlers.c **** }
 277                             		.loc 1 107 0 is_stmt 1
 278 0046 6F 1F                   		popm	r1-r15
 279 0048 7F 95                   		rte
 280                             	.LFE7:
 282                             		.section	.text.INT_Excep_LVD1,"ax",@progbits
 283                             		.global	_INT_Excep_LVD1
 285                             	_INT_Excep_LVD1:
 286                             	.LFB8:
 108:C:/Workspace/FW_Inertia/branch_indesit/HAL/RN_RX200/EmbOS\interrupt_handlers.c **** 
 109:C:/Workspace/FW_Inertia/branch_indesit/HAL/RN_RX200/EmbOS\interrupt_handlers.c **** /* LVD1*/
 110:C:/Workspace/FW_Inertia/branch_indesit/HAL/RN_RX200/EmbOS\interrupt_handlers.c **** void INT_Excep_LVD1(void)
 111:C:/Workspace/FW_Inertia/branch_indesit/HAL/RN_RX200/EmbOS\interrupt_handlers.c **** {
 287                             		.loc 1 111 0
 288                             		; Note: Interrupt Handler
 289 0000 6E 1F                   		pushm	r1-r15
 290                             	.LCFI7:
 112:C:/Workspace/FW_Inertia/branch_indesit/HAL/RN_RX200/EmbOS\interrupt_handlers.c **** 	OCLVDW_ISR();
 291                             		.loc 1 112 0
 292 0002 05 00 00 00             		bsr	_OCLVDW_ISR
 293                             	.LVL15:
 113:C:/Workspace/FW_Inertia/branch_indesit/HAL/RN_RX200/EmbOS\interrupt_handlers.c **** }
 294                             		.loc 1 113 0
 295 0006 6F 1F                   		popm	r1-r15
 296 0008 7F 95                   		rte
 297                             	.LFE8:
 299                             		.section	.text.INT_Excep_LVD2,"ax",@progbits
 300                             		.global	_INT_Excep_LVD2
 302                             	_INT_Excep_LVD2:
 303                             	.LFB9:
 114:C:/Workspace/FW_Inertia/branch_indesit/HAL/RN_RX200/EmbOS\interrupt_handlers.c **** 
 115:C:/Workspace/FW_Inertia/branch_indesit/HAL/RN_RX200/EmbOS\interrupt_handlers.c **** /* LVD2*/
 116:C:/Workspace/FW_Inertia/branch_indesit/HAL/RN_RX200/EmbOS\interrupt_handlers.c **** void INT_Excep_LVD2(void)
 117:C:/Workspace/FW_Inertia/branch_indesit/HAL/RN_RX200/EmbOS\interrupt_handlers.c **** {
 304                             		.loc 1 117 0
 305                             		; Note: Interrupt Handler
 306 0000 6E 1F                   		pushm	r1-r15
 307                             	.LCFI8:
 118:C:/Workspace/FW_Inertia/branch_indesit/HAL/RN_RX200/EmbOS\interrupt_handlers.c **** 	OCLVDW_ISR();
 308                             		.loc 1 118 0
 309 0002 05 00 00 00             		bsr	_OCLVDW_ISR
 310                             	.LVL16:
 119:C:/Workspace/FW_Inertia/branch_indesit/HAL/RN_RX200/EmbOS\interrupt_handlers.c **** }
 311                             		.loc 1 119 0
 312 0006 6F 1F                   		popm	r1-r15
 313 0008 7F 95                   		rte
 314                             	.LFE9:
 316                             		.section	.text.INT_Excep_MTU0_TGIA0,"ax",@progbits
 317                             		.global	_INT_Excep_MTU0_TGIA0
 319                             	_INT_Excep_MTU0_TGIA0:
 320                             	.LFB10:
 120:C:/Workspace/FW_Inertia/branch_indesit/HAL/RN_RX200/EmbOS\interrupt_handlers.c **** 
 121:C:/Workspace/FW_Inertia/branch_indesit/HAL/RN_RX200/EmbOS\interrupt_handlers.c **** #ifdef TGRA0_IRQ_SUPPORT
 122:C:/Workspace/FW_Inertia/branch_indesit/HAL/RN_RX200/EmbOS\interrupt_handlers.c **** void  INT_Excep_MTU0_TGIA0(void){
 321                             		.loc 1 122 0
 322                             		; Note: Interrupt Handler
 323 0000 6E 1F                   		pushm	r1-r15
 324                             	.LCFI9:
 325                             	.LVL17:
 123:C:/Workspace/FW_Inertia/branch_indesit/HAL/RN_RX200/EmbOS\interrupt_handlers.c **** 	int i=0;
 124:C:/Workspace/FW_Inertia/branch_indesit/HAL/RN_RX200/EmbOS\interrupt_handlers.c **** 	OS_EnterInterrupt();
 326                             		.loc 1 124 0
 327 0002 05 00 00 00             		bsr	_OS_DisableInterrupt
 328                             	.LVL18:
 329 0006 FD 6A 07                		mvfc	psw, r7
 330 0009 79 07                   		bset #16, r7
 331 000b FD 68 70                		mvtc	r7, psw
 332 000e FB 72 00 00 00 00       		mov.L	#_OS_Global, r7
 333 0014 CC 7E                   		mov.B	[r7], r14
 334 0016 62 1E                   		add	#1, r14
 335 0018 C3 7E                   		mov.B	r14, [r7]
 336 001a CD 7E 01                		mov.B	1[r7], r14
 337 001d 62 1E                   		add	#1, r14
 338 001f C7 7E 01                		mov.B	r14, 1[r7]
 125:C:/Workspace/FW_Inertia/branch_indesit/HAL/RN_RX200/EmbOS\interrupt_handlers.c **** 
 126:C:/Workspace/FW_Inertia/branch_indesit/HAL/RN_RX200/EmbOS\interrupt_handlers.c **** 	i |= MTU0_TGIA0_ExceptionHandler(NULL, 0);
 339                             		.loc 1 126 0
 340 0022 66 01                   		mov.L	#0, r1
 341 0024 EF 12                   		mov.L	r1, r2
 342 0026 05 00 00 00             		bsr	_MTU0_TGIA0_ExceptionHandler
 343                             	.LVL19:
 127:C:/Workspace/FW_Inertia/branch_indesit/HAL/RN_RX200/EmbOS\interrupt_handlers.c **** 	if(!i)
 344                             		.loc 1 127 0
 345 002a 61 01                   		cmp	#0, r1
 346 002c 1C                      		bne	.L41
 347 002d 03                      		.balign 2,3,3
 348                             	.L42:
 349 002e 2E 00                   		bra	.L42
 350                             	.L41:
 128:C:/Workspace/FW_Inertia/branch_indesit/HAL/RN_RX200/EmbOS\interrupt_handlers.c **** 	{
 129:C:/Workspace/FW_Inertia/branch_indesit/HAL/RN_RX200/EmbOS\interrupt_handlers.c **** 		while(1);
 130:C:/Workspace/FW_Inertia/branch_indesit/HAL/RN_RX200/EmbOS\interrupt_handlers.c **** 	}
 131:C:/Workspace/FW_Inertia/branch_indesit/HAL/RN_RX200/EmbOS\interrupt_handlers.c **** 
 132:C:/Workspace/FW_Inertia/branch_indesit/HAL/RN_RX200/EmbOS\interrupt_handlers.c **** 	OS_LeaveInterrupt();
 351                             		.loc 1 132 0
 352 0030 CD 7E 01                		mov.B	1[r7], r14
 353 0033 60 1E                   		sub	#1, r14
 354 0035 C7 7E 01                		mov.B	r14, 1[r7]
 355 0038 CC 7E                   		mov.B	[r7], r14
 356 003a 5B E4                   		movu.B	r14, r4
 357 003c 61 14                   		cmp	#1, r4
 358 003e 21 0D                   		bne	.L43
 359                             		.loc 1 132 0 is_stmt 0 discriminator 1
 360 0040 A8 7F                   		mov.L	4[r7], r7
 361 0042 61 07                   		cmp	#0, r7
 362 0044 17                      		beq	.L43
 363                             		.loc 1 132 0 discriminator 3
 364 0045 05 00 00 00             		bsr	_OS_SwitchFromInt
 365                             	.LVL20:
 366 0049 2E 0D                   		bra	.L40
 367                             	.LVL21:
 368                             	.L43:
 369                             		.loc 1 132 0 discriminator 2
 370 004b 60 1E                   		sub	#1, r14
 371 004d FB 72 00 00 00 00       		mov.L	#_OS_Global, r7
 372 0053 C3 7E                   		mov.B	r14, [r7]
 373                             	.LVL22:
 374 0055 03                      		.balign 2,3,1
 375                             	.L40:
 133:C:/Workspace/FW_Inertia/branch_indesit/HAL/RN_RX200/EmbOS\interrupt_handlers.c **** }
 376                             		.loc 1 133 0 is_stmt 1
 377 0056 6F 1F                   		popm	r1-r15
 378 0058 7F 95                   		rte
 379                             	.LFE10:
 381                             		.section	.text.INT_Excep_MTU0_TGIC0,"ax",@progbits
 382                             		.global	_INT_Excep_MTU0_TGIC0
 384                             	_INT_Excep_MTU0_TGIC0:
 385                             	.LFB11:
 134:C:/Workspace/FW_Inertia/branch_indesit/HAL/RN_RX200/EmbOS\interrupt_handlers.c **** #endif
 135:C:/Workspace/FW_Inertia/branch_indesit/HAL/RN_RX200/EmbOS\interrupt_handlers.c **** 
 136:C:/Workspace/FW_Inertia/branch_indesit/HAL/RN_RX200/EmbOS\interrupt_handlers.c **** 
 137:C:/Workspace/FW_Inertia/branch_indesit/HAL/RN_RX200/EmbOS\interrupt_handlers.c **** #ifdef TGRB0_IRQ_SUPPORT
 138:C:/Workspace/FW_Inertia/branch_indesit/HAL/RN_RX200/EmbOS\interrupt_handlers.c **** void  INT_Excep_MTU0_TGIB0(void){
 139:C:/Workspace/FW_Inertia/branch_indesit/HAL/RN_RX200/EmbOS\interrupt_handlers.c **** 	int i=0;
 140:C:/Workspace/FW_Inertia/branch_indesit/HAL/RN_RX200/EmbOS\interrupt_handlers.c **** 	OS_EnterInterrupt();
 141:C:/Workspace/FW_Inertia/branch_indesit/HAL/RN_RX200/EmbOS\interrupt_handlers.c **** 
 142:C:/Workspace/FW_Inertia/branch_indesit/HAL/RN_RX200/EmbOS\interrupt_handlers.c **** 	i |= MTU0_TGIB0_ExceptionHandler(NULL, 0);
 143:C:/Workspace/FW_Inertia/branch_indesit/HAL/RN_RX200/EmbOS\interrupt_handlers.c **** 	if(!i)
 144:C:/Workspace/FW_Inertia/branch_indesit/HAL/RN_RX200/EmbOS\interrupt_handlers.c **** 	{
 145:C:/Workspace/FW_Inertia/branch_indesit/HAL/RN_RX200/EmbOS\interrupt_handlers.c **** 		while(1);
 146:C:/Workspace/FW_Inertia/branch_indesit/HAL/RN_RX200/EmbOS\interrupt_handlers.c **** 	}
 147:C:/Workspace/FW_Inertia/branch_indesit/HAL/RN_RX200/EmbOS\interrupt_handlers.c **** 
 148:C:/Workspace/FW_Inertia/branch_indesit/HAL/RN_RX200/EmbOS\interrupt_handlers.c **** 	OS_LeaveInterrupt();
 149:C:/Workspace/FW_Inertia/branch_indesit/HAL/RN_RX200/EmbOS\interrupt_handlers.c **** }
 150:C:/Workspace/FW_Inertia/branch_indesit/HAL/RN_RX200/EmbOS\interrupt_handlers.c **** #endif
 151:C:/Workspace/FW_Inertia/branch_indesit/HAL/RN_RX200/EmbOS\interrupt_handlers.c **** 
 152:C:/Workspace/FW_Inertia/branch_indesit/HAL/RN_RX200/EmbOS\interrupt_handlers.c **** #ifdef TGRC0_IRQ_SUPPORT
 153:C:/Workspace/FW_Inertia/branch_indesit/HAL/RN_RX200/EmbOS\interrupt_handlers.c **** void  INT_Excep_MTU0_TGIC0(void){
 386                             		.loc 1 153 0
 387                             		; Note: Interrupt Handler
 388 0000 6E 1F                   		pushm	r1-r15
 389                             	.LCFI10:
 390                             	.LVL23:
 154:C:/Workspace/FW_Inertia/branch_indesit/HAL/RN_RX200/EmbOS\interrupt_handlers.c **** 	int i=0;
 155:C:/Workspace/FW_Inertia/branch_indesit/HAL/RN_RX200/EmbOS\interrupt_handlers.c **** 	OS_EnterInterrupt();
 391                             		.loc 1 155 0
 392 0002 05 00 00 00             		bsr	_OS_DisableInterrupt
 393                             	.LVL24:
 394 0006 FD 6A 07                		mvfc	psw, r7
 395 0009 79 07                   		bset #16, r7
 396 000b FD 68 70                		mvtc	r7, psw
 397 000e FB 72 00 00 00 00       		mov.L	#_OS_Global, r7
 398 0014 CC 7E                   		mov.B	[r7], r14
 399 0016 62 1E                   		add	#1, r14
 400 0018 C3 7E                   		mov.B	r14, [r7]
 401 001a CD 7E 01                		mov.B	1[r7], r14
 402 001d 62 1E                   		add	#1, r14
 403 001f C7 7E 01                		mov.B	r14, 1[r7]
 156:C:/Workspace/FW_Inertia/branch_indesit/HAL/RN_RX200/EmbOS\interrupt_handlers.c **** 
 157:C:/Workspace/FW_Inertia/branch_indesit/HAL/RN_RX200/EmbOS\interrupt_handlers.c **** 	i |= MTU0_TGIC0_ExceptionHandler(NULL, 0);
 404                             		.loc 1 157 0
 405 0022 66 01                   		mov.L	#0, r1
 406 0024 EF 12                   		mov.L	r1, r2
 407 0026 05 00 00 00             		bsr	_MTU0_TGIC0_ExceptionHandler
 408                             	.LVL25:
 158:C:/Workspace/FW_Inertia/branch_indesit/HAL/RN_RX200/EmbOS\interrupt_handlers.c **** 	if(!i)
 409                             		.loc 1 158 0
 410 002a 61 01                   		cmp	#0, r1
 411 002c 1C                      		bne	.L50
 412 002d 03                      		.balign 2,3,3
 413                             	.L51:
 414 002e 2E 00                   		bra	.L51
 415                             	.L50:
 159:C:/Workspace/FW_Inertia/branch_indesit/HAL/RN_RX200/EmbOS\interrupt_handlers.c **** 	{
 160:C:/Workspace/FW_Inertia/branch_indesit/HAL/RN_RX200/EmbOS\interrupt_handlers.c **** 		while(1);
 161:C:/Workspace/FW_Inertia/branch_indesit/HAL/RN_RX200/EmbOS\interrupt_handlers.c **** 	}
 162:C:/Workspace/FW_Inertia/branch_indesit/HAL/RN_RX200/EmbOS\interrupt_handlers.c **** 
 163:C:/Workspace/FW_Inertia/branch_indesit/HAL/RN_RX200/EmbOS\interrupt_handlers.c **** 	OS_LeaveInterrupt();
 416                             		.loc 1 163 0
 417 0030 CD 7E 01                		mov.B	1[r7], r14
 418 0033 60 1E                   		sub	#1, r14
 419 0035 C7 7E 01                		mov.B	r14, 1[r7]
 420 0038 CC 7E                   		mov.B	[r7], r14
 421 003a 5B E4                   		movu.B	r14, r4
 422 003c 61 14                   		cmp	#1, r4
 423 003e 21 0D                   		bne	.L52
 424                             		.loc 1 163 0 is_stmt 0 discriminator 1
 425 0040 A8 7F                   		mov.L	4[r7], r7
 426 0042 61 07                   		cmp	#0, r7
 427 0044 17                      		beq	.L52
 428                             		.loc 1 163 0 discriminator 3
 429 0045 05 00 00 00             		bsr	_OS_SwitchFromInt
 430                             	.LVL26:
 431 0049 2E 0D                   		bra	.L49
 432                             	.LVL27:
 433                             	.L52:
 434                             		.loc 1 163 0 discriminator 2
 435 004b 60 1E                   		sub	#1, r14
 436 004d FB 72 00 00 00 00       		mov.L	#_OS_Global, r7
 437 0053 C3 7E                   		mov.B	r14, [r7]
 438                             	.LVL28:
 439 0055 03                      		.balign 2,3,1
 440                             	.L49:
 164:C:/Workspace/FW_Inertia/branch_indesit/HAL/RN_RX200/EmbOS\interrupt_handlers.c **** }
 441                             		.loc 1 164 0 is_stmt 1
 442 0056 6F 1F                   		popm	r1-r15
 443 0058 7F 95                   		rte
 444                             	.LFE11:
 446                             		.section	.text.INT_Excep_MTU0_TGID0,"ax",@progbits
 447                             		.global	_INT_Excep_MTU0_TGID0
 449                             	_INT_Excep_MTU0_TGID0:
 450                             	.LFB12:
 165:C:/Workspace/FW_Inertia/branch_indesit/HAL/RN_RX200/EmbOS\interrupt_handlers.c **** #endif
 166:C:/Workspace/FW_Inertia/branch_indesit/HAL/RN_RX200/EmbOS\interrupt_handlers.c **** 
 167:C:/Workspace/FW_Inertia/branch_indesit/HAL/RN_RX200/EmbOS\interrupt_handlers.c **** 
 168:C:/Workspace/FW_Inertia/branch_indesit/HAL/RN_RX200/EmbOS\interrupt_handlers.c **** void  INT_Excep_MTU0_TGID0(void){  
 451                             		.loc 1 168 0
 452                             		; Note: Interrupt Handler
 453 0000 6E 1F                   		pushm	r1-r15
 454                             	.LCFI11:
 169:C:/Workspace/FW_Inertia/branch_indesit/HAL/RN_RX200/EmbOS\interrupt_handlers.c **** 	if( TMR_GetClearSourceId(HAL_TMR_MTU0) == TCNT_CLEARING_TGRD ){
 455                             		.loc 1 169 0
 456 0002 66 01                   		mov	#0, r1
 457 0004 05 00 00 00             		bsr	_TMR_GetClearSourceId
 458                             	.LVL29:
 459 0008 5B 11                   		movu.B	r1, r1
 460 000a 61 31                   		cmp	#3, r1
 461 000c 18                      		bne	.L59
 170:C:/Workspace/FW_Inertia/branch_indesit/HAL/RN_RX200/EmbOS\interrupt_handlers.c **** 		HWCNTR_ISR(HW_TMR_ID_0);
 462                             		.loc 1 170 0
 463 000d 66 01                   		mov	#0, r1
 464 000f 05 00 00 00             		bsr	_HWCNTR_ISR
 465                             	.LVL30:
 466 0013 09                      		bra	.L58
 467                             	.L59:
 171:C:/Workspace/FW_Inertia/branch_indesit/HAL/RN_RX200/EmbOS\interrupt_handlers.c **** 	}else{
 172:C:/Workspace/FW_Inertia/branch_indesit/HAL/RN_RX200/EmbOS\interrupt_handlers.c **** 		HWTMRCH_ISR(TMR_CH_ID_3);
 468                             		.loc 1 172 0
 469 0014 FB 16 FF                		mov	#-1, r1
 470 0017 05 00 00 00             		bsr	_HWTMRCH_ISR
 471                             	.LVL31:
 472 001b 03                      		.balign 2,3,1
 473                             	.L58:
 173:C:/Workspace/FW_Inertia/branch_indesit/HAL/RN_RX200/EmbOS\interrupt_handlers.c **** 	}
 174:C:/Workspace/FW_Inertia/branch_indesit/HAL/RN_RX200/EmbOS\interrupt_handlers.c **** }
 474                             		.loc 1 174 0
 475 001c 6F 1F                   		popm	r1-r15
 476 001e 7F 95                   		rte
 477                             	.LFE12:
 479                             		.section	.text.INT_Excep_MTU0_TCIV0,"ax",@progbits
 480                             		.global	_INT_Excep_MTU0_TCIV0
 482                             	_INT_Excep_MTU0_TCIV0:
 483                             	.LFB13:
 175:C:/Workspace/FW_Inertia/branch_indesit/HAL/RN_RX200/EmbOS\interrupt_handlers.c **** 
 176:C:/Workspace/FW_Inertia/branch_indesit/HAL/RN_RX200/EmbOS\interrupt_handlers.c **** 
 177:C:/Workspace/FW_Inertia/branch_indesit/HAL/RN_RX200/EmbOS\interrupt_handlers.c **** #ifdef TCIV0_IRQ_SUPPORT
 178:C:/Workspace/FW_Inertia/branch_indesit/HAL/RN_RX200/EmbOS\interrupt_handlers.c **** void  INT_Excep_MTU0_TCIV0(void){
 484                             		.loc 1 178 0
 485                             		; Note: Interrupt Handler
 486 0000 6E 1F                   		pushm	r1-r15
 487                             	.LCFI12:
 488                             	.LVL32:
 179:C:/Workspace/FW_Inertia/branch_indesit/HAL/RN_RX200/EmbOS\interrupt_handlers.c **** 	int i=0;
 180:C:/Workspace/FW_Inertia/branch_indesit/HAL/RN_RX200/EmbOS\interrupt_handlers.c **** 	OS_EnterInterrupt();
 489                             		.loc 1 180 0
 490 0002 05 00 00 00             		bsr	_OS_DisableInterrupt
 491                             	.LVL33:
 492 0006 FD 6A 07                		mvfc	psw, r7
 493 0009 79 07                   		bset #16, r7
 494 000b FD 68 70                		mvtc	r7, psw
 495 000e FB 72 00 00 00 00       		mov.L	#_OS_Global, r7
 496 0014 CC 7E                   		mov.B	[r7], r14
 497 0016 62 1E                   		add	#1, r14
 498 0018 C3 7E                   		mov.B	r14, [r7]
 499 001a CD 7E 01                		mov.B	1[r7], r14
 500 001d 62 1E                   		add	#1, r14
 501 001f C7 7E 01                		mov.B	r14, 1[r7]
 181:C:/Workspace/FW_Inertia/branch_indesit/HAL/RN_RX200/EmbOS\interrupt_handlers.c **** 
 182:C:/Workspace/FW_Inertia/branch_indesit/HAL/RN_RX200/EmbOS\interrupt_handlers.c **** 	i |= CNT0_OVF_ExceptionHandler();
 502                             		.loc 1 182 0
 503 0022 05 00 00 00             		bsr	_CNT0_OVF_ExceptionHandler
 504                             	.LVL34:
 183:C:/Workspace/FW_Inertia/branch_indesit/HAL/RN_RX200/EmbOS\interrupt_handlers.c **** 	if(!i)
 505                             		.loc 1 183 0
 506 0026 61 01                   		cmp	#0, r1
 507 0028 1C                      		bne	.L63
 508 0029 03                      		.balign 2,3,3
 509                             	.L64:
 510 002a 2E 00                   		bra	.L64
 511                             	.L63:
 184:C:/Workspace/FW_Inertia/branch_indesit/HAL/RN_RX200/EmbOS\interrupt_handlers.c **** 	{
 185:C:/Workspace/FW_Inertia/branch_indesit/HAL/RN_RX200/EmbOS\interrupt_handlers.c **** 		while(1);
 186:C:/Workspace/FW_Inertia/branch_indesit/HAL/RN_RX200/EmbOS\interrupt_handlers.c **** 	}
 187:C:/Workspace/FW_Inertia/branch_indesit/HAL/RN_RX200/EmbOS\interrupt_handlers.c **** 
 188:C:/Workspace/FW_Inertia/branch_indesit/HAL/RN_RX200/EmbOS\interrupt_handlers.c **** 	OS_LeaveInterrupt();
 512                             		.loc 1 188 0
 513 002c CD 7E 01                		mov.B	1[r7], r14
 514 002f 60 1E                   		sub	#1, r14
 515 0031 C7 7E 01                		mov.B	r14, 1[r7]
 516 0034 CC 7E                   		mov.B	[r7], r14
 517 0036 5B E4                   		movu.B	r14, r4
 518 0038 61 14                   		cmp	#1, r4
 519 003a 21 0D                   		bne	.L65
 520                             		.loc 1 188 0 is_stmt 0 discriminator 1
 521 003c A8 7F                   		mov.L	4[r7], r7
 522 003e 61 07                   		cmp	#0, r7
 523 0040 17                      		beq	.L65
 524                             		.loc 1 188 0 discriminator 3
 525 0041 05 00 00 00             		bsr	_OS_SwitchFromInt
 526                             	.LVL35:
 527 0045 2E 0D                   		bra	.L62
 528                             	.LVL36:
 529                             	.L65:
 530                             		.loc 1 188 0 discriminator 2
 531 0047 60 1E                   		sub	#1, r14
 532 0049 FB 72 00 00 00 00       		mov.L	#_OS_Global, r7
 533 004f C3 7E                   		mov.B	r14, [r7]
 534                             	.LVL37:
 535 0051 03                      		.balign 2,3,1
 536                             	.L62:
 189:C:/Workspace/FW_Inertia/branch_indesit/HAL/RN_RX200/EmbOS\interrupt_handlers.c **** }
 537                             		.loc 1 189 0 is_stmt 1
 538 0052 6F 1F                   		popm	r1-r15
 539 0054 7F 95                   		rte
 540                             	.LFE13:
 542                             		.section	.text.INT_Excep_MTU0_TGIE0,"ax",@progbits
 543                             		.global	_INT_Excep_MTU0_TGIE0
 545                             	_INT_Excep_MTU0_TGIE0:
 546                             	.LFB14:
 190:C:/Workspace/FW_Inertia/branch_indesit/HAL/RN_RX200/EmbOS\interrupt_handlers.c **** #endif
 191:C:/Workspace/FW_Inertia/branch_indesit/HAL/RN_RX200/EmbOS\interrupt_handlers.c **** void  INT_Excep_MTU0_TGIE0(void){
 547                             		.loc 1 191 0
 548                             		; Note: Interrupt Handler
 549 0000 6E 1F                   		pushm	r1-r15
 550                             	.LCFI13:
 192:C:/Workspace/FW_Inertia/branch_indesit/HAL/RN_RX200/EmbOS\interrupt_handlers.c **** 	HWTMRCH_ISR(TMR_CH_ID_5);
 551                             		.loc 1 192 0
 552 0002 FB 16 FF                		mov	#-1, r1
 553 0005 05 00 00 00             		bsr	_HWTMRCH_ISR
 554                             	.LVL38:
 193:C:/Workspace/FW_Inertia/branch_indesit/HAL/RN_RX200/EmbOS\interrupt_handlers.c **** }
 555                             		.loc 1 193 0
 556 0009 6F 1F                   		popm	r1-r15
 557 000b 7F 95                   		rte
 558                             	.LFE14:
 560                             		.section	.text.INT_Excep_MTU0_TGIF0,"ax",@progbits
 561                             		.global	_INT_Excep_MTU0_TGIF0
 563                             	_INT_Excep_MTU0_TGIF0:
 564                             	.LFB15:
 194:C:/Workspace/FW_Inertia/branch_indesit/HAL/RN_RX200/EmbOS\interrupt_handlers.c **** 
 195:C:/Workspace/FW_Inertia/branch_indesit/HAL/RN_RX200/EmbOS\interrupt_handlers.c **** void  INT_Excep_MTU0_TGIF0(void){
 565                             		.loc 1 195 0
 566                             		; Note: Interrupt Handler
 567 0000 6E 1F                   		pushm	r1-r15
 568                             	.LCFI14:
 196:C:/Workspace/FW_Inertia/branch_indesit/HAL/RN_RX200/EmbOS\interrupt_handlers.c **** 	HWTMRCH_ISR(TMR_CH_ID_6);
 569                             		.loc 1 196 0
 570 0002 FB 16 FF                		mov	#-1, r1
 571 0005 05 00 00 00             		bsr	_HWTMRCH_ISR
 572                             	.LVL39:
 197:C:/Workspace/FW_Inertia/branch_indesit/HAL/RN_RX200/EmbOS\interrupt_handlers.c **** }
 573                             		.loc 1 197 0
 574 0009 6F 1F                   		popm	r1-r15
 575 000b 7F 95                   		rte
 576                             	.LFE15:
 578                             		.section	.text.INT_Excep_MTU1_TGIA1,"ax",@progbits
 579                             		.global	_INT_Excep_MTU1_TGIA1
 581                             	_INT_Excep_MTU1_TGIA1:
 582                             	.LFB16:
 198:C:/Workspace/FW_Inertia/branch_indesit/HAL/RN_RX200/EmbOS\interrupt_handlers.c **** 
 199:C:/Workspace/FW_Inertia/branch_indesit/HAL/RN_RX200/EmbOS\interrupt_handlers.c **** 
 200:C:/Workspace/FW_Inertia/branch_indesit/HAL/RN_RX200/EmbOS\interrupt_handlers.c **** #ifdef TGRA1_IRQ_SUPPORT
 201:C:/Workspace/FW_Inertia/branch_indesit/HAL/RN_RX200/EmbOS\interrupt_handlers.c **** void  INT_Excep_MTU1_TGIA1(void){
 583                             		.loc 1 201 0
 584                             		; Note: Interrupt Handler
 585 0000 6E 1F                   		pushm	r1-r15
 586                             	.LCFI15:
 587                             	.LVL40:
 202:C:/Workspace/FW_Inertia/branch_indesit/HAL/RN_RX200/EmbOS\interrupt_handlers.c **** 	int i=0;
 203:C:/Workspace/FW_Inertia/branch_indesit/HAL/RN_RX200/EmbOS\interrupt_handlers.c **** 	OS_EnterInterrupt();
 588                             		.loc 1 203 0
 589 0002 05 00 00 00             		bsr	_OS_DisableInterrupt
 590                             	.LVL41:
 591 0006 FD 6A 07                		mvfc	psw, r7
 592 0009 79 07                   		bset #16, r7
 593 000b FD 68 70                		mvtc	r7, psw
 594 000e FB 72 00 00 00 00       		mov.L	#_OS_Global, r7
 595 0014 CC 7E                   		mov.B	[r7], r14
 596 0016 62 1E                   		add	#1, r14
 597 0018 C3 7E                   		mov.B	r14, [r7]
 598 001a CD 7E 01                		mov.B	1[r7], r14
 599 001d 62 1E                   		add	#1, r14
 600 001f C7 7E 01                		mov.B	r14, 1[r7]
 204:C:/Workspace/FW_Inertia/branch_indesit/HAL/RN_RX200/EmbOS\interrupt_handlers.c **** 
 205:C:/Workspace/FW_Inertia/branch_indesit/HAL/RN_RX200/EmbOS\interrupt_handlers.c **** 	i |= MTU1_TGIA1_ExceptionHandler(NULL, 0);
 601                             		.loc 1 205 0
 602 0022 66 01                   		mov.L	#0, r1
 603 0024 EF 12                   		mov.L	r1, r2
 604 0026 05 00 00 00             		bsr	_MTU1_TGIA1_ExceptionHandler
 605                             	.LVL42:
 206:C:/Workspace/FW_Inertia/branch_indesit/HAL/RN_RX200/EmbOS\interrupt_handlers.c **** 	if(!i)
 606                             		.loc 1 206 0
 607 002a 61 01                   		cmp	#0, r1
 608 002c 1C                      		bne	.L76
 609 002d 03                      		.balign 2,3,3
 610                             	.L77:
 611 002e 2E 00                   		bra	.L77
 612                             	.L76:
 207:C:/Workspace/FW_Inertia/branch_indesit/HAL/RN_RX200/EmbOS\interrupt_handlers.c **** 	{
 208:C:/Workspace/FW_Inertia/branch_indesit/HAL/RN_RX200/EmbOS\interrupt_handlers.c **** 		while(1);
 209:C:/Workspace/FW_Inertia/branch_indesit/HAL/RN_RX200/EmbOS\interrupt_handlers.c **** 	}
 210:C:/Workspace/FW_Inertia/branch_indesit/HAL/RN_RX200/EmbOS\interrupt_handlers.c **** 
 211:C:/Workspace/FW_Inertia/branch_indesit/HAL/RN_RX200/EmbOS\interrupt_handlers.c **** 	OS_LeaveInterrupt();
 613                             		.loc 1 211 0
 614 0030 CD 7E 01                		mov.B	1[r7], r14
 615 0033 60 1E                   		sub	#1, r14
 616 0035 C7 7E 01                		mov.B	r14, 1[r7]
 617 0038 CC 7E                   		mov.B	[r7], r14
 618 003a 5B E4                   		movu.B	r14, r4
 619 003c 61 14                   		cmp	#1, r4
 620 003e 21 0D                   		bne	.L78
 621                             		.loc 1 211 0 is_stmt 0 discriminator 1
 622 0040 A8 7F                   		mov.L	4[r7], r7
 623 0042 61 07                   		cmp	#0, r7
 624 0044 17                      		beq	.L78
 625                             		.loc 1 211 0 discriminator 3
 626 0045 05 00 00 00             		bsr	_OS_SwitchFromInt
 627                             	.LVL43:
 628 0049 2E 0D                   		bra	.L75
 629                             	.LVL44:
 630                             	.L78:
 631                             		.loc 1 211 0 discriminator 2
 632 004b 60 1E                   		sub	#1, r14
 633 004d FB 72 00 00 00 00       		mov.L	#_OS_Global, r7
 634 0053 C3 7E                   		mov.B	r14, [r7]
 635                             	.LVL45:
 636 0055 03                      		.balign 2,3,1
 637                             	.L75:
 212:C:/Workspace/FW_Inertia/branch_indesit/HAL/RN_RX200/EmbOS\interrupt_handlers.c **** }
 638                             		.loc 1 212 0 is_stmt 1
 639 0056 6F 1F                   		popm	r1-r15
 640 0058 7F 95                   		rte
 641                             	.LFE16:
 643                             		.section	.text.INT_Excep_MTU1_TGIB1,"ax",@progbits
 644                             		.global	_INT_Excep_MTU1_TGIB1
 646                             	_INT_Excep_MTU1_TGIB1:
 647                             	.LFB17:
 213:C:/Workspace/FW_Inertia/branch_indesit/HAL/RN_RX200/EmbOS\interrupt_handlers.c **** #endif
 214:C:/Workspace/FW_Inertia/branch_indesit/HAL/RN_RX200/EmbOS\interrupt_handlers.c **** 
 215:C:/Workspace/FW_Inertia/branch_indesit/HAL/RN_RX200/EmbOS\interrupt_handlers.c **** 
 216:C:/Workspace/FW_Inertia/branch_indesit/HAL/RN_RX200/EmbOS\interrupt_handlers.c **** void INT_Excep_MTU1_TGIB1(void){
 648                             		.loc 1 216 0
 649                             		; Note: Interrupt Handler
 650 0000 6E 1F                   		pushm	r1-r15
 651                             	.LCFI16:
 217:C:/Workspace/FW_Inertia/branch_indesit/HAL/RN_RX200/EmbOS\interrupt_handlers.c **** 	if( TMR_GetClearSourceId(HAL_TMR_MTU1) == TCNT_CLEARING_TGRB ){		
 652                             		.loc 1 217 0
 653 0002 66 11                   		mov	#1, r1
 654 0004 05 00 00 00             		bsr	_TMR_GetClearSourceId
 655                             	.LVL46:
 656 0008 5B 11                   		movu.B	r1, r1
 657 000a 61 11                   		cmp	#1, r1
 658 000c 1E                      		bne	.L85
 218:C:/Workspace/FW_Inertia/branch_indesit/HAL/RN_RX200/EmbOS\interrupt_handlers.c **** 		HWCNTR_ISR(HW_TMR_ID_1);
 659                             		.loc 1 218 0
 660 000d 05 00 00 00             		bsr	_HWCNTR_ISR
 661                             	.LVL47:
 662 0011 09                      		bra	.L84
 663                             	.L85:
 219:C:/Workspace/FW_Inertia/branch_indesit/HAL/RN_RX200/EmbOS\interrupt_handlers.c **** 	}else{
 220:C:/Workspace/FW_Inertia/branch_indesit/HAL/RN_RX200/EmbOS\interrupt_handlers.c **** 		HWTMRCH_ISR(TMR_CH_ID_8);
 664                             		.loc 1 220 0
 665 0012 FB 16 FF                		mov	#-1, r1
 666 0015 05 00 00 00             		bsr	_HWTMRCH_ISR
 667                             	.LVL48:
 668 0019 03                      		.balign 2,3,1
 669                             	.L84:
 221:C:/Workspace/FW_Inertia/branch_indesit/HAL/RN_RX200/EmbOS\interrupt_handlers.c **** 	}
 222:C:/Workspace/FW_Inertia/branch_indesit/HAL/RN_RX200/EmbOS\interrupt_handlers.c **** }
 670                             		.loc 1 222 0
 671 001a 6F 1F                   		popm	r1-r15
 672 001c 7F 95                   		rte
 673                             	.LFE17:
 675                             		.section	.text.INT_Excep_MTU1_TCIV1,"ax",@progbits
 676                             		.global	_INT_Excep_MTU1_TCIV1
 678                             	_INT_Excep_MTU1_TCIV1:
 679                             	.LFB18:
 223:C:/Workspace/FW_Inertia/branch_indesit/HAL/RN_RX200/EmbOS\interrupt_handlers.c **** 
 224:C:/Workspace/FW_Inertia/branch_indesit/HAL/RN_RX200/EmbOS\interrupt_handlers.c **** #ifdef TCIV1_IRQ_SUPPORT
 225:C:/Workspace/FW_Inertia/branch_indesit/HAL/RN_RX200/EmbOS\interrupt_handlers.c **** void INT_Excep_MTU1_TCIV1(void){
 680                             		.loc 1 225 0
 681                             		; Note: Interrupt Handler
 682 0000 6E 1F                   		pushm	r1-r15
 683                             	.LCFI17:
 684                             	.LVL49:
 226:C:/Workspace/FW_Inertia/branch_indesit/HAL/RN_RX200/EmbOS\interrupt_handlers.c **** 	int i=0;
 227:C:/Workspace/FW_Inertia/branch_indesit/HAL/RN_RX200/EmbOS\interrupt_handlers.c **** 	OS_EnterInterrupt();
 685                             		.loc 1 227 0
 686 0002 05 00 00 00             		bsr	_OS_DisableInterrupt
 687                             	.LVL50:
 688 0006 FD 6A 07                		mvfc	psw, r7
 689 0009 79 07                   		bset #16, r7
 690 000b FD 68 70                		mvtc	r7, psw
 691 000e FB 72 00 00 00 00       		mov.L	#_OS_Global, r7
 692 0014 CC 7E                   		mov.B	[r7], r14
 693 0016 62 1E                   		add	#1, r14
 694 0018 C3 7E                   		mov.B	r14, [r7]
 695 001a CD 7E 01                		mov.B	1[r7], r14
 696 001d 62 1E                   		add	#1, r14
 697 001f C7 7E 01                		mov.B	r14, 1[r7]
 228:C:/Workspace/FW_Inertia/branch_indesit/HAL/RN_RX200/EmbOS\interrupt_handlers.c **** 
 229:C:/Workspace/FW_Inertia/branch_indesit/HAL/RN_RX200/EmbOS\interrupt_handlers.c **** 	i |= CNT1_OVF_ExceptionHandler();
 698                             		.loc 1 229 0
 699 0022 05 00 00 00             		bsr	_CNT1_OVF_ExceptionHandler
 700                             	.LVL51:
 230:C:/Workspace/FW_Inertia/branch_indesit/HAL/RN_RX200/EmbOS\interrupt_handlers.c **** 	if(!i)
 701                             		.loc 1 230 0
 702 0026 61 01                   		cmp	#0, r1
 703 0028 1C                      		bne	.L89
 704 0029 03                      		.balign 2,3,3
 705                             	.L90:
 706 002a 2E 00                   		bra	.L90
 707                             	.L89:
 231:C:/Workspace/FW_Inertia/branch_indesit/HAL/RN_RX200/EmbOS\interrupt_handlers.c **** 	{
 232:C:/Workspace/FW_Inertia/branch_indesit/HAL/RN_RX200/EmbOS\interrupt_handlers.c **** 		while(1);
 233:C:/Workspace/FW_Inertia/branch_indesit/HAL/RN_RX200/EmbOS\interrupt_handlers.c **** 	}
 234:C:/Workspace/FW_Inertia/branch_indesit/HAL/RN_RX200/EmbOS\interrupt_handlers.c **** 
 235:C:/Workspace/FW_Inertia/branch_indesit/HAL/RN_RX200/EmbOS\interrupt_handlers.c **** 	OS_LeaveInterrupt();
 708                             		.loc 1 235 0
 709 002c CD 7E 01                		mov.B	1[r7], r14
 710 002f 60 1E                   		sub	#1, r14
 711 0031 C7 7E 01                		mov.B	r14, 1[r7]
 712 0034 CC 7E                   		mov.B	[r7], r14
 713 0036 5B E4                   		movu.B	r14, r4
 714 0038 61 14                   		cmp	#1, r4
 715 003a 21 0D                   		bne	.L91
 716                             		.loc 1 235 0 is_stmt 0 discriminator 1
 717 003c A8 7F                   		mov.L	4[r7], r7
 718 003e 61 07                   		cmp	#0, r7
 719 0040 17                      		beq	.L91
 720                             		.loc 1 235 0 discriminator 3
 721 0041 05 00 00 00             		bsr	_OS_SwitchFromInt
 722                             	.LVL52:
 723 0045 2E 0D                   		bra	.L88
 724                             	.LVL53:
 725                             	.L91:
 726                             		.loc 1 235 0 discriminator 2
 727 0047 60 1E                   		sub	#1, r14
 728 0049 FB 72 00 00 00 00       		mov.L	#_OS_Global, r7
 729 004f C3 7E                   		mov.B	r14, [r7]
 730                             	.LVL54:
 731 0051 03                      		.balign 2,3,1
 732                             	.L88:
 236:C:/Workspace/FW_Inertia/branch_indesit/HAL/RN_RX200/EmbOS\interrupt_handlers.c **** }
 733                             		.loc 1 236 0 is_stmt 1
 734 0052 6F 1F                   		popm	r1-r15
 735 0054 7F 95                   		rte
 736                             	.LFE18:
 738                             		.section	.text.INT_Excep_MTU1_TCIU1,"ax",@progbits
 739                             		.global	_INT_Excep_MTU1_TCIU1
 741                             	_INT_Excep_MTU1_TCIU1:
 742                             	.LFB19:
 237:C:/Workspace/FW_Inertia/branch_indesit/HAL/RN_RX200/EmbOS\interrupt_handlers.c **** #endif
 238:C:/Workspace/FW_Inertia/branch_indesit/HAL/RN_RX200/EmbOS\interrupt_handlers.c **** void INT_Excep_MTU1_TCIU1(void){ /* MTU1 Underflow*/
 743                             		.loc 1 238 0
 744                             		; Note: Interrupt Handler
 745 0000 6E 1F                   		pushm	r1-r15
 746                             	.LCFI18:
 239:C:/Workspace/FW_Inertia/branch_indesit/HAL/RN_RX200/EmbOS\interrupt_handlers.c **** 	HWTMRCH_ISR(TMR_CH_ID_10);
 747                             		.loc 1 239 0
 748 0002 FB 16 FF                		mov	#-1, r1
 749 0005 05 00 00 00             		bsr	_HWTMRCH_ISR
 750                             	.LVL55:
 240:C:/Workspace/FW_Inertia/branch_indesit/HAL/RN_RX200/EmbOS\interrupt_handlers.c **** }
 751                             		.loc 1 240 0
 752 0009 6F 1F                   		popm	r1-r15
 753 000b 7F 95                   		rte
 754                             	.LFE19:
 756                             		.section	.text.INT_Excep_MTU2_TGIA2,"ax",@progbits
 757                             		.global	_INT_Excep_MTU2_TGIA2
 759                             	_INT_Excep_MTU2_TGIA2:
 760                             	.LFB20:
 241:C:/Workspace/FW_Inertia/branch_indesit/HAL/RN_RX200/EmbOS\interrupt_handlers.c **** 
 242:C:/Workspace/FW_Inertia/branch_indesit/HAL/RN_RX200/EmbOS\interrupt_handlers.c **** 
 243:C:/Workspace/FW_Inertia/branch_indesit/HAL/RN_RX200/EmbOS\interrupt_handlers.c **** #ifdef TGRA2_IRQ_SUPPORT
 244:C:/Workspace/FW_Inertia/branch_indesit/HAL/RN_RX200/EmbOS\interrupt_handlers.c **** void  INT_Excep_MTU2_TGIA2(void){
 761                             		.loc 1 244 0
 762                             		; Note: Interrupt Handler
 763 0000 6E 1F                   		pushm	r1-r15
 764                             	.LCFI19:
 765                             	.LVL56:
 245:C:/Workspace/FW_Inertia/branch_indesit/HAL/RN_RX200/EmbOS\interrupt_handlers.c **** 	int i=0;
 246:C:/Workspace/FW_Inertia/branch_indesit/HAL/RN_RX200/EmbOS\interrupt_handlers.c **** 	OS_EnterInterrupt();
 766                             		.loc 1 246 0
 767 0002 05 00 00 00             		bsr	_OS_DisableInterrupt
 768                             	.LVL57:
 769 0006 FD 6A 07                		mvfc	psw, r7
 770 0009 79 07                   		bset #16, r7
 771 000b FD 68 70                		mvtc	r7, psw
 772 000e FB 72 00 00 00 00       		mov.L	#_OS_Global, r7
 773 0014 CC 7E                   		mov.B	[r7], r14
 774 0016 62 1E                   		add	#1, r14
 775 0018 C3 7E                   		mov.B	r14, [r7]
 776 001a CD 7E 01                		mov.B	1[r7], r14
 777 001d 62 1E                   		add	#1, r14
 778 001f C7 7E 01                		mov.B	r14, 1[r7]
 247:C:/Workspace/FW_Inertia/branch_indesit/HAL/RN_RX200/EmbOS\interrupt_handlers.c **** 
 248:C:/Workspace/FW_Inertia/branch_indesit/HAL/RN_RX200/EmbOS\interrupt_handlers.c **** 	i |= MTU2_TGIA2_ExceptionHandler(NULL, 0);
 779                             		.loc 1 248 0
 780 0022 66 01                   		mov.L	#0, r1
 781 0024 EF 12                   		mov.L	r1, r2
 782 0026 05 00 00 00             		bsr	_MTU2_TGIA2_ExceptionHandler
 783                             	.LVL58:
 249:C:/Workspace/FW_Inertia/branch_indesit/HAL/RN_RX200/EmbOS\interrupt_handlers.c **** 	if(!i)
 784                             		.loc 1 249 0
 785 002a 61 01                   		cmp	#0, r1
 786 002c 1C                      		bne	.L100
 787 002d 03                      		.balign 2,3,3
 788                             	.L101:
 789 002e 2E 00                   		bra	.L101
 790                             	.L100:
 250:C:/Workspace/FW_Inertia/branch_indesit/HAL/RN_RX200/EmbOS\interrupt_handlers.c **** 	{
 251:C:/Workspace/FW_Inertia/branch_indesit/HAL/RN_RX200/EmbOS\interrupt_handlers.c **** 		while(1);
 252:C:/Workspace/FW_Inertia/branch_indesit/HAL/RN_RX200/EmbOS\interrupt_handlers.c **** 	}
 253:C:/Workspace/FW_Inertia/branch_indesit/HAL/RN_RX200/EmbOS\interrupt_handlers.c **** 
 254:C:/Workspace/FW_Inertia/branch_indesit/HAL/RN_RX200/EmbOS\interrupt_handlers.c **** 	OS_LeaveInterrupt();
 791                             		.loc 1 254 0
 792 0030 CD 7E 01                		mov.B	1[r7], r14
 793 0033 60 1E                   		sub	#1, r14
 794 0035 C7 7E 01                		mov.B	r14, 1[r7]
 795 0038 CC 7E                   		mov.B	[r7], r14
 796 003a 5B E4                   		movu.B	r14, r4
 797 003c 61 14                   		cmp	#1, r4
 798 003e 21 0D                   		bne	.L102
 799                             		.loc 1 254 0 is_stmt 0 discriminator 1
 800 0040 A8 7F                   		mov.L	4[r7], r7
 801 0042 61 07                   		cmp	#0, r7
 802 0044 17                      		beq	.L102
 803                             		.loc 1 254 0 discriminator 3
 804 0045 05 00 00 00             		bsr	_OS_SwitchFromInt
 805                             	.LVL59:
 806 0049 2E 0D                   		bra	.L99
 807                             	.LVL60:
 808                             	.L102:
 809                             		.loc 1 254 0 discriminator 2
 810 004b 60 1E                   		sub	#1, r14
 811 004d FB 72 00 00 00 00       		mov.L	#_OS_Global, r7
 812 0053 C3 7E                   		mov.B	r14, [r7]
 813                             	.LVL61:
 814 0055 03                      		.balign 2,3,1
 815                             	.L99:
 255:C:/Workspace/FW_Inertia/branch_indesit/HAL/RN_RX200/EmbOS\interrupt_handlers.c **** }
 816                             		.loc 1 255 0 is_stmt 1
 817 0056 6F 1F                   		popm	r1-r15
 818 0058 7F 95                   		rte
 819                             	.LFE20:
 821                             		.section	.text.INT_Excep_MTU2_TGIB2,"ax",@progbits
 822                             		.global	_INT_Excep_MTU2_TGIB2
 824                             	_INT_Excep_MTU2_TGIB2:
 825                             	.LFB21:
 256:C:/Workspace/FW_Inertia/branch_indesit/HAL/RN_RX200/EmbOS\interrupt_handlers.c **** #endif
 257:C:/Workspace/FW_Inertia/branch_indesit/HAL/RN_RX200/EmbOS\interrupt_handlers.c **** 
 258:C:/Workspace/FW_Inertia/branch_indesit/HAL/RN_RX200/EmbOS\interrupt_handlers.c **** 
 259:C:/Workspace/FW_Inertia/branch_indesit/HAL/RN_RX200/EmbOS\interrupt_handlers.c **** void INT_Excep_MTU2_TGIB2(void){
 826                             		.loc 1 259 0
 827                             		; Note: Interrupt Handler
 828 0000 6E 1F                   		pushm	r1-r15
 829                             	.LCFI20:
 260:C:/Workspace/FW_Inertia/branch_indesit/HAL/RN_RX200/EmbOS\interrupt_handlers.c **** 	if( TMR_GetClearSourceId(HAL_TMR_MTU2) == TCNT_CLEARING_TGRB ){
 830                             		.loc 1 260 0
 831 0002 66 21                   		mov	#2, r1
 832 0004 05 00 00 00             		bsr	_TMR_GetClearSourceId
 833                             	.LVL62:
 834 0008 5B 11                   		movu.B	r1, r1
 835 000a 61 11                   		cmp	#1, r1
 836 000c 18                      		bne	.L109
 261:C:/Workspace/FW_Inertia/branch_indesit/HAL/RN_RX200/EmbOS\interrupt_handlers.c **** 		HWCNTR_ISR(HW_TMR_ID_2);
 837                             		.loc 1 261 0
 838 000d 66 21                   		mov	#2, r1
 839 000f 05 00 00 00             		bsr	_HWCNTR_ISR
 840                             	.LVL63:
 841 0013 09                      		bra	.L108
 842                             	.L109:
 262:C:/Workspace/FW_Inertia/branch_indesit/HAL/RN_RX200/EmbOS\interrupt_handlers.c **** 	}else{
 263:C:/Workspace/FW_Inertia/branch_indesit/HAL/RN_RX200/EmbOS\interrupt_handlers.c **** 		HWTMRCH_ISR(TMR_CH_ID_12);
 843                             		.loc 1 263 0
 844 0014 FB 16 FF                		mov	#-1, r1
 845 0017 05 00 00 00             		bsr	_HWTMRCH_ISR
 846                             	.LVL64:
 847 001b 03                      		.balign 2,3,1
 848                             	.L108:
 264:C:/Workspace/FW_Inertia/branch_indesit/HAL/RN_RX200/EmbOS\interrupt_handlers.c **** 	}
 265:C:/Workspace/FW_Inertia/branch_indesit/HAL/RN_RX200/EmbOS\interrupt_handlers.c **** }
 849                             		.loc 1 265 0
 850 001c 6F 1F                   		popm	r1-r15
 851 001e 7F 95                   		rte
 852                             	.LFE21:
 854                             		.section	.text.INT_Excep_MTU2_TCIV2,"ax",@progbits
 855                             		.global	_INT_Excep_MTU2_TCIV2
 857                             	_INT_Excep_MTU2_TCIV2:
 858                             	.LFB22:
 266:C:/Workspace/FW_Inertia/branch_indesit/HAL/RN_RX200/EmbOS\interrupt_handlers.c **** 
 267:C:/Workspace/FW_Inertia/branch_indesit/HAL/RN_RX200/EmbOS\interrupt_handlers.c **** #ifdef TCIV2_IRQ_SUPPORT
 268:C:/Workspace/FW_Inertia/branch_indesit/HAL/RN_RX200/EmbOS\interrupt_handlers.c **** void INT_Excep_MTU2_TCIV2(void){
 859                             		.loc 1 268 0
 860                             		; Note: Interrupt Handler
 861 0000 6E 1F                   		pushm	r1-r15
 862                             	.LCFI21:
 863                             	.LVL65:
 269:C:/Workspace/FW_Inertia/branch_indesit/HAL/RN_RX200/EmbOS\interrupt_handlers.c **** 	int i=0;
 270:C:/Workspace/FW_Inertia/branch_indesit/HAL/RN_RX200/EmbOS\interrupt_handlers.c **** 	OS_EnterInterrupt();
 864                             		.loc 1 270 0
 865 0002 05 00 00 00             		bsr	_OS_DisableInterrupt
 866                             	.LVL66:
 867 0006 FD 6A 07                		mvfc	psw, r7
 868 0009 79 07                   		bset #16, r7
 869 000b FD 68 70                		mvtc	r7, psw
 870 000e FB 72 00 00 00 00       		mov.L	#_OS_Global, r7
 871 0014 CC 7E                   		mov.B	[r7], r14
 872 0016 62 1E                   		add	#1, r14
 873 0018 C3 7E                   		mov.B	r14, [r7]
 874 001a CD 7E 01                		mov.B	1[r7], r14
 875 001d 62 1E                   		add	#1, r14
 876 001f C7 7E 01                		mov.B	r14, 1[r7]
 271:C:/Workspace/FW_Inertia/branch_indesit/HAL/RN_RX200/EmbOS\interrupt_handlers.c **** 
 272:C:/Workspace/FW_Inertia/branch_indesit/HAL/RN_RX200/EmbOS\interrupt_handlers.c **** 	i |= CNT2_OVF_ExceptionHandler();
 877                             		.loc 1 272 0
 878 0022 05 00 00 00             		bsr	_CNT2_OVF_ExceptionHandler
 879                             	.LVL67:
 273:C:/Workspace/FW_Inertia/branch_indesit/HAL/RN_RX200/EmbOS\interrupt_handlers.c **** 	if(!i)
 880                             		.loc 1 273 0
 881 0026 61 01                   		cmp	#0, r1
 882 0028 1C                      		bne	.L113
 883 0029 03                      		.balign 2,3,3
 884                             	.L114:
 885 002a 2E 00                   		bra	.L114
 886                             	.L113:
 274:C:/Workspace/FW_Inertia/branch_indesit/HAL/RN_RX200/EmbOS\interrupt_handlers.c **** 	{
 275:C:/Workspace/FW_Inertia/branch_indesit/HAL/RN_RX200/EmbOS\interrupt_handlers.c **** 		while(1);
 276:C:/Workspace/FW_Inertia/branch_indesit/HAL/RN_RX200/EmbOS\interrupt_handlers.c **** 	}
 277:C:/Workspace/FW_Inertia/branch_indesit/HAL/RN_RX200/EmbOS\interrupt_handlers.c **** 
 278:C:/Workspace/FW_Inertia/branch_indesit/HAL/RN_RX200/EmbOS\interrupt_handlers.c **** 	OS_LeaveInterrupt();
 887                             		.loc 1 278 0
 888 002c CD 7E 01                		mov.B	1[r7], r14
 889 002f 60 1E                   		sub	#1, r14
 890 0031 C7 7E 01                		mov.B	r14, 1[r7]
 891 0034 CC 7E                   		mov.B	[r7], r14
 892 0036 5B E4                   		movu.B	r14, r4
 893 0038 61 14                   		cmp	#1, r4
 894 003a 21 0D                   		bne	.L115
 895                             		.loc 1 278 0 is_stmt 0 discriminator 1
 896 003c A8 7F                   		mov.L	4[r7], r7
 897 003e 61 07                   		cmp	#0, r7
 898 0040 17                      		beq	.L115
 899                             		.loc 1 278 0 discriminator 3
 900 0041 05 00 00 00             		bsr	_OS_SwitchFromInt
 901                             	.LVL68:
 902 0045 2E 0D                   		bra	.L112
 903                             	.LVL69:
 904                             	.L115:
 905                             		.loc 1 278 0 discriminator 2
 906 0047 60 1E                   		sub	#1, r14
 907 0049 FB 72 00 00 00 00       		mov.L	#_OS_Global, r7
 908 004f C3 7E                   		mov.B	r14, [r7]
 909                             	.LVL70:
 910 0051 03                      		.balign 2,3,1
 911                             	.L112:
 279:C:/Workspace/FW_Inertia/branch_indesit/HAL/RN_RX200/EmbOS\interrupt_handlers.c **** }
 912                             		.loc 1 279 0 is_stmt 1
 913 0052 6F 1F                   		popm	r1-r15
 914 0054 7F 95                   		rte
 915                             	.LFE22:
 917                             		.section	.text.INT_Excep_MTU2_TCIU2,"ax",@progbits
 918                             		.global	_INT_Excep_MTU2_TCIU2
 920                             	_INT_Excep_MTU2_TCIU2:
 921                             	.LFB23:
 280:C:/Workspace/FW_Inertia/branch_indesit/HAL/RN_RX200/EmbOS\interrupt_handlers.c **** #endif /*TCIV2_IRQ_SUPPORT */
 281:C:/Workspace/FW_Inertia/branch_indesit/HAL/RN_RX200/EmbOS\interrupt_handlers.c **** 
 282:C:/Workspace/FW_Inertia/branch_indesit/HAL/RN_RX200/EmbOS\interrupt_handlers.c **** void INT_Excep_MTU2_TCIU2(void){ /* MTU2 Underflow*/
 922                             		.loc 1 282 0
 923                             		; Note: Interrupt Handler
 924 0000 6E 1F                   		pushm	r1-r15
 925                             	.LCFI22:
 283:C:/Workspace/FW_Inertia/branch_indesit/HAL/RN_RX200/EmbOS\interrupt_handlers.c **** 	HWTMRCH_ISR(TMR_CH_ID_14);
 926                             		.loc 1 283 0
 927 0002 FB 16 FF                		mov	#-1, r1
 928 0005 05 00 00 00             		bsr	_HWTMRCH_ISR
 929                             	.LVL71:
 284:C:/Workspace/FW_Inertia/branch_indesit/HAL/RN_RX200/EmbOS\interrupt_handlers.c **** }
 930                             		.loc 1 284 0
 931 0009 6F 1F                   		popm	r1-r15
 932 000b 7F 95                   		rte
 933                             	.LFE23:
 935                             		.section	.text.INT_Excep_MTU3_TGIA3,"ax",@progbits
 936                             		.global	_INT_Excep_MTU3_TGIA3
 938                             	_INT_Excep_MTU3_TGIA3:
 939                             	.LFB24:
 285:C:/Workspace/FW_Inertia/branch_indesit/HAL/RN_RX200/EmbOS\interrupt_handlers.c **** 
 286:C:/Workspace/FW_Inertia/branch_indesit/HAL/RN_RX200/EmbOS\interrupt_handlers.c **** 
 287:C:/Workspace/FW_Inertia/branch_indesit/HAL/RN_RX200/EmbOS\interrupt_handlers.c **** #ifdef TGRA3_IRQ_SUPPORT
 288:C:/Workspace/FW_Inertia/branch_indesit/HAL/RN_RX200/EmbOS\interrupt_handlers.c **** void  INT_Excep_MTU3_TGIA3(void){
 940                             		.loc 1 288 0
 941                             		; Note: Interrupt Handler
 942 0000 6E 1F                   		pushm	r1-r15
 943                             	.LCFI23:
 944                             	.LVL72:
 289:C:/Workspace/FW_Inertia/branch_indesit/HAL/RN_RX200/EmbOS\interrupt_handlers.c **** 	int i=0;
 290:C:/Workspace/FW_Inertia/branch_indesit/HAL/RN_RX200/EmbOS\interrupt_handlers.c **** 	OS_EnterInterrupt();
 945                             		.loc 1 290 0
 946 0002 05 00 00 00             		bsr	_OS_DisableInterrupt
 947                             	.LVL73:
 948 0006 FD 6A 07                		mvfc	psw, r7
 949 0009 79 07                   		bset #16, r7
 950 000b FD 68 70                		mvtc	r7, psw
 951 000e FB 72 00 00 00 00       		mov.L	#_OS_Global, r7
 952 0014 CC 7E                   		mov.B	[r7], r14
 953 0016 62 1E                   		add	#1, r14
 954 0018 C3 7E                   		mov.B	r14, [r7]
 955 001a CD 7E 01                		mov.B	1[r7], r14
 956 001d 62 1E                   		add	#1, r14
 957 001f C7 7E 01                		mov.B	r14, 1[r7]
 291:C:/Workspace/FW_Inertia/branch_indesit/HAL/RN_RX200/EmbOS\interrupt_handlers.c **** 
 292:C:/Workspace/FW_Inertia/branch_indesit/HAL/RN_RX200/EmbOS\interrupt_handlers.c **** 	i |= MTU3_TGIA3_ExceptionHandler(NULL, 0);
 958                             		.loc 1 292 0
 959 0022 66 01                   		mov.L	#0, r1
 960 0024 EF 12                   		mov.L	r1, r2
 961 0026 05 00 00 00             		bsr	_MTU3_TGIA3_ExceptionHandler
 962                             	.LVL74:
 293:C:/Workspace/FW_Inertia/branch_indesit/HAL/RN_RX200/EmbOS\interrupt_handlers.c **** 	if(!i)
 963                             		.loc 1 293 0
 964 002a 61 01                   		cmp	#0, r1
 965 002c 1C                      		bne	.L124
 966 002d 03                      		.balign 2,3,3
 967                             	.L125:
 968 002e 2E 00                   		bra	.L125
 969                             	.L124:
 294:C:/Workspace/FW_Inertia/branch_indesit/HAL/RN_RX200/EmbOS\interrupt_handlers.c **** 	{
 295:C:/Workspace/FW_Inertia/branch_indesit/HAL/RN_RX200/EmbOS\interrupt_handlers.c **** 		while(1);
 296:C:/Workspace/FW_Inertia/branch_indesit/HAL/RN_RX200/EmbOS\interrupt_handlers.c **** 	}
 297:C:/Workspace/FW_Inertia/branch_indesit/HAL/RN_RX200/EmbOS\interrupt_handlers.c **** 
 298:C:/Workspace/FW_Inertia/branch_indesit/HAL/RN_RX200/EmbOS\interrupt_handlers.c **** 	OS_LeaveInterrupt();
 970                             		.loc 1 298 0
 971 0030 CD 7E 01                		mov.B	1[r7], r14
 972 0033 60 1E                   		sub	#1, r14
 973 0035 C7 7E 01                		mov.B	r14, 1[r7]
 974 0038 CC 7E                   		mov.B	[r7], r14
 975 003a 5B E4                   		movu.B	r14, r4
 976 003c 61 14                   		cmp	#1, r4
 977 003e 21 0D                   		bne	.L126
 978                             		.loc 1 298 0 is_stmt 0 discriminator 1
 979 0040 A8 7F                   		mov.L	4[r7], r7
 980 0042 61 07                   		cmp	#0, r7
 981 0044 17                      		beq	.L126
 982                             		.loc 1 298 0 discriminator 3
 983 0045 05 00 00 00             		bsr	_OS_SwitchFromInt
 984                             	.LVL75:
 985 0049 2E 0D                   		bra	.L123
 986                             	.LVL76:
 987                             	.L126:
 988                             		.loc 1 298 0 discriminator 2
 989 004b 60 1E                   		sub	#1, r14
 990 004d FB 72 00 00 00 00       		mov.L	#_OS_Global, r7
 991 0053 C3 7E                   		mov.B	r14, [r7]
 992                             	.LVL77:
 993 0055 03                      		.balign 2,3,1
 994                             	.L123:
 299:C:/Workspace/FW_Inertia/branch_indesit/HAL/RN_RX200/EmbOS\interrupt_handlers.c **** }
 995                             		.loc 1 299 0 is_stmt 1
 996 0056 6F 1F                   		popm	r1-r15
 997 0058 7F 95                   		rte
 998                             	.LFE24:
 1000                             		.section	.text.INT_Excep_MTU3_TGIB3,"ax",@progbits
 1001                             		.global	_INT_Excep_MTU3_TGIB3
 1003                             	_INT_Excep_MTU3_TGIB3:
 1004                             	.LFB25:
 300:C:/Workspace/FW_Inertia/branch_indesit/HAL/RN_RX200/EmbOS\interrupt_handlers.c **** #endif
 301:C:/Workspace/FW_Inertia/branch_indesit/HAL/RN_RX200/EmbOS\interrupt_handlers.c **** 
 302:C:/Workspace/FW_Inertia/branch_indesit/HAL/RN_RX200/EmbOS\interrupt_handlers.c **** 
 303:C:/Workspace/FW_Inertia/branch_indesit/HAL/RN_RX200/EmbOS\interrupt_handlers.c **** void INT_Excep_MTU3_TGIB3(void){
 1005                             		.loc 1 303 0
 1006                             		; Note: Interrupt Handler
 1007 0000 6E 1F                   		pushm	r1-r15
 1008                             	.LCFI24:
 304:C:/Workspace/FW_Inertia/branch_indesit/HAL/RN_RX200/EmbOS\interrupt_handlers.c **** 	if( TMR_GetClearSourceId(HAL_TMR_MTU3) == TCNT_CLEARING_TGRB ){
 1009                             		.loc 1 304 0
 1010 0002 66 31                   		mov	#3, r1
 1011 0004 05 00 00 00             		bsr	_TMR_GetClearSourceId
 1012                             	.LVL78:
 1013 0008 5B 11                   		movu.B	r1, r1
 1014 000a 61 11                   		cmp	#1, r1
 1015 000c 18                      		bne	.L133
 305:C:/Workspace/FW_Inertia/branch_indesit/HAL/RN_RX200/EmbOS\interrupt_handlers.c **** 		HWCNTR_ISR(HW_TMR_ID_3);
 1016                             		.loc 1 305 0
 1017 000d 66 31                   		mov	#3, r1
 1018 000f 05 00 00 00             		bsr	_HWCNTR_ISR
 1019                             	.LVL79:
 1020 0013 09                      		bra	.L132
 1021                             	.L133:
 306:C:/Workspace/FW_Inertia/branch_indesit/HAL/RN_RX200/EmbOS\interrupt_handlers.c **** 	}else{
 307:C:/Workspace/FW_Inertia/branch_indesit/HAL/RN_RX200/EmbOS\interrupt_handlers.c **** 		HWTMRCH_ISR(TMR_CH_ID_16);
 1022                             		.loc 1 307 0
 1023 0014 FB 16 FF                		mov	#-1, r1
 1024 0017 05 00 00 00             		bsr	_HWTMRCH_ISR
 1025                             	.LVL80:
 1026 001b 03                      		.balign 2,3,1
 1027                             	.L132:
 308:C:/Workspace/FW_Inertia/branch_indesit/HAL/RN_RX200/EmbOS\interrupt_handlers.c **** 	}
 309:C:/Workspace/FW_Inertia/branch_indesit/HAL/RN_RX200/EmbOS\interrupt_handlers.c **** }
 1028                             		.loc 1 309 0
 1029 001c 6F 1F                   		popm	r1-r15
 1030 001e 7F 95                   		rte
 1031                             	.LFE25:
 1033                             		.section	.text.INT_Excep_MTU3_TGIC3,"ax",@progbits
 1034                             		.global	_INT_Excep_MTU3_TGIC3
 1036                             	_INT_Excep_MTU3_TGIC3:
 1037                             	.LFB26:
 310:C:/Workspace/FW_Inertia/branch_indesit/HAL/RN_RX200/EmbOS\interrupt_handlers.c **** 
 311:C:/Workspace/FW_Inertia/branch_indesit/HAL/RN_RX200/EmbOS\interrupt_handlers.c **** 
 312:C:/Workspace/FW_Inertia/branch_indesit/HAL/RN_RX200/EmbOS\interrupt_handlers.c **** #ifdef TGRC3_IRQ_SUPPORT
 313:C:/Workspace/FW_Inertia/branch_indesit/HAL/RN_RX200/EmbOS\interrupt_handlers.c **** void  INT_Excep_MTU3_TGIC3(void){
 1038                             		.loc 1 313 0
 1039                             		; Note: Interrupt Handler
 1040 0000 6E 1F                   		pushm	r1-r15
 1041                             	.LCFI25:
 1042                             	.LVL81:
 314:C:/Workspace/FW_Inertia/branch_indesit/HAL/RN_RX200/EmbOS\interrupt_handlers.c **** 	int i=0;
 315:C:/Workspace/FW_Inertia/branch_indesit/HAL/RN_RX200/EmbOS\interrupt_handlers.c **** 	OS_EnterInterrupt();
 1043                             		.loc 1 315 0
 1044 0002 05 00 00 00             		bsr	_OS_DisableInterrupt
 1045                             	.LVL82:
 1046 0006 FD 6A 07                		mvfc	psw, r7
 1047 0009 79 07                   		bset #16, r7
 1048 000b FD 68 70                		mvtc	r7, psw
 1049 000e FB 72 00 00 00 00       		mov.L	#_OS_Global, r7
 1050 0014 CC 7E                   		mov.B	[r7], r14
 1051 0016 62 1E                   		add	#1, r14
 1052 0018 C3 7E                   		mov.B	r14, [r7]
 1053 001a CD 7E 01                		mov.B	1[r7], r14
 1054 001d 62 1E                   		add	#1, r14
 1055 001f C7 7E 01                		mov.B	r14, 1[r7]
 316:C:/Workspace/FW_Inertia/branch_indesit/HAL/RN_RX200/EmbOS\interrupt_handlers.c **** 
 317:C:/Workspace/FW_Inertia/branch_indesit/HAL/RN_RX200/EmbOS\interrupt_handlers.c **** 	i |= MTU3_TGIC3_ExceptionHandler(NULL, 0);
 1056                             		.loc 1 317 0
 1057 0022 66 01                   		mov.L	#0, r1
 1058 0024 EF 12                   		mov.L	r1, r2
 1059 0026 05 00 00 00             		bsr	_MTU3_TGIC3_ExceptionHandler
 1060                             	.LVL83:
 318:C:/Workspace/FW_Inertia/branch_indesit/HAL/RN_RX200/EmbOS\interrupt_handlers.c **** 	if(!i)
 1061                             		.loc 1 318 0
 1062 002a 61 01                   		cmp	#0, r1
 1063 002c 1C                      		bne	.L137
 1064 002d 03                      		.balign 2,3,3
 1065                             	.L138:
 1066 002e 2E 00                   		bra	.L138
 1067                             	.L137:
 319:C:/Workspace/FW_Inertia/branch_indesit/HAL/RN_RX200/EmbOS\interrupt_handlers.c **** 	{
 320:C:/Workspace/FW_Inertia/branch_indesit/HAL/RN_RX200/EmbOS\interrupt_handlers.c **** 		while(1);
 321:C:/Workspace/FW_Inertia/branch_indesit/HAL/RN_RX200/EmbOS\interrupt_handlers.c **** 	}
 322:C:/Workspace/FW_Inertia/branch_indesit/HAL/RN_RX200/EmbOS\interrupt_handlers.c **** 
 323:C:/Workspace/FW_Inertia/branch_indesit/HAL/RN_RX200/EmbOS\interrupt_handlers.c **** 	OS_LeaveInterrupt();
 1068                             		.loc 1 323 0
 1069 0030 CD 7E 01                		mov.B	1[r7], r14
 1070 0033 60 1E                   		sub	#1, r14
 1071 0035 C7 7E 01                		mov.B	r14, 1[r7]
 1072 0038 CC 7E                   		mov.B	[r7], r14
 1073 003a 5B E4                   		movu.B	r14, r4
 1074 003c 61 14                   		cmp	#1, r4
 1075 003e 21 0D                   		bne	.L139
 1076                             		.loc 1 323 0 is_stmt 0 discriminator 1
 1077 0040 A8 7F                   		mov.L	4[r7], r7
 1078 0042 61 07                   		cmp	#0, r7
 1079 0044 17                      		beq	.L139
 1080                             		.loc 1 323 0 discriminator 3
 1081 0045 05 00 00 00             		bsr	_OS_SwitchFromInt
 1082                             	.LVL84:
 1083 0049 2E 0D                   		bra	.L136
 1084                             	.LVL85:
 1085                             	.L139:
 1086                             		.loc 1 323 0 discriminator 2
 1087 004b 60 1E                   		sub	#1, r14
 1088 004d FB 72 00 00 00 00       		mov.L	#_OS_Global, r7
 1089 0053 C3 7E                   		mov.B	r14, [r7]
 1090                             	.LVL86:
 1091 0055 03                      		.balign 2,3,1
 1092                             	.L136:
 324:C:/Workspace/FW_Inertia/branch_indesit/HAL/RN_RX200/EmbOS\interrupt_handlers.c **** }
 1093                             		.loc 1 324 0 is_stmt 1
 1094 0056 6F 1F                   		popm	r1-r15
 1095 0058 7F 95                   		rte
 1096                             	.LFE26:
 1098                             		.section	.text.INT_Excep_MTU3_TCIV3,"ax",@progbits
 1099                             		.global	_INT_Excep_MTU3_TCIV3
 1101                             	_INT_Excep_MTU3_TCIV3:
 1102                             	.LFB27:
 325:C:/Workspace/FW_Inertia/branch_indesit/HAL/RN_RX200/EmbOS\interrupt_handlers.c **** #endif
 326:C:/Workspace/FW_Inertia/branch_indesit/HAL/RN_RX200/EmbOS\interrupt_handlers.c **** 
 327:C:/Workspace/FW_Inertia/branch_indesit/HAL/RN_RX200/EmbOS\interrupt_handlers.c **** 
 328:C:/Workspace/FW_Inertia/branch_indesit/HAL/RN_RX200/EmbOS\interrupt_handlers.c **** #ifdef TGRD3_IRQ_SUPPORT
 329:C:/Workspace/FW_Inertia/branch_indesit/HAL/RN_RX200/EmbOS\interrupt_handlers.c **** void  INT_Excep_MTU3_TGID3(void){
 330:C:/Workspace/FW_Inertia/branch_indesit/HAL/RN_RX200/EmbOS\interrupt_handlers.c **** 	int i=0;
 331:C:/Workspace/FW_Inertia/branch_indesit/HAL/RN_RX200/EmbOS\interrupt_handlers.c **** 	OS_EnterInterrupt();
 332:C:/Workspace/FW_Inertia/branch_indesit/HAL/RN_RX200/EmbOS\interrupt_handlers.c **** 
 333:C:/Workspace/FW_Inertia/branch_indesit/HAL/RN_RX200/EmbOS\interrupt_handlers.c **** 	i |= MTU3_TGID3_ExceptionHandler(NULL, 0);
 334:C:/Workspace/FW_Inertia/branch_indesit/HAL/RN_RX200/EmbOS\interrupt_handlers.c **** 	if(!i)
 335:C:/Workspace/FW_Inertia/branch_indesit/HAL/RN_RX200/EmbOS\interrupt_handlers.c **** 	{
 336:C:/Workspace/FW_Inertia/branch_indesit/HAL/RN_RX200/EmbOS\interrupt_handlers.c **** 		while(1);
 337:C:/Workspace/FW_Inertia/branch_indesit/HAL/RN_RX200/EmbOS\interrupt_handlers.c **** 	}
 338:C:/Workspace/FW_Inertia/branch_indesit/HAL/RN_RX200/EmbOS\interrupt_handlers.c **** 
 339:C:/Workspace/FW_Inertia/branch_indesit/HAL/RN_RX200/EmbOS\interrupt_handlers.c **** 	OS_LeaveInterrupt();
 340:C:/Workspace/FW_Inertia/branch_indesit/HAL/RN_RX200/EmbOS\interrupt_handlers.c **** }
 341:C:/Workspace/FW_Inertia/branch_indesit/HAL/RN_RX200/EmbOS\interrupt_handlers.c **** #endif
 342:C:/Workspace/FW_Inertia/branch_indesit/HAL/RN_RX200/EmbOS\interrupt_handlers.c **** 
 343:C:/Workspace/FW_Inertia/branch_indesit/HAL/RN_RX200/EmbOS\interrupt_handlers.c **** 
 344:C:/Workspace/FW_Inertia/branch_indesit/HAL/RN_RX200/EmbOS\interrupt_handlers.c **** #ifdef TCIV3_IRQ_SUPPORT
 345:C:/Workspace/FW_Inertia/branch_indesit/HAL/RN_RX200/EmbOS\interrupt_handlers.c **** void INT_Excep_MTU3_TCIV3(void){
 1103                             		.loc 1 345 0
 1104                             		; Note: Interrupt Handler
 1105 0000 6E 1F                   		pushm	r1-r15
 1106                             	.LCFI26:
 1107                             	.LVL87:
 346:C:/Workspace/FW_Inertia/branch_indesit/HAL/RN_RX200/EmbOS\interrupt_handlers.c **** 	int i=0;
 347:C:/Workspace/FW_Inertia/branch_indesit/HAL/RN_RX200/EmbOS\interrupt_handlers.c **** 	OS_EnterInterrupt();
 1108                             		.loc 1 347 0
 1109 0002 05 00 00 00             		bsr	_OS_DisableInterrupt
 1110                             	.LVL88:
 1111 0006 FD 6A 07                		mvfc	psw, r7
 1112 0009 79 07                   		bset #16, r7
 1113 000b FD 68 70                		mvtc	r7, psw
 1114 000e FB 72 00 00 00 00       		mov.L	#_OS_Global, r7
 1115 0014 CC 7E                   		mov.B	[r7], r14
 1116 0016 62 1E                   		add	#1, r14
 1117 0018 C3 7E                   		mov.B	r14, [r7]
 1118 001a CD 7E 01                		mov.B	1[r7], r14
 1119 001d 62 1E                   		add	#1, r14
 1120 001f C7 7E 01                		mov.B	r14, 1[r7]
 348:C:/Workspace/FW_Inertia/branch_indesit/HAL/RN_RX200/EmbOS\interrupt_handlers.c **** 
 349:C:/Workspace/FW_Inertia/branch_indesit/HAL/RN_RX200/EmbOS\interrupt_handlers.c **** 	i |= CNT3_OVF_ExceptionHandler();
 1121                             		.loc 1 349 0
 1122 0022 05 00 00 00             		bsr	_CNT3_OVF_ExceptionHandler
 1123                             	.LVL89:
 350:C:/Workspace/FW_Inertia/branch_indesit/HAL/RN_RX200/EmbOS\interrupt_handlers.c **** 	if(!i)
 1124                             		.loc 1 350 0
 1125 0026 61 01                   		cmp	#0, r1
 1126 0028 1C                      		bne	.L146
 1127 0029 03                      		.balign 2,3,3
 1128                             	.L147:
 1129 002a 2E 00                   		bra	.L147
 1130                             	.L146:
 351:C:/Workspace/FW_Inertia/branch_indesit/HAL/RN_RX200/EmbOS\interrupt_handlers.c **** 	{
 352:C:/Workspace/FW_Inertia/branch_indesit/HAL/RN_RX200/EmbOS\interrupt_handlers.c **** 		while(1);
 353:C:/Workspace/FW_Inertia/branch_indesit/HAL/RN_RX200/EmbOS\interrupt_handlers.c **** 	}
 354:C:/Workspace/FW_Inertia/branch_indesit/HAL/RN_RX200/EmbOS\interrupt_handlers.c **** 
 355:C:/Workspace/FW_Inertia/branch_indesit/HAL/RN_RX200/EmbOS\interrupt_handlers.c **** 	OS_LeaveInterrupt();
 1131                             		.loc 1 355 0
 1132 002c CD 7E 01                		mov.B	1[r7], r14
 1133 002f 60 1E                   		sub	#1, r14
 1134 0031 C7 7E 01                		mov.B	r14, 1[r7]
 1135 0034 CC 7E                   		mov.B	[r7], r14
 1136 0036 5B E4                   		movu.B	r14, r4
 1137 0038 61 14                   		cmp	#1, r4
 1138 003a 21 0D                   		bne	.L148
 1139                             		.loc 1 355 0 is_stmt 0 discriminator 1
 1140 003c A8 7F                   		mov.L	4[r7], r7
 1141 003e 61 07                   		cmp	#0, r7
 1142 0040 17                      		beq	.L148
 1143                             		.loc 1 355 0 discriminator 3
 1144 0041 05 00 00 00             		bsr	_OS_SwitchFromInt
 1145                             	.LVL90:
 1146 0045 2E 0D                   		bra	.L145
 1147                             	.LVL91:
 1148                             	.L148:
 1149                             		.loc 1 355 0 discriminator 2
 1150 0047 60 1E                   		sub	#1, r14
 1151 0049 FB 72 00 00 00 00       		mov.L	#_OS_Global, r7
 1152 004f C3 7E                   		mov.B	r14, [r7]
 1153                             	.LVL92:
 1154 0051 03                      		.balign 2,3,1
 1155                             	.L145:
 356:C:/Workspace/FW_Inertia/branch_indesit/HAL/RN_RX200/EmbOS\interrupt_handlers.c **** }
 1156                             		.loc 1 356 0 is_stmt 1
 1157 0052 6F 1F                   		popm	r1-r15
 1158 0054 7F 95                   		rte
 1159                             	.LFE27:
 1161                             		.section	.text.INT_Excep_MTU4_TGIA4,"ax",@progbits
 1162                             		.global	_INT_Excep_MTU4_TGIA4
 1164                             	_INT_Excep_MTU4_TGIA4:
 1165                             	.LFB28:
 357:C:/Workspace/FW_Inertia/branch_indesit/HAL/RN_RX200/EmbOS\interrupt_handlers.c **** #endif /* TCIV3_IRQ_SUPPORT */
 358:C:/Workspace/FW_Inertia/branch_indesit/HAL/RN_RX200/EmbOS\interrupt_handlers.c **** 
 359:C:/Workspace/FW_Inertia/branch_indesit/HAL/RN_RX200/EmbOS\interrupt_handlers.c **** #ifdef TGRA4_IRQ_SUPPORT
 360:C:/Workspace/FW_Inertia/branch_indesit/HAL/RN_RX200/EmbOS\interrupt_handlers.c **** void  INT_Excep_MTU4_TGIA4(void){
 1166                             		.loc 1 360 0
 1167                             		; Note: Interrupt Handler
 1168 0000 6E 1F                   		pushm	r1-r15
 1169                             	.LCFI27:
 1170                             	.LVL93:
 361:C:/Workspace/FW_Inertia/branch_indesit/HAL/RN_RX200/EmbOS\interrupt_handlers.c **** 	int i=0;
 362:C:/Workspace/FW_Inertia/branch_indesit/HAL/RN_RX200/EmbOS\interrupt_handlers.c **** 	OS_EnterInterrupt();
 1171                             		.loc 1 362 0
 1172 0002 05 00 00 00             		bsr	_OS_DisableInterrupt
 1173                             	.LVL94:
 1174 0006 FD 6A 07                		mvfc	psw, r7
 1175 0009 79 07                   		bset #16, r7
 1176 000b FD 68 70                		mvtc	r7, psw
 1177 000e FB 72 00 00 00 00       		mov.L	#_OS_Global, r7
 1178 0014 CC 7E                   		mov.B	[r7], r14
 1179 0016 62 1E                   		add	#1, r14
 1180 0018 C3 7E                   		mov.B	r14, [r7]
 1181 001a CD 7E 01                		mov.B	1[r7], r14
 1182 001d 62 1E                   		add	#1, r14
 1183 001f C7 7E 01                		mov.B	r14, 1[r7]
 363:C:/Workspace/FW_Inertia/branch_indesit/HAL/RN_RX200/EmbOS\interrupt_handlers.c **** 
 364:C:/Workspace/FW_Inertia/branch_indesit/HAL/RN_RX200/EmbOS\interrupt_handlers.c **** 	i |= MTU4_TGIA4_ExceptionHandler(NULL, 0);
 1184                             		.loc 1 364 0
 1185 0022 66 01                   		mov.L	#0, r1
 1186 0024 EF 12                   		mov.L	r1, r2
 1187 0026 05 00 00 00             		bsr	_MTU4_TGIA4_ExceptionHandler
 1188                             	.LVL95:
 365:C:/Workspace/FW_Inertia/branch_indesit/HAL/RN_RX200/EmbOS\interrupt_handlers.c **** 	if(!i)
 1189                             		.loc 1 365 0
 1190 002a 61 01                   		cmp	#0, r1
 1191 002c 1C                      		bne	.L155
 1192 002d 03                      		.balign 2,3,3
 1193                             	.L156:
 1194 002e 2E 00                   		bra	.L156
 1195                             	.L155:
 366:C:/Workspace/FW_Inertia/branch_indesit/HAL/RN_RX200/EmbOS\interrupt_handlers.c **** 	{
 367:C:/Workspace/FW_Inertia/branch_indesit/HAL/RN_RX200/EmbOS\interrupt_handlers.c **** 		while(1);
 368:C:/Workspace/FW_Inertia/branch_indesit/HAL/RN_RX200/EmbOS\interrupt_handlers.c **** 	}
 369:C:/Workspace/FW_Inertia/branch_indesit/HAL/RN_RX200/EmbOS\interrupt_handlers.c **** 
 370:C:/Workspace/FW_Inertia/branch_indesit/HAL/RN_RX200/EmbOS\interrupt_handlers.c **** 	OS_LeaveInterrupt();
 1196                             		.loc 1 370 0
 1197 0030 CD 7E 01                		mov.B	1[r7], r14
 1198 0033 60 1E                   		sub	#1, r14
 1199 0035 C7 7E 01                		mov.B	r14, 1[r7]
 1200 0038 CC 7E                   		mov.B	[r7], r14
 1201 003a 5B E4                   		movu.B	r14, r4
 1202 003c 61 14                   		cmp	#1, r4
 1203 003e 21 0D                   		bne	.L157
 1204                             		.loc 1 370 0 is_stmt 0 discriminator 1
 1205 0040 A8 7F                   		mov.L	4[r7], r7
 1206 0042 61 07                   		cmp	#0, r7
 1207 0044 17                      		beq	.L157
 1208                             		.loc 1 370 0 discriminator 3
 1209 0045 05 00 00 00             		bsr	_OS_SwitchFromInt
 1210                             	.LVL96:
 1211 0049 2E 0D                   		bra	.L154
 1212                             	.LVL97:
 1213                             	.L157:
 1214                             		.loc 1 370 0 discriminator 2
 1215 004b 60 1E                   		sub	#1, r14
 1216 004d FB 72 00 00 00 00       		mov.L	#_OS_Global, r7
 1217 0053 C3 7E                   		mov.B	r14, [r7]
 1218                             	.LVL98:
 1219 0055 03                      		.balign 2,3,1
 1220                             	.L154:
 371:C:/Workspace/FW_Inertia/branch_indesit/HAL/RN_RX200/EmbOS\interrupt_handlers.c **** }
 1221                             		.loc 1 371 0 is_stmt 1
 1222 0056 6F 1F                   		popm	r1-r15
 1223 0058 7F 95                   		rte
 1224                             	.LFE28:
 1226                             		.section	.text.INT_Excep_MTU4_TGIC4,"ax",@progbits
 1227                             		.global	_INT_Excep_MTU4_TGIC4
 1229                             	_INT_Excep_MTU4_TGIC4:
 1230                             	.LFB29:
 372:C:/Workspace/FW_Inertia/branch_indesit/HAL/RN_RX200/EmbOS\interrupt_handlers.c **** #endif
 373:C:/Workspace/FW_Inertia/branch_indesit/HAL/RN_RX200/EmbOS\interrupt_handlers.c **** 
 374:C:/Workspace/FW_Inertia/branch_indesit/HAL/RN_RX200/EmbOS\interrupt_handlers.c **** 
 375:C:/Workspace/FW_Inertia/branch_indesit/HAL/RN_RX200/EmbOS\interrupt_handlers.c **** #ifdef TGRB4_IRQ_SUPPORT
 376:C:/Workspace/FW_Inertia/branch_indesit/HAL/RN_RX200/EmbOS\interrupt_handlers.c **** void  INT_Excep_MTU4_TGIB4(void){
 377:C:/Workspace/FW_Inertia/branch_indesit/HAL/RN_RX200/EmbOS\interrupt_handlers.c **** 	int i=0;
 378:C:/Workspace/FW_Inertia/branch_indesit/HAL/RN_RX200/EmbOS\interrupt_handlers.c **** 	OS_EnterInterrupt();
 379:C:/Workspace/FW_Inertia/branch_indesit/HAL/RN_RX200/EmbOS\interrupt_handlers.c **** 
 380:C:/Workspace/FW_Inertia/branch_indesit/HAL/RN_RX200/EmbOS\interrupt_handlers.c **** 	i |= MTU4_TGIB4_ExceptionHandler(NULL, 0);
 381:C:/Workspace/FW_Inertia/branch_indesit/HAL/RN_RX200/EmbOS\interrupt_handlers.c **** 	if(!i)
 382:C:/Workspace/FW_Inertia/branch_indesit/HAL/RN_RX200/EmbOS\interrupt_handlers.c **** 	{
 383:C:/Workspace/FW_Inertia/branch_indesit/HAL/RN_RX200/EmbOS\interrupt_handlers.c **** 		while(1);
 384:C:/Workspace/FW_Inertia/branch_indesit/HAL/RN_RX200/EmbOS\interrupt_handlers.c **** 	}
 385:C:/Workspace/FW_Inertia/branch_indesit/HAL/RN_RX200/EmbOS\interrupt_handlers.c **** 
 386:C:/Workspace/FW_Inertia/branch_indesit/HAL/RN_RX200/EmbOS\interrupt_handlers.c **** 	OS_LeaveInterrupt();
 387:C:/Workspace/FW_Inertia/branch_indesit/HAL/RN_RX200/EmbOS\interrupt_handlers.c **** }
 388:C:/Workspace/FW_Inertia/branch_indesit/HAL/RN_RX200/EmbOS\interrupt_handlers.c **** #endif
 389:C:/Workspace/FW_Inertia/branch_indesit/HAL/RN_RX200/EmbOS\interrupt_handlers.c **** 
 390:C:/Workspace/FW_Inertia/branch_indesit/HAL/RN_RX200/EmbOS\interrupt_handlers.c **** 
 391:C:/Workspace/FW_Inertia/branch_indesit/HAL/RN_RX200/EmbOS\interrupt_handlers.c **** 
 392:C:/Workspace/FW_Inertia/branch_indesit/HAL/RN_RX200/EmbOS\interrupt_handlers.c **** #ifdef TGRC4_IRQ_SUPPORT
 393:C:/Workspace/FW_Inertia/branch_indesit/HAL/RN_RX200/EmbOS\interrupt_handlers.c **** void  INT_Excep_MTU4_TGIC4(void){
 1231                             		.loc 1 393 0
 1232                             		; Note: Interrupt Handler
 1233 0000 6E 1F                   		pushm	r1-r15
 1234                             	.LCFI28:
 1235                             	.LVL99:
 394:C:/Workspace/FW_Inertia/branch_indesit/HAL/RN_RX200/EmbOS\interrupt_handlers.c **** 	int i=0;
 395:C:/Workspace/FW_Inertia/branch_indesit/HAL/RN_RX200/EmbOS\interrupt_handlers.c **** 	OS_EnterInterrupt();
 1236                             		.loc 1 395 0
 1237 0002 05 00 00 00             		bsr	_OS_DisableInterrupt
 1238                             	.LVL100:
 1239 0006 FD 6A 07                		mvfc	psw, r7
 1240 0009 79 07                   		bset #16, r7
 1241 000b FD 68 70                		mvtc	r7, psw
 1242 000e FB 72 00 00 00 00       		mov.L	#_OS_Global, r7
 1243 0014 CC 7E                   		mov.B	[r7], r14
 1244 0016 62 1E                   		add	#1, r14
 1245 0018 C3 7E                   		mov.B	r14, [r7]
 1246 001a CD 7E 01                		mov.B	1[r7], r14
 1247 001d 62 1E                   		add	#1, r14
 1248 001f C7 7E 01                		mov.B	r14, 1[r7]
 396:C:/Workspace/FW_Inertia/branch_indesit/HAL/RN_RX200/EmbOS\interrupt_handlers.c **** 
 397:C:/Workspace/FW_Inertia/branch_indesit/HAL/RN_RX200/EmbOS\interrupt_handlers.c **** 	i |= MTU4_TGIC4_ExceptionHandler(NULL, 0);
 1249                             		.loc 1 397 0
 1250 0022 66 01                   		mov.L	#0, r1
 1251 0024 EF 12                   		mov.L	r1, r2
 1252 0026 05 00 00 00             		bsr	_MTU4_TGIC4_ExceptionHandler
 1253                             	.LVL101:
 398:C:/Workspace/FW_Inertia/branch_indesit/HAL/RN_RX200/EmbOS\interrupt_handlers.c **** 	if(!i)
 1254                             		.loc 1 398 0
 1255 002a 61 01                   		cmp	#0, r1
 1256 002c 1C                      		bne	.L164
 1257 002d 03                      		.balign 2,3,3
 1258                             	.L165:
 1259 002e 2E 00                   		bra	.L165
 1260                             	.L164:
 399:C:/Workspace/FW_Inertia/branch_indesit/HAL/RN_RX200/EmbOS\interrupt_handlers.c **** 	{
 400:C:/Workspace/FW_Inertia/branch_indesit/HAL/RN_RX200/EmbOS\interrupt_handlers.c **** 		while(1);
 401:C:/Workspace/FW_Inertia/branch_indesit/HAL/RN_RX200/EmbOS\interrupt_handlers.c **** 	}
 402:C:/Workspace/FW_Inertia/branch_indesit/HAL/RN_RX200/EmbOS\interrupt_handlers.c **** 	OS_LeaveInterrupt();
 1261                             		.loc 1 402 0
 1262 0030 CD 7E 01                		mov.B	1[r7], r14
 1263 0033 60 1E                   		sub	#1, r14
 1264 0035 C7 7E 01                		mov.B	r14, 1[r7]
 1265 0038 CC 7E                   		mov.B	[r7], r14
 1266 003a 5B E4                   		movu.B	r14, r4
 1267 003c 61 14                   		cmp	#1, r4
 1268 003e 21 0D                   		bne	.L166
 1269                             		.loc 1 402 0 is_stmt 0 discriminator 1
 1270 0040 A8 7F                   		mov.L	4[r7], r7
 1271 0042 61 07                   		cmp	#0, r7
 1272 0044 17                      		beq	.L166
 1273                             		.loc 1 402 0 discriminator 3
 1274 0045 05 00 00 00             		bsr	_OS_SwitchFromInt
 1275                             	.LVL102:
 1276 0049 2E 0D                   		bra	.L163
 1277                             	.LVL103:
 1278                             	.L166:
 1279                             		.loc 1 402 0 discriminator 2
 1280 004b 60 1E                   		sub	#1, r14
 1281 004d FB 72 00 00 00 00       		mov.L	#_OS_Global, r7
 1282 0053 C3 7E                   		mov.B	r14, [r7]
 1283                             	.LVL104:
 1284 0055 03                      		.balign 2,3,1
 1285                             	.L163:
 403:C:/Workspace/FW_Inertia/branch_indesit/HAL/RN_RX200/EmbOS\interrupt_handlers.c **** }
 1286                             		.loc 1 403 0 is_stmt 1
 1287 0056 6F 1F                   		popm	r1-r15
 1288 0058 7F 95                   		rte
 1289                             	.LFE29:
 1291                             		.section	.text.INT_Excep_MTU4_TGID4,"ax",@progbits
 1292                             		.global	_INT_Excep_MTU4_TGID4
 1294                             	_INT_Excep_MTU4_TGID4:
 1295                             	.LFB30:
 404:C:/Workspace/FW_Inertia/branch_indesit/HAL/RN_RX200/EmbOS\interrupt_handlers.c **** #endif
 405:C:/Workspace/FW_Inertia/branch_indesit/HAL/RN_RX200/EmbOS\interrupt_handlers.c **** 
 406:C:/Workspace/FW_Inertia/branch_indesit/HAL/RN_RX200/EmbOS\interrupt_handlers.c **** 
 407:C:/Workspace/FW_Inertia/branch_indesit/HAL/RN_RX200/EmbOS\interrupt_handlers.c **** void INT_Excep_MTU4_TGID4(void){
 1296                             		.loc 1 407 0
 1297                             		; Note: Interrupt Handler
 1298 0000 6E 1F                   		pushm	r1-r15
 1299                             	.LCFI29:
 408:C:/Workspace/FW_Inertia/branch_indesit/HAL/RN_RX200/EmbOS\interrupt_handlers.c **** 	if( TMR_GetClearSourceId(HAL_TMR_MTU4) == TCNT_CLEARING_TGRD ){
 1300                             		.loc 1 408 0
 1301 0002 66 41                   		mov	#4, r1
 1302 0004 05 00 00 00             		bsr	_TMR_GetClearSourceId
 1303                             	.LVL105:
 1304 0008 5B 11                   		movu.B	r1, r1
 1305 000a 61 31                   		cmp	#3, r1
 1306 000c 18                      		bne	.L173
 409:C:/Workspace/FW_Inertia/branch_indesit/HAL/RN_RX200/EmbOS\interrupt_handlers.c **** 		HWCNTR_ISR(HW_TMR_ID_4);
 1307                             		.loc 1 409 0
 1308 000d 66 41                   		mov	#4, r1
 1309 000f 05 00 00 00             		bsr	_HWCNTR_ISR
 1310                             	.LVL106:
 1311 0013 09                      		bra	.L172
 1312                             	.L173:
 410:C:/Workspace/FW_Inertia/branch_indesit/HAL/RN_RX200/EmbOS\interrupt_handlers.c **** 	}else{
 411:C:/Workspace/FW_Inertia/branch_indesit/HAL/RN_RX200/EmbOS\interrupt_handlers.c **** 		HWTMRCH_ISR(TMR_CH_ID_23);
 1313                             		.loc 1 411 0
 1314 0014 FB 16 FF                		mov	#-1, r1
 1315 0017 05 00 00 00             		bsr	_HWTMRCH_ISR
 1316                             	.LVL107:
 1317 001b 03                      		.balign 2,3,1
 1318                             	.L172:
 412:C:/Workspace/FW_Inertia/branch_indesit/HAL/RN_RX200/EmbOS\interrupt_handlers.c **** 	}
 413:C:/Workspace/FW_Inertia/branch_indesit/HAL/RN_RX200/EmbOS\interrupt_handlers.c **** }
 1319                             		.loc 1 413 0
 1320 001c 6F 1F                   		popm	r1-r15
 1321 001e 7F 95                   		rte
 1322                             	.LFE30:
 1324                             		.section	.text.INT_Excep_MTU4_TCIV4,"ax",@progbits
 1325                             		.global	_INT_Excep_MTU4_TCIV4
 1327                             	_INT_Excep_MTU4_TCIV4:
 1328                             	.LFB31:
 414:C:/Workspace/FW_Inertia/branch_indesit/HAL/RN_RX200/EmbOS\interrupt_handlers.c **** 
 415:C:/Workspace/FW_Inertia/branch_indesit/HAL/RN_RX200/EmbOS\interrupt_handlers.c **** #ifdef TCIV4_IRQ_SUPPORT
 416:C:/Workspace/FW_Inertia/branch_indesit/HAL/RN_RX200/EmbOS\interrupt_handlers.c **** void INT_Excep_MTU4_TCIV4(void){
 1329                             		.loc 1 416 0
 1330                             		; Note: Interrupt Handler
 1331 0000 6E 1F                   		pushm	r1-r15
 1332                             	.LCFI30:
 1333                             	.LVL108:
 417:C:/Workspace/FW_Inertia/branch_indesit/HAL/RN_RX200/EmbOS\interrupt_handlers.c **** 	int i=0;
 418:C:/Workspace/FW_Inertia/branch_indesit/HAL/RN_RX200/EmbOS\interrupt_handlers.c **** 	OS_EnterInterrupt();
 1334                             		.loc 1 418 0
 1335 0002 05 00 00 00             		bsr	_OS_DisableInterrupt
 1336                             	.LVL109:
 1337 0006 FD 6A 07                		mvfc	psw, r7
 1338 0009 79 07                   		bset #16, r7
 1339 000b FD 68 70                		mvtc	r7, psw
 1340 000e FB 72 00 00 00 00       		mov.L	#_OS_Global, r7
 1341 0014 CC 7E                   		mov.B	[r7], r14
 1342 0016 62 1E                   		add	#1, r14
 1343 0018 C3 7E                   		mov.B	r14, [r7]
 1344 001a CD 7E 01                		mov.B	1[r7], r14
 1345 001d 62 1E                   		add	#1, r14
 1346 001f C7 7E 01                		mov.B	r14, 1[r7]
 419:C:/Workspace/FW_Inertia/branch_indesit/HAL/RN_RX200/EmbOS\interrupt_handlers.c **** 
 420:C:/Workspace/FW_Inertia/branch_indesit/HAL/RN_RX200/EmbOS\interrupt_handlers.c **** 	i |= CNT4_OVF_ExceptionHandler();
 1347                             		.loc 1 420 0
 1348 0022 05 00 00 00             		bsr	_CNT4_OVF_ExceptionHandler
 1349                             	.LVL110:
 421:C:/Workspace/FW_Inertia/branch_indesit/HAL/RN_RX200/EmbOS\interrupt_handlers.c **** 	if(!i)
 1350                             		.loc 1 421 0
 1351 0026 61 01                   		cmp	#0, r1
 1352 0028 1C                      		bne	.L177
 1353 0029 03                      		.balign 2,3,3
 1354                             	.L178:
 1355 002a 2E 00                   		bra	.L178
 1356                             	.L177:
 422:C:/Workspace/FW_Inertia/branch_indesit/HAL/RN_RX200/EmbOS\interrupt_handlers.c **** 	{
 423:C:/Workspace/FW_Inertia/branch_indesit/HAL/RN_RX200/EmbOS\interrupt_handlers.c **** 		while(1);
 424:C:/Workspace/FW_Inertia/branch_indesit/HAL/RN_RX200/EmbOS\interrupt_handlers.c **** 	}
 425:C:/Workspace/FW_Inertia/branch_indesit/HAL/RN_RX200/EmbOS\interrupt_handlers.c **** 
 426:C:/Workspace/FW_Inertia/branch_indesit/HAL/RN_RX200/EmbOS\interrupt_handlers.c **** 	OS_LeaveInterrupt();
 1357                             		.loc 1 426 0
 1358 002c CD 7E 01                		mov.B	1[r7], r14
 1359 002f 60 1E                   		sub	#1, r14
 1360 0031 C7 7E 01                		mov.B	r14, 1[r7]
 1361 0034 CC 7E                   		mov.B	[r7], r14
 1362 0036 5B E4                   		movu.B	r14, r4
 1363 0038 61 14                   		cmp	#1, r4
 1364 003a 21 0D                   		bne	.L179
 1365                             		.loc 1 426 0 is_stmt 0 discriminator 1
 1366 003c A8 7F                   		mov.L	4[r7], r7
 1367 003e 61 07                   		cmp	#0, r7
 1368 0040 17                      		beq	.L179
 1369                             		.loc 1 426 0 discriminator 3
 1370 0041 05 00 00 00             		bsr	_OS_SwitchFromInt
 1371                             	.LVL111:
 1372 0045 2E 0D                   		bra	.L176
 1373                             	.LVL112:
 1374                             	.L179:
 1375                             		.loc 1 426 0 discriminator 2
 1376 0047 60 1E                   		sub	#1, r14
 1377 0049 FB 72 00 00 00 00       		mov.L	#_OS_Global, r7
 1378 004f C3 7E                   		mov.B	r14, [r7]
 1379                             	.LVL113:
 1380 0051 03                      		.balign 2,3,1
 1381                             	.L176:
 427:C:/Workspace/FW_Inertia/branch_indesit/HAL/RN_RX200/EmbOS\interrupt_handlers.c **** }
 1382                             		.loc 1 427 0 is_stmt 1
 1383 0052 6F 1F                   		popm	r1-r15
 1384 0054 7F 95                   		rte
 1385                             	.LFE31:
 1387                             		.section	.text.INT_Excep_MTU5_TGIU5,"ax",@progbits
 1388                             		.global	_INT_Excep_MTU5_TGIU5
 1390                             	_INT_Excep_MTU5_TGIU5:
 1391                             	.LFB32:
 428:C:/Workspace/FW_Inertia/branch_indesit/HAL/RN_RX200/EmbOS\interrupt_handlers.c **** #endif /* TCIV4_IRQ_SUPPORT */
 429:C:/Workspace/FW_Inertia/branch_indesit/HAL/RN_RX200/EmbOS\interrupt_handlers.c **** 
 430:C:/Workspace/FW_Inertia/branch_indesit/HAL/RN_RX200/EmbOS\interrupt_handlers.c **** void INT_Excep_MTU5_TGIU5(void){
 1392                             		.loc 1 430 0
 1393                             		; Note: Interrupt Handler
 1394 0000 6E 1F                   		pushm	r1-r15
 1395                             	.LCFI31:
 431:C:/Workspace/FW_Inertia/branch_indesit/HAL/RN_RX200/EmbOS\interrupt_handlers.c **** 	HWTMRCH_ISR(TMR_CH_ID_25);
 1396                             		.loc 1 431 0
 1397 0002 FB 16 FF                		mov	#-1, r1
 1398 0005 05 00 00 00             		bsr	_HWTMRCH_ISR
 1399                             	.LVL114:
 432:C:/Workspace/FW_Inertia/branch_indesit/HAL/RN_RX200/EmbOS\interrupt_handlers.c **** }
 1400                             		.loc 1 432 0
 1401 0009 6F 1F                   		popm	r1-r15
 1402 000b 7F 95                   		rte
 1403                             	.LFE32:
 1405                             		.section	.text.INT_Excep_MTU5_TGIV5,"ax",@progbits
 1406                             		.global	_INT_Excep_MTU5_TGIV5
 1408                             	_INT_Excep_MTU5_TGIV5:
 1409                             	.LFB33:
 433:C:/Workspace/FW_Inertia/branch_indesit/HAL/RN_RX200/EmbOS\interrupt_handlers.c **** 
 434:C:/Workspace/FW_Inertia/branch_indesit/HAL/RN_RX200/EmbOS\interrupt_handlers.c **** void INT_Excep_MTU5_TGIV5(void){
 1410                             		.loc 1 434 0
 1411                             		; Note: Interrupt Handler
 1412 0000 6E 1F                   		pushm	r1-r15
 1413                             	.LCFI32:
 435:C:/Workspace/FW_Inertia/branch_indesit/HAL/RN_RX200/EmbOS\interrupt_handlers.c **** 	HWTMRCH_ISR(TMR_CH_ID_26);
 1414                             		.loc 1 435 0
 1415 0002 FB 16 FF                		mov	#-1, r1
 1416 0005 05 00 00 00             		bsr	_HWTMRCH_ISR
 1417                             	.LVL115:
 436:C:/Workspace/FW_Inertia/branch_indesit/HAL/RN_RX200/EmbOS\interrupt_handlers.c **** }
 1418                             		.loc 1 436 0
 1419 0009 6F 1F                   		popm	r1-r15
 1420 000b 7F 95                   		rte
 1421                             	.LFE33:
 1423                             		.section	.text.INT_Excep_MTU5_TGIW5,"ax",@progbits
 1424                             		.global	_INT_Excep_MTU5_TGIW5
 1426                             	_INT_Excep_MTU5_TGIW5:
 1427                             	.LFB34:
 437:C:/Workspace/FW_Inertia/branch_indesit/HAL/RN_RX200/EmbOS\interrupt_handlers.c **** 
 438:C:/Workspace/FW_Inertia/branch_indesit/HAL/RN_RX200/EmbOS\interrupt_handlers.c **** void INT_Excep_MTU5_TGIW5(void){
 1428                             		.loc 1 438 0
 1429                             		; Note: Interrupt Handler
 1430 0000 6E 1F                   		pushm	r1-r15
 1431                             	.LCFI33:
 439:C:/Workspace/FW_Inertia/branch_indesit/HAL/RN_RX200/EmbOS\interrupt_handlers.c **** 	HWTMRCH_ISR(TMR_CH_ID_27);
 1432                             		.loc 1 439 0
 1433 0002 FB 16 FF                		mov	#-1, r1
 1434 0005 05 00 00 00             		bsr	_HWTMRCH_ISR
 1435                             	.LVL116:
 440:C:/Workspace/FW_Inertia/branch_indesit/HAL/RN_RX200/EmbOS\interrupt_handlers.c **** }
 1436                             		.loc 1 440 0
 1437 0009 6F 1F                   		popm	r1-r15
 1438 000b 7F 95                   		rte
 1439                             	.LFE34:
 1441                             		.section	.text.INT_Excep_SCI0_RXI0,"ax",@progbits
 1442                             		.global	_INT_Excep_SCI0_RXI0
 1444                             	_INT_Excep_SCI0_RXI0:
 1445                             	.LFB35:
 441:C:/Workspace/FW_Inertia/branch_indesit/HAL/RN_RX200/EmbOS\interrupt_handlers.c **** /*-----------------------------------------------------------*/
 442:C:/Workspace/FW_Inertia/branch_indesit/HAL/RN_RX200/EmbOS\interrupt_handlers.c **** 
 443:C:/Workspace/FW_Inertia/branch_indesit/HAL/RN_RX200/EmbOS\interrupt_handlers.c **** 
 444:C:/Workspace/FW_Inertia/branch_indesit/HAL/RN_RX200/EmbOS\interrupt_handlers.c **** /* SCI0_RXI0 vector 215*/
 445:C:/Workspace/FW_Inertia/branch_indesit/HAL/RN_RX200/EmbOS\interrupt_handlers.c **** #if defined(HAL_UART_SUPPORT)
 446:C:/Workspace/FW_Inertia/branch_indesit/HAL/RN_RX200/EmbOS\interrupt_handlers.c **** void INT_Excep_SCI0_RXI0(void)
 447:C:/Workspace/FW_Inertia/branch_indesit/HAL/RN_RX200/EmbOS\interrupt_handlers.c **** {
 1446                             		.loc 1 447 0
 1447                             		; Note: Interrupt Handler
 1448 0000 6E 1F                   		pushm	r1-r15
 1449                             	.LCFI34:
 448:C:/Workspace/FW_Inertia/branch_indesit/HAL/RN_RX200/EmbOS\interrupt_handlers.c **** 	OCUART_RxDataMngr();
 1450                             		.loc 1 448 0
 1451 0002 05 00 00 00             		bsr	_OCUART_RxDataMngr
 1452                             	.LVL117:
 449:C:/Workspace/FW_Inertia/branch_indesit/HAL/RN_RX200/EmbOS\interrupt_handlers.c **** }
 1453                             		.loc 1 449 0
 1454 0006 6F 1F                   		popm	r1-r15
 1455 0008 7F 95                   		rte
 1456                             	.LFE35:
 1458                             		.section	.text.INT_Excep_SCI1_RXI1,"ax",@progbits
 1459                             		.global	_INT_Excep_SCI1_RXI1
 1461                             	_INT_Excep_SCI1_RXI1:
 1462                             	.LFB36:
 450:C:/Workspace/FW_Inertia/branch_indesit/HAL/RN_RX200/EmbOS\interrupt_handlers.c **** #endif
 451:C:/Workspace/FW_Inertia/branch_indesit/HAL/RN_RX200/EmbOS\interrupt_handlers.c **** 
 452:C:/Workspace/FW_Inertia/branch_indesit/HAL/RN_RX200/EmbOS\interrupt_handlers.c **** /* SCI1_RXI1*/
 453:C:/Workspace/FW_Inertia/branch_indesit/HAL/RN_RX200/EmbOS\interrupt_handlers.c **** #if defined(HAL_UART_SUPPORT)
 454:C:/Workspace/FW_Inertia/branch_indesit/HAL/RN_RX200/EmbOS\interrupt_handlers.c **** void INT_Excep_SCI1_RXI1(void){ 
 1463                             		.loc 1 454 0
 1464                             		; Note: Interrupt Handler
 1465 0000 6E 1F                   		pushm	r1-r15
 1466                             	.LCFI35:
 455:C:/Workspace/FW_Inertia/branch_indesit/HAL/RN_RX200/EmbOS\interrupt_handlers.c **** 	OCUART_RxDataMngr();
 1467                             		.loc 1 455 0
 1468 0002 05 00 00 00             		bsr	_OCUART_RxDataMngr
 1469                             	.LVL118:
 456:C:/Workspace/FW_Inertia/branch_indesit/HAL/RN_RX200/EmbOS\interrupt_handlers.c **** }
 1470                             		.loc 1 456 0
 1471 0006 6F 1F                   		popm	r1-r15
 1472 0008 7F 95                   		rte
 1473                             	.LFE36:
 1475                             		.section	.text.INT_Excep_SCI5_RXI5,"ax",@progbits
 1476                             		.global	_INT_Excep_SCI5_RXI5
 1478                             	_INT_Excep_SCI5_RXI5:
 1479                             	.LFB37:
 457:C:/Workspace/FW_Inertia/branch_indesit/HAL/RN_RX200/EmbOS\interrupt_handlers.c **** #endif
 458:C:/Workspace/FW_Inertia/branch_indesit/HAL/RN_RX200/EmbOS\interrupt_handlers.c **** 
 459:C:/Workspace/FW_Inertia/branch_indesit/HAL/RN_RX200/EmbOS\interrupt_handlers.c **** #if defined(HAL_UART_SUPPORT)
 460:C:/Workspace/FW_Inertia/branch_indesit/HAL/RN_RX200/EmbOS\interrupt_handlers.c **** /* SCI5_RXI5  vector 223 */
 461:C:/Workspace/FW_Inertia/branch_indesit/HAL/RN_RX200/EmbOS\interrupt_handlers.c **** void INT_Excep_SCI5_RXI5(void){ 
 1480                             		.loc 1 461 0
 1481                             		; Note: Interrupt Handler
 1482 0000 6E 1F                   		pushm	r1-r15
 1483                             	.LCFI36:
 462:C:/Workspace/FW_Inertia/branch_indesit/HAL/RN_RX200/EmbOS\interrupt_handlers.c **** 	OCUART_RxDataMngr();
 1484                             		.loc 1 462 0
 1485 0002 05 00 00 00             		bsr	_OCUART_RxDataMngr
 1486                             	.LVL119:
 463:C:/Workspace/FW_Inertia/branch_indesit/HAL/RN_RX200/EmbOS\interrupt_handlers.c **** }
 1487                             		.loc 1 463 0
 1488 0006 6F 1F                   		popm	r1-r15
 1489 0008 7F 95                   		rte
 1490                             	.LFE37:
 1492                             		.section	.text.INT_Excep_SCI5_TEI5,"ax",@progbits
 1493                             		.global	_INT_Excep_SCI5_TEI5
 1495                             	_INT_Excep_SCI5_TEI5:
 1496                             	.LFB38:
 464:C:/Workspace/FW_Inertia/branch_indesit/HAL/RN_RX200/EmbOS\interrupt_handlers.c **** #endif
 465:C:/Workspace/FW_Inertia/branch_indesit/HAL/RN_RX200/EmbOS\interrupt_handlers.c **** 
 466:C:/Workspace/FW_Inertia/branch_indesit/HAL/RN_RX200/EmbOS\interrupt_handlers.c **** #if defined(HAL_UART_SUPPORT)
 467:C:/Workspace/FW_Inertia/branch_indesit/HAL/RN_RX200/EmbOS\interrupt_handlers.c **** /* SCI5_TEI5  vector 225 */
 468:C:/Workspace/FW_Inertia/branch_indesit/HAL/RN_RX200/EmbOS\interrupt_handlers.c **** void INT_Excep_SCI5_TEI5(void){
 1497                             		.loc 1 468 0
 1498                             		; Note: Interrupt Handler
 1499 0000 6E 1F                   		pushm	r1-r15
 1500                             	.LCFI37:
 469:C:/Workspace/FW_Inertia/branch_indesit/HAL/RN_RX200/EmbOS\interrupt_handlers.c **** 	OCUART_TxDataMngr();
 1501                             		.loc 1 469 0
 1502 0002 05 00 00 00             		bsr	_OCUART_TxDataMngr
 1503                             	.LVL120:
 470:C:/Workspace/FW_Inertia/branch_indesit/HAL/RN_RX200/EmbOS\interrupt_handlers.c **** }
 1504                             		.loc 1 470 0
 1505 0006 6F 1F                   		popm	r1-r15
 1506 0008 7F 95                   		rte
 1507                             	.LFE38:
 1509                             		.section	.text.INT_Excep_SCI12_RXI12,"ax",@progbits
 1510                             		.global	_INT_Excep_SCI12_RXI12
 1512                             	_INT_Excep_SCI12_RXI12:
 1513                             	.LFB39:
 471:C:/Workspace/FW_Inertia/branch_indesit/HAL/RN_RX200/EmbOS\interrupt_handlers.c **** #endif
 472:C:/Workspace/FW_Inertia/branch_indesit/HAL/RN_RX200/EmbOS\interrupt_handlers.c **** 
 473:C:/Workspace/FW_Inertia/branch_indesit/HAL/RN_RX200/EmbOS\interrupt_handlers.c **** #if defined(HAL_UART_SUPPORT)
 474:C:/Workspace/FW_Inertia/branch_indesit/HAL/RN_RX200/EmbOS\interrupt_handlers.c **** /* SCI12_RXI12 vector 239 */
 475:C:/Workspace/FW_Inertia/branch_indesit/HAL/RN_RX200/EmbOS\interrupt_handlers.c **** void INT_Excep_SCI12_RXI12(void){
 1514                             		.loc 1 475 0
 1515                             		; Note: Interrupt Handler
 1516 0000 6E 1F                   		pushm	r1-r15
 1517                             	.LCFI38:
 476:C:/Workspace/FW_Inertia/branch_indesit/HAL/RN_RX200/EmbOS\interrupt_handlers.c **** 	OCUART_RxDataMngr();
 1518                             		.loc 1 476 0
 1519 0002 05 00 00 00             		bsr	_OCUART_RxDataMngr
 1520                             	.LVL121:
 477:C:/Workspace/FW_Inertia/branch_indesit/HAL/RN_RX200/EmbOS\interrupt_handlers.c **** }
 1521                             		.loc 1 477 0
 1522 0006 6F 1F                   		popm	r1-r15
 1523 0008 7F 95                   		rte
 1524                             	.LFE39:
 1526                             		.section	.text.INT_Excep_SCI12_TEI12,"ax",@progbits
 1527                             		.global	_INT_Excep_SCI12_TEI12
 1529                             	_INT_Excep_SCI12_TEI12:
 1530                             	.LFB40:
 478:C:/Workspace/FW_Inertia/branch_indesit/HAL/RN_RX200/EmbOS\interrupt_handlers.c **** #endif
 479:C:/Workspace/FW_Inertia/branch_indesit/HAL/RN_RX200/EmbOS\interrupt_handlers.c **** 
 480:C:/Workspace/FW_Inertia/branch_indesit/HAL/RN_RX200/EmbOS\interrupt_handlers.c **** #if defined(HAL_UART_SUPPORT)
 481:C:/Workspace/FW_Inertia/branch_indesit/HAL/RN_RX200/EmbOS\interrupt_handlers.c **** /* SCI12_TEI12  vector 241 */
 482:C:/Workspace/FW_Inertia/branch_indesit/HAL/RN_RX200/EmbOS\interrupt_handlers.c **** void INT_Excep_SCI12_TEI12(void){
 1531                             		.loc 1 482 0
 1532                             		; Note: Interrupt Handler
 1533 0000 6E 1F                   		pushm	r1-r15
 1534                             	.LCFI39:
 483:C:/Workspace/FW_Inertia/branch_indesit/HAL/RN_RX200/EmbOS\interrupt_handlers.c **** 	OCUART_TxDataMngr();
 1535                             		.loc 1 483 0
 1536 0002 05 00 00 00             		bsr	_OCUART_TxDataMngr
 1537                             	.LVL122:
 484:C:/Workspace/FW_Inertia/branch_indesit/HAL/RN_RX200/EmbOS\interrupt_handlers.c **** }
 1538                             		.loc 1 484 0
 1539 0006 6F 1F                   		popm	r1-r15
 1540 0008 7F 95                   		rte
 1541                             	.LFE40:
 1543                             		.section	.text.IIC0_RX_ISR,"ax",@progbits
 1544                             		.global	_IIC0_RX_ISR
 1546                             	_IIC0_RX_ISR:
 1547                             	.LFB41:
 485:C:/Workspace/FW_Inertia/branch_indesit/HAL/RN_RX200/EmbOS\interrupt_handlers.c **** #endif
 486:C:/Workspace/FW_Inertia/branch_indesit/HAL/RN_RX200/EmbOS\interrupt_handlers.c **** 
 487:C:/Workspace/FW_Inertia/branch_indesit/HAL/RN_RX200/EmbOS\interrupt_handlers.c **** 
 488:C:/Workspace/FW_Inertia/branch_indesit/HAL/RN_RX200/EmbOS\interrupt_handlers.c **** 
 489:C:/Workspace/FW_Inertia/branch_indesit/HAL/RN_RX200/EmbOS\interrupt_handlers.c **** #if defined(I2C00_ISR_ENABLE)
 490:C:/Workspace/FW_Inertia/branch_indesit/HAL/RN_RX200/EmbOS\interrupt_handlers.c **** /* RIIC0_RXI0*/
 491:C:/Workspace/FW_Inertia/branch_indesit/HAL/RN_RX200/EmbOS\interrupt_handlers.c **** void IIC0_RX_ISR(void){
 1548                             		.loc 1 491 0
 1549                             		; Note: Interrupt Handler
 1550 0000 6E 1F                   		pushm	r1-r15
 1551                             	.LCFI40:
 492:C:/Workspace/FW_Inertia/branch_indesit/HAL/RN_RX200/EmbOS\interrupt_handlers.c **** 	OS_EnterInterrupt();
 1552                             		.loc 1 492 0
 1553 0002 05 00 00 00             		bsr	_OS_DisableInterrupt
 1554                             	.LVL123:
 1555 0006 FD 6A 07                		mvfc	psw, r7
 1556 0009 79 07                   		bset #16, r7
 1557 000b FD 68 70                		mvtc	r7, psw
 1558 000e FB 72 00 00 00 00       		mov.L	#_OS_Global, r7
 1559 0014 CC 7E                   		mov.B	[r7], r14
 1560 0016 62 1E                   		add	#1, r14
 1561 0018 C3 7E                   		mov.B	r14, [r7]
 1562 001a CD 7E 01                		mov.B	1[r7], r14
 1563 001d 62 1E                   		add	#1, r14
 1564 001f C7 7E 01                		mov.B	r14, 1[r7]
 493:C:/Workspace/FW_Inertia/branch_indesit/HAL/RN_RX200/EmbOS\interrupt_handlers.c **** 	OCI2C_ISR();
 1565                             		.loc 1 493 0
 1566 0022 05 00 00 00             		bsr	_OCI2C_ISR
 1567                             	.LVL124:
 494:C:/Workspace/FW_Inertia/branch_indesit/HAL/RN_RX200/EmbOS\interrupt_handlers.c **** 	OS_LeaveInterrupt();
 1568                             		.loc 1 494 0
 1569 0026 CD 7E 01                		mov.B	1[r7], r14
 1570 0029 60 1E                   		sub	#1, r14
 1571 002b C7 7E 01                		mov.B	r14, 1[r7]
 1572 002e CC 7E                   		mov.B	[r7], r14
 1573 0030 5B E3                   		movu.B	r14, r3
 1574 0032 EF 74                   		mov.L	r7, r4
 1575 0034 61 13                   		cmp	#1, r3
 1576 0036 21 0C                   		bne	.L204
 1577                             		.loc 1 494 0 is_stmt 0 discriminator 1
 1578 0038 A8 7F                   		mov.L	4[r7], r7
 1579 003a 61 07                   		cmp	#0, r7
 1580 003c 16                      		beq	.L204
 1581                             		.loc 1 494 0 discriminator 3
 1582 003d 05 00 00 00             		bsr	_OS_SwitchFromInt
 1583                             	.LVL125:
 1584 0041 0D                      		bra	.L203
 1585                             	.L204:
 1586                             		.loc 1 494 0 discriminator 2
 1587 0042 60 1E                   		sub	#1, r14
 1588 0044 C3 4E                   		mov.B	r14, [r4]
 1589                             		.balign 2,3,1
 1590                             	.L203:
 495:C:/Workspace/FW_Inertia/branch_indesit/HAL/RN_RX200/EmbOS\interrupt_handlers.c **** }
 1591                             		.loc 1 495 0 is_stmt 1
 1592 0046 6F 1F                   		popm	r1-r15
 1593 0048 7F 95                   		rte
 1594                             	.LFE41:
 1596                             		.section	.text.IIC0_TX_ISR,"ax",@progbits
 1597                             		.global	_IIC0_TX_ISR
 1599                             	_IIC0_TX_ISR:
 1600                             	.LFB42:
 496:C:/Workspace/FW_Inertia/branch_indesit/HAL/RN_RX200/EmbOS\interrupt_handlers.c **** 
 497:C:/Workspace/FW_Inertia/branch_indesit/HAL/RN_RX200/EmbOS\interrupt_handlers.c **** void IIC0_TX_ISR(void){
 1601                             		.loc 1 497 0
 1602                             		; Note: Interrupt Handler
 1603 0000 6E 1F                   		pushm	r1-r15
 1604                             	.LCFI41:
 498:C:/Workspace/FW_Inertia/branch_indesit/HAL/RN_RX200/EmbOS\interrupt_handlers.c **** 	OS_EnterInterrupt();
 1605                             		.loc 1 498 0
 1606 0002 05 00 00 00             		bsr	_OS_DisableInterrupt
 1607                             	.LVL126:
 1608 0006 FD 6A 07                		mvfc	psw, r7
 1609 0009 79 07                   		bset #16, r7
 1610 000b FD 68 70                		mvtc	r7, psw
 1611 000e FB 72 00 00 00 00       		mov.L	#_OS_Global, r7
 1612 0014 CC 7E                   		mov.B	[r7], r14
 1613 0016 62 1E                   		add	#1, r14
 1614 0018 C3 7E                   		mov.B	r14, [r7]
 1615 001a CD 7E 01                		mov.B	1[r7], r14
 1616 001d 62 1E                   		add	#1, r14
 1617 001f C7 7E 01                		mov.B	r14, 1[r7]
 499:C:/Workspace/FW_Inertia/branch_indesit/HAL/RN_RX200/EmbOS\interrupt_handlers.c **** 	OCI2C_ISR();
 1618                             		.loc 1 499 0
 1619 0022 05 00 00 00             		bsr	_OCI2C_ISR
 1620                             	.LVL127:
 500:C:/Workspace/FW_Inertia/branch_indesit/HAL/RN_RX200/EmbOS\interrupt_handlers.c **** 	OS_LeaveInterrupt();
 1621                             		.loc 1 500 0
 1622 0026 CD 7E 01                		mov.B	1[r7], r14
 1623 0029 60 1E                   		sub	#1, r14
 1624 002b C7 7E 01                		mov.B	r14, 1[r7]
 1625 002e CC 7E                   		mov.B	[r7], r14
 1626 0030 5B E3                   		movu.B	r14, r3
 1627 0032 EF 74                   		mov.L	r7, r4
 1628 0034 61 13                   		cmp	#1, r3
 1629 0036 21 0C                   		bne	.L211
 1630                             		.loc 1 500 0 is_stmt 0 discriminator 1
 1631 0038 A8 7F                   		mov.L	4[r7], r7
 1632 003a 61 07                   		cmp	#0, r7
 1633 003c 16                      		beq	.L211
 1634                             		.loc 1 500 0 discriminator 3
 1635 003d 05 00 00 00             		bsr	_OS_SwitchFromInt
 1636                             	.LVL128:
 1637 0041 0D                      		bra	.L210
 1638                             	.L211:
 1639                             		.loc 1 500 0 discriminator 2
 1640 0042 60 1E                   		sub	#1, r14
 1641 0044 C3 4E                   		mov.B	r14, [r4]
 1642                             		.balign 2,3,1
 1643                             	.L210:
 501:C:/Workspace/FW_Inertia/branch_indesit/HAL/RN_RX200/EmbOS\interrupt_handlers.c **** }
 1644                             		.loc 1 501 0 is_stmt 1
 1645 0046 6F 1F                   		popm	r1-r15
 1646 0048 7F 95                   		rte
 1647                             	.LFE42:
 1649                             		.section	.text.IIC0_TX_END_ISR,"ax",@progbits
 1650                             		.global	_IIC0_TX_END_ISR
 1652                             	_IIC0_TX_END_ISR:
 1653                             	.LFB43:
 502:C:/Workspace/FW_Inertia/branch_indesit/HAL/RN_RX200/EmbOS\interrupt_handlers.c **** 
 503:C:/Workspace/FW_Inertia/branch_indesit/HAL/RN_RX200/EmbOS\interrupt_handlers.c **** /* RIIC0_TEI0*/
 504:C:/Workspace/FW_Inertia/branch_indesit/HAL/RN_RX200/EmbOS\interrupt_handlers.c **** void IIC0_TX_END_ISR(void){
 1654                             		.loc 1 504 0
 1655                             		; Note: Interrupt Handler
 1656 0000 6E 1F                   		pushm	r1-r15
 1657                             	.LCFI42:
 505:C:/Workspace/FW_Inertia/branch_indesit/HAL/RN_RX200/EmbOS\interrupt_handlers.c **** 	OS_EnterInterrupt();
 1658                             		.loc 1 505 0
 1659 0002 05 00 00 00             		bsr	_OS_DisableInterrupt
 1660                             	.LVL129:
 1661 0006 FD 6A 07                		mvfc	psw, r7
 1662 0009 79 07                   		bset #16, r7
 1663 000b FD 68 70                		mvtc	r7, psw
 1664 000e FB 72 00 00 00 00       		mov.L	#_OS_Global, r7
 1665 0014 CC 7E                   		mov.B	[r7], r14
 1666 0016 62 1E                   		add	#1, r14
 1667 0018 C3 7E                   		mov.B	r14, [r7]
 1668 001a CD 7E 01                		mov.B	1[r7], r14
 1669 001d 62 1E                   		add	#1, r14
 1670 001f C7 7E 01                		mov.B	r14, 1[r7]
 506:C:/Workspace/FW_Inertia/branch_indesit/HAL/RN_RX200/EmbOS\interrupt_handlers.c **** 	OCI2C_ISR();
 1671                             		.loc 1 506 0
 1672 0022 05 00 00 00             		bsr	_OCI2C_ISR
 1673                             	.LVL130:
 507:C:/Workspace/FW_Inertia/branch_indesit/HAL/RN_RX200/EmbOS\interrupt_handlers.c **** 	OS_LeaveInterrupt();
 1674                             		.loc 1 507 0
 1675 0026 CD 7E 01                		mov.B	1[r7], r14
 1676 0029 60 1E                   		sub	#1, r14
 1677 002b C7 7E 01                		mov.B	r14, 1[r7]
 1678 002e CC 7E                   		mov.B	[r7], r14
 1679 0030 5B E3                   		movu.B	r14, r3
 1680 0032 EF 74                   		mov.L	r7, r4
 1681 0034 61 13                   		cmp	#1, r3
 1682 0036 21 0C                   		bne	.L218
 1683                             		.loc 1 507 0 is_stmt 0 discriminator 1
 1684 0038 A8 7F                   		mov.L	4[r7], r7
 1685 003a 61 07                   		cmp	#0, r7
 1686 003c 16                      		beq	.L218
 1687                             		.loc 1 507 0 discriminator 3
 1688 003d 05 00 00 00             		bsr	_OS_SwitchFromInt
 1689                             	.LVL131:
 1690 0041 0D                      		bra	.L217
 1691                             	.L218:
 1692                             		.loc 1 507 0 discriminator 2
 1693 0042 60 1E                   		sub	#1, r14
 1694 0044 C3 4E                   		mov.B	r14, [r4]
 1695                             		.balign 2,3,1
 1696                             	.L217:
 508:C:/Workspace/FW_Inertia/branch_indesit/HAL/RN_RX200/EmbOS\interrupt_handlers.c **** }
 1697                             		.loc 1 508 0 is_stmt 1
 1698 0046 6F 1F                   		popm	r1-r15
 1699 0048 7F 95                   		rte
 1700                             	.LFE43:
 1702                             		.section	.text.INT_Excep_S12AD0_S12ADI0,"ax",@progbits
 1703                             		.global	_INT_Excep_S12AD0_S12ADI0
 1705                             	_INT_Excep_S12AD0_S12ADI0:
 1706                             	.LFB44:
 509:C:/Workspace/FW_Inertia/branch_indesit/HAL/RN_RX200/EmbOS\interrupt_handlers.c **** #endif /*  defined(I2C00_ISR_ENABLE) */
 510:C:/Workspace/FW_Inertia/branch_indesit/HAL/RN_RX200/EmbOS\interrupt_handlers.c **** 
 511:C:/Workspace/FW_Inertia/branch_indesit/HAL/RN_RX200/EmbOS\interrupt_handlers.c **** /* vector 102 S12AD0_S12ADI0*/
 512:C:/Workspace/FW_Inertia/branch_indesit/HAL/RN_RX200/EmbOS\interrupt_handlers.c **** void INT_Excep_S12AD0_S12ADI0(void){
 1707                             		.loc 1 512 0
 1708                             		; Note: Interrupt Handler
 1709 0000 6E 1F                   		pushm	r1-r15
 1710                             	.LCFI43:
 513:C:/Workspace/FW_Inertia/branch_indesit/HAL/RN_RX200/EmbOS\interrupt_handlers.c **** 	OCADC_ISR();
 1711                             		.loc 1 513 0
 1712 0002 05 00 00 00             		bsr	_OCADC_ISR
 1713                             	.LVL132:
 514:C:/Workspace/FW_Inertia/branch_indesit/HAL/RN_RX200/EmbOS\interrupt_handlers.c **** }
 1714                             		.loc 1 514 0
 1715 0006 6F 1F                   		popm	r1-r15
 1716 0008 7F 95                   		rte
 1717                             	.LFE44:
 3593                             	.Letext0:
 3594                             		.file 2 "C:\\Workspace\\FW_Inertia\\branch_indesit\\OS\\EmbOS\\RX200_GNU\\V388\\Inc/RTOS.h"
 3595                             		.file 3 "C:\\Workspace\\FW_Inertia\\branch_indesit\\HAL\\HAL_General/StandardTypes.h"
 3596                             		.file 4 "C:\\Workspace\\FW_Inertia\\branch_indesit\\HAL\\RN_RX200/RN_RX200_cfg.h"
 3597                             		.file 5 "C:\\Workspace\\FW_Inertia\\branch_indesit\\Drivers/io_driver.h"
 3598                             		.file 6 "C:\\Workspace\\FW_Inertia\\branch_indesit\\PlatformLibrary\\LIB_Error/LIB_Error.h"
 3599                             		.file 7 "C:\\Workspace\\FW_Inertia\\branch_indesit\\Drivers\\OCIRQ/OCIRQ_drv.h"
 3600                             		.file 8 "C:\\Workspace\\FW_Inertia\\branch_indesit\\Drivers\\OCLVD/OCLVD_drv.h"
 3601                             		.file 9 "C:\\Workspace\\FW_Inertia\\branch_indesit\\HAL\\RN_RX200\\McuModule/ISR_TMR.h"
 3602                             		.file 10 "C:\\Workspace\\FW_Inertia\\branch_indesit\\HAL\\RN_RX200/RN_RX200_hal.h"
 3603                             		.file 11 "C:\\Workspace\\FW_Inertia\\branch_indesit\\Drivers\\OCTPM/OCTPM_drv.h"
 3604                             		.file 12 "C:\\Workspace\\FW_Inertia\\branch_indesit\\Drivers\\OCUART/OCUART_drv.h"
 3605                             		.file 13 "C:\\Workspace\\FW_Inertia\\branch_indesit\\Drivers\\OCI2C/OCI2C_drv.h"
 3606                             		.file 14 "C:\\Workspace\\FW_Inertia\\branch_indesit\\Drivers\\OCADC/OCADC_drv.h"
DEFINED SYMBOLS
                            *ABS*:00000000 interrupt_handlers.c
C:\Users\Andrea\AppData\Local\Temp\ccu2sWbR.s:7      .text.INT_Excep_SuperVisorInst:00000000 _INT_Excep_SuperVisorInst
C:\Users\Andrea\AppData\Local\Temp\ccu2sWbR.s:12     .text.INT_Excep_SuperVisorInst:00000000 L0
C:\Users\Andrea\AppData\Local\Temp\ccu2sWbR.s:26     .text.INT_Excep_UndefinedInst:00000000 _INT_Excep_UndefinedInst
C:\Users\Andrea\AppData\Local\Temp\ccu2sWbR.s:30     .text.INT_Excep_UndefinedInst:00000000 L0
C:\Users\Andrea\AppData\Local\Temp\ccu2sWbR.s:44     .text.INT_NonMaskableInterrupt:00000000 _INT_NonMaskableInterrupt
C:\Users\Andrea\AppData\Local\Temp\ccu2sWbR.s:48     .text.INT_NonMaskableInterrupt:00000000 L0
C:\Users\Andrea\AppData\Local\Temp\ccu2sWbR.s:62     .text.DummyFunc:00000000 _DummyFunc
C:\Users\Andrea\AppData\Local\Temp\ccu2sWbR.s:67     .text.DummyFunc:00000000 L0
C:\Users\Andrea\AppData\Local\Temp\ccu2sWbR.s:73     .text.INT_Excep_IRQ0:00000000 _INT_Excep_IRQ0
C:\Users\Andrea\AppData\Local\Temp\ccu2sWbR.s:77     .text.INT_Excep_IRQ0:00000000 L0
C:\Users\Andrea\AppData\Local\Temp\ccu2sWbR.s:126    .text.INT_Excep_IRQ1:00000000 _INT_Excep_IRQ1
C:\Users\Andrea\AppData\Local\Temp\ccu2sWbR.s:130    .text.INT_Excep_IRQ1:00000000 L0
C:\Users\Andrea\AppData\Local\Temp\ccu2sWbR.s:179    .text.INT_Excep_IRQ5:00000000 _INT_Excep_IRQ5
C:\Users\Andrea\AppData\Local\Temp\ccu2sWbR.s:183    .text.INT_Excep_IRQ5:00000000 L0
C:\Users\Andrea\AppData\Local\Temp\ccu2sWbR.s:232    .text.INT_Excep_IRQ6:00000000 _INT_Excep_IRQ6
C:\Users\Andrea\AppData\Local\Temp\ccu2sWbR.s:236    .text.INT_Excep_IRQ6:00000000 L0
C:\Users\Andrea\AppData\Local\Temp\ccu2sWbR.s:285    .text.INT_Excep_LVD1:00000000 _INT_Excep_LVD1
C:\Users\Andrea\AppData\Local\Temp\ccu2sWbR.s:289    .text.INT_Excep_LVD1:00000000 L0
C:\Users\Andrea\AppData\Local\Temp\ccu2sWbR.s:302    .text.INT_Excep_LVD2:00000000 _INT_Excep_LVD2
C:\Users\Andrea\AppData\Local\Temp\ccu2sWbR.s:306    .text.INT_Excep_LVD2:00000000 L0
C:\Users\Andrea\AppData\Local\Temp\ccu2sWbR.s:319    .text.INT_Excep_MTU0_TGIA0:00000000 _INT_Excep_MTU0_TGIA0
C:\Users\Andrea\AppData\Local\Temp\ccu2sWbR.s:323    .text.INT_Excep_MTU0_TGIA0:00000000 L0
C:\Users\Andrea\AppData\Local\Temp\ccu2sWbR.s:384    .text.INT_Excep_MTU0_TGIC0:00000000 _INT_Excep_MTU0_TGIC0
C:\Users\Andrea\AppData\Local\Temp\ccu2sWbR.s:388    .text.INT_Excep_MTU0_TGIC0:00000000 L0
C:\Users\Andrea\AppData\Local\Temp\ccu2sWbR.s:449    .text.INT_Excep_MTU0_TGID0:00000000 _INT_Excep_MTU0_TGID0
C:\Users\Andrea\AppData\Local\Temp\ccu2sWbR.s:453    .text.INT_Excep_MTU0_TGID0:00000000 L0
C:\Users\Andrea\AppData\Local\Temp\ccu2sWbR.s:482    .text.INT_Excep_MTU0_TCIV0:00000000 _INT_Excep_MTU0_TCIV0
C:\Users\Andrea\AppData\Local\Temp\ccu2sWbR.s:486    .text.INT_Excep_MTU0_TCIV0:00000000 L0
C:\Users\Andrea\AppData\Local\Temp\ccu2sWbR.s:545    .text.INT_Excep_MTU0_TGIE0:00000000 _INT_Excep_MTU0_TGIE0
C:\Users\Andrea\AppData\Local\Temp\ccu2sWbR.s:549    .text.INT_Excep_MTU0_TGIE0:00000000 L0
C:\Users\Andrea\AppData\Local\Temp\ccu2sWbR.s:563    .text.INT_Excep_MTU0_TGIF0:00000000 _INT_Excep_MTU0_TGIF0
C:\Users\Andrea\AppData\Local\Temp\ccu2sWbR.s:567    .text.INT_Excep_MTU0_TGIF0:00000000 L0
C:\Users\Andrea\AppData\Local\Temp\ccu2sWbR.s:581    .text.INT_Excep_MTU1_TGIA1:00000000 _INT_Excep_MTU1_TGIA1
C:\Users\Andrea\AppData\Local\Temp\ccu2sWbR.s:585    .text.INT_Excep_MTU1_TGIA1:00000000 L0
C:\Users\Andrea\AppData\Local\Temp\ccu2sWbR.s:646    .text.INT_Excep_MTU1_TGIB1:00000000 _INT_Excep_MTU1_TGIB1
C:\Users\Andrea\AppData\Local\Temp\ccu2sWbR.s:650    .text.INT_Excep_MTU1_TGIB1:00000000 L0
C:\Users\Andrea\AppData\Local\Temp\ccu2sWbR.s:678    .text.INT_Excep_MTU1_TCIV1:00000000 _INT_Excep_MTU1_TCIV1
C:\Users\Andrea\AppData\Local\Temp\ccu2sWbR.s:682    .text.INT_Excep_MTU1_TCIV1:00000000 L0
C:\Users\Andrea\AppData\Local\Temp\ccu2sWbR.s:741    .text.INT_Excep_MTU1_TCIU1:00000000 _INT_Excep_MTU1_TCIU1
C:\Users\Andrea\AppData\Local\Temp\ccu2sWbR.s:745    .text.INT_Excep_MTU1_TCIU1:00000000 L0
C:\Users\Andrea\AppData\Local\Temp\ccu2sWbR.s:759    .text.INT_Excep_MTU2_TGIA2:00000000 _INT_Excep_MTU2_TGIA2
C:\Users\Andrea\AppData\Local\Temp\ccu2sWbR.s:763    .text.INT_Excep_MTU2_TGIA2:00000000 L0
C:\Users\Andrea\AppData\Local\Temp\ccu2sWbR.s:824    .text.INT_Excep_MTU2_TGIB2:00000000 _INT_Excep_MTU2_TGIB2
C:\Users\Andrea\AppData\Local\Temp\ccu2sWbR.s:828    .text.INT_Excep_MTU2_TGIB2:00000000 L0
C:\Users\Andrea\AppData\Local\Temp\ccu2sWbR.s:857    .text.INT_Excep_MTU2_TCIV2:00000000 _INT_Excep_MTU2_TCIV2
C:\Users\Andrea\AppData\Local\Temp\ccu2sWbR.s:861    .text.INT_Excep_MTU2_TCIV2:00000000 L0
C:\Users\Andrea\AppData\Local\Temp\ccu2sWbR.s:920    .text.INT_Excep_MTU2_TCIU2:00000000 _INT_Excep_MTU2_TCIU2
C:\Users\Andrea\AppData\Local\Temp\ccu2sWbR.s:924    .text.INT_Excep_MTU2_TCIU2:00000000 L0
C:\Users\Andrea\AppData\Local\Temp\ccu2sWbR.s:938    .text.INT_Excep_MTU3_TGIA3:00000000 _INT_Excep_MTU3_TGIA3
C:\Users\Andrea\AppData\Local\Temp\ccu2sWbR.s:942    .text.INT_Excep_MTU3_TGIA3:00000000 L0
C:\Users\Andrea\AppData\Local\Temp\ccu2sWbR.s:1003   .text.INT_Excep_MTU3_TGIB3:00000000 _INT_Excep_MTU3_TGIB3
C:\Users\Andrea\AppData\Local\Temp\ccu2sWbR.s:1007   .text.INT_Excep_MTU3_TGIB3:00000000 L0
C:\Users\Andrea\AppData\Local\Temp\ccu2sWbR.s:1036   .text.INT_Excep_MTU3_TGIC3:00000000 _INT_Excep_MTU3_TGIC3
C:\Users\Andrea\AppData\Local\Temp\ccu2sWbR.s:1040   .text.INT_Excep_MTU3_TGIC3:00000000 L0
C:\Users\Andrea\AppData\Local\Temp\ccu2sWbR.s:1101   .text.INT_Excep_MTU3_TCIV3:00000000 _INT_Excep_MTU3_TCIV3
C:\Users\Andrea\AppData\Local\Temp\ccu2sWbR.s:1105   .text.INT_Excep_MTU3_TCIV3:00000000 L0
C:\Users\Andrea\AppData\Local\Temp\ccu2sWbR.s:1164   .text.INT_Excep_MTU4_TGIA4:00000000 _INT_Excep_MTU4_TGIA4
C:\Users\Andrea\AppData\Local\Temp\ccu2sWbR.s:1168   .text.INT_Excep_MTU4_TGIA4:00000000 L0
C:\Users\Andrea\AppData\Local\Temp\ccu2sWbR.s:1229   .text.INT_Excep_MTU4_TGIC4:00000000 _INT_Excep_MTU4_TGIC4
C:\Users\Andrea\AppData\Local\Temp\ccu2sWbR.s:1233   .text.INT_Excep_MTU4_TGIC4:00000000 L0
C:\Users\Andrea\AppData\Local\Temp\ccu2sWbR.s:1294   .text.INT_Excep_MTU4_TGID4:00000000 _INT_Excep_MTU4_TGID4
C:\Users\Andrea\AppData\Local\Temp\ccu2sWbR.s:1298   .text.INT_Excep_MTU4_TGID4:00000000 L0
C:\Users\Andrea\AppData\Local\Temp\ccu2sWbR.s:1327   .text.INT_Excep_MTU4_TCIV4:00000000 _INT_Excep_MTU4_TCIV4
C:\Users\Andrea\AppData\Local\Temp\ccu2sWbR.s:1331   .text.INT_Excep_MTU4_TCIV4:00000000 L0
C:\Users\Andrea\AppData\Local\Temp\ccu2sWbR.s:1390   .text.INT_Excep_MTU5_TGIU5:00000000 _INT_Excep_MTU5_TGIU5
C:\Users\Andrea\AppData\Local\Temp\ccu2sWbR.s:1394   .text.INT_Excep_MTU5_TGIU5:00000000 L0
C:\Users\Andrea\AppData\Local\Temp\ccu2sWbR.s:1408   .text.INT_Excep_MTU5_TGIV5:00000000 _INT_Excep_MTU5_TGIV5
C:\Users\Andrea\AppData\Local\Temp\ccu2sWbR.s:1412   .text.INT_Excep_MTU5_TGIV5:00000000 L0
C:\Users\Andrea\AppData\Local\Temp\ccu2sWbR.s:1426   .text.INT_Excep_MTU5_TGIW5:00000000 _INT_Excep_MTU5_TGIW5
C:\Users\Andrea\AppData\Local\Temp\ccu2sWbR.s:1430   .text.INT_Excep_MTU5_TGIW5:00000000 L0
C:\Users\Andrea\AppData\Local\Temp\ccu2sWbR.s:1444   .text.INT_Excep_SCI0_RXI0:00000000 _INT_Excep_SCI0_RXI0
C:\Users\Andrea\AppData\Local\Temp\ccu2sWbR.s:1448   .text.INT_Excep_SCI0_RXI0:00000000 L0
C:\Users\Andrea\AppData\Local\Temp\ccu2sWbR.s:1461   .text.INT_Excep_SCI1_RXI1:00000000 _INT_Excep_SCI1_RXI1
C:\Users\Andrea\AppData\Local\Temp\ccu2sWbR.s:1465   .text.INT_Excep_SCI1_RXI1:00000000 L0
C:\Users\Andrea\AppData\Local\Temp\ccu2sWbR.s:1478   .text.INT_Excep_SCI5_RXI5:00000000 _INT_Excep_SCI5_RXI5
C:\Users\Andrea\AppData\Local\Temp\ccu2sWbR.s:1482   .text.INT_Excep_SCI5_RXI5:00000000 L0
C:\Users\Andrea\AppData\Local\Temp\ccu2sWbR.s:1495   .text.INT_Excep_SCI5_TEI5:00000000 _INT_Excep_SCI5_TEI5
C:\Users\Andrea\AppData\Local\Temp\ccu2sWbR.s:1499   .text.INT_Excep_SCI5_TEI5:00000000 L0
C:\Users\Andrea\AppData\Local\Temp\ccu2sWbR.s:1512   .text.INT_Excep_SCI12_RXI12:00000000 _INT_Excep_SCI12_RXI12
C:\Users\Andrea\AppData\Local\Temp\ccu2sWbR.s:1516   .text.INT_Excep_SCI12_RXI12:00000000 L0
C:\Users\Andrea\AppData\Local\Temp\ccu2sWbR.s:1529   .text.INT_Excep_SCI12_TEI12:00000000 _INT_Excep_SCI12_TEI12
C:\Users\Andrea\AppData\Local\Temp\ccu2sWbR.s:1533   .text.INT_Excep_SCI12_TEI12:00000000 L0
C:\Users\Andrea\AppData\Local\Temp\ccu2sWbR.s:1546   .text.IIC0_RX_ISR:00000000 _IIC0_RX_ISR
C:\Users\Andrea\AppData\Local\Temp\ccu2sWbR.s:1550   .text.IIC0_RX_ISR:00000000 L0
C:\Users\Andrea\AppData\Local\Temp\ccu2sWbR.s:1599   .text.IIC0_TX_ISR:00000000 _IIC0_TX_ISR
C:\Users\Andrea\AppData\Local\Temp\ccu2sWbR.s:1603   .text.IIC0_TX_ISR:00000000 L0
C:\Users\Andrea\AppData\Local\Temp\ccu2sWbR.s:1652   .text.IIC0_TX_END_ISR:00000000 _IIC0_TX_END_ISR
C:\Users\Andrea\AppData\Local\Temp\ccu2sWbR.s:1656   .text.IIC0_TX_END_ISR:00000000 L0
C:\Users\Andrea\AppData\Local\Temp\ccu2sWbR.s:1705   .text.INT_Excep_S12AD0_S12ADI0:00000000 _INT_Excep_S12AD0_S12ADI0
C:\Users\Andrea\AppData\Local\Temp\ccu2sWbR.s:1709   .text.INT_Excep_S12AD0_S12ADI0:00000000 L0
C:\Users\Andrea\AppData\Local\Temp\ccu2sWbR.s:1720   .debug_frame:00000000 .Lframe0
C:\Users\Andrea\AppData\Local\Temp\ccu2sWbR.s:8      .text.INT_Excep_SuperVisorInst:00000000 .LFB0
C:\Users\Andrea\AppData\Local\Temp\ccu2sWbR.s:27     .text.INT_Excep_UndefinedInst:00000000 .LFB1
C:\Users\Andrea\AppData\Local\Temp\ccu2sWbR.s:45     .text.INT_NonMaskableInterrupt:00000000 .LFB2
C:\Users\Andrea\AppData\Local\Temp\ccu2sWbR.s:63     .text.DummyFunc:00000000 .LFB3
C:\Users\Andrea\AppData\Local\Temp\ccu2sWbR.s:74     .text.INT_Excep_IRQ0:00000000 .LFB4
C:\Users\Andrea\AppData\Local\Temp\ccu2sWbR.s:127    .text.INT_Excep_IRQ1:00000000 .LFB5
C:\Users\Andrea\AppData\Local\Temp\ccu2sWbR.s:180    .text.INT_Excep_IRQ5:00000000 .LFB6
C:\Users\Andrea\AppData\Local\Temp\ccu2sWbR.s:233    .text.INT_Excep_IRQ6:00000000 .LFB7
C:\Users\Andrea\AppData\Local\Temp\ccu2sWbR.s:286    .text.INT_Excep_LVD1:00000000 .LFB8
C:\Users\Andrea\AppData\Local\Temp\ccu2sWbR.s:303    .text.INT_Excep_LVD2:00000000 .LFB9
C:\Users\Andrea\AppData\Local\Temp\ccu2sWbR.s:320    .text.INT_Excep_MTU0_TGIA0:00000000 .LFB10
C:\Users\Andrea\AppData\Local\Temp\ccu2sWbR.s:385    .text.INT_Excep_MTU0_TGIC0:00000000 .LFB11
C:\Users\Andrea\AppData\Local\Temp\ccu2sWbR.s:450    .text.INT_Excep_MTU0_TGID0:00000000 .LFB12
C:\Users\Andrea\AppData\Local\Temp\ccu2sWbR.s:483    .text.INT_Excep_MTU0_TCIV0:00000000 .LFB13
C:\Users\Andrea\AppData\Local\Temp\ccu2sWbR.s:546    .text.INT_Excep_MTU0_TGIE0:00000000 .LFB14
C:\Users\Andrea\AppData\Local\Temp\ccu2sWbR.s:564    .text.INT_Excep_MTU0_TGIF0:00000000 .LFB15
C:\Users\Andrea\AppData\Local\Temp\ccu2sWbR.s:582    .text.INT_Excep_MTU1_TGIA1:00000000 .LFB16
C:\Users\Andrea\AppData\Local\Temp\ccu2sWbR.s:647    .text.INT_Excep_MTU1_TGIB1:00000000 .LFB17
C:\Users\Andrea\AppData\Local\Temp\ccu2sWbR.s:679    .text.INT_Excep_MTU1_TCIV1:00000000 .LFB18
C:\Users\Andrea\AppData\Local\Temp\ccu2sWbR.s:742    .text.INT_Excep_MTU1_TCIU1:00000000 .LFB19
C:\Users\Andrea\AppData\Local\Temp\ccu2sWbR.s:760    .text.INT_Excep_MTU2_TGIA2:00000000 .LFB20
C:\Users\Andrea\AppData\Local\Temp\ccu2sWbR.s:825    .text.INT_Excep_MTU2_TGIB2:00000000 .LFB21
C:\Users\Andrea\AppData\Local\Temp\ccu2sWbR.s:858    .text.INT_Excep_MTU2_TCIV2:00000000 .LFB22
C:\Users\Andrea\AppData\Local\Temp\ccu2sWbR.s:921    .text.INT_Excep_MTU2_TCIU2:00000000 .LFB23
C:\Users\Andrea\AppData\Local\Temp\ccu2sWbR.s:939    .text.INT_Excep_MTU3_TGIA3:00000000 .LFB24
C:\Users\Andrea\AppData\Local\Temp\ccu2sWbR.s:1004   .text.INT_Excep_MTU3_TGIB3:00000000 .LFB25
C:\Users\Andrea\AppData\Local\Temp\ccu2sWbR.s:1037   .text.INT_Excep_MTU3_TGIC3:00000000 .LFB26
C:\Users\Andrea\AppData\Local\Temp\ccu2sWbR.s:1102   .text.INT_Excep_MTU3_TCIV3:00000000 .LFB27
C:\Users\Andrea\AppData\Local\Temp\ccu2sWbR.s:1165   .text.INT_Excep_MTU4_TGIA4:00000000 .LFB28
C:\Users\Andrea\AppData\Local\Temp\ccu2sWbR.s:1230   .text.INT_Excep_MTU4_TGIC4:00000000 .LFB29
C:\Users\Andrea\AppData\Local\Temp\ccu2sWbR.s:1295   .text.INT_Excep_MTU4_TGID4:00000000 .LFB30
C:\Users\Andrea\AppData\Local\Temp\ccu2sWbR.s:1328   .text.INT_Excep_MTU4_TCIV4:00000000 .LFB31
C:\Users\Andrea\AppData\Local\Temp\ccu2sWbR.s:1391   .text.INT_Excep_MTU5_TGIU5:00000000 .LFB32
C:\Users\Andrea\AppData\Local\Temp\ccu2sWbR.s:1409   .text.INT_Excep_MTU5_TGIV5:00000000 .LFB33
C:\Users\Andrea\AppData\Local\Temp\ccu2sWbR.s:1427   .text.INT_Excep_MTU5_TGIW5:00000000 .LFB34
C:\Users\Andrea\AppData\Local\Temp\ccu2sWbR.s:1445   .text.INT_Excep_SCI0_RXI0:00000000 .LFB35
C:\Users\Andrea\AppData\Local\Temp\ccu2sWbR.s:1462   .text.INT_Excep_SCI1_RXI1:00000000 .LFB36
C:\Users\Andrea\AppData\Local\Temp\ccu2sWbR.s:1479   .text.INT_Excep_SCI5_RXI5:00000000 .LFB37
C:\Users\Andrea\AppData\Local\Temp\ccu2sWbR.s:1496   .text.INT_Excep_SCI5_TEI5:00000000 .LFB38
C:\Users\Andrea\AppData\Local\Temp\ccu2sWbR.s:1513   .text.INT_Excep_SCI12_RXI12:00000000 .LFB39
C:\Users\Andrea\AppData\Local\Temp\ccu2sWbR.s:1530   .text.INT_Excep_SCI12_TEI12:00000000 .LFB40
C:\Users\Andrea\AppData\Local\Temp\ccu2sWbR.s:1547   .text.IIC0_RX_ISR:00000000 .LFB41
C:\Users\Andrea\AppData\Local\Temp\ccu2sWbR.s:1600   .text.IIC0_TX_ISR:00000000 .LFB42
C:\Users\Andrea\AppData\Local\Temp\ccu2sWbR.s:1653   .text.IIC0_TX_END_ISR:00000000 .LFB43
C:\Users\Andrea\AppData\Local\Temp\ccu2sWbR.s:1706   .text.INT_Excep_S12AD0_S12ADI0:00000000 .LFB44
C:\Users\Andrea\AppData\Local\Temp\ccu2sWbR.s:6154   .debug_abbrev:00000000 .Ldebug_abbrev0
C:\Users\Andrea\AppData\Local\Temp\ccu2sWbR.s:7807   .debug_str:000003fc .LASF234
C:\Users\Andrea\AppData\Local\Temp\ccu2sWbR.s:8043   .debug_str:00000d98 .LASF235
C:\Users\Andrea\AppData\Local\Temp\ccu2sWbR.s:7619   .debug_ranges:00000000 .Ldebug_ranges0
C:\Users\Andrea\AppData\Local\Temp\ccu2sWbR.s:7713   .debug_line:00000000 .Ldebug_line0
C:\Users\Andrea\AppData\Local\Temp\ccu2sWbR.s:8059   .debug_str:00000e6e .LASF0
C:\Users\Andrea\AppData\Local\Temp\ccu2sWbR.s:8147   .debug_str:0000125d .LASF1
C:\Users\Andrea\AppData\Local\Temp\ccu2sWbR.s:8107   .debug_str:00001088 .LASF2
C:\Users\Andrea\AppData\Local\Temp\ccu2sWbR.s:8065   .debug_str:00000eb8 .LASF3
C:\Users\Andrea\AppData\Local\Temp\ccu2sWbR.s:7813   .debug_str:0000045c .LASF4
C:\Users\Andrea\AppData\Local\Temp\ccu2sWbR.s:7887   .debug_str:0000079b .LASF5
C:\Users\Andrea\AppData\Local\Temp\ccu2sWbR.s:7901   .debug_str:00000803 .LASF11
C:\Users\Andrea\AppData\Local\Temp\ccu2sWbR.s:8121   .debug_str:0000110b .LASF6
C:\Users\Andrea\AppData\Local\Temp\ccu2sWbR.s:8141   .debug_str:00001211 .LASF7
C:\Users\Andrea\AppData\Local\Temp\ccu2sWbR.s:8099   .debug_str:0000103f .LASF8
C:\Users\Andrea\AppData\Local\Temp\ccu2sWbR.s:8053   .debug_str:00000e4a .LASF9
C:\Users\Andrea\AppData\Local\Temp\ccu2sWbR.s:8157   .debug_str:000012b0 .LASF10
C:\Users\Andrea\AppData\Local\Temp\ccu2sWbR.s:8119   .debug_str:000010fe .LASF12
C:\Users\Andrea\AppData\Local\Temp\ccu2sWbR.s:7933   .debug_str:0000092a .LASF13
C:\Users\Andrea\AppData\Local\Temp\ccu2sWbR.s:8017   .debug_str:00000c9c .LASF14
C:\Users\Andrea\AppData\Local\Temp\ccu2sWbR.s:7763   .debug_str:00000223 .LASF15
C:\Users\Andrea\AppData\Local\Temp\ccu2sWbR.s:7905   .debug_str:00000816 .LASF16
C:\Users\Andrea\AppData\Local\Temp\ccu2sWbR.s:8095   .debug_str:00000ffb .LASF30
C:\Users\Andrea\AppData\Local\Temp\ccu2sWbR.s:7821   .debug_str:000004a7 .LASF17
C:\Users\Andrea\AppData\Local\Temp\ccu2sWbR.s:7885   .debug_str:00000794 .LASF18
C:\Users\Andrea\AppData\Local\Temp\ccu2sWbR.s:7787   .debug_str:0000033c .LASF19
C:\Users\Andrea\AppData\Local\Temp\ccu2sWbR.s:7719   .debug_str:0000002a .LASF20
C:\Users\Andrea\AppData\Local\Temp\ccu2sWbR.s:8169   .debug_str:00001325 .LASF21
C:\Users\Andrea\AppData\Local\Temp\ccu2sWbR.s:7775   .debug_str:0000029e .LASF22
C:\Users\Andrea\AppData\Local\Temp\ccu2sWbR.s:8087   .debug_str:00000fd1 .LASF23
C:\Users\Andrea\AppData\Local\Temp\ccu2sWbR.s:8005   .debug_str:00000c1f .LASF24
C:\Users\Andrea\AppData\Local\Temp\ccu2sWbR.s:7855   .debug_str:0000061a .LASF25
C:\Users\Andrea\AppData\Local\Temp\ccu2sWbR.s:7881   .debug_str:0000074e .LASF26
C:\Users\Andrea\AppData\Local\Temp\ccu2sWbR.s:7975   .debug_str:00000aa7 .LASF27
C:\Users\Andrea\AppData\Local\Temp\ccu2sWbR.s:7955   .debug_str:000009f5 .LASF28
C:\Users\Andrea\AppData\Local\Temp\ccu2sWbR.s:7991   .debug_str:00000b94 .LASF29
C:\Users\Andrea\AppData\Local\Temp\ccu2sWbR.s:7949   .debug_str:000009c6 .LASF31
C:\Users\Andrea\AppData\Local\Temp\ccu2sWbR.s:7731   .debug_str:000000bc .LASF32
C:\Users\Andrea\AppData\Local\Temp\ccu2sWbR.s:7965   .debug_str:00000a5d .LASF33
C:\Users\Andrea\AppData\Local\Temp\ccu2sWbR.s:7953   .debug_str:000009ef .LASF34
C:\Users\Andrea\AppData\Local\Temp\ccu2sWbR.s:7899   .debug_str:000007f7 .LASF35
C:\Users\Andrea\AppData\Local\Temp\ccu2sWbR.s:7963   .debug_str:00000a4a .LASF36
C:\Users\Andrea\AppData\Local\Temp\ccu2sWbR.s:7797   .debug_str:0000038e .LASF37
C:\Users\Andrea\AppData\Local\Temp\ccu2sWbR.s:7947   .debug_str:000009bc .LASF38
C:\Users\Andrea\AppData\Local\Temp\ccu2sWbR.s:8057   .debug_str:00000e5d .LASF39
C:\Users\Andrea\AppData\Local\Temp\ccu2sWbR.s:8181   .debug_str:000013a6 .LASF40
C:\Users\Andrea\AppData\Local\Temp\ccu2sWbR.s:8091   .debug_str:00000fe3 .LASF41
C:\Users\Andrea\AppData\Local\Temp\ccu2sWbR.s:7793   .debug_str:0000036f .LASF42
C:\Users\Andrea\AppData\Local\Temp\ccu2sWbR.s:7817   .debug_str:0000048a .LASF43
C:\Users\Andrea\AppData\Local\Temp\ccu2sWbR.s:8071   .debug_str:00000ef7 .LASF44
C:\Users\Andrea\AppData\Local\Temp\ccu2sWbR.s:7997   .debug_str:00000bd0 .LASF45
C:\Users\Andrea\AppData\Local\Temp\ccu2sWbR.s:7799   .debug_str:0000039a .LASF46
C:\Users\Andrea\AppData\Local\Temp\ccu2sWbR.s:8047   .debug_str:00000df9 .LASF47
C:\Users\Andrea\AppData\Local\Temp\ccu2sWbR.s:7895   .debug_str:000007ed .LASF48
C:\Users\Andrea\AppData\Local\Temp\ccu2sWbR.s:8137   .debug_str:000011ed .LASF49
C:\Users\Andrea\AppData\Local\Temp\ccu2sWbR.s:8037   .debug_str:00000d5d .LASF50
C:\Users\Andrea\AppData\Local\Temp\ccu2sWbR.s:7981   .debug_str:00000ae0 .LASF51
C:\Users\Andrea\AppData\Local\Temp\ccu2sWbR.s:8179   .debug_str:0000139f .LASF52
C:\Users\Andrea\AppData\Local\Temp\ccu2sWbR.s:7939   .debug_str:00000954 .LASF53
C:\Users\Andrea\AppData\Local\Temp\ccu2sWbR.s:7959   .debug_str:00000a19 .LASF54
C:\Users\Andrea\AppData\Local\Temp\ccu2sWbR.s:7897   .debug_str:000007f2 .LASF55
C:\Users\Andrea\AppData\Local\Temp\ccu2sWbR.s:8165   .debug_str:00001312 .LASF56
C:\Users\Andrea\AppData\Local\Temp\ccu2sWbR.s:7749   .debug_str:0000017a .LASF57
C:\Users\Andrea\AppData\Local\Temp\ccu2sWbR.s:7967   .debug_str:00000a66 .LASF58
C:\Users\Andrea\AppData\Local\Temp\ccu2sWbR.s:7973   .debug_str:00000aa0 .LASF59
C:\Users\Andrea\AppData\Local\Temp\ccu2sWbR.s:8111   .debug_str:000010b6 .LASF60
C:\Users\Andrea\AppData\Local\Temp\ccu2sWbR.s:7877   .debug_str:00000729 .LASF61
C:\Users\Andrea\AppData\Local\Temp\ccu2sWbR.s:7829   .debug_str:000004e2 .LASF62
C:\Users\Andrea\AppData\Local\Temp\ccu2sWbR.s:7765   .debug_str:0000022b .LASF63
C:\Users\Andrea\AppData\Local\Temp\ccu2sWbR.s:8089   .debug_str:00000fd8 .LASF64
C:\Users\Andrea\AppData\Local\Temp\ccu2sWbR.s:7903   .debug_str:0000080b .LASF65
C:\Users\Andrea\AppData\Local\Temp\ccu2sWbR.s:8125   .debug_str:0000114f .LASF66
C:\Users\Andrea\AppData\Local\Temp\ccu2sWbR.s:7827   .debug_str:000004dd .LASF67
C:\Users\Andrea\AppData\Local\Temp\ccu2sWbR.s:8159   .debug_str:000012b9 .LASF68
C:\Users\Andrea\AppData\Local\Temp\ccu2sWbR.s:8083   .debug_str:00000fb7 .LASF69
C:\Users\Andrea\AppData\Local\Temp\ccu2sWbR.s:7993   .debug_str:00000ba1 .LASF70
C:\Users\Andrea\AppData\Local\Temp\ccu2sWbR.s:7737   .debug_str:000000f5 .LASF71
C:\Users\Andrea\AppData\Local\Temp\ccu2sWbR.s:7851   .debug_str:000005dd .LASF72
C:\Users\Andrea\AppData\Local\Temp\ccu2sWbR.s:8027   .debug_str:00000cf2 .LASF73
C:\Users\Andrea\AppData\Local\Temp\ccu2sWbR.s:8029   .debug_str:00000d05 .LASF74
C:\Users\Andrea\AppData\Local\Temp\ccu2sWbR.s:7865   .debug_str:00000696 .LASF75
C:\Users\Andrea\AppData\Local\Temp\ccu2sWbR.s:7867   .debug_str:000006a9 .LASF76
C:\Users\Andrea\AppData\Local\Temp\ccu2sWbR.s:8103   .debug_str:00001060 .LASF77
C:\Users\Andrea\AppData\Local\Temp\ccu2sWbR.s:8021   .debug_str:00000cb9 .LASF78
C:\Users\Andrea\AppData\Local\Temp\ccu2sWbR.s:8039   .debug_str:00000d6e .LASF79
C:\Users\Andrea\AppData\Local\Temp\ccu2sWbR.s:8041   .debug_str:00000d83 .LASF80
C:\Users\Andrea\AppData\Local\Temp\ccu2sWbR.s:8051   .debug_str:00000e1b .LASF81
C:\Users\Andrea\AppData\Local\Temp\ccu2sWbR.s:7883   .debug_str:00000758 .LASF82
C:\Users\Andrea\AppData\Local\Temp\ccu2sWbR.s:8097   .debug_str:0000100a .LASF83
C:\Users\Andrea\AppData\Local\Temp\ccu2sWbR.s:7761   .debug_str:000001ef .LASF84
C:\Users\Andrea\AppData\Local\Temp\ccu2sWbR.s:7983   .debug_str:00000afe .LASF85
C:\Users\Andrea\AppData\Local\Temp\ccu2sWbR.s:8123   .debug_str:00001119 .LASF86
C:\Users\Andrea\AppData\Local\Temp\ccu2sWbR.s:7943   .debug_str:00000969 .LASF87
C:\Users\Andrea\AppData\Local\Temp\ccu2sWbR.s:7985   .debug_str:00000b34 .LASF88
C:\Users\Andrea\AppData\Local\Temp\ccu2sWbR.s:8163   .debug_str:000012de .LASF89
C:\Users\Andrea\AppData\Local\Temp\ccu2sWbR.s:7907   .debug_str:0000081e .LASF90
C:\Users\Andrea\AppData\Local\Temp\ccu2sWbR.s:7909   .debug_str:00000835 .LASF91
C:\Users\Andrea\AppData\Local\Temp\ccu2sWbR.s:7911   .debug_str:0000084c .LASF92
C:\Users\Andrea\AppData\Local\Temp\ccu2sWbR.s:7913   .debug_str:00000863 .LASF93
C:\Users\Andrea\AppData\Local\Temp\ccu2sWbR.s:7915   .debug_str:0000087a .LASF94
C:\Users\Andrea\AppData\Local\Temp\ccu2sWbR.s:7815   .debug_str:00000473 .LASF95
C:\Users\Andrea\AppData\Local\Temp\ccu2sWbR.s:7919   .debug_str:000008a6 .LASF96
C:\Users\Andrea\AppData\Local\Temp\ccu2sWbR.s:7921   .debug_str:000008bd .LASF97
C:\Users\Andrea\AppData\Local\Temp\ccu2sWbR.s:7999   .debug_str:00000bd7 .LASF98
C:\Users\Andrea\AppData\Local\Temp\ccu2sWbR.s:8001   .debug_str:00000bef .LASF99
C:\Users\Andrea\AppData\Local\Temp\ccu2sWbR.s:8003   .debug_str:00000c07 .LASF100
C:\Users\Andrea\AppData\Local\Temp\ccu2sWbR.s:8007   .debug_str:00000c29 .LASF101
C:\Users\Andrea\AppData\Local\Temp\ccu2sWbR.s:7795   .debug_str:00000376 .LASF102
C:\Users\Andrea\AppData\Local\Temp\ccu2sWbR.s:8011   .debug_str:00000c54 .LASF103
C:\Users\Andrea\AppData\Local\Temp\ccu2sWbR.s:8013   .debug_str:00000c6c .LASF104
C:\Users\Andrea\AppData\Local\Temp\ccu2sWbR.s:8015   .debug_str:00000c84 .LASF105
C:\Users\Andrea\AppData\Local\Temp\ccu2sWbR.s:7835   .debug_str:00000512 .LASF106
C:\Users\Andrea\AppData\Local\Temp\ccu2sWbR.s:7837   .debug_str:0000052b .LASF107
C:\Users\Andrea\AppData\Local\Temp\ccu2sWbR.s:7839   .debug_str:00000544 .LASF108
C:\Users\Andrea\AppData\Local\Temp\ccu2sWbR.s:7841   .debug_str:0000055d .LASF109
C:\Users\Andrea\AppData\Local\Temp\ccu2sWbR.s:7843   .debug_str:00000576 .LASF110
C:\Users\Andrea\AppData\Local\Temp\ccu2sWbR.s:8061   .debug_str:00000e78 .LASF111
C:\Users\Andrea\AppData\Local\Temp\ccu2sWbR.s:7845   .debug_str:0000058f .LASF112
C:\Users\Andrea\AppData\Local\Temp\ccu2sWbR.s:7847   .debug_str:000005a8 .LASF113
C:\Users\Andrea\AppData\Local\Temp\ccu2sWbR.s:7871   .debug_str:000006d1 .LASF114
C:\Users\Andrea\AppData\Local\Temp\ccu2sWbR.s:7811   .debug_str:00000437 .LASF115
C:\Users\Andrea\AppData\Local\Temp\ccu2sWbR.s:7805   .debug_str:000003d7 .LASF116
C:\Users\Andrea\AppData\Local\Temp\ccu2sWbR.s:7857   .debug_str:0000061f .LASF117
C:\Users\Andrea\AppData\Local\Temp\ccu2sWbR.s:8031   .debug_str:00000d18 .LASF118
C:\Users\Andrea\AppData\Local\Temp\ccu2sWbR.s:8009   .debug_str:00000c41 .LASF119
C:\Users\Andrea\AppData\Local\Temp\ccu2sWbR.s:7971   .debug_str:00000a90 .LASF120
C:\Users\Andrea\AppData\Local\Temp\ccu2sWbR.s:7977   .debug_str:00000ab1 .LASF121
C:\Users\Andrea\AppData\Local\Temp\ccu2sWbR.s:7769   .debug_str:00000249 .LASF122
C:\Users\Andrea\AppData\Local\Temp\ccu2sWbR.s:8189   .debug_str:000013fb .LASF123
C:\Users\Andrea\AppData\Local\Temp\ccu2sWbR.s:8115   .debug_str:000010cd .LASF124
C:\Users\Andrea\AppData\Local\Temp\ccu2sWbR.s:7893   .debug_str:000007d3 .LASF125
C:\Users\Andrea\AppData\Local\Temp\ccu2sWbR.s:7969   .debug_str:00000a6b .LASF126
C:\Users\Andrea\AppData\Local\Temp\ccu2sWbR.s:7875   .debug_str:0000070d .LASF127
C:\Users\Andrea\AppData\Local\Temp\ccu2sWbR.s:7733   .debug_str:000000c2 .LASF128
C:\Users\Andrea\AppData\Local\Temp\ccu2sWbR.s:7863   .debug_str:00000672 .LASF129
C:\Users\Andrea\AppData\Local\Temp\ccu2sWbR.s:7979   .debug_str:00000ac0 .LASF130
C:\Users\Andrea\AppData\Local\Temp\ccu2sWbR.s:8161   .debug_str:000012c4 .LASF131
C:\Users\Andrea\AppData\Local\Temp\ccu2sWbR.s:7945   .debug_str:0000099e .LASF132
C:\Users\Andrea\AppData\Local\Temp\ccu2sWbR.s:8135   .debug_str:000011c2 .LASF133
C:\Users\Andrea\AppData\Local\Temp\ccu2sWbR.s:7723   .debug_str:00000047 .LASF134
C:\Users\Andrea\AppData\Local\Temp\ccu2sWbR.s:7825   .debug_str:000004b7 .LASF135
C:\Users\Andrea\AppData\Local\Temp\ccu2sWbR.s:7783   .debug_str:00000303 .LASF136
C:\Users\Andrea\AppData\Local\Temp\ccu2sWbR.s:8175   .debug_str:0000135e .LASF137
C:\Users\Andrea\AppData\Local\Temp\ccu2sWbR.s:8079   .debug_str:00000f6a .LASF138
C:\Users\Andrea\AppData\Local\Temp\ccu2sWbR.s:7725   .debug_str:0000006c .LASF139
C:\Users\Andrea\AppData\Local\Temp\ccu2sWbR.s:7925   .debug_str:000008e9 .LASF140
C:\Users\Andrea\AppData\Local\Temp\ccu2sWbR.s:8077   .debug_str:00000f49 .LASF141
C:\Users\Andrea\AppData\Local\Temp\ccu2sWbR.s:8067   .debug_str:00000ec1 .LASF142
C:\Users\Andrea\AppData\Local\Temp\ccu2sWbR.s:7861   .debug_str:0000064f .LASF143
C:\Users\Andrea\AppData\Local\Temp\ccu2sWbR.s:8145   .debug_str:0000122e .LASF144
C:\Users\Andrea\AppData\Local\Temp\ccu2sWbR.s:8133   .debug_str:00001193 .LASF145
C:\Users\Andrea\AppData\Local\Temp\ccu2sWbR.s:7853   .debug_str:000005ec .LASF146
C:\Users\Andrea\AppData\Local\Temp\ccu2sWbR.s:7777   .debug_str:000002a7 .LASF147
C:\Users\Andrea\AppData\Local\Temp\ccu2sWbR.s:8073   .debug_str:00000f03 .LASF148
C:\Users\Andrea\AppData\Local\Temp\ccu2sWbR.s:8081   .debug_str:00000f89 .LASF149
C:\Users\Andrea\AppData\Local\Temp\ccu2sWbR.s:7859   .debug_str:00000634 .LASF150
C:\Users\Andrea\AppData\Local\Temp\ccu2sWbR.s:7889   .debug_str:000007a9 .LASF151
C:\Users\Andrea\AppData\Local\Temp\ccu2sWbR.s:8173   .debug_str:00001344 .LASF152
C:\Users\Andrea\AppData\Local\Temp\ccu2sWbR.s:8019   .debug_str:00000ca1 .LASF153
C:\Users\Andrea\AppData\Local\Temp\ccu2sWbR.s:7773   .debug_str:0000027f .LASF154
C:\Users\Andrea\AppData\Local\Temp\ccu2sWbR.s:7879   .debug_str:00000730 .LASF155
C:\Users\Andrea\AppData\Local\Temp\ccu2sWbR.s:7727   .debug_str:00000086 .LASF156
C:\Users\Andrea\AppData\Local\Temp\ccu2sWbR.s:8177   .debug_str:00001382 .LASF157
C:\Users\Andrea\AppData\Local\Temp\ccu2sWbR.s:8049   .debug_str:00000e06 .LASF158
C:\Users\Andrea\AppData\Local\Temp\ccu2sWbR.s:8025   .debug_str:00000cd9 .LASF159
C:\Users\Andrea\AppData\Local\Temp\ccu2sWbR.s:8155   .debug_str:00001296 .LASF160
C:\Users\Andrea\AppData\Local\Temp\ccu2sWbR.s:8131   .debug_str:0000117a .LASF161
C:\Users\Andrea\AppData\Local\Temp\ccu2sWbR.s:7729   .debug_str:000000a1 .LASF162
C:\Users\Andrea\AppData\Local\Temp\ccu2sWbR.s:7801   .debug_str:000003a8 .LASF163
C:\Users\Andrea\AppData\Local\Temp\ccu2sWbR.s:8129   .debug_str:0000116f .LASF164
C:\Users\Andrea\AppData\Local\Temp\ccu2sWbR.s:7771   .debug_str:00000266 .LASF165
C:\Users\Andrea\AppData\Local\Temp\ccu2sWbR.s:21     .text.INT_Excep_SuperVisorInst:0000000d .LFE0
C:\Users\Andrea\AppData\Local\Temp\ccu2sWbR.s:6738   .debug_loc:00000000 .LLST0
C:\Users\Andrea\AppData\Local\Temp\ccu2sWbR.s:17     .text.INT_Excep_SuperVisorInst:00000009 .LVL0
C:\Users\Andrea\AppData\Local\Temp\ccu2sWbR.s:7745   .debug_str:0000014e .LASF166
C:\Users\Andrea\AppData\Local\Temp\ccu2sWbR.s:39     .text.INT_Excep_UndefinedInst:0000000d .LFE1
C:\Users\Andrea\AppData\Local\Temp\ccu2sWbR.s:6751   .debug_loc:00000021 .LLST1
C:\Users\Andrea\AppData\Local\Temp\ccu2sWbR.s:35     .text.INT_Excep_UndefinedInst:00000009 .LVL1
C:\Users\Andrea\AppData\Local\Temp\ccu2sWbR.s:7735   .debug_str:000000dc .LASF167
C:\Users\Andrea\AppData\Local\Temp\ccu2sWbR.s:57     .text.INT_NonMaskableInterrupt:0000000d .LFE2
C:\Users\Andrea\AppData\Local\Temp\ccu2sWbR.s:6764   .debug_loc:00000042 .LLST2
C:\Users\Andrea\AppData\Local\Temp\ccu2sWbR.s:53     .text.INT_NonMaskableInterrupt:00000009 .LVL2
C:\Users\Andrea\AppData\Local\Temp\ccu2sWbR.s:8055   .debug_str:00000e53 .LASF236
C:\Users\Andrea\AppData\Local\Temp\ccu2sWbR.s:68     .text.DummyFunc:00000002 .LFE3
C:\Users\Andrea\AppData\Local\Temp\ccu2sWbR.s:7929   .debug_str:0000090c .LASF168
C:\Users\Andrea\AppData\Local\Temp\ccu2sWbR.s:121    .text.INT_Excep_IRQ0:0000004a .LFE4
C:\Users\Andrea\AppData\Local\Temp\ccu2sWbR.s:6777   .debug_loc:00000063 .LLST3
C:\Users\Andrea\AppData\Local\Temp\ccu2sWbR.s:81     .text.INT_Excep_IRQ0:00000006 .LVL3
C:\Users\Andrea\AppData\Local\Temp\ccu2sWbR.s:94     .text.INT_Excep_IRQ0:00000026 .LVL4
C:\Users\Andrea\AppData\Local\Temp\ccu2sWbR.s:110    .text.INT_Excep_IRQ0:00000041 .LVL5
C:\Users\Andrea\AppData\Local\Temp\ccu2sWbR.s:7931   .debug_str:0000091b .LASF169
C:\Users\Andrea\AppData\Local\Temp\ccu2sWbR.s:174    .text.INT_Excep_IRQ1:0000004a .LFE5
C:\Users\Andrea\AppData\Local\Temp\ccu2sWbR.s:6790   .debug_loc:00000084 .LLST4
C:\Users\Andrea\AppData\Local\Temp\ccu2sWbR.s:134    .text.INT_Excep_IRQ1:00000006 .LVL6
C:\Users\Andrea\AppData\Local\Temp\ccu2sWbR.s:147    .text.INT_Excep_IRQ1:00000026 .LVL7
C:\Users\Andrea\AppData\Local\Temp\ccu2sWbR.s:163    .text.INT_Excep_IRQ1:00000041 .LVL8
C:\Users\Andrea\AppData\Local\Temp\ccu2sWbR.s:7935   .debug_str:00000936 .LASF170
C:\Users\Andrea\AppData\Local\Temp\ccu2sWbR.s:227    .text.INT_Excep_IRQ5:0000004a .LFE6
C:\Users\Andrea\AppData\Local\Temp\ccu2sWbR.s:6803   .debug_loc:000000a5 .LLST5
C:\Users\Andrea\AppData\Local\Temp\ccu2sWbR.s:187    .text.INT_Excep_IRQ5:00000006 .LVL9
C:\Users\Andrea\AppData\Local\Temp\ccu2sWbR.s:200    .text.INT_Excep_IRQ5:00000026 .LVL10
C:\Users\Andrea\AppData\Local\Temp\ccu2sWbR.s:216    .text.INT_Excep_IRQ5:00000041 .LVL11
C:\Users\Andrea\AppData\Local\Temp\ccu2sWbR.s:7937   .debug_str:00000945 .LASF171
C:\Users\Andrea\AppData\Local\Temp\ccu2sWbR.s:280    .text.INT_Excep_IRQ6:0000004a .LFE7
C:\Users\Andrea\AppData\Local\Temp\ccu2sWbR.s:6816   .debug_loc:000000c6 .LLST6
C:\Users\Andrea\AppData\Local\Temp\ccu2sWbR.s:240    .text.INT_Excep_IRQ6:00000006 .LVL12
C:\Users\Andrea\AppData\Local\Temp\ccu2sWbR.s:253    .text.INT_Excep_IRQ6:00000026 .LVL13
C:\Users\Andrea\AppData\Local\Temp\ccu2sWbR.s:269    .text.INT_Excep_IRQ6:00000041 .LVL14
C:\Users\Andrea\AppData\Local\Temp\ccu2sWbR.s:8149   .debug_str:00001270 .LASF172
C:\Users\Andrea\AppData\Local\Temp\ccu2sWbR.s:297    .text.INT_Excep_LVD1:0000000a .LFE8
C:\Users\Andrea\AppData\Local\Temp\ccu2sWbR.s:6829   .debug_loc:000000e7 .LLST7
C:\Users\Andrea\AppData\Local\Temp\ccu2sWbR.s:293    .text.INT_Excep_LVD1:00000006 .LVL15
C:\Users\Andrea\AppData\Local\Temp\ccu2sWbR.s:8151   .debug_str:0000127f .LASF173
C:\Users\Andrea\AppData\Local\Temp\ccu2sWbR.s:314    .text.INT_Excep_LVD2:0000000a .LFE9
C:\Users\Andrea\AppData\Local\Temp\ccu2sWbR.s:6842   .debug_loc:00000108 .LLST8
C:\Users\Andrea\AppData\Local\Temp\ccu2sWbR.s:310    .text.INT_Excep_LVD2:00000006 .LVL16
C:\Users\Andrea\AppData\Local\Temp\ccu2sWbR.s:8127   .debug_str:0000115a .LASF174
C:\Users\Andrea\AppData\Local\Temp\ccu2sWbR.s:379    .text.INT_Excep_MTU0_TGIA0:0000005a .LFE10
C:\Users\Andrea\AppData\Local\Temp\ccu2sWbR.s:6855   .debug_loc:00000129 .LLST9
C:\Users\Andrea\AppData\Local\Temp\ccu2sWbR.s:6868   .debug_loc:0000014a .LLST10
C:\Users\Andrea\AppData\Local\Temp\ccu2sWbR.s:328    .text.INT_Excep_MTU0_TGIA0:00000006 .LVL18
C:\Users\Andrea\AppData\Local\Temp\ccu2sWbR.s:343    .text.INT_Excep_MTU0_TGIA0:0000002a .LVL19
C:\Users\Andrea\AppData\Local\Temp\ccu2sWbR.s:365    .text.INT_Excep_MTU0_TGIA0:00000049 .LVL20
C:\Users\Andrea\AppData\Local\Temp\ccu2sWbR.s:7717   .debug_str:00000015 .LASF175
C:\Users\Andrea\AppData\Local\Temp\ccu2sWbR.s:444    .text.INT_Excep_MTU0_TGIC0:0000005a .LFE11
C:\Users\Andrea\AppData\Local\Temp\ccu2sWbR.s:6884   .debug_loc:00000174 .LLST11
C:\Users\Andrea\AppData\Local\Temp\ccu2sWbR.s:6897   .debug_loc:00000195 .LLST12
C:\Users\Andrea\AppData\Local\Temp\ccu2sWbR.s:393    .text.INT_Excep_MTU0_TGIC0:00000006 .LVL24
C:\Users\Andrea\AppData\Local\Temp\ccu2sWbR.s:408    .text.INT_Excep_MTU0_TGIC0:0000002a .LVL25
C:\Users\Andrea\AppData\Local\Temp\ccu2sWbR.s:430    .text.INT_Excep_MTU0_TGIC0:00000049 .LVL26
C:\Users\Andrea\AppData\Local\Temp\ccu2sWbR.s:7753   .debug_str:00000198 .LASF176
C:\Users\Andrea\AppData\Local\Temp\ccu2sWbR.s:477    .text.INT_Excep_MTU0_TGID0:00000020 .LFE12
C:\Users\Andrea\AppData\Local\Temp\ccu2sWbR.s:6913   .debug_loc:000001bf .LLST13
C:\Users\Andrea\AppData\Local\Temp\ccu2sWbR.s:458    .text.INT_Excep_MTU0_TGID0:00000008 .LVL29
C:\Users\Andrea\AppData\Local\Temp\ccu2sWbR.s:465    .text.INT_Excep_MTU0_TGID0:00000013 .LVL30
C:\Users\Andrea\AppData\Local\Temp\ccu2sWbR.s:471    .text.INT_Excep_MTU0_TGID0:0000001b .LVL31
C:\Users\Andrea\AppData\Local\Temp\ccu2sWbR.s:7833   .debug_str:000004fd .LASF177
C:\Users\Andrea\AppData\Local\Temp\ccu2sWbR.s:540    .text.INT_Excep_MTU0_TCIV0:00000056 .LFE13
C:\Users\Andrea\AppData\Local\Temp\ccu2sWbR.s:6926   .debug_loc:000001e0 .LLST14
C:\Users\Andrea\AppData\Local\Temp\ccu2sWbR.s:6939   .debug_loc:00000201 .LLST15
C:\Users\Andrea\AppData\Local\Temp\ccu2sWbR.s:491    .text.INT_Excep_MTU0_TCIV0:00000006 .LVL33
C:\Users\Andrea\AppData\Local\Temp\ccu2sWbR.s:504    .text.INT_Excep_MTU0_TCIV0:00000026 .LVL34
C:\Users\Andrea\AppData\Local\Temp\ccu2sWbR.s:526    .text.INT_Excep_MTU0_TCIV0:00000045 .LVL35
C:\Users\Andrea\AppData\Local\Temp\ccu2sWbR.s:7785   .debug_str:00000327 .LASF178
C:\Users\Andrea\AppData\Local\Temp\ccu2sWbR.s:558    .text.INT_Excep_MTU0_TGIE0:0000000d .LFE14
C:\Users\Andrea\AppData\Local\Temp\ccu2sWbR.s:6955   .debug_loc:0000022b .LLST16
C:\Users\Andrea\AppData\Local\Temp\ccu2sWbR.s:554    .text.INT_Excep_MTU0_TGIE0:00000009 .LVL38
C:\Users\Andrea\AppData\Local\Temp\ccu2sWbR.s:7803   .debug_str:000003c2 .LASF179
C:\Users\Andrea\AppData\Local\Temp\ccu2sWbR.s:576    .text.INT_Excep_MTU0_TGIF0:0000000d .LFE15
C:\Users\Andrea\AppData\Local\Temp\ccu2sWbR.s:6968   .debug_loc:0000024c .LLST17
C:\Users\Andrea\AppData\Local\Temp\ccu2sWbR.s:572    .text.INT_Excep_MTU0_TGIF0:00000009 .LVL39
C:\Users\Andrea\AppData\Local\Temp\ccu2sWbR.s:7917   .debug_str:00000891 .LASF180
C:\Users\Andrea\AppData\Local\Temp\ccu2sWbR.s:641    .text.INT_Excep_MTU1_TGIA1:0000005a .LFE16
C:\Users\Andrea\AppData\Local\Temp\ccu2sWbR.s:6981   .debug_loc:0000026d .LLST18
C:\Users\Andrea\AppData\Local\Temp\ccu2sWbR.s:6994   .debug_loc:0000028e .LLST19
C:\Users\Andrea\AppData\Local\Temp\ccu2sWbR.s:590    .text.INT_Excep_MTU1_TGIA1:00000006 .LVL41
C:\Users\Andrea\AppData\Local\Temp\ccu2sWbR.s:605    .text.INT_Excep_MTU1_TGIA1:0000002a .LVL42
C:\Users\Andrea\AppData\Local\Temp\ccu2sWbR.s:627    .text.INT_Excep_MTU1_TGIA1:00000049 .LVL43
C:\Users\Andrea\AppData\Local\Temp\ccu2sWbR.s:7951   .debug_str:000009da .LASF181
C:\Users\Andrea\AppData\Local\Temp\ccu2sWbR.s:673    .text.INT_Excep_MTU1_TGIB1:0000001e .LFE17
C:\Users\Andrea\AppData\Local\Temp\ccu2sWbR.s:7010   .debug_loc:000002b8 .LLST20
C:\Users\Andrea\AppData\Local\Temp\ccu2sWbR.s:655    .text.INT_Excep_MTU1_TGIB1:00000008 .LVL46
C:\Users\Andrea\AppData\Local\Temp\ccu2sWbR.s:661    .text.INT_Excep_MTU1_TGIB1:00000011 .LVL47
C:\Users\Andrea\AppData\Local\Temp\ccu2sWbR.s:667    .text.INT_Excep_MTU1_TGIB1:00000019 .LVL48
C:\Users\Andrea\AppData\Local\Temp\ccu2sWbR.s:7957   .debug_str:00000a04 .LASF182
C:\Users\Andrea\AppData\Local\Temp\ccu2sWbR.s:736    .text.INT_Excep_MTU1_TCIV1:00000056 .LFE18
C:\Users\Andrea\AppData\Local\Temp\ccu2sWbR.s:7023   .debug_loc:000002d9 .LLST21
C:\Users\Andrea\AppData\Local\Temp\ccu2sWbR.s:7036   .debug_loc:000002fa .LLST22
C:\Users\Andrea\AppData\Local\Temp\ccu2sWbR.s:687    .text.INT_Excep_MTU1_TCIV1:00000006 .LVL50
C:\Users\Andrea\AppData\Local\Temp\ccu2sWbR.s:700    .text.INT_Excep_MTU1_TCIV1:00000026 .LVL51
C:\Users\Andrea\AppData\Local\Temp\ccu2sWbR.s:722    .text.INT_Excep_MTU1_TCIV1:00000045 .LVL52
C:\Users\Andrea\AppData\Local\Temp\ccu2sWbR.s:7923   .debug_str:000008d4 .LASF183
C:\Users\Andrea\AppData\Local\Temp\ccu2sWbR.s:754    .text.INT_Excep_MTU1_TCIU1:0000000d .LFE19
C:\Users\Andrea\AppData\Local\Temp\ccu2sWbR.s:7052   .debug_loc:00000324 .LLST23
C:\Users\Andrea\AppData\Local\Temp\ccu2sWbR.s:750    .text.INT_Excep_MTU1_TCIU1:00000009 .LVL55
C:\Users\Andrea\AppData\Local\Temp\ccu2sWbR.s:7715   .debug_str:00000000 .LASF184
C:\Users\Andrea\AppData\Local\Temp\ccu2sWbR.s:819    .text.INT_Excep_MTU2_TGIA2:0000005a .LFE20
C:\Users\Andrea\AppData\Local\Temp\ccu2sWbR.s:7065   .debug_loc:00000345 .LLST24
C:\Users\Andrea\AppData\Local\Temp\ccu2sWbR.s:7078   .debug_loc:00000366 .LLST25
C:\Users\Andrea\AppData\Local\Temp\ccu2sWbR.s:768    .text.INT_Excep_MTU2_TGIA2:00000006 .LVL57
C:\Users\Andrea\AppData\Local\Temp\ccu2sWbR.s:783    .text.INT_Excep_MTU2_TGIA2:0000002a .LVL58
C:\Users\Andrea\AppData\Local\Temp\ccu2sWbR.s:805    .text.INT_Excep_MTU2_TGIA2:00000049 .LVL59
C:\Users\Andrea\AppData\Local\Temp\ccu2sWbR.s:7751   .debug_str:00000183 .LASF185
C:\Users\Andrea\AppData\Local\Temp\ccu2sWbR.s:852    .text.INT_Excep_MTU2_TGIB2:00000020 .LFE21
C:\Users\Andrea\AppData\Local\Temp\ccu2sWbR.s:7094   .debug_loc:00000390 .LLST26
C:\Users\Andrea\AppData\Local\Temp\ccu2sWbR.s:833    .text.INT_Excep_MTU2_TGIB2:00000008 .LVL62
C:\Users\Andrea\AppData\Local\Temp\ccu2sWbR.s:840    .text.INT_Excep_MTU2_TGIB2:00000013 .LVL63
C:\Users\Andrea\AppData\Local\Temp\ccu2sWbR.s:846    .text.INT_Excep_MTU2_TGIB2:0000001b .LVL64
C:\Users\Andrea\AppData\Local\Temp\ccu2sWbR.s:7755   .debug_str:000001ad .LASF186
C:\Users\Andrea\AppData\Local\Temp\ccu2sWbR.s:915    .text.INT_Excep_MTU2_TCIV2:00000056 .LFE22
C:\Users\Andrea\AppData\Local\Temp\ccu2sWbR.s:7107   .debug_loc:000003b1 .LLST27
C:\Users\Andrea\AppData\Local\Temp\ccu2sWbR.s:7120   .debug_loc:000003d2 .LLST28
C:\Users\Andrea\AppData\Local\Temp\ccu2sWbR.s:866    .text.INT_Excep_MTU2_TCIV2:00000006 .LVL66
C:\Users\Andrea\AppData\Local\Temp\ccu2sWbR.s:879    .text.INT_Excep_MTU2_TCIV2:00000026 .LVL67
C:\Users\Andrea\AppData\Local\Temp\ccu2sWbR.s:901    .text.INT_Excep_MTU2_TCIV2:00000045 .LVL68
C:\Users\Andrea\AppData\Local\Temp\ccu2sWbR.s:7721   .debug_str:00000032 .LASF187
C:\Users\Andrea\AppData\Local\Temp\ccu2sWbR.s:933    .text.INT_Excep_MTU2_TCIU2:0000000d .LFE23
C:\Users\Andrea\AppData\Local\Temp\ccu2sWbR.s:7136   .debug_loc:000003fc .LLST29
C:\Users\Andrea\AppData\Local\Temp\ccu2sWbR.s:929    .text.INT_Excep_MTU2_TCIU2:00000009 .LVL71
C:\Users\Andrea\AppData\Local\Temp\ccu2sWbR.s:7987   .debug_str:00000b69 .LASF188
C:\Users\Andrea\AppData\Local\Temp\ccu2sWbR.s:998    .text.INT_Excep_MTU3_TGIA3:0000005a .LFE24
C:\Users\Andrea\AppData\Local\Temp\ccu2sWbR.s:7149   .debug_loc:0000041d .LLST30
C:\Users\Andrea\AppData\Local\Temp\ccu2sWbR.s:7162   .debug_loc:0000043e .LLST31
C:\Users\Andrea\AppData\Local\Temp\ccu2sWbR.s:947    .text.INT_Excep_MTU3_TGIA3:00000006 .LVL73
C:\Users\Andrea\AppData\Local\Temp\ccu2sWbR.s:962    .text.INT_Excep_MTU3_TGIA3:0000002a .LVL74
C:\Users\Andrea\AppData\Local\Temp\ccu2sWbR.s:984    .text.INT_Excep_MTU3_TGIA3:00000049 .LVL75
C:\Users\Andrea\AppData\Local\Temp\ccu2sWbR.s:8033   .debug_str:00000d33 .LASF189
C:\Users\Andrea\AppData\Local\Temp\ccu2sWbR.s:1031   .text.INT_Excep_MTU3_TGIB3:00000020 .LFE25
C:\Users\Andrea\AppData\Local\Temp\ccu2sWbR.s:7178   .debug_loc:00000468 .LLST32
C:\Users\Andrea\AppData\Local\Temp\ccu2sWbR.s:1012   .text.INT_Excep_MTU3_TGIB3:00000008 .LVL78
C:\Users\Andrea\AppData\Local\Temp\ccu2sWbR.s:1019   .text.INT_Excep_MTU3_TGIB3:00000013 .LVL79
C:\Users\Andrea\AppData\Local\Temp\ccu2sWbR.s:1025   .text.INT_Excep_MTU3_TGIB3:0000001b .LVL80
C:\Users\Andrea\AppData\Local\Temp\ccu2sWbR.s:8117   .debug_str:000010e9 .LASF190
C:\Users\Andrea\AppData\Local\Temp\ccu2sWbR.s:1096   .text.INT_Excep_MTU3_TGIC3:0000005a .LFE26
C:\Users\Andrea\AppData\Local\Temp\ccu2sWbR.s:7191   .debug_loc:00000489 .LLST33
C:\Users\Andrea\AppData\Local\Temp\ccu2sWbR.s:7204   .debug_loc:000004aa .LLST34
C:\Users\Andrea\AppData\Local\Temp\ccu2sWbR.s:1045   .text.INT_Excep_MTU3_TGIC3:00000006 .LVL82
C:\Users\Andrea\AppData\Local\Temp\ccu2sWbR.s:1060   .text.INT_Excep_MTU3_TGIC3:0000002a .LVL83
C:\Users\Andrea\AppData\Local\Temp\ccu2sWbR.s:1082   .text.INT_Excep_MTU3_TGIC3:00000049 .LVL84
C:\Users\Andrea\AppData\Local\Temp\ccu2sWbR.s:8035   .debug_str:00000d48 .LASF191
C:\Users\Andrea\AppData\Local\Temp\ccu2sWbR.s:1159   .text.INT_Excep_MTU3_TCIV3:00000056 .LFE27
C:\Users\Andrea\AppData\Local\Temp\ccu2sWbR.s:7220   .debug_loc:000004d4 .LLST35
C:\Users\Andrea\AppData\Local\Temp\ccu2sWbR.s:7233   .debug_loc:000004f5 .LLST36
C:\Users\Andrea\AppData\Local\Temp\ccu2sWbR.s:1110   .text.INT_Excep_MTU3_TCIV3:00000006 .LVL88
C:\Users\Andrea\AppData\Local\Temp\ccu2sWbR.s:1123   .text.INT_Excep_MTU3_TCIV3:00000026 .LVL89
C:\Users\Andrea\AppData\Local\Temp\ccu2sWbR.s:1145   .text.INT_Excep_MTU3_TCIV3:00000045 .LVL90
C:\Users\Andrea\AppData\Local\Temp\ccu2sWbR.s:7781   .debug_str:000002ee .LASF192
C:\Users\Andrea\AppData\Local\Temp\ccu2sWbR.s:1224   .text.INT_Excep_MTU4_TGIA4:0000005a .LFE28
C:\Users\Andrea\AppData\Local\Temp\ccu2sWbR.s:7249   .debug_loc:0000051f .LLST37
C:\Users\Andrea\AppData\Local\Temp\ccu2sWbR.s:7262   .debug_loc:00000540 .LLST38
C:\Users\Andrea\AppData\Local\Temp\ccu2sWbR.s:1173   .text.INT_Excep_MTU4_TGIA4:00000006 .LVL94
C:\Users\Andrea\AppData\Local\Temp\ccu2sWbR.s:1188   .text.INT_Excep_MTU4_TGIA4:0000002a .LVL95
C:\Users\Andrea\AppData\Local\Temp\ccu2sWbR.s:1210   .text.INT_Excep_MTU4_TGIA4:00000049 .LVL96
C:\Users\Andrea\AppData\Local\Temp\ccu2sWbR.s:7831   .debug_str:000004e8 .LASF193
C:\Users\Andrea\AppData\Local\Temp\ccu2sWbR.s:1289   .text.INT_Excep_MTU4_TGIC4:0000005a .LFE29
C:\Users\Andrea\AppData\Local\Temp\ccu2sWbR.s:7278   .debug_loc:0000056a .LLST39
C:\Users\Andrea\AppData\Local\Temp\ccu2sWbR.s:7291   .debug_loc:0000058b .LLST40
C:\Users\Andrea\AppData\Local\Temp\ccu2sWbR.s:1238   .text.INT_Excep_MTU4_TGIC4:00000006 .LVL100
C:\Users\Andrea\AppData\Local\Temp\ccu2sWbR.s:1253   .text.INT_Excep_MTU4_TGIC4:0000002a .LVL101
C:\Users\Andrea\AppData\Local\Temp\ccu2sWbR.s:1275   .text.INT_Excep_MTU4_TGIC4:00000049 .LVL102
C:\Users\Andrea\AppData\Local\Temp\ccu2sWbR.s:7869   .debug_str:000006bc .LASF194
C:\Users\Andrea\AppData\Local\Temp\ccu2sWbR.s:1322   .text.INT_Excep_MTU4_TGID4:00000020 .LFE30
C:\Users\Andrea\AppData\Local\Temp\ccu2sWbR.s:7307   .debug_loc:000005b5 .LLST41
C:\Users\Andrea\AppData\Local\Temp\ccu2sWbR.s:1303   .text.INT_Excep_MTU4_TGID4:00000008 .LVL105
C:\Users\Andrea\AppData\Local\Temp\ccu2sWbR.s:1310   .text.INT_Excep_MTU4_TGID4:00000013 .LVL106
C:\Users\Andrea\AppData\Local\Temp\ccu2sWbR.s:1316   .text.INT_Excep_MTU4_TGID4:0000001b .LVL107
C:\Users\Andrea\AppData\Local\Temp\ccu2sWbR.s:7809   .debug_str:00000422 .LASF195
C:\Users\Andrea\AppData\Local\Temp\ccu2sWbR.s:1385   .text.INT_Excep_MTU4_TCIV4:00000056 .LFE31
C:\Users\Andrea\AppData\Local\Temp\ccu2sWbR.s:7320   .debug_loc:000005d6 .LLST42
C:\Users\Andrea\AppData\Local\Temp\ccu2sWbR.s:7333   .debug_loc:000005f7 .LLST43
C:\Users\Andrea\AppData\Local\Temp\ccu2sWbR.s:1336   .text.INT_Excep_MTU4_TCIV4:00000006 .LVL109
C:\Users\Andrea\AppData\Local\Temp\ccu2sWbR.s:1349   .text.INT_Excep_MTU4_TCIV4:00000026 .LVL110
C:\Users\Andrea\AppData\Local\Temp\ccu2sWbR.s:1371   .text.INT_Excep_MTU4_TCIV4:00000045 .LVL111
C:\Users\Andrea\AppData\Local\Temp\ccu2sWbR.s:8075   .debug_str:00000f34 .LASF196
C:\Users\Andrea\AppData\Local\Temp\ccu2sWbR.s:1403   .text.INT_Excep_MTU5_TGIU5:0000000d .LFE32
C:\Users\Andrea\AppData\Local\Temp\ccu2sWbR.s:7349   .debug_loc:00000621 .LLST44
C:\Users\Andrea\AppData\Local\Temp\ccu2sWbR.s:1399   .text.INT_Excep_MTU5_TGIU5:00000009 .LVL114
C:\Users\Andrea\AppData\Local\Temp\ccu2sWbR.s:7759   .debug_str:000001da .LASF197
C:\Users\Andrea\AppData\Local\Temp\ccu2sWbR.s:1421   .text.INT_Excep_MTU5_TGIV5:0000000d .LFE33
C:\Users\Andrea\AppData\Local\Temp\ccu2sWbR.s:7362   .debug_loc:00000642 .LLST45
C:\Users\Andrea\AppData\Local\Temp\ccu2sWbR.s:1417   .text.INT_Excep_MTU5_TGIV5:00000009 .LVL115
C:\Users\Andrea\AppData\Local\Temp\ccu2sWbR.s:7789   .debug_str:00000346 .LASF198
C:\Users\Andrea\AppData\Local\Temp\ccu2sWbR.s:1439   .text.INT_Excep_MTU5_TGIW5:0000000d .LFE34
C:\Users\Andrea\AppData\Local\Temp\ccu2sWbR.s:7375   .debug_loc:00000663 .LLST46
C:\Users\Andrea\AppData\Local\Temp\ccu2sWbR.s:1435   .text.INT_Excep_MTU5_TGIW5:00000009 .LVL116
C:\Users\Andrea\AppData\Local\Temp\ccu2sWbR.s:7747   .debug_str:00000166 .LASF199
C:\Users\Andrea\AppData\Local\Temp\ccu2sWbR.s:1456   .text.INT_Excep_SCI0_RXI0:0000000a .LFE35
C:\Users\Andrea\AppData\Local\Temp\ccu2sWbR.s:7388   .debug_loc:00000684 .LLST47
C:\Users\Andrea\AppData\Local\Temp\ccu2sWbR.s:1452   .text.INT_Excep_SCI0_RXI0:00000006 .LVL117
C:\Users\Andrea\AppData\Local\Temp\ccu2sWbR.s:8069   .debug_str:00000ee3 .LASF200
C:\Users\Andrea\AppData\Local\Temp\ccu2sWbR.s:1473   .text.INT_Excep_SCI1_RXI1:0000000a .LFE36
C:\Users\Andrea\AppData\Local\Temp\ccu2sWbR.s:7401   .debug_loc:000006a5 .LLST48
C:\Users\Andrea\AppData\Local\Temp\ccu2sWbR.s:1469   .text.INT_Excep_SCI1_RXI1:00000006 .LVL118
C:\Users\Andrea\AppData\Local\Temp\ccu2sWbR.s:7791   .debug_str:0000035b .LASF201
C:\Users\Andrea\AppData\Local\Temp\ccu2sWbR.s:1490   .text.INT_Excep_SCI5_RXI5:0000000a .LFE37
C:\Users\Andrea\AppData\Local\Temp\ccu2sWbR.s:7414   .debug_loc:000006c6 .LLST49
C:\Users\Andrea\AppData\Local\Temp\ccu2sWbR.s:1486   .text.INT_Excep_SCI5_RXI5:00000006 .LVL119
C:\Users\Andrea\AppData\Local\Temp\ccu2sWbR.s:8101   .debug_str:0000104c .LASF202
C:\Users\Andrea\AppData\Local\Temp\ccu2sWbR.s:1507   .text.INT_Excep_SCI5_TEI5:0000000a .LFE38
C:\Users\Andrea\AppData\Local\Temp\ccu2sWbR.s:7427   .debug_loc:000006e7 .LLST50
C:\Users\Andrea\AppData\Local\Temp\ccu2sWbR.s:1503   .text.INT_Excep_SCI5_TEI5:00000006 .LVL120
C:\Users\Andrea\AppData\Local\Temp\ccu2sWbR.s:7819   .debug_str:00000491 .LASF203
C:\Users\Andrea\AppData\Local\Temp\ccu2sWbR.s:1524   .text.INT_Excep_SCI12_RXI12:0000000a .LFE39
C:\Users\Andrea\AppData\Local\Temp\ccu2sWbR.s:7440   .debug_loc:00000708 .LLST51
C:\Users\Andrea\AppData\Local\Temp\ccu2sWbR.s:1520   .text.INT_Excep_SCI12_RXI12:00000006 .LVL121
C:\Users\Andrea\AppData\Local\Temp\ccu2sWbR.s:7989   .debug_str:00000b7e .LASF204
C:\Users\Andrea\AppData\Local\Temp\ccu2sWbR.s:1541   .text.INT_Excep_SCI12_TEI12:0000000a .LFE40
C:\Users\Andrea\AppData\Local\Temp\ccu2sWbR.s:7453   .debug_loc:00000729 .LLST52
C:\Users\Andrea\AppData\Local\Temp\ccu2sWbR.s:1537   .text.INT_Excep_SCI12_TEI12:00000006 .LVL122
C:\Users\Andrea\AppData\Local\Temp\ccu2sWbR.s:7927   .debug_str:00000900 .LASF205
C:\Users\Andrea\AppData\Local\Temp\ccu2sWbR.s:1594   .text.IIC0_RX_ISR:0000004a .LFE41
C:\Users\Andrea\AppData\Local\Temp\ccu2sWbR.s:7466   .debug_loc:0000074a .LLST53
C:\Users\Andrea\AppData\Local\Temp\ccu2sWbR.s:1554   .text.IIC0_RX_ISR:00000006 .LVL123
C:\Users\Andrea\AppData\Local\Temp\ccu2sWbR.s:1567   .text.IIC0_RX_ISR:00000026 .LVL124
C:\Users\Andrea\AppData\Local\Temp\ccu2sWbR.s:1583   .text.IIC0_RX_ISR:00000041 .LVL125
C:\Users\Andrea\AppData\Local\Temp\ccu2sWbR.s:8085   .debug_str:00000fc5 .LASF206
C:\Users\Andrea\AppData\Local\Temp\ccu2sWbR.s:1647   .text.IIC0_TX_ISR:0000004a .LFE42
C:\Users\Andrea\AppData\Local\Temp\ccu2sWbR.s:7479   .debug_loc:0000076b .LLST54
C:\Users\Andrea\AppData\Local\Temp\ccu2sWbR.s:1607   .text.IIC0_TX_ISR:00000006 .LVL126
C:\Users\Andrea\AppData\Local\Temp\ccu2sWbR.s:1620   .text.IIC0_TX_ISR:00000026 .LVL127
C:\Users\Andrea\AppData\Local\Temp\ccu2sWbR.s:1636   .text.IIC0_TX_ISR:00000041 .LVL128
C:\Users\Andrea\AppData\Local\Temp\ccu2sWbR.s:8113   .debug_str:000010bd .LASF207
C:\Users\Andrea\AppData\Local\Temp\ccu2sWbR.s:1700   .text.IIC0_TX_END_ISR:0000004a .LFE43
C:\Users\Andrea\AppData\Local\Temp\ccu2sWbR.s:7492   .debug_loc:0000078c .LLST55
C:\Users\Andrea\AppData\Local\Temp\ccu2sWbR.s:1660   .text.IIC0_TX_END_ISR:00000006 .LVL129
C:\Users\Andrea\AppData\Local\Temp\ccu2sWbR.s:1673   .text.IIC0_TX_END_ISR:00000026 .LVL130
C:\Users\Andrea\AppData\Local\Temp\ccu2sWbR.s:1689   .text.IIC0_TX_END_ISR:00000041 .LVL131
C:\Users\Andrea\AppData\Local\Temp\ccu2sWbR.s:8185   .debug_str:000013c8 .LASF208
C:\Users\Andrea\AppData\Local\Temp\ccu2sWbR.s:1717   .text.INT_Excep_S12AD0_S12ADI0:0000000a .LFE44
C:\Users\Andrea\AppData\Local\Temp\ccu2sWbR.s:7505   .debug_loc:000007ad .LLST56
C:\Users\Andrea\AppData\Local\Temp\ccu2sWbR.s:1713   .text.INT_Excep_S12AD0_S12ADI0:00000006 .LVL132
C:\Users\Andrea\AppData\Local\Temp\ccu2sWbR.s:7823   .debug_str:000004ad .LASF237
C:\Users\Andrea\AppData\Local\Temp\ccu2sWbR.s:7757   .debug_str:000001c2 .LASF215
C:\Users\Andrea\AppData\Local\Temp\ccu2sWbR.s:7741   .debug_str:0000011e .LASF209
C:\Users\Andrea\AppData\Local\Temp\ccu2sWbR.s:8153   .debug_str:0000128e .LASF210
C:\Users\Andrea\AppData\Local\Temp\ccu2sWbR.s:8143   .debug_str:0000121d .LASF218
C:\Users\Andrea\AppData\Local\Temp\ccu2sWbR.s:7941   .debug_str:0000095e .LASF211
C:\Users\Andrea\AppData\Local\Temp\ccu2sWbR.s:7995   .debug_str:00000bb4 .LASF212
C:\Users\Andrea\AppData\Local\Temp\ccu2sWbR.s:7849   .debug_str:000005c1 .LASF213
C:\Users\Andrea\AppData\Local\Temp\ccu2sWbR.s:8105   .debug_str:00001073 .LASF214
C:\Users\Andrea\AppData\Local\Temp\ccu2sWbR.s:8093   .debug_str:00000ff0 .LASF216
C:\Users\Andrea\AppData\Local\Temp\ccu2sWbR.s:8023   .debug_str:00000ccd .LASF217
C:\Users\Andrea\AppData\Local\Temp\ccu2sWbR.s:8183   .debug_str:000013ae .LASF219
C:\Users\Andrea\AppData\Local\Temp\ccu2sWbR.s:8139   .debug_str:000011f5 .LASF220
C:\Users\Andrea\AppData\Local\Temp\ccu2sWbR.s:8171   .debug_str:0000132a .LASF221
C:\Users\Andrea\AppData\Local\Temp\ccu2sWbR.s:7779   .debug_str:000002d2 .LASF222
C:\Users\Andrea\AppData\Local\Temp\ccu2sWbR.s:7739   .debug_str:00000104 .LASF223
C:\Users\Andrea\AppData\Local\Temp\ccu2sWbR.s:7873   .debug_str:000006f1 .LASF224
C:\Users\Andrea\AppData\Local\Temp\ccu2sWbR.s:7743   .debug_str:00000132 .LASF225
C:\Users\Andrea\AppData\Local\Temp\ccu2sWbR.s:7961   .debug_str:00000a30 .LASF226
C:\Users\Andrea\AppData\Local\Temp\ccu2sWbR.s:8063   .debug_str:00000e9c .LASF227
C:\Users\Andrea\AppData\Local\Temp\ccu2sWbR.s:8109   .debug_str:0000109a .LASF228
C:\Users\Andrea\AppData\Local\Temp\ccu2sWbR.s:8187   .debug_str:000013e1 .LASF229
C:\Users\Andrea\AppData\Local\Temp\ccu2sWbR.s:8045   .debug_str:00000de7 .LASF230
C:\Users\Andrea\AppData\Local\Temp\ccu2sWbR.s:7767   .debug_str:00000237 .LASF231
C:\Users\Andrea\AppData\Local\Temp\ccu2sWbR.s:8167   .debug_str:0000131b .LASF232
C:\Users\Andrea\AppData\Local\Temp\ccu2sWbR.s:7891   .debug_str:000007c9 .LASF233
C:\Users\Andrea\AppData\Local\Temp\ccu2sWbR.s:13     .text.INT_Excep_SuperVisorInst:00000002 .LCFI0
C:\Users\Andrea\AppData\Local\Temp\ccu2sWbR.s:31     .text.INT_Excep_UndefinedInst:00000002 .LCFI1
C:\Users\Andrea\AppData\Local\Temp\ccu2sWbR.s:49     .text.INT_NonMaskableInterrupt:00000002 .LCFI2
C:\Users\Andrea\AppData\Local\Temp\ccu2sWbR.s:78     .text.INT_Excep_IRQ0:00000002 .LCFI3
C:\Users\Andrea\AppData\Local\Temp\ccu2sWbR.s:131    .text.INT_Excep_IRQ1:00000002 .LCFI4
C:\Users\Andrea\AppData\Local\Temp\ccu2sWbR.s:184    .text.INT_Excep_IRQ5:00000002 .LCFI5
C:\Users\Andrea\AppData\Local\Temp\ccu2sWbR.s:237    .text.INT_Excep_IRQ6:00000002 .LCFI6
C:\Users\Andrea\AppData\Local\Temp\ccu2sWbR.s:290    .text.INT_Excep_LVD1:00000002 .LCFI7
C:\Users\Andrea\AppData\Local\Temp\ccu2sWbR.s:307    .text.INT_Excep_LVD2:00000002 .LCFI8
C:\Users\Andrea\AppData\Local\Temp\ccu2sWbR.s:324    .text.INT_Excep_MTU0_TGIA0:00000002 .LCFI9
C:\Users\Andrea\AppData\Local\Temp\ccu2sWbR.s:325    .text.INT_Excep_MTU0_TGIA0:00000002 .LVL17
C:\Users\Andrea\AppData\Local\Temp\ccu2sWbR.s:367    .text.INT_Excep_MTU0_TGIA0:0000004b .LVL21
C:\Users\Andrea\AppData\Local\Temp\ccu2sWbR.s:373    .text.INT_Excep_MTU0_TGIA0:00000055 .LVL22
C:\Users\Andrea\AppData\Local\Temp\ccu2sWbR.s:389    .text.INT_Excep_MTU0_TGIC0:00000002 .LCFI10
C:\Users\Andrea\AppData\Local\Temp\ccu2sWbR.s:390    .text.INT_Excep_MTU0_TGIC0:00000002 .LVL23
C:\Users\Andrea\AppData\Local\Temp\ccu2sWbR.s:432    .text.INT_Excep_MTU0_TGIC0:0000004b .LVL27
C:\Users\Andrea\AppData\Local\Temp\ccu2sWbR.s:438    .text.INT_Excep_MTU0_TGIC0:00000055 .LVL28
C:\Users\Andrea\AppData\Local\Temp\ccu2sWbR.s:454    .text.INT_Excep_MTU0_TGID0:00000002 .LCFI11
C:\Users\Andrea\AppData\Local\Temp\ccu2sWbR.s:487    .text.INT_Excep_MTU0_TCIV0:00000002 .LCFI12
C:\Users\Andrea\AppData\Local\Temp\ccu2sWbR.s:488    .text.INT_Excep_MTU0_TCIV0:00000002 .LVL32
C:\Users\Andrea\AppData\Local\Temp\ccu2sWbR.s:528    .text.INT_Excep_MTU0_TCIV0:00000047 .LVL36
C:\Users\Andrea\AppData\Local\Temp\ccu2sWbR.s:534    .text.INT_Excep_MTU0_TCIV0:00000051 .LVL37
C:\Users\Andrea\AppData\Local\Temp\ccu2sWbR.s:550    .text.INT_Excep_MTU0_TGIE0:00000002 .LCFI13
C:\Users\Andrea\AppData\Local\Temp\ccu2sWbR.s:568    .text.INT_Excep_MTU0_TGIF0:00000002 .LCFI14
C:\Users\Andrea\AppData\Local\Temp\ccu2sWbR.s:586    .text.INT_Excep_MTU1_TGIA1:00000002 .LCFI15
C:\Users\Andrea\AppData\Local\Temp\ccu2sWbR.s:587    .text.INT_Excep_MTU1_TGIA1:00000002 .LVL40
C:\Users\Andrea\AppData\Local\Temp\ccu2sWbR.s:629    .text.INT_Excep_MTU1_TGIA1:0000004b .LVL44
C:\Users\Andrea\AppData\Local\Temp\ccu2sWbR.s:635    .text.INT_Excep_MTU1_TGIA1:00000055 .LVL45
C:\Users\Andrea\AppData\Local\Temp\ccu2sWbR.s:651    .text.INT_Excep_MTU1_TGIB1:00000002 .LCFI16
C:\Users\Andrea\AppData\Local\Temp\ccu2sWbR.s:683    .text.INT_Excep_MTU1_TCIV1:00000002 .LCFI17
C:\Users\Andrea\AppData\Local\Temp\ccu2sWbR.s:684    .text.INT_Excep_MTU1_TCIV1:00000002 .LVL49
C:\Users\Andrea\AppData\Local\Temp\ccu2sWbR.s:724    .text.INT_Excep_MTU1_TCIV1:00000047 .LVL53
C:\Users\Andrea\AppData\Local\Temp\ccu2sWbR.s:730    .text.INT_Excep_MTU1_TCIV1:00000051 .LVL54
C:\Users\Andrea\AppData\Local\Temp\ccu2sWbR.s:746    .text.INT_Excep_MTU1_TCIU1:00000002 .LCFI18
C:\Users\Andrea\AppData\Local\Temp\ccu2sWbR.s:764    .text.INT_Excep_MTU2_TGIA2:00000002 .LCFI19
C:\Users\Andrea\AppData\Local\Temp\ccu2sWbR.s:765    .text.INT_Excep_MTU2_TGIA2:00000002 .LVL56
C:\Users\Andrea\AppData\Local\Temp\ccu2sWbR.s:807    .text.INT_Excep_MTU2_TGIA2:0000004b .LVL60
C:\Users\Andrea\AppData\Local\Temp\ccu2sWbR.s:813    .text.INT_Excep_MTU2_TGIA2:00000055 .LVL61
C:\Users\Andrea\AppData\Local\Temp\ccu2sWbR.s:829    .text.INT_Excep_MTU2_TGIB2:00000002 .LCFI20
C:\Users\Andrea\AppData\Local\Temp\ccu2sWbR.s:862    .text.INT_Excep_MTU2_TCIV2:00000002 .LCFI21
C:\Users\Andrea\AppData\Local\Temp\ccu2sWbR.s:863    .text.INT_Excep_MTU2_TCIV2:00000002 .LVL65
C:\Users\Andrea\AppData\Local\Temp\ccu2sWbR.s:903    .text.INT_Excep_MTU2_TCIV2:00000047 .LVL69
C:\Users\Andrea\AppData\Local\Temp\ccu2sWbR.s:909    .text.INT_Excep_MTU2_TCIV2:00000051 .LVL70
C:\Users\Andrea\AppData\Local\Temp\ccu2sWbR.s:925    .text.INT_Excep_MTU2_TCIU2:00000002 .LCFI22
C:\Users\Andrea\AppData\Local\Temp\ccu2sWbR.s:943    .text.INT_Excep_MTU3_TGIA3:00000002 .LCFI23
C:\Users\Andrea\AppData\Local\Temp\ccu2sWbR.s:944    .text.INT_Excep_MTU3_TGIA3:00000002 .LVL72
C:\Users\Andrea\AppData\Local\Temp\ccu2sWbR.s:986    .text.INT_Excep_MTU3_TGIA3:0000004b .LVL76
C:\Users\Andrea\AppData\Local\Temp\ccu2sWbR.s:992    .text.INT_Excep_MTU3_TGIA3:00000055 .LVL77
C:\Users\Andrea\AppData\Local\Temp\ccu2sWbR.s:1008   .text.INT_Excep_MTU3_TGIB3:00000002 .LCFI24
C:\Users\Andrea\AppData\Local\Temp\ccu2sWbR.s:1041   .text.INT_Excep_MTU3_TGIC3:00000002 .LCFI25
C:\Users\Andrea\AppData\Local\Temp\ccu2sWbR.s:1042   .text.INT_Excep_MTU3_TGIC3:00000002 .LVL81
C:\Users\Andrea\AppData\Local\Temp\ccu2sWbR.s:1084   .text.INT_Excep_MTU3_TGIC3:0000004b .LVL85
C:\Users\Andrea\AppData\Local\Temp\ccu2sWbR.s:1090   .text.INT_Excep_MTU3_TGIC3:00000055 .LVL86
C:\Users\Andrea\AppData\Local\Temp\ccu2sWbR.s:1106   .text.INT_Excep_MTU3_TCIV3:00000002 .LCFI26
C:\Users\Andrea\AppData\Local\Temp\ccu2sWbR.s:1107   .text.INT_Excep_MTU3_TCIV3:00000002 .LVL87
C:\Users\Andrea\AppData\Local\Temp\ccu2sWbR.s:1147   .text.INT_Excep_MTU3_TCIV3:00000047 .LVL91
C:\Users\Andrea\AppData\Local\Temp\ccu2sWbR.s:1153   .text.INT_Excep_MTU3_TCIV3:00000051 .LVL92
C:\Users\Andrea\AppData\Local\Temp\ccu2sWbR.s:1169   .text.INT_Excep_MTU4_TGIA4:00000002 .LCFI27
C:\Users\Andrea\AppData\Local\Temp\ccu2sWbR.s:1170   .text.INT_Excep_MTU4_TGIA4:00000002 .LVL93
C:\Users\Andrea\AppData\Local\Temp\ccu2sWbR.s:1212   .text.INT_Excep_MTU4_TGIA4:0000004b .LVL97
C:\Users\Andrea\AppData\Local\Temp\ccu2sWbR.s:1218   .text.INT_Excep_MTU4_TGIA4:00000055 .LVL98
C:\Users\Andrea\AppData\Local\Temp\ccu2sWbR.s:1234   .text.INT_Excep_MTU4_TGIC4:00000002 .LCFI28
C:\Users\Andrea\AppData\Local\Temp\ccu2sWbR.s:1235   .text.INT_Excep_MTU4_TGIC4:00000002 .LVL99
C:\Users\Andrea\AppData\Local\Temp\ccu2sWbR.s:1277   .text.INT_Excep_MTU4_TGIC4:0000004b .LVL103
C:\Users\Andrea\AppData\Local\Temp\ccu2sWbR.s:1283   .text.INT_Excep_MTU4_TGIC4:00000055 .LVL104
C:\Users\Andrea\AppData\Local\Temp\ccu2sWbR.s:1299   .text.INT_Excep_MTU4_TGID4:00000002 .LCFI29
C:\Users\Andrea\AppData\Local\Temp\ccu2sWbR.s:1332   .text.INT_Excep_MTU4_TCIV4:00000002 .LCFI30
C:\Users\Andrea\AppData\Local\Temp\ccu2sWbR.s:1333   .text.INT_Excep_MTU4_TCIV4:00000002 .LVL108
C:\Users\Andrea\AppData\Local\Temp\ccu2sWbR.s:1373   .text.INT_Excep_MTU4_TCIV4:00000047 .LVL112
C:\Users\Andrea\AppData\Local\Temp\ccu2sWbR.s:1379   .text.INT_Excep_MTU4_TCIV4:00000051 .LVL113
C:\Users\Andrea\AppData\Local\Temp\ccu2sWbR.s:1395   .text.INT_Excep_MTU5_TGIU5:00000002 .LCFI31
C:\Users\Andrea\AppData\Local\Temp\ccu2sWbR.s:1413   .text.INT_Excep_MTU5_TGIV5:00000002 .LCFI32
C:\Users\Andrea\AppData\Local\Temp\ccu2sWbR.s:1431   .text.INT_Excep_MTU5_TGIW5:00000002 .LCFI33
C:\Users\Andrea\AppData\Local\Temp\ccu2sWbR.s:1449   .text.INT_Excep_SCI0_RXI0:00000002 .LCFI34
C:\Users\Andrea\AppData\Local\Temp\ccu2sWbR.s:1466   .text.INT_Excep_SCI1_RXI1:00000002 .LCFI35
C:\Users\Andrea\AppData\Local\Temp\ccu2sWbR.s:1483   .text.INT_Excep_SCI5_RXI5:00000002 .LCFI36
C:\Users\Andrea\AppData\Local\Temp\ccu2sWbR.s:1500   .text.INT_Excep_SCI5_TEI5:00000002 .LCFI37
C:\Users\Andrea\AppData\Local\Temp\ccu2sWbR.s:1517   .text.INT_Excep_SCI12_RXI12:00000002 .LCFI38
C:\Users\Andrea\AppData\Local\Temp\ccu2sWbR.s:1534   .text.INT_Excep_SCI12_TEI12:00000002 .LCFI39
C:\Users\Andrea\AppData\Local\Temp\ccu2sWbR.s:1551   .text.IIC0_RX_ISR:00000002 .LCFI40
C:\Users\Andrea\AppData\Local\Temp\ccu2sWbR.s:1604   .text.IIC0_TX_ISR:00000002 .LCFI41
C:\Users\Andrea\AppData\Local\Temp\ccu2sWbR.s:1657   .text.IIC0_TX_END_ISR:00000002 .LCFI42
C:\Users\Andrea\AppData\Local\Temp\ccu2sWbR.s:1710   .text.INT_Excep_S12AD0_S12ADI0:00000002 .LCFI43
C:\Users\Andrea\AppData\Local\Temp\ccu2sWbR.s:3608   .debug_info:00000000 .Ldebug_info0

UNDEFINED SYMBOLS
_LIB_Error_Fatal_Handler
_OS_DisableInterrupt
_OS_Global
_IRQ_ISR
_OS_SwitchFromInt
_OCLVDW_ISR
_MTU0_TGIA0_ExceptionHandler
_MTU0_TGIC0_ExceptionHandler
_TMR_GetClearSourceId
_HWCNTR_ISR
_HWTMRCH_ISR
_CNT0_OVF_ExceptionHandler
_MTU1_TGIA1_ExceptionHandler
_CNT1_OVF_ExceptionHandler
_MTU2_TGIA2_ExceptionHandler
_CNT2_OVF_ExceptionHandler
_MTU3_TGIA3_ExceptionHandler
_MTU3_TGIC3_ExceptionHandler
_CNT3_OVF_ExceptionHandler
_MTU4_TGIA4_ExceptionHandler
_MTU4_TGIC4_ExceptionHandler
_CNT4_OVF_ExceptionHandler
_OCUART_RxDataMngr
_OCUART_TxDataMngr
_OCI2C_ISR
_OCADC_ISR
