   1                             		.file	"ISR_TMR.c"
   2                             		.section P,"ax"
   3                             	.Ltext0:
   4                             		.section	.text.TMR0_ISR,"ax",@progbits
   5                             		.weak	_TMR0_ISR
   7                             	_TMR0_ISR:
   8                             	.LFB0:
   9                             		.file 1 "C:/Workspace/FW_Inertia/branch_indesit/HAL/RN_RX200/McuModule/ISR_TMR.c"
   1:C:/Workspace/FW_Inertia/branch_indesit/HAL/RN_RX200/McuModule\ISR_TMR.c **** #include "ISR_TMR.h"
   2:C:/Workspace/FW_Inertia/branch_indesit/HAL/RN_RX200/McuModule\ISR_TMR.c **** 
   3:C:/Workspace/FW_Inertia/branch_indesit/HAL/RN_RX200/McuModule\ISR_TMR.c **** #include "HAL_Interface.h"
   4:C:/Workspace/FW_Inertia/branch_indesit/HAL/RN_RX200/McuModule\ISR_TMR.c **** #include  HAL_CFG
   5:C:/Workspace/FW_Inertia/branch_indesit/HAL/RN_RX200/McuModule\ISR_TMR.c **** #include  HAL
   6:C:/Workspace/FW_Inertia/branch_indesit/HAL/RN_RX200/McuModule\ISR_TMR.c **** 
   7:C:/Workspace/FW_Inertia/branch_indesit/HAL/RN_RX200/McuModule\ISR_TMR.c **** #include "OCTPM_drv.h"
   8:C:/Workspace/FW_Inertia/branch_indesit/HAL/RN_RX200/McuModule\ISR_TMR.c **** 
   9:C:/Workspace/FW_Inertia/branch_indesit/HAL/RN_RX200/McuModule\ISR_TMR.c **** #if defined(CASTELLATED_MODULE_LP1_0241_01) || defined(EDGE_MODULE_LP1_0258_01) || defined(CUSTOM_M
  10:C:/Workspace/FW_Inertia/branch_indesit/HAL/RN_RX200/McuModule\ISR_TMR.c **** 
  11:C:/Workspace/FW_Inertia/branch_indesit/HAL/RN_RX200/McuModule\ISR_TMR.c **** #if defined(TMR0_ISR_SUPPORT)
  12:C:/Workspace/FW_Inertia/branch_indesit/HAL/RN_RX200/McuModule\ISR_TMR.c **** int TMR0_ISR(void);
  13:C:/Workspace/FW_Inertia/branch_indesit/HAL/RN_RX200/McuModule\ISR_TMR.c **** __attribute__((weak)) int TMR0_ISR(void)
  14:C:/Workspace/FW_Inertia/branch_indesit/HAL/RN_RX200/McuModule\ISR_TMR.c **** {
  10                             		.loc 1 14 0
  15:C:/Workspace/FW_Inertia/branch_indesit/HAL/RN_RX200/McuModule\ISR_TMR.c **** 	if( TMR_GetClearSourceId(HAL_TMR_MTU0) == TCNT_CLEARING_TGRC ){
  11                             		.loc 1 15 0
  12 0000 66 01                   		mov	#0, r1
  13 0002 05 00 00 00             		bsr	_TMR_GetClearSourceId
  14                             	.LVL0:
  15 0006 5B 11                   		movu.B	r1, r1
  16 0008 61 21                   		cmp	#2, r1
  16:C:/Workspace/FW_Inertia/branch_indesit/HAL/RN_RX200/McuModule\ISR_TMR.c **** 		HWCNTR_ISR(HW_TMR_ID_0);
  17                             		.loc 1 16 0
  18 000a 66 01                   		mov	#0, r1
  15:C:/Workspace/FW_Inertia/branch_indesit/HAL/RN_RX200/McuModule\ISR_TMR.c **** 	if( TMR_GetClearSourceId(HAL_TMR_MTU0) == TCNT_CLEARING_TGRC ){
  19                             		.loc 1 15 0
  20 000c 1E                      		bne	.L2
  21                             		.loc 1 16 0
  22 000d 05 00 00 00             		bsr	_HWCNTR_ISR
  23                             	.LVL1:
  17:C:/Workspace/FW_Inertia/branch_indesit/HAL/RN_RX200/McuModule\ISR_TMR.c **** 		return 1;
  24                             		.loc 1 17 0
  25 0011 0D                      		bra	.L3
  26                             	.L2:
  18:C:/Workspace/FW_Inertia/branch_indesit/HAL/RN_RX200/McuModule\ISR_TMR.c **** 	}else{
  19:C:/Workspace/FW_Inertia/branch_indesit/HAL/RN_RX200/McuModule\ISR_TMR.c **** 		HWTMRCH_ISR(TMR0_IDX);
  27                             		.loc 1 19 0
  28 0012 05 00 00 00             		bsr	_HWTMRCH_ISR
  29                             	.LVL2:
  30                             		.balign 2,3,1
  31                             	.L3:
  20:C:/Workspace/FW_Inertia/branch_indesit/HAL/RN_RX200/McuModule\ISR_TMR.c **** 		return 1;
  21:C:/Workspace/FW_Inertia/branch_indesit/HAL/RN_RX200/McuModule\ISR_TMR.c **** 	}
  22:C:/Workspace/FW_Inertia/branch_indesit/HAL/RN_RX200/McuModule\ISR_TMR.c ****     return 0;
  23:C:/Workspace/FW_Inertia/branch_indesit/HAL/RN_RX200/McuModule\ISR_TMR.c **** }
  32                             		.loc 1 23 0
  33 0016 66 11                   		mov.L	#1, r1
  34 0018 02                      		rts
  35                             	.LFE0:
  37 0019 03                      		.section	.text.MTU0_TGIC0_ExceptionHandler,"ax",@progbits
  38                             		.global	_MTU0_TGIC0_ExceptionHandler
  40                             	_MTU0_TGIC0_ExceptionHandler:
  41                             	.LFB1:
  24:C:/Workspace/FW_Inertia/branch_indesit/HAL/RN_RX200/McuModule\ISR_TMR.c **** 
  25:C:/Workspace/FW_Inertia/branch_indesit/HAL/RN_RX200/McuModule\ISR_TMR.c **** 
  26:C:/Workspace/FW_Inertia/branch_indesit/HAL/RN_RX200/McuModule\ISR_TMR.c **** int MTU0_TGIC0_ExceptionHandler(void* pDevice, int status)
  27:C:/Workspace/FW_Inertia/branch_indesit/HAL/RN_RX200/McuModule\ISR_TMR.c **** {
  42                             		.loc 1 27 0
  43                             	.LVL3:
  28:C:/Workspace/FW_Inertia/branch_indesit/HAL/RN_RX200/McuModule\ISR_TMR.c ****     return TMR0_ISR();
  44                             		.loc 1 28 0
  45 0000 04 00 00 00             		bra	_TMR0_ISR
  46                             	.LVL4:
  47                             	.LFE1:
  49                             		.section	.text.TMR1_ISR,"ax",@progbits
  50                             		.weak	_TMR1_ISR
  52                             	_TMR1_ISR:
  53                             	.LFB2:
  29:C:/Workspace/FW_Inertia/branch_indesit/HAL/RN_RX200/McuModule\ISR_TMR.c **** }
  30:C:/Workspace/FW_Inertia/branch_indesit/HAL/RN_RX200/McuModule\ISR_TMR.c **** #endif
  31:C:/Workspace/FW_Inertia/branch_indesit/HAL/RN_RX200/McuModule\ISR_TMR.c **** 
  32:C:/Workspace/FW_Inertia/branch_indesit/HAL/RN_RX200/McuModule\ISR_TMR.c **** #if defined(TMR1_ISR_SUPPORT)
  33:C:/Workspace/FW_Inertia/branch_indesit/HAL/RN_RX200/McuModule\ISR_TMR.c **** int TMR1_ISR(void);
  34:C:/Workspace/FW_Inertia/branch_indesit/HAL/RN_RX200/McuModule\ISR_TMR.c **** __attribute__((weak)) int TMR1_ISR(void)
  35:C:/Workspace/FW_Inertia/branch_indesit/HAL/RN_RX200/McuModule\ISR_TMR.c **** {
  54                             		.loc 1 35 0
  36:C:/Workspace/FW_Inertia/branch_indesit/HAL/RN_RX200/McuModule\ISR_TMR.c **** 	if( TMR_GetClearSourceId(HAL_TMR_MTU2) == TCNT_CLEARING_TGRA ){
  55                             		.loc 1 36 0
  56 0000 66 21                   		mov	#2, r1
  57 0002 05 00 00 00             		bsr	_TMR_GetClearSourceId
  58                             	.LVL5:
  59 0006 76 21 FF 00             		and #0xff, r1
  60 000a 18                      		bne	.L6
  37:C:/Workspace/FW_Inertia/branch_indesit/HAL/RN_RX200/McuModule\ISR_TMR.c **** 		HWCNTR_ISR(HW_TMR_ID_2);
  61                             		.loc 1 37 0
  62 000b 66 21                   		mov	#2, r1
  63 000d 05 00 00 00             		bsr	_HWCNTR_ISR
  64                             	.LVL6:
  38:C:/Workspace/FW_Inertia/branch_indesit/HAL/RN_RX200/McuModule\ISR_TMR.c **** 		return 1;
  65                             		.loc 1 38 0
  66 0011 0F                      		bra	.L7
  67                             	.L6:
  39:C:/Workspace/FW_Inertia/branch_indesit/HAL/RN_RX200/McuModule\ISR_TMR.c **** 	}else{
  40:C:/Workspace/FW_Inertia/branch_indesit/HAL/RN_RX200/McuModule\ISR_TMR.c **** 		HWTMRCH_ISR(TMR1_IDX);
  68                             		.loc 1 40 0
  69 0012 66 11                   		mov	#1, r1
  70 0014 05 00 00 00             		bsr	_HWTMRCH_ISR
  71                             	.LVL7:
  72                             		.balign 2,3,1
  73                             	.L7:
  41:C:/Workspace/FW_Inertia/branch_indesit/HAL/RN_RX200/McuModule\ISR_TMR.c **** 		return 1;
  42:C:/Workspace/FW_Inertia/branch_indesit/HAL/RN_RX200/McuModule\ISR_TMR.c **** 	}
  43:C:/Workspace/FW_Inertia/branch_indesit/HAL/RN_RX200/McuModule\ISR_TMR.c ****     return 0;
  44:C:/Workspace/FW_Inertia/branch_indesit/HAL/RN_RX200/McuModule\ISR_TMR.c **** }
  74                             		.loc 1 44 0
  75 0018 66 11                   		mov.L	#1, r1
  76 001a 02                      		rts
  77                             	.LFE2:
  79 001b 03                      		.section	.text.MTU2_TGIA2_ExceptionHandler,"ax",@progbits
  80                             		.global	_MTU2_TGIA2_ExceptionHandler
  82                             	_MTU2_TGIA2_ExceptionHandler:
  83                             	.LFB3:
  45:C:/Workspace/FW_Inertia/branch_indesit/HAL/RN_RX200/McuModule\ISR_TMR.c **** 
  46:C:/Workspace/FW_Inertia/branch_indesit/HAL/RN_RX200/McuModule\ISR_TMR.c **** int MTU2_TGIA2_ExceptionHandler(void* pDevice, int status)
  47:C:/Workspace/FW_Inertia/branch_indesit/HAL/RN_RX200/McuModule\ISR_TMR.c **** {
  84                             		.loc 1 47 0
  85                             	.LVL8:
  48:C:/Workspace/FW_Inertia/branch_indesit/HAL/RN_RX200/McuModule\ISR_TMR.c ****     return TMR1_ISR();
  86                             		.loc 1 48 0
  87 0000 04 00 00 00             		bra	_TMR1_ISR
  88                             	.LVL9:
  89                             	.LFE3:
  91                             		.section	.text.TMR2_ISR,"ax",@progbits
  92                             		.weak	_TMR2_ISR
  94                             	_TMR2_ISR:
  95                             	.LFB4:
  49:C:/Workspace/FW_Inertia/branch_indesit/HAL/RN_RX200/McuModule\ISR_TMR.c **** }
  50:C:/Workspace/FW_Inertia/branch_indesit/HAL/RN_RX200/McuModule\ISR_TMR.c **** #endif
  51:C:/Workspace/FW_Inertia/branch_indesit/HAL/RN_RX200/McuModule\ISR_TMR.c **** 
  52:C:/Workspace/FW_Inertia/branch_indesit/HAL/RN_RX200/McuModule\ISR_TMR.c **** #if defined(TMR2_ISR_SUPPORT)
  53:C:/Workspace/FW_Inertia/branch_indesit/HAL/RN_RX200/McuModule\ISR_TMR.c **** int TMR2_ISR(void);
  54:C:/Workspace/FW_Inertia/branch_indesit/HAL/RN_RX200/McuModule\ISR_TMR.c **** __attribute__((weak)) int TMR2_ISR(void)
  55:C:/Workspace/FW_Inertia/branch_indesit/HAL/RN_RX200/McuModule\ISR_TMR.c **** {
  96                             		.loc 1 55 0
  56:C:/Workspace/FW_Inertia/branch_indesit/HAL/RN_RX200/McuModule\ISR_TMR.c **** 	if( TMR_GetClearSourceId(HAL_TMR_MTU3) == TCNT_CLEARING_TGRA ){
  97                             		.loc 1 56 0
  98 0000 66 31                   		mov	#3, r1
  99 0002 05 00 00 00             		bsr	_TMR_GetClearSourceId
 100                             	.LVL10:
 101 0006 76 21 FF 00             		and #0xff, r1
 102 000a 18                      		bne	.L10
  57:C:/Workspace/FW_Inertia/branch_indesit/HAL/RN_RX200/McuModule\ISR_TMR.c **** 		HWCNTR_ISR(HW_TMR_ID_3);
 103                             		.loc 1 57 0
 104 000b 66 31                   		mov	#3, r1
 105 000d 05 00 00 00             		bsr	_HWCNTR_ISR
 106                             	.LVL11:
  58:C:/Workspace/FW_Inertia/branch_indesit/HAL/RN_RX200/McuModule\ISR_TMR.c **** 		return 1;
 107                             		.loc 1 58 0
 108 0011 0F                      		bra	.L11
 109                             	.L10:
  59:C:/Workspace/FW_Inertia/branch_indesit/HAL/RN_RX200/McuModule\ISR_TMR.c **** 	}else{
  60:C:/Workspace/FW_Inertia/branch_indesit/HAL/RN_RX200/McuModule\ISR_TMR.c **** 		HWTMRCH_ISR(TMR2_IDX);
 110                             		.loc 1 60 0
 111 0012 66 21                   		mov	#2, r1
 112 0014 05 00 00 00             		bsr	_HWTMRCH_ISR
 113                             	.LVL12:
 114                             		.balign 2,3,1
 115                             	.L11:
  61:C:/Workspace/FW_Inertia/branch_indesit/HAL/RN_RX200/McuModule\ISR_TMR.c **** 		return 1;
  62:C:/Workspace/FW_Inertia/branch_indesit/HAL/RN_RX200/McuModule\ISR_TMR.c **** 	}
  63:C:/Workspace/FW_Inertia/branch_indesit/HAL/RN_RX200/McuModule\ISR_TMR.c ****     return 0;
  64:C:/Workspace/FW_Inertia/branch_indesit/HAL/RN_RX200/McuModule\ISR_TMR.c **** }
 116                             		.loc 1 64 0
 117 0018 66 11                   		mov.L	#1, r1
 118 001a 02                      		rts
 119                             	.LFE4:
 121 001b 03                      		.section	.text.MTU3_TGIA3_ExceptionHandler,"ax",@progbits
 122                             		.global	_MTU3_TGIA3_ExceptionHandler
 124                             	_MTU3_TGIA3_ExceptionHandler:
 125                             	.LFB5:
  65:C:/Workspace/FW_Inertia/branch_indesit/HAL/RN_RX200/McuModule\ISR_TMR.c **** 
  66:C:/Workspace/FW_Inertia/branch_indesit/HAL/RN_RX200/McuModule\ISR_TMR.c **** int MTU3_TGIA3_ExceptionHandler(void* pDevice, int status)
  67:C:/Workspace/FW_Inertia/branch_indesit/HAL/RN_RX200/McuModule\ISR_TMR.c **** {
 126                             		.loc 1 67 0
 127                             	.LVL13:
  68:C:/Workspace/FW_Inertia/branch_indesit/HAL/RN_RX200/McuModule\ISR_TMR.c ****     return TMR2_ISR();
 128                             		.loc 1 68 0
 129 0000 04 00 00 00             		bra	_TMR2_ISR
 130                             	.LVL14:
 131                             	.LFE5:
 133                             		.section	.text.TMR3_ISR,"ax",@progbits
 134                             		.weak	_TMR3_ISR
 136                             	_TMR3_ISR:
 137                             	.LFB6:
  69:C:/Workspace/FW_Inertia/branch_indesit/HAL/RN_RX200/McuModule\ISR_TMR.c **** }
  70:C:/Workspace/FW_Inertia/branch_indesit/HAL/RN_RX200/McuModule\ISR_TMR.c **** #endif
  71:C:/Workspace/FW_Inertia/branch_indesit/HAL/RN_RX200/McuModule\ISR_TMR.c **** 
  72:C:/Workspace/FW_Inertia/branch_indesit/HAL/RN_RX200/McuModule\ISR_TMR.c **** #if defined(TMR3_ISR_SUPPORT)
  73:C:/Workspace/FW_Inertia/branch_indesit/HAL/RN_RX200/McuModule\ISR_TMR.c **** int TMR3_ISR(void);
  74:C:/Workspace/FW_Inertia/branch_indesit/HAL/RN_RX200/McuModule\ISR_TMR.c **** __attribute__((weak)) int TMR3_ISR(void)
  75:C:/Workspace/FW_Inertia/branch_indesit/HAL/RN_RX200/McuModule\ISR_TMR.c **** {
 138                             		.loc 1 75 0
  76:C:/Workspace/FW_Inertia/branch_indesit/HAL/RN_RX200/McuModule\ISR_TMR.c **** 	if( TMR_GetClearSourceId(HAL_TMR_MTU0) == TCNT_CLEARING_TGRA ){
 139                             		.loc 1 76 0
 140 0000 66 01                   		mov	#0, r1
 141 0002 05 00 00 00             		bsr	_TMR_GetClearSourceId
 142                             	.LVL15:
 143 0006 5B 11                   		movu.B	r1, r1
 144 0008 61 01                   		cmp	#0, r1
 145 000a 1E                      		bne	.L14
  77:C:/Workspace/FW_Inertia/branch_indesit/HAL/RN_RX200/McuModule\ISR_TMR.c **** 		HWCNTR_ISR(HW_TMR_ID_0);
 146                             		.loc 1 77 0
 147 000b 05 00 00 00             		bsr	_HWCNTR_ISR
 148                             	.LVL16:
  78:C:/Workspace/FW_Inertia/branch_indesit/HAL/RN_RX200/McuModule\ISR_TMR.c **** 		return 1;
 149                             		.loc 1 78 0
 150 000f 0F                      		bra	.L15
 151                             	.L14:
  79:C:/Workspace/FW_Inertia/branch_indesit/HAL/RN_RX200/McuModule\ISR_TMR.c **** 	}else{
  80:C:/Workspace/FW_Inertia/branch_indesit/HAL/RN_RX200/McuModule\ISR_TMR.c **** 		HWTMRCH_ISR(TMR3_IDX);
 152                             		.loc 1 80 0
 153 0010 66 31                   		mov	#3, r1
 154 0012 05 00 00 00             		bsr	_HWTMRCH_ISR
 155                             	.LVL17:
 156                             		.balign 2,3,1
 157                             	.L15:
  81:C:/Workspace/FW_Inertia/branch_indesit/HAL/RN_RX200/McuModule\ISR_TMR.c **** 		return 1;
  82:C:/Workspace/FW_Inertia/branch_indesit/HAL/RN_RX200/McuModule\ISR_TMR.c **** 	}
  83:C:/Workspace/FW_Inertia/branch_indesit/HAL/RN_RX200/McuModule\ISR_TMR.c **** }
 158                             		.loc 1 83 0
 159 0016 66 11                   		mov.L	#1, r1
 160 0018 02                      		rts
 161                             	.LFE6:
 163 0019 03                      		.section	.text.MTU0_TGIA0_ExceptionHandler,"ax",@progbits
 164                             		.global	_MTU0_TGIA0_ExceptionHandler
 166                             	_MTU0_TGIA0_ExceptionHandler:
 167                             	.LFB7:
  84:C:/Workspace/FW_Inertia/branch_indesit/HAL/RN_RX200/McuModule\ISR_TMR.c **** 
  85:C:/Workspace/FW_Inertia/branch_indesit/HAL/RN_RX200/McuModule\ISR_TMR.c **** int MTU0_TGIA0_ExceptionHandler(void* pDevice, int status)
  86:C:/Workspace/FW_Inertia/branch_indesit/HAL/RN_RX200/McuModule\ISR_TMR.c **** {
 168                             		.loc 1 86 0
 169                             	.LVL18:
  87:C:/Workspace/FW_Inertia/branch_indesit/HAL/RN_RX200/McuModule\ISR_TMR.c ****     return TMR3_ISR();
 170                             		.loc 1 87 0
 171 0000 04 00 00 00             		bra	_TMR3_ISR
 172                             	.LVL19:
 173                             	.LFE7:
 175                             		.section	.text.TMR4_ISR,"ax",@progbits
 176                             		.weak	_TMR4_ISR
 178                             	_TMR4_ISR:
 179                             	.LFB8:
  88:C:/Workspace/FW_Inertia/branch_indesit/HAL/RN_RX200/McuModule\ISR_TMR.c **** }
  89:C:/Workspace/FW_Inertia/branch_indesit/HAL/RN_RX200/McuModule\ISR_TMR.c **** #endif
  90:C:/Workspace/FW_Inertia/branch_indesit/HAL/RN_RX200/McuModule\ISR_TMR.c **** 
  91:C:/Workspace/FW_Inertia/branch_indesit/HAL/RN_RX200/McuModule\ISR_TMR.c **** #if defined(TMR4_ISR_SUPPORT)
  92:C:/Workspace/FW_Inertia/branch_indesit/HAL/RN_RX200/McuModule\ISR_TMR.c **** int TMR4_ISR(void);
  93:C:/Workspace/FW_Inertia/branch_indesit/HAL/RN_RX200/McuModule\ISR_TMR.c **** __attribute__((weak)) int TMR4_ISR(void)
  94:C:/Workspace/FW_Inertia/branch_indesit/HAL/RN_RX200/McuModule\ISR_TMR.c **** {
 180                             		.loc 1 94 0
  95:C:/Workspace/FW_Inertia/branch_indesit/HAL/RN_RX200/McuModule\ISR_TMR.c **** 	if( TMR_GetClearSourceId(HAL_TMR_MTU1) == TCNT_CLEARING_TGRA ){
 181                             		.loc 1 95 0
 182 0000 66 11                   		mov	#1, r1
 183 0002 05 00 00 00             		bsr	_TMR_GetClearSourceId
 184                             	.LVL20:
 185 0006 76 21 FF 00             		and #0xff, r1
 186 000a 18                      		bne	.L18
  96:C:/Workspace/FW_Inertia/branch_indesit/HAL/RN_RX200/McuModule\ISR_TMR.c **** 		HWCNTR_ISR(HW_TMR_ID_1);
 187                             		.loc 1 96 0
 188 000b 66 11                   		mov	#1, r1
 189 000d 05 00 00 00             		bsr	_HWCNTR_ISR
 190                             	.LVL21:
  97:C:/Workspace/FW_Inertia/branch_indesit/HAL/RN_RX200/McuModule\ISR_TMR.c **** 		return 1;
 191                             		.loc 1 97 0
 192 0011 0F                      		bra	.L19
 193                             	.L18:
  98:C:/Workspace/FW_Inertia/branch_indesit/HAL/RN_RX200/McuModule\ISR_TMR.c **** 	}else{
  99:C:/Workspace/FW_Inertia/branch_indesit/HAL/RN_RX200/McuModule\ISR_TMR.c **** 		HWTMRCH_ISR(TMR4_IDX);
 194                             		.loc 1 99 0
 195 0012 66 41                   		mov	#4, r1
 196 0014 05 00 00 00             		bsr	_HWTMRCH_ISR
 197                             	.LVL22:
 198                             		.balign 2,3,1
 199                             	.L19:
 100:C:/Workspace/FW_Inertia/branch_indesit/HAL/RN_RX200/McuModule\ISR_TMR.c **** 		return 1;
 101:C:/Workspace/FW_Inertia/branch_indesit/HAL/RN_RX200/McuModule\ISR_TMR.c **** 	}
 102:C:/Workspace/FW_Inertia/branch_indesit/HAL/RN_RX200/McuModule\ISR_TMR.c ****     return 0;
 103:C:/Workspace/FW_Inertia/branch_indesit/HAL/RN_RX200/McuModule\ISR_TMR.c **** }
 200                             		.loc 1 103 0
 201 0018 66 11                   		mov.L	#1, r1
 202 001a 02                      		rts
 203                             	.LFE8:
 205 001b 03                      		.section	.text.MTU1_TGIA1_ExceptionHandler,"ax",@progbits
 206                             		.global	_MTU1_TGIA1_ExceptionHandler
 208                             	_MTU1_TGIA1_ExceptionHandler:
 209                             	.LFB9:
 104:C:/Workspace/FW_Inertia/branch_indesit/HAL/RN_RX200/McuModule\ISR_TMR.c **** 
 105:C:/Workspace/FW_Inertia/branch_indesit/HAL/RN_RX200/McuModule\ISR_TMR.c **** int MTU1_TGIA1_ExceptionHandler(void* pDevice, int status)
 106:C:/Workspace/FW_Inertia/branch_indesit/HAL/RN_RX200/McuModule\ISR_TMR.c **** {
 210                             		.loc 1 106 0
 211                             	.LVL23:
 107:C:/Workspace/FW_Inertia/branch_indesit/HAL/RN_RX200/McuModule\ISR_TMR.c ****     return TMR4_ISR();
 212                             		.loc 1 107 0
 213 0000 04 00 00 00             		bra	_TMR4_ISR
 214                             	.LVL24:
 215                             	.LFE9:
 217                             		.section	.text.TMR5_ISR,"ax",@progbits
 218                             		.weak	_TMR5_ISR
 220                             	_TMR5_ISR:
 221                             	.LFB10:
 108:C:/Workspace/FW_Inertia/branch_indesit/HAL/RN_RX200/McuModule\ISR_TMR.c **** }
 109:C:/Workspace/FW_Inertia/branch_indesit/HAL/RN_RX200/McuModule\ISR_TMR.c **** #endif
 110:C:/Workspace/FW_Inertia/branch_indesit/HAL/RN_RX200/McuModule\ISR_TMR.c **** 
 111:C:/Workspace/FW_Inertia/branch_indesit/HAL/RN_RX200/McuModule\ISR_TMR.c **** #if defined(TMR5_ISR_SUPPORT)
 112:C:/Workspace/FW_Inertia/branch_indesit/HAL/RN_RX200/McuModule\ISR_TMR.c **** int TMR5_ISR(void);
 113:C:/Workspace/FW_Inertia/branch_indesit/HAL/RN_RX200/McuModule\ISR_TMR.c **** __attribute__((weak)) int TMR5_ISR(void)
 114:C:/Workspace/FW_Inertia/branch_indesit/HAL/RN_RX200/McuModule\ISR_TMR.c **** {
 222                             		.loc 1 114 0
 115:C:/Workspace/FW_Inertia/branch_indesit/HAL/RN_RX200/McuModule\ISR_TMR.c **** 	if( TMR_GetClearSourceId(HAL_TMR_MTU3) == TCNT_CLEARING_TGRC ){
 223                             		.loc 1 115 0
 224 0000 66 31                   		mov	#3, r1
 225 0002 05 00 00 00             		bsr	_TMR_GetClearSourceId
 226                             	.LVL25:
 227 0006 5B 11                   		movu.B	r1, r1
 228 0008 61 21                   		cmp	#2, r1
 229 000a 18                      		bne	.L22
 116:C:/Workspace/FW_Inertia/branch_indesit/HAL/RN_RX200/McuModule\ISR_TMR.c **** 		HWCNTR_ISR(HW_TMR_ID_3);
 230                             		.loc 1 116 0
 231 000b 66 31                   		mov	#3, r1
 232 000d 05 00 00 00             		bsr	_HWCNTR_ISR
 233                             	.LVL26:
 117:C:/Workspace/FW_Inertia/branch_indesit/HAL/RN_RX200/McuModule\ISR_TMR.c **** 		return 1;
 234                             		.loc 1 117 0
 235 0011 0F                      		bra	.L23
 236                             	.L22:
 118:C:/Workspace/FW_Inertia/branch_indesit/HAL/RN_RX200/McuModule\ISR_TMR.c **** 	}else{
 119:C:/Workspace/FW_Inertia/branch_indesit/HAL/RN_RX200/McuModule\ISR_TMR.c **** 		HWTMRCH_ISR(TMR5_IDX);
 237                             		.loc 1 119 0
 238 0012 66 51                   		mov	#5, r1
 239 0014 05 00 00 00             		bsr	_HWTMRCH_ISR
 240                             	.LVL27:
 241                             		.balign 2,3,1
 242                             	.L23:
 120:C:/Workspace/FW_Inertia/branch_indesit/HAL/RN_RX200/McuModule\ISR_TMR.c **** 		return 1;
 121:C:/Workspace/FW_Inertia/branch_indesit/HAL/RN_RX200/McuModule\ISR_TMR.c **** 	}
 122:C:/Workspace/FW_Inertia/branch_indesit/HAL/RN_RX200/McuModule\ISR_TMR.c ****     return 0;
 123:C:/Workspace/FW_Inertia/branch_indesit/HAL/RN_RX200/McuModule\ISR_TMR.c **** }
 243                             		.loc 1 123 0
 244 0018 66 11                   		mov.L	#1, r1
 245 001a 02                      		rts
 246                             	.LFE10:
 248 001b 03                      		.section	.text.MTU3_TGIC3_ExceptionHandler,"ax",@progbits
 249                             		.global	_MTU3_TGIC3_ExceptionHandler
 251                             	_MTU3_TGIC3_ExceptionHandler:
 252                             	.LFB11:
 124:C:/Workspace/FW_Inertia/branch_indesit/HAL/RN_RX200/McuModule\ISR_TMR.c **** 
 125:C:/Workspace/FW_Inertia/branch_indesit/HAL/RN_RX200/McuModule\ISR_TMR.c **** int MTU3_TGIC3_ExceptionHandler(void* pDevice, int status)
 126:C:/Workspace/FW_Inertia/branch_indesit/HAL/RN_RX200/McuModule\ISR_TMR.c **** {
 253                             		.loc 1 126 0
 254                             	.LVL28:
 127:C:/Workspace/FW_Inertia/branch_indesit/HAL/RN_RX200/McuModule\ISR_TMR.c ****     return TMR5_ISR();
 255                             		.loc 1 127 0
 256 0000 04 00 00 00             		bra	_TMR5_ISR
 257                             	.LVL29:
 258                             	.LFE11:
 260                             		.section	.text.TMR6_ISR,"ax",@progbits
 261                             		.weak	_TMR6_ISR
 263                             	_TMR6_ISR:
 264                             	.LFB12:
 128:C:/Workspace/FW_Inertia/branch_indesit/HAL/RN_RX200/McuModule\ISR_TMR.c **** }
 129:C:/Workspace/FW_Inertia/branch_indesit/HAL/RN_RX200/McuModule\ISR_TMR.c **** #endif
 130:C:/Workspace/FW_Inertia/branch_indesit/HAL/RN_RX200/McuModule\ISR_TMR.c **** 
 131:C:/Workspace/FW_Inertia/branch_indesit/HAL/RN_RX200/McuModule\ISR_TMR.c **** #if defined(TMR6_ISR_SUPPORT)
 132:C:/Workspace/FW_Inertia/branch_indesit/HAL/RN_RX200/McuModule\ISR_TMR.c **** int TMR6_ISR(void);
 133:C:/Workspace/FW_Inertia/branch_indesit/HAL/RN_RX200/McuModule\ISR_TMR.c **** __attribute__((weak)) int TMR6_ISR(void)
 134:C:/Workspace/FW_Inertia/branch_indesit/HAL/RN_RX200/McuModule\ISR_TMR.c **** {
 265                             		.loc 1 134 0
 135:C:/Workspace/FW_Inertia/branch_indesit/HAL/RN_RX200/McuModule\ISR_TMR.c **** 	if( TMR_GetClearSourceId(HAL_TMR_MTU4) == TCNT_CLEARING_TGRC ){
 266                             		.loc 1 135 0
 267 0000 66 41                   		mov	#4, r1
 268 0002 05 00 00 00             		bsr	_TMR_GetClearSourceId
 269                             	.LVL30:
 270 0006 5B 11                   		movu.B	r1, r1
 271 0008 61 21                   		cmp	#2, r1
 272 000a 18                      		bne	.L26
 136:C:/Workspace/FW_Inertia/branch_indesit/HAL/RN_RX200/McuModule\ISR_TMR.c **** 		HWCNTR_ISR(HW_TMR_ID_4);
 273                             		.loc 1 136 0
 274 000b 66 41                   		mov	#4, r1
 275 000d 05 00 00 00             		bsr	_HWCNTR_ISR
 276                             	.LVL31:
 137:C:/Workspace/FW_Inertia/branch_indesit/HAL/RN_RX200/McuModule\ISR_TMR.c **** 		return 1;
 277                             		.loc 1 137 0
 278 0011 0F                      		bra	.L27
 279                             	.L26:
 138:C:/Workspace/FW_Inertia/branch_indesit/HAL/RN_RX200/McuModule\ISR_TMR.c **** 	}else{
 139:C:/Workspace/FW_Inertia/branch_indesit/HAL/RN_RX200/McuModule\ISR_TMR.c **** 		HWTMRCH_ISR(TMR6_IDX);
 280                             		.loc 1 139 0
 281 0012 66 61                   		mov	#6, r1
 282 0014 05 00 00 00             		bsr	_HWTMRCH_ISR
 283                             	.LVL32:
 284                             		.balign 2,3,1
 285                             	.L27:
 140:C:/Workspace/FW_Inertia/branch_indesit/HAL/RN_RX200/McuModule\ISR_TMR.c **** 		return 1;
 141:C:/Workspace/FW_Inertia/branch_indesit/HAL/RN_RX200/McuModule\ISR_TMR.c **** 	}
 142:C:/Workspace/FW_Inertia/branch_indesit/HAL/RN_RX200/McuModule\ISR_TMR.c ****     return 0;
 143:C:/Workspace/FW_Inertia/branch_indesit/HAL/RN_RX200/McuModule\ISR_TMR.c **** }
 286                             		.loc 1 143 0
 287 0018 66 11                   		mov.L	#1, r1
 288 001a 02                      		rts
 289                             	.LFE12:
 291 001b 03                      		.section	.text.MTU4_TGIC4_ExceptionHandler,"ax",@progbits
 292                             		.global	_MTU4_TGIC4_ExceptionHandler
 294                             	_MTU4_TGIC4_ExceptionHandler:
 295                             	.LFB13:
 144:C:/Workspace/FW_Inertia/branch_indesit/HAL/RN_RX200/McuModule\ISR_TMR.c **** 
 145:C:/Workspace/FW_Inertia/branch_indesit/HAL/RN_RX200/McuModule\ISR_TMR.c **** int MTU4_TGIC4_ExceptionHandler(void* pDevice, int status)
 146:C:/Workspace/FW_Inertia/branch_indesit/HAL/RN_RX200/McuModule\ISR_TMR.c **** {
 296                             		.loc 1 146 0
 297                             	.LVL33:
 147:C:/Workspace/FW_Inertia/branch_indesit/HAL/RN_RX200/McuModule\ISR_TMR.c ****     return TMR6_ISR();
 298                             		.loc 1 147 0
 299 0000 04 00 00 00             		bra	_TMR6_ISR
 300                             	.LVL34:
 301                             	.LFE13:
 303                             		.section	.text.TMR7_ISR,"ax",@progbits
 304                             		.weak	_TMR7_ISR
 306                             	_TMR7_ISR:
 307                             	.LFB14:
 148:C:/Workspace/FW_Inertia/branch_indesit/HAL/RN_RX200/McuModule\ISR_TMR.c **** }
 149:C:/Workspace/FW_Inertia/branch_indesit/HAL/RN_RX200/McuModule\ISR_TMR.c **** #endif
 150:C:/Workspace/FW_Inertia/branch_indesit/HAL/RN_RX200/McuModule\ISR_TMR.c **** 
 151:C:/Workspace/FW_Inertia/branch_indesit/HAL/RN_RX200/McuModule\ISR_TMR.c **** #if defined(TMR7_ISR_SUPPORT)
 152:C:/Workspace/FW_Inertia/branch_indesit/HAL/RN_RX200/McuModule\ISR_TMR.c **** int TMR7_ISR(void);
 153:C:/Workspace/FW_Inertia/branch_indesit/HAL/RN_RX200/McuModule\ISR_TMR.c **** __attribute__((weak)) int TMR7_ISR(void)
 154:C:/Workspace/FW_Inertia/branch_indesit/HAL/RN_RX200/McuModule\ISR_TMR.c **** {
 308                             		.loc 1 154 0
 155:C:/Workspace/FW_Inertia/branch_indesit/HAL/RN_RX200/McuModule\ISR_TMR.c **** 	if( TMR_GetClearSourceId(HAL_TMR_MTU4) == TCNT_CLEARING_TGRA ){
 309                             		.loc 1 155 0
 310 0000 66 41                   		mov	#4, r1
 311 0002 05 00 00 00             		bsr	_TMR_GetClearSourceId
 312                             	.LVL35:
 313 0006 76 21 FF 00             		and #0xff, r1
 314 000a 18                      		bne	.L30
 156:C:/Workspace/FW_Inertia/branch_indesit/HAL/RN_RX200/McuModule\ISR_TMR.c **** 		HWCNTR_ISR(HW_TMR_ID_4);
 315                             		.loc 1 156 0
 316 000b 66 41                   		mov	#4, r1
 317 000d 05 00 00 00             		bsr	_HWCNTR_ISR
 318                             	.LVL36:
 157:C:/Workspace/FW_Inertia/branch_indesit/HAL/RN_RX200/McuModule\ISR_TMR.c **** 		return 1;
 319                             		.loc 1 157 0
 320 0011 0F                      		bra	.L31
 321                             	.L30:
 158:C:/Workspace/FW_Inertia/branch_indesit/HAL/RN_RX200/McuModule\ISR_TMR.c **** 	}else{
 159:C:/Workspace/FW_Inertia/branch_indesit/HAL/RN_RX200/McuModule\ISR_TMR.c **** 		HWTMRCH_ISR(TMR7_IDX);
 322                             		.loc 1 159 0
 323 0012 66 71                   		mov	#7, r1
 324 0014 05 00 00 00             		bsr	_HWTMRCH_ISR
 325                             	.LVL37:
 326                             		.balign 2,3,1
 327                             	.L31:
 160:C:/Workspace/FW_Inertia/branch_indesit/HAL/RN_RX200/McuModule\ISR_TMR.c **** 		return 1;
 161:C:/Workspace/FW_Inertia/branch_indesit/HAL/RN_RX200/McuModule\ISR_TMR.c **** 	}
 162:C:/Workspace/FW_Inertia/branch_indesit/HAL/RN_RX200/McuModule\ISR_TMR.c ****     return 0;
 163:C:/Workspace/FW_Inertia/branch_indesit/HAL/RN_RX200/McuModule\ISR_TMR.c **** }
 328                             		.loc 1 163 0
 329 0018 66 11                   		mov.L	#1, r1
 330 001a 02                      		rts
 331                             	.LFE14:
 333 001b 03                      		.section	.text.MTU4_TGIA4_ExceptionHandler,"ax",@progbits
 334                             		.global	_MTU4_TGIA4_ExceptionHandler
 336                             	_MTU4_TGIA4_ExceptionHandler:
 337                             	.LFB15:
 164:C:/Workspace/FW_Inertia/branch_indesit/HAL/RN_RX200/McuModule\ISR_TMR.c **** 
 165:C:/Workspace/FW_Inertia/branch_indesit/HAL/RN_RX200/McuModule\ISR_TMR.c **** int MTU4_TGIA4_ExceptionHandler(void* pDevice, int status)
 166:C:/Workspace/FW_Inertia/branch_indesit/HAL/RN_RX200/McuModule\ISR_TMR.c **** {
 338                             		.loc 1 166 0
 339                             	.LVL38:
 167:C:/Workspace/FW_Inertia/branch_indesit/HAL/RN_RX200/McuModule\ISR_TMR.c ****     return TMR7_ISR();
 340                             		.loc 1 167 0
 341 0000 04 00 00 00             		bra	_TMR7_ISR
 342                             	.LVL39:
 343                             	.LFE15:
 345                             		.section	.text.TCIV0_ISR,"ax",@progbits
 346                             		.weak	_TCIV0_ISR
 348                             	_TCIV0_ISR:
 349                             	.LFB16:
 168:C:/Workspace/FW_Inertia/branch_indesit/HAL/RN_RX200/McuModule\ISR_TMR.c **** }
 169:C:/Workspace/FW_Inertia/branch_indesit/HAL/RN_RX200/McuModule\ISR_TMR.c **** #endif
 170:C:/Workspace/FW_Inertia/branch_indesit/HAL/RN_RX200/McuModule\ISR_TMR.c **** 
 171:C:/Workspace/FW_Inertia/branch_indesit/HAL/RN_RX200/McuModule\ISR_TMR.c **** 
 172:C:/Workspace/FW_Inertia/branch_indesit/HAL/RN_RX200/McuModule\ISR_TMR.c **** #if defined(TMR8_ISR_SUPPORT)
 173:C:/Workspace/FW_Inertia/branch_indesit/HAL/RN_RX200/McuModule\ISR_TMR.c **** int TMR8_ISR(void);
 174:C:/Workspace/FW_Inertia/branch_indesit/HAL/RN_RX200/McuModule\ISR_TMR.c **** __attribute__((weak)) int TMR8_ISR(void)
 175:C:/Workspace/FW_Inertia/branch_indesit/HAL/RN_RX200/McuModule\ISR_TMR.c **** {
 176:C:/Workspace/FW_Inertia/branch_indesit/HAL/RN_RX200/McuModule\ISR_TMR.c **** 	if( TMR_GetClearSourceId(HAL_TMR_MTU3) == TCNT_CLEARING_TGRD ){
 177:C:/Workspace/FW_Inertia/branch_indesit/HAL/RN_RX200/McuModule\ISR_TMR.c **** 		HWCNTR_ISR(HW_TMR_ID_3);
 178:C:/Workspace/FW_Inertia/branch_indesit/HAL/RN_RX200/McuModule\ISR_TMR.c **** 		return 1;
 179:C:/Workspace/FW_Inertia/branch_indesit/HAL/RN_RX200/McuModule\ISR_TMR.c **** 	}else{
 180:C:/Workspace/FW_Inertia/branch_indesit/HAL/RN_RX200/McuModule\ISR_TMR.c **** 		HWTMRCH_ISR(TMR8_IDX);
 181:C:/Workspace/FW_Inertia/branch_indesit/HAL/RN_RX200/McuModule\ISR_TMR.c **** 		return 1;
 182:C:/Workspace/FW_Inertia/branch_indesit/HAL/RN_RX200/McuModule\ISR_TMR.c **** 	}
 183:C:/Workspace/FW_Inertia/branch_indesit/HAL/RN_RX200/McuModule\ISR_TMR.c ****     return 0;
 184:C:/Workspace/FW_Inertia/branch_indesit/HAL/RN_RX200/McuModule\ISR_TMR.c **** }
 185:C:/Workspace/FW_Inertia/branch_indesit/HAL/RN_RX200/McuModule\ISR_TMR.c **** 
 186:C:/Workspace/FW_Inertia/branch_indesit/HAL/RN_RX200/McuModule\ISR_TMR.c **** int MTU3_TGID3_ExceptionHandler(void* pDevice, int status)
 187:C:/Workspace/FW_Inertia/branch_indesit/HAL/RN_RX200/McuModule\ISR_TMR.c **** {
 188:C:/Workspace/FW_Inertia/branch_indesit/HAL/RN_RX200/McuModule\ISR_TMR.c ****     return TMR8_ISR();
 189:C:/Workspace/FW_Inertia/branch_indesit/HAL/RN_RX200/McuModule\ISR_TMR.c **** }
 190:C:/Workspace/FW_Inertia/branch_indesit/HAL/RN_RX200/McuModule\ISR_TMR.c **** #endif
 191:C:/Workspace/FW_Inertia/branch_indesit/HAL/RN_RX200/McuModule\ISR_TMR.c **** 
 192:C:/Workspace/FW_Inertia/branch_indesit/HAL/RN_RX200/McuModule\ISR_TMR.c **** 
 193:C:/Workspace/FW_Inertia/branch_indesit/HAL/RN_RX200/McuModule\ISR_TMR.c **** #if defined(TMR9_ISR_SUPPORT)
 194:C:/Workspace/FW_Inertia/branch_indesit/HAL/RN_RX200/McuModule\ISR_TMR.c **** int TMR9_ISR(void);
 195:C:/Workspace/FW_Inertia/branch_indesit/HAL/RN_RX200/McuModule\ISR_TMR.c **** __attribute__((weak)) int TMR9_ISR(void)
 196:C:/Workspace/FW_Inertia/branch_indesit/HAL/RN_RX200/McuModule\ISR_TMR.c **** {
 197:C:/Workspace/FW_Inertia/branch_indesit/HAL/RN_RX200/McuModule\ISR_TMR.c **** 	if( TMR_GetClearSourceId(HAL_TMR_MTU4) == TCNT_CLEARING_TGRB ){
 198:C:/Workspace/FW_Inertia/branch_indesit/HAL/RN_RX200/McuModule\ISR_TMR.c **** 		HWCNTR_ISR(HW_TMR_ID_4);
 199:C:/Workspace/FW_Inertia/branch_indesit/HAL/RN_RX200/McuModule\ISR_TMR.c **** 		return 1;
 200:C:/Workspace/FW_Inertia/branch_indesit/HAL/RN_RX200/McuModule\ISR_TMR.c **** 	}else{
 201:C:/Workspace/FW_Inertia/branch_indesit/HAL/RN_RX200/McuModule\ISR_TMR.c **** 		HWTMRCH_ISR(TMR9_IDX);
 202:C:/Workspace/FW_Inertia/branch_indesit/HAL/RN_RX200/McuModule\ISR_TMR.c **** 		return 1;
 203:C:/Workspace/FW_Inertia/branch_indesit/HAL/RN_RX200/McuModule\ISR_TMR.c **** 	}
 204:C:/Workspace/FW_Inertia/branch_indesit/HAL/RN_RX200/McuModule\ISR_TMR.c ****     return 0;
 205:C:/Workspace/FW_Inertia/branch_indesit/HAL/RN_RX200/McuModule\ISR_TMR.c **** }
 206:C:/Workspace/FW_Inertia/branch_indesit/HAL/RN_RX200/McuModule\ISR_TMR.c **** 
 207:C:/Workspace/FW_Inertia/branch_indesit/HAL/RN_RX200/McuModule\ISR_TMR.c **** int MTU4_TGIB4_ExceptionHandler(void* pDevice, int status)
 208:C:/Workspace/FW_Inertia/branch_indesit/HAL/RN_RX200/McuModule\ISR_TMR.c **** {
 209:C:/Workspace/FW_Inertia/branch_indesit/HAL/RN_RX200/McuModule\ISR_TMR.c ****     return TMR9_ISR();
 210:C:/Workspace/FW_Inertia/branch_indesit/HAL/RN_RX200/McuModule\ISR_TMR.c **** }
 211:C:/Workspace/FW_Inertia/branch_indesit/HAL/RN_RX200/McuModule\ISR_TMR.c **** #endif
 212:C:/Workspace/FW_Inertia/branch_indesit/HAL/RN_RX200/McuModule\ISR_TMR.c **** 
 213:C:/Workspace/FW_Inertia/branch_indesit/HAL/RN_RX200/McuModule\ISR_TMR.c **** 
 214:C:/Workspace/FW_Inertia/branch_indesit/HAL/RN_RX200/McuModule\ISR_TMR.c **** #if defined(TMR10_ISR_SUPPORT)
 215:C:/Workspace/FW_Inertia/branch_indesit/HAL/RN_RX200/McuModule\ISR_TMR.c **** int TMR10_ISR(void);
 216:C:/Workspace/FW_Inertia/branch_indesit/HAL/RN_RX200/McuModule\ISR_TMR.c **** __attribute__((weak)) int TMR10_ISR(void)
 217:C:/Workspace/FW_Inertia/branch_indesit/HAL/RN_RX200/McuModule\ISR_TMR.c **** {
 218:C:/Workspace/FW_Inertia/branch_indesit/HAL/RN_RX200/McuModule\ISR_TMR.c **** 	if( TMR_GetClearSourceId(HAL_TMR_MTU0) == TCNT_CLEARING_TGRB ){
 219:C:/Workspace/FW_Inertia/branch_indesit/HAL/RN_RX200/McuModule\ISR_TMR.c **** 		HWCNTR_ISR(HW_TMR_ID_0);
 220:C:/Workspace/FW_Inertia/branch_indesit/HAL/RN_RX200/McuModule\ISR_TMR.c **** 		return 1;
 221:C:/Workspace/FW_Inertia/branch_indesit/HAL/RN_RX200/McuModule\ISR_TMR.c **** 	}else{
 222:C:/Workspace/FW_Inertia/branch_indesit/HAL/RN_RX200/McuModule\ISR_TMR.c **** 		HWTMRCH_ISR(TMR10_IDX);
 223:C:/Workspace/FW_Inertia/branch_indesit/HAL/RN_RX200/McuModule\ISR_TMR.c **** 		return 1;
 224:C:/Workspace/FW_Inertia/branch_indesit/HAL/RN_RX200/McuModule\ISR_TMR.c **** 	}
 225:C:/Workspace/FW_Inertia/branch_indesit/HAL/RN_RX200/McuModule\ISR_TMR.c ****     return 0;
 226:C:/Workspace/FW_Inertia/branch_indesit/HAL/RN_RX200/McuModule\ISR_TMR.c **** }
 227:C:/Workspace/FW_Inertia/branch_indesit/HAL/RN_RX200/McuModule\ISR_TMR.c **** 
 228:C:/Workspace/FW_Inertia/branch_indesit/HAL/RN_RX200/McuModule\ISR_TMR.c **** int MTU0_TGIB0_ExceptionHandler(void* pDevice, int status)
 229:C:/Workspace/FW_Inertia/branch_indesit/HAL/RN_RX200/McuModule\ISR_TMR.c **** {
 230:C:/Workspace/FW_Inertia/branch_indesit/HAL/RN_RX200/McuModule\ISR_TMR.c ****     return TMR10_ISR();
 231:C:/Workspace/FW_Inertia/branch_indesit/HAL/RN_RX200/McuModule\ISR_TMR.c **** }
 232:C:/Workspace/FW_Inertia/branch_indesit/HAL/RN_RX200/McuModule\ISR_TMR.c **** #endif
 233:C:/Workspace/FW_Inertia/branch_indesit/HAL/RN_RX200/McuModule\ISR_TMR.c **** 
 234:C:/Workspace/FW_Inertia/branch_indesit/HAL/RN_RX200/McuModule\ISR_TMR.c **** #elif defined(EDGE_MODULE_LP1_0258_02) || defined(EDGE_MODULE_LP1_0258_04)
 235:C:/Workspace/FW_Inertia/branch_indesit/HAL/RN_RX200/McuModule\ISR_TMR.c **** 
 236:C:/Workspace/FW_Inertia/branch_indesit/HAL/RN_RX200/McuModule\ISR_TMR.c **** 
 237:C:/Workspace/FW_Inertia/branch_indesit/HAL/RN_RX200/McuModule\ISR_TMR.c **** #if defined(TMR0_ISR_SUPPORT)
 238:C:/Workspace/FW_Inertia/branch_indesit/HAL/RN_RX200/McuModule\ISR_TMR.c **** int TMR0_ISR(void);
 239:C:/Workspace/FW_Inertia/branch_indesit/HAL/RN_RX200/McuModule\ISR_TMR.c **** __attribute__((weak)) int TMR0_ISR(void)
 240:C:/Workspace/FW_Inertia/branch_indesit/HAL/RN_RX200/McuModule\ISR_TMR.c **** {
 241:C:/Workspace/FW_Inertia/branch_indesit/HAL/RN_RX200/McuModule\ISR_TMR.c **** 	if( TMR_GetClearSourceId(HAL_TMR_MTU0) == TCNT_CLEARING_TGRA ){
 242:C:/Workspace/FW_Inertia/branch_indesit/HAL/RN_RX200/McuModule\ISR_TMR.c **** 		HWCNTR_ISR(HW_TMR_ID_0);
 243:C:/Workspace/FW_Inertia/branch_indesit/HAL/RN_RX200/McuModule\ISR_TMR.c **** 		return 1;
 244:C:/Workspace/FW_Inertia/branch_indesit/HAL/RN_RX200/McuModule\ISR_TMR.c **** 	}else{
 245:C:/Workspace/FW_Inertia/branch_indesit/HAL/RN_RX200/McuModule\ISR_TMR.c **** 		HWTMRCH_ISR(TMR0_IDX);
 246:C:/Workspace/FW_Inertia/branch_indesit/HAL/RN_RX200/McuModule\ISR_TMR.c **** 		return 1;
 247:C:/Workspace/FW_Inertia/branch_indesit/HAL/RN_RX200/McuModule\ISR_TMR.c **** 	}
 248:C:/Workspace/FW_Inertia/branch_indesit/HAL/RN_RX200/McuModule\ISR_TMR.c ****     return 0;
 249:C:/Workspace/FW_Inertia/branch_indesit/HAL/RN_RX200/McuModule\ISR_TMR.c **** }
 250:C:/Workspace/FW_Inertia/branch_indesit/HAL/RN_RX200/McuModule\ISR_TMR.c **** 
 251:C:/Workspace/FW_Inertia/branch_indesit/HAL/RN_RX200/McuModule\ISR_TMR.c **** 
 252:C:/Workspace/FW_Inertia/branch_indesit/HAL/RN_RX200/McuModule\ISR_TMR.c **** int MTU0_TGIA0_ExceptionHandler(void* pDevice, int status)
 253:C:/Workspace/FW_Inertia/branch_indesit/HAL/RN_RX200/McuModule\ISR_TMR.c **** {
 254:C:/Workspace/FW_Inertia/branch_indesit/HAL/RN_RX200/McuModule\ISR_TMR.c ****     return TMR0_ISR();
 255:C:/Workspace/FW_Inertia/branch_indesit/HAL/RN_RX200/McuModule\ISR_TMR.c **** }
 256:C:/Workspace/FW_Inertia/branch_indesit/HAL/RN_RX200/McuModule\ISR_TMR.c **** #endif
 257:C:/Workspace/FW_Inertia/branch_indesit/HAL/RN_RX200/McuModule\ISR_TMR.c **** 
 258:C:/Workspace/FW_Inertia/branch_indesit/HAL/RN_RX200/McuModule\ISR_TMR.c **** #if defined(TMR1_ISR_SUPPORT)
 259:C:/Workspace/FW_Inertia/branch_indesit/HAL/RN_RX200/McuModule\ISR_TMR.c **** int TMR1_ISR(void);
 260:C:/Workspace/FW_Inertia/branch_indesit/HAL/RN_RX200/McuModule\ISR_TMR.c **** __attribute__((weak)) int TMR1_ISR(void)
 261:C:/Workspace/FW_Inertia/branch_indesit/HAL/RN_RX200/McuModule\ISR_TMR.c **** {
 262:C:/Workspace/FW_Inertia/branch_indesit/HAL/RN_RX200/McuModule\ISR_TMR.c **** 	if( TMR_GetClearSourceId(HAL_TMR_MTU3) == TCNT_CLEARING_TGRA ){
 263:C:/Workspace/FW_Inertia/branch_indesit/HAL/RN_RX200/McuModule\ISR_TMR.c **** 		HWCNTR_ISR(HW_TMR_ID_3);
 264:C:/Workspace/FW_Inertia/branch_indesit/HAL/RN_RX200/McuModule\ISR_TMR.c **** 		return 1;
 265:C:/Workspace/FW_Inertia/branch_indesit/HAL/RN_RX200/McuModule\ISR_TMR.c **** 	}else{
 266:C:/Workspace/FW_Inertia/branch_indesit/HAL/RN_RX200/McuModule\ISR_TMR.c **** 		HWTMRCH_ISR(TMR1_IDX);
 267:C:/Workspace/FW_Inertia/branch_indesit/HAL/RN_RX200/McuModule\ISR_TMR.c **** 		return 1;
 268:C:/Workspace/FW_Inertia/branch_indesit/HAL/RN_RX200/McuModule\ISR_TMR.c **** 	}
 269:C:/Workspace/FW_Inertia/branch_indesit/HAL/RN_RX200/McuModule\ISR_TMR.c ****     return 0;
 270:C:/Workspace/FW_Inertia/branch_indesit/HAL/RN_RX200/McuModule\ISR_TMR.c **** }
 271:C:/Workspace/FW_Inertia/branch_indesit/HAL/RN_RX200/McuModule\ISR_TMR.c **** 
 272:C:/Workspace/FW_Inertia/branch_indesit/HAL/RN_RX200/McuModule\ISR_TMR.c **** int MTU3_TGIA3_ExceptionHandler(void* pDevice, int status)
 273:C:/Workspace/FW_Inertia/branch_indesit/HAL/RN_RX200/McuModule\ISR_TMR.c **** {
 274:C:/Workspace/FW_Inertia/branch_indesit/HAL/RN_RX200/McuModule\ISR_TMR.c ****     return TMR1_ISR();
 275:C:/Workspace/FW_Inertia/branch_indesit/HAL/RN_RX200/McuModule\ISR_TMR.c **** }
 276:C:/Workspace/FW_Inertia/branch_indesit/HAL/RN_RX200/McuModule\ISR_TMR.c **** #endif
 277:C:/Workspace/FW_Inertia/branch_indesit/HAL/RN_RX200/McuModule\ISR_TMR.c **** 
 278:C:/Workspace/FW_Inertia/branch_indesit/HAL/RN_RX200/McuModule\ISR_TMR.c **** #if defined(TMR2_ISR_SUPPORT)
 279:C:/Workspace/FW_Inertia/branch_indesit/HAL/RN_RX200/McuModule\ISR_TMR.c **** int TMR2_ISR(void);
 280:C:/Workspace/FW_Inertia/branch_indesit/HAL/RN_RX200/McuModule\ISR_TMR.c **** __attribute__((weak)) int TMR2_ISR(void)
 281:C:/Workspace/FW_Inertia/branch_indesit/HAL/RN_RX200/McuModule\ISR_TMR.c **** {
 282:C:/Workspace/FW_Inertia/branch_indesit/HAL/RN_RX200/McuModule\ISR_TMR.c **** 	if( TMR_GetClearSourceId(HAL_TMR_MTU2) == TCNT_CLEARING_TGRA ){
 283:C:/Workspace/FW_Inertia/branch_indesit/HAL/RN_RX200/McuModule\ISR_TMR.c **** 		HWCNTR_ISR(HW_TMR_ID_2);
 284:C:/Workspace/FW_Inertia/branch_indesit/HAL/RN_RX200/McuModule\ISR_TMR.c **** 		return 1;
 285:C:/Workspace/FW_Inertia/branch_indesit/HAL/RN_RX200/McuModule\ISR_TMR.c **** 	}else{
 286:C:/Workspace/FW_Inertia/branch_indesit/HAL/RN_RX200/McuModule\ISR_TMR.c **** 		HWTMRCH_ISR(TMR2_IDX);
 287:C:/Workspace/FW_Inertia/branch_indesit/HAL/RN_RX200/McuModule\ISR_TMR.c **** 		return 1;
 288:C:/Workspace/FW_Inertia/branch_indesit/HAL/RN_RX200/McuModule\ISR_TMR.c **** 	}
 289:C:/Workspace/FW_Inertia/branch_indesit/HAL/RN_RX200/McuModule\ISR_TMR.c ****     return 0;
 290:C:/Workspace/FW_Inertia/branch_indesit/HAL/RN_RX200/McuModule\ISR_TMR.c **** }
 291:C:/Workspace/FW_Inertia/branch_indesit/HAL/RN_RX200/McuModule\ISR_TMR.c **** 
 292:C:/Workspace/FW_Inertia/branch_indesit/HAL/RN_RX200/McuModule\ISR_TMR.c **** int MTU2_TGIA2_ExceptionHandler(void* pDevice, int status)
 293:C:/Workspace/FW_Inertia/branch_indesit/HAL/RN_RX200/McuModule\ISR_TMR.c **** {
 294:C:/Workspace/FW_Inertia/branch_indesit/HAL/RN_RX200/McuModule\ISR_TMR.c ****     return TMR2_ISR();
 295:C:/Workspace/FW_Inertia/branch_indesit/HAL/RN_RX200/McuModule\ISR_TMR.c **** }
 296:C:/Workspace/FW_Inertia/branch_indesit/HAL/RN_RX200/McuModule\ISR_TMR.c **** #endif
 297:C:/Workspace/FW_Inertia/branch_indesit/HAL/RN_RX200/McuModule\ISR_TMR.c **** 
 298:C:/Workspace/FW_Inertia/branch_indesit/HAL/RN_RX200/McuModule\ISR_TMR.c **** #if defined(TMR3_ISR_SUPPORT)
 299:C:/Workspace/FW_Inertia/branch_indesit/HAL/RN_RX200/McuModule\ISR_TMR.c **** int TMR3_ISR(void);
 300:C:/Workspace/FW_Inertia/branch_indesit/HAL/RN_RX200/McuModule\ISR_TMR.c **** __attribute__((weak)) int TMR3_ISR(void)
 301:C:/Workspace/FW_Inertia/branch_indesit/HAL/RN_RX200/McuModule\ISR_TMR.c **** {
 302:C:/Workspace/FW_Inertia/branch_indesit/HAL/RN_RX200/McuModule\ISR_TMR.c **** 	if( TMR_GetClearSourceId(HAL_TMR_MTU0) == TCNT_CLEARING_TGRC ){
 303:C:/Workspace/FW_Inertia/branch_indesit/HAL/RN_RX200/McuModule\ISR_TMR.c **** 		HWCNTR_ISR(HW_TMR_ID_0);
 304:C:/Workspace/FW_Inertia/branch_indesit/HAL/RN_RX200/McuModule\ISR_TMR.c **** 		return 1;
 305:C:/Workspace/FW_Inertia/branch_indesit/HAL/RN_RX200/McuModule\ISR_TMR.c **** 	}else{
 306:C:/Workspace/FW_Inertia/branch_indesit/HAL/RN_RX200/McuModule\ISR_TMR.c **** 		HWTMRCH_ISR(TMR3_IDX);
 307:C:/Workspace/FW_Inertia/branch_indesit/HAL/RN_RX200/McuModule\ISR_TMR.c **** 		return 1;
 308:C:/Workspace/FW_Inertia/branch_indesit/HAL/RN_RX200/McuModule\ISR_TMR.c **** 	}
 309:C:/Workspace/FW_Inertia/branch_indesit/HAL/RN_RX200/McuModule\ISR_TMR.c **** }
 310:C:/Workspace/FW_Inertia/branch_indesit/HAL/RN_RX200/McuModule\ISR_TMR.c **** 
 311:C:/Workspace/FW_Inertia/branch_indesit/HAL/RN_RX200/McuModule\ISR_TMR.c **** int MTU0_TGIC0_ExceptionHandler(void* pDevice, int status)
 312:C:/Workspace/FW_Inertia/branch_indesit/HAL/RN_RX200/McuModule\ISR_TMR.c **** {
 313:C:/Workspace/FW_Inertia/branch_indesit/HAL/RN_RX200/McuModule\ISR_TMR.c ****     return TMR3_ISR();
 314:C:/Workspace/FW_Inertia/branch_indesit/HAL/RN_RX200/McuModule\ISR_TMR.c **** }
 315:C:/Workspace/FW_Inertia/branch_indesit/HAL/RN_RX200/McuModule\ISR_TMR.c **** #endif
 316:C:/Workspace/FW_Inertia/branch_indesit/HAL/RN_RX200/McuModule\ISR_TMR.c **** 
 317:C:/Workspace/FW_Inertia/branch_indesit/HAL/RN_RX200/McuModule\ISR_TMR.c **** #if defined(TMR4_ISR_SUPPORT)
 318:C:/Workspace/FW_Inertia/branch_indesit/HAL/RN_RX200/McuModule\ISR_TMR.c **** int TMR4_ISR(void);
 319:C:/Workspace/FW_Inertia/branch_indesit/HAL/RN_RX200/McuModule\ISR_TMR.c **** __attribute__((weak)) int TMR4_ISR(void)
 320:C:/Workspace/FW_Inertia/branch_indesit/HAL/RN_RX200/McuModule\ISR_TMR.c **** {
 321:C:/Workspace/FW_Inertia/branch_indesit/HAL/RN_RX200/McuModule\ISR_TMR.c **** 	if( TMR_GetClearSourceId(HAL_TMR_MTU1) == TCNT_CLEARING_TGRA ){
 322:C:/Workspace/FW_Inertia/branch_indesit/HAL/RN_RX200/McuModule\ISR_TMR.c **** 		HWCNTR_ISR(HW_TMR_ID_1);
 323:C:/Workspace/FW_Inertia/branch_indesit/HAL/RN_RX200/McuModule\ISR_TMR.c **** 		return 1;
 324:C:/Workspace/FW_Inertia/branch_indesit/HAL/RN_RX200/McuModule\ISR_TMR.c **** 	}else{
 325:C:/Workspace/FW_Inertia/branch_indesit/HAL/RN_RX200/McuModule\ISR_TMR.c **** 		HWTMRCH_ISR(TMR4_IDX);
 326:C:/Workspace/FW_Inertia/branch_indesit/HAL/RN_RX200/McuModule\ISR_TMR.c **** 		return 1;
 327:C:/Workspace/FW_Inertia/branch_indesit/HAL/RN_RX200/McuModule\ISR_TMR.c **** 	}
 328:C:/Workspace/FW_Inertia/branch_indesit/HAL/RN_RX200/McuModule\ISR_TMR.c ****     return 0;
 329:C:/Workspace/FW_Inertia/branch_indesit/HAL/RN_RX200/McuModule\ISR_TMR.c **** }
 330:C:/Workspace/FW_Inertia/branch_indesit/HAL/RN_RX200/McuModule\ISR_TMR.c **** 
 331:C:/Workspace/FW_Inertia/branch_indesit/HAL/RN_RX200/McuModule\ISR_TMR.c **** int MTU1_TGIA1_ExceptionHandler(void* pDevice, int status)
 332:C:/Workspace/FW_Inertia/branch_indesit/HAL/RN_RX200/McuModule\ISR_TMR.c **** {
 333:C:/Workspace/FW_Inertia/branch_indesit/HAL/RN_RX200/McuModule\ISR_TMR.c ****     return TMR4_ISR();
 334:C:/Workspace/FW_Inertia/branch_indesit/HAL/RN_RX200/McuModule\ISR_TMR.c **** }
 335:C:/Workspace/FW_Inertia/branch_indesit/HAL/RN_RX200/McuModule\ISR_TMR.c **** #endif
 336:C:/Workspace/FW_Inertia/branch_indesit/HAL/RN_RX200/McuModule\ISR_TMR.c **** 
 337:C:/Workspace/FW_Inertia/branch_indesit/HAL/RN_RX200/McuModule\ISR_TMR.c **** #if defined(TMR5_ISR_SUPPORT)
 338:C:/Workspace/FW_Inertia/branch_indesit/HAL/RN_RX200/McuModule\ISR_TMR.c **** int TMR5_ISR(void);
 339:C:/Workspace/FW_Inertia/branch_indesit/HAL/RN_RX200/McuModule\ISR_TMR.c **** __attribute__((weak)) int TMR5_ISR(void)
 340:C:/Workspace/FW_Inertia/branch_indesit/HAL/RN_RX200/McuModule\ISR_TMR.c **** {
 341:C:/Workspace/FW_Inertia/branch_indesit/HAL/RN_RX200/McuModule\ISR_TMR.c **** 	if( TMR_GetClearSourceId(HAL_TMR_MTU3) == TCNT_CLEARING_TGRC ){
 342:C:/Workspace/FW_Inertia/branch_indesit/HAL/RN_RX200/McuModule\ISR_TMR.c **** 		HWCNTR_ISR(HW_TMR_ID_3);
 343:C:/Workspace/FW_Inertia/branch_indesit/HAL/RN_RX200/McuModule\ISR_TMR.c **** 		return 1;
 344:C:/Workspace/FW_Inertia/branch_indesit/HAL/RN_RX200/McuModule\ISR_TMR.c **** 	}else{
 345:C:/Workspace/FW_Inertia/branch_indesit/HAL/RN_RX200/McuModule\ISR_TMR.c **** 		HWTMRCH_ISR(TMR5_IDX);
 346:C:/Workspace/FW_Inertia/branch_indesit/HAL/RN_RX200/McuModule\ISR_TMR.c **** 		return 1;
 347:C:/Workspace/FW_Inertia/branch_indesit/HAL/RN_RX200/McuModule\ISR_TMR.c **** 	}
 348:C:/Workspace/FW_Inertia/branch_indesit/HAL/RN_RX200/McuModule\ISR_TMR.c ****     return 0;
 349:C:/Workspace/FW_Inertia/branch_indesit/HAL/RN_RX200/McuModule\ISR_TMR.c **** }
 350:C:/Workspace/FW_Inertia/branch_indesit/HAL/RN_RX200/McuModule\ISR_TMR.c **** 
 351:C:/Workspace/FW_Inertia/branch_indesit/HAL/RN_RX200/McuModule\ISR_TMR.c **** int MTU3_TGIC3_ExceptionHandler(void* pDevice, int status)
 352:C:/Workspace/FW_Inertia/branch_indesit/HAL/RN_RX200/McuModule\ISR_TMR.c **** {
 353:C:/Workspace/FW_Inertia/branch_indesit/HAL/RN_RX200/McuModule\ISR_TMR.c ****     return TMR5_ISR();
 354:C:/Workspace/FW_Inertia/branch_indesit/HAL/RN_RX200/McuModule\ISR_TMR.c **** }
 355:C:/Workspace/FW_Inertia/branch_indesit/HAL/RN_RX200/McuModule\ISR_TMR.c **** #endif
 356:C:/Workspace/FW_Inertia/branch_indesit/HAL/RN_RX200/McuModule\ISR_TMR.c **** 
 357:C:/Workspace/FW_Inertia/branch_indesit/HAL/RN_RX200/McuModule\ISR_TMR.c **** #if defined(TMR6_ISR_SUPPORT)
 358:C:/Workspace/FW_Inertia/branch_indesit/HAL/RN_RX200/McuModule\ISR_TMR.c **** int TMR6_ISR(void);
 359:C:/Workspace/FW_Inertia/branch_indesit/HAL/RN_RX200/McuModule\ISR_TMR.c **** __attribute__((weak)) int TMR6_ISR(void)
 360:C:/Workspace/FW_Inertia/branch_indesit/HAL/RN_RX200/McuModule\ISR_TMR.c **** {
 361:C:/Workspace/FW_Inertia/branch_indesit/HAL/RN_RX200/McuModule\ISR_TMR.c **** 	if( TMR_GetClearSourceId(HAL_TMR_MTU4) == TCNT_CLEARING_TGRC ){
 362:C:/Workspace/FW_Inertia/branch_indesit/HAL/RN_RX200/McuModule\ISR_TMR.c **** 		HWCNTR_ISR(HW_TMR_ID_4);
 363:C:/Workspace/FW_Inertia/branch_indesit/HAL/RN_RX200/McuModule\ISR_TMR.c **** 		return 1;
 364:C:/Workspace/FW_Inertia/branch_indesit/HAL/RN_RX200/McuModule\ISR_TMR.c **** 	}else{
 365:C:/Workspace/FW_Inertia/branch_indesit/HAL/RN_RX200/McuModule\ISR_TMR.c **** 		HWTMRCH_ISR(TMR6_IDX);
 366:C:/Workspace/FW_Inertia/branch_indesit/HAL/RN_RX200/McuModule\ISR_TMR.c **** 		return 1;
 367:C:/Workspace/FW_Inertia/branch_indesit/HAL/RN_RX200/McuModule\ISR_TMR.c **** 	}
 368:C:/Workspace/FW_Inertia/branch_indesit/HAL/RN_RX200/McuModule\ISR_TMR.c ****     return 0;
 369:C:/Workspace/FW_Inertia/branch_indesit/HAL/RN_RX200/McuModule\ISR_TMR.c **** }
 370:C:/Workspace/FW_Inertia/branch_indesit/HAL/RN_RX200/McuModule\ISR_TMR.c **** 
 371:C:/Workspace/FW_Inertia/branch_indesit/HAL/RN_RX200/McuModule\ISR_TMR.c **** int MTU4_TGIC4_ExceptionHandler(void* pDevice, int status)
 372:C:/Workspace/FW_Inertia/branch_indesit/HAL/RN_RX200/McuModule\ISR_TMR.c **** {
 373:C:/Workspace/FW_Inertia/branch_indesit/HAL/RN_RX200/McuModule\ISR_TMR.c ****     return TMR6_ISR();
 374:C:/Workspace/FW_Inertia/branch_indesit/HAL/RN_RX200/McuModule\ISR_TMR.c **** }
 375:C:/Workspace/FW_Inertia/branch_indesit/HAL/RN_RX200/McuModule\ISR_TMR.c **** #endif
 376:C:/Workspace/FW_Inertia/branch_indesit/HAL/RN_RX200/McuModule\ISR_TMR.c **** 
 377:C:/Workspace/FW_Inertia/branch_indesit/HAL/RN_RX200/McuModule\ISR_TMR.c **** #if defined(TMR7_ISR_SUPPORT)
 378:C:/Workspace/FW_Inertia/branch_indesit/HAL/RN_RX200/McuModule\ISR_TMR.c **** int TMR7_ISR(void);
 379:C:/Workspace/FW_Inertia/branch_indesit/HAL/RN_RX200/McuModule\ISR_TMR.c **** __attribute__((weak)) int TMR7_ISR(void)
 380:C:/Workspace/FW_Inertia/branch_indesit/HAL/RN_RX200/McuModule\ISR_TMR.c **** {
 381:C:/Workspace/FW_Inertia/branch_indesit/HAL/RN_RX200/McuModule\ISR_TMR.c **** 	if( TMR_GetClearSourceId(HAL_TMR_MTU4) == TCNT_CLEARING_TGRA ){
 382:C:/Workspace/FW_Inertia/branch_indesit/HAL/RN_RX200/McuModule\ISR_TMR.c **** 		HWCNTR_ISR(HW_TMR_ID_4);
 383:C:/Workspace/FW_Inertia/branch_indesit/HAL/RN_RX200/McuModule\ISR_TMR.c **** 		return 1;
 384:C:/Workspace/FW_Inertia/branch_indesit/HAL/RN_RX200/McuModule\ISR_TMR.c **** 	}else{
 385:C:/Workspace/FW_Inertia/branch_indesit/HAL/RN_RX200/McuModule\ISR_TMR.c **** 		HWTMRCH_ISR(TMR7_IDX);
 386:C:/Workspace/FW_Inertia/branch_indesit/HAL/RN_RX200/McuModule\ISR_TMR.c **** 		return 1;
 387:C:/Workspace/FW_Inertia/branch_indesit/HAL/RN_RX200/McuModule\ISR_TMR.c **** 	}
 388:C:/Workspace/FW_Inertia/branch_indesit/HAL/RN_RX200/McuModule\ISR_TMR.c ****     return 0;
 389:C:/Workspace/FW_Inertia/branch_indesit/HAL/RN_RX200/McuModule\ISR_TMR.c **** }
 390:C:/Workspace/FW_Inertia/branch_indesit/HAL/RN_RX200/McuModule\ISR_TMR.c **** 
 391:C:/Workspace/FW_Inertia/branch_indesit/HAL/RN_RX200/McuModule\ISR_TMR.c **** int MTU4_TGIA4_ExceptionHandler(void* pDevice, int status)
 392:C:/Workspace/FW_Inertia/branch_indesit/HAL/RN_RX200/McuModule\ISR_TMR.c **** {
 393:C:/Workspace/FW_Inertia/branch_indesit/HAL/RN_RX200/McuModule\ISR_TMR.c ****     return TMR7_ISR();
 394:C:/Workspace/FW_Inertia/branch_indesit/HAL/RN_RX200/McuModule\ISR_TMR.c **** }
 395:C:/Workspace/FW_Inertia/branch_indesit/HAL/RN_RX200/McuModule\ISR_TMR.c **** #endif
 396:C:/Workspace/FW_Inertia/branch_indesit/HAL/RN_RX200/McuModule\ISR_TMR.c **** 
 397:C:/Workspace/FW_Inertia/branch_indesit/HAL/RN_RX200/McuModule\ISR_TMR.c **** 
 398:C:/Workspace/FW_Inertia/branch_indesit/HAL/RN_RX200/McuModule\ISR_TMR.c **** #if defined(TMR8_ISR_SUPPORT)
 399:C:/Workspace/FW_Inertia/branch_indesit/HAL/RN_RX200/McuModule\ISR_TMR.c **** int TMR8_ISR(void);
 400:C:/Workspace/FW_Inertia/branch_indesit/HAL/RN_RX200/McuModule\ISR_TMR.c **** __attribute__((weak)) int TMR8_ISR(void)
 401:C:/Workspace/FW_Inertia/branch_indesit/HAL/RN_RX200/McuModule\ISR_TMR.c **** {
 402:C:/Workspace/FW_Inertia/branch_indesit/HAL/RN_RX200/McuModule\ISR_TMR.c **** 	if( TMR_GetClearSourceId(HAL_TMR_MTU3) == TCNT_CLEARING_TGRD ){
 403:C:/Workspace/FW_Inertia/branch_indesit/HAL/RN_RX200/McuModule\ISR_TMR.c **** 		HWCNTR_ISR(HW_TMR_ID_3);
 404:C:/Workspace/FW_Inertia/branch_indesit/HAL/RN_RX200/McuModule\ISR_TMR.c **** 		return 1;
 405:C:/Workspace/FW_Inertia/branch_indesit/HAL/RN_RX200/McuModule\ISR_TMR.c **** 	}else{
 406:C:/Workspace/FW_Inertia/branch_indesit/HAL/RN_RX200/McuModule\ISR_TMR.c **** 		HWTMRCH_ISR(TMR8_IDX);
 407:C:/Workspace/FW_Inertia/branch_indesit/HAL/RN_RX200/McuModule\ISR_TMR.c **** 		return 1;
 408:C:/Workspace/FW_Inertia/branch_indesit/HAL/RN_RX200/McuModule\ISR_TMR.c **** 	}
 409:C:/Workspace/FW_Inertia/branch_indesit/HAL/RN_RX200/McuModule\ISR_TMR.c ****     return 0;
 410:C:/Workspace/FW_Inertia/branch_indesit/HAL/RN_RX200/McuModule\ISR_TMR.c **** }
 411:C:/Workspace/FW_Inertia/branch_indesit/HAL/RN_RX200/McuModule\ISR_TMR.c **** 
 412:C:/Workspace/FW_Inertia/branch_indesit/HAL/RN_RX200/McuModule\ISR_TMR.c **** int MTU3_TGID3_ExceptionHandler(void* pDevice, int status)
 413:C:/Workspace/FW_Inertia/branch_indesit/HAL/RN_RX200/McuModule\ISR_TMR.c **** {
 414:C:/Workspace/FW_Inertia/branch_indesit/HAL/RN_RX200/McuModule\ISR_TMR.c ****     return TMR8_ISR();
 415:C:/Workspace/FW_Inertia/branch_indesit/HAL/RN_RX200/McuModule\ISR_TMR.c **** }
 416:C:/Workspace/FW_Inertia/branch_indesit/HAL/RN_RX200/McuModule\ISR_TMR.c **** #endif
 417:C:/Workspace/FW_Inertia/branch_indesit/HAL/RN_RX200/McuModule\ISR_TMR.c **** 
 418:C:/Workspace/FW_Inertia/branch_indesit/HAL/RN_RX200/McuModule\ISR_TMR.c **** 
 419:C:/Workspace/FW_Inertia/branch_indesit/HAL/RN_RX200/McuModule\ISR_TMR.c **** #if defined(TMR9_ISR_SUPPORT)
 420:C:/Workspace/FW_Inertia/branch_indesit/HAL/RN_RX200/McuModule\ISR_TMR.c **** int TMR9_ISR(void);
 421:C:/Workspace/FW_Inertia/branch_indesit/HAL/RN_RX200/McuModule\ISR_TMR.c **** __attribute__((weak)) int TMR9_ISR(void)
 422:C:/Workspace/FW_Inertia/branch_indesit/HAL/RN_RX200/McuModule\ISR_TMR.c **** {
 423:C:/Workspace/FW_Inertia/branch_indesit/HAL/RN_RX200/McuModule\ISR_TMR.c **** 	if( TMR_GetClearSourceId(HAL_TMR_MTU4) == TCNT_CLEARING_TGRB ){
 424:C:/Workspace/FW_Inertia/branch_indesit/HAL/RN_RX200/McuModule\ISR_TMR.c **** 		HWCNTR_ISR(HW_TMR_ID_4);
 425:C:/Workspace/FW_Inertia/branch_indesit/HAL/RN_RX200/McuModule\ISR_TMR.c **** 		return 1;
 426:C:/Workspace/FW_Inertia/branch_indesit/HAL/RN_RX200/McuModule\ISR_TMR.c **** 	}else{
 427:C:/Workspace/FW_Inertia/branch_indesit/HAL/RN_RX200/McuModule\ISR_TMR.c **** 		HWTMRCH_ISR(TMR9_IDX);
 428:C:/Workspace/FW_Inertia/branch_indesit/HAL/RN_RX200/McuModule\ISR_TMR.c **** 		return 1;
 429:C:/Workspace/FW_Inertia/branch_indesit/HAL/RN_RX200/McuModule\ISR_TMR.c **** 	}
 430:C:/Workspace/FW_Inertia/branch_indesit/HAL/RN_RX200/McuModule\ISR_TMR.c ****     return 0;
 431:C:/Workspace/FW_Inertia/branch_indesit/HAL/RN_RX200/McuModule\ISR_TMR.c **** }
 432:C:/Workspace/FW_Inertia/branch_indesit/HAL/RN_RX200/McuModule\ISR_TMR.c **** 
 433:C:/Workspace/FW_Inertia/branch_indesit/HAL/RN_RX200/McuModule\ISR_TMR.c **** int MTU4_TGIB4_ExceptionHandler(void* pDevice, int status)
 434:C:/Workspace/FW_Inertia/branch_indesit/HAL/RN_RX200/McuModule\ISR_TMR.c **** {
 435:C:/Workspace/FW_Inertia/branch_indesit/HAL/RN_RX200/McuModule\ISR_TMR.c ****     return TMR9_ISR();
 436:C:/Workspace/FW_Inertia/branch_indesit/HAL/RN_RX200/McuModule\ISR_TMR.c **** }
 437:C:/Workspace/FW_Inertia/branch_indesit/HAL/RN_RX200/McuModule\ISR_TMR.c **** #endif
 438:C:/Workspace/FW_Inertia/branch_indesit/HAL/RN_RX200/McuModule\ISR_TMR.c **** 
 439:C:/Workspace/FW_Inertia/branch_indesit/HAL/RN_RX200/McuModule\ISR_TMR.c **** 
 440:C:/Workspace/FW_Inertia/branch_indesit/HAL/RN_RX200/McuModule\ISR_TMR.c **** #endif /* defined(CASTELLATED_MODULE_LP1_0241_01) */
 441:C:/Workspace/FW_Inertia/branch_indesit/HAL/RN_RX200/McuModule\ISR_TMR.c **** 
 442:C:/Workspace/FW_Inertia/branch_indesit/HAL/RN_RX200/McuModule\ISR_TMR.c **** 
 443:C:/Workspace/FW_Inertia/branch_indesit/HAL/RN_RX200/McuModule\ISR_TMR.c **** #if defined(TCIV0_IRQ_SUPPORT)
 444:C:/Workspace/FW_Inertia/branch_indesit/HAL/RN_RX200/McuModule\ISR_TMR.c **** int TCIV0_ISR(void);
 445:C:/Workspace/FW_Inertia/branch_indesit/HAL/RN_RX200/McuModule\ISR_TMR.c **** __attribute__((weak)) int TCIV0_ISR(void)
 446:C:/Workspace/FW_Inertia/branch_indesit/HAL/RN_RX200/McuModule\ISR_TMR.c **** {
 350                             		.loc 1 446 0
 447:C:/Workspace/FW_Inertia/branch_indesit/HAL/RN_RX200/McuModule\ISR_TMR.c **** 	if( TMR_GetClearSourceId(HAL_TMR_MTU0) == TCNT_CLEARING_OVERFLOW ){
 351                             		.loc 1 447 0
 352 0000 66 01                   		mov	#0, r1
 353 0002 05 00 00 00             		bsr	_TMR_GetClearSourceId
 354                             	.LVL40:
 355 0006 5B 11                   		movu.B	r1, r1
 356 0008 61 41                   		cmp	#4, r1
 357 000a 1A                      		bne	.L35
 448:C:/Workspace/FW_Inertia/branch_indesit/HAL/RN_RX200/McuModule\ISR_TMR.c **** 		HWCNTR_ISR(HW_TMR_ID_0);
 358                             		.loc 1 448 0
 359 000b 66 01                   		mov	#0, r1
 360 000d 05 00 00 00             		bsr	_HWCNTR_ISR
 361                             	.LVL41:
 449:C:/Workspace/FW_Inertia/branch_indesit/HAL/RN_RX200/McuModule\ISR_TMR.c **** 		return 1;
 362                             		.loc 1 449 0
 363 0011 66 11                   		mov.L	#1, r1
 364 0013 02                      		rts
 365                             	.L35:
 450:C:/Workspace/FW_Inertia/branch_indesit/HAL/RN_RX200/McuModule\ISR_TMR.c **** 	}
 451:C:/Workspace/FW_Inertia/branch_indesit/HAL/RN_RX200/McuModule\ISR_TMR.c ****     return 0;
 366                             		.loc 1 451 0
 367 0014 66 01                   		mov.L	#0, r1
 452:C:/Workspace/FW_Inertia/branch_indesit/HAL/RN_RX200/McuModule\ISR_TMR.c **** }
 368                             		.loc 1 452 0
 369 0016 02                      		rts
 370                             	.LFE16:
 372                             		.section	.text.CNT0_OVF_ExceptionHandler,"ax",@progbits
 373                             		.global	_CNT0_OVF_ExceptionHandler
 375                             	_CNT0_OVF_ExceptionHandler:
 376                             	.LFB17:
 453:C:/Workspace/FW_Inertia/branch_indesit/HAL/RN_RX200/McuModule\ISR_TMR.c **** 
 454:C:/Workspace/FW_Inertia/branch_indesit/HAL/RN_RX200/McuModule\ISR_TMR.c **** int  CNT0_OVF_ExceptionHandler(void)
 455:C:/Workspace/FW_Inertia/branch_indesit/HAL/RN_RX200/McuModule\ISR_TMR.c **** {
 377                             		.loc 1 455 0
 456:C:/Workspace/FW_Inertia/branch_indesit/HAL/RN_RX200/McuModule\ISR_TMR.c **** 	return TCIV0_ISR();
 378                             		.loc 1 456 0
 379 0000 04 00 00 00             		bra	_TCIV0_ISR
 380                             	.LVL42:
 381                             	.LFE17:
 383                             		.section	.text.TCIV1_ISR,"ax",@progbits
 384                             		.weak	_TCIV1_ISR
 386                             	_TCIV1_ISR:
 387                             	.LFB18:
 457:C:/Workspace/FW_Inertia/branch_indesit/HAL/RN_RX200/McuModule\ISR_TMR.c **** }
 458:C:/Workspace/FW_Inertia/branch_indesit/HAL/RN_RX200/McuModule\ISR_TMR.c **** #endif
 459:C:/Workspace/FW_Inertia/branch_indesit/HAL/RN_RX200/McuModule\ISR_TMR.c **** 
 460:C:/Workspace/FW_Inertia/branch_indesit/HAL/RN_RX200/McuModule\ISR_TMR.c **** #if defined(TCIV1_IRQ_SUPPORT)
 461:C:/Workspace/FW_Inertia/branch_indesit/HAL/RN_RX200/McuModule\ISR_TMR.c **** int TCIV1_ISR(void);
 462:C:/Workspace/FW_Inertia/branch_indesit/HAL/RN_RX200/McuModule\ISR_TMR.c **** __attribute__((weak)) int TCIV1_ISR(void)
 463:C:/Workspace/FW_Inertia/branch_indesit/HAL/RN_RX200/McuModule\ISR_TMR.c **** {
 388                             		.loc 1 463 0
 464:C:/Workspace/FW_Inertia/branch_indesit/HAL/RN_RX200/McuModule\ISR_TMR.c **** 	if( TMR_GetClearSourceId(HAL_TMR_MTU1) == TCNT_CLEARING_OVERFLOW ){
 389                             		.loc 1 464 0
 390 0000 66 11                   		mov	#1, r1
 391 0002 05 00 00 00             		bsr	_TMR_GetClearSourceId
 392                             	.LVL43:
 393 0006 5B 11                   		movu.B	r1, r1
 394 0008 61 41                   		cmp	#4, r1
 395 000a 1A                      		bne	.L39
 465:C:/Workspace/FW_Inertia/branch_indesit/HAL/RN_RX200/McuModule\ISR_TMR.c **** 		HWCNTR_ISR(HW_TMR_ID_1);
 396                             		.loc 1 465 0
 397 000b 66 11                   		mov	#1, r1
 398 000d 05 00 00 00             		bsr	_HWCNTR_ISR
 399                             	.LVL44:
 466:C:/Workspace/FW_Inertia/branch_indesit/HAL/RN_RX200/McuModule\ISR_TMR.c **** 		return 1;
 400                             		.loc 1 466 0
 401 0011 66 11                   		mov.L	#1, r1
 402 0013 02                      		rts
 403                             	.L39:
 467:C:/Workspace/FW_Inertia/branch_indesit/HAL/RN_RX200/McuModule\ISR_TMR.c **** 	}
 468:C:/Workspace/FW_Inertia/branch_indesit/HAL/RN_RX200/McuModule\ISR_TMR.c ****     return 0;
 404                             		.loc 1 468 0
 405 0014 66 01                   		mov.L	#0, r1
 469:C:/Workspace/FW_Inertia/branch_indesit/HAL/RN_RX200/McuModule\ISR_TMR.c **** }
 406                             		.loc 1 469 0
 407 0016 02                      		rts
 408                             	.LFE18:
 410                             		.section	.text.CNT1_OVF_ExceptionHandler,"ax",@progbits
 411                             		.global	_CNT1_OVF_ExceptionHandler
 413                             	_CNT1_OVF_ExceptionHandler:
 414                             	.LFB19:
 470:C:/Workspace/FW_Inertia/branch_indesit/HAL/RN_RX200/McuModule\ISR_TMR.c **** 
 471:C:/Workspace/FW_Inertia/branch_indesit/HAL/RN_RX200/McuModule\ISR_TMR.c **** int  CNT1_OVF_ExceptionHandler(void)
 472:C:/Workspace/FW_Inertia/branch_indesit/HAL/RN_RX200/McuModule\ISR_TMR.c **** {
 415                             		.loc 1 472 0
 473:C:/Workspace/FW_Inertia/branch_indesit/HAL/RN_RX200/McuModule\ISR_TMR.c **** 	return TCIV1_ISR();
 416                             		.loc 1 473 0
 417 0000 04 00 00 00             		bra	_TCIV1_ISR
 418                             	.LVL45:
 419                             	.LFE19:
 421                             		.section	.text.TCIV2_ISR,"ax",@progbits
 422                             		.weak	_TCIV2_ISR
 424                             	_TCIV2_ISR:
 425                             	.LFB20:
 474:C:/Workspace/FW_Inertia/branch_indesit/HAL/RN_RX200/McuModule\ISR_TMR.c **** }
 475:C:/Workspace/FW_Inertia/branch_indesit/HAL/RN_RX200/McuModule\ISR_TMR.c **** #endif
 476:C:/Workspace/FW_Inertia/branch_indesit/HAL/RN_RX200/McuModule\ISR_TMR.c **** 
 477:C:/Workspace/FW_Inertia/branch_indesit/HAL/RN_RX200/McuModule\ISR_TMR.c **** 
 478:C:/Workspace/FW_Inertia/branch_indesit/HAL/RN_RX200/McuModule\ISR_TMR.c **** #if defined(TCIV2_IRQ_SUPPORT)
 479:C:/Workspace/FW_Inertia/branch_indesit/HAL/RN_RX200/McuModule\ISR_TMR.c **** int TCIV2_ISR(void);
 480:C:/Workspace/FW_Inertia/branch_indesit/HAL/RN_RX200/McuModule\ISR_TMR.c **** __attribute__((weak)) int TCIV2_ISR(void)
 481:C:/Workspace/FW_Inertia/branch_indesit/HAL/RN_RX200/McuModule\ISR_TMR.c **** {
 426                             		.loc 1 481 0
 482:C:/Workspace/FW_Inertia/branch_indesit/HAL/RN_RX200/McuModule\ISR_TMR.c **** 	if( TMR_GetClearSourceId(HAL_TMR_MTU2) == TCNT_CLEARING_OVERFLOW ){
 427                             		.loc 1 482 0
 428 0000 66 21                   		mov	#2, r1
 429 0002 05 00 00 00             		bsr	_TMR_GetClearSourceId
 430                             	.LVL46:
 431 0006 5B 11                   		movu.B	r1, r1
 432 0008 61 41                   		cmp	#4, r1
 433 000a 1A                      		bne	.L43
 483:C:/Workspace/FW_Inertia/branch_indesit/HAL/RN_RX200/McuModule\ISR_TMR.c **** 		HWCNTR_ISR(HW_TMR_ID_2);
 434                             		.loc 1 483 0
 435 000b 66 21                   		mov	#2, r1
 436 000d 05 00 00 00             		bsr	_HWCNTR_ISR
 437                             	.LVL47:
 484:C:/Workspace/FW_Inertia/branch_indesit/HAL/RN_RX200/McuModule\ISR_TMR.c **** 		return 1;
 438                             		.loc 1 484 0
 439 0011 66 11                   		mov.L	#1, r1
 440 0013 02                      		rts
 441                             	.L43:
 485:C:/Workspace/FW_Inertia/branch_indesit/HAL/RN_RX200/McuModule\ISR_TMR.c **** 	}
 486:C:/Workspace/FW_Inertia/branch_indesit/HAL/RN_RX200/McuModule\ISR_TMR.c ****     return 0;
 442                             		.loc 1 486 0
 443 0014 66 01                   		mov.L	#0, r1
 487:C:/Workspace/FW_Inertia/branch_indesit/HAL/RN_RX200/McuModule\ISR_TMR.c **** }
 444                             		.loc 1 487 0
 445 0016 02                      		rts
 446                             	.LFE20:
 448                             		.section	.text.CNT2_OVF_ExceptionHandler,"ax",@progbits
 449                             		.global	_CNT2_OVF_ExceptionHandler
 451                             	_CNT2_OVF_ExceptionHandler:
 452                             	.LFB21:
 488:C:/Workspace/FW_Inertia/branch_indesit/HAL/RN_RX200/McuModule\ISR_TMR.c **** 
 489:C:/Workspace/FW_Inertia/branch_indesit/HAL/RN_RX200/McuModule\ISR_TMR.c **** int  CNT2_OVF_ExceptionHandler(void)
 490:C:/Workspace/FW_Inertia/branch_indesit/HAL/RN_RX200/McuModule\ISR_TMR.c **** {
 453                             		.loc 1 490 0
 491:C:/Workspace/FW_Inertia/branch_indesit/HAL/RN_RX200/McuModule\ISR_TMR.c **** 	return TCIV2_ISR();
 454                             		.loc 1 491 0
 455 0000 04 00 00 00             		bra	_TCIV2_ISR
 456                             	.LVL48:
 457                             	.LFE21:
 459                             		.section	.text.TCIV3_ISR,"ax",@progbits
 460                             		.weak	_TCIV3_ISR
 462                             	_TCIV3_ISR:
 463                             	.LFB22:
 492:C:/Workspace/FW_Inertia/branch_indesit/HAL/RN_RX200/McuModule\ISR_TMR.c **** }
 493:C:/Workspace/FW_Inertia/branch_indesit/HAL/RN_RX200/McuModule\ISR_TMR.c **** #endif
 494:C:/Workspace/FW_Inertia/branch_indesit/HAL/RN_RX200/McuModule\ISR_TMR.c **** 
 495:C:/Workspace/FW_Inertia/branch_indesit/HAL/RN_RX200/McuModule\ISR_TMR.c **** 
 496:C:/Workspace/FW_Inertia/branch_indesit/HAL/RN_RX200/McuModule\ISR_TMR.c **** #if defined(TCIV3_IRQ_SUPPORT)
 497:C:/Workspace/FW_Inertia/branch_indesit/HAL/RN_RX200/McuModule\ISR_TMR.c **** int TCIV3_ISR(void);
 498:C:/Workspace/FW_Inertia/branch_indesit/HAL/RN_RX200/McuModule\ISR_TMR.c **** __attribute__((weak)) int TCIV3_ISR(void)
 499:C:/Workspace/FW_Inertia/branch_indesit/HAL/RN_RX200/McuModule\ISR_TMR.c **** {
 464                             		.loc 1 499 0
 500:C:/Workspace/FW_Inertia/branch_indesit/HAL/RN_RX200/McuModule\ISR_TMR.c **** 	if( TMR_GetClearSourceId(HAL_TMR_MTU3) == TCNT_CLEARING_OVERFLOW ){
 465                             		.loc 1 500 0
 466 0000 66 31                   		mov	#3, r1
 467 0002 05 00 00 00             		bsr	_TMR_GetClearSourceId
 468                             	.LVL49:
 469 0006 5B 11                   		movu.B	r1, r1
 470 0008 61 41                   		cmp	#4, r1
 471 000a 1A                      		bne	.L47
 501:C:/Workspace/FW_Inertia/branch_indesit/HAL/RN_RX200/McuModule\ISR_TMR.c **** 		HWCNTR_ISR(HW_TMR_ID_3);
 472                             		.loc 1 501 0
 473 000b 66 31                   		mov	#3, r1
 474 000d 05 00 00 00             		bsr	_HWCNTR_ISR
 475                             	.LVL50:
 502:C:/Workspace/FW_Inertia/branch_indesit/HAL/RN_RX200/McuModule\ISR_TMR.c **** 		return 1;
 476                             		.loc 1 502 0
 477 0011 66 11                   		mov.L	#1, r1
 478 0013 02                      		rts
 479                             	.L47:
 503:C:/Workspace/FW_Inertia/branch_indesit/HAL/RN_RX200/McuModule\ISR_TMR.c **** 	}
 504:C:/Workspace/FW_Inertia/branch_indesit/HAL/RN_RX200/McuModule\ISR_TMR.c ****     return 0;
 480                             		.loc 1 504 0
 481 0014 66 01                   		mov.L	#0, r1
 505:C:/Workspace/FW_Inertia/branch_indesit/HAL/RN_RX200/McuModule\ISR_TMR.c **** }
 482                             		.loc 1 505 0
 483 0016 02                      		rts
 484                             	.LFE22:
 486                             		.section	.text.CNT3_OVF_ExceptionHandler,"ax",@progbits
 487                             		.global	_CNT3_OVF_ExceptionHandler
 489                             	_CNT3_OVF_ExceptionHandler:
 490                             	.LFB23:
 506:C:/Workspace/FW_Inertia/branch_indesit/HAL/RN_RX200/McuModule\ISR_TMR.c **** 
 507:C:/Workspace/FW_Inertia/branch_indesit/HAL/RN_RX200/McuModule\ISR_TMR.c **** int  CNT3_OVF_ExceptionHandler(void)
 508:C:/Workspace/FW_Inertia/branch_indesit/HAL/RN_RX200/McuModule\ISR_TMR.c **** {
 491                             		.loc 1 508 0
 509:C:/Workspace/FW_Inertia/branch_indesit/HAL/RN_RX200/McuModule\ISR_TMR.c **** 	return TCIV3_ISR();
 492                             		.loc 1 509 0
 493 0000 04 00 00 00             		bra	_TCIV3_ISR
 494                             	.LVL51:
 495                             	.LFE23:
 497                             		.section	.text.TCIV4_ISR,"ax",@progbits
 498                             		.weak	_TCIV4_ISR
 500                             	_TCIV4_ISR:
 501                             	.LFB24:
 510:C:/Workspace/FW_Inertia/branch_indesit/HAL/RN_RX200/McuModule\ISR_TMR.c **** }
 511:C:/Workspace/FW_Inertia/branch_indesit/HAL/RN_RX200/McuModule\ISR_TMR.c **** #endif
 512:C:/Workspace/FW_Inertia/branch_indesit/HAL/RN_RX200/McuModule\ISR_TMR.c **** 
 513:C:/Workspace/FW_Inertia/branch_indesit/HAL/RN_RX200/McuModule\ISR_TMR.c **** #if defined(TCIV4_IRQ_SUPPORT)
 514:C:/Workspace/FW_Inertia/branch_indesit/HAL/RN_RX200/McuModule\ISR_TMR.c **** int TCIV4_ISR(void);
 515:C:/Workspace/FW_Inertia/branch_indesit/HAL/RN_RX200/McuModule\ISR_TMR.c **** __attribute__((weak)) int TCIV4_ISR(void)
 516:C:/Workspace/FW_Inertia/branch_indesit/HAL/RN_RX200/McuModule\ISR_TMR.c **** {
 502                             		.loc 1 516 0
 517:C:/Workspace/FW_Inertia/branch_indesit/HAL/RN_RX200/McuModule\ISR_TMR.c **** 	if( TMR_GetClearSourceId(HAL_TMR_MTU4) == TCNT_CLEARING_OVERFLOW ){
 503                             		.loc 1 517 0
 504 0000 66 41                   		mov	#4, r1
 505 0002 05 00 00 00             		bsr	_TMR_GetClearSourceId
 506                             	.LVL52:
 507 0006 5B 11                   		movu.B	r1, r1
 508 0008 61 41                   		cmp	#4, r1
 509 000a 18                      		bne	.L51
 518:C:/Workspace/FW_Inertia/branch_indesit/HAL/RN_RX200/McuModule\ISR_TMR.c **** 		HWCNTR_ISR(HW_TMR_ID_4);
 510                             		.loc 1 518 0
 511 000b 05 00 00 00             		bsr	_HWCNTR_ISR
 512                             	.LVL53:
 519:C:/Workspace/FW_Inertia/branch_indesit/HAL/RN_RX200/McuModule\ISR_TMR.c **** 		return 1;
 513                             		.loc 1 519 0
 514 000f 66 11                   		mov.L	#1, r1
 515 0011 02                      		rts
 516                             	.L51:
 520:C:/Workspace/FW_Inertia/branch_indesit/HAL/RN_RX200/McuModule\ISR_TMR.c **** 	}
 521:C:/Workspace/FW_Inertia/branch_indesit/HAL/RN_RX200/McuModule\ISR_TMR.c ****     return 0;
 517                             		.loc 1 521 0
 518 0012 66 01                   		mov.L	#0, r1
 522:C:/Workspace/FW_Inertia/branch_indesit/HAL/RN_RX200/McuModule\ISR_TMR.c **** }
 519                             		.loc 1 522 0
 520 0014 02                      		rts
 521                             	.LFE24:
 523                             		.section	.text.CNT4_OVF_ExceptionHandler,"ax",@progbits
 524                             		.global	_CNT4_OVF_ExceptionHandler
 526                             	_CNT4_OVF_ExceptionHandler:
 527                             	.LFB25:
 523:C:/Workspace/FW_Inertia/branch_indesit/HAL/RN_RX200/McuModule\ISR_TMR.c **** 
 524:C:/Workspace/FW_Inertia/branch_indesit/HAL/RN_RX200/McuModule\ISR_TMR.c **** int  CNT4_OVF_ExceptionHandler(void)
 525:C:/Workspace/FW_Inertia/branch_indesit/HAL/RN_RX200/McuModule\ISR_TMR.c **** {
 528                             		.loc 1 525 0
 526:C:/Workspace/FW_Inertia/branch_indesit/HAL/RN_RX200/McuModule\ISR_TMR.c **** 	return TCIV4_ISR();
 529                             		.loc 1 526 0
 530 0000 04 00 00 00             		bra	_TCIV4_ISR
 531                             	.LVL54:
 532                             	.LFE25:
 760                             	.Letext0:
 761                             		.file 2 "C:\\Workspace\\FW_Inertia\\branch_indesit\\HAL\\HAL_General/StandardTypes.h"
 762                             		.file 3 "C:\\Workspace\\FW_Inertia\\branch_indesit\\HAL\\RN_RX200/RN_RX200_cfg.h"
 763                             		.file 4 "C:\\Workspace\\FW_Inertia\\branch_indesit\\Drivers/IO_driver.h"
 764                             		.file 5 "C:\\Workspace\\FW_Inertia\\branch_indesit\\CFG_DishWasher\\CFG_Inertia/Config.h"
 765                             		.file 6 "C:\\Workspace\\FW_Inertia\\branch_indesit\\HAL\\RN_RX200/RN_RX200_hal.h"
 766                             		.file 7 "C:\\Workspace\\FW_Inertia\\branch_indesit\\Drivers\\OCTPM/OCTPM_drv.h"
DEFINED SYMBOLS
                            *ABS*:00000000 ISR_TMR.c
C:\Users\Andrea\AppData\Local\Temp\ccuIXya3.s:7      .text.TMR0_ISR:00000000 _TMR0_ISR
C:\Users\Andrea\AppData\Local\Temp\ccuIXya3.s:12     .text.TMR0_ISR:00000000 L0
C:\Users\Andrea\AppData\Local\Temp\ccuIXya3.s:40     .text.MTU0_TGIC0_ExceptionHandler:00000000 _MTU0_TGIC0_ExceptionHandler
C:\Users\Andrea\AppData\Local\Temp\ccuIXya3.s:45     .text.MTU0_TGIC0_ExceptionHandler:00000000 L0
C:\Users\Andrea\AppData\Local\Temp\ccuIXya3.s:52     .text.TMR1_ISR:00000000 _TMR1_ISR
C:\Users\Andrea\AppData\Local\Temp\ccuIXya3.s:56     .text.TMR1_ISR:00000000 L0
C:\Users\Andrea\AppData\Local\Temp\ccuIXya3.s:82     .text.MTU2_TGIA2_ExceptionHandler:00000000 _MTU2_TGIA2_ExceptionHandler
C:\Users\Andrea\AppData\Local\Temp\ccuIXya3.s:87     .text.MTU2_TGIA2_ExceptionHandler:00000000 L0
C:\Users\Andrea\AppData\Local\Temp\ccuIXya3.s:94     .text.TMR2_ISR:00000000 _TMR2_ISR
C:\Users\Andrea\AppData\Local\Temp\ccuIXya3.s:98     .text.TMR2_ISR:00000000 L0
C:\Users\Andrea\AppData\Local\Temp\ccuIXya3.s:124    .text.MTU3_TGIA3_ExceptionHandler:00000000 _MTU3_TGIA3_ExceptionHandler
C:\Users\Andrea\AppData\Local\Temp\ccuIXya3.s:129    .text.MTU3_TGIA3_ExceptionHandler:00000000 L0
C:\Users\Andrea\AppData\Local\Temp\ccuIXya3.s:136    .text.TMR3_ISR:00000000 _TMR3_ISR
C:\Users\Andrea\AppData\Local\Temp\ccuIXya3.s:140    .text.TMR3_ISR:00000000 L0
C:\Users\Andrea\AppData\Local\Temp\ccuIXya3.s:166    .text.MTU0_TGIA0_ExceptionHandler:00000000 _MTU0_TGIA0_ExceptionHandler
C:\Users\Andrea\AppData\Local\Temp\ccuIXya3.s:171    .text.MTU0_TGIA0_ExceptionHandler:00000000 L0
C:\Users\Andrea\AppData\Local\Temp\ccuIXya3.s:178    .text.TMR4_ISR:00000000 _TMR4_ISR
C:\Users\Andrea\AppData\Local\Temp\ccuIXya3.s:182    .text.TMR4_ISR:00000000 L0
C:\Users\Andrea\AppData\Local\Temp\ccuIXya3.s:208    .text.MTU1_TGIA1_ExceptionHandler:00000000 _MTU1_TGIA1_ExceptionHandler
C:\Users\Andrea\AppData\Local\Temp\ccuIXya3.s:213    .text.MTU1_TGIA1_ExceptionHandler:00000000 L0
C:\Users\Andrea\AppData\Local\Temp\ccuIXya3.s:220    .text.TMR5_ISR:00000000 _TMR5_ISR
C:\Users\Andrea\AppData\Local\Temp\ccuIXya3.s:224    .text.TMR5_ISR:00000000 L0
C:\Users\Andrea\AppData\Local\Temp\ccuIXya3.s:251    .text.MTU3_TGIC3_ExceptionHandler:00000000 _MTU3_TGIC3_ExceptionHandler
C:\Users\Andrea\AppData\Local\Temp\ccuIXya3.s:256    .text.MTU3_TGIC3_ExceptionHandler:00000000 L0
C:\Users\Andrea\AppData\Local\Temp\ccuIXya3.s:263    .text.TMR6_ISR:00000000 _TMR6_ISR
C:\Users\Andrea\AppData\Local\Temp\ccuIXya3.s:267    .text.TMR6_ISR:00000000 L0
C:\Users\Andrea\AppData\Local\Temp\ccuIXya3.s:294    .text.MTU4_TGIC4_ExceptionHandler:00000000 _MTU4_TGIC4_ExceptionHandler
C:\Users\Andrea\AppData\Local\Temp\ccuIXya3.s:299    .text.MTU4_TGIC4_ExceptionHandler:00000000 L0
C:\Users\Andrea\AppData\Local\Temp\ccuIXya3.s:306    .text.TMR7_ISR:00000000 _TMR7_ISR
C:\Users\Andrea\AppData\Local\Temp\ccuIXya3.s:310    .text.TMR7_ISR:00000000 L0
C:\Users\Andrea\AppData\Local\Temp\ccuIXya3.s:336    .text.MTU4_TGIA4_ExceptionHandler:00000000 _MTU4_TGIA4_ExceptionHandler
C:\Users\Andrea\AppData\Local\Temp\ccuIXya3.s:341    .text.MTU4_TGIA4_ExceptionHandler:00000000 L0
C:\Users\Andrea\AppData\Local\Temp\ccuIXya3.s:348    .text.TCIV0_ISR:00000000 _TCIV0_ISR
C:\Users\Andrea\AppData\Local\Temp\ccuIXya3.s:352    .text.TCIV0_ISR:00000000 L0
C:\Users\Andrea\AppData\Local\Temp\ccuIXya3.s:375    .text.CNT0_OVF_ExceptionHandler:00000000 _CNT0_OVF_ExceptionHandler
C:\Users\Andrea\AppData\Local\Temp\ccuIXya3.s:379    .text.CNT0_OVF_ExceptionHandler:00000000 L0
C:\Users\Andrea\AppData\Local\Temp\ccuIXya3.s:386    .text.TCIV1_ISR:00000000 _TCIV1_ISR
C:\Users\Andrea\AppData\Local\Temp\ccuIXya3.s:390    .text.TCIV1_ISR:00000000 L0
C:\Users\Andrea\AppData\Local\Temp\ccuIXya3.s:413    .text.CNT1_OVF_ExceptionHandler:00000000 _CNT1_OVF_ExceptionHandler
C:\Users\Andrea\AppData\Local\Temp\ccuIXya3.s:417    .text.CNT1_OVF_ExceptionHandler:00000000 L0
C:\Users\Andrea\AppData\Local\Temp\ccuIXya3.s:424    .text.TCIV2_ISR:00000000 _TCIV2_ISR
C:\Users\Andrea\AppData\Local\Temp\ccuIXya3.s:428    .text.TCIV2_ISR:00000000 L0
C:\Users\Andrea\AppData\Local\Temp\ccuIXya3.s:451    .text.CNT2_OVF_ExceptionHandler:00000000 _CNT2_OVF_ExceptionHandler
C:\Users\Andrea\AppData\Local\Temp\ccuIXya3.s:455    .text.CNT2_OVF_ExceptionHandler:00000000 L0
C:\Users\Andrea\AppData\Local\Temp\ccuIXya3.s:462    .text.TCIV3_ISR:00000000 _TCIV3_ISR
C:\Users\Andrea\AppData\Local\Temp\ccuIXya3.s:466    .text.TCIV3_ISR:00000000 L0
C:\Users\Andrea\AppData\Local\Temp\ccuIXya3.s:489    .text.CNT3_OVF_ExceptionHandler:00000000 _CNT3_OVF_ExceptionHandler
C:\Users\Andrea\AppData\Local\Temp\ccuIXya3.s:493    .text.CNT3_OVF_ExceptionHandler:00000000 L0
C:\Users\Andrea\AppData\Local\Temp\ccuIXya3.s:500    .text.TCIV4_ISR:00000000 _TCIV4_ISR
C:\Users\Andrea\AppData\Local\Temp\ccuIXya3.s:504    .text.TCIV4_ISR:00000000 L0
C:\Users\Andrea\AppData\Local\Temp\ccuIXya3.s:526    .text.CNT4_OVF_ExceptionHandler:00000000 _CNT4_OVF_ExceptionHandler
C:\Users\Andrea\AppData\Local\Temp\ccuIXya3.s:530    .text.CNT4_OVF_ExceptionHandler:00000000 L0
C:\Users\Andrea\AppData\Local\Temp\ccuIXya3.s:535    .debug_frame:00000000 .Lframe0
C:\Users\Andrea\AppData\Local\Temp\ccuIXya3.s:8      .text.TMR0_ISR:00000000 .LFB0
C:\Users\Andrea\AppData\Local\Temp\ccuIXya3.s:41     .text.MTU0_TGIC0_ExceptionHandler:00000000 .LFB1
C:\Users\Andrea\AppData\Local\Temp\ccuIXya3.s:53     .text.TMR1_ISR:00000000 .LFB2
C:\Users\Andrea\AppData\Local\Temp\ccuIXya3.s:83     .text.MTU2_TGIA2_ExceptionHandler:00000000 .LFB3
C:\Users\Andrea\AppData\Local\Temp\ccuIXya3.s:95     .text.TMR2_ISR:00000000 .LFB4
C:\Users\Andrea\AppData\Local\Temp\ccuIXya3.s:125    .text.MTU3_TGIA3_ExceptionHandler:00000000 .LFB5
C:\Users\Andrea\AppData\Local\Temp\ccuIXya3.s:137    .text.TMR3_ISR:00000000 .LFB6
C:\Users\Andrea\AppData\Local\Temp\ccuIXya3.s:167    .text.MTU0_TGIA0_ExceptionHandler:00000000 .LFB7
C:\Users\Andrea\AppData\Local\Temp\ccuIXya3.s:179    .text.TMR4_ISR:00000000 .LFB8
C:\Users\Andrea\AppData\Local\Temp\ccuIXya3.s:209    .text.MTU1_TGIA1_ExceptionHandler:00000000 .LFB9
C:\Users\Andrea\AppData\Local\Temp\ccuIXya3.s:221    .text.TMR5_ISR:00000000 .LFB10
C:\Users\Andrea\AppData\Local\Temp\ccuIXya3.s:252    .text.MTU3_TGIC3_ExceptionHandler:00000000 .LFB11
C:\Users\Andrea\AppData\Local\Temp\ccuIXya3.s:264    .text.TMR6_ISR:00000000 .LFB12
C:\Users\Andrea\AppData\Local\Temp\ccuIXya3.s:295    .text.MTU4_TGIC4_ExceptionHandler:00000000 .LFB13
C:\Users\Andrea\AppData\Local\Temp\ccuIXya3.s:307    .text.TMR7_ISR:00000000 .LFB14
C:\Users\Andrea\AppData\Local\Temp\ccuIXya3.s:337    .text.MTU4_TGIA4_ExceptionHandler:00000000 .LFB15
C:\Users\Andrea\AppData\Local\Temp\ccuIXya3.s:349    .text.TCIV0_ISR:00000000 .LFB16
C:\Users\Andrea\AppData\Local\Temp\ccuIXya3.s:376    .text.CNT0_OVF_ExceptionHandler:00000000 .LFB17
C:\Users\Andrea\AppData\Local\Temp\ccuIXya3.s:387    .text.TCIV1_ISR:00000000 .LFB18
C:\Users\Andrea\AppData\Local\Temp\ccuIXya3.s:414    .text.CNT1_OVF_ExceptionHandler:00000000 .LFB19
C:\Users\Andrea\AppData\Local\Temp\ccuIXya3.s:425    .text.TCIV2_ISR:00000000 .LFB20
C:\Users\Andrea\AppData\Local\Temp\ccuIXya3.s:452    .text.CNT2_OVF_ExceptionHandler:00000000 .LFB21
C:\Users\Andrea\AppData\Local\Temp\ccuIXya3.s:463    .text.TCIV3_ISR:00000000 .LFB22
C:\Users\Andrea\AppData\Local\Temp\ccuIXya3.s:490    .text.CNT3_OVF_ExceptionHandler:00000000 .LFB23
C:\Users\Andrea\AppData\Local\Temp\ccuIXya3.s:501    .text.TCIV4_ISR:00000000 .LFB24
C:\Users\Andrea\AppData\Local\Temp\ccuIXya3.s:527    .text.CNT4_OVF_ExceptionHandler:00000000 .LFB25
C:\Users\Andrea\AppData\Local\Temp\ccuIXya3.s:1766   .debug_abbrev:00000000 .Ldebug_abbrev0
C:\Users\Andrea\AppData\Local\Temp\ccuIXya3.s:2455   .debug_str:000001d1 .LASF52
C:\Users\Andrea\AppData\Local\Temp\ccuIXya3.s:2491   .debug_str:000002cb .LASF53
C:\Users\Andrea\AppData\Local\Temp\ccuIXya3.s:2337   .debug_ranges:00000000 .Ldebug_ranges0
C:\Users\Andrea\AppData\Local\Temp\ccuIXya3.s:2393   .debug_line:00000000 .Ldebug_line0
C:\Users\Andrea\AppData\Local\Temp\ccuIXya3.s:2493   .debug_str:00000313 .LASF0
C:\Users\Andrea\AppData\Local\Temp\ccuIXya3.s:2439   .debug_str:00000147 .LASF1
C:\Users\Andrea\AppData\Local\Temp\ccuIXya3.s:2451   .debug_str:000001ac .LASF2
C:\Users\Andrea\AppData\Local\Temp\ccuIXya3.s:2499   .debug_str:00000353 .LASF3
C:\Users\Andrea\AppData\Local\Temp\ccuIXya3.s:2431   .debug_str:000000fd .LASF4
C:\Users\Andrea\AppData\Local\Temp\ccuIXya3.s:2395   .debug_str:00000000 .LASF5
C:\Users\Andrea\AppData\Local\Temp\ccuIXya3.s:2471   .debug_str:0000025a .LASF20
C:\Users\Andrea\AppData\Local\Temp\ccuIXya3.s:2433   .debug_str:00000114 .LASF6
C:\Users\Andrea\AppData\Local\Temp\ccuIXya3.s:2505   .debug_str:0000038d .LASF7
C:\Users\Andrea\AppData\Local\Temp\ccuIXya3.s:2465   .debug_str:0000022c .LASF8
C:\Users\Andrea\AppData\Local\Temp\ccuIXya3.s:2479   .debug_str:0000027e .LASF9
C:\Users\Andrea\AppData\Local\Temp\ccuIXya3.s:2469   .debug_str:00000255 .LASF10
C:\Users\Andrea\AppData\Local\Temp\ccuIXya3.s:2405   .debug_str:0000004b .LASF54
C:\Users\Andrea\AppData\Local\Temp\ccuIXya3.s:2415   .debug_str:000000a0 .LASF11
C:\Users\Andrea\AppData\Local\Temp\ccuIXya3.s:2445   .debug_str:0000017f .LASF12
C:\Users\Andrea\AppData\Local\Temp\ccuIXya3.s:2475   .debug_str:0000026b .LASF13
C:\Users\Andrea\AppData\Local\Temp\ccuIXya3.s:2437   .debug_str:0000013e .LASF14
C:\Users\Andrea\AppData\Local\Temp\ccuIXya3.s:2411   .debug_str:0000007d .LASF15
C:\Users\Andrea\AppData\Local\Temp\ccuIXya3.s:2443   .debug_str:00000176 .LASF16
C:\Users\Andrea\AppData\Local\Temp\ccuIXya3.s:2473   .debug_str:00000262 .LASF17
C:\Users\Andrea\AppData\Local\Temp\ccuIXya3.s:2461   .debug_str:0000021a .LASF18
C:\Users\Andrea\AppData\Local\Temp\ccuIXya3.s:2409   .debug_str:00000074 .LASF19
C:\Users\Andrea\AppData\Local\Temp\ccuIXya3.s:2481   .debug_str:00000287 .LASF21
C:\Users\Andrea\AppData\Local\Temp\ccuIXya3.s:2453   .debug_str:000001be .LASF22
C:\Users\Andrea\AppData\Local\Temp\ccuIXya3.s:2399   .debug_str:00000017 .LASF23
C:\Users\Andrea\AppData\Local\Temp\ccuIXya3.s:2403   .debug_str:00000042 .LASF24
C:\Users\Andrea\AppData\Local\Temp\ccuIXya3.s:35     .text.TMR0_ISR:00000019 .LFE0
C:\Users\Andrea\AppData\Local\Temp\ccuIXya3.s:14     .text.TMR0_ISR:00000006 .LVL0
C:\Users\Andrea\AppData\Local\Temp\ccuIXya3.s:23     .text.TMR0_ISR:00000011 .LVL1
C:\Users\Andrea\AppData\Local\Temp\ccuIXya3.s:29     .text.TMR0_ISR:00000016 .LVL2
C:\Users\Andrea\AppData\Local\Temp\ccuIXya3.s:2503   .debug_str:00000371 .LASF25
C:\Users\Andrea\AppData\Local\Temp\ccuIXya3.s:47     .text.MTU0_TGIC0_ExceptionHandler:00000004 .LFE1
C:\Users\Andrea\AppData\Local\Temp\ccuIXya3.s:2483   .debug_str:00000295 .LASF26
C:\Users\Andrea\AppData\Local\Temp\ccuIXya3.s:2050   .debug_loc:00000000 .LLST0
C:\Users\Andrea\AppData\Local\Temp\ccuIXya3.s:2421   .debug_str:000000cf .LASF27
C:\Users\Andrea\AppData\Local\Temp\ccuIXya3.s:2064   .debug_loc:00000021 .LLST1
C:\Users\Andrea\AppData\Local\Temp\ccuIXya3.s:46     .text.MTU0_TGIC0_ExceptionHandler:00000004 .LVL4
C:\Users\Andrea\AppData\Local\Temp\ccuIXya3.s:2429   .debug_str:000000f4 .LASF28
C:\Users\Andrea\AppData\Local\Temp\ccuIXya3.s:77     .text.TMR1_ISR:0000001b .LFE2
C:\Users\Andrea\AppData\Local\Temp\ccuIXya3.s:58     .text.TMR1_ISR:00000006 .LVL5
C:\Users\Andrea\AppData\Local\Temp\ccuIXya3.s:64     .text.TMR1_ISR:00000011 .LVL6
C:\Users\Andrea\AppData\Local\Temp\ccuIXya3.s:71     .text.TMR1_ISR:00000018 .LVL7
C:\Users\Andrea\AppData\Local\Temp\ccuIXya3.s:2435   .debug_str:00000122 .LASF29
C:\Users\Andrea\AppData\Local\Temp\ccuIXya3.s:89     .text.MTU2_TGIA2_ExceptionHandler:00000004 .LFE3
C:\Users\Andrea\AppData\Local\Temp\ccuIXya3.s:2078   .debug_loc:00000042 .LLST2
C:\Users\Andrea\AppData\Local\Temp\ccuIXya3.s:2092   .debug_loc:00000063 .LLST3
C:\Users\Andrea\AppData\Local\Temp\ccuIXya3.s:88     .text.MTU2_TGIA2_ExceptionHandler:00000004 .LVL9
C:\Users\Andrea\AppData\Local\Temp\ccuIXya3.s:2459   .debug_str:00000211 .LASF30
C:\Users\Andrea\AppData\Local\Temp\ccuIXya3.s:119    .text.TMR2_ISR:0000001b .LFE4
C:\Users\Andrea\AppData\Local\Temp\ccuIXya3.s:100    .text.TMR2_ISR:00000006 .LVL10
C:\Users\Andrea\AppData\Local\Temp\ccuIXya3.s:106    .text.TMR2_ISR:00000011 .LVL11
C:\Users\Andrea\AppData\Local\Temp\ccuIXya3.s:113    .text.TMR2_ISR:00000018 .LVL12
C:\Users\Andrea\AppData\Local\Temp\ccuIXya3.s:2401   .debug_str:00000026 .LASF31
C:\Users\Andrea\AppData\Local\Temp\ccuIXya3.s:131    .text.MTU3_TGIA3_ExceptionHandler:00000004 .LFE5
C:\Users\Andrea\AppData\Local\Temp\ccuIXya3.s:2106   .debug_loc:00000084 .LLST4
C:\Users\Andrea\AppData\Local\Temp\ccuIXya3.s:2120   .debug_loc:000000a5 .LLST5
C:\Users\Andrea\AppData\Local\Temp\ccuIXya3.s:130    .text.MTU3_TGIA3_ExceptionHandler:00000004 .LVL14
C:\Users\Andrea\AppData\Local\Temp\ccuIXya3.s:2489   .debug_str:000002c2 .LASF32
C:\Users\Andrea\AppData\Local\Temp\ccuIXya3.s:161    .text.TMR3_ISR:00000019 .LFE6
C:\Users\Andrea\AppData\Local\Temp\ccuIXya3.s:142    .text.TMR3_ISR:00000006 .LVL15
C:\Users\Andrea\AppData\Local\Temp\ccuIXya3.s:148    .text.TMR3_ISR:0000000f .LVL16
C:\Users\Andrea\AppData\Local\Temp\ccuIXya3.s:155    .text.TMR3_ISR:00000016 .LVL17
C:\Users\Andrea\AppData\Local\Temp\ccuIXya3.s:2487   .debug_str:000002a6 .LASF33
C:\Users\Andrea\AppData\Local\Temp\ccuIXya3.s:173    .text.MTU0_TGIA0_ExceptionHandler:00000004 .LFE7
C:\Users\Andrea\AppData\Local\Temp\ccuIXya3.s:2134   .debug_loc:000000c6 .LLST6
C:\Users\Andrea\AppData\Local\Temp\ccuIXya3.s:2148   .debug_loc:000000e7 .LLST7
C:\Users\Andrea\AppData\Local\Temp\ccuIXya3.s:172    .text.MTU0_TGIA0_ExceptionHandler:00000004 .LVL19
C:\Users\Andrea\AppData\Local\Temp\ccuIXya3.s:2397   .debug_str:0000000e .LASF34
C:\Users\Andrea\AppData\Local\Temp\ccuIXya3.s:203    .text.TMR4_ISR:0000001b .LFE8
C:\Users\Andrea\AppData\Local\Temp\ccuIXya3.s:184    .text.TMR4_ISR:00000006 .LVL20
C:\Users\Andrea\AppData\Local\Temp\ccuIXya3.s:190    .text.TMR4_ISR:00000011 .LVL21
C:\Users\Andrea\AppData\Local\Temp\ccuIXya3.s:197    .text.TMR4_ISR:00000018 .LVL22
C:\Users\Andrea\AppData\Local\Temp\ccuIXya3.s:2467   .debug_str:00000239 .LASF35
C:\Users\Andrea\AppData\Local\Temp\ccuIXya3.s:215    .text.MTU1_TGIA1_ExceptionHandler:00000004 .LFE9
C:\Users\Andrea\AppData\Local\Temp\ccuIXya3.s:2162   .debug_loc:00000108 .LLST8
C:\Users\Andrea\AppData\Local\Temp\ccuIXya3.s:2176   .debug_loc:00000129 .LLST9
C:\Users\Andrea\AppData\Local\Temp\ccuIXya3.s:214    .text.MTU1_TGIA1_ExceptionHandler:00000004 .LVL24
C:\Users\Andrea\AppData\Local\Temp\ccuIXya3.s:2425   .debug_str:000000e1 .LASF36
C:\Users\Andrea\AppData\Local\Temp\ccuIXya3.s:246    .text.TMR5_ISR:0000001b .LFE10
C:\Users\Andrea\AppData\Local\Temp\ccuIXya3.s:226    .text.TMR5_ISR:00000006 .LVL25
C:\Users\Andrea\AppData\Local\Temp\ccuIXya3.s:233    .text.TMR5_ISR:00000011 .LVL26
C:\Users\Andrea\AppData\Local\Temp\ccuIXya3.s:240    .text.TMR5_ISR:00000018 .LVL27
C:\Users\Andrea\AppData\Local\Temp\ccuIXya3.s:2417   .debug_str:000000a9 .LASF37
C:\Users\Andrea\AppData\Local\Temp\ccuIXya3.s:258    .text.MTU3_TGIC3_ExceptionHandler:00000004 .LFE11
C:\Users\Andrea\AppData\Local\Temp\ccuIXya3.s:2190   .debug_loc:0000014a .LLST10
C:\Users\Andrea\AppData\Local\Temp\ccuIXya3.s:2204   .debug_loc:0000016b .LLST11
C:\Users\Andrea\AppData\Local\Temp\ccuIXya3.s:257    .text.MTU3_TGIC3_ExceptionHandler:00000004 .LVL29
C:\Users\Andrea\AppData\Local\Temp\ccuIXya3.s:2463   .debug_str:00000223 .LASF38
C:\Users\Andrea\AppData\Local\Temp\ccuIXya3.s:289    .text.TMR6_ISR:0000001b .LFE12
C:\Users\Andrea\AppData\Local\Temp\ccuIXya3.s:269    .text.TMR6_ISR:00000006 .LVL30
C:\Users\Andrea\AppData\Local\Temp\ccuIXya3.s:276    .text.TMR6_ISR:00000011 .LVL31
C:\Users\Andrea\AppData\Local\Temp\ccuIXya3.s:283    .text.TMR6_ISR:00000018 .LVL32
C:\Users\Andrea\AppData\Local\Temp\ccuIXya3.s:2441   .debug_str:0000015a .LASF39
C:\Users\Andrea\AppData\Local\Temp\ccuIXya3.s:301    .text.MTU4_TGIC4_ExceptionHandler:00000004 .LFE13
C:\Users\Andrea\AppData\Local\Temp\ccuIXya3.s:2218   .debug_loc:0000018c .LLST12
C:\Users\Andrea\AppData\Local\Temp\ccuIXya3.s:2232   .debug_loc:000001ad .LLST13
C:\Users\Andrea\AppData\Local\Temp\ccuIXya3.s:300    .text.MTU4_TGIC4_ExceptionHandler:00000004 .LVL34
C:\Users\Andrea\AppData\Local\Temp\ccuIXya3.s:2485   .debug_str:0000029d .LASF40
C:\Users\Andrea\AppData\Local\Temp\ccuIXya3.s:331    .text.TMR7_ISR:0000001b .LFE14
C:\Users\Andrea\AppData\Local\Temp\ccuIXya3.s:312    .text.TMR7_ISR:00000006 .LVL35
C:\Users\Andrea\AppData\Local\Temp\ccuIXya3.s:318    .text.TMR7_ISR:00000011 .LVL36
C:\Users\Andrea\AppData\Local\Temp\ccuIXya3.s:325    .text.TMR7_ISR:00000018 .LVL37
C:\Users\Andrea\AppData\Local\Temp\ccuIXya3.s:2497   .debug_str:00000337 .LASF41
C:\Users\Andrea\AppData\Local\Temp\ccuIXya3.s:343    .text.MTU4_TGIA4_ExceptionHandler:00000004 .LFE15
C:\Users\Andrea\AppData\Local\Temp\ccuIXya3.s:2246   .debug_loc:000001ce .LLST14
C:\Users\Andrea\AppData\Local\Temp\ccuIXya3.s:2260   .debug_loc:000001ef .LLST15
C:\Users\Andrea\AppData\Local\Temp\ccuIXya3.s:342    .text.MTU4_TGIA4_ExceptionHandler:00000004 .LVL39
C:\Users\Andrea\AppData\Local\Temp\ccuIXya3.s:2427   .debug_str:000000ea .LASF42
C:\Users\Andrea\AppData\Local\Temp\ccuIXya3.s:370    .text.TCIV0_ISR:00000017 .LFE16
C:\Users\Andrea\AppData\Local\Temp\ccuIXya3.s:354    .text.TCIV0_ISR:00000006 .LVL40
C:\Users\Andrea\AppData\Local\Temp\ccuIXya3.s:361    .text.TCIV0_ISR:00000011 .LVL41
C:\Users\Andrea\AppData\Local\Temp\ccuIXya3.s:2447   .debug_str:00000188 .LASF43
C:\Users\Andrea\AppData\Local\Temp\ccuIXya3.s:381    .text.CNT0_OVF_ExceptionHandler:00000004 .LFE17
C:\Users\Andrea\AppData\Local\Temp\ccuIXya3.s:380    .text.CNT0_OVF_ExceptionHandler:00000004 .LVL42
C:\Users\Andrea\AppData\Local\Temp\ccuIXya3.s:2419   .debug_str:000000c5 .LASF44
C:\Users\Andrea\AppData\Local\Temp\ccuIXya3.s:408    .text.TCIV1_ISR:00000017 .LFE18
C:\Users\Andrea\AppData\Local\Temp\ccuIXya3.s:392    .text.TCIV1_ISR:00000006 .LVL43
C:\Users\Andrea\AppData\Local\Temp\ccuIXya3.s:399    .text.TCIV1_ISR:00000011 .LVL44
C:\Users\Andrea\AppData\Local\Temp\ccuIXya3.s:2407   .debug_str:0000005a .LASF45
C:\Users\Andrea\AppData\Local\Temp\ccuIXya3.s:419    .text.CNT1_OVF_ExceptionHandler:00000004 .LFE19
C:\Users\Andrea\AppData\Local\Temp\ccuIXya3.s:418    .text.CNT1_OVF_ExceptionHandler:00000004 .LVL45
C:\Users\Andrea\AppData\Local\Temp\ccuIXya3.s:2449   .debug_str:000001a2 .LASF46
C:\Users\Andrea\AppData\Local\Temp\ccuIXya3.s:446    .text.TCIV2_ISR:00000017 .LFE20
C:\Users\Andrea\AppData\Local\Temp\ccuIXya3.s:430    .text.TCIV2_ISR:00000006 .LVL46
C:\Users\Andrea\AppData\Local\Temp\ccuIXya3.s:437    .text.TCIV2_ISR:00000011 .LVL47
C:\Users\Andrea\AppData\Local\Temp\ccuIXya3.s:2495   .debug_str:0000031d .LASF47
C:\Users\Andrea\AppData\Local\Temp\ccuIXya3.s:457    .text.CNT2_OVF_ExceptionHandler:00000004 .LFE21
C:\Users\Andrea\AppData\Local\Temp\ccuIXya3.s:456    .text.CNT2_OVF_ExceptionHandler:00000004 .LVL48
C:\Users\Andrea\AppData\Local\Temp\ccuIXya3.s:2477   .debug_str:00000274 .LASF48
C:\Users\Andrea\AppData\Local\Temp\ccuIXya3.s:484    .text.TCIV3_ISR:00000017 .LFE22
C:\Users\Andrea\AppData\Local\Temp\ccuIXya3.s:468    .text.TCIV3_ISR:00000006 .LVL49
C:\Users\Andrea\AppData\Local\Temp\ccuIXya3.s:475    .text.TCIV3_ISR:00000011 .LVL50
C:\Users\Andrea\AppData\Local\Temp\ccuIXya3.s:2457   .debug_str:000001f7 .LASF49
C:\Users\Andrea\AppData\Local\Temp\ccuIXya3.s:495    .text.CNT3_OVF_ExceptionHandler:00000004 .LFE23
C:\Users\Andrea\AppData\Local\Temp\ccuIXya3.s:494    .text.CNT3_OVF_ExceptionHandler:00000004 .LVL51
C:\Users\Andrea\AppData\Local\Temp\ccuIXya3.s:2507   .debug_str:00000399 .LASF50
C:\Users\Andrea\AppData\Local\Temp\ccuIXya3.s:521    .text.TCIV4_ISR:00000015 .LFE24
C:\Users\Andrea\AppData\Local\Temp\ccuIXya3.s:506    .text.TCIV4_ISR:00000006 .LVL52
C:\Users\Andrea\AppData\Local\Temp\ccuIXya3.s:512    .text.TCIV4_ISR:0000000f .LVL53
C:\Users\Andrea\AppData\Local\Temp\ccuIXya3.s:2413   .debug_str:00000086 .LASF51
C:\Users\Andrea\AppData\Local\Temp\ccuIXya3.s:532    .text.CNT4_OVF_ExceptionHandler:00000004 .LFE25
C:\Users\Andrea\AppData\Local\Temp\ccuIXya3.s:531    .text.CNT4_OVF_ExceptionHandler:00000004 .LVL54
C:\Users\Andrea\AppData\Local\Temp\ccuIXya3.s:2501   .debug_str:0000035c .LASF55
C:\Users\Andrea\AppData\Local\Temp\ccuIXya3.s:2423   .debug_str:000000d6 .LASF56
C:\Users\Andrea\AppData\Local\Temp\ccuIXya3.s:2509   .debug_str:000003a3 .LASF57
C:\Users\Andrea\AppData\Local\Temp\ccuIXya3.s:43     .text.MTU0_TGIC0_ExceptionHandler:00000000 .LVL3
C:\Users\Andrea\AppData\Local\Temp\ccuIXya3.s:85     .text.MTU2_TGIA2_ExceptionHandler:00000000 .LVL8
C:\Users\Andrea\AppData\Local\Temp\ccuIXya3.s:127    .text.MTU3_TGIA3_ExceptionHandler:00000000 .LVL13
C:\Users\Andrea\AppData\Local\Temp\ccuIXya3.s:169    .text.MTU0_TGIA0_ExceptionHandler:00000000 .LVL18
C:\Users\Andrea\AppData\Local\Temp\ccuIXya3.s:211    .text.MTU1_TGIA1_ExceptionHandler:00000000 .LVL23
C:\Users\Andrea\AppData\Local\Temp\ccuIXya3.s:254    .text.MTU3_TGIC3_ExceptionHandler:00000000 .LVL28
C:\Users\Andrea\AppData\Local\Temp\ccuIXya3.s:297    .text.MTU4_TGIC4_ExceptionHandler:00000000 .LVL33
C:\Users\Andrea\AppData\Local\Temp\ccuIXya3.s:339    .text.MTU4_TGIA4_ExceptionHandler:00000000 .LVL38
C:\Users\Andrea\AppData\Local\Temp\ccuIXya3.s:768    .debug_info:00000000 .Ldebug_info0

UNDEFINED SYMBOLS
_TMR_GetClearSourceId
_HWCNTR_ISR
_HWTMRCH_ISR
