   1                             		.file	"LIB_TaskMonitoring.c"
   2                             		.section P,"ax"
   3                             	.Ltext0:
   4                             		.section	.text.LIB_TaskMonitorInit,"ax",@progbits
   5                             		.global	_LIB_TaskMonitorInit
   7                             	_LIB_TaskMonitorInit:
   8                             	.LFB0:
   9                             		.file 1 "C:/Workspace/FW_Inertia/branch_indesit/PlatformLibrary/LIB_SecurityCheck/LIB_TaskMonitori
   1:C:/Workspace/FW_Inertia/branch_indesit/PlatformLibrary/LIB_SecurityCheck\LIB_TaskMonitoring.c **** /*
   2:C:/Workspace/FW_Inertia/branch_indesit/PlatformLibrary/LIB_SecurityCheck\LIB_TaskMonitoring.c **** Copyright (c) 2004-2005, Indesit Company, I.D.D..
   3:C:/Workspace/FW_Inertia/branch_indesit/PlatformLibrary/LIB_SecurityCheck\LIB_TaskMonitoring.c **** Tutti i diritti sono riservati. All rights reserved.
   4:C:/Workspace/FW_Inertia/branch_indesit/PlatformLibrary/LIB_SecurityCheck\LIB_TaskMonitoring.c **** */
   5:C:/Workspace/FW_Inertia/branch_indesit/PlatformLibrary/LIB_SecurityCheck\LIB_TaskMonitoring.c **** 
   6:C:/Workspace/FW_Inertia/branch_indesit/PlatformLibrary/LIB_SecurityCheck\LIB_TaskMonitoring.c **** /**
   7:C:/Workspace/FW_Inertia/branch_indesit/PlatformLibrary/LIB_SecurityCheck\LIB_TaskMonitoring.c **** \n
   8:C:/Workspace/FW_Inertia/branch_indesit/PlatformLibrary/LIB_SecurityCheck\LIB_TaskMonitoring.c **** \par		LIB_TaskMonitoring.c
   9:C:/Workspace/FW_Inertia/branch_indesit/PlatformLibrary/LIB_SecurityCheck\LIB_TaskMonitoring.c **** \n			Implementation of all functions necessary to achieve the aim.
  10:C:/Workspace/FW_Inertia/branch_indesit/PlatformLibrary/LIB_SecurityCheck\LIB_TaskMonitoring.c **** \n
  11:C:/Workspace/FW_Inertia/branch_indesit/PlatformLibrary/LIB_SecurityCheck\LIB_TaskMonitoring.c **** \file		LIB_TaskMonitoring.c
  12:C:/Workspace/FW_Inertia/branch_indesit/PlatformLibrary/LIB_SecurityCheck\LIB_TaskMonitoring.c **** \ingroup	LIB_TaskMonitor
  13:C:/Workspace/FW_Inertia/branch_indesit/PlatformLibrary/LIB_SecurityCheck\LIB_TaskMonitoring.c **** \date		Mar 28, 2011
  14:C:/Workspace/FW_Inertia/branch_indesit/PlatformLibrary/LIB_SecurityCheck\LIB_TaskMonitoring.c **** \version	01.00.00
  15:C:/Workspace/FW_Inertia/branch_indesit/PlatformLibrary/LIB_SecurityCheck\LIB_TaskMonitoring.c **** \author		stefano.ughi
  16:C:/Workspace/FW_Inertia/branch_indesit/PlatformLibrary/LIB_SecurityCheck\LIB_TaskMonitoring.c **** \n
  17:C:/Workspace/FW_Inertia/branch_indesit/PlatformLibrary/LIB_SecurityCheck\LIB_TaskMonitoring.c **** \n
  18:C:/Workspace/FW_Inertia/branch_indesit/PlatformLibrary/LIB_SecurityCheck\LIB_TaskMonitoring.c **** \Par\b	History:
  19:C:/Workspace/FW_Inertia/branch_indesit/PlatformLibrary/LIB_SecurityCheck\LIB_TaskMonitoring.c **** \n
  20:C:/Workspace/FW_Inertia/branch_indesit/PlatformLibrary/LIB_SecurityCheck\LIB_TaskMonitoring.c **** \n 		01.00.00
  21:C:/Workspace/FW_Inertia/branch_indesit/PlatformLibrary/LIB_SecurityCheck\LIB_TaskMonitoring.c **** \n		Mar 28, 2011
  22:C:/Workspace/FW_Inertia/branch_indesit/PlatformLibrary/LIB_SecurityCheck\LIB_TaskMonitoring.c **** \n		stefano.ughi
  23:C:/Workspace/FW_Inertia/branch_indesit/PlatformLibrary/LIB_SecurityCheck\LIB_TaskMonitoring.c **** \n		changes
  24:C:/Workspace/FW_Inertia/branch_indesit/PlatformLibrary/LIB_SecurityCheck\LIB_TaskMonitoring.c **** \n 			Creation
  25:C:/Workspace/FW_Inertia/branch_indesit/PlatformLibrary/LIB_SecurityCheck\LIB_TaskMonitoring.c **** \n
  26:C:/Workspace/FW_Inertia/branch_indesit/PlatformLibrary/LIB_SecurityCheck\LIB_TaskMonitoring.c **** \n
  27:C:/Workspace/FW_Inertia/branch_indesit/PlatformLibrary/LIB_SecurityCheck\LIB_TaskMonitoring.c **** */
  28:C:/Workspace/FW_Inertia/branch_indesit/PlatformLibrary/LIB_SecurityCheck\LIB_TaskMonitoring.c **** #define LIB_TASKMONITORING_C
  29:C:/Workspace/FW_Inertia/branch_indesit/PlatformLibrary/LIB_SecurityCheck\LIB_TaskMonitoring.c **** #define MODULE_BODY_CLASSBCHECK
  30:C:/Workspace/FW_Inertia/branch_indesit/PlatformLibrary/LIB_SecurityCheck\LIB_TaskMonitoring.c **** /* ******** */
  31:C:/Workspace/FW_Inertia/branch_indesit/PlatformLibrary/LIB_SecurityCheck\LIB_TaskMonitoring.c **** /* Includes */
  32:C:/Workspace/FW_Inertia/branch_indesit/PlatformLibrary/LIB_SecurityCheck\LIB_TaskMonitoring.c **** /* ******** */
  33:C:/Workspace/FW_Inertia/branch_indesit/PlatformLibrary/LIB_SecurityCheck\LIB_TaskMonitoring.c **** 
  34:C:/Workspace/FW_Inertia/branch_indesit/PlatformLibrary/LIB_SecurityCheck\LIB_TaskMonitoring.c **** #include "Config.h"
  35:C:/Workspace/FW_Inertia/branch_indesit/PlatformLibrary/LIB_SecurityCheck\LIB_TaskMonitoring.c **** #include "LIB_Error.h"
  36:C:/Workspace/FW_Inertia/branch_indesit/PlatformLibrary/LIB_SecurityCheck\LIB_TaskMonitoring.c **** #include "MainConfig.h"
  37:C:/Workspace/FW_Inertia/branch_indesit/PlatformLibrary/LIB_SecurityCheck\LIB_TaskMonitoring.c **** #include "LIB_TaskMonitoring.h"
  38:C:/Workspace/FW_Inertia/branch_indesit/PlatformLibrary/LIB_SecurityCheck\LIB_TaskMonitoring.c **** #include "LIB_ClassBVar.h"
  39:C:/Workspace/FW_Inertia/branch_indesit/PlatformLibrary/LIB_SecurityCheck\LIB_TaskMonitoring.c **** #include "LIB_Trace.h"
  40:C:/Workspace/FW_Inertia/branch_indesit/PlatformLibrary/LIB_SecurityCheck\LIB_TaskMonitoring.c **** 
  41:C:/Workspace/FW_Inertia/branch_indesit/PlatformLibrary/LIB_SecurityCheck\LIB_TaskMonitoring.c **** 
  42:C:/Workspace/FW_Inertia/branch_indesit/PlatformLibrary/LIB_SecurityCheck\LIB_TaskMonitoring.c **** 
  43:C:/Workspace/FW_Inertia/branch_indesit/PlatformLibrary/LIB_SecurityCheck\LIB_TaskMonitoring.c **** /* ****************** */
  44:C:/Workspace/FW_Inertia/branch_indesit/PlatformLibrary/LIB_SecurityCheck\LIB_TaskMonitoring.c **** /* Defines and Macros */
  45:C:/Workspace/FW_Inertia/branch_indesit/PlatformLibrary/LIB_SecurityCheck\LIB_TaskMonitoring.c **** /* ****************** */
  46:C:/Workspace/FW_Inertia/branch_indesit/PlatformLibrary/LIB_SecurityCheck\LIB_TaskMonitoring.c **** 
  47:C:/Workspace/FW_Inertia/branch_indesit/PlatformLibrary/LIB_SecurityCheck\LIB_TaskMonitoring.c **** /** define on checkActTaskError_t variables: task is not activated within the timeout */
  48:C:/Workspace/FW_Inertia/branch_indesit/PlatformLibrary/LIB_SecurityCheck\LIB_TaskMonitoring.c **** #define TASK_NOT_ACTIVATED          0
  49:C:/Workspace/FW_Inertia/branch_indesit/PlatformLibrary/LIB_SecurityCheck\LIB_TaskMonitoring.c **** /** define on checkActTaskError_t variables: control on task suspended */
  50:C:/Workspace/FW_Inertia/branch_indesit/PlatformLibrary/LIB_SecurityCheck\LIB_TaskMonitoring.c **** #define TASK_SUSPENDED              1
  51:C:/Workspace/FW_Inertia/branch_indesit/PlatformLibrary/LIB_SecurityCheck\LIB_TaskMonitoring.c **** /** define on checkActTaskError_t variables: task activated but timeout not expired */
  52:C:/Workspace/FW_Inertia/branch_indesit/PlatformLibrary/LIB_SecurityCheck\LIB_TaskMonitoring.c **** #define TASK_TIMEOUT_NOT_ELAPSED    2
  53:C:/Workspace/FW_Inertia/branch_indesit/PlatformLibrary/LIB_SecurityCheck\LIB_TaskMonitoring.c **** 
  54:C:/Workspace/FW_Inertia/branch_indesit/PlatformLibrary/LIB_SecurityCheck\LIB_TaskMonitoring.c **** #if defined(CONFIG_LIB_CLASS_B_PERIODIC_CHECK_STATIC_CONF)
  55:C:/Workspace/FW_Inertia/branch_indesit/PlatformLibrary/LIB_SecurityCheck\LIB_TaskMonitoring.c **** #define SET_TASK_TIMEOUT(taskID, value)
  56:C:/Workspace/FW_Inertia/branch_indesit/PlatformLibrary/LIB_SecurityCheck\LIB_TaskMonitoring.c **** #define TASK_TIMEOUT(taskID) CheckTasksMaxTimeout[taskID]
  57:C:/Workspace/FW_Inertia/branch_indesit/PlatformLibrary/LIB_SecurityCheck\LIB_TaskMonitoring.c **** #else
  58:C:/Workspace/FW_Inertia/branch_indesit/PlatformLibrary/LIB_SecurityCheck\LIB_TaskMonitoring.c **** #define SET_TASK_TIMEOUT(taskID, value) CheckTasks[taskID].maxTimeout = (uint8_t)value
  59:C:/Workspace/FW_Inertia/branch_indesit/PlatformLibrary/LIB_SecurityCheck\LIB_TaskMonitoring.c **** #define TASK_TIMEOUT(taskID) CheckTasks[taskID].maxTimeout
  60:C:/Workspace/FW_Inertia/branch_indesit/PlatformLibrary/LIB_SecurityCheck\LIB_TaskMonitoring.c **** #endif
  61:C:/Workspace/FW_Inertia/branch_indesit/PlatformLibrary/LIB_SecurityCheck\LIB_TaskMonitoring.c **** /* *************************** */
  62:C:/Workspace/FW_Inertia/branch_indesit/PlatformLibrary/LIB_SecurityCheck\LIB_TaskMonitoring.c **** /* Typedef, Structs and Unions */
  63:C:/Workspace/FW_Inertia/branch_indesit/PlatformLibrary/LIB_SecurityCheck\LIB_TaskMonitoring.c **** /* *************************** */
  64:C:/Workspace/FW_Inertia/branch_indesit/PlatformLibrary/LIB_SecurityCheck\LIB_TaskMonitoring.c **** 
  65:C:/Workspace/FW_Inertia/branch_indesit/PlatformLibrary/LIB_SecurityCheck\LIB_TaskMonitoring.c **** /** typedef returns values of CheckActTask function */
  66:C:/Workspace/FW_Inertia/branch_indesit/PlatformLibrary/LIB_SecurityCheck\LIB_TaskMonitoring.c **** typedef uint8_t checkActTaskError_t;
  67:C:/Workspace/FW_Inertia/branch_indesit/PlatformLibrary/LIB_SecurityCheck\LIB_TaskMonitoring.c **** 
  68:C:/Workspace/FW_Inertia/branch_indesit/PlatformLibrary/LIB_SecurityCheck\LIB_TaskMonitoring.c **** /** structure for the control variables of the tasks subject to monitoring */
  69:C:/Workspace/FW_Inertia/branch_indesit/PlatformLibrary/LIB_SecurityCheck\LIB_TaskMonitoring.c **** struct checkTasks_s
  70:C:/Workspace/FW_Inertia/branch_indesit/PlatformLibrary/LIB_SecurityCheck\LIB_TaskMonitoring.c **** {
  71:C:/Workspace/FW_Inertia/branch_indesit/PlatformLibrary/LIB_SecurityCheck\LIB_TaskMonitoring.c **** 	/** timeout counter */
  72:C:/Workspace/FW_Inertia/branch_indesit/PlatformLibrary/LIB_SecurityCheck\LIB_TaskMonitoring.c **** 	uint8_t	timeoutCounter;
  73:C:/Workspace/FW_Inertia/branch_indesit/PlatformLibrary/LIB_SecurityCheck\LIB_TaskMonitoring.c **** #if defined (CONFIG_PL_DEBUG)
  74:C:/Workspace/FW_Inertia/branch_indesit/PlatformLibrary/LIB_SecurityCheck\LIB_TaskMonitoring.c **** 	uint8_t maxCounter;
  75:C:/Workspace/FW_Inertia/branch_indesit/PlatformLibrary/LIB_SecurityCheck\LIB_TaskMonitoring.c **** #endif
  76:C:/Workspace/FW_Inertia/branch_indesit/PlatformLibrary/LIB_SecurityCheck\LIB_TaskMonitoring.c **** #if !defined(CONFIG_LIB_CLASS_B_PERIODIC_CHECK_STATIC_CONF)
  77:C:/Workspace/FW_Inertia/branch_indesit/PlatformLibrary/LIB_SecurityCheck\LIB_TaskMonitoring.c **** 	uint8_t	maxTimeout;
  78:C:/Workspace/FW_Inertia/branch_indesit/PlatformLibrary/LIB_SecurityCheck\LIB_TaskMonitoring.c **** #endif /* #if defined(CONFIG_LIB_CLASS_B_PERIODIC_CHECK_STATIC_CONF) */
  79:C:/Workspace/FW_Inertia/branch_indesit/PlatformLibrary/LIB_SecurityCheck\LIB_TaskMonitoring.c **** 	/** flag if '1' the task has been configured */
  80:C:/Workspace/FW_Inertia/branch_indesit/PlatformLibrary/LIB_SecurityCheck\LIB_TaskMonitoring.c **** 	uint8_t configDone:1;
  81:C:/Workspace/FW_Inertia/branch_indesit/PlatformLibrary/LIB_SecurityCheck\LIB_TaskMonitoring.c **** 	/** flag if '1' the task is active  */
  82:C:/Workspace/FW_Inertia/branch_indesit/PlatformLibrary/LIB_SecurityCheck\LIB_TaskMonitoring.c **** 	uint8_t taskActive:1;
  83:C:/Workspace/FW_Inertia/branch_indesit/PlatformLibrary/LIB_SecurityCheck\LIB_TaskMonitoring.c **** 	/** flag if '1' task executed before timeout elapsed  */
  84:C:/Workspace/FW_Inertia/branch_indesit/PlatformLibrary/LIB_SecurityCheck\LIB_TaskMonitoring.c **** 	uint8_t taskEntered:1;
  85:C:/Workspace/FW_Inertia/branch_indesit/PlatformLibrary/LIB_SecurityCheck\LIB_TaskMonitoring.c **** 	/** flag if '1' task executed before timeout elapsed  */
  86:C:/Workspace/FW_Inertia/branch_indesit/PlatformLibrary/LIB_SecurityCheck\LIB_TaskMonitoring.c **** 	/* uint8_t	taskExecuted:1; */
  87:C:/Workspace/FW_Inertia/branch_indesit/PlatformLibrary/LIB_SecurityCheck\LIB_TaskMonitoring.c **** 	/** flag if '1' task Configured  */
  88:C:/Workspace/FW_Inertia/branch_indesit/PlatformLibrary/LIB_SecurityCheck\LIB_TaskMonitoring.c **** 	uint8_t taskConfigured:1;
  89:C:/Workspace/FW_Inertia/branch_indesit/PlatformLibrary/LIB_SecurityCheck\LIB_TaskMonitoring.c **** };
  90:C:/Workspace/FW_Inertia/branch_indesit/PlatformLibrary/LIB_SecurityCheck\LIB_TaskMonitoring.c **** 
  91:C:/Workspace/FW_Inertia/branch_indesit/PlatformLibrary/LIB_SecurityCheck\LIB_TaskMonitoring.c **** typedef struct checkTasks_s checkTasks_t;
  92:C:/Workspace/FW_Inertia/branch_indesit/PlatformLibrary/LIB_SecurityCheck\LIB_TaskMonitoring.c **** 
  93:C:/Workspace/FW_Inertia/branch_indesit/PlatformLibrary/LIB_SecurityCheck\LIB_TaskMonitoring.c **** /* **************************** */
  94:C:/Workspace/FW_Inertia/branch_indesit/PlatformLibrary/LIB_SecurityCheck\LIB_TaskMonitoring.c **** /* Prototype of local functions */
  95:C:/Workspace/FW_Inertia/branch_indesit/PlatformLibrary/LIB_SecurityCheck\LIB_TaskMonitoring.c **** /* **************************** */
  96:C:/Workspace/FW_Inertia/branch_indesit/PlatformLibrary/LIB_SecurityCheck\LIB_TaskMonitoring.c **** static void LIB_TaskMonitorErrorHandler( uint8_t err );
  97:C:/Workspace/FW_Inertia/branch_indesit/PlatformLibrary/LIB_SecurityCheck\LIB_TaskMonitoring.c **** static checkActTaskError_t CheckActTask( uint8_t taskID );
  98:C:/Workspace/FW_Inertia/branch_indesit/PlatformLibrary/LIB_SecurityCheck\LIB_TaskMonitoring.c **** 
  99:C:/Workspace/FW_Inertia/branch_indesit/PlatformLibrary/LIB_SecurityCheck\LIB_TaskMonitoring.c **** /* ****************** */
 100:C:/Workspace/FW_Inertia/branch_indesit/PlatformLibrary/LIB_SecurityCheck\LIB_TaskMonitoring.c **** /* Exported variables */
 101:C:/Workspace/FW_Inertia/branch_indesit/PlatformLibrary/LIB_SecurityCheck\LIB_TaskMonitoring.c **** /* ****************** */
 102:C:/Workspace/FW_Inertia/branch_indesit/PlatformLibrary/LIB_SecurityCheck\LIB_TaskMonitoring.c **** 
 103:C:/Workspace/FW_Inertia/branch_indesit/PlatformLibrary/LIB_SecurityCheck\LIB_TaskMonitoring.c **** /* **************** */
 104:C:/Workspace/FW_Inertia/branch_indesit/PlatformLibrary/LIB_SecurityCheck\LIB_TaskMonitoring.c **** /* Global variables */
 105:C:/Workspace/FW_Inertia/branch_indesit/PlatformLibrary/LIB_SecurityCheck\LIB_TaskMonitoring.c **** /* **************** */
 106:C:/Workspace/FW_Inertia/branch_indesit/PlatformLibrary/LIB_SecurityCheck\LIB_TaskMonitoring.c **** 
 107:C:/Workspace/FW_Inertia/branch_indesit/PlatformLibrary/LIB_SecurityCheck\LIB_TaskMonitoring.c **** #if defined(CONFIG_LIB_CLASS_B_PERIODIC_CHECK_STATIC_CONF)
 108:C:/Workspace/FW_Inertia/branch_indesit/PlatformLibrary/LIB_SecurityCheck\LIB_TaskMonitoring.c **** extern const uint8_t CheckTasksMaxTimeout[NUM_TASKS_TO_MONITOR];
 109:C:/Workspace/FW_Inertia/branch_indesit/PlatformLibrary/LIB_SecurityCheck\LIB_TaskMonitoring.c **** #endif
 110:C:/Workspace/FW_Inertia/branch_indesit/PlatformLibrary/LIB_SecurityCheck\LIB_TaskMonitoring.c **** 
 111:C:/Workspace/FW_Inertia/branch_indesit/PlatformLibrary/LIB_SecurityCheck\LIB_TaskMonitoring.c **** /** modul's variables */
 112:C:/Workspace/FW_Inertia/branch_indesit/PlatformLibrary/LIB_SecurityCheck\LIB_TaskMonitoring.c **** static checkTasks_t CheckTasks[ NUM_TASKS_TO_MONITOR ];
 113:C:/Workspace/FW_Inertia/branch_indesit/PlatformLibrary/LIB_SecurityCheck\LIB_TaskMonitoring.c **** static int LIB_TaskMonitorError;
 114:C:/Workspace/FW_Inertia/branch_indesit/PlatformLibrary/LIB_SecurityCheck\LIB_TaskMonitoring.c **** 
 115:C:/Workspace/FW_Inertia/branch_indesit/PlatformLibrary/LIB_SecurityCheck\LIB_TaskMonitoring.c **** #if defined(CONFIG_LIB_CLASS_B_IRQ_CHECK)
 116:C:/Workspace/FW_Inertia/branch_indesit/PlatformLibrary/LIB_SecurityCheck\LIB_TaskMonitoring.c **** 
 117:C:/Workspace/FW_Inertia/branch_indesit/PlatformLibrary/LIB_SecurityCheck\LIB_TaskMonitoring.c **** typedef struct irqMonitorStatus_s
 118:C:/Workspace/FW_Inertia/branch_indesit/PlatformLibrary/LIB_SecurityCheck\LIB_TaskMonitoring.c **** {
 119:C:/Workspace/FW_Inertia/branch_indesit/PlatformLibrary/LIB_SecurityCheck\LIB_TaskMonitoring.c **** 	uint16_t EnterCntr;
 120:C:/Workspace/FW_Inertia/branch_indesit/PlatformLibrary/LIB_SecurityCheck\LIB_TaskMonitoring.c **** 	uint16_t ExitCntr;
 121:C:/Workspace/FW_Inertia/branch_indesit/PlatformLibrary/LIB_SecurityCheck\LIB_TaskMonitoring.c **** 	uint16_t fltCntr;
 122:C:/Workspace/FW_Inertia/branch_indesit/PlatformLibrary/LIB_SecurityCheck\LIB_TaskMonitoring.c **** 	uint16_t maxIntrCntr;
 123:C:/Workspace/FW_Inertia/branch_indesit/PlatformLibrary/LIB_SecurityCheck\LIB_TaskMonitoring.c **** } irqMonitorStatus_t;
 124:C:/Workspace/FW_Inertia/branch_indesit/PlatformLibrary/LIB_SecurityCheck\LIB_TaskMonitoring.c **** 
 125:C:/Workspace/FW_Inertia/branch_indesit/PlatformLibrary/LIB_SecurityCheck\LIB_TaskMonitoring.c **** irqMonitorStatus_t IRQMonitorStatus;
 126:C:/Workspace/FW_Inertia/branch_indesit/PlatformLibrary/LIB_SecurityCheck\LIB_TaskMonitoring.c **** 
 127:C:/Workspace/FW_Inertia/branch_indesit/PlatformLibrary/LIB_SecurityCheck\LIB_TaskMonitoring.c **** #endif
 128:C:/Workspace/FW_Inertia/branch_indesit/PlatformLibrary/LIB_SecurityCheck\LIB_TaskMonitoring.c **** 
 129:C:/Workspace/FW_Inertia/branch_indesit/PlatformLibrary/LIB_SecurityCheck\LIB_TaskMonitoring.c **** /* DEBUG */
 130:C:/Workspace/FW_Inertia/branch_indesit/PlatformLibrary/LIB_SecurityCheck\LIB_TaskMonitoring.c **** #if defined(CONFIG_LIB_CLASS_B_IRQ_CHECK_DEBUG)
 131:C:/Workspace/FW_Inertia/branch_indesit/PlatformLibrary/LIB_SecurityCheck\LIB_TaskMonitoring.c **** uint16_t LIB_IRQMonitorMin;
 132:C:/Workspace/FW_Inertia/branch_indesit/PlatformLibrary/LIB_SecurityCheck\LIB_TaskMonitoring.c **** uint16_t LIB_IRQMonitorZero;
 133:C:/Workspace/FW_Inertia/branch_indesit/PlatformLibrary/LIB_SecurityCheck\LIB_TaskMonitoring.c **** uint16_t LIB_IRQMonitorMismatch;
 134:C:/Workspace/FW_Inertia/branch_indesit/PlatformLibrary/LIB_SecurityCheck\LIB_TaskMonitoring.c **** OS_TIME LIB_IRQMonitorTimestamp;
 135:C:/Workspace/FW_Inertia/branch_indesit/PlatformLibrary/LIB_SecurityCheck\LIB_TaskMonitoring.c **** #endif
 136:C:/Workspace/FW_Inertia/branch_indesit/PlatformLibrary/LIB_SecurityCheck\LIB_TaskMonitoring.c **** 
 137:C:/Workspace/FW_Inertia/branch_indesit/PlatformLibrary/LIB_SecurityCheck\LIB_TaskMonitoring.c **** /* ***************** */
 138:C:/Workspace/FW_Inertia/branch_indesit/PlatformLibrary/LIB_SecurityCheck\LIB_TaskMonitoring.c **** /* Exported function */
 139:C:/Workspace/FW_Inertia/branch_indesit/PlatformLibrary/LIB_SecurityCheck\LIB_TaskMonitoring.c **** /* ***************** */
 140:C:/Workspace/FW_Inertia/branch_indesit/PlatformLibrary/LIB_SecurityCheck\LIB_TaskMonitoring.c **** 
 141:C:/Workspace/FW_Inertia/branch_indesit/PlatformLibrary/LIB_SecurityCheck\LIB_TaskMonitoring.c **** void LIB_TaskMonitorInit( void )
 142:C:/Workspace/FW_Inertia/branch_indesit/PlatformLibrary/LIB_SecurityCheck\LIB_TaskMonitoring.c **** {
  10                             		.loc 1 142 0
 143:C:/Workspace/FW_Inertia/branch_indesit/PlatformLibrary/LIB_SecurityCheck\LIB_TaskMonitoring.c **** 	SAFETY_REGION_START();
 144:C:/Workspace/FW_Inertia/branch_indesit/PlatformLibrary/LIB_SecurityCheck\LIB_TaskMonitoring.c **** 	memset(CheckTasks, 0, sizeof(CheckTasks));
  11                             		.loc 1 144 0
  12 0000 FB 12 00 00 00 00       		mov.L	#_CheckTasks, r1
  13 0006 66 A3                   		mov.L	#10, r3
  14 0008 66 02                   		mov	#0, r2
  15 000a 7F 88                   		sstr.b
 145:C:/Workspace/FW_Inertia/branch_indesit/PlatformLibrary/LIB_SecurityCheck\LIB_TaskMonitoring.c **** 	LIB_TaskMonitorError = 0;
  16                             		.loc 1 145 0
  17 000c FB E2 00 00 00 00       		mov.L	#_LIB_TaskMonitorError, r14
  18 0012 F8 E6 00                		mov.L	#0, [r14]
  19 0015 02                      		rts
  20                             	.LFE0:
  22                             		.section	.text.LIB_TaskMonitor,"ax",@progbits
  23                             		.global	_LIB_TaskMonitor
  25                             	_LIB_TaskMonitor:
  26                             	.LFB1:
 146:C:/Workspace/FW_Inertia/branch_indesit/PlatformLibrary/LIB_SecurityCheck\LIB_TaskMonitoring.c **** 
 147:C:/Workspace/FW_Inertia/branch_indesit/PlatformLibrary/LIB_SecurityCheck\LIB_TaskMonitoring.c **** 	SAFETY_DATA_UPDATE(CheckTasks);
 148:C:/Workspace/FW_Inertia/branch_indesit/PlatformLibrary/LIB_SecurityCheck\LIB_TaskMonitoring.c **** 	SAFETY_DATA_UPDATE(LIB_TaskMonitorError);
 149:C:/Workspace/FW_Inertia/branch_indesit/PlatformLibrary/LIB_SecurityCheck\LIB_TaskMonitoring.c **** 	SAFETY_REGION_END();
 150:C:/Workspace/FW_Inertia/branch_indesit/PlatformLibrary/LIB_SecurityCheck\LIB_TaskMonitoring.c **** 
 151:C:/Workspace/FW_Inertia/branch_indesit/PlatformLibrary/LIB_SecurityCheck\LIB_TaskMonitoring.c **** }
 152:C:/Workspace/FW_Inertia/branch_indesit/PlatformLibrary/LIB_SecurityCheck\LIB_TaskMonitoring.c **** 
 153:C:/Workspace/FW_Inertia/branch_indesit/PlatformLibrary/LIB_SecurityCheck\LIB_TaskMonitoring.c **** /**
 154:C:/Workspace/FW_Inertia/branch_indesit/PlatformLibrary/LIB_SecurityCheck\LIB_TaskMonitoring.c **** \n Monitorings the activation of selected tasks. This function must be called periodically
 155:C:/Workspace/FW_Inertia/branch_indesit/PlatformLibrary/LIB_SecurityCheck\LIB_TaskMonitoring.c **** at Supervisor Task period time - timeouts are set depending on this value.
 156:C:/Workspace/FW_Inertia/branch_indesit/PlatformLibrary/LIB_SecurityCheck\LIB_TaskMonitoring.c **** 
 157:C:/Workspace/FW_Inertia/branch_indesit/PlatformLibrary/LIB_SecurityCheck\LIB_TaskMonitoring.c **** \return 	bool_t
 158:C:/Workspace/FW_Inertia/branch_indesit/PlatformLibrary/LIB_SecurityCheck\LIB_TaskMonitoring.c **** 
 159:C:/Workspace/FW_Inertia/branch_indesit/PlatformLibrary/LIB_SecurityCheck\LIB_TaskMonitoring.c **** \retval		TRUE all tasks submitted to the monitoring were activated within the prescribed time-out.
 160:C:/Workspace/FW_Inertia/branch_indesit/PlatformLibrary/LIB_SecurityCheck\LIB_TaskMonitoring.c **** \retval		FALSE a task submitted to the monitoring was not activated within the prescribed time-out.
 161:C:/Workspace/FW_Inertia/branch_indesit/PlatformLibrary/LIB_SecurityCheck\LIB_TaskMonitoring.c **** 
 162:C:/Workspace/FW_Inertia/branch_indesit/PlatformLibrary/LIB_SecurityCheck\LIB_TaskMonitoring.c **** 
 163:C:/Workspace/FW_Inertia/branch_indesit/PlatformLibrary/LIB_SecurityCheck\LIB_TaskMonitoring.c **** \author 	Stefano Ughi
 164:C:/Workspace/FW_Inertia/branch_indesit/PlatformLibrary/LIB_SecurityCheck\LIB_TaskMonitoring.c **** \date		Mar 28, 2011
 165:C:/Workspace/FW_Inertia/branch_indesit/PlatformLibrary/LIB_SecurityCheck\LIB_TaskMonitoring.c **** \version	1.0.0
 166:C:/Workspace/FW_Inertia/branch_indesit/PlatformLibrary/LIB_SecurityCheck\LIB_TaskMonitoring.c **** 
 167:C:/Workspace/FW_Inertia/branch_indesit/PlatformLibrary/LIB_SecurityCheck\LIB_TaskMonitoring.c **** \note		\par \b Nota 1:
 168:C:/Workspace/FW_Inertia/branch_indesit/PlatformLibrary/LIB_SecurityCheck\LIB_TaskMonitoring.c **** 			documentation by Stefano Ughi
 169:C:/Workspace/FW_Inertia/branch_indesit/PlatformLibrary/LIB_SecurityCheck\LIB_TaskMonitoring.c **** */
 170:C:/Workspace/FW_Inertia/branch_indesit/PlatformLibrary/LIB_SecurityCheck\LIB_TaskMonitoring.c **** #ifdef CONFIG_PL_DEBUG 
 171:C:/Workspace/FW_Inertia/branch_indesit/PlatformLibrary/LIB_SecurityCheck\LIB_TaskMonitoring.c **** uint8_t DBG_LIB_TM_idFailedTask=0;  
 172:C:/Workspace/FW_Inertia/branch_indesit/PlatformLibrary/LIB_SecurityCheck\LIB_TaskMonitoring.c **** #endif /* CONFIG_PL_DEBUG*/
 173:C:/Workspace/FW_Inertia/branch_indesit/PlatformLibrary/LIB_SecurityCheck\LIB_TaskMonitoring.c **** void LIB_TaskMonitor( void )
 174:C:/Workspace/FW_Inertia/branch_indesit/PlatformLibrary/LIB_SecurityCheck\LIB_TaskMonitoring.c **** {
  27                             		.loc 1 174 0
  28                             	.LVL0:
 175:C:/Workspace/FW_Inertia/branch_indesit/PlatformLibrary/LIB_SecurityCheck\LIB_TaskMonitoring.c **** 	bool_t retVal = TRUE;
 176:C:/Workspace/FW_Inertia/branch_indesit/PlatformLibrary/LIB_SecurityCheck\LIB_TaskMonitoring.c **** 	uint8_t taskToCheck;
 177:C:/Workspace/FW_Inertia/branch_indesit/PlatformLibrary/LIB_SecurityCheck\LIB_TaskMonitoring.c **** 
 178:C:/Workspace/FW_Inertia/branch_indesit/PlatformLibrary/LIB_SecurityCheck\LIB_TaskMonitoring.c **** 	SAFETY_REGION_START();
 179:C:/Workspace/FW_Inertia/branch_indesit/PlatformLibrary/LIB_SecurityCheck\LIB_TaskMonitoring.c **** 	SAFETY_DATA_CHECK(LIB_TaskMonitorError);
 180:C:/Workspace/FW_Inertia/branch_indesit/PlatformLibrary/LIB_SecurityCheck\LIB_TaskMonitoring.c **** 	SAFETY_DATA_CHECK(CheckTasks);
 181:C:/Workspace/FW_Inertia/branch_indesit/PlatformLibrary/LIB_SecurityCheck\LIB_TaskMonitoring.c **** 
 182:C:/Workspace/FW_Inertia/branch_indesit/PlatformLibrary/LIB_SecurityCheck\LIB_TaskMonitoring.c **** 	if(LIB_TaskMonitorError != 0 )
  29                             		.loc 1 182 0
  30 0000 FB E2 00 00 00 00       		mov.L	#_LIB_TaskMonitorError, r14
  31 0006 EC EE                   		mov.L	[r14], r14
  32 0008 61 0E                   		cmp	#0, r14
  33 000a 11                      		beq	.L3
  34 000b 03                      		.balign 2,3,2
  35                             	.L6:
  36                             	.LVL1:
 183:C:/Workspace/FW_Inertia/branch_indesit/PlatformLibrary/LIB_SecurityCheck\LIB_TaskMonitoring.c **** 	{
 184:C:/Workspace/FW_Inertia/branch_indesit/PlatformLibrary/LIB_SecurityCheck\LIB_TaskMonitoring.c **** 		retVal = FALSE;
 185:C:/Workspace/FW_Inertia/branch_indesit/PlatformLibrary/LIB_SecurityCheck\LIB_TaskMonitoring.c **** 	}
 186:C:/Workspace/FW_Inertia/branch_indesit/PlatformLibrary/LIB_SecurityCheck\LIB_TaskMonitoring.c **** 	else {
 187:C:/Workspace/FW_Inertia/branch_indesit/PlatformLibrary/LIB_SecurityCheck\LIB_TaskMonitoring.c **** 
 188:C:/Workspace/FW_Inertia/branch_indesit/PlatformLibrary/LIB_SecurityCheck\LIB_TaskMonitoring.c **** 		for ( taskToCheck = 0; taskToCheck < NUM_TASKS_TO_MONITOR; taskToCheck ++ )
 189:C:/Workspace/FW_Inertia/branch_indesit/PlatformLibrary/LIB_SecurityCheck\LIB_TaskMonitoring.c **** 		{
 190:C:/Workspace/FW_Inertia/branch_indesit/PlatformLibrary/LIB_SecurityCheck\LIB_TaskMonitoring.c **** 			if ( CheckActTask( taskToCheck ) == TASK_NOT_ACTIVATED )
 191:C:/Workspace/FW_Inertia/branch_indesit/PlatformLibrary/LIB_SecurityCheck\LIB_TaskMonitoring.c **** 			{
 192:C:/Workspace/FW_Inertia/branch_indesit/PlatformLibrary/LIB_SecurityCheck\LIB_TaskMonitoring.c **** 	#ifdef CONFIG_PL_DEBUG
 193:C:/Workspace/FW_Inertia/branch_indesit/PlatformLibrary/LIB_SecurityCheck\LIB_TaskMonitoring.c **** 			  DBG_LIB_TM_idFailedTask = taskToCheck;
 194:C:/Workspace/FW_Inertia/branch_indesit/PlatformLibrary/LIB_SecurityCheck\LIB_TaskMonitoring.c **** 	#endif
 195:C:/Workspace/FW_Inertia/branch_indesit/PlatformLibrary/LIB_SecurityCheck\LIB_TaskMonitoring.c **** 			  retVal = FALSE;
 196:C:/Workspace/FW_Inertia/branch_indesit/PlatformLibrary/LIB_SecurityCheck\LIB_TaskMonitoring.c **** 			  break;
 197:C:/Workspace/FW_Inertia/branch_indesit/PlatformLibrary/LIB_SecurityCheck\LIB_TaskMonitoring.c **** 			}
 198:C:/Workspace/FW_Inertia/branch_indesit/PlatformLibrary/LIB_SecurityCheck\LIB_TaskMonitoring.c **** 		}
 199:C:/Workspace/FW_Inertia/branch_indesit/PlatformLibrary/LIB_SecurityCheck\LIB_TaskMonitoring.c **** 	}
 200:C:/Workspace/FW_Inertia/branch_indesit/PlatformLibrary/LIB_SecurityCheck\LIB_TaskMonitoring.c **** 	SAFETY_DATA_UPDATE(CheckTasks);
 201:C:/Workspace/FW_Inertia/branch_indesit/PlatformLibrary/LIB_SecurityCheck\LIB_TaskMonitoring.c **** 	SAFETY_REGION_END();
 202:C:/Workspace/FW_Inertia/branch_indesit/PlatformLibrary/LIB_SecurityCheck\LIB_TaskMonitoring.c **** 
 203:C:/Workspace/FW_Inertia/branch_indesit/PlatformLibrary/LIB_SecurityCheck\LIB_TaskMonitoring.c **** 	if(retVal == FALSE){
 204:C:/Workspace/FW_Inertia/branch_indesit/PlatformLibrary/LIB_SecurityCheck\LIB_TaskMonitoring.c **** 		PLT_ERROR_FATAL(PLT_ERROR_CLASSBCHECK_TASKMONITORING);
  37                             		.loc 1 204 0
  38 000c 75 41 36                		mov.L	#54, r1
  39 000f 04 00 00 00             		bra	_LIB_Error_Fatal_Handler
  40                             	.LVL2:
  41                             	.L3:
  42 0013 FB 42 00 00 00 00       		mov.L	#_CheckTasks, r4
  43                             	.LBB10:
  44                             	.LBB11:
 205:C:/Workspace/FW_Inertia/branch_indesit/PlatformLibrary/LIB_SecurityCheck\LIB_TaskMonitoring.c **** 	}
 206:C:/Workspace/FW_Inertia/branch_indesit/PlatformLibrary/LIB_SecurityCheck\LIB_TaskMonitoring.c **** 
 207:C:/Workspace/FW_Inertia/branch_indesit/PlatformLibrary/LIB_SecurityCheck\LIB_TaskMonitoring.c **** 	/* return retVal; */
 208:C:/Workspace/FW_Inertia/branch_indesit/PlatformLibrary/LIB_SecurityCheck\LIB_TaskMonitoring.c **** }
 209:C:/Workspace/FW_Inertia/branch_indesit/PlatformLibrary/LIB_SecurityCheck\LIB_TaskMonitoring.c **** 
 210:C:/Workspace/FW_Inertia/branch_indesit/PlatformLibrary/LIB_SecurityCheck\LIB_TaskMonitoring.c **** /**
 211:C:/Workspace/FW_Inertia/branch_indesit/PlatformLibrary/LIB_SecurityCheck\LIB_TaskMonitoring.c **** The function is called by the Tasks subject to monitoring.
 212:C:/Workspace/FW_Inertia/branch_indesit/PlatformLibrary/LIB_SecurityCheck\LIB_TaskMonitoring.c **** 
 213:C:/Workspace/FW_Inertia/branch_indesit/PlatformLibrary/LIB_SecurityCheck\LIB_TaskMonitoring.c **** \param  	[in], taskID ID calling task
 214:C:/Workspace/FW_Inertia/branch_indesit/PlatformLibrary/LIB_SecurityCheck\LIB_TaskMonitoring.c **** 
 215:C:/Workspace/FW_Inertia/branch_indesit/PlatformLibrary/LIB_SecurityCheck\LIB_TaskMonitoring.c **** 
 216:C:/Workspace/FW_Inertia/branch_indesit/PlatformLibrary/LIB_SecurityCheck\LIB_TaskMonitoring.c **** \author 	Stefano Ughi
 217:C:/Workspace/FW_Inertia/branch_indesit/PlatformLibrary/LIB_SecurityCheck\LIB_TaskMonitoring.c **** \date		25/06/2007
 218:C:/Workspace/FW_Inertia/branch_indesit/PlatformLibrary/LIB_SecurityCheck\LIB_TaskMonitoring.c **** \version	1.0.0
 219:C:/Workspace/FW_Inertia/branch_indesit/PlatformLibrary/LIB_SecurityCheck\LIB_TaskMonitoring.c **** 
 220:C:/Workspace/FW_Inertia/branch_indesit/PlatformLibrary/LIB_SecurityCheck\LIB_TaskMonitoring.c **** \note		\par \b Nota 1:
 221:C:/Workspace/FW_Inertia/branch_indesit/PlatformLibrary/LIB_SecurityCheck\LIB_TaskMonitoring.c **** 			documentation by Stefano Ughi
 222:C:/Workspace/FW_Inertia/branch_indesit/PlatformLibrary/LIB_SecurityCheck\LIB_TaskMonitoring.c **** */
 223:C:/Workspace/FW_Inertia/branch_indesit/PlatformLibrary/LIB_SecurityCheck\LIB_TaskMonitoring.c **** 
 224:C:/Workspace/FW_Inertia/branch_indesit/PlatformLibrary/LIB_SecurityCheck\LIB_TaskMonitoring.c **** void LIB_HelloTaskMonitor( uint8_t taskID )
 225:C:/Workspace/FW_Inertia/branch_indesit/PlatformLibrary/LIB_SecurityCheck\LIB_TaskMonitoring.c **** {
 226:C:/Workspace/FW_Inertia/branch_indesit/PlatformLibrary/LIB_SecurityCheck\LIB_TaskMonitoring.c ****   LIB_TaskStartActivity(taskID);
 227:C:/Workspace/FW_Inertia/branch_indesit/PlatformLibrary/LIB_SecurityCheck\LIB_TaskMonitoring.c ****   LIB_TaskEndActivity(taskID);
 228:C:/Workspace/FW_Inertia/branch_indesit/PlatformLibrary/LIB_SecurityCheck\LIB_TaskMonitoring.c **** }
 229:C:/Workspace/FW_Inertia/branch_indesit/PlatformLibrary/LIB_SecurityCheck\LIB_TaskMonitoring.c **** 
 230:C:/Workspace/FW_Inertia/branch_indesit/PlatformLibrary/LIB_SecurityCheck\LIB_TaskMonitoring.c **** /**
 231:C:/Workspace/FW_Inertia/branch_indesit/PlatformLibrary/LIB_SecurityCheck\LIB_TaskMonitoring.c **** Sets the check configuration  for the specific taskID.
 232:C:/Workspace/FW_Inertia/branch_indesit/PlatformLibrary/LIB_SecurityCheck\LIB_TaskMonitoring.c **** 
 233:C:/Workspace/FW_Inertia/branch_indesit/PlatformLibrary/LIB_SecurityCheck\LIB_TaskMonitoring.c **** \param  	[in] taskID task's ID (defined in enum  tm_id_enum)
 234:C:/Workspace/FW_Inertia/branch_indesit/PlatformLibrary/LIB_SecurityCheck\LIB_TaskMonitoring.c **** \param  	[in] timeout (in ms)
 235:C:/Workspace/FW_Inertia/branch_indesit/PlatformLibrary/LIB_SecurityCheck\LIB_TaskMonitoring.c **** \param  	[in] state  - TRUE/FALSE set task monitoring active/not active
 236:C:/Workspace/FW_Inertia/branch_indesit/PlatformLibrary/LIB_SecurityCheck\LIB_TaskMonitoring.c **** */
 237:C:/Workspace/FW_Inertia/branch_indesit/PlatformLibrary/LIB_SecurityCheck\LIB_TaskMonitoring.c **** void LIB_TaskMonitoringConfig( uint8_t taskID, uint16_t timeout, bool_t state )
 238:C:/Workspace/FW_Inertia/branch_indesit/PlatformLibrary/LIB_SecurityCheck\LIB_TaskMonitoring.c **** {
 239:C:/Workspace/FW_Inertia/branch_indesit/PlatformLibrary/LIB_SecurityCheck\LIB_TaskMonitoring.c ****   if( taskID < NUM_TASKS_TO_MONITOR )
 240:C:/Workspace/FW_Inertia/branch_indesit/PlatformLibrary/LIB_SecurityCheck\LIB_TaskMonitoring.c ****   {
 241:C:/Workspace/FW_Inertia/branch_indesit/PlatformLibrary/LIB_SecurityCheck\LIB_TaskMonitoring.c **** #if defined(CONFIG_LIB_CLASS_B_PERIODIC_CHECK_STATIC_CONF)
 242:C:/Workspace/FW_Inertia/branch_indesit/PlatformLibrary/LIB_SecurityCheck\LIB_TaskMonitoring.c **** 	 if(CheckTasks[taskID].taskConfigured)
 243:C:/Workspace/FW_Inertia/branch_indesit/PlatformLibrary/LIB_SecurityCheck\LIB_TaskMonitoring.c **** 		  return;
 244:C:/Workspace/FW_Inertia/branch_indesit/PlatformLibrary/LIB_SecurityCheck\LIB_TaskMonitoring.c **** #endif /* defined(CONFIG_LIB_CLASS_B_PERIODIC_CHECK_STATIC_CONF) */
 245:C:/Workspace/FW_Inertia/branch_indesit/PlatformLibrary/LIB_SecurityCheck\LIB_TaskMonitoring.c **** 
 246:C:/Workspace/FW_Inertia/branch_indesit/PlatformLibrary/LIB_SecurityCheck\LIB_TaskMonitoring.c ****       SAFETY_REGION_START();
 247:C:/Workspace/FW_Inertia/branch_indesit/PlatformLibrary/LIB_SecurityCheck\LIB_TaskMonitoring.c ****       SAFETY_DATA_CHECK(CheckTasks);
 248:C:/Workspace/FW_Inertia/branch_indesit/PlatformLibrary/LIB_SecurityCheck\LIB_TaskMonitoring.c ****       SET_TASK_TIMEOUT(taskID, timeout);
 249:C:/Workspace/FW_Inertia/branch_indesit/PlatformLibrary/LIB_SecurityCheck\LIB_TaskMonitoring.c ****       CheckTasks[taskID].timeoutCounter = 0;
 250:C:/Workspace/FW_Inertia/branch_indesit/PlatformLibrary/LIB_SecurityCheck\LIB_TaskMonitoring.c ****       CheckTasks[taskID].configDone = 1;
 251:C:/Workspace/FW_Inertia/branch_indesit/PlatformLibrary/LIB_SecurityCheck\LIB_TaskMonitoring.c ****     
 252:C:/Workspace/FW_Inertia/branch_indesit/PlatformLibrary/LIB_SecurityCheck\LIB_TaskMonitoring.c ****       CheckTasks[taskID].taskActive = ( TRUE == state );
 253:C:/Workspace/FW_Inertia/branch_indesit/PlatformLibrary/LIB_SecurityCheck\LIB_TaskMonitoring.c **** 
 254:C:/Workspace/FW_Inertia/branch_indesit/PlatformLibrary/LIB_SecurityCheck\LIB_TaskMonitoring.c ****       CheckTasks[taskID].taskConfigured = 1;
 255:C:/Workspace/FW_Inertia/branch_indesit/PlatformLibrary/LIB_SecurityCheck\LIB_TaskMonitoring.c **** 
 256:C:/Workspace/FW_Inertia/branch_indesit/PlatformLibrary/LIB_SecurityCheck\LIB_TaskMonitoring.c ****       SAFETY_DATA_UPDATE(CheckTasks);
 257:C:/Workspace/FW_Inertia/branch_indesit/PlatformLibrary/LIB_SecurityCheck\LIB_TaskMonitoring.c ****       SAFETY_REGION_END();
 258:C:/Workspace/FW_Inertia/branch_indesit/PlatformLibrary/LIB_SecurityCheck\LIB_TaskMonitoring.c ****   }
 259:C:/Workspace/FW_Inertia/branch_indesit/PlatformLibrary/LIB_SecurityCheck\LIB_TaskMonitoring.c ****   else{
 260:C:/Workspace/FW_Inertia/branch_indesit/PlatformLibrary/LIB_SecurityCheck\LIB_TaskMonitoring.c **** #ifdef CONFIG_PL_DEBUG 
 261:C:/Workspace/FW_Inertia/branch_indesit/PlatformLibrary/LIB_SecurityCheck\LIB_TaskMonitoring.c **** 	  DBG_LIB_TM_idFailedTask = taskID;
 262:C:/Workspace/FW_Inertia/branch_indesit/PlatformLibrary/LIB_SecurityCheck\LIB_TaskMonitoring.c **** #endif
 263:C:/Workspace/FW_Inertia/branch_indesit/PlatformLibrary/LIB_SecurityCheck\LIB_TaskMonitoring.c **** 	  LIB_TaskMonitorErrorHandler(3);
 264:C:/Workspace/FW_Inertia/branch_indesit/PlatformLibrary/LIB_SecurityCheck\LIB_TaskMonitoring.c ****   }
 265:C:/Workspace/FW_Inertia/branch_indesit/PlatformLibrary/LIB_SecurityCheck\LIB_TaskMonitoring.c **** }
 266:C:/Workspace/FW_Inertia/branch_indesit/PlatformLibrary/LIB_SecurityCheck\LIB_TaskMonitoring.c **** 
 267:C:/Workspace/FW_Inertia/branch_indesit/PlatformLibrary/LIB_SecurityCheck\LIB_TaskMonitoring.c **** void LIB_TaskStartActivity(  uint8_t taskID )
 268:C:/Workspace/FW_Inertia/branch_indesit/PlatformLibrary/LIB_SecurityCheck\LIB_TaskMonitoring.c **** {
 269:C:/Workspace/FW_Inertia/branch_indesit/PlatformLibrary/LIB_SecurityCheck\LIB_TaskMonitoring.c **** 
 270:C:/Workspace/FW_Inertia/branch_indesit/PlatformLibrary/LIB_SecurityCheck\LIB_TaskMonitoring.c ****     /* Check if task is configured and activated */
 271:C:/Workspace/FW_Inertia/branch_indesit/PlatformLibrary/LIB_SecurityCheck\LIB_TaskMonitoring.c ****   if ((CheckTasks[taskID].configDone) && (CheckTasks[taskID].taskActive)
 272:C:/Workspace/FW_Inertia/branch_indesit/PlatformLibrary/LIB_SecurityCheck\LIB_TaskMonitoring.c **** 		  && (!CheckTasks[taskID].taskEntered))
 273:C:/Workspace/FW_Inertia/branch_indesit/PlatformLibrary/LIB_SecurityCheck\LIB_TaskMonitoring.c ****   {
 274:C:/Workspace/FW_Inertia/branch_indesit/PlatformLibrary/LIB_SecurityCheck\LIB_TaskMonitoring.c ****       SAFETY_REGION_START();
 275:C:/Workspace/FW_Inertia/branch_indesit/PlatformLibrary/LIB_SecurityCheck\LIB_TaskMonitoring.c ****       SAFETY_DATA_CHECK(CheckTasks);
 276:C:/Workspace/FW_Inertia/branch_indesit/PlatformLibrary/LIB_SecurityCheck\LIB_TaskMonitoring.c **** 
 277:C:/Workspace/FW_Inertia/branch_indesit/PlatformLibrary/LIB_SecurityCheck\LIB_TaskMonitoring.c ****       CheckTasks[taskID].taskEntered = 1;
 278:C:/Workspace/FW_Inertia/branch_indesit/PlatformLibrary/LIB_SecurityCheck\LIB_TaskMonitoring.c **** 
 279:C:/Workspace/FW_Inertia/branch_indesit/PlatformLibrary/LIB_SecurityCheck\LIB_TaskMonitoring.c ****       SAFETY_DATA_UPDATE(CheckTasks);
 280:C:/Workspace/FW_Inertia/branch_indesit/PlatformLibrary/LIB_SecurityCheck\LIB_TaskMonitoring.c ****       SAFETY_REGION_END();
 281:C:/Workspace/FW_Inertia/branch_indesit/PlatformLibrary/LIB_SecurityCheck\LIB_TaskMonitoring.c ****   }
 282:C:/Workspace/FW_Inertia/branch_indesit/PlatformLibrary/LIB_SecurityCheck\LIB_TaskMonitoring.c ****   else {
 283:C:/Workspace/FW_Inertia/branch_indesit/PlatformLibrary/LIB_SecurityCheck\LIB_TaskMonitoring.c **** 	/* If called not active, raise an error condition */
 284:C:/Workspace/FW_Inertia/branch_indesit/PlatformLibrary/LIB_SecurityCheck\LIB_TaskMonitoring.c **** #ifdef CONFIG_PL_DEBUG
 285:C:/Workspace/FW_Inertia/branch_indesit/PlatformLibrary/LIB_SecurityCheck\LIB_TaskMonitoring.c **** 	DBG_LIB_TM_idFailedTask = taskID;
 286:C:/Workspace/FW_Inertia/branch_indesit/PlatformLibrary/LIB_SecurityCheck\LIB_TaskMonitoring.c **** #endif	
 287:C:/Workspace/FW_Inertia/branch_indesit/PlatformLibrary/LIB_SecurityCheck\LIB_TaskMonitoring.c ****         LIB_TaskMonitorErrorHandler(1);
 288:C:/Workspace/FW_Inertia/branch_indesit/PlatformLibrary/LIB_SecurityCheck\LIB_TaskMonitoring.c ****   }
 289:C:/Workspace/FW_Inertia/branch_indesit/PlatformLibrary/LIB_SecurityCheck\LIB_TaskMonitoring.c **** }
 290:C:/Workspace/FW_Inertia/branch_indesit/PlatformLibrary/LIB_SecurityCheck\LIB_TaskMonitoring.c **** 
 291:C:/Workspace/FW_Inertia/branch_indesit/PlatformLibrary/LIB_SecurityCheck\LIB_TaskMonitoring.c **** void LIB_TaskEndActivity(  uint8_t taskID )
 292:C:/Workspace/FW_Inertia/branch_indesit/PlatformLibrary/LIB_SecurityCheck\LIB_TaskMonitoring.c **** {
 293:C:/Workspace/FW_Inertia/branch_indesit/PlatformLibrary/LIB_SecurityCheck\LIB_TaskMonitoring.c **** 
 294:C:/Workspace/FW_Inertia/branch_indesit/PlatformLibrary/LIB_SecurityCheck\LIB_TaskMonitoring.c ****     /* Check if task is configured and activated */
 295:C:/Workspace/FW_Inertia/branch_indesit/PlatformLibrary/LIB_SecurityCheck\LIB_TaskMonitoring.c **** 	if ((CheckTasks[taskID].configDone) && (CheckTasks[taskID].taskEntered))
 296:C:/Workspace/FW_Inertia/branch_indesit/PlatformLibrary/LIB_SecurityCheck\LIB_TaskMonitoring.c **** 	{
 297:C:/Workspace/FW_Inertia/branch_indesit/PlatformLibrary/LIB_SecurityCheck\LIB_TaskMonitoring.c **** 		SAFETY_REGION_START();
 298:C:/Workspace/FW_Inertia/branch_indesit/PlatformLibrary/LIB_SecurityCheck\LIB_TaskMonitoring.c **** 		SAFETY_DATA_CHECK(CheckTasks);
 299:C:/Workspace/FW_Inertia/branch_indesit/PlatformLibrary/LIB_SecurityCheck\LIB_TaskMonitoring.c **** 		CheckTasks[taskID].taskEntered = 0;
 300:C:/Workspace/FW_Inertia/branch_indesit/PlatformLibrary/LIB_SecurityCheck\LIB_TaskMonitoring.c **** 
 301:C:/Workspace/FW_Inertia/branch_indesit/PlatformLibrary/LIB_SecurityCheck\LIB_TaskMonitoring.c **** #if defined (CONFIG_PL_DEBUG)
 302:C:/Workspace/FW_Inertia/branch_indesit/PlatformLibrary/LIB_SecurityCheck\LIB_TaskMonitoring.c **** 		if (CheckTasks[taskID].timeoutCounter > CheckTasks[taskID].maxCounter) {
 303:C:/Workspace/FW_Inertia/branch_indesit/PlatformLibrary/LIB_SecurityCheck\LIB_TaskMonitoring.c **** 				CheckTasks[taskID].maxCounter = CheckTasks[taskID].timeoutCounter;
 304:C:/Workspace/FW_Inertia/branch_indesit/PlatformLibrary/LIB_SecurityCheck\LIB_TaskMonitoring.c **** 		}
 305:C:/Workspace/FW_Inertia/branch_indesit/PlatformLibrary/LIB_SecurityCheck\LIB_TaskMonitoring.c **** #endif
 306:C:/Workspace/FW_Inertia/branch_indesit/PlatformLibrary/LIB_SecurityCheck\LIB_TaskMonitoring.c **** 
 307:C:/Workspace/FW_Inertia/branch_indesit/PlatformLibrary/LIB_SecurityCheck\LIB_TaskMonitoring.c **** 	/* Task activated before timeout */
 308:C:/Workspace/FW_Inertia/branch_indesit/PlatformLibrary/LIB_SecurityCheck\LIB_TaskMonitoring.c **** 	/* Reset timeout counter - everything was going fine! */
 309:C:/Workspace/FW_Inertia/branch_indesit/PlatformLibrary/LIB_SecurityCheck\LIB_TaskMonitoring.c ****       CheckTasks[taskID].timeoutCounter = 0;
 310:C:/Workspace/FW_Inertia/branch_indesit/PlatformLibrary/LIB_SecurityCheck\LIB_TaskMonitoring.c **** 
 311:C:/Workspace/FW_Inertia/branch_indesit/PlatformLibrary/LIB_SecurityCheck\LIB_TaskMonitoring.c ****       SAFETY_DATA_UPDATE(CheckTasks);
 312:C:/Workspace/FW_Inertia/branch_indesit/PlatformLibrary/LIB_SecurityCheck\LIB_TaskMonitoring.c ****       SAFETY_REGION_END();
 313:C:/Workspace/FW_Inertia/branch_indesit/PlatformLibrary/LIB_SecurityCheck\LIB_TaskMonitoring.c ****     }
 314:C:/Workspace/FW_Inertia/branch_indesit/PlatformLibrary/LIB_SecurityCheck\LIB_TaskMonitoring.c **** 	else
 315:C:/Workspace/FW_Inertia/branch_indesit/PlatformLibrary/LIB_SecurityCheck\LIB_TaskMonitoring.c **** 	{
 316:C:/Workspace/FW_Inertia/branch_indesit/PlatformLibrary/LIB_SecurityCheck\LIB_TaskMonitoring.c ****         /* If called not active or before LIB_TaskStartActivity, raise an error condition */
 317:C:/Workspace/FW_Inertia/branch_indesit/PlatformLibrary/LIB_SecurityCheck\LIB_TaskMonitoring.c **** #ifdef CONFIG_PL_DEBUG 		
 318:C:/Workspace/FW_Inertia/branch_indesit/PlatformLibrary/LIB_SecurityCheck\LIB_TaskMonitoring.c **** 	  DBG_LIB_TM_idFailedTask = taskID;
 319:C:/Workspace/FW_Inertia/branch_indesit/PlatformLibrary/LIB_SecurityCheck\LIB_TaskMonitoring.c **** #endif
 320:C:/Workspace/FW_Inertia/branch_indesit/PlatformLibrary/LIB_SecurityCheck\LIB_TaskMonitoring.c ****           LIB_TaskMonitorErrorHandler(2);
 321:C:/Workspace/FW_Inertia/branch_indesit/PlatformLibrary/LIB_SecurityCheck\LIB_TaskMonitoring.c **** 	}
 322:C:/Workspace/FW_Inertia/branch_indesit/PlatformLibrary/LIB_SecurityCheck\LIB_TaskMonitoring.c **** 
 323:C:/Workspace/FW_Inertia/branch_indesit/PlatformLibrary/LIB_SecurityCheck\LIB_TaskMonitoring.c **** }
 324:C:/Workspace/FW_Inertia/branch_indesit/PlatformLibrary/LIB_SecurityCheck\LIB_TaskMonitoring.c **** 
 325:C:/Workspace/FW_Inertia/branch_indesit/PlatformLibrary/LIB_SecurityCheck\LIB_TaskMonitoring.c **** 
 326:C:/Workspace/FW_Inertia/branch_indesit/PlatformLibrary/LIB_SecurityCheck\LIB_TaskMonitoring.c **** /**
 327:C:/Workspace/FW_Inertia/branch_indesit/PlatformLibrary/LIB_SecurityCheck\LIB_TaskMonitoring.c **** Sets the state of Task with ID taskID.
 328:C:/Workspace/FW_Inertia/branch_indesit/PlatformLibrary/LIB_SecurityCheck\LIB_TaskMonitoring.c **** 
 329:C:/Workspace/FW_Inertia/branch_indesit/PlatformLibrary/LIB_SecurityCheck\LIB_TaskMonitoring.c **** \param  	[in] taskID task's ID
 330:C:/Workspace/FW_Inertia/branch_indesit/PlatformLibrary/LIB_SecurityCheck\LIB_TaskMonitoring.c **** \param  	[in] state if TRUE Task is active otherwise suspended
 331:C:/Workspace/FW_Inertia/branch_indesit/PlatformLibrary/LIB_SecurityCheck\LIB_TaskMonitoring.c **** 
 332:C:/Workspace/FW_Inertia/branch_indesit/PlatformLibrary/LIB_SecurityCheck\LIB_TaskMonitoring.c **** 
 333:C:/Workspace/FW_Inertia/branch_indesit/PlatformLibrary/LIB_SecurityCheck\LIB_TaskMonitoring.c **** \author 	Stefano Ughi
 334:C:/Workspace/FW_Inertia/branch_indesit/PlatformLibrary/LIB_SecurityCheck\LIB_TaskMonitoring.c **** \date		Mar 28,2011
 335:C:/Workspace/FW_Inertia/branch_indesit/PlatformLibrary/LIB_SecurityCheck\LIB_TaskMonitoring.c **** \version	1.0.0
 336:C:/Workspace/FW_Inertia/branch_indesit/PlatformLibrary/LIB_SecurityCheck\LIB_TaskMonitoring.c **** 
 337:C:/Workspace/FW_Inertia/branch_indesit/PlatformLibrary/LIB_SecurityCheck\LIB_TaskMonitoring.c **** \note		\par \b Nota 1:
 338:C:/Workspace/FW_Inertia/branch_indesit/PlatformLibrary/LIB_SecurityCheck\LIB_TaskMonitoring.c **** 			documentation by Stefano Ughi
 339:C:/Workspace/FW_Inertia/branch_indesit/PlatformLibrary/LIB_SecurityCheck\LIB_TaskMonitoring.c **** */
 340:C:/Workspace/FW_Inertia/branch_indesit/PlatformLibrary/LIB_SecurityCheck\LIB_TaskMonitoring.c **** void LIB_SetTask( uint8_t taskID, bool_t state )
 341:C:/Workspace/FW_Inertia/branch_indesit/PlatformLibrary/LIB_SecurityCheck\LIB_TaskMonitoring.c **** {
 342:C:/Workspace/FW_Inertia/branch_indesit/PlatformLibrary/LIB_SecurityCheck\LIB_TaskMonitoring.c **** 
 343:C:/Workspace/FW_Inertia/branch_indesit/PlatformLibrary/LIB_SecurityCheck\LIB_TaskMonitoring.c ****   if (CheckTasks[taskID].configDone)
 344:C:/Workspace/FW_Inertia/branch_indesit/PlatformLibrary/LIB_SecurityCheck\LIB_TaskMonitoring.c ****   {
 345:C:/Workspace/FW_Inertia/branch_indesit/PlatformLibrary/LIB_SecurityCheck\LIB_TaskMonitoring.c **** 	  SAFETY_REGION_START();
 346:C:/Workspace/FW_Inertia/branch_indesit/PlatformLibrary/LIB_SecurityCheck\LIB_TaskMonitoring.c **** 	  SAFETY_DATA_CHECK(CheckTasks);
 347:C:/Workspace/FW_Inertia/branch_indesit/PlatformLibrary/LIB_SecurityCheck\LIB_TaskMonitoring.c **** 
 348:C:/Workspace/FW_Inertia/branch_indesit/PlatformLibrary/LIB_SecurityCheck\LIB_TaskMonitoring.c ****       CheckTasks[taskID].taskActive = (state == TRUE);
 349:C:/Workspace/FW_Inertia/branch_indesit/PlatformLibrary/LIB_SecurityCheck\LIB_TaskMonitoring.c **** 
 350:C:/Workspace/FW_Inertia/branch_indesit/PlatformLibrary/LIB_SecurityCheck\LIB_TaskMonitoring.c ****       SAFETY_DATA_UPDATE(CheckTasks);
 351:C:/Workspace/FW_Inertia/branch_indesit/PlatformLibrary/LIB_SecurityCheck\LIB_TaskMonitoring.c ****       SAFETY_REGION_END();
 352:C:/Workspace/FW_Inertia/branch_indesit/PlatformLibrary/LIB_SecurityCheck\LIB_TaskMonitoring.c ****   }
 353:C:/Workspace/FW_Inertia/branch_indesit/PlatformLibrary/LIB_SecurityCheck\LIB_TaskMonitoring.c **** 
 354:C:/Workspace/FW_Inertia/branch_indesit/PlatformLibrary/LIB_SecurityCheck\LIB_TaskMonitoring.c **** }
 355:C:/Workspace/FW_Inertia/branch_indesit/PlatformLibrary/LIB_SecurityCheck\LIB_TaskMonitoring.c **** 
 356:C:/Workspace/FW_Inertia/branch_indesit/PlatformLibrary/LIB_SecurityCheck\LIB_TaskMonitoring.c **** #if defined(CONFIG_LIB_CLASS_B_IRQ_CHECK)
 357:C:/Workspace/FW_Inertia/branch_indesit/PlatformLibrary/LIB_SecurityCheck\LIB_TaskMonitoring.c **** 
 358:C:/Workspace/FW_Inertia/branch_indesit/PlatformLibrary/LIB_SecurityCheck\LIB_TaskMonitoring.c **** /**
 359:C:/Workspace/FW_Inertia/branch_indesit/PlatformLibrary/LIB_SecurityCheck\LIB_TaskMonitoring.c **** Function called to mark entering an Interrupt routine.
 360:C:/Workspace/FW_Inertia/branch_indesit/PlatformLibrary/LIB_SecurityCheck\LIB_TaskMonitoring.c **** This function checks if EnterCnt go higher than threshold value set
 361:C:/Workspace/FW_Inertia/branch_indesit/PlatformLibrary/LIB_SecurityCheck\LIB_TaskMonitoring.c **** (CONFIG_LIB_CLASS_B_IRQ_CHECK_MAXVALUE): in case of interrupt overload it
 362:C:/Workspace/FW_Inertia/branch_indesit/PlatformLibrary/LIB_SecurityCheck\LIB_TaskMonitoring.c **** may become impossible to check it in periodic monitor.
 363:C:/Workspace/FW_Inertia/branch_indesit/PlatformLibrary/LIB_SecurityCheck\LIB_TaskMonitoring.c **** 
 364:C:/Workspace/FW_Inertia/branch_indesit/PlatformLibrary/LIB_SecurityCheck\LIB_TaskMonitoring.c **** \param  	none
 365:C:/Workspace/FW_Inertia/branch_indesit/PlatformLibrary/LIB_SecurityCheck\LIB_TaskMonitoring.c **** 
 366:C:/Workspace/FW_Inertia/branch_indesit/PlatformLibrary/LIB_SecurityCheck\LIB_TaskMonitoring.c **** \return 	none
 367:C:/Workspace/FW_Inertia/branch_indesit/PlatformLibrary/LIB_SecurityCheck\LIB_TaskMonitoring.c **** 
 368:C:/Workspace/FW_Inertia/branch_indesit/PlatformLibrary/LIB_SecurityCheck\LIB_TaskMonitoring.c **** \author 	Alessandro Sabbatini
 369:C:/Workspace/FW_Inertia/branch_indesit/PlatformLibrary/LIB_SecurityCheck\LIB_TaskMonitoring.c **** \date		17/07/2013
 370:C:/Workspace/FW_Inertia/branch_indesit/PlatformLibrary/LIB_SecurityCheck\LIB_TaskMonitoring.c **** \version	1.0.0
 371:C:/Workspace/FW_Inertia/branch_indesit/PlatformLibrary/LIB_SecurityCheck\LIB_TaskMonitoring.c **** 
 372:C:/Workspace/FW_Inertia/branch_indesit/PlatformLibrary/LIB_SecurityCheck\LIB_TaskMonitoring.c **** \note		\par \b Nota 1:
 373:C:/Workspace/FW_Inertia/branch_indesit/PlatformLibrary/LIB_SecurityCheck\LIB_TaskMonitoring.c **** 			documentation by Alessandro Sabbatini
 374:C:/Workspace/FW_Inertia/branch_indesit/PlatformLibrary/LIB_SecurityCheck\LIB_TaskMonitoring.c **** */
 375:C:/Workspace/FW_Inertia/branch_indesit/PlatformLibrary/LIB_SecurityCheck\LIB_TaskMonitoring.c **** 
 376:C:/Workspace/FW_Inertia/branch_indesit/PlatformLibrary/LIB_SecurityCheck\LIB_TaskMonitoring.c **** void LIB_IRQMonitor_Enter(void)
 377:C:/Workspace/FW_Inertia/branch_indesit/PlatformLibrary/LIB_SecurityCheck\LIB_TaskMonitoring.c **** {
 378:C:/Workspace/FW_Inertia/branch_indesit/PlatformLibrary/LIB_SecurityCheck\LIB_TaskMonitoring.c **** 	SAFETY_DATA_CHECK(IRQMonitorStatus);
 379:C:/Workspace/FW_Inertia/branch_indesit/PlatformLibrary/LIB_SecurityCheck\LIB_TaskMonitoring.c **** 
 380:C:/Workspace/FW_Inertia/branch_indesit/PlatformLibrary/LIB_SecurityCheck\LIB_TaskMonitoring.c **** #if !defined(CONFIG_LIB_CLASS_B_IRQ_CHECK_DEBUG)
 381:C:/Workspace/FW_Inertia/branch_indesit/PlatformLibrary/LIB_SecurityCheck\LIB_TaskMonitoring.c **** 
 382:C:/Workspace/FW_Inertia/branch_indesit/PlatformLibrary/LIB_SecurityCheck\LIB_TaskMonitoring.c **** 	/* Check if EnterCnt is lower than minimum threshold - some of expected interrupts was broken */
 383:C:/Workspace/FW_Inertia/branch_indesit/PlatformLibrary/LIB_SecurityCheck\LIB_TaskMonitoring.c **** 	PLT_ERROR_FATAL_IF(IRQMonitorStatus.EnterCntr > CONFIG_LIB_CLASS_B_IRQ_CHECK_MAXVALUE, PLT_ERROR_I
 384:C:/Workspace/FW_Inertia/branch_indesit/PlatformLibrary/LIB_SecurityCheck\LIB_TaskMonitoring.c **** 
 385:C:/Workspace/FW_Inertia/branch_indesit/PlatformLibrary/LIB_SecurityCheck\LIB_TaskMonitoring.c **** #endif
 386:C:/Workspace/FW_Inertia/branch_indesit/PlatformLibrary/LIB_SecurityCheck\LIB_TaskMonitoring.c **** 
 387:C:/Workspace/FW_Inertia/branch_indesit/PlatformLibrary/LIB_SecurityCheck\LIB_TaskMonitoring.c **** 	IRQMonitorStatus.EnterCntr++;
 388:C:/Workspace/FW_Inertia/branch_indesit/PlatformLibrary/LIB_SecurityCheck\LIB_TaskMonitoring.c **** 	SAFETY_DATA_UPDATE(IRQMonitorStatus);
 389:C:/Workspace/FW_Inertia/branch_indesit/PlatformLibrary/LIB_SecurityCheck\LIB_TaskMonitoring.c **** }
 390:C:/Workspace/FW_Inertia/branch_indesit/PlatformLibrary/LIB_SecurityCheck\LIB_TaskMonitoring.c **** 
 391:C:/Workspace/FW_Inertia/branch_indesit/PlatformLibrary/LIB_SecurityCheck\LIB_TaskMonitoring.c **** /**
 392:C:/Workspace/FW_Inertia/branch_indesit/PlatformLibrary/LIB_SecurityCheck\LIB_TaskMonitoring.c **** Function called to mark leaving an Interrupt routine
 393:C:/Workspace/FW_Inertia/branch_indesit/PlatformLibrary/LIB_SecurityCheck\LIB_TaskMonitoring.c **** 
 394:C:/Workspace/FW_Inertia/branch_indesit/PlatformLibrary/LIB_SecurityCheck\LIB_TaskMonitoring.c **** \param  	none
 395:C:/Workspace/FW_Inertia/branch_indesit/PlatformLibrary/LIB_SecurityCheck\LIB_TaskMonitoring.c **** 
 396:C:/Workspace/FW_Inertia/branch_indesit/PlatformLibrary/LIB_SecurityCheck\LIB_TaskMonitoring.c **** \return 	none
 397:C:/Workspace/FW_Inertia/branch_indesit/PlatformLibrary/LIB_SecurityCheck\LIB_TaskMonitoring.c **** 
 398:C:/Workspace/FW_Inertia/branch_indesit/PlatformLibrary/LIB_SecurityCheck\LIB_TaskMonitoring.c **** \author 	Alessandro Sabbatini
 399:C:/Workspace/FW_Inertia/branch_indesit/PlatformLibrary/LIB_SecurityCheck\LIB_TaskMonitoring.c **** \date		17/07/2013
 400:C:/Workspace/FW_Inertia/branch_indesit/PlatformLibrary/LIB_SecurityCheck\LIB_TaskMonitoring.c **** \version	1.0.0
 401:C:/Workspace/FW_Inertia/branch_indesit/PlatformLibrary/LIB_SecurityCheck\LIB_TaskMonitoring.c **** 
 402:C:/Workspace/FW_Inertia/branch_indesit/PlatformLibrary/LIB_SecurityCheck\LIB_TaskMonitoring.c **** \note		\par \b Nota 1:
 403:C:/Workspace/FW_Inertia/branch_indesit/PlatformLibrary/LIB_SecurityCheck\LIB_TaskMonitoring.c **** 			documentation by Alessandro Sabbatini
 404:C:/Workspace/FW_Inertia/branch_indesit/PlatformLibrary/LIB_SecurityCheck\LIB_TaskMonitoring.c **** */
 405:C:/Workspace/FW_Inertia/branch_indesit/PlatformLibrary/LIB_SecurityCheck\LIB_TaskMonitoring.c **** void LIB_IRQMonitor_Exit(void)
 406:C:/Workspace/FW_Inertia/branch_indesit/PlatformLibrary/LIB_SecurityCheck\LIB_TaskMonitoring.c **** {
 407:C:/Workspace/FW_Inertia/branch_indesit/PlatformLibrary/LIB_SecurityCheck\LIB_TaskMonitoring.c **** 	SAFETY_DATA_CHECK(IRQMonitorStatus);
 408:C:/Workspace/FW_Inertia/branch_indesit/PlatformLibrary/LIB_SecurityCheck\LIB_TaskMonitoring.c **** 	IRQMonitorStatus.ExitCntr++;
 409:C:/Workspace/FW_Inertia/branch_indesit/PlatformLibrary/LIB_SecurityCheck\LIB_TaskMonitoring.c **** 	SAFETY_DATA_UPDATE(IRQMonitorStatus);
 410:C:/Workspace/FW_Inertia/branch_indesit/PlatformLibrary/LIB_SecurityCheck\LIB_TaskMonitoring.c **** 
 411:C:/Workspace/FW_Inertia/branch_indesit/PlatformLibrary/LIB_SecurityCheck\LIB_TaskMonitoring.c **** }
 412:C:/Workspace/FW_Inertia/branch_indesit/PlatformLibrary/LIB_SecurityCheck\LIB_TaskMonitoring.c **** 
 413:C:/Workspace/FW_Inertia/branch_indesit/PlatformLibrary/LIB_SecurityCheck\LIB_TaskMonitoring.c **** /**
 414:C:/Workspace/FW_Inertia/branch_indesit/PlatformLibrary/LIB_SecurityCheck\LIB_TaskMonitoring.c **** IRQ Monitoring initialization routine - it should be called on Supervisor initialization.
 415:C:/Workspace/FW_Inertia/branch_indesit/PlatformLibrary/LIB_SecurityCheck\LIB_TaskMonitoring.c **** This function initializes Enter and Exit counter to minimum value acceptable
 416:C:/Workspace/FW_Inertia/branch_indesit/PlatformLibrary/LIB_SecurityCheck\LIB_TaskMonitoring.c **** (CONFIG_LIB_CLASS_B_IRQ_CHECK_MINVALUE) because first time monitor is called
 417:C:/Workspace/FW_Inertia/branch_indesit/PlatformLibrary/LIB_SecurityCheck\LIB_TaskMonitoring.c **** no interrupts could be raised so monitor may fail.
 418:C:/Workspace/FW_Inertia/branch_indesit/PlatformLibrary/LIB_SecurityCheck\LIB_TaskMonitoring.c **** 
 419:C:/Workspace/FW_Inertia/branch_indesit/PlatformLibrary/LIB_SecurityCheck\LIB_TaskMonitoring.c **** \param  	none
 420:C:/Workspace/FW_Inertia/branch_indesit/PlatformLibrary/LIB_SecurityCheck\LIB_TaskMonitoring.c **** 
 421:C:/Workspace/FW_Inertia/branch_indesit/PlatformLibrary/LIB_SecurityCheck\LIB_TaskMonitoring.c **** \return 	none
 422:C:/Workspace/FW_Inertia/branch_indesit/PlatformLibrary/LIB_SecurityCheck\LIB_TaskMonitoring.c **** 
 423:C:/Workspace/FW_Inertia/branch_indesit/PlatformLibrary/LIB_SecurityCheck\LIB_TaskMonitoring.c **** \author 	Alessandro Sabbatini
 424:C:/Workspace/FW_Inertia/branch_indesit/PlatformLibrary/LIB_SecurityCheck\LIB_TaskMonitoring.c **** \date		17/07/2013
 425:C:/Workspace/FW_Inertia/branch_indesit/PlatformLibrary/LIB_SecurityCheck\LIB_TaskMonitoring.c **** \version	1.0.0
 426:C:/Workspace/FW_Inertia/branch_indesit/PlatformLibrary/LIB_SecurityCheck\LIB_TaskMonitoring.c **** 
 427:C:/Workspace/FW_Inertia/branch_indesit/PlatformLibrary/LIB_SecurityCheck\LIB_TaskMonitoring.c **** \note		\par \b Nota 1:
 428:C:/Workspace/FW_Inertia/branch_indesit/PlatformLibrary/LIB_SecurityCheck\LIB_TaskMonitoring.c **** 			documentation by Alessandro Sabbatini
 429:C:/Workspace/FW_Inertia/branch_indesit/PlatformLibrary/LIB_SecurityCheck\LIB_TaskMonitoring.c **** */
 430:C:/Workspace/FW_Inertia/branch_indesit/PlatformLibrary/LIB_SecurityCheck\LIB_TaskMonitoring.c **** 
 431:C:/Workspace/FW_Inertia/branch_indesit/PlatformLibrary/LIB_SecurityCheck\LIB_TaskMonitoring.c **** void LIB_IRQMonitor_Init(void)
 432:C:/Workspace/FW_Inertia/branch_indesit/PlatformLibrary/LIB_SecurityCheck\LIB_TaskMonitoring.c **** {
 433:C:/Workspace/FW_Inertia/branch_indesit/PlatformLibrary/LIB_SecurityCheck\LIB_TaskMonitoring.c **** 	SAFETY_REGION_START();
 434:C:/Workspace/FW_Inertia/branch_indesit/PlatformLibrary/LIB_SecurityCheck\LIB_TaskMonitoring.c **** 	IRQMonitorStatus.EnterCntr = CONFIG_LIB_CLASS_B_IRQ_CHECK_MINVALUE;
 435:C:/Workspace/FW_Inertia/branch_indesit/PlatformLibrary/LIB_SecurityCheck\LIB_TaskMonitoring.c **** 	IRQMonitorStatus.ExitCntr = CONFIG_LIB_CLASS_B_IRQ_CHECK_MINVALUE;
 436:C:/Workspace/FW_Inertia/branch_indesit/PlatformLibrary/LIB_SecurityCheck\LIB_TaskMonitoring.c **** 	IRQMonitorStatus.fltCntr = 0;
 437:C:/Workspace/FW_Inertia/branch_indesit/PlatformLibrary/LIB_SecurityCheck\LIB_TaskMonitoring.c **** 	IRQMonitorStatus.maxIntrCntr = 0;
 438:C:/Workspace/FW_Inertia/branch_indesit/PlatformLibrary/LIB_SecurityCheck\LIB_TaskMonitoring.c **** 	SAFETY_DATA_UPDATE(IRQMonitorStatus);
 439:C:/Workspace/FW_Inertia/branch_indesit/PlatformLibrary/LIB_SecurityCheck\LIB_TaskMonitoring.c **** 	SAFETY_REGION_END();
 440:C:/Workspace/FW_Inertia/branch_indesit/PlatformLibrary/LIB_SecurityCheck\LIB_TaskMonitoring.c **** }
 441:C:/Workspace/FW_Inertia/branch_indesit/PlatformLibrary/LIB_SecurityCheck\LIB_TaskMonitoring.c **** 
 442:C:/Workspace/FW_Inertia/branch_indesit/PlatformLibrary/LIB_SecurityCheck\LIB_TaskMonitoring.c **** /**
 443:C:/Workspace/FW_Inertia/branch_indesit/PlatformLibrary/LIB_SecurityCheck\LIB_TaskMonitoring.c **** IRQ Monitoring function - it should be called periodically on Supervisor
 444:C:/Workspace/FW_Inertia/branch_indesit/PlatformLibrary/LIB_SecurityCheck\LIB_TaskMonitoring.c **** This function checks if EnterCnt and ExitCnt are equal - all interrupt
 445:C:/Workspace/FW_Inertia/branch_indesit/PlatformLibrary/LIB_SecurityCheck\LIB_TaskMonitoring.c **** entered an left properly - and EnterCnt is higher (or at least equal)
 446:C:/Workspace/FW_Inertia/branch_indesit/PlatformLibrary/LIB_SecurityCheck\LIB_TaskMonitoring.c **** than minimum threshold set (CONFIG_LIB_CLASS_B_IRQ_CHECK_MINVALUE).
 447:C:/Workspace/FW_Inertia/branch_indesit/PlatformLibrary/LIB_SecurityCheck\LIB_TaskMonitoring.c **** 
 448:C:/Workspace/FW_Inertia/branch_indesit/PlatformLibrary/LIB_SecurityCheck\LIB_TaskMonitoring.c **** After that, EnterCnt and ExitCnt will be reset to restar monitor in next window
 449:C:/Workspace/FW_Inertia/branch_indesit/PlatformLibrary/LIB_SecurityCheck\LIB_TaskMonitoring.c **** time.
 450:C:/Workspace/FW_Inertia/branch_indesit/PlatformLibrary/LIB_SecurityCheck\LIB_TaskMonitoring.c **** 
 451:C:/Workspace/FW_Inertia/branch_indesit/PlatformLibrary/LIB_SecurityCheck\LIB_TaskMonitoring.c **** \param  	none
 452:C:/Workspace/FW_Inertia/branch_indesit/PlatformLibrary/LIB_SecurityCheck\LIB_TaskMonitoring.c **** 
 453:C:/Workspace/FW_Inertia/branch_indesit/PlatformLibrary/LIB_SecurityCheck\LIB_TaskMonitoring.c **** \return 	none
 454:C:/Workspace/FW_Inertia/branch_indesit/PlatformLibrary/LIB_SecurityCheck\LIB_TaskMonitoring.c **** 
 455:C:/Workspace/FW_Inertia/branch_indesit/PlatformLibrary/LIB_SecurityCheck\LIB_TaskMonitoring.c **** \author 	Alessandro Sabbatini
 456:C:/Workspace/FW_Inertia/branch_indesit/PlatformLibrary/LIB_SecurityCheck\LIB_TaskMonitoring.c **** \date		17/07/2013
 457:C:/Workspace/FW_Inertia/branch_indesit/PlatformLibrary/LIB_SecurityCheck\LIB_TaskMonitoring.c **** \version	1.0.0
 458:C:/Workspace/FW_Inertia/branch_indesit/PlatformLibrary/LIB_SecurityCheck\LIB_TaskMonitoring.c **** 
 459:C:/Workspace/FW_Inertia/branch_indesit/PlatformLibrary/LIB_SecurityCheck\LIB_TaskMonitoring.c **** \note		\par \b Nota 1:
 460:C:/Workspace/FW_Inertia/branch_indesit/PlatformLibrary/LIB_SecurityCheck\LIB_TaskMonitoring.c **** 			documentation by Alessandro Sabbatini
 461:C:/Workspace/FW_Inertia/branch_indesit/PlatformLibrary/LIB_SecurityCheck\LIB_TaskMonitoring.c **** */
 462:C:/Workspace/FW_Inertia/branch_indesit/PlatformLibrary/LIB_SecurityCheck\LIB_TaskMonitoring.c **** 
 463:C:/Workspace/FW_Inertia/branch_indesit/PlatformLibrary/LIB_SecurityCheck\LIB_TaskMonitoring.c **** void LIB_IRQMonitor(void)
 464:C:/Workspace/FW_Inertia/branch_indesit/PlatformLibrary/LIB_SecurityCheck\LIB_TaskMonitoring.c **** {
 465:C:/Workspace/FW_Inertia/branch_indesit/PlatformLibrary/LIB_SecurityCheck\LIB_TaskMonitoring.c **** 	EnterCriticalSection();
 466:C:/Workspace/FW_Inertia/branch_indesit/PlatformLibrary/LIB_SecurityCheck\LIB_TaskMonitoring.c **** 	SAFETY_DATA_CHECK(IRQMonitorStatus);
 467:C:/Workspace/FW_Inertia/branch_indesit/PlatformLibrary/LIB_SecurityCheck\LIB_TaskMonitoring.c **** 
 468:C:/Workspace/FW_Inertia/branch_indesit/PlatformLibrary/LIB_SecurityCheck\LIB_TaskMonitoring.c **** #if defined(CONFIG_LIB_CLASS_B_IRQ_CHECK_DEBUG)
 469:C:/Workspace/FW_Inertia/branch_indesit/PlatformLibrary/LIB_SecurityCheck\LIB_TaskMonitoring.c **** 
 470:C:/Workspace/FW_Inertia/branch_indesit/PlatformLibrary/LIB_SecurityCheck\LIB_TaskMonitoring.c **** 	if (IRQMonitorStatus.EnterCntr != IRQMonitorStatus.ExitCntr)
 471:C:/Workspace/FW_Inertia/branch_indesit/PlatformLibrary/LIB_SecurityCheck\LIB_TaskMonitoring.c **** 	{
 472:C:/Workspace/FW_Inertia/branch_indesit/PlatformLibrary/LIB_SecurityCheck\LIB_TaskMonitoring.c **** 		LIB_IRQMonitorMismatch++;
 473:C:/Workspace/FW_Inertia/branch_indesit/PlatformLibrary/LIB_SecurityCheck\LIB_TaskMonitoring.c **** 		LIB_IRQMonitorTimestamp = OS_GetTime();
 474:C:/Workspace/FW_Inertia/branch_indesit/PlatformLibrary/LIB_SecurityCheck\LIB_TaskMonitoring.c **** 	}
 475:C:/Workspace/FW_Inertia/branch_indesit/PlatformLibrary/LIB_SecurityCheck\LIB_TaskMonitoring.c **** 
 476:C:/Workspace/FW_Inertia/branch_indesit/PlatformLibrary/LIB_SecurityCheck\LIB_TaskMonitoring.c **** 	if (IRQMonitorStatus.EnterCntr == 0)
 477:C:/Workspace/FW_Inertia/branch_indesit/PlatformLibrary/LIB_SecurityCheck\LIB_TaskMonitoring.c **** 	{
 478:C:/Workspace/FW_Inertia/branch_indesit/PlatformLibrary/LIB_SecurityCheck\LIB_TaskMonitoring.c **** 		LIB_IRQMonitorZero++;
 479:C:/Workspace/FW_Inertia/branch_indesit/PlatformLibrary/LIB_SecurityCheck\LIB_TaskMonitoring.c **** 		LIB_IRQMonitorTimestamp = OS_GetTime();
 480:C:/Workspace/FW_Inertia/branch_indesit/PlatformLibrary/LIB_SecurityCheck\LIB_TaskMonitoring.c **** 	}
 481:C:/Workspace/FW_Inertia/branch_indesit/PlatformLibrary/LIB_SecurityCheck\LIB_TaskMonitoring.c **** 	else if ((IRQMonitorStatus.EnterCntr < LIB_IRQMonitorMin) || (LIB_IRQMonitorMin == 0))
 482:C:/Workspace/FW_Inertia/branch_indesit/PlatformLibrary/LIB_SecurityCheck\LIB_TaskMonitoring.c **** 	{
 483:C:/Workspace/FW_Inertia/branch_indesit/PlatformLibrary/LIB_SecurityCheck\LIB_TaskMonitoring.c **** 		LIB_IRQMonitorMin = IRQMonitorStatus.EnterCntr;
 484:C:/Workspace/FW_Inertia/branch_indesit/PlatformLibrary/LIB_SecurityCheck\LIB_TaskMonitoring.c **** 	}
 485:C:/Workspace/FW_Inertia/branch_indesit/PlatformLibrary/LIB_SecurityCheck\LIB_TaskMonitoring.c **** 
 486:C:/Workspace/FW_Inertia/branch_indesit/PlatformLibrary/LIB_SecurityCheck\LIB_TaskMonitoring.c **** #else
 487:C:/Workspace/FW_Inertia/branch_indesit/PlatformLibrary/LIB_SecurityCheck\LIB_TaskMonitoring.c **** 
 488:C:/Workspace/FW_Inertia/branch_indesit/PlatformLibrary/LIB_SecurityCheck\LIB_TaskMonitoring.c **** 	/* Check if EnterCnt equals ExitCnt - all interrupts entered and exited properly, no flow mistakes
 489:C:/Workspace/FW_Inertia/branch_indesit/PlatformLibrary/LIB_SecurityCheck\LIB_TaskMonitoring.c **** 	PLT_ERROR_FATAL_IF(IRQMonitorStatus.EnterCntr != IRQMonitorStatus.ExitCntr, PLT_ERROR_IRQMON_EXEC_
 490:C:/Workspace/FW_Inertia/branch_indesit/PlatformLibrary/LIB_SecurityCheck\LIB_TaskMonitoring.c **** 
 491:C:/Workspace/FW_Inertia/branch_indesit/PlatformLibrary/LIB_SecurityCheck\LIB_TaskMonitoring.c **** #if defined(CONFIG_LIB_CLASS_B_IRQ_CHECK_MINVALUE) && (CONFIG_LIB_CLASS_B_IRQ_CHECK_MINVALUE > 0)
 492:C:/Workspace/FW_Inertia/branch_indesit/PlatformLibrary/LIB_SecurityCheck\LIB_TaskMonitoring.c **** 	/* Check if EnterCnt is lower than minimum threshold - if so, some of expected interrupts were bro
 493:C:/Workspace/FW_Inertia/branch_indesit/PlatformLibrary/LIB_SecurityCheck\LIB_TaskMonitoring.c **** 	 * increment filter counter to go toward failure state                                            
 494:C:/Workspace/FW_Inertia/branch_indesit/PlatformLibrary/LIB_SecurityCheck\LIB_TaskMonitoring.c **** 	if (IRQMonitorStatus.EnterCntr < CONFIG_LIB_CLASS_B_IRQ_CHECK_MINVALUE)
 495:C:/Workspace/FW_Inertia/branch_indesit/PlatformLibrary/LIB_SecurityCheck\LIB_TaskMonitoring.c **** 	{
 496:C:/Workspace/FW_Inertia/branch_indesit/PlatformLibrary/LIB_SecurityCheck\LIB_TaskMonitoring.c **** 		IRQMonitorStatus.fltCntr += CONFIG_LIB_CLASS_B_IRQ_FLTR_INCR;
 497:C:/Workspace/FW_Inertia/branch_indesit/PlatformLibrary/LIB_SecurityCheck\LIB_TaskMonitoring.c **** 	}
 498:C:/Workspace/FW_Inertia/branch_indesit/PlatformLibrary/LIB_SecurityCheck\LIB_TaskMonitoring.c **** 	else if (IRQMonitorStatus.fltCntr > 0)
 499:C:/Workspace/FW_Inertia/branch_indesit/PlatformLibrary/LIB_SecurityCheck\LIB_TaskMonitoring.c **** 	{
 500:C:/Workspace/FW_Inertia/branch_indesit/PlatformLibrary/LIB_SecurityCheck\LIB_TaskMonitoring.c **** 		IRQMonitorStatus.fltCntr--;
 501:C:/Workspace/FW_Inertia/branch_indesit/PlatformLibrary/LIB_SecurityCheck\LIB_TaskMonitoring.c **** 	}
 502:C:/Workspace/FW_Inertia/branch_indesit/PlatformLibrary/LIB_SecurityCheck\LIB_TaskMonitoring.c **** 	else
 503:C:/Workspace/FW_Inertia/branch_indesit/PlatformLibrary/LIB_SecurityCheck\LIB_TaskMonitoring.c **** 	{
 504:C:/Workspace/FW_Inertia/branch_indesit/PlatformLibrary/LIB_SecurityCheck\LIB_TaskMonitoring.c **** 		/* Nothing else to do */
 505:C:/Workspace/FW_Inertia/branch_indesit/PlatformLibrary/LIB_SecurityCheck\LIB_TaskMonitoring.c **** 	}
 506:C:/Workspace/FW_Inertia/branch_indesit/PlatformLibrary/LIB_SecurityCheck\LIB_TaskMonitoring.c **** 
 507:C:/Workspace/FW_Inertia/branch_indesit/PlatformLibrary/LIB_SecurityCheck\LIB_TaskMonitoring.c **** 	/* If maximum value raised...  give PLT Error! */
 508:C:/Workspace/FW_Inertia/branch_indesit/PlatformLibrary/LIB_SecurityCheck\LIB_TaskMonitoring.c **** 	PLT_ERROR_FATAL_IF(IRQMonitorStatus.fltCntr > CONFIG_LIB_CLASS_B_IRQ_FLTR_MAXTH, PLT_ERROR_IRQMON_
 509:C:/Workspace/FW_Inertia/branch_indesit/PlatformLibrary/LIB_SecurityCheck\LIB_TaskMonitoring.c **** #endif
 510:C:/Workspace/FW_Inertia/branch_indesit/PlatformLibrary/LIB_SecurityCheck\LIB_TaskMonitoring.c **** 
 511:C:/Workspace/FW_Inertia/branch_indesit/PlatformLibrary/LIB_SecurityCheck\LIB_TaskMonitoring.c **** #endif
 512:C:/Workspace/FW_Inertia/branch_indesit/PlatformLibrary/LIB_SecurityCheck\LIB_TaskMonitoring.c **** 
 513:C:/Workspace/FW_Inertia/branch_indesit/PlatformLibrary/LIB_SecurityCheck\LIB_TaskMonitoring.c **** 	if (IRQMonitorStatus.EnterCntr > IRQMonitorStatus.maxIntrCntr)
 514:C:/Workspace/FW_Inertia/branch_indesit/PlatformLibrary/LIB_SecurityCheck\LIB_TaskMonitoring.c **** 	{
 515:C:/Workspace/FW_Inertia/branch_indesit/PlatformLibrary/LIB_SecurityCheck\LIB_TaskMonitoring.c **** 		IRQMonitorStatus.maxIntrCntr = IRQMonitorStatus.EnterCntr;
 516:C:/Workspace/FW_Inertia/branch_indesit/PlatformLibrary/LIB_SecurityCheck\LIB_TaskMonitoring.c **** 	}
 517:C:/Workspace/FW_Inertia/branch_indesit/PlatformLibrary/LIB_SecurityCheck\LIB_TaskMonitoring.c **** 
 518:C:/Workspace/FW_Inertia/branch_indesit/PlatformLibrary/LIB_SecurityCheck\LIB_TaskMonitoring.c **** 	/* Reset counters to check a new monitor window */
 519:C:/Workspace/FW_Inertia/branch_indesit/PlatformLibrary/LIB_SecurityCheck\LIB_TaskMonitoring.c **** 	IRQMonitorStatus.EnterCntr = 0;
 520:C:/Workspace/FW_Inertia/branch_indesit/PlatformLibrary/LIB_SecurityCheck\LIB_TaskMonitoring.c **** 	IRQMonitorStatus.ExitCntr = 0;
 521:C:/Workspace/FW_Inertia/branch_indesit/PlatformLibrary/LIB_SecurityCheck\LIB_TaskMonitoring.c **** 
 522:C:/Workspace/FW_Inertia/branch_indesit/PlatformLibrary/LIB_SecurityCheck\LIB_TaskMonitoring.c **** 	SAFETY_DATA_UPDATE(IRQMonitorStatus);
 523:C:/Workspace/FW_Inertia/branch_indesit/PlatformLibrary/LIB_SecurityCheck\LIB_TaskMonitoring.c **** 	ExitCriticalSection();
 524:C:/Workspace/FW_Inertia/branch_indesit/PlatformLibrary/LIB_SecurityCheck\LIB_TaskMonitoring.c **** 
 525:C:/Workspace/FW_Inertia/branch_indesit/PlatformLibrary/LIB_SecurityCheck\LIB_TaskMonitoring.c **** }
 526:C:/Workspace/FW_Inertia/branch_indesit/PlatformLibrary/LIB_SecurityCheck\LIB_TaskMonitoring.c **** 
 527:C:/Workspace/FW_Inertia/branch_indesit/PlatformLibrary/LIB_SecurityCheck\LIB_TaskMonitoring.c **** #endif
 528:C:/Workspace/FW_Inertia/branch_indesit/PlatformLibrary/LIB_SecurityCheck\LIB_TaskMonitoring.c **** 
 529:C:/Workspace/FW_Inertia/branch_indesit/PlatformLibrary/LIB_SecurityCheck\LIB_TaskMonitoring.c **** /* ************** */
 530:C:/Workspace/FW_Inertia/branch_indesit/PlatformLibrary/LIB_SecurityCheck\LIB_TaskMonitoring.c **** /* Local Function */
 531:C:/Workspace/FW_Inertia/branch_indesit/PlatformLibrary/LIB_SecurityCheck\LIB_TaskMonitoring.c **** /* ************** */
 532:C:/Workspace/FW_Inertia/branch_indesit/PlatformLibrary/LIB_SecurityCheck\LIB_TaskMonitoring.c **** 
 533:C:/Workspace/FW_Inertia/branch_indesit/PlatformLibrary/LIB_SecurityCheck\LIB_TaskMonitoring.c **** /**
 534:C:/Workspace/FW_Inertia/branch_indesit/PlatformLibrary/LIB_SecurityCheck\LIB_TaskMonitoring.c **** Task monitor error handler
 535:C:/Workspace/FW_Inertia/branch_indesit/PlatformLibrary/LIB_SecurityCheck\LIB_TaskMonitoring.c **** 
 536:C:/Workspace/FW_Inertia/branch_indesit/PlatformLibrary/LIB_SecurityCheck\LIB_TaskMonitoring.c **** \param  	[in], err	Error identificator raised
 537:C:/Workspace/FW_Inertia/branch_indesit/PlatformLibrary/LIB_SecurityCheck\LIB_TaskMonitoring.c **** 
 538:C:/Workspace/FW_Inertia/branch_indesit/PlatformLibrary/LIB_SecurityCheck\LIB_TaskMonitoring.c **** \return 	none
 539:C:/Workspace/FW_Inertia/branch_indesit/PlatformLibrary/LIB_SecurityCheck\LIB_TaskMonitoring.c **** 
 540:C:/Workspace/FW_Inertia/branch_indesit/PlatformLibrary/LIB_SecurityCheck\LIB_TaskMonitoring.c **** \author 	Stefano Ughi
 541:C:/Workspace/FW_Inertia/branch_indesit/PlatformLibrary/LIB_SecurityCheck\LIB_TaskMonitoring.c **** \date		Mar 28,2011
 542:C:/Workspace/FW_Inertia/branch_indesit/PlatformLibrary/LIB_SecurityCheck\LIB_TaskMonitoring.c **** \version	1.0.2
 543:C:/Workspace/FW_Inertia/branch_indesit/PlatformLibrary/LIB_SecurityCheck\LIB_TaskMonitoring.c **** 
 544:C:/Workspace/FW_Inertia/branch_indesit/PlatformLibrary/LIB_SecurityCheck\LIB_TaskMonitoring.c **** \note       \par \b Nota 1:
 545:C:/Workspace/FW_Inertia/branch_indesit/PlatformLibrary/LIB_SecurityCheck\LIB_TaskMonitoring.c **** 			documentation by Stefano Ughi
 546:C:/Workspace/FW_Inertia/branch_indesit/PlatformLibrary/LIB_SecurityCheck\LIB_TaskMonitoring.c **** 
 547:C:/Workspace/FW_Inertia/branch_indesit/PlatformLibrary/LIB_SecurityCheck\LIB_TaskMonitoring.c **** */
 548:C:/Workspace/FW_Inertia/branch_indesit/PlatformLibrary/LIB_SecurityCheck\LIB_TaskMonitoring.c **** static void LIB_TaskMonitorErrorHandler( uint8_t err )
 549:C:/Workspace/FW_Inertia/branch_indesit/PlatformLibrary/LIB_SecurityCheck\LIB_TaskMonitoring.c **** {
 550:C:/Workspace/FW_Inertia/branch_indesit/PlatformLibrary/LIB_SecurityCheck\LIB_TaskMonitoring.c **** 	SAFETY_REGION_START();
 551:C:/Workspace/FW_Inertia/branch_indesit/PlatformLibrary/LIB_SecurityCheck\LIB_TaskMonitoring.c **** 	SAFETY_DATA_CHECK(LIB_TaskMonitorError);
 552:C:/Workspace/FW_Inertia/branch_indesit/PlatformLibrary/LIB_SecurityCheck\LIB_TaskMonitoring.c **** 	LIB_TaskMonitorError = err;
 553:C:/Workspace/FW_Inertia/branch_indesit/PlatformLibrary/LIB_SecurityCheck\LIB_TaskMonitoring.c **** 	SAFETY_DATA_UPDATE(LIB_TaskMonitorError);
 554:C:/Workspace/FW_Inertia/branch_indesit/PlatformLibrary/LIB_SecurityCheck\LIB_TaskMonitoring.c **** 	SAFETY_REGION_END();
 555:C:/Workspace/FW_Inertia/branch_indesit/PlatformLibrary/LIB_SecurityCheck\LIB_TaskMonitoring.c **** 
 556:C:/Workspace/FW_Inertia/branch_indesit/PlatformLibrary/LIB_SecurityCheck\LIB_TaskMonitoring.c **** }
 557:C:/Workspace/FW_Inertia/branch_indesit/PlatformLibrary/LIB_SecurityCheck\LIB_TaskMonitoring.c **** 
 558:C:/Workspace/FW_Inertia/branch_indesit/PlatformLibrary/LIB_SecurityCheck\LIB_TaskMonitoring.c **** /**
 559:C:/Workspace/FW_Inertia/branch_indesit/PlatformLibrary/LIB_SecurityCheck\LIB_TaskMonitoring.c **** Checks task's activation.
 560:C:/Workspace/FW_Inertia/branch_indesit/PlatformLibrary/LIB_SecurityCheck\LIB_TaskMonitoring.c **** 
 561:C:/Workspace/FW_Inertia/branch_indesit/PlatformLibrary/LIB_SecurityCheck\LIB_TaskMonitoring.c **** \param  	[in], taskID ID del task
 562:C:/Workspace/FW_Inertia/branch_indesit/PlatformLibrary/LIB_SecurityCheck\LIB_TaskMonitoring.c **** 
 563:C:/Workspace/FW_Inertia/branch_indesit/PlatformLibrary/LIB_SecurityCheck\LIB_TaskMonitoring.c **** \return 	checkActTaskError_t
 564:C:/Workspace/FW_Inertia/branch_indesit/PlatformLibrary/LIB_SecurityCheck\LIB_TaskMonitoring.c **** 
 565:C:/Workspace/FW_Inertia/branch_indesit/PlatformLibrary/LIB_SecurityCheck\LIB_TaskMonitoring.c **** \retval		TASK_SUSPENDED              task is suspended - no check is done
 566:C:/Workspace/FW_Inertia/branch_indesit/PlatformLibrary/LIB_SecurityCheck\LIB_TaskMonitoring.c **** \retval		TASK_TIMEOUT_NOT_ELAPSED    task may be running but timeout isn't expired
 567:C:/Workspace/FW_Inertia/branch_indesit/PlatformLibrary/LIB_SecurityCheck\LIB_TaskMonitoring.c **** \retval		TASK_NOT_ACTIVATED          task wasn't performed within timeout
 568:C:/Workspace/FW_Inertia/branch_indesit/PlatformLibrary/LIB_SecurityCheck\LIB_TaskMonitoring.c **** 
 569:C:/Workspace/FW_Inertia/branch_indesit/PlatformLibrary/LIB_SecurityCheck\LIB_TaskMonitoring.c **** \author 	Stefano Ughi
 570:C:/Workspace/FW_Inertia/branch_indesit/PlatformLibrary/LIB_SecurityCheck\LIB_TaskMonitoring.c **** \date		Mar 28,2011
 571:C:/Workspace/FW_Inertia/branch_indesit/PlatformLibrary/LIB_SecurityCheck\LIB_TaskMonitoring.c **** \version	1.0.2
 572:C:/Workspace/FW_Inertia/branch_indesit/PlatformLibrary/LIB_SecurityCheck\LIB_TaskMonitoring.c **** 
 573:C:/Workspace/FW_Inertia/branch_indesit/PlatformLibrary/LIB_SecurityCheck\LIB_TaskMonitoring.c **** \note       \par \b Nota 1:
 574:C:/Workspace/FW_Inertia/branch_indesit/PlatformLibrary/LIB_SecurityCheck\LIB_TaskMonitoring.c **** 			documentation by Stefano Ughi
 575:C:/Workspace/FW_Inertia/branch_indesit/PlatformLibrary/LIB_SecurityCheck\LIB_TaskMonitoring.c **** 
 576:C:/Workspace/FW_Inertia/branch_indesit/PlatformLibrary/LIB_SecurityCheck\LIB_TaskMonitoring.c **** */
 577:C:/Workspace/FW_Inertia/branch_indesit/PlatformLibrary/LIB_SecurityCheck\LIB_TaskMonitoring.c **** 
 578:C:/Workspace/FW_Inertia/branch_indesit/PlatformLibrary/LIB_SecurityCheck\LIB_TaskMonitoring.c **** static checkActTaskError_t CheckActTask( uint8_t taskID )
 579:C:/Workspace/FW_Inertia/branch_indesit/PlatformLibrary/LIB_SecurityCheck\LIB_TaskMonitoring.c **** {
 580:C:/Workspace/FW_Inertia/branch_indesit/PlatformLibrary/LIB_SecurityCheck\LIB_TaskMonitoring.c **** 	checkActTaskError_t retValue = TASK_SUSPENDED;
 581:C:/Workspace/FW_Inertia/branch_indesit/PlatformLibrary/LIB_SecurityCheck\LIB_TaskMonitoring.c **** 
 582:C:/Workspace/FW_Inertia/branch_indesit/PlatformLibrary/LIB_SecurityCheck\LIB_TaskMonitoring.c **** 	if (CheckTasks[taskID].configDone)
 583:C:/Workspace/FW_Inertia/branch_indesit/PlatformLibrary/LIB_SecurityCheck\LIB_TaskMonitoring.c **** 	{
 584:C:/Workspace/FW_Inertia/branch_indesit/PlatformLibrary/LIB_SecurityCheck\LIB_TaskMonitoring.c **** 
 585:C:/Workspace/FW_Inertia/branch_indesit/PlatformLibrary/LIB_SecurityCheck\LIB_TaskMonitoring.c **** 		if ( CheckTasks[taskID].taskActive ) /* activity started*/
 586:C:/Workspace/FW_Inertia/branch_indesit/PlatformLibrary/LIB_SecurityCheck\LIB_TaskMonitoring.c **** 		{
 587:C:/Workspace/FW_Inertia/branch_indesit/PlatformLibrary/LIB_SecurityCheck\LIB_TaskMonitoring.c **** 			if ( CheckTasks[taskID].timeoutCounter < TASK_TIMEOUT(taskID) )
  45                             		.loc 1 587 0
  46 0019 FB 52 00 00 00 00       		mov.L	#_CheckTasksMaxTimeout, r5
  47 001f 03                      		.balign 2,3,2
  48                             	.L5:
  49                             	.LVL3:
 582:C:/Workspace/FW_Inertia/branch_indesit/PlatformLibrary/LIB_SecurityCheck\LIB_TaskMonitoring.c **** 	if (CheckTasks[taskID].configDone)
  50                             		.loc 1 582 0
  51 0020 FF 23 EE                		add	r14, r14, r3
  52 0023 70 33 00 00 00 00       		add	#_CheckTasks, r3
  53 0029 B0 3B                   		movu.B	1[r3], r3
  54 002b FD 87 32                		shlr	#7, r3, r2
  55 002e 20 1F                   		beq	.L9
 585:C:/Workspace/FW_Inertia/branch_indesit/PlatformLibrary/LIB_SecurityCheck\LIB_TaskMonitoring.c **** 		if ( CheckTasks[taskID].taskActive ) /* activity started*/
  56                             		.loc 1 585 0
  57 0030 7C 63                   		btst #6, r3
  58 0032 20 1B                   		beq	.L9
  59                             		.loc 1 587 0
  60 0034 CC 43                   		mov.B	[r4], r3
  61 0036 5B 31                   		movu.B	r3, r1
  62 0038 FE CE 52                		movu.B	[r14,r5], r2
  63 003b 47 21                   		cmp	r2, r1
  64 003d 22 13                   		bgeu	.L10
 588:C:/Workspace/FW_Inertia/branch_indesit/PlatformLibrary/LIB_SecurityCheck\LIB_TaskMonitoring.c **** 			{
 589:C:/Workspace/FW_Inertia/branch_indesit/PlatformLibrary/LIB_SecurityCheck\LIB_TaskMonitoring.c **** 				/* Task not done but timeout not expired */
 590:C:/Workspace/FW_Inertia/branch_indesit/PlatformLibrary/LIB_SecurityCheck\LIB_TaskMonitoring.c **** 				CheckTasks[taskID].timeoutCounter ++;
  65                             		.loc 1 590 0
  66 003f 62 13                   		add	#1, r3
  67 0041 C3 43                   		mov.B	r3, [r4]
  68                             	.LVL4:
  69 0043 03                      		.balign 2,3,1
  70                             	.L7:
  71 0044 62 1E                   		add	#1, r14
  72 0046 62 24                   		add	#2, r4
  73                             	.LBE11:
  74                             	.LBE10:
 188:C:/Workspace/FW_Inertia/branch_indesit/PlatformLibrary/LIB_SecurityCheck\LIB_TaskMonitoring.c **** 		for ( taskToCheck = 0; taskToCheck < NUM_TASKS_TO_MONITOR; taskToCheck ++ )
  75                             		.loc 1 188 0
  76 0048 61 5E                   		cmp	#5, r14
  77 004a 21 D6                   		bne	.L5
  78 004c 02                      		rts
  79                             	.LVL5:
  80                             	.L9:
  81                             	.LBB13:
  82                             	.LBB12:
 580:C:/Workspace/FW_Inertia/branch_indesit/PlatformLibrary/LIB_SecurityCheck\LIB_TaskMonitoring.c **** 	checkActTaskError_t retValue = TASK_SUSPENDED;
  83                             		.loc 1 580 0
  84 004d 66 13                   		mov	#1, r3
  85 004f 0B                      		bra	.L4
  86                             	.L10:
 591:C:/Workspace/FW_Inertia/branch_indesit/PlatformLibrary/LIB_SecurityCheck\LIB_TaskMonitoring.c **** 				retValue = TASK_TIMEOUT_NOT_ELAPSED;
 592:C:/Workspace/FW_Inertia/branch_indesit/PlatformLibrary/LIB_SecurityCheck\LIB_TaskMonitoring.c **** 			}
 593:C:/Workspace/FW_Inertia/branch_indesit/PlatformLibrary/LIB_SecurityCheck\LIB_TaskMonitoring.c **** 			else {
 594:C:/Workspace/FW_Inertia/branch_indesit/PlatformLibrary/LIB_SecurityCheck\LIB_TaskMonitoring.c **** 				retValue = TASK_NOT_ACTIVATED;
  87                             		.loc 1 594 0
  88 0050 66 03                   		mov	#0, r3
  89                             		.balign 2,3,2
  90                             	.L4:
  91                             	.LVL6:
 595:C:/Workspace/FW_Inertia/branch_indesit/PlatformLibrary/LIB_SecurityCheck\LIB_TaskMonitoring.c **** 			}
 596:C:/Workspace/FW_Inertia/branch_indesit/PlatformLibrary/LIB_SecurityCheck\LIB_TaskMonitoring.c **** 		}
 597:C:/Workspace/FW_Inertia/branch_indesit/PlatformLibrary/LIB_SecurityCheck\LIB_TaskMonitoring.c **** 		else
 598:C:/Workspace/FW_Inertia/branch_indesit/PlatformLibrary/LIB_SecurityCheck\LIB_TaskMonitoring.c **** 		{
 599:C:/Workspace/FW_Inertia/branch_indesit/PlatformLibrary/LIB_SecurityCheck\LIB_TaskMonitoring.c **** 			/* No action required */
 600:C:/Workspace/FW_Inertia/branch_indesit/PlatformLibrary/LIB_SecurityCheck\LIB_TaskMonitoring.c **** 		}
 601:C:/Workspace/FW_Inertia/branch_indesit/PlatformLibrary/LIB_SecurityCheck\LIB_TaskMonitoring.c **** 
 602:C:/Workspace/FW_Inertia/branch_indesit/PlatformLibrary/LIB_SecurityCheck\LIB_TaskMonitoring.c **** 	}
 603:C:/Workspace/FW_Inertia/branch_indesit/PlatformLibrary/LIB_SecurityCheck\LIB_TaskMonitoring.c **** 	else
 604:C:/Workspace/FW_Inertia/branch_indesit/PlatformLibrary/LIB_SecurityCheck\LIB_TaskMonitoring.c **** 	{
 605:C:/Workspace/FW_Inertia/branch_indesit/PlatformLibrary/LIB_SecurityCheck\LIB_TaskMonitoring.c **** 		/* No action required */
 606:C:/Workspace/FW_Inertia/branch_indesit/PlatformLibrary/LIB_SecurityCheck\LIB_TaskMonitoring.c **** 	}
 607:C:/Workspace/FW_Inertia/branch_indesit/PlatformLibrary/LIB_SecurityCheck\LIB_TaskMonitoring.c **** 
 608:C:/Workspace/FW_Inertia/branch_indesit/PlatformLibrary/LIB_SecurityCheck\LIB_TaskMonitoring.c **** 	/* If waiting for timeout, skip reset flags */
 609:C:/Workspace/FW_Inertia/branch_indesit/PlatformLibrary/LIB_SecurityCheck\LIB_TaskMonitoring.c **** 	if (retValue != TASK_TIMEOUT_NOT_ELAPSED) {
 610:C:/Workspace/FW_Inertia/branch_indesit/PlatformLibrary/LIB_SecurityCheck\LIB_TaskMonitoring.c **** 		CheckTasks[taskID].taskEntered = 0;
  92                             		.loc 1 610 0
  93 0052 FF 22 EE                		add	r14, r14, r2
  94 0055 70 22 00 00 00 00       		add	#_CheckTasks, r2
  95 005b 88 29                   		mov.B	1[r2], r1
  96 005d 7A 51                   		bclr	#5, r1
  97 005f 80 29                   		mov.B	r1, 1[r2]
  98                             	.LBE12:
  99                             	.LBE13:
 190:C:/Workspace/FW_Inertia/branch_indesit/PlatformLibrary/LIB_SecurityCheck\LIB_TaskMonitoring.c **** 			if ( CheckActTask( taskToCheck ) == TASK_NOT_ACTIVATED )
 100                             		.loc 1 190 0
 101 0061 76 23 FF 00             		and #0xff, r3
 102                             	.LVL7:
 103 0065 21 DF                   		bne	.L7
 104 0067 2E A5                   		bra	.L6
 105                             	.LFE1:
 107 0069 03                      		.section	.text.LIB_TaskMonitoringConfig,"ax",@progbits
 108                             		.global	_LIB_TaskMonitoringConfig
 110                             	_LIB_TaskMonitoringConfig:
 111                             	.LFB3:
 238:C:/Workspace/FW_Inertia/branch_indesit/PlatformLibrary/LIB_SecurityCheck\LIB_TaskMonitoring.c **** {
 112                             		.loc 1 238 0
 113                             	.LVL8:
 239:C:/Workspace/FW_Inertia/branch_indesit/PlatformLibrary/LIB_SecurityCheck\LIB_TaskMonitoring.c ****   if( taskID < NUM_TASKS_TO_MONITOR )
 114                             		.loc 1 239 0
 115 0000 5B 11                   		movu.B	r1, r1
 116 0002 61 41                   		cmp	#4, r1
 117 0004 24 25                   		bgtu	.L17
 242:C:/Workspace/FW_Inertia/branch_indesit/PlatformLibrary/LIB_SecurityCheck\LIB_TaskMonitoring.c **** 	 if(CheckTasks[taskID].taskConfigured)
 118                             		.loc 1 242 0
 119 0006 4B 11                   		add	r1, r1
 120                             	.LVL9:
 121 0008 70 1E 00 00 00 00       		add	#_CheckTasks, r1, r14
 122 000e 59 E4 01                		movu.B	1[r14], r4
 123 0011 68 44                   		shlr	#4, r4
 124 0013 64 14                   		and	#1, r4
 125 0015 21 1D                   		bne	.L16
 249:C:/Workspace/FW_Inertia/branch_indesit/PlatformLibrary/LIB_SecurityCheck\LIB_TaskMonitoring.c ****       CheckTasks[taskID].timeoutCounter = 0;
 126                             		.loc 1 249 0
 127 0017 C3 E4                   		mov.B	r4, [r14]
 250:C:/Workspace/FW_Inertia/branch_indesit/PlatformLibrary/LIB_SecurityCheck\LIB_TaskMonitoring.c ****       CheckTasks[taskID].configDone = 1;
 128                             		.loc 1 250 0
 129 0019 CD E4 01                		mov.B	1[r14], r4
 130 001c 78 74                   		bset	#7, r4
 252:C:/Workspace/FW_Inertia/branch_indesit/PlatformLibrary/LIB_SecurityCheck\LIB_TaskMonitoring.c ****       CheckTasks[taskID].taskActive = ( TRUE == state );
 131                             		.loc 1 252 0
 132 001e 61 13                   		cmp	#1, r3
 133 0020 FD E6 04                		bmeq	#6, r4
 254:C:/Workspace/FW_Inertia/branch_indesit/PlatformLibrary/LIB_SecurityCheck\LIB_TaskMonitoring.c ****       CheckTasks[taskID].taskConfigured = 1;
 134                             		.loc 1 254 0
 135 0023 78 44                   		bset	#4, r4
 136 0025 C7 E4 01                		mov.B	r4, 1[r14]
 137 0028 02                      		rts
 138                             	.L17:
 139                             	.LVL10:
 140                             	.LBB14:
 141                             	.LBB15:
 552:C:/Workspace/FW_Inertia/branch_indesit/PlatformLibrary/LIB_SecurityCheck\LIB_TaskMonitoring.c **** 	LIB_TaskMonitorError = err;
 142                             		.loc 1 552 0
 143 0029 FB E2 00 00 00 00       		mov.L	#_LIB_TaskMonitorError, r14
 144 002f F8 E6 03                		mov.L	#3, [r14]
 145                             	.LVL11:
 146                             	.L16:
 147 0032 02                      		rts
 148                             	.LBE15:
 149                             	.LBE14:
 150                             	.LFE3:
 152                             		.section	.text.LIB_TaskStartActivity,"ax",@progbits
 153                             		.global	_LIB_TaskStartActivity
 155                             	_LIB_TaskStartActivity:
 156                             	.LFB4:
 268:C:/Workspace/FW_Inertia/branch_indesit/PlatformLibrary/LIB_SecurityCheck\LIB_TaskMonitoring.c **** {
 157                             		.loc 1 268 0
 158                             	.LVL12:
 271:C:/Workspace/FW_Inertia/branch_indesit/PlatformLibrary/LIB_SecurityCheck\LIB_TaskMonitoring.c ****   if ((CheckTasks[taskID].configDone) && (CheckTasks[taskID].taskActive)
 159                             		.loc 1 271 0
 160 0000 5B 11                   		movu.B	r1, r1
 161 0002 4B 11                   		add	r1, r1
 162                             	.LVL13:
 163 0004 70 11 00 00 00 00       		add	#_CheckTasks, r1
 164 000a 59 1E 01                		movu.B	1[r1], r14
 165 000d FD 87 E4                		shlr	#7, r14, r4
 166 0010 20 12                   		beq	.L20
 271:C:/Workspace/FW_Inertia/branch_indesit/PlatformLibrary/LIB_SecurityCheck\LIB_TaskMonitoring.c ****   if ((CheckTasks[taskID].configDone) && (CheckTasks[taskID].taskActive)
 167                             		.loc 1 271 0 is_stmt 0 discriminator 1
 168 0012 7C 6E                   		btst #6, r14
 169 0014 20 0E                   		beq	.L20
 272:C:/Workspace/FW_Inertia/branch_indesit/PlatformLibrary/LIB_SecurityCheck\LIB_TaskMonitoring.c **** 		  && (!CheckTasks[taskID].taskEntered))
 170                             		.loc 1 272 0 is_stmt 1
 171 0016 7C 5E                   		btst #5, r14
 172 0018 1A                      		bne	.L20
 277:C:/Workspace/FW_Inertia/branch_indesit/PlatformLibrary/LIB_SecurityCheck\LIB_TaskMonitoring.c ****       CheckTasks[taskID].taskEntered = 1;
 173                             		.loc 1 277 0
 174 0019 CD 1E 01                		mov.B	1[r1], r14
 175 001c 78 5E                   		bset	#5, r14
 176 001e C7 1E 01                		mov.B	r14, 1[r1]
 177 0021 02                      		rts
 178                             	.L20:
 179                             	.LVL14:
 180                             	.LBB16:
 181                             	.LBB17:
 552:C:/Workspace/FW_Inertia/branch_indesit/PlatformLibrary/LIB_SecurityCheck\LIB_TaskMonitoring.c **** 	LIB_TaskMonitorError = err;
 182                             		.loc 1 552 0
 183 0022 FB E2 00 00 00 00       		mov.L	#_LIB_TaskMonitorError, r14
 184 0028 F8 E6 01                		mov.L	#1, [r14]
 185 002b 02                      		rts
 186                             	.LBE17:
 187                             	.LBE16:
 188                             	.LFE4:
 190                             		.section	.text.LIB_TaskEndActivity,"ax",@progbits
 191                             		.global	_LIB_TaskEndActivity
 193                             	_LIB_TaskEndActivity:
 194                             	.LFB5:
 292:C:/Workspace/FW_Inertia/branch_indesit/PlatformLibrary/LIB_SecurityCheck\LIB_TaskMonitoring.c **** {
 195                             		.loc 1 292 0
 196                             	.LVL15:
 295:C:/Workspace/FW_Inertia/branch_indesit/PlatformLibrary/LIB_SecurityCheck\LIB_TaskMonitoring.c **** 	if ((CheckTasks[taskID].configDone) && (CheckTasks[taskID].taskEntered))
 197                             		.loc 1 295 0
 198 0000 5B 11                   		movu.B	r1, r1
 199 0002 4B 11                   		add	r1, r1
 200                             	.LVL16:
 201 0004 70 11 00 00 00 00       		add	#_CheckTasks, r1
 202 000a 59 1E 01                		movu.B	1[r1], r14
 203 000d FD 87 E4                		shlr	#7, r14, r4
 204 0010 20 12                   		beq	.L29
 295:C:/Workspace/FW_Inertia/branch_indesit/PlatformLibrary/LIB_SecurityCheck\LIB_TaskMonitoring.c **** 	if ((CheckTasks[taskID].configDone) && (CheckTasks[taskID].taskEntered))
 205                             		.loc 1 295 0 is_stmt 0 discriminator 1
 206 0012 7C 5E                   		btst #5, r14
 207 0014 20 0E                   		beq	.L29
 299:C:/Workspace/FW_Inertia/branch_indesit/PlatformLibrary/LIB_SecurityCheck\LIB_TaskMonitoring.c **** 		CheckTasks[taskID].taskEntered = 0;
 208                             		.loc 1 299 0 is_stmt 1
 209 0016 CD 1E 01                		mov.B	1[r1], r14
 210 0019 7A 5E                   		bclr	#5, r14
 211 001b C7 1E 01                		mov.B	r14, 1[r1]
 309:C:/Workspace/FW_Inertia/branch_indesit/PlatformLibrary/LIB_SecurityCheck\LIB_TaskMonitoring.c ****       CheckTasks[taskID].timeoutCounter = 0;
 212                             		.loc 1 309 0
 213 001e 3C 10 00                		mov.B	#0, [r1]
 214 0021 02                      		rts
 215                             	.L29:
 216                             	.LVL17:
 217                             	.LBB18:
 218                             	.LBB19:
 552:C:/Workspace/FW_Inertia/branch_indesit/PlatformLibrary/LIB_SecurityCheck\LIB_TaskMonitoring.c **** 	LIB_TaskMonitorError = err;
 219                             		.loc 1 552 0
 220 0022 FB E2 00 00 00 00       		mov.L	#_LIB_TaskMonitorError, r14
 221 0028 F8 E6 02                		mov.L	#2, [r14]
 222 002b 02                      		rts
 223                             	.LBE19:
 224                             	.LBE18:
 225                             	.LFE5:
 227                             		.section	.text.LIB_HelloTaskMonitor,"ax",@progbits
 228                             		.global	_LIB_HelloTaskMonitor
 230                             	_LIB_HelloTaskMonitor:
 231                             	.LFB2:
 225:C:/Workspace/FW_Inertia/branch_indesit/PlatformLibrary/LIB_SecurityCheck\LIB_TaskMonitoring.c **** {
 232                             		.loc 1 225 0
 233                             	.LVL18:
 234 0000 7E A7                   		push.l	r7
 235                             	.LCFI0:
 236 0002 CF 17                   		mov.B	r1, r7
 226:C:/Workspace/FW_Inertia/branch_indesit/PlatformLibrary/LIB_SecurityCheck\LIB_TaskMonitoring.c ****   LIB_TaskStartActivity(taskID);
 237                             		.loc 1 226 0
 238 0004 05 00 00 00             		bsr	_LIB_TaskStartActivity
 239                             	.LVL19:
 227:C:/Workspace/FW_Inertia/branch_indesit/PlatformLibrary/LIB_SecurityCheck\LIB_TaskMonitoring.c ****   LIB_TaskEndActivity(taskID);
 240                             		.loc 1 227 0
 241 0008 CF 71                   		mov.B	r7, r1
 228:C:/Workspace/FW_Inertia/branch_indesit/PlatformLibrary/LIB_SecurityCheck\LIB_TaskMonitoring.c **** }
 242                             		.loc 1 228 0
 243 000a 7E B7                   		pop	r7
 244                             	.LVL20:
 227:C:/Workspace/FW_Inertia/branch_indesit/PlatformLibrary/LIB_SecurityCheck\LIB_TaskMonitoring.c ****   LIB_TaskEndActivity(taskID);
 245                             		.loc 1 227 0
 246 000c 04 00 00 00             		bra	_LIB_TaskEndActivity
 247                             	.LVL21:
 248                             	.LFE2:
 250                             		.section	.text.LIB_SetTask,"ax",@progbits
 251                             		.global	_LIB_SetTask
 253                             	_LIB_SetTask:
 254                             	.LFB6:
 341:C:/Workspace/FW_Inertia/branch_indesit/PlatformLibrary/LIB_SecurityCheck\LIB_TaskMonitoring.c **** {
 255                             		.loc 1 341 0
 256                             	.LVL22:
 343:C:/Workspace/FW_Inertia/branch_indesit/PlatformLibrary/LIB_SecurityCheck\LIB_TaskMonitoring.c ****   if (CheckTasks[taskID].configDone)
 257                             		.loc 1 343 0
 258 0000 5B 11                   		movu.B	r1, r1
 259 0002 4B 11                   		add	r1, r1
 260                             	.LVL23:
 261 0004 70 11 00 00 00 00       		add	#_CheckTasks, r1
 262 000a 59 1E 01                		movu.B	1[r1], r14
 263 000d 68 7E                   		shlr	#7, r14
 264 000f 20 0D                   		beq	.L39
 348:C:/Workspace/FW_Inertia/branch_indesit/PlatformLibrary/LIB_SecurityCheck\LIB_TaskMonitoring.c ****       CheckTasks[taskID].taskActive = (state == TRUE);
 265                             		.loc 1 348 0
 266 0011 CD 1E 01                		mov.B	1[r1], r14
 267 0014 61 12                   		cmp	#1, r2
 268 0016 FD E6 0E                		bmeq	#6, r14
 269 0019 C7 1E 01                		mov.B	r14, 1[r1]
 270                             	.L39:
 271 001c 02                      		rts
 272                             	.LFE6:
 274                             		.section	.text.LIB_IRQMonitor_Enter,"ax",@progbits
 275                             		.global	_LIB_IRQMonitor_Enter
 277                             	_LIB_IRQMonitor_Enter:
 278                             	.LFB7:
 377:C:/Workspace/FW_Inertia/branch_indesit/PlatformLibrary/LIB_SecurityCheck\LIB_TaskMonitoring.c **** {
 279                             		.loc 1 377 0
 280 0000 7E A7                   		push.l	r7
 281                             	.LCFI1:
 383:C:/Workspace/FW_Inertia/branch_indesit/PlatformLibrary/LIB_SecurityCheck\LIB_TaskMonitoring.c **** 	PLT_ERROR_FATAL_IF(IRQMonitorStatus.EnterCntr > CONFIG_LIB_CLASS_B_IRQ_CHECK_MAXVALUE, PLT_ERROR_I
 282                             		.loc 1 383 0
 283 0002 FB 72 00 00 00 00       		mov.L	#_IRQMonitorStatus, r7
 284 0008 5C 7E                   		movu.W	[r7], r14
 285 000a 75 5E 8C                		cmp	#0x8c, r14
 286 000d 25 09                   		bleu	.L45
 383:C:/Workspace/FW_Inertia/branch_indesit/PlatformLibrary/LIB_SecurityCheck\LIB_TaskMonitoring.c **** 	PLT_ERROR_FATAL_IF(IRQMonitorStatus.EnterCntr > CONFIG_LIB_CLASS_B_IRQ_CHECK_MAXVALUE, PLT_ERROR_I
 287                             		.loc 1 383 0 is_stmt 0 discriminator 1
 288 000f 75 41 58                		mov.L	#0x58, r1
 289 0012 05 00 00 00             		bsr	_LIB_Error_Fatal_Handler
 290                             	.LVL24:
 291                             		.balign 2,3,5
 292                             	.L45:
 387:C:/Workspace/FW_Inertia/branch_indesit/PlatformLibrary/LIB_SecurityCheck\LIB_TaskMonitoring.c **** 	IRQMonitorStatus.EnterCntr++;
 293                             		.loc 1 387 0 is_stmt 1
 294 0016 DC 7E                   		mov.W	[r7], r14
 295 0018 62 1E                   		add	#1, r14
 296 001a D3 7E                   		mov.W	r14, [r7]
 389:C:/Workspace/FW_Inertia/branch_indesit/PlatformLibrary/LIB_SecurityCheck\LIB_TaskMonitoring.c **** }
 297                             		.loc 1 389 0
 298 001c 3F 77 01                		rtsd	#4, r7-r7
 299                             	.LFE7:
 301 001f 03                      		.section	.text.LIB_IRQMonitor_Exit,"ax",@progbits
 302                             		.global	_LIB_IRQMonitor_Exit
 304                             	_LIB_IRQMonitor_Exit:
 305                             	.LFB8:
 406:C:/Workspace/FW_Inertia/branch_indesit/PlatformLibrary/LIB_SecurityCheck\LIB_TaskMonitoring.c **** {
 306                             		.loc 1 406 0
 408:C:/Workspace/FW_Inertia/branch_indesit/PlatformLibrary/LIB_SecurityCheck\LIB_TaskMonitoring.c **** 	IRQMonitorStatus.ExitCntr++;
 307                             		.loc 1 408 0
 308 0000 FB E2 00 00 00 00       		mov.L	#_IRQMonitorStatus, r14
 309 0006 DD E4 01                		mov.W	2[r14], r4
 310 0009 62 14                   		add	#1, r4
 311 000b D7 E4 01                		mov.W	r4, 2[r14]
 312 000e 02                      		rts
 313                             	.LFE8:
 315                             		.section	.text.LIB_IRQMonitor_Init,"ax",@progbits
 316                             		.global	_LIB_IRQMonitor_Init
 318                             	_LIB_IRQMonitor_Init:
 319                             	.LFB9:
 432:C:/Workspace/FW_Inertia/branch_indesit/PlatformLibrary/LIB_SecurityCheck\LIB_TaskMonitoring.c **** {
 320                             		.loc 1 432 0
 434:C:/Workspace/FW_Inertia/branch_indesit/PlatformLibrary/LIB_SecurityCheck\LIB_TaskMonitoring.c **** 	IRQMonitorStatus.EnterCntr = CONFIG_LIB_CLASS_B_IRQ_CHECK_MINVALUE;
 321                             		.loc 1 434 0
 322 0000 FB E2 00 00 00 00       		mov.L	#_IRQMonitorStatus, r14
 323 0006 F8 E5 01                		mov.W	#1, [r14]
 435:C:/Workspace/FW_Inertia/branch_indesit/PlatformLibrary/LIB_SecurityCheck\LIB_TaskMonitoring.c **** 	IRQMonitorStatus.ExitCntr = CONFIG_LIB_CLASS_B_IRQ_CHECK_MINVALUE;
 324                             		.loc 1 435 0
 325 0009 F9 E5 01 01             		mov.W	#1, 2[r14]
 436:C:/Workspace/FW_Inertia/branch_indesit/PlatformLibrary/LIB_SecurityCheck\LIB_TaskMonitoring.c **** 	IRQMonitorStatus.fltCntr = 0;
 326                             		.loc 1 436 0
 327 000d F9 E5 02 00             		mov.W	#0, 4[r14]
 437:C:/Workspace/FW_Inertia/branch_indesit/PlatformLibrary/LIB_SecurityCheck\LIB_TaskMonitoring.c **** 	IRQMonitorStatus.maxIntrCntr = 0;
 328                             		.loc 1 437 0
 329 0011 F9 E5 03 00             		mov.W	#0, 6[r14]
 330 0015 02                      		rts
 331                             	.LFE9:
 333                             		.section	.text.LIB_IRQMonitor,"ax",@progbits
 334                             		.global	_LIB_IRQMonitor
 336                             	_LIB_IRQMonitor:
 337                             	.LFB10:
 464:C:/Workspace/FW_Inertia/branch_indesit/PlatformLibrary/LIB_SecurityCheck\LIB_TaskMonitoring.c **** {
 338                             		.loc 1 464 0
 339 0000 6E 7A                   		pushm	r7-r10
 340                             	.LCFI2:
 465:C:/Workspace/FW_Inertia/branch_indesit/PlatformLibrary/LIB_SecurityCheck\LIB_TaskMonitoring.c **** 	EnterCriticalSection();
 341                             		.loc 1 465 0
 342 0002 05 00 00 00             		bsr	_OS_DisableInterrupt
 343 0006 FB 72 00 00 00 00       		mov.L	#_OS_Global, r7
 344 000c CD 7E 01                		mov.B	1[r7], r14
 345 000f 62 1E                   		add	#1, r14
 346 0011 C7 7E 01                		mov.B	r14, 1[r7]
 489:C:/Workspace/FW_Inertia/branch_indesit/PlatformLibrary/LIB_SecurityCheck\LIB_TaskMonitoring.c **** 	PLT_ERROR_FATAL_IF(IRQMonitorStatus.EnterCntr != IRQMonitorStatus.ExitCntr, PLT_ERROR_IRQMON_EXEC_
 347                             		.loc 1 489 0
 348 0014 FB E2 00 00 00 00       		mov.L	#_IRQMonitorStatus, r14
 349 001a 5C E3                   		movu.W	[r14], r3
 350 001c 5D E4 01                		movu.W	2[r14], r4
 351 001f EF E7                   		mov.L	r14, r7
 352 0021 47 43                   		cmp	r4, r3
 353 0023 11                      		beq	.L50
 489:C:/Workspace/FW_Inertia/branch_indesit/PlatformLibrary/LIB_SecurityCheck\LIB_TaskMonitoring.c **** 	PLT_ERROR_FATAL_IF(IRQMonitorStatus.EnterCntr != IRQMonitorStatus.ExitCntr, PLT_ERROR_IRQMON_EXEC_
 354                             		.loc 1 489 0 is_stmt 0 discriminator 1
 355 0024 75 41 5A                		mov.L	#0x5a, r1
 356 0027 05 00 00 00             		bsr	_LIB_Error_Fatal_Handler
 357 002b 03                      		.balign 2,3,5
 358                             	.L50:
 494:C:/Workspace/FW_Inertia/branch_indesit/PlatformLibrary/LIB_SecurityCheck\LIB_TaskMonitoring.c **** 	if (IRQMonitorStatus.EnterCntr < CONFIG_LIB_CLASS_B_IRQ_CHECK_MINVALUE)
 359                             		.loc 1 494 0 is_stmt 1
 360 002c FB E2 00 00 00 00       		mov.L	#_IRQMonitorStatus, r14
 361 0032 5C 77                   		movu.W	[r7], r7
 362 0034 61 07                   		cmp	#0, r7
 496:C:/Workspace/FW_Inertia/branch_indesit/PlatformLibrary/LIB_SecurityCheck\LIB_TaskMonitoring.c **** 		IRQMonitorStatus.fltCntr += CONFIG_LIB_CLASS_B_IRQ_FLTR_INCR;
 363                             		.loc 1 496 0
 364 0036 DD E7 02                		mov.W	4[r14], r7
 494:C:/Workspace/FW_Inertia/branch_indesit/PlatformLibrary/LIB_SecurityCheck\LIB_TaskMonitoring.c **** 	if (IRQMonitorStatus.EnterCntr < CONFIG_LIB_CLASS_B_IRQ_CHECK_MINVALUE)
 365                             		.loc 1 494 0
 366 0039 1E                      		bne	.L51
 496:C:/Workspace/FW_Inertia/branch_indesit/PlatformLibrary/LIB_SecurityCheck\LIB_TaskMonitoring.c **** 		IRQMonitorStatus.fltCntr += CONFIG_LIB_CLASS_B_IRQ_FLTR_INCR;
 367                             		.loc 1 496 0
 368 003a 72 77 E8 03             		add	#0x3e8, r7
 369 003e 08                      		bra	.L60
 370                             	.L51:
 498:C:/Workspace/FW_Inertia/branch_indesit/PlatformLibrary/LIB_SecurityCheck\LIB_TaskMonitoring.c **** 	else if (IRQMonitorStatus.fltCntr > 0)
 371                             		.loc 1 498 0
 372 003f 5F 74                   		movu.W	r7, r4
 373 0041 61 04                   		cmp	#0, r4
 374 0043 17                      		beq	.L52
 500:C:/Workspace/FW_Inertia/branch_indesit/PlatformLibrary/LIB_SecurityCheck\LIB_TaskMonitoring.c **** 		IRQMonitorStatus.fltCntr--;
 375                             		.loc 1 500 0
 376 0044 60 17                   		sub	#1, r7
 377                             		.balign 2,3,5
 378                             	.L60:
 379 0046 D7 E7 02                		mov.W	r7, 4[r14]
 380 0049 03                      		.balign 2,3,5
 381                             	.L52:
 508:C:/Workspace/FW_Inertia/branch_indesit/PlatformLibrary/LIB_SecurityCheck\LIB_TaskMonitoring.c **** 	PLT_ERROR_FATAL_IF(IRQMonitorStatus.fltCntr > CONFIG_LIB_CLASS_B_IRQ_FLTR_MAXTH, PLT_ERROR_IRQMON_
 382                             		.loc 1 508 0
 383 004a FB 72 00 00 00 00       		mov.L	#_IRQMonitorStatus, r7
 384 0050 5D 7E 02                		movu.W	4[r7], r14
 385 0053 76 0E 88 13             		cmp	#0x1388, r14
 386 0057 25 09                   		bleu	.L53
 508:C:/Workspace/FW_Inertia/branch_indesit/PlatformLibrary/LIB_SecurityCheck\LIB_TaskMonitoring.c **** 	PLT_ERROR_FATAL_IF(IRQMonitorStatus.fltCntr > CONFIG_LIB_CLASS_B_IRQ_FLTR_MAXTH, PLT_ERROR_IRQMON_
 387                             		.loc 1 508 0 is_stmt 0 discriminator 1
 388 0059 75 41 59                		mov.L	#0x59, r1
 389 005c 05 00 00 00             		bsr	_LIB_Error_Fatal_Handler
 390                             		.balign 2,3,5
 391                             	.L53:
 513:C:/Workspace/FW_Inertia/branch_indesit/PlatformLibrary/LIB_SecurityCheck\LIB_TaskMonitoring.c **** 	if (IRQMonitorStatus.EnterCntr > IRQMonitorStatus.maxIntrCntr)
 392                             		.loc 1 513 0 is_stmt 1
 393 0060 DC 7E                   		mov.W	[r7], r14
 394 0062 5F E4                   		movu.W	r14, r4
 395 0064 06 C5 74 03             		cmp	6[r7].UW, r4
 396 0068 25 0C                   		bleu	.L54
 515:C:/Workspace/FW_Inertia/branch_indesit/PlatformLibrary/LIB_SecurityCheck\LIB_TaskMonitoring.c **** 		IRQMonitorStatus.maxIntrCntr = IRQMonitorStatus.EnterCntr;
 397                             		.loc 1 515 0
 398 006a FB 72 00 00 00 00       		mov.L	#_IRQMonitorStatus, r7
 399 0070 D7 7E 03                		mov.W	r14, 6[r7]
 400 0073 03                      		.balign 2,3,5
 401                             	.L54:
 519:C:/Workspace/FW_Inertia/branch_indesit/PlatformLibrary/LIB_SecurityCheck\LIB_TaskMonitoring.c **** 	IRQMonitorStatus.EnterCntr = 0;
 402                             		.loc 1 519 0
 403 0074 FB 72 00 00 00 00       		mov.L	#_IRQMonitorStatus, r7
 404 007a 3D 70 00                		mov.W	#0, [r7]
 520:C:/Workspace/FW_Inertia/branch_indesit/PlatformLibrary/LIB_SecurityCheck\LIB_TaskMonitoring.c **** 	IRQMonitorStatus.ExitCntr = 0;
 405                             		.loc 1 520 0
 406 007d 3D 71 00                		mov.W	#0, 2[r7]
 523:C:/Workspace/FW_Inertia/branch_indesit/PlatformLibrary/LIB_SecurityCheck\LIB_TaskMonitoring.c **** 	ExitCriticalSection();
 407                             		.loc 1 523 0
 408 0080 FB E2 00 00 00 00       		mov.L	#_OS_Global, r14
 409 0086 CD E7 01                		mov.B	1[r14], r7
 410 0089 60 17                   		sub	#1, r7
 411 008b C7 E7 01                		mov.B	r7, 1[r14]
 412 008e 76 27 FF 00             		and #0xff, r7
 413 0092 1F                      		bne	.L49
 525:C:/Workspace/FW_Inertia/branch_indesit/PlatformLibrary/LIB_SecurityCheck\LIB_TaskMonitoring.c **** }
 414                             		.loc 1 525 0 discriminator 1
 415 0093 6F 7A                   		popm	r7-r10
 523:C:/Workspace/FW_Inertia/branch_indesit/PlatformLibrary/LIB_SecurityCheck\LIB_TaskMonitoring.c **** 	ExitCriticalSection();
 416                             		.loc 1 523 0 discriminator 1
 417 0095 04 00 00 00             		bra	_OS_EnableInterrupt
 418                             	.L49:
 525:C:/Workspace/FW_Inertia/branch_indesit/PlatformLibrary/LIB_SecurityCheck\LIB_TaskMonitoring.c **** }
 419                             		.loc 1 525 0
 420 0099 3F 7A 04                		rtsd	#16, r7-r10
 421                             	.LFE10:
 423                             		.comm	_IRQMonitorStatus,8,2
 424                             		.section	.bss.CheckTasks,"aw",@nobits
 427                             	_CheckTasks:
 428 0000 00 00 00 00 00 00 00 00 		.zero	10
 428      00 00 
 429                             		.section	.bss.LIB_TaskMonitorError,"aw",@nobits
 430                             		.balign 4
 433                             	_LIB_TaskMonitorError:
 434 0000 00 00 00 00             		.zero	4
 435                             		.section	.rodata.CheckTasksMaxTimeout,"a",@progbits
 438                             	_CheckTasksMaxTimeout:
 439 0000 0F                      		.byte	15
 440 0001 1E                      		.byte	30
 441 0002 32                      		.byte	50
 442 0003 1E                      		.byte	30
 443 0004 1E                      		.byte	30
 574                             	.Letext0:
 575                             		.file 2 "C:\\Workspace\\FW_Inertia\\branch_indesit\\HAL\\HAL_General/StandardTypes.h"
 576                             		.file 3 "C:\\Workspace\\FW_Inertia\\branch_indesit\\OS\\EmbOS\\RX200_GNU\\V388\\Inc/RTOS.h"
 577                             		.file 4 "C:\\Workspace\\FW_Inertia\\branch_indesit\\PlatformLibrary\\LIB_Error/LIB_Error.h"
 578                             		.file 5 "C:\\Workspace\\FW_Inertia\\branch_indesit\\CFG_DishWasher\\CFG_Inertia/TaskMonitor_Cfg.h"
DEFINED SYMBOLS
                            *ABS*:00000000 LIB_TaskMonitoring.c
C:\Users\Andrea\AppData\Local\Temp\ccu8YOKd.s:7      .text.LIB_TaskMonitorInit:00000000 _LIB_TaskMonitorInit
C:\Users\Andrea\AppData\Local\Temp\ccu8YOKd.s:12     .text.LIB_TaskMonitorInit:00000000 L0
C:\Users\Andrea\AppData\Local\Temp\ccu8YOKd.s:427    .bss.CheckTasks:00000000 _CheckTasks
C:\Users\Andrea\AppData\Local\Temp\ccu8YOKd.s:433    .bss.LIB_TaskMonitorError:00000000 _LIB_TaskMonitorError
C:\Users\Andrea\AppData\Local\Temp\ccu8YOKd.s:25     .text.LIB_TaskMonitor:00000000 _LIB_TaskMonitor
C:\Users\Andrea\AppData\Local\Temp\ccu8YOKd.s:30     .text.LIB_TaskMonitor:00000000 L0
C:\Users\Andrea\AppData\Local\Temp\ccu8YOKd.s:438    .rodata.CheckTasksMaxTimeout:00000000 _CheckTasksMaxTimeout
C:\Users\Andrea\AppData\Local\Temp\ccu8YOKd.s:110    .text.LIB_TaskMonitoringConfig:00000000 _LIB_TaskMonitoringConfig
C:\Users\Andrea\AppData\Local\Temp\ccu8YOKd.s:115    .text.LIB_TaskMonitoringConfig:00000000 L0
C:\Users\Andrea\AppData\Local\Temp\ccu8YOKd.s:155    .text.LIB_TaskStartActivity:00000000 _LIB_TaskStartActivity
C:\Users\Andrea\AppData\Local\Temp\ccu8YOKd.s:160    .text.LIB_TaskStartActivity:00000000 L0
C:\Users\Andrea\AppData\Local\Temp\ccu8YOKd.s:193    .text.LIB_TaskEndActivity:00000000 _LIB_TaskEndActivity
C:\Users\Andrea\AppData\Local\Temp\ccu8YOKd.s:198    .text.LIB_TaskEndActivity:00000000 L0
C:\Users\Andrea\AppData\Local\Temp\ccu8YOKd.s:230    .text.LIB_HelloTaskMonitor:00000000 _LIB_HelloTaskMonitor
C:\Users\Andrea\AppData\Local\Temp\ccu8YOKd.s:234    .text.LIB_HelloTaskMonitor:00000000 L0
C:\Users\Andrea\AppData\Local\Temp\ccu8YOKd.s:253    .text.LIB_SetTask:00000000 _LIB_SetTask
C:\Users\Andrea\AppData\Local\Temp\ccu8YOKd.s:258    .text.LIB_SetTask:00000000 L0
C:\Users\Andrea\AppData\Local\Temp\ccu8YOKd.s:277    .text.LIB_IRQMonitor_Enter:00000000 _LIB_IRQMonitor_Enter
C:\Users\Andrea\AppData\Local\Temp\ccu8YOKd.s:280    .text.LIB_IRQMonitor_Enter:00000000 L0
                            *COM*:00000008 _IRQMonitorStatus
C:\Users\Andrea\AppData\Local\Temp\ccu8YOKd.s:304    .text.LIB_IRQMonitor_Exit:00000000 _LIB_IRQMonitor_Exit
C:\Users\Andrea\AppData\Local\Temp\ccu8YOKd.s:308    .text.LIB_IRQMonitor_Exit:00000000 L0
C:\Users\Andrea\AppData\Local\Temp\ccu8YOKd.s:318    .text.LIB_IRQMonitor_Init:00000000 _LIB_IRQMonitor_Init
C:\Users\Andrea\AppData\Local\Temp\ccu8YOKd.s:322    .text.LIB_IRQMonitor_Init:00000000 L0
C:\Users\Andrea\AppData\Local\Temp\ccu8YOKd.s:336    .text.LIB_IRQMonitor:00000000 _LIB_IRQMonitor
C:\Users\Andrea\AppData\Local\Temp\ccu8YOKd.s:339    .text.LIB_IRQMonitor:00000000 L0
C:\Users\Andrea\AppData\Local\Temp\ccu8YOKd.s:445    .debug_frame:00000000 .Lframe0
C:\Users\Andrea\AppData\Local\Temp\ccu8YOKd.s:8      .text.LIB_TaskMonitorInit:00000000 .LFB0
C:\Users\Andrea\AppData\Local\Temp\ccu8YOKd.s:26     .text.LIB_TaskMonitor:00000000 .LFB1
C:\Users\Andrea\AppData\Local\Temp\ccu8YOKd.s:111    .text.LIB_TaskMonitoringConfig:00000000 .LFB3
C:\Users\Andrea\AppData\Local\Temp\ccu8YOKd.s:156    .text.LIB_TaskStartActivity:00000000 .LFB4
C:\Users\Andrea\AppData\Local\Temp\ccu8YOKd.s:194    .text.LIB_TaskEndActivity:00000000 .LFB5
C:\Users\Andrea\AppData\Local\Temp\ccu8YOKd.s:231    .text.LIB_HelloTaskMonitor:00000000 .LFB2
C:\Users\Andrea\AppData\Local\Temp\ccu8YOKd.s:254    .text.LIB_SetTask:00000000 .LFB6
C:\Users\Andrea\AppData\Local\Temp\ccu8YOKd.s:278    .text.LIB_IRQMonitor_Enter:00000000 .LFB7
C:\Users\Andrea\AppData\Local\Temp\ccu8YOKd.s:305    .text.LIB_IRQMonitor_Exit:00000000 .LFB8
C:\Users\Andrea\AppData\Local\Temp\ccu8YOKd.s:319    .text.LIB_IRQMonitor_Init:00000000 .LFB9
C:\Users\Andrea\AppData\Local\Temp\ccu8YOKd.s:337    .text.LIB_IRQMonitor:00000000 .LFB10
C:\Users\Andrea\AppData\Local\Temp\ccu8YOKd.s:2223   .debug_abbrev:00000000 .Ldebug_abbrev0
C:\Users\Andrea\AppData\Local\Temp\ccu8YOKd.s:3455   .debug_str:000004c8 .LASF205
C:\Users\Andrea\AppData\Local\Temp\ccu8YOKd.s:3389   .debug_str:00000229 .LASF206
C:\Users\Andrea\AppData\Local\Temp\ccu8YOKd.s:3285   .debug_ranges:00000000 .Ldebug_ranges0
C:\Users\Andrea\AppData\Local\Temp\ccu8YOKd.s:3323   .debug_line:00000000 .Ldebug_line0
C:\Users\Andrea\AppData\Local\Temp\ccu8YOKd.s:3529   .debug_str:0000081f .LASF0
C:\Users\Andrea\AppData\Local\Temp\ccu8YOKd.s:3427   .debug_str:000003b3 .LASF6
C:\Users\Andrea\AppData\Local\Temp\ccu8YOKd.s:3501   .debug_str:000006c2 .LASF1
C:\Users\Andrea\AppData\Local\Temp\ccu8YOKd.s:3485   .debug_str:0000064c .LASF2
C:\Users\Andrea\AppData\Local\Temp\ccu8YOKd.s:3725   .debug_str:0000104a .LASF3
C:\Users\Andrea\AppData\Local\Temp\ccu8YOKd.s:3367   .debug_str:00000151 .LASF4
C:\Users\Andrea\AppData\Local\Temp\ccu8YOKd.s:3425   .debug_str:000003a5 .LASF5
C:\Users\Andrea\AppData\Local\Temp\ccu8YOKd.s:3697   .debug_str:00000f48 .LASF7
C:\Users\Andrea\AppData\Local\Temp\ccu8YOKd.s:3583   .debug_str:00000ab1 .LASF8
C:\Users\Andrea\AppData\Local\Temp\ccu8YOKd.s:3387   .debug_str:0000021d .LASF9
C:\Users\Andrea\AppData\Local\Temp\ccu8YOKd.s:3397   .debug_str:000002a0 .LASF10
C:\Users\Andrea\AppData\Local\Temp\ccu8YOKd.s:3631   .debug_str:00000cae .LASF11
C:\Users\Andrea\AppData\Local\Temp\ccu8YOKd.s:3703   .debug_str:00000f80 .LASF12
C:\Users\Andrea\AppData\Local\Temp\ccu8YOKd.s:3721   .debug_str:00001029 .LASF13
C:\Users\Andrea\AppData\Local\Temp\ccu8YOKd.s:3423   .debug_str:00000398 .LASF14
C:\Users\Andrea\AppData\Local\Temp\ccu8YOKd.s:3663   .debug_str:00000e0d .LASF15
C:\Users\Andrea\AppData\Local\Temp\ccu8YOKd.s:3325   .debug_str:00000000 .LASF16
C:\Users\Andrea\AppData\Local\Temp\ccu8YOKd.s:3591   .debug_str:00000af5 .LASF17
C:\Users\Andrea\AppData\Local\Temp\ccu8YOKd.s:3621   .debug_str:00000c69 .LASF18
C:\Users\Andrea\AppData\Local\Temp\ccu8YOKd.s:3593   .debug_str:00000afd .LASF32
C:\Users\Andrea\AppData\Local\Temp\ccu8YOKd.s:3337   .debug_str:0000005a .LASF19
C:\Users\Andrea\AppData\Local\Temp\ccu8YOKd.s:3525   .debug_str:000007e2 .LASF20
C:\Users\Andrea\AppData\Local\Temp\ccu8YOKd.s:3351   .debug_str:000000cd .LASF21
C:\Users\Andrea\AppData\Local\Temp\ccu8YOKd.s:3443   .debug_str:0000044b .LASF22
C:\Users\Andrea\AppData\Local\Temp\ccu8YOKd.s:3487   .debug_str:0000065e .LASF23
C:\Users\Andrea\AppData\Local\Temp\ccu8YOKd.s:3683   .debug_str:00000ecf .LASF24
C:\Users\Andrea\AppData\Local\Temp\ccu8YOKd.s:3651   .debug_str:00000d86 .LASF25
C:\Users\Andrea\AppData\Local\Temp\ccu8YOKd.s:3677   .debug_str:00000e9c .LASF26
C:\Users\Andrea\AppData\Local\Temp\ccu8YOKd.s:3691   .debug_str:00000f2d .LASF27
C:\Users\Andrea\AppData\Local\Temp\ccu8YOKd.s:3743   .debug_str:000010fb .LASF28
C:\Users\Andrea\AppData\Local\Temp\ccu8YOKd.s:3695   .debug_str:00000f3e .LASF29
C:\Users\Andrea\AppData\Local\Temp\ccu8YOKd.s:3545   .debug_str:000008ad .LASF30
C:\Users\Andrea\AppData\Local\Temp\ccu8YOKd.s:3655   .debug_str:00000db8 .LASF31
C:\Users\Andrea\AppData\Local\Temp\ccu8YOKd.s:3499   .debug_str:000006ae .LASF33
C:\Users\Andrea\AppData\Local\Temp\ccu8YOKd.s:3343   .debug_str:00000099 .LASF34
C:\Users\Andrea\AppData\Local\Temp\ccu8YOKd.s:3585   .debug_str:00000abf .LASF35
C:\Users\Andrea\AppData\Local\Temp\ccu8YOKd.s:3421   .debug_str:00000392 .LASF36
C:\Users\Andrea\AppData\Local\Temp\ccu8YOKd.s:3609   .debug_str:00000be1 .LASF37
C:\Users\Andrea\AppData\Local\Temp\ccu8YOKd.s:3331   .debug_str:00000028 .LASF38
C:\Users\Andrea\AppData\Local\Temp\ccu8YOKd.s:3359   .debug_str:00000120 .LASF39
C:\Users\Andrea\AppData\Local\Temp\ccu8YOKd.s:3353   .debug_str:000000d7 .LASF40
C:\Users\Andrea\AppData\Local\Temp\ccu8YOKd.s:3497   .debug_str:0000069d .LASF41
C:\Users\Andrea\AppData\Local\Temp\ccu8YOKd.s:3463   .debug_str:00000533 .LASF42
C:\Users\Andrea\AppData\Local\Temp\ccu8YOKd.s:3541   .debug_str:00000899 .LASF43
C:\Users\Andrea\AppData\Local\Temp\ccu8YOKd.s:3491   .debug_str:0000066b .LASF44
C:\Users\Andrea\AppData\Local\Temp\ccu8YOKd.s:3635   .debug_str:00000cd5 .LASF45
C:\Users\Andrea\AppData\Local\Temp\ccu8YOKd.s:3393   .debug_str:0000028e .LASF46
C:\Users\Andrea\AppData\Local\Temp\ccu8YOKd.s:3493   .debug_str:00000672 .LASF47
C:\Users\Andrea\AppData\Local\Temp\ccu8YOKd.s:3379   .debug_str:000001e8 .LASF48
C:\Users\Andrea\AppData\Local\Temp\ccu8YOKd.s:3515   .debug_str:00000768 .LASF49
C:\Users\Andrea\AppData\Local\Temp\ccu8YOKd.s:3639   .debug_str:00000cf7 .LASF50
C:\Users\Andrea\AppData\Local\Temp\ccu8YOKd.s:3729   .debug_str:00001068 .LASF51
C:\Users\Andrea\AppData\Local\Temp\ccu8YOKd.s:3345   .debug_str:0000009f .LASF52
C:\Users\Andrea\AppData\Local\Temp\ccu8YOKd.s:3371   .debug_str:0000017c .LASF53
C:\Users\Andrea\AppData\Local\Temp\ccu8YOKd.s:3543   .debug_str:000008a6 .LASF54
C:\Users\Andrea\AppData\Local\Temp\ccu8YOKd.s:3347   .debug_str:000000b0 .LASF55
C:\Users\Andrea\AppData\Local\Temp\ccu8YOKd.s:3437   .debug_str:00000408 .LASF56
C:\Users\Andrea\AppData\Local\Temp\ccu8YOKd.s:3623   .debug_str:00000c71 .LASF57
C:\Users\Andrea\AppData\Local\Temp\ccu8YOKd.s:3671   .debug_str:00000e64 .LASF58
C:\Users\Andrea\AppData\Local\Temp\ccu8YOKd.s:3709   .debug_str:00000fa3 .LASF59
C:\Users\Andrea\AppData\Local\Temp\ccu8YOKd.s:3449   .debug_str:0000048d .LASF60
C:\Users\Andrea\AppData\Local\Temp\ccu8YOKd.s:3391   .debug_str:00000287 .LASF61
C:\Users\Andrea\AppData\Local\Temp\ccu8YOKd.s:3435   .debug_str:00000401 .LASF62
C:\Users\Andrea\AppData\Local\Temp\ccu8YOKd.s:3707   .debug_str:00000f9c .LASF63
C:\Users\Andrea\AppData\Local\Temp\ccu8YOKd.s:3641   .debug_str:00000cfc .LASF64
C:\Users\Andrea\AppData\Local\Temp\ccu8YOKd.s:3517   .debug_str:00000775 .LASF65
C:\Users\Andrea\AppData\Local\Temp\ccu8YOKd.s:3339   .debug_str:00000060 .LASF66
C:\Users\Andrea\AppData\Local\Temp\ccu8YOKd.s:3737   .debug_str:000010b5 .LASF67
C:\Users\Andrea\AppData\Local\Temp\ccu8YOKd.s:3699   .debug_str:00000f50 .LASF68
C:\Users\Andrea\AppData\Local\Temp\ccu8YOKd.s:3419   .debug_str:0000038d .LASF69
C:\Users\Andrea\AppData\Local\Temp\ccu8YOKd.s:3383   .debug_str:00000208 .LASF70
C:\Users\Andrea\AppData\Local\Temp\ccu8YOKd.s:3645   .debug_str:00000d37 .LASF207
C:\Users\Andrea\AppData\Local\Temp\ccu8YOKd.s:3575   .debug_str:00000a59 .LASF71
C:\Users\Andrea\AppData\Local\Temp\ccu8YOKd.s:3607   .debug_str:00000bd2 .LASF72
C:\Users\Andrea\AppData\Local\Temp\ccu8YOKd.s:3589   .debug_str:00000ae6 .LASF73
C:\Users\Andrea\AppData\Local\Temp\ccu8YOKd.s:3381   .debug_str:000001f6 .LASF74
C:\Users\Andrea\AppData\Local\Temp\ccu8YOKd.s:3595   .debug_str:00000b0c .LASF75
C:\Users\Andrea\AppData\Local\Temp\ccu8YOKd.s:3727   .debug_str:00001053 .LASF76
C:\Users\Andrea\AppData\Local\Temp\ccu8YOKd.s:3679   .debug_str:00000ea6 .LASF77
C:\Users\Andrea\AppData\Local\Temp\ccu8YOKd.s:3615   .debug_str:00000c36 .LASF78
C:\Users\Andrea\AppData\Local\Temp\ccu8YOKd.s:3617   .debug_str:00000c49 .LASF79
C:\Users\Andrea\AppData\Local\Temp\ccu8YOKd.s:3349   .debug_str:000000ba .LASF80
C:\Users\Andrea\AppData\Local\Temp\ccu8YOKd.s:3453   .debug_str:000004b5 .LASF81
C:\Users\Andrea\AppData\Local\Temp\ccu8YOKd.s:3705   .debug_str:00000f89 .LASF82
C:\Users\Andrea\AppData\Local\Temp\ccu8YOKd.s:3665   .debug_str:00000e19 .LASF83
C:\Users\Andrea\AppData\Local\Temp\ccu8YOKd.s:3573   .debug_str:00000a44 .LASF84
C:\Users\Andrea\AppData\Local\Temp\ccu8YOKd.s:3503   .debug_str:000006d5 .LASF85
C:\Users\Andrea\AppData\Local\Temp\ccu8YOKd.s:3523   .debug_str:000007b3 .LASF86
C:\Users\Andrea\AppData\Local\Temp\ccu8YOKd.s:3471   .debug_str:0000058e .LASF87
C:\Users\Andrea\AppData\Local\Temp\ccu8YOKd.s:3605   .debug_str:00000b9d .LASF88
C:\Users\Andrea\AppData\Local\Temp\ccu8YOKd.s:3561   .debug_str:00000964 .LASF89
C:\Users\Andrea\AppData\Local\Temp\ccu8YOKd.s:3661   .debug_str:00000dd7 .LASF90
C:\Users\Andrea\AppData\Local\Temp\ccu8YOKd.s:3527   .debug_str:000007e9 .LASF91
C:\Users\Andrea\AppData\Local\Temp\ccu8YOKd.s:3643   .debug_str:00000d02 .LASF92
C:\Users\Andrea\AppData\Local\Temp\ccu8YOKd.s:3611   .debug_str:00000bed .LASF93
C:\Users\Andrea\AppData\Local\Temp\ccu8YOKd.s:3601   .debug_str:00000b56 .LASF94
C:\Users\Andrea\AppData\Local\Temp\ccu8YOKd.s:3457   .debug_str:000004ee .LASF95
C:\Users\Andrea\AppData\Local\Temp\ccu8YOKd.s:3459   .debug_str:00000505 .LASF96
C:\Users\Andrea\AppData\Local\Temp\ccu8YOKd.s:3461   .debug_str:0000051c .LASF97
C:\Users\Andrea\AppData\Local\Temp\ccu8YOKd.s:3741   .debug_str:000010e4 .LASF98
C:\Users\Andrea\AppData\Local\Temp\ccu8YOKd.s:3465   .debug_str:0000053b .LASF99
C:\Users\Andrea\AppData\Local\Temp\ccu8YOKd.s:3467   .debug_str:00000552 .LASF100
C:\Users\Andrea\AppData\Local\Temp\ccu8YOKd.s:3747   .debug_str:00001115 .LASF101
C:\Users\Andrea\AppData\Local\Temp\ccu8YOKd.s:3327   .debug_str:00000005 .LASF102
C:\Users\Andrea\AppData\Local\Temp\ccu8YOKd.s:3441   .debug_str:00000433 .LASF103
C:\Users\Andrea\AppData\Local\Temp\ccu8YOKd.s:3505   .debug_str:000006ea .LASF104
C:\Users\Andrea\AppData\Local\Temp\ccu8YOKd.s:3723   .debug_str:00001032 .LASF105
C:\Users\Andrea\AppData\Local\Temp\ccu8YOKd.s:3731   .debug_str:00001070 .LASF106
C:\Users\Andrea\AppData\Local\Temp\ccu8YOKd.s:3547   .debug_str:000008bc .LASF107
C:\Users\Andrea\AppData\Local\Temp\ccu8YOKd.s:3735   .debug_str:0000109d .LASF108
C:\Users\Andrea\AppData\Local\Temp\ccu8YOKd.s:3551   .debug_str:000008ee .LASF109
C:\Users\Andrea\AppData\Local\Temp\ccu8YOKd.s:3553   .debug_str:00000906 .LASF110
C:\Users\Andrea\AppData\Local\Temp\ccu8YOKd.s:3507   .debug_str:00000702 .LASF111
C:\Users\Andrea\AppData\Local\Temp\ccu8YOKd.s:3599   .debug_str:00000b3d .LASF112
C:\Users\Andrea\AppData\Local\Temp\ccu8YOKd.s:3511   .debug_str:00000736 .LASF113
C:\Users\Andrea\AppData\Local\Temp\ccu8YOKd.s:3513   .debug_str:0000074f .LASF114
C:\Users\Andrea\AppData\Local\Temp\ccu8YOKd.s:3569   .debug_str:000009fd .LASF115
C:\Users\Andrea\AppData\Local\Temp\ccu8YOKd.s:3739   .debug_str:000010c0 .LASF116
C:\Users\Andrea\AppData\Local\Temp\ccu8YOKd.s:3519   .debug_str:00000781 .LASF117
C:\Users\Andrea\AppData\Local\Temp\ccu8YOKd.s:3521   .debug_str:0000079a .LASF118
C:\Users\Andrea\AppData\Local\Temp\ccu8YOKd.s:3577   .debug_str:00000a66 .LASF119
C:\Users\Andrea\AppData\Local\Temp\ccu8YOKd.s:3701   .debug_str:00000f5b .LASF120
C:\Users\Andrea\AppData\Local\Temp\ccu8YOKd.s:3407   .debug_str:000002f8 .LASF121
C:\Users\Andrea\AppData\Local\Temp\ccu8YOKd.s:3539   .debug_str:00000884 .LASF122
C:\Users\Andrea\AppData\Local\Temp\ccu8YOKd.s:3637   .debug_str:00000cdc .LASF123
C:\Users\Andrea\AppData\Local\Temp\ccu8YOKd.s:3603   .debug_str:00000b8a .LASF124
C:\Users\Andrea\AppData\Local\Temp\ccu8YOKd.s:3745   .debug_str:00001105 .LASF125
C:\Users\Andrea\AppData\Local\Temp\ccu8YOKd.s:3361   .debug_str:0000012c .LASF126
C:\Users\Andrea\AppData\Local\Temp\ccu8YOKd.s:3475   .debug_str:000005da .LASF127
C:\Users\Andrea\AppData\Local\Temp\ccu8YOKd.s:3667   .debug_str:00000e2d .LASF128
C:\Users\Andrea\AppData\Local\Temp\ccu8YOKd.s:3479   .debug_str:00000619 .LASF129
C:\Users\Andrea\AppData\Local\Temp\ccu8YOKd.s:3445   .debug_str:00000453 .LASF130
C:\Users\Andrea\AppData\Local\Temp\ccu8YOKd.s:3469   .debug_str:00000569 .LASF131
C:\Users\Andrea\AppData\Local\Temp\ccu8YOKd.s:3429   .debug_str:000003bc .LASF132
C:\Users\Andrea\AppData\Local\Temp\ccu8YOKd.s:3563   .debug_str:00000998 .LASF133
C:\Users\Andrea\AppData\Local\Temp\ccu8YOKd.s:3495   .debug_str:00000679 .LASF134
C:\Users\Andrea\AppData\Local\Temp\ccu8YOKd.s:3447   .debug_str:0000046d .LASF135
C:\Users\Andrea\AppData\Local\Temp\ccu8YOKd.s:3681   .debug_str:00000eb5 .LASF136
C:\Users\Andrea\AppData\Local\Temp\ccu8YOKd.s:3431   .debug_str:000003d8 .LASF137
C:\Users\Andrea\AppData\Local\Temp\ccu8YOKd.s:3713   .debug_str:00000fb4 .LASF138
C:\Users\Andrea\AppData\Local\Temp\ccu8YOKd.s:3687   .debug_str:00000eef .LASF139
C:\Users\Andrea\AppData\Local\Temp\ccu8YOKd.s:3357   .debug_str:000000fa .LASF140
C:\Users\Andrea\AppData\Local\Temp\ccu8YOKd.s:3415   .debug_str:0000034f .LASF141
C:\Users\Andrea\AppData\Local\Temp\ccu8YOKd.s:3715   .debug_str:00000fdf .LASF142
C:\Users\Andrea\AppData\Local\Temp\ccu8YOKd.s:3555   .debug_str:0000091e .LASF143
C:\Users\Andrea\AppData\Local\Temp\ccu8YOKd.s:3549   .debug_str:000008d4 .LASF144
C:\Users\Andrea\AppData\Local\Temp\ccu8YOKd.s:3685   .debug_str:00000ed8 .LASF145
C:\Users\Andrea\AppData\Local\Temp\ccu8YOKd.s:3399   .debug_str:000002a7 .LASF146
C:\Users\Andrea\AppData\Local\Temp\ccu8YOKd.s:3477   .debug_str:000005f7 .LASF147
C:\Users\Andrea\AppData\Local\Temp\ccu8YOKd.s:3451   .debug_str:00000492 .LASF148
C:\Users\Andrea\AppData\Local\Temp\ccu8YOKd.s:3647   .debug_str:00000d42 .LASF149
C:\Users\Andrea\AppData\Local\Temp\ccu8YOKd.s:3567   .debug_str:000009ce .LASF150
C:\Users\Andrea\AppData\Local\Temp\ccu8YOKd.s:3571   .debug_str:00000a16 .LASF151
C:\Users\Andrea\AppData\Local\Temp\ccu8YOKd.s:3653   .debug_str:00000d8d .LASF152
C:\Users\Andrea\AppData\Local\Temp\ccu8YOKd.s:3375   .debug_str:000001a3 .LASF153
C:\Users\Andrea\AppData\Local\Temp\ccu8YOKd.s:3341   .debug_str:0000006b .LASF154
C:\Users\Andrea\AppData\Local\Temp\ccu8YOKd.s:3509   .debug_str:0000071b .LASF155
C:\Users\Andrea\AppData\Local\Temp\ccu8YOKd.s:3579   .debug_str:00000a86 .LASF156
C:\Users\Andrea\AppData\Local\Temp\ccu8YOKd.s:3417   .debug_str:00000373 .LASF157
C:\Users\Andrea\AppData\Local\Temp\ccu8YOKd.s:3413   .debug_str:00000337 .LASF158
C:\Users\Andrea\AppData\Local\Temp\ccu8YOKd.s:3597   .debug_str:00000b1e .LASF159
C:\Users\Andrea\AppData\Local\Temp\ccu8YOKd.s:3587   .debug_str:00000ac8 .LASF160
C:\Users\Andrea\AppData\Local\Temp\ccu8YOKd.s:3537   .debug_str:00000869 .LASF161
C:\Users\Andrea\AppData\Local\Temp\ccu8YOKd.s:3669   .debug_str:00000e47 .LASF162
C:\Users\Andrea\AppData\Local\Temp\ccu8YOKd.s:3629   .debug_str:00000c99 .LASF163
C:\Users\Andrea\AppData\Local\Temp\ccu8YOKd.s:3689   .debug_str:00000f14 .LASF164
C:\Users\Andrea\AppData\Local\Temp\ccu8YOKd.s:3633   .debug_str:00000cbb .LASF165
C:\Users\Andrea\AppData\Local\Temp\ccu8YOKd.s:3355   .debug_str:000000e1 .LASF166
C:\Users\Andrea\AppData\Local\Temp\ccu8YOKd.s:3557   .debug_str:0000093d .LASF167
C:\Users\Andrea\AppData\Local\Temp\ccu8YOKd.s:3535   .debug_str:0000084f .LASF168
C:\Users\Andrea\AppData\Local\Temp\ccu8YOKd.s:3659   .debug_str:00000dcc .LASF169
C:\Users\Andrea\AppData\Local\Temp\ccu8YOKd.s:3369   .debug_str:00000168 .LASF170
C:\Users\Andrea\AppData\Local\Temp\ccu8YOKd.s:3365   .debug_str:00000144 .LASF171
C:\Users\Andrea\AppData\Local\Temp\ccu8YOKd.s:3409   .debug_str:0000031d .LASF172
C:\Users\Andrea\AppData\Local\Temp\ccu8YOKd.s:3581   .debug_str:00000aa6 .LASF173
C:\Users\Andrea\AppData\Local\Temp\ccu8YOKd.s:3411   .debug_str:0000032c .LASF174
C:\Users\Andrea\AppData\Local\Temp\ccu8YOKd.s:3693   .debug_str:00000f32 .LASF175
C:\Users\Andrea\AppData\Local\Temp\ccu8YOKd.s:3405   .debug_str:000002e9 .LASF176
C:\Users\Andrea\AppData\Local\Temp\ccu8YOKd.s:3619   .debug_str:00000c5c .LASF177
C:\Users\Andrea\AppData\Local\Temp\ccu8YOKd.s:3531   .debug_str:00000829 .LASF178
C:\Users\Andrea\AppData\Local\Temp\ccu8YOKd.s:3483   .debug_str:00000642 .LASF179
C:\Users\Andrea\AppData\Local\Temp\ccu8YOKd.s:3373   .debug_str:0000019a .LASF180
C:\Users\Andrea\AppData\Local\Temp\ccu8YOKd.s:3711   .debug_str:00000fac .LASF181
C:\Users\Andrea\AppData\Local\Temp\ccu8YOKd.s:3559   .debug_str:00000958 .LASF182
C:\Users\Andrea\AppData\Local\Temp\ccu8YOKd.s:3533   .debug_str:0000083c .LASF183
C:\Users\Andrea\AppData\Local\Temp\ccu8YOKd.s:3565   .debug_str:000009b2 .LASF208
C:\Users\Andrea\AppData\Local\Temp\ccu8YOKd.s:3627   .debug_str:00000c85 .LASF196
C:\Users\Andrea\AppData\Local\Temp\ccu8YOKd.s:20     .text.LIB_TaskMonitorInit:00000016 .LFE0
C:\Users\Andrea\AppData\Local\Temp\ccu8YOKd.s:3481   .debug_str:00000635 .LASF209
C:\Users\Andrea\AppData\Local\Temp\ccu8YOKd.s:3657   .debug_str:00000dc5 .LASF184
C:\Users\Andrea\AppData\Local\Temp\ccu8YOKd.s:3363   .debug_str:0000013b .LASF185
C:\Users\Andrea\AppData\Local\Temp\ccu8YOKd.s:3473   .debug_str:000005ca .LASF187
C:\Users\Andrea\AppData\Local\Temp\ccu8YOKd.s:105    .text.LIB_TaskMonitor:00000069 .LFE1
C:\Users\Andrea\AppData\Local\Temp\ccu8YOKd.s:3335   .debug_str:00000053 .LASF199
C:\Users\Andrea\AppData\Local\Temp\ccu8YOKd.s:3092   .debug_loc:00000000 .LLST0
C:\Users\Andrea\AppData\Local\Temp\ccu8YOKd.s:3329   .debug_str:0000001c .LASF186
C:\Users\Andrea\AppData\Local\Temp\ccu8YOKd.s:43     .text.LIB_TaskMonitor:00000019 .LBB10
C:\Users\Andrea\AppData\Local\Temp\ccu8YOKd.s:3110   .debug_loc:0000002c .LLST1
C:\Users\Andrea\AppData\Local\Temp\ccu8YOKd.s:40     .text.LIB_TaskMonitor:00000013 .LVL2
C:\Users\Andrea\AppData\Local\Temp\ccu8YOKd.s:3673   .debug_str:00000e6d .LASF188
C:\Users\Andrea\AppData\Local\Temp\ccu8YOKd.s:150    .text.LIB_TaskMonitoringConfig:00000033 .LFE3
C:\Users\Andrea\AppData\Local\Temp\ccu8YOKd.s:3127   .debug_loc:00000057 .LLST2
C:\Users\Andrea\AppData\Local\Temp\ccu8YOKd.s:3489   .debug_str:00000663 .LASF189
C:\Users\Andrea\AppData\Local\Temp\ccu8YOKd.s:3395   .debug_str:0000029a .LASF190
C:\Users\Andrea\AppData\Local\Temp\ccu8YOKd.s:140    .text.LIB_TaskMonitoringConfig:00000029 .LBB14
C:\Users\Andrea\AppData\Local\Temp\ccu8YOKd.s:149    .text.LIB_TaskMonitoringConfig:00000033 .LBE14
C:\Users\Andrea\AppData\Local\Temp\ccu8YOKd.s:3141   .debug_loc:00000078 .LLST3
C:\Users\Andrea\AppData\Local\Temp\ccu8YOKd.s:3675   .debug_str:00000e86 .LASF191
C:\Users\Andrea\AppData\Local\Temp\ccu8YOKd.s:188    .text.LIB_TaskStartActivity:0000002c .LFE4
C:\Users\Andrea\AppData\Local\Temp\ccu8YOKd.s:3149   .debug_loc:0000008c .LLST4
C:\Users\Andrea\AppData\Local\Temp\ccu8YOKd.s:180    .text.LIB_TaskStartActivity:00000022 .LBB16
C:\Users\Andrea\AppData\Local\Temp\ccu8YOKd.s:187    .text.LIB_TaskStartActivity:0000002c .LBE16
C:\Users\Andrea\AppData\Local\Temp\ccu8YOKd.s:3439   .debug_str:0000041f .LASF192
C:\Users\Andrea\AppData\Local\Temp\ccu8YOKd.s:225    .text.LIB_TaskEndActivity:0000002c .LFE5
C:\Users\Andrea\AppData\Local\Temp\ccu8YOKd.s:3163   .debug_loc:000000ad .LLST5
C:\Users\Andrea\AppData\Local\Temp\ccu8YOKd.s:217    .text.LIB_TaskEndActivity:00000022 .LBB18
C:\Users\Andrea\AppData\Local\Temp\ccu8YOKd.s:224    .text.LIB_TaskEndActivity:0000002c .LBE18
C:\Users\Andrea\AppData\Local\Temp\ccu8YOKd.s:3649   .debug_str:00000d71 .LASF193
C:\Users\Andrea\AppData\Local\Temp\ccu8YOKd.s:248    .text.LIB_HelloTaskMonitor:00000010 .LFE2
C:\Users\Andrea\AppData\Local\Temp\ccu8YOKd.s:3177   .debug_loc:000000ce .LLST6
C:\Users\Andrea\AppData\Local\Temp\ccu8YOKd.s:3190   .debug_loc:000000ee .LLST7
C:\Users\Andrea\AppData\Local\Temp\ccu8YOKd.s:239    .text.LIB_HelloTaskMonitor:00000008 .LVL19
C:\Users\Andrea\AppData\Local\Temp\ccu8YOKd.s:247    .text.LIB_HelloTaskMonitor:00000010 .LVL21
C:\Users\Andrea\AppData\Local\Temp\ccu8YOKd.s:3401   .debug_str:000002c8 .LASF194
C:\Users\Andrea\AppData\Local\Temp\ccu8YOKd.s:272    .text.LIB_SetTask:0000001d .LFE6
C:\Users\Andrea\AppData\Local\Temp\ccu8YOKd.s:3212   .debug_loc:00000125 .LLST8
C:\Users\Andrea\AppData\Local\Temp\ccu8YOKd.s:3719   .debug_str:00001014 .LASF195
C:\Users\Andrea\AppData\Local\Temp\ccu8YOKd.s:299    .text.LIB_IRQMonitor_Enter:0000001f .LFE7
C:\Users\Andrea\AppData\Local\Temp\ccu8YOKd.s:3226   .debug_loc:00000146 .LLST9
C:\Users\Andrea\AppData\Local\Temp\ccu8YOKd.s:290    .text.LIB_IRQMonitor_Enter:00000016 .LVL24
C:\Users\Andrea\AppData\Local\Temp\ccu8YOKd.s:3377   .debug_str:000001d4 .LASF197
C:\Users\Andrea\AppData\Local\Temp\ccu8YOKd.s:313    .text.LIB_IRQMonitor_Exit:0000000f .LFE8
C:\Users\Andrea\AppData\Local\Temp\ccu8YOKd.s:3613   .debug_str:00000c22 .LASF198
C:\Users\Andrea\AppData\Local\Temp\ccu8YOKd.s:331    .text.LIB_IRQMonitor_Init:00000016 .LFE9
C:\Users\Andrea\AppData\Local\Temp\ccu8YOKd.s:3625   .debug_str:00000c76 .LASF210
C:\Users\Andrea\AppData\Local\Temp\ccu8YOKd.s:421    .text.LIB_IRQMonitor:0000009c .LFE10
C:\Users\Andrea\AppData\Local\Temp\ccu8YOKd.s:3239   .debug_loc:00000166 .LLST10
C:\Users\Andrea\AppData\Local\Temp\ccu8YOKd.s:3733   .debug_str:00001088 .LASF200
C:\Users\Andrea\AppData\Local\Temp\ccu8YOKd.s:3433   .debug_str:000003f6 .LASF201
C:\Users\Andrea\AppData\Local\Temp\ccu8YOKd.s:3403   .debug_str:000002d4 .LASF202
C:\Users\Andrea\AppData\Local\Temp\ccu8YOKd.s:3385   .debug_str:00000213 .LASF203
C:\Users\Andrea\AppData\Local\Temp\ccu8YOKd.s:3717   .debug_str:00001003 .LASF204
C:\Users\Andrea\AppData\Local\Temp\ccu8YOKd.s:3333   .debug_str:0000003b .LASF211
C:\Users\Andrea\AppData\Local\Temp\ccu8YOKd.s:28     .text.LIB_TaskMonitor:00000000 .LVL0
C:\Users\Andrea\AppData\Local\Temp\ccu8YOKd.s:36     .text.LIB_TaskMonitor:0000000c .LVL1
C:\Users\Andrea\AppData\Local\Temp\ccu8YOKd.s:49     .text.LIB_TaskMonitor:00000020 .LVL3
C:\Users\Andrea\AppData\Local\Temp\ccu8YOKd.s:68     .text.LIB_TaskMonitor:00000043 .LVL4
C:\Users\Andrea\AppData\Local\Temp\ccu8YOKd.s:79     .text.LIB_TaskMonitor:0000004d .LVL5
C:\Users\Andrea\AppData\Local\Temp\ccu8YOKd.s:91     .text.LIB_TaskMonitor:00000052 .LVL6
C:\Users\Andrea\AppData\Local\Temp\ccu8YOKd.s:102    .text.LIB_TaskMonitor:00000065 .LVL7
C:\Users\Andrea\AppData\Local\Temp\ccu8YOKd.s:113    .text.LIB_TaskMonitoringConfig:00000000 .LVL8
C:\Users\Andrea\AppData\Local\Temp\ccu8YOKd.s:120    .text.LIB_TaskMonitoringConfig:00000008 .LVL9
C:\Users\Andrea\AppData\Local\Temp\ccu8YOKd.s:139    .text.LIB_TaskMonitoringConfig:00000029 .LVL10
C:\Users\Andrea\AppData\Local\Temp\ccu8YOKd.s:145    .text.LIB_TaskMonitoringConfig:00000032 .LVL11
C:\Users\Andrea\AppData\Local\Temp\ccu8YOKd.s:158    .text.LIB_TaskStartActivity:00000000 .LVL12
C:\Users\Andrea\AppData\Local\Temp\ccu8YOKd.s:162    .text.LIB_TaskStartActivity:00000004 .LVL13
C:\Users\Andrea\AppData\Local\Temp\ccu8YOKd.s:196    .text.LIB_TaskEndActivity:00000000 .LVL15
C:\Users\Andrea\AppData\Local\Temp\ccu8YOKd.s:200    .text.LIB_TaskEndActivity:00000004 .LVL16
C:\Users\Andrea\AppData\Local\Temp\ccu8YOKd.s:235    .text.LIB_HelloTaskMonitor:00000002 .LCFI0
C:\Users\Andrea\AppData\Local\Temp\ccu8YOKd.s:233    .text.LIB_HelloTaskMonitor:00000000 .LVL18
C:\Users\Andrea\AppData\Local\Temp\ccu8YOKd.s:244    .text.LIB_HelloTaskMonitor:0000000c .LVL20
C:\Users\Andrea\AppData\Local\Temp\ccu8YOKd.s:256    .text.LIB_SetTask:00000000 .LVL22
C:\Users\Andrea\AppData\Local\Temp\ccu8YOKd.s:260    .text.LIB_SetTask:00000004 .LVL23
C:\Users\Andrea\AppData\Local\Temp\ccu8YOKd.s:281    .text.LIB_IRQMonitor_Enter:00000002 .LCFI1
C:\Users\Andrea\AppData\Local\Temp\ccu8YOKd.s:340    .text.LIB_IRQMonitor:00000002 .LCFI2
C:\Users\Andrea\AppData\Local\Temp\ccu8YOKd.s:580    .debug_info:00000000 .Ldebug_info0
C:\Users\Andrea\AppData\Local\Temp\ccu8YOKd.s:74     .text.LIB_TaskMonitor:00000048 .LBE10
C:\Users\Andrea\AppData\Local\Temp\ccu8YOKd.s:81     .text.LIB_TaskMonitor:0000004d .LBB13
C:\Users\Andrea\AppData\Local\Temp\ccu8YOKd.s:99     .text.LIB_TaskMonitor:00000061 .LBE13
C:\Users\Andrea\AppData\Local\Temp\ccu8YOKd.s:44     .text.LIB_TaskMonitor:00000019 .LBB11
C:\Users\Andrea\AppData\Local\Temp\ccu8YOKd.s:73     .text.LIB_TaskMonitor:00000048 .LBE11
C:\Users\Andrea\AppData\Local\Temp\ccu8YOKd.s:82     .text.LIB_TaskMonitor:0000004d .LBB12
C:\Users\Andrea\AppData\Local\Temp\ccu8YOKd.s:98     .text.LIB_TaskMonitor:00000061 .LBE12

UNDEFINED SYMBOLS
_LIB_Error_Fatal_Handler
_OS_DisableInterrupt
_OS_Global
_OS_EnableInterrupt
