   1                             		.file	"LIB_BackUp.c"
   2                             		.section P,"ax"
   3                             	.Ltext0:
   4                             		.section	.text.LIB_Backup_CheckIfIsTimeToBackup,"ax",@progbits
   5                             		.global	_LIB_Backup_CheckIfIsTimeToBackup
   7                             	_LIB_Backup_CheckIfIsTimeToBackup:
   8                             	.LFB1:
   9                             		.file 1 "C:/Workspace/FW_Inertia/branch_indesit/PlatformLibrary/LIB_BackUp/LIB_BackUp.c"
   1:C:/Workspace/FW_Inertia/branch_indesit/PlatformLibrary/LIB_BackUp\LIB_BackUp.c **** /*
   2:C:/Workspace/FW_Inertia/branch_indesit/PlatformLibrary/LIB_BackUp\LIB_BackUp.c **** Copyright (c) 2004-2005, Indesit Company, I.D.D..
   3:C:/Workspace/FW_Inertia/branch_indesit/PlatformLibrary/LIB_BackUp\LIB_BackUp.c **** Tutti i diritti sono riservati. All rights reserved.
   4:C:/Workspace/FW_Inertia/branch_indesit/PlatformLibrary/LIB_BackUp\LIB_BackUp.c **** */
   5:C:/Workspace/FW_Inertia/branch_indesit/PlatformLibrary/LIB_BackUp\LIB_BackUp.c **** 
   6:C:/Workspace/FW_Inertia/branch_indesit/PlatformLibrary/LIB_BackUp\LIB_BackUp.c **** /**
   7:C:/Workspace/FW_Inertia/branch_indesit/PlatformLibrary/LIB_BackUp\LIB_BackUp.c ****  *\page pageLibBackup
   8:C:/Workspace/FW_Inertia/branch_indesit/PlatformLibrary/LIB_BackUp\LIB_BackUp.c ****  *\ingroup LIB_BackUp
   9:C:/Workspace/FW_Inertia/branch_indesit/PlatformLibrary/LIB_BackUp\LIB_BackUp.c ****  */
  10:C:/Workspace/FW_Inertia/branch_indesit/PlatformLibrary/LIB_BackUp\LIB_BackUp.c **** /**
  11:C:/Workspace/FW_Inertia/branch_indesit/PlatformLibrary/LIB_BackUp\LIB_BackUp.c **** \n
  12:C:/Workspace/FW_Inertia/branch_indesit/PlatformLibrary/LIB_BackUp\LIB_BackUp.c **** \par		LIB_BackUp.c
  13:C:/Workspace/FW_Inertia/branch_indesit/PlatformLibrary/LIB_BackUp\LIB_BackUp.c **** \n			Implementation of all functions necessary to achieve the aim.
  14:C:/Workspace/FW_Inertia/branch_indesit/PlatformLibrary/LIB_BackUp\LIB_BackUp.c **** \n
  15:C:/Workspace/FW_Inertia/branch_indesit/PlatformLibrary/LIB_BackUp\LIB_BackUp.c **** \file		LIB_BackUp.c
  16:C:/Workspace/FW_Inertia/branch_indesit/PlatformLibrary/LIB_BackUp\LIB_BackUp.c **** \ingroup	LIB_BackUp
  17:C:/Workspace/FW_Inertia/branch_indesit/PlatformLibrary/LIB_BackUp\LIB_BackUp.c **** \date		Feb 07, 2011
  18:C:/Workspace/FW_Inertia/branch_indesit/PlatformLibrary/LIB_BackUp\LIB_BackUp.c **** \version	01.00.00
  19:C:/Workspace/FW_Inertia/branch_indesit/PlatformLibrary/LIB_BackUp\LIB_BackUp.c **** \author		stefano.ughi
  20:C:/Workspace/FW_Inertia/branch_indesit/PlatformLibrary/LIB_BackUp\LIB_BackUp.c **** \n
  21:C:/Workspace/FW_Inertia/branch_indesit/PlatformLibrary/LIB_BackUp\LIB_BackUp.c **** \n
  22:C:/Workspace/FW_Inertia/branch_indesit/PlatformLibrary/LIB_BackUp\LIB_BackUp.c **** \par\b	History:
  23:C:/Workspace/FW_Inertia/branch_indesit/PlatformLibrary/LIB_BackUp\LIB_BackUp.c **** \n 		01.00.01
  24:C:/Workspace/FW_Inertia/branch_indesit/PlatformLibrary/LIB_BackUp\LIB_BackUp.c **** \n		Apr 14, 2011
  25:C:/Workspace/FW_Inertia/branch_indesit/PlatformLibrary/LIB_BackUp\LIB_BackUp.c **** \n		stefano.ughi
  26:C:/Workspace/FW_Inertia/branch_indesit/PlatformLibrary/LIB_BackUp\LIB_BackUp.c **** \n		changes
  27:C:/Workspace/FW_Inertia/branch_indesit/PlatformLibrary/LIB_BackUp\LIB_BackUp.c **** \n 		    - added  LIB_Backup_SetBackupControlMonitor(BACKUP_NO_SOURCE) inside void Task_Backup(void
  28:C:/Workspace/FW_Inertia/branch_indesit/PlatformLibrary/LIB_BackUp\LIB_BackUp.c **** \n 		01.00.00
  29:C:/Workspace/FW_Inertia/branch_indesit/PlatformLibrary/LIB_BackUp\LIB_BackUp.c **** \n		Feb 07, 2011
  30:C:/Workspace/FW_Inertia/branch_indesit/PlatformLibrary/LIB_BackUp\LIB_BackUp.c **** \n		stefano.ughi
  31:C:/Workspace/FW_Inertia/branch_indesit/PlatformLibrary/LIB_BackUp\LIB_BackUp.c **** \n		changes
  32:C:/Workspace/FW_Inertia/branch_indesit/PlatformLibrary/LIB_BackUp\LIB_BackUp.c **** \n 			Creation
  33:C:/Workspace/FW_Inertia/branch_indesit/PlatformLibrary/LIB_BackUp\LIB_BackUp.c **** \n
  34:C:/Workspace/FW_Inertia/branch_indesit/PlatformLibrary/LIB_BackUp\LIB_BackUp.c **** \n
  35:C:/Workspace/FW_Inertia/branch_indesit/PlatformLibrary/LIB_BackUp\LIB_BackUp.c **** */
  36:C:/Workspace/FW_Inertia/branch_indesit/PlatformLibrary/LIB_BackUp\LIB_BackUp.c **** #define MODULE_BODY_LIB_BACKUP
  37:C:/Workspace/FW_Inertia/branch_indesit/PlatformLibrary/LIB_BackUp\LIB_BackUp.c **** /* ******** */
  38:C:/Workspace/FW_Inertia/branch_indesit/PlatformLibrary/LIB_BackUp\LIB_BackUp.c **** /* Includes */
  39:C:/Workspace/FW_Inertia/branch_indesit/PlatformLibrary/LIB_BackUp\LIB_BackUp.c **** /* ******** */
  40:C:/Workspace/FW_Inertia/branch_indesit/PlatformLibrary/LIB_BackUp\LIB_BackUp.c **** #include "Config.h"
  41:C:/Workspace/FW_Inertia/branch_indesit/PlatformLibrary/LIB_BackUp\LIB_BackUp.c **** #include "callback.h"
  42:C:/Workspace/FW_Inertia/branch_indesit/PlatformLibrary/LIB_BackUp\LIB_BackUp.c **** #include "LIB_BackUp.h"
  43:C:/Workspace/FW_Inertia/branch_indesit/PlatformLibrary/LIB_BackUp\LIB_BackUp.c **** #include "LIB_Error.h"
  44:C:/Workspace/FW_Inertia/branch_indesit/PlatformLibrary/LIB_BackUp\LIB_BackUp.c **** /*lint -e537 Repeated include file*/
  45:C:/Workspace/FW_Inertia/branch_indesit/PlatformLibrary/LIB_BackUp\LIB_BackUp.c **** #include "LIB_BackupExp.h"
  46:C:/Workspace/FW_Inertia/branch_indesit/PlatformLibrary/LIB_BackUp\LIB_BackUp.c **** /*lint +e537*/
  47:C:/Workspace/FW_Inertia/branch_indesit/PlatformLibrary/LIB_BackUp\LIB_BackUp.c **** #include "Analog.h"
  48:C:/Workspace/FW_Inertia/branch_indesit/PlatformLibrary/LIB_BackUp\LIB_BackUp.c **** #include "OCRST_drv.h"
  49:C:/Workspace/FW_Inertia/branch_indesit/PlatformLibrary/LIB_BackUp\LIB_BackUp.c **** #include "OCDIO_drv.h"
  50:C:/Workspace/FW_Inertia/branch_indesit/PlatformLibrary/LIB_BackUp\LIB_BackUp.c **** #include "OCFLS_drv.h"
  51:C:/Workspace/FW_Inertia/branch_indesit/PlatformLibrary/LIB_BackUp\LIB_BackUp.c **** #include "OCIRQ_drv.h"
  52:C:/Workspace/FW_Inertia/branch_indesit/PlatformLibrary/LIB_BackUp\LIB_BackUp.c **** 
  53:C:/Workspace/FW_Inertia/branch_indesit/PlatformLibrary/LIB_BackUp\LIB_BackUp.c **** #include "OCTPM_drv.h"
  54:C:/Workspace/FW_Inertia/branch_indesit/PlatformLibrary/LIB_BackUp\LIB_BackUp.c **** #if defined (CONFIG_PL_DRV_OCCRC)
  55:C:/Workspace/FW_Inertia/branch_indesit/PlatformLibrary/LIB_BackUp\LIB_BackUp.c **** #include "OCCRC_drv.h"
  56:C:/Workspace/FW_Inertia/branch_indesit/PlatformLibrary/LIB_BackUp\LIB_BackUp.c **** #else
  57:C:/Workspace/FW_Inertia/branch_indesit/PlatformLibrary/LIB_BackUp\LIB_BackUp.c **** #include "SWCRC_drv.h"
  58:C:/Workspace/FW_Inertia/branch_indesit/PlatformLibrary/LIB_BackUp\LIB_BackUp.c **** #endif
  59:C:/Workspace/FW_Inertia/branch_indesit/PlatformLibrary/LIB_BackUp\LIB_BackUp.c **** #include "OutputManager.h"
  60:C:/Workspace/FW_Inertia/branch_indesit/PlatformLibrary/LIB_BackUp\LIB_BackUp.c **** #include "LIB_ZeroCrossing.h"
  61:C:/Workspace/FW_Inertia/branch_indesit/PlatformLibrary/LIB_BackUp\LIB_BackUp.c **** #if defined (RTN_CHECK_WITH_SW_ALARM)
  62:C:/Workspace/FW_Inertia/branch_indesit/PlatformLibrary/LIB_BackUp\LIB_BackUp.c **** #include "PM_SWalarms.h"
  63:C:/Workspace/FW_Inertia/branch_indesit/PlatformLibrary/LIB_BackUp\LIB_BackUp.c **** #endif
  64:C:/Workspace/FW_Inertia/branch_indesit/PlatformLibrary/LIB_BackUp\LIB_BackUp.c **** #if defined(CONFIG_PM_MOTORGATE) /* ex __UNIVERSAL_MOTOR_H */
  65:C:/Workspace/FW_Inertia/branch_indesit/PlatformLibrary/LIB_BackUp\LIB_BackUp.c **** #include "PM_UM_UniversalMotor.h"
  66:C:/Workspace/FW_Inertia/branch_indesit/PlatformLibrary/LIB_BackUp\LIB_BackUp.c **** #endif
  67:C:/Workspace/FW_Inertia/branch_indesit/PlatformLibrary/LIB_BackUp\LIB_BackUp.c **** #if defined(CONFIG_CLASS_B_DATA_INTEGRITY) && defined(CONFIG_CLASS_B_DATA_BACKUP)
  68:C:/Workspace/FW_Inertia/branch_indesit/PlatformLibrary/LIB_BackUp\LIB_BackUp.c **** #include "LIB_ClassBVarBck.h"
  69:C:/Workspace/FW_Inertia/branch_indesit/PlatformLibrary/LIB_BackUp\LIB_BackUp.c **** #endif
  70:C:/Workspace/FW_Inertia/branch_indesit/PlatformLibrary/LIB_BackUp\LIB_BackUp.c **** #include "LIB_Trace.h"
  71:C:/Workspace/FW_Inertia/branch_indesit/PlatformLibrary/LIB_BackUp\LIB_BackUp.c **** #if !defined(CONFIG_TRACE_BACKUP)
  72:C:/Workspace/FW_Inertia/branch_indesit/PlatformLibrary/LIB_BackUp\LIB_BackUp.c **** #define TRACE_BACKUP_START()	{}
  73:C:/Workspace/FW_Inertia/branch_indesit/PlatformLibrary/LIB_BackUp\LIB_BackUp.c **** #define TRACE_BACKUP_END()		{}
  74:C:/Workspace/FW_Inertia/branch_indesit/PlatformLibrary/LIB_BackUp\LIB_BackUp.c **** 
  75:C:/Workspace/FW_Inertia/branch_indesit/PlatformLibrary/LIB_BackUp\LIB_BackUp.c **** #endif
  76:C:/Workspace/FW_Inertia/branch_indesit/PlatformLibrary/LIB_BackUp\LIB_BackUp.c **** /* ****************** */
  77:C:/Workspace/FW_Inertia/branch_indesit/PlatformLibrary/LIB_BackUp\LIB_BackUp.c **** /* Defines and Macros */
  78:C:/Workspace/FW_Inertia/branch_indesit/PlatformLibrary/LIB_BackUp\LIB_BackUp.c **** /* ****************** */
  79:C:/Workspace/FW_Inertia/branch_indesit/PlatformLibrary/LIB_BackUp\LIB_BackUp.c **** 
  80:C:/Workspace/FW_Inertia/branch_indesit/PlatformLibrary/LIB_BackUp\LIB_BackUp.c **** 
  81:C:/Workspace/FW_Inertia/branch_indesit/PlatformLibrary/LIB_BackUp\LIB_BackUp.c **** #if defined(CONFIG_LIB_BACKUP_CHECK_BOTH_TH)
  82:C:/Workspace/FW_Inertia/branch_indesit/PlatformLibrary/LIB_BackUp\LIB_BackUp.c **** #define RTN_RANGE(x)	(((x) < REF_MIN_ADC_UNITS) || ((x) > REF_MAX_ADC_UNITS))
  83:C:/Workspace/FW_Inertia/branch_indesit/PlatformLibrary/LIB_BackUp\LIB_BackUp.c **** 
  84:C:/Workspace/FW_Inertia/branch_indesit/PlatformLibrary/LIB_BackUp\LIB_BackUp.c **** #else
  85:C:/Workspace/FW_Inertia/branch_indesit/PlatformLibrary/LIB_BackUp\LIB_BackUp.c **** #define RTN_RANGE(x)	((x) < REF_MIN_ADC_UNITS)
  86:C:/Workspace/FW_Inertia/branch_indesit/PlatformLibrary/LIB_BackUp\LIB_BackUp.c **** #endif
  87:C:/Workspace/FW_Inertia/branch_indesit/PlatformLibrary/LIB_BackUp\LIB_BackUp.c **** 
  88:C:/Workspace/FW_Inertia/branch_indesit/PlatformLibrary/LIB_BackUp\LIB_BackUp.c **** /* *************************** */
  89:C:/Workspace/FW_Inertia/branch_indesit/PlatformLibrary/LIB_BackUp\LIB_BackUp.c **** /* Typedef, Structs and Unions */
  90:C:/Workspace/FW_Inertia/branch_indesit/PlatformLibrary/LIB_BackUp\LIB_BackUp.c **** /* *************************** */
  91:C:/Workspace/FW_Inertia/branch_indesit/PlatformLibrary/LIB_BackUp\LIB_BackUp.c **** 
  92:C:/Workspace/FW_Inertia/branch_indesit/PlatformLibrary/LIB_BackUp\LIB_BackUp.c **** 
  93:C:/Workspace/FW_Inertia/branch_indesit/PlatformLibrary/LIB_BackUp\LIB_BackUp.c **** /* ********* */
  94:C:/Workspace/FW_Inertia/branch_indesit/PlatformLibrary/LIB_BackUp\LIB_BackUp.c **** /* Variables */
  95:C:/Workspace/FW_Inertia/branch_indesit/PlatformLibrary/LIB_BackUp\LIB_BackUp.c **** /* ********* */
  96:C:/Workspace/FW_Inertia/branch_indesit/PlatformLibrary/LIB_BackUp\LIB_BackUp.c **** 
  97:C:/Workspace/FW_Inertia/branch_indesit/PlatformLibrary/LIB_BackUp\LIB_BackUp.c **** /* Global */
  98:C:/Workspace/FW_Inertia/branch_indesit/PlatformLibrary/LIB_BackUp\LIB_BackUp.c **** /** This variable must be the first data of backup block */
  99:C:/Workspace/FW_Inertia/branch_indesit/PlatformLibrary/LIB_BackUp\LIB_BackUp.c **** uint8_t Backup_Source;
 100:C:/Workspace/FW_Inertia/branch_indesit/PlatformLibrary/LIB_BackUp\LIB_BackUp.c **** /* Static */
 101:C:/Workspace/FW_Inertia/branch_indesit/PlatformLibrary/LIB_BackUp\LIB_BackUp.c **** 
 102:C:/Workspace/FW_Inertia/branch_indesit/PlatformLibrary/LIB_BackUp\LIB_BackUp.c **** /** Used to check if backup monitoring is active */
 103:C:/Workspace/FW_Inertia/branch_indesit/PlatformLibrary/LIB_BackUp\LIB_BackUp.c **** static uint8_t BackupCntrlSource;
 104:C:/Workspace/FW_Inertia/branch_indesit/PlatformLibrary/LIB_BackUp\LIB_BackUp.c **** /* ******************* */
 105:C:/Workspace/FW_Inertia/branch_indesit/PlatformLibrary/LIB_BackUp\LIB_BackUp.c **** /* Functions Prototype */
 106:C:/Workspace/FW_Inertia/branch_indesit/PlatformLibrary/LIB_BackUp\LIB_BackUp.c **** /* ******************* */
 107:C:/Workspace/FW_Inertia/branch_indesit/PlatformLibrary/LIB_BackUp\LIB_BackUp.c **** 
 108:C:/Workspace/FW_Inertia/branch_indesit/PlatformLibrary/LIB_BackUp\LIB_BackUp.c **** /* Exported function */
 109:C:/Workspace/FW_Inertia/branch_indesit/PlatformLibrary/LIB_BackUp\LIB_BackUp.c **** 
 110:C:/Workspace/FW_Inertia/branch_indesit/PlatformLibrary/LIB_BackUp\LIB_BackUp.c **** /* Local Function */
 111:C:/Workspace/FW_Inertia/branch_indesit/PlatformLibrary/LIB_BackUp\LIB_BackUp.c **** static bool_t LIB_Backup_IsTimeToBackup(void);
 112:C:/Workspace/FW_Inertia/branch_indesit/PlatformLibrary/LIB_BackUp\LIB_BackUp.c **** static void DeinitAllPeripherals(void);
 113:C:/Workspace/FW_Inertia/branch_indesit/PlatformLibrary/LIB_BackUp\LIB_BackUp.c **** /* *************** */
 114:C:/Workspace/FW_Inertia/branch_indesit/PlatformLibrary/LIB_BackUp\LIB_BackUp.c **** /* Function Bodies */
 115:C:/Workspace/FW_Inertia/branch_indesit/PlatformLibrary/LIB_BackUp\LIB_BackUp.c **** /* *************** */
 116:C:/Workspace/FW_Inertia/branch_indesit/PlatformLibrary/LIB_BackUp\LIB_BackUp.c **** 
 117:C:/Workspace/FW_Inertia/branch_indesit/PlatformLibrary/LIB_BackUp\LIB_BackUp.c **** /* Exported function */
 118:C:/Workspace/FW_Inertia/branch_indesit/PlatformLibrary/LIB_BackUp\LIB_BackUp.c **** #if defined( CONFIG_DEBUG_BACKUP )
 119:C:/Workspace/FW_Inertia/branch_indesit/PlatformLibrary/LIB_BackUp\LIB_BackUp.c **** #include "backup_trace.h"
 120:C:/Workspace/FW_Inertia/branch_indesit/PlatformLibrary/LIB_BackUp\LIB_BackUp.c **** #else
 121:C:/Workspace/FW_Inertia/branch_indesit/PlatformLibrary/LIB_BackUp\LIB_BackUp.c **** #define DEBUG_BACKUP_INIT()
 122:C:/Workspace/FW_Inertia/branch_indesit/PlatformLibrary/LIB_BackUp\LIB_BackUp.c **** #define DEBUG_BACKUP_START(x)
 123:C:/Workspace/FW_Inertia/branch_indesit/PlatformLibrary/LIB_BackUp\LIB_BackUp.c **** #define DEBUG_BACKUP_END(x,y)
 124:C:/Workspace/FW_Inertia/branch_indesit/PlatformLibrary/LIB_BackUp\LIB_BackUp.c **** #define DEBUG_BACKUP_VERIFY(x)
 125:C:/Workspace/FW_Inertia/branch_indesit/PlatformLibrary/LIB_BackUp\LIB_BackUp.c **** #define DEBUG_BACKUP_GOBACKUP()
 126:C:/Workspace/FW_Inertia/branch_indesit/PlatformLibrary/LIB_BackUp\LIB_BackUp.c **** #endif
 127:C:/Workspace/FW_Inertia/branch_indesit/PlatformLibrary/LIB_BackUp\LIB_BackUp.c **** 
 128:C:/Workspace/FW_Inertia/branch_indesit/PlatformLibrary/LIB_BackUp\LIB_BackUp.c **** 
 129:C:/Workspace/FW_Inertia/branch_indesit/PlatformLibrary/LIB_BackUp\LIB_BackUp.c **** 
 130:C:/Workspace/FW_Inertia/branch_indesit/PlatformLibrary/LIB_BackUp\LIB_BackUp.c **** /**
 131:C:/Workspace/FW_Inertia/branch_indesit/PlatformLibrary/LIB_BackUp\LIB_BackUp.c **** Performs all actions necessaries to backup.
 132:C:/Workspace/FW_Inertia/branch_indesit/PlatformLibrary/LIB_BackUp\LIB_BackUp.c **** 
 133:C:/Workspace/FW_Inertia/branch_indesit/PlatformLibrary/LIB_BackUp\LIB_BackUp.c **** \author 	stefano.ughi
 134:C:/Workspace/FW_Inertia/branch_indesit/PlatformLibrary/LIB_BackUp\LIB_BackUp.c **** \date		Feb 14, 2011
 135:C:/Workspace/FW_Inertia/branch_indesit/PlatformLibrary/LIB_BackUp\LIB_BackUp.c **** \version	1.0.0
 136:C:/Workspace/FW_Inertia/branch_indesit/PlatformLibrary/LIB_BackUp\LIB_BackUp.c **** 
 137:C:/Workspace/FW_Inertia/branch_indesit/PlatformLibrary/LIB_BackUp\LIB_BackUp.c **** \note		\par \b Note 1:
 138:C:/Workspace/FW_Inertia/branch_indesit/PlatformLibrary/LIB_BackUp\LIB_BackUp.c **** 			documentation by stefano.ughi
 139:C:/Workspace/FW_Inertia/branch_indesit/PlatformLibrary/LIB_BackUp\LIB_BackUp.c **** 
 140:C:/Workspace/FW_Inertia/branch_indesit/PlatformLibrary/LIB_BackUp\LIB_BackUp.c **** */
 141:C:/Workspace/FW_Inertia/branch_indesit/PlatformLibrary/LIB_BackUp\LIB_BackUp.c **** void Task_Backup(void)
 142:C:/Workspace/FW_Inertia/branch_indesit/PlatformLibrary/LIB_BackUp\LIB_BackUp.c **** {
 143:C:/Workspace/FW_Inertia/branch_indesit/PlatformLibrary/LIB_BackUp\LIB_BackUp.c **** 	uint8_t retVal;
 144:C:/Workspace/FW_Inertia/branch_indesit/PlatformLibrary/LIB_BackUp\LIB_BackUp.c **** 	/* Application's service */
 145:C:/Workspace/FW_Inertia/branch_indesit/PlatformLibrary/LIB_BackUp\LIB_BackUp.c **** 	CBF_notifyBackupAlarm();
 146:C:/Workspace/FW_Inertia/branch_indesit/PlatformLibrary/LIB_BackUp\LIB_BackUp.c **** 	/* Switch off loads to save power */
 147:C:/Workspace/FW_Inertia/branch_indesit/PlatformLibrary/LIB_BackUp\LIB_BackUp.c **** 	LIB_IOM_SetAllLoadsOff ( SOURCE_SALO_PLATFORM );
 148:C:/Workspace/FW_Inertia/branch_indesit/PlatformLibrary/LIB_BackUp\LIB_BackUp.c **** 	/* Checks if is time to backup  */
 149:C:/Workspace/FW_Inertia/branch_indesit/PlatformLibrary/LIB_BackUp\LIB_BackUp.c **** 	if ( LIB_Backup_IsTimeToBackup() == TRUE )
 150:C:/Workspace/FW_Inertia/branch_indesit/PlatformLibrary/LIB_BackUp\LIB_BackUp.c **** 	{
 151:C:/Workspace/FW_Inertia/branch_indesit/PlatformLibrary/LIB_BackUp\LIB_BackUp.c **** 		/* Interrupts are harmful in this phase */
 152:C:/Workspace/FW_Inertia/branch_indesit/PlatformLibrary/LIB_BackUp\LIB_BackUp.c **** 		EnterCriticalSection();
 153:C:/Workspace/FW_Inertia/branch_indesit/PlatformLibrary/LIB_BackUp\LIB_BackUp.c **** 
 154:C:/Workspace/FW_Inertia/branch_indesit/PlatformLibrary/LIB_BackUp\LIB_BackUp.c **** 		TRACE_BACKUP_START();
 155:C:/Workspace/FW_Inertia/branch_indesit/PlatformLibrary/LIB_BackUp\LIB_BackUp.c **** 
 156:C:/Workspace/FW_Inertia/branch_indesit/PlatformLibrary/LIB_BackUp\LIB_BackUp.c **** 		/* To save M.C.U. current */
 157:C:/Workspace/FW_Inertia/branch_indesit/PlatformLibrary/LIB_BackUp\LIB_BackUp.c **** 		DeinitAllPeripherals();
 158:C:/Workspace/FW_Inertia/branch_indesit/PlatformLibrary/LIB_BackUp\LIB_BackUp.c **** #if defined(CONFIG_CLASS_B_DATA_INTEGRITY) && defined(CONFIG_CLASS_B_DATA_BACKUP)
 159:C:/Workspace/FW_Inertia/branch_indesit/PlatformLibrary/LIB_BackUp\LIB_BackUp.c **** 	Sec_Backup_SecDataSave();
 160:C:/Workspace/FW_Inertia/branch_indesit/PlatformLibrary/LIB_BackUp\LIB_BackUp.c **** #endif
 161:C:/Workspace/FW_Inertia/branch_indesit/PlatformLibrary/LIB_BackUp\LIB_BackUp.c **** 		DEBUG_BACKUP_START(BACKUP_BY_REFERENCE);
 162:C:/Workspace/FW_Inertia/branch_indesit/PlatformLibrary/LIB_BackUp\LIB_BackUp.c **** 
 163:C:/Workspace/FW_Inertia/branch_indesit/PlatformLibrary/LIB_BackUp\LIB_BackUp.c **** 		retVal = LIB_Backup_DataSave();
 164:C:/Workspace/FW_Inertia/branch_indesit/PlatformLibrary/LIB_BackUp\LIB_BackUp.c **** 
 165:C:/Workspace/FW_Inertia/branch_indesit/PlatformLibrary/LIB_BackUp\LIB_BackUp.c **** 		DEBUG_BACKUP_END(BACKUP_BY_REFERENCE, retVal);
 166:C:/Workspace/FW_Inertia/branch_indesit/PlatformLibrary/LIB_BackUp\LIB_BackUp.c **** 
 167:C:/Workspace/FW_Inertia/branch_indesit/PlatformLibrary/LIB_BackUp\LIB_BackUp.c **** 		TRACE_BACKUP_END();
 168:C:/Workspace/FW_Inertia/branch_indesit/PlatformLibrary/LIB_BackUp\LIB_BackUp.c **** 
 169:C:/Workspace/FW_Inertia/branch_indesit/PlatformLibrary/LIB_BackUp\LIB_BackUp.c **** 		LIB_ZC_ResetSyncPhase();
 170:C:/Workspace/FW_Inertia/branch_indesit/PlatformLibrary/LIB_BackUp\LIB_BackUp.c **** 		SetgoodZCSignalTo(FALSE);
 171:C:/Workspace/FW_Inertia/branch_indesit/PlatformLibrary/LIB_BackUp\LIB_BackUp.c **** 		/* Disables further backups */
 172:C:/Workspace/FW_Inertia/branch_indesit/PlatformLibrary/LIB_BackUp\LIB_BackUp.c **** 		LIB_Backup_SetBackupControlMonitor(BACKUP_NO_SOURCE);
 173:C:/Workspace/FW_Inertia/branch_indesit/PlatformLibrary/LIB_BackUp\LIB_BackUp.c **** 		/* bye, bye */
 174:C:/Workspace/FW_Inertia/branch_indesit/PlatformLibrary/LIB_BackUp\LIB_BackUp.c **** 		OCRST_GenerateUserResetSync();
 175:C:/Workspace/FW_Inertia/branch_indesit/PlatformLibrary/LIB_BackUp\LIB_BackUp.c **** 	}
 176:C:/Workspace/FW_Inertia/branch_indesit/PlatformLibrary/LIB_BackUp\LIB_BackUp.c **** }
 177:C:/Workspace/FW_Inertia/branch_indesit/PlatformLibrary/LIB_BackUp\LIB_BackUp.c **** /**
 178:C:/Workspace/FW_Inertia/branch_indesit/PlatformLibrary/LIB_BackUp\LIB_BackUp.c **** Checks conditions for backup.
 179:C:/Workspace/FW_Inertia/branch_indesit/PlatformLibrary/LIB_BackUp\LIB_BackUp.c **** 
 180:C:/Workspace/FW_Inertia/branch_indesit/PlatformLibrary/LIB_BackUp\LIB_BackUp.c **** \param  [in]		systemMode system mode
 181:C:/Workspace/FW_Inertia/branch_indesit/PlatformLibrary/LIB_BackUp\LIB_BackUp.c **** 
 182:C:/Workspace/FW_Inertia/branch_indesit/PlatformLibrary/LIB_BackUp\LIB_BackUp.c **** \return 	bool_t
 183:C:/Workspace/FW_Inertia/branch_indesit/PlatformLibrary/LIB_BackUp\LIB_BackUp.c **** 
 184:C:/Workspace/FW_Inertia/branch_indesit/PlatformLibrary/LIB_BackUp\LIB_BackUp.c **** \retval		TRUE it's time to call backup task
 185:C:/Workspace/FW_Inertia/branch_indesit/PlatformLibrary/LIB_BackUp\LIB_BackUp.c **** \retval		FALSE there is at least one condition not satisfied to call backup task
 186:C:/Workspace/FW_Inertia/branch_indesit/PlatformLibrary/LIB_BackUp\LIB_BackUp.c **** 
 187:C:/Workspace/FW_Inertia/branch_indesit/PlatformLibrary/LIB_BackUp\LIB_BackUp.c **** 
 188:C:/Workspace/FW_Inertia/branch_indesit/PlatformLibrary/LIB_BackUp\LIB_BackUp.c **** \author 	stefano.ughi
 189:C:/Workspace/FW_Inertia/branch_indesit/PlatformLibrary/LIB_BackUp\LIB_BackUp.c **** \date		Feb 15, 2011
 190:C:/Workspace/FW_Inertia/branch_indesit/PlatformLibrary/LIB_BackUp\LIB_BackUp.c **** \version	1.0.0
 191:C:/Workspace/FW_Inertia/branch_indesit/PlatformLibrary/LIB_BackUp\LIB_BackUp.c **** 
 192:C:/Workspace/FW_Inertia/branch_indesit/PlatformLibrary/LIB_BackUp\LIB_BackUp.c **** \note		\par \b Note 1:
 193:C:/Workspace/FW_Inertia/branch_indesit/PlatformLibrary/LIB_BackUp\LIB_BackUp.c **** 			documentation by stefano.ughi
 194:C:/Workspace/FW_Inertia/branch_indesit/PlatformLibrary/LIB_BackUp\LIB_BackUp.c **** 
 195:C:/Workspace/FW_Inertia/branch_indesit/PlatformLibrary/LIB_BackUp\LIB_BackUp.c **** */
 196:C:/Workspace/FW_Inertia/branch_indesit/PlatformLibrary/LIB_BackUp\LIB_BackUp.c **** volatile int dbg_gobackup=0;
 197:C:/Workspace/FW_Inertia/branch_indesit/PlatformLibrary/LIB_BackUp\LIB_BackUp.c **** bool_t LIB_Backup_CheckIfIsTimeToBackup(uint8_t systemMode)
 198:C:/Workspace/FW_Inertia/branch_indesit/PlatformLibrary/LIB_BackUp\LIB_BackUp.c **** {
  10                             		.loc 1 198 0
  11                             	.LVL0:
 199:C:/Workspace/FW_Inertia/branch_indesit/PlatformLibrary/LIB_BackUp\LIB_BackUp.c **** 	bool_t isTime;
 200:C:/Workspace/FW_Inertia/branch_indesit/PlatformLibrary/LIB_BackUp\LIB_BackUp.c **** 
 201:C:/Workspace/FW_Inertia/branch_indesit/PlatformLibrary/LIB_BackUp\LIB_BackUp.c **** 	isTime = FALSE;
 202:C:/Workspace/FW_Inertia/branch_indesit/PlatformLibrary/LIB_BackUp\LIB_BackUp.c **** 	if ( SYSTEM_NORMAL_MODE == systemMode )
  12                             		.loc 1 202 0
  13 0000 5B 11                   		movu.B	r1, r1
  14 0002 61 11                   		cmp	#1, r1
  15 0004 15                      		beq	.L2
  16                             	.LVL1:
  17 0005 03                      		.balign 2,3,1
  18                             	.L4:
 201:C:/Workspace/FW_Inertia/branch_indesit/PlatformLibrary/LIB_BackUp\LIB_BackUp.c **** 	isTime = FALSE;
  19                             		.loc 1 201 0
  20 0006 66 01                   		mov.L	#0, r1
  21 0008 02                      		rts
  22                             	.L2:
 203:C:/Workspace/FW_Inertia/branch_indesit/PlatformLibrary/LIB_BackUp\LIB_BackUp.c **** 	{
 204:C:/Workspace/FW_Inertia/branch_indesit/PlatformLibrary/LIB_BackUp\LIB_BackUp.c **** 		DEBUG_BACKUP_GOBACKUP();
 205:C:/Workspace/FW_Inertia/branch_indesit/PlatformLibrary/LIB_BackUp\LIB_BackUp.c **** 
 206:C:/Workspace/FW_Inertia/branch_indesit/PlatformLibrary/LIB_BackUp\LIB_BackUp.c **** 		if ( LIB_ADC_CheckRef() == TRUE )
  23                             		.loc 1 206 0
  24 0009 05 00 00 00             		bsr	_LIB_ADC_CheckRef
  25                             	.LVL2:
  26 000d 61 11                   		cmp	#1, r1
  27 000f 21 F7                   		bne	.L4
 207:C:/Workspace/FW_Inertia/branch_indesit/PlatformLibrary/LIB_BackUp\LIB_BackUp.c **** 		{
 208:C:/Workspace/FW_Inertia/branch_indesit/PlatformLibrary/LIB_BackUp\LIB_BackUp.c **** 			if ( BACKUP_ON_RTN == LIB_Backup_GetBackupControlMonitor() )
  28                             		.loc 1 208 0
  29 0011 FB E2 00 00 00 00       		mov.L	#_BackupCntrlSource, r14
  30 0017 58 EE                   		movu.B	[r14], r14
  31 0019 61 1E                   		cmp	#1, r14
  32 001b 21 EB                   		bne	.L4
 209:C:/Workspace/FW_Inertia/branch_indesit/PlatformLibrary/LIB_BackUp\LIB_BackUp.c **** 			{
 210:C:/Workspace/FW_Inertia/branch_indesit/PlatformLibrary/LIB_BackUp\LIB_BackUp.c **** 				if ( FALSE == LIB_ADC_Is_Ref_Good() )
  33                             		.loc 1 210 0
  34 001d 05 00 00 00             		bsr	_LIB_ADC_Is_Ref_Good
  35                             	.LVL3:
 201:C:/Workspace/FW_Inertia/branch_indesit/PlatformLibrary/LIB_BackUp\LIB_BackUp.c **** 	isTime = FALSE;
  36                             		.loc 1 201 0
  37 0021 61 01                   		cmp	#0, r1
  38 0023 FC DB 10                		sceq.L	r1
  39                             	.LVL4:
 211:C:/Workspace/FW_Inertia/branch_indesit/PlatformLibrary/LIB_BackUp\LIB_BackUp.c **** 				{
 212:C:/Workspace/FW_Inertia/branch_indesit/PlatformLibrary/LIB_BackUp\LIB_BackUp.c **** 					isTime = TRUE;
 213:C:/Workspace/FW_Inertia/branch_indesit/PlatformLibrary/LIB_BackUp\LIB_BackUp.c **** 				}
 214:C:/Workspace/FW_Inertia/branch_indesit/PlatformLibrary/LIB_BackUp\LIB_BackUp.c **** 			}
 215:C:/Workspace/FW_Inertia/branch_indesit/PlatformLibrary/LIB_BackUp\LIB_BackUp.c **** 		}
 216:C:/Workspace/FW_Inertia/branch_indesit/PlatformLibrary/LIB_BackUp\LIB_BackUp.c **** 	}
 217:C:/Workspace/FW_Inertia/branch_indesit/PlatformLibrary/LIB_BackUp\LIB_BackUp.c **** 	return (isTime);
 218:C:/Workspace/FW_Inertia/branch_indesit/PlatformLibrary/LIB_BackUp\LIB_BackUp.c **** }
  40                             		.loc 1 218 0
  41 0026 02                      		rts
  42                             	.LFE1:
  44 0027 03                      		.section	.text.LIB_Backup_ForceBackup,"ax",@progbits
  45                             		.global	_LIB_Backup_ForceBackup
  47                             	_LIB_Backup_ForceBackup:
  48                             	.LFB2:
 219:C:/Workspace/FW_Inertia/branch_indesit/PlatformLibrary/LIB_BackUp\LIB_BackUp.c **** 
 220:C:/Workspace/FW_Inertia/branch_indesit/PlatformLibrary/LIB_BackUp\LIB_BackUp.c **** /**
 221:C:/Workspace/FW_Inertia/branch_indesit/PlatformLibrary/LIB_BackUp\LIB_BackUp.c **** Forces backup.
 222:C:/Workspace/FW_Inertia/branch_indesit/PlatformLibrary/LIB_BackUp\LIB_BackUp.c **** 
 223:C:/Workspace/FW_Inertia/branch_indesit/PlatformLibrary/LIB_BackUp\LIB_BackUp.c **** \author 	stefano.ughi
 224:C:/Workspace/FW_Inertia/branch_indesit/PlatformLibrary/LIB_BackUp\LIB_BackUp.c **** \date		Feb 15, 2011
 225:C:/Workspace/FW_Inertia/branch_indesit/PlatformLibrary/LIB_BackUp\LIB_BackUp.c **** \version	1.0.0
 226:C:/Workspace/FW_Inertia/branch_indesit/PlatformLibrary/LIB_BackUp\LIB_BackUp.c **** 
 227:C:/Workspace/FW_Inertia/branch_indesit/PlatformLibrary/LIB_BackUp\LIB_BackUp.c **** \note		\par \b Note 1:
 228:C:/Workspace/FW_Inertia/branch_indesit/PlatformLibrary/LIB_BackUp\LIB_BackUp.c **** 			documentation by stefano.ughi
 229:C:/Workspace/FW_Inertia/branch_indesit/PlatformLibrary/LIB_BackUp\LIB_BackUp.c **** 
 230:C:/Workspace/FW_Inertia/branch_indesit/PlatformLibrary/LIB_BackUp\LIB_BackUp.c **** */
 231:C:/Workspace/FW_Inertia/branch_indesit/PlatformLibrary/LIB_BackUp\LIB_BackUp.c **** void LIB_Backup_ForceBackup(void)
 232:C:/Workspace/FW_Inertia/branch_indesit/PlatformLibrary/LIB_BackUp\LIB_BackUp.c **** {
  49                             		.loc 1 232 0
  50 0000 7E A7                   		push.l	r7
  51                             	.LCFI0:
 233:C:/Workspace/FW_Inertia/branch_indesit/PlatformLibrary/LIB_BackUp\LIB_BackUp.c **** 	uint8_t retVal;
 234:C:/Workspace/FW_Inertia/branch_indesit/PlatformLibrary/LIB_BackUp\LIB_BackUp.c **** 	EnterCriticalSection();
  52                             		.loc 1 234 0
  53 0002 05 00 00 00             		bsr	_OS_DisableInterrupt
  54 0006 FB 72 00 00 00 00       		mov.L	#_OS_Global, r7
  55 000c CD 7E 01                		mov.B	1[r7], r14
  56 000f 62 1E                   		add	#1, r14
  57 0011 C7 7E 01                		mov.B	r14, 1[r7]
 235:C:/Workspace/FW_Inertia/branch_indesit/PlatformLibrary/LIB_BackUp\LIB_BackUp.c **** #if defined(CONFIG_CLASS_B_DATA_INTEGRITY) && defined(CONFIG_CLASS_B_DATA_BACKUP)
 236:C:/Workspace/FW_Inertia/branch_indesit/PlatformLibrary/LIB_BackUp\LIB_BackUp.c **** 	Sec_Backup_SecDataSave();
 237:C:/Workspace/FW_Inertia/branch_indesit/PlatformLibrary/LIB_BackUp\LIB_BackUp.c **** #endif
 238:C:/Workspace/FW_Inertia/branch_indesit/PlatformLibrary/LIB_BackUp\LIB_BackUp.c **** 	DEBUG_BACKUP_START(BACKUP_BY_FORCED);
 239:C:/Workspace/FW_Inertia/branch_indesit/PlatformLibrary/LIB_BackUp\LIB_BackUp.c **** 
 240:C:/Workspace/FW_Inertia/branch_indesit/PlatformLibrary/LIB_BackUp\LIB_BackUp.c **** 	retVal = LIB_Backup_DataSave();
  58                             		.loc 1 240 0
  59 0014 05 00 00 00             		bsr	_LIB_Backup_DataSave
 241:C:/Workspace/FW_Inertia/branch_indesit/PlatformLibrary/LIB_BackUp\LIB_BackUp.c **** 
 242:C:/Workspace/FW_Inertia/branch_indesit/PlatformLibrary/LIB_BackUp\LIB_BackUp.c **** 	DEBUG_BACKUP_END(BACKUP_BY_FORCED, retVal);
 243:C:/Workspace/FW_Inertia/branch_indesit/PlatformLibrary/LIB_BackUp\LIB_BackUp.c **** 	ExitCriticalSection();
  60                             		.loc 1 243 0
  61 0018 CD 7E 01                		mov.B	1[r7], r14
  62 001b 60 1E                   		sub	#1, r14
  63 001d C7 7E 01                		mov.B	r14, 1[r7]
  64 0020 76 2E FF 00             		and #0xff, r14
  65 0024 1F                      		bne	.L5
 244:C:/Workspace/FW_Inertia/branch_indesit/PlatformLibrary/LIB_BackUp\LIB_BackUp.c **** }
  66                             		.loc 1 244 0 discriminator 1
  67 0025 7E B7                   		pop	r7
 243:C:/Workspace/FW_Inertia/branch_indesit/PlatformLibrary/LIB_BackUp\LIB_BackUp.c **** 	ExitCriticalSection();
  68                             		.loc 1 243 0 discriminator 1
  69 0027 04 00 00 00             		bra	_OS_EnableInterrupt
  70                             	.L5:
  71                             		.loc 1 244 0
  72 002b 3F 77 01                		rtsd	#4, r7-r7
  73                             	.LFE2:
  75                             		.section	.text.LIB_Backup_RestoreManager,"ax",@progbits
  76                             		.global	_LIB_Backup_RestoreManager
  78                             	_LIB_Backup_RestoreManager:
  79                             	.LFB3:
 245:C:/Workspace/FW_Inertia/branch_indesit/PlatformLibrary/LIB_BackUp\LIB_BackUp.c **** 
 246:C:/Workspace/FW_Inertia/branch_indesit/PlatformLibrary/LIB_BackUp\LIB_BackUp.c **** 
 247:C:/Workspace/FW_Inertia/branch_indesit/PlatformLibrary/LIB_BackUp\LIB_BackUp.c **** 
 248:C:/Workspace/FW_Inertia/branch_indesit/PlatformLibrary/LIB_BackUp\LIB_BackUp.c **** /**
 249:C:/Workspace/FW_Inertia/branch_indesit/PlatformLibrary/LIB_BackUp\LIB_BackUp.c **** \n Checks if backup checksum is O.K.
 250:C:/Workspace/FW_Inertia/branch_indesit/PlatformLibrary/LIB_BackUp\LIB_BackUp.c **** \n if checksum is O.K. performs backup data restore and returns TRUE otherwise FALSE.
 251:C:/Workspace/FW_Inertia/branch_indesit/PlatformLibrary/LIB_BackUp\LIB_BackUp.c **** 
 252:C:/Workspace/FW_Inertia/branch_indesit/PlatformLibrary/LIB_BackUp\LIB_BackUp.c **** 
 253:C:/Workspace/FW_Inertia/branch_indesit/PlatformLibrary/LIB_BackUp\LIB_BackUp.c **** \return 	bool_t
 254:C:/Workspace/FW_Inertia/branch_indesit/PlatformLibrary/LIB_BackUp\LIB_BackUp.c **** 
 255:C:/Workspace/FW_Inertia/branch_indesit/PlatformLibrary/LIB_BackUp\LIB_BackUp.c **** \retval		TRUE backup data restored
 256:C:/Workspace/FW_Inertia/branch_indesit/PlatformLibrary/LIB_BackUp\LIB_BackUp.c **** \retval		FALSE backup data not restored because checksum K.O.
 257:C:/Workspace/FW_Inertia/branch_indesit/PlatformLibrary/LIB_BackUp\LIB_BackUp.c **** 
 258:C:/Workspace/FW_Inertia/branch_indesit/PlatformLibrary/LIB_BackUp\LIB_BackUp.c **** \author 	stefano.ughi
 259:C:/Workspace/FW_Inertia/branch_indesit/PlatformLibrary/LIB_BackUp\LIB_BackUp.c **** \date		Feb 14, 2011
 260:C:/Workspace/FW_Inertia/branch_indesit/PlatformLibrary/LIB_BackUp\LIB_BackUp.c **** \version	1.0.0
 261:C:/Workspace/FW_Inertia/branch_indesit/PlatformLibrary/LIB_BackUp\LIB_BackUp.c **** 
 262:C:/Workspace/FW_Inertia/branch_indesit/PlatformLibrary/LIB_BackUp\LIB_BackUp.c **** 
 263:C:/Workspace/FW_Inertia/branch_indesit/PlatformLibrary/LIB_BackUp\LIB_BackUp.c **** \note		\par \b Note 1:
 264:C:/Workspace/FW_Inertia/branch_indesit/PlatformLibrary/LIB_BackUp\LIB_BackUp.c **** 			documentation by stefano.ughi
 265:C:/Workspace/FW_Inertia/branch_indesit/PlatformLibrary/LIB_BackUp\LIB_BackUp.c **** 
 266:C:/Workspace/FW_Inertia/branch_indesit/PlatformLibrary/LIB_BackUp\LIB_BackUp.c **** */
 267:C:/Workspace/FW_Inertia/branch_indesit/PlatformLibrary/LIB_BackUp\LIB_BackUp.c **** bool_t LIB_Backup_RestoreManager(void)
 268:C:/Workspace/FW_Inertia/branch_indesit/PlatformLibrary/LIB_BackUp\LIB_BackUp.c **** {
  80                             		.loc 1 268 0
  81 0000 7E A7                   		push.l	r7
  82                             	.LCFI1:
 269:C:/Workspace/FW_Inertia/branch_indesit/PlatformLibrary/LIB_BackUp\LIB_BackUp.c **** 	if ( LIB_Backup_ChecksumVerify() == TRUE )
  83                             		.loc 1 269 0
  84 0002 05 00 00 00             		bsr	_LIB_Backup_ChecksumVerify
  85                             	.LVL5:
  86 0006 EF 17                   		mov.L	r1, r7
  87 0008 61 11                   		cmp	#1, r1
  88 000a 18                      		bne	.L10
 270:C:/Workspace/FW_Inertia/branch_indesit/PlatformLibrary/LIB_BackUp\LIB_BackUp.c **** 	{
 271:C:/Workspace/FW_Inertia/branch_indesit/PlatformLibrary/LIB_BackUp\LIB_BackUp.c **** #if defined(CONFIG_CLASS_B_DATA_INTEGRITY) && defined(CONFIG_CLASS_B_DATA_BACKUP)
 272:C:/Workspace/FW_Inertia/branch_indesit/PlatformLibrary/LIB_BackUp\LIB_BackUp.c **** 		Sec_Backup_SecDataRestore();
 273:C:/Workspace/FW_Inertia/branch_indesit/PlatformLibrary/LIB_BackUp\LIB_BackUp.c **** #endif
 274:C:/Workspace/FW_Inertia/branch_indesit/PlatformLibrary/LIB_BackUp\LIB_BackUp.c **** 		LIB_Backup_DataRestore();
  89                             		.loc 1 274 0
  90 000b 05 00 00 00             		bsr	_LIB_Backup_DataRestore
  91                             	.LVL6:
 275:C:/Workspace/FW_Inertia/branch_indesit/PlatformLibrary/LIB_BackUp\LIB_BackUp.c **** 
 276:C:/Workspace/FW_Inertia/branch_indesit/PlatformLibrary/LIB_BackUp\LIB_BackUp.c **** 		DEBUG_BACKUP_VERIFY(TRUE);
 277:C:/Workspace/FW_Inertia/branch_indesit/PlatformLibrary/LIB_BackUp\LIB_BackUp.c **** 		return TRUE;
  92                             		.loc 1 277 0
  93 000f EF 71                   		mov.L	r7, r1
  94 0011 0B                      		bra	.L9
  95                             	.L10:
 278:C:/Workspace/FW_Inertia/branch_indesit/PlatformLibrary/LIB_BackUp\LIB_BackUp.c **** 	}
 279:C:/Workspace/FW_Inertia/branch_indesit/PlatformLibrary/LIB_BackUp\LIB_BackUp.c **** 	else
 280:C:/Workspace/FW_Inertia/branch_indesit/PlatformLibrary/LIB_BackUp\LIB_BackUp.c **** 	{
 281:C:/Workspace/FW_Inertia/branch_indesit/PlatformLibrary/LIB_BackUp\LIB_BackUp.c **** 		DEBUG_BACKUP_VERIFY(FALSE);
 282:C:/Workspace/FW_Inertia/branch_indesit/PlatformLibrary/LIB_BackUp\LIB_BackUp.c **** 		return FALSE;
  96                             		.loc 1 282 0
  97 0012 66 01                   		mov.L	#0, r1
  98                             		.balign 2,3,2
  99                             	.L9:
 283:C:/Workspace/FW_Inertia/branch_indesit/PlatformLibrary/LIB_BackUp\LIB_BackUp.c **** 	}
 284:C:/Workspace/FW_Inertia/branch_indesit/PlatformLibrary/LIB_BackUp\LIB_BackUp.c **** }
 100                             		.loc 1 284 0
 101 0014 3F 77 01                		rtsd	#4, r7-r7
 102                             	.LFE3:
 104 0017 03                      		.section	.text.LIB_Backup_RefCheck,"ax",@progbits
 105                             		.global	_LIB_Backup_RefCheck
 107                             	_LIB_Backup_RefCheck:
 108                             	.LFB4:
 285:C:/Workspace/FW_Inertia/branch_indesit/PlatformLibrary/LIB_BackUp\LIB_BackUp.c **** 
 286:C:/Workspace/FW_Inertia/branch_indesit/PlatformLibrary/LIB_BackUp\LIB_BackUp.c **** 
 287:C:/Workspace/FW_Inertia/branch_indesit/PlatformLibrary/LIB_BackUp\LIB_BackUp.c **** 
 288:C:/Workspace/FW_Inertia/branch_indesit/PlatformLibrary/LIB_BackUp\LIB_BackUp.c **** #if defined (RTN_CHECK_WITH_COUNTER)
 289:C:/Workspace/FW_Inertia/branch_indesit/PlatformLibrary/LIB_BackUp\LIB_BackUp.c **** uint8_t LIB_Backup_RefCheck(void)
 290:C:/Workspace/FW_Inertia/branch_indesit/PlatformLibrary/LIB_BackUp\LIB_BackUp.c **** {
 291:C:/Workspace/FW_Inertia/branch_indesit/PlatformLibrary/LIB_BackUp\LIB_BackUp.c **** 	static uint8_t NumOfReadings;
 292:C:/Workspace/FW_Inertia/branch_indesit/PlatformLibrary/LIB_BackUp\LIB_BackUp.c **** 	static struct
 293:C:/Workspace/FW_Inertia/branch_indesit/PlatformLibrary/LIB_BackUp\LIB_BackUp.c **** 	{
 294:C:/Workspace/FW_Inertia/branch_indesit/PlatformLibrary/LIB_BackUp\LIB_BackUp.c **** 		bool_t NumOfReadingsOutOfRangeSetup:1;
 295:C:/Workspace/FW_Inertia/branch_indesit/PlatformLibrary/LIB_BackUp\LIB_BackUp.c **** 		bool_t NumOfReadingsInRangeSetup:1;
 296:C:/Workspace/FW_Inertia/branch_indesit/PlatformLibrary/LIB_BackUp\LIB_BackUp.c **** 		bool_t Free:6;
 297:C:/Workspace/FW_Inertia/branch_indesit/PlatformLibrary/LIB_BackUp\LIB_BackUp.c **** 	} Flags= {0,0,0};
 298:C:/Workspace/FW_Inertia/branch_indesit/PlatformLibrary/LIB_BackUp\LIB_BackUp.c **** #if defined (DEBUG_BACKUP_MANAGER)
 299:C:/Workspace/FW_Inertia/branch_indesit/PlatformLibrary/LIB_BackUp\LIB_BackUp.c **** 	static ADC_ValueType rtnADvalue;
 300:C:/Workspace/FW_Inertia/branch_indesit/PlatformLibrary/LIB_BackUp\LIB_BackUp.c **** #else
 301:C:/Workspace/FW_Inertia/branch_indesit/PlatformLibrary/LIB_BackUp\LIB_BackUp.c **** 	ADC_ValueType rtnADvalue;
 302:C:/Workspace/FW_Inertia/branch_indesit/PlatformLibrary/LIB_BackUp\LIB_BackUp.c **** #endif
 303:C:/Workspace/FW_Inertia/branch_indesit/PlatformLibrary/LIB_BackUp\LIB_BackUp.c **** 	uint8_t posAnalogInputParam;
 304:C:/Workspace/FW_Inertia/branch_indesit/PlatformLibrary/LIB_BackUp\LIB_BackUp.c **** 
 305:C:/Workspace/FW_Inertia/branch_indesit/PlatformLibrary/LIB_BackUp\LIB_BackUp.c **** 
 306:C:/Workspace/FW_Inertia/branch_indesit/PlatformLibrary/LIB_BackUp\LIB_BackUp.c **** 	posAnalogInputParam = LIB_ADC_AnalogChRamPos(LIB_ADC_GetChCompPos());
 307:C:/Workspace/FW_Inertia/branch_indesit/PlatformLibrary/LIB_BackUp\LIB_BackUp.c **** 
 308:C:/Workspace/FW_Inertia/branch_indesit/PlatformLibrary/LIB_BackUp\LIB_BackUp.c **** 	if ( AD_POS_NOT_FOUND == posAnalogInputParam )
 309:C:/Workspace/FW_Inertia/branch_indesit/PlatformLibrary/LIB_BackUp\LIB_BackUp.c **** 	{
 310:C:/Workspace/FW_Inertia/branch_indesit/PlatformLibrary/LIB_BackUp\LIB_BackUp.c **** 		/* Serious error Ch_Comp not defined */
 311:C:/Workspace/FW_Inertia/branch_indesit/PlatformLibrary/LIB_BackUp\LIB_BackUp.c **** 		PLT_ERROR_WARNING(PLT_ERROR_BACKUP_1);
 312:C:/Workspace/FW_Inertia/branch_indesit/PlatformLibrary/LIB_BackUp\LIB_BackUp.c **** 
 313:C:/Workspace/FW_Inertia/branch_indesit/PlatformLibrary/LIB_BackUp\LIB_BackUp.c **** 		return BACKUP_RTN_CH_NOT_FOUND;
 314:C:/Workspace/FW_Inertia/branch_indesit/PlatformLibrary/LIB_BackUp\LIB_BackUp.c **** 	}
 315:C:/Workspace/FW_Inertia/branch_indesit/PlatformLibrary/LIB_BackUp\LIB_BackUp.c **** 	/* Performs read on RTN */
 316:C:/Workspace/FW_Inertia/branch_indesit/PlatformLibrary/LIB_BackUp\LIB_BackUp.c **** 	rtnADvalue = LIB_ADC_Conv_F (posAnalogInputParam, AD_LOCAL_SAMPLES_POWER_OF_TWO, AD_LOCAL_SAMPLES_
 317:C:/Workspace/FW_Inertia/branch_indesit/PlatformLibrary/LIB_BackUp\LIB_BackUp.c **** 
 318:C:/Workspace/FW_Inertia/branch_indesit/PlatformLibrary/LIB_BackUp\LIB_BackUp.c **** 	if (RTN_RANGE(rtnADvalue))
 319:C:/Workspace/FW_Inertia/branch_indesit/PlatformLibrary/LIB_BackUp\LIB_BackUp.c **** 	{
 320:C:/Workspace/FW_Inertia/branch_indesit/PlatformLibrary/LIB_BackUp\LIB_BackUp.c **** 		/* Measure lower than minimum  */
 321:C:/Workspace/FW_Inertia/branch_indesit/PlatformLibrary/LIB_BackUp\LIB_BackUp.c **** 		Flags.NumOfReadingsInRangeSetup = 0;
 322:C:/Workspace/FW_Inertia/branch_indesit/PlatformLibrary/LIB_BackUp\LIB_BackUp.c **** 		if ( 0 == Flags.NumOfReadingsOutOfRangeSetup )
 323:C:/Workspace/FW_Inertia/branch_indesit/PlatformLibrary/LIB_BackUp\LIB_BackUp.c **** 		{
 324:C:/Workspace/FW_Inertia/branch_indesit/PlatformLibrary/LIB_BackUp\LIB_BackUp.c **** 			NumOfReadings = NUM_READ_RTN_OUT_OF_RANGE;
 325:C:/Workspace/FW_Inertia/branch_indesit/PlatformLibrary/LIB_BackUp\LIB_BackUp.c **** 			Flags.NumOfReadingsOutOfRangeSetup = 1;
 326:C:/Workspace/FW_Inertia/branch_indesit/PlatformLibrary/LIB_BackUp\LIB_BackUp.c **** 		}
 327:C:/Workspace/FW_Inertia/branch_indesit/PlatformLibrary/LIB_BackUp\LIB_BackUp.c **** 		NumOfReadings --;
 328:C:/Workspace/FW_Inertia/branch_indesit/PlatformLibrary/LIB_BackUp\LIB_BackUp.c **** 		if ( 0 == NumOfReadings )
 329:C:/Workspace/FW_Inertia/branch_indesit/PlatformLibrary/LIB_BackUp\LIB_BackUp.c **** 		{
 330:C:/Workspace/FW_Inertia/branch_indesit/PlatformLibrary/LIB_BackUp\LIB_BackUp.c **** 			/* For the next time but perhaps not necessary if after backup a cold reset is performed */
 331:C:/Workspace/FW_Inertia/branch_indesit/PlatformLibrary/LIB_BackUp\LIB_BackUp.c **** 			Flags.NumOfReadingsOutOfRangeSetup = 0;
 332:C:/Workspace/FW_Inertia/branch_indesit/PlatformLibrary/LIB_BackUp\LIB_BackUp.c **** 			/* It's time to perform backup ! */
 333:C:/Workspace/FW_Inertia/branch_indesit/PlatformLibrary/LIB_BackUp\LIB_BackUp.c **** 			return BACKUP_NOW;
 334:C:/Workspace/FW_Inertia/branch_indesit/PlatformLibrary/LIB_BackUp\LIB_BackUp.c **** 		}
 335:C:/Workspace/FW_Inertia/branch_indesit/PlatformLibrary/LIB_BackUp\LIB_BackUp.c **** 		else
 336:C:/Workspace/FW_Inertia/branch_indesit/PlatformLibrary/LIB_BackUp\LIB_BackUp.c **** 		{
 337:C:/Workspace/FW_Inertia/branch_indesit/PlatformLibrary/LIB_BackUp\LIB_BackUp.c **** 			return BACKUP_WAIT;
 338:C:/Workspace/FW_Inertia/branch_indesit/PlatformLibrary/LIB_BackUp\LIB_BackUp.c **** 		}
 339:C:/Workspace/FW_Inertia/branch_indesit/PlatformLibrary/LIB_BackUp\LIB_BackUp.c **** 	}
 340:C:/Workspace/FW_Inertia/branch_indesit/PlatformLibrary/LIB_BackUp\LIB_BackUp.c **** 	else
 341:C:/Workspace/FW_Inertia/branch_indesit/PlatformLibrary/LIB_BackUp\LIB_BackUp.c **** 	{
 342:C:/Workspace/FW_Inertia/branch_indesit/PlatformLibrary/LIB_BackUp\LIB_BackUp.c **** 		/* Measure in range */
 343:C:/Workspace/FW_Inertia/branch_indesit/PlatformLibrary/LIB_BackUp\LIB_BackUp.c **** 		Flags.NumOfReadingsOutOfRangeSetup = 0;
 344:C:/Workspace/FW_Inertia/branch_indesit/PlatformLibrary/LIB_BackUp\LIB_BackUp.c **** 		if ( 0 == Flags.NumOfReadingsInRangeSetup )
 345:C:/Workspace/FW_Inertia/branch_indesit/PlatformLibrary/LIB_BackUp\LIB_BackUp.c **** 		{
 346:C:/Workspace/FW_Inertia/branch_indesit/PlatformLibrary/LIB_BackUp\LIB_BackUp.c **** 			NumOfReadings = NUM_READ_RTN_IN_RANGE;
 347:C:/Workspace/FW_Inertia/branch_indesit/PlatformLibrary/LIB_BackUp\LIB_BackUp.c **** 			Flags.NumOfReadingsInRangeSetup = 1;
 348:C:/Workspace/FW_Inertia/branch_indesit/PlatformLibrary/LIB_BackUp\LIB_BackUp.c **** 		}
 349:C:/Workspace/FW_Inertia/branch_indesit/PlatformLibrary/LIB_BackUp\LIB_BackUp.c **** 		NumOfReadings --;
 350:C:/Workspace/FW_Inertia/branch_indesit/PlatformLibrary/LIB_BackUp\LIB_BackUp.c **** 		if ( 0 == NumOfReadings )
 351:C:/Workspace/FW_Inertia/branch_indesit/PlatformLibrary/LIB_BackUp\LIB_BackUp.c **** 		{
 352:C:/Workspace/FW_Inertia/branch_indesit/PlatformLibrary/LIB_BackUp\LIB_BackUp.c **** 			/* For the next time */
 353:C:/Workspace/FW_Inertia/branch_indesit/PlatformLibrary/LIB_BackUp\LIB_BackUp.c **** 			Flags.NumOfReadingsInRangeSetup = 0;
 354:C:/Workspace/FW_Inertia/branch_indesit/PlatformLibrary/LIB_BackUp\LIB_BackUp.c **** 			/* False Alarm Exit From Task Backup  */
 355:C:/Workspace/FW_Inertia/branch_indesit/PlatformLibrary/LIB_BackUp\LIB_BackUp.c **** 			return BACKUP_EXIT;
 356:C:/Workspace/FW_Inertia/branch_indesit/PlatformLibrary/LIB_BackUp\LIB_BackUp.c **** 		}
 357:C:/Workspace/FW_Inertia/branch_indesit/PlatformLibrary/LIB_BackUp\LIB_BackUp.c **** 		else
 358:C:/Workspace/FW_Inertia/branch_indesit/PlatformLibrary/LIB_BackUp\LIB_BackUp.c **** 		{
 359:C:/Workspace/FW_Inertia/branch_indesit/PlatformLibrary/LIB_BackUp\LIB_BackUp.c **** 			return BACKUP_WAIT;
 360:C:/Workspace/FW_Inertia/branch_indesit/PlatformLibrary/LIB_BackUp\LIB_BackUp.c **** 		}
 361:C:/Workspace/FW_Inertia/branch_indesit/PlatformLibrary/LIB_BackUp\LIB_BackUp.c **** 	}
 362:C:/Workspace/FW_Inertia/branch_indesit/PlatformLibrary/LIB_BackUp\LIB_BackUp.c **** }
 363:C:/Workspace/FW_Inertia/branch_indesit/PlatformLibrary/LIB_BackUp\LIB_BackUp.c **** /**
 364:C:/Workspace/FW_Inertia/branch_indesit/PlatformLibrary/LIB_BackUp\LIB_BackUp.c **** \n This function monitors the RTN in order to establish if a backup must be performed.
 365:C:/Workspace/FW_Inertia/branch_indesit/PlatformLibrary/LIB_BackUp\LIB_BackUp.c **** \n If RTN value is out of range for RTN_OUT_OF_RANGE_TOUT_NSEC
 366:C:/Workspace/FW_Inertia/branch_indesit/PlatformLibrary/LIB_BackUp\LIB_BackUp.c **** \n we assume that a backup must be performed.
 367:C:/Workspace/FW_Inertia/branch_indesit/PlatformLibrary/LIB_BackUp\LIB_BackUp.c **** \n If RTN value is in range for RTN_IN_RANGE_TOUT_NSEC
 368:C:/Workspace/FW_Inertia/branch_indesit/PlatformLibrary/LIB_BackUp\LIB_BackUp.c **** \n we assume that it was a false backup alarm.
 369:C:/Workspace/FW_Inertia/branch_indesit/PlatformLibrary/LIB_BackUp\LIB_BackUp.c **** 
 370:C:/Workspace/FW_Inertia/branch_indesit/PlatformLibrary/LIB_BackUp\LIB_BackUp.c **** \attention \b   Ch_Comp is A/D channel where we read RTN value, used as Input.
 371:C:/Workspace/FW_Inertia/branch_indesit/PlatformLibrary/LIB_BackUp\LIB_BackUp.c **** 
 372:C:/Workspace/FW_Inertia/branch_indesit/PlatformLibrary/LIB_BackUp\LIB_BackUp.c **** \return 	uint8_t
 373:C:/Workspace/FW_Inertia/branch_indesit/PlatformLibrary/LIB_BackUp\LIB_BackUp.c **** 
 374:C:/Workspace/FW_Inertia/branch_indesit/PlatformLibrary/LIB_BackUp\LIB_BackUp.c **** \retval		BACKUP_NOW  perform backup
 375:C:/Workspace/FW_Inertia/branch_indesit/PlatformLibrary/LIB_BackUp\LIB_BackUp.c **** \retval		BACKUP_WAIT  decision pending
 376:C:/Workspace/FW_Inertia/branch_indesit/PlatformLibrary/LIB_BackUp\LIB_BackUp.c **** \retval     BACKUP_EXIT no backup
 377:C:/Workspace/FW_Inertia/branch_indesit/PlatformLibrary/LIB_BackUp\LIB_BackUp.c **** \retval     BACKUP_RTN_CH_NOT_FOUND rtn A/D channel not found, check setting file.
 378:C:/Workspace/FW_Inertia/branch_indesit/PlatformLibrary/LIB_BackUp\LIB_BackUp.c **** 
 379:C:/Workspace/FW_Inertia/branch_indesit/PlatformLibrary/LIB_BackUp\LIB_BackUp.c **** 
 380:C:/Workspace/FW_Inertia/branch_indesit/PlatformLibrary/LIB_BackUp\LIB_BackUp.c **** \author 	stefano.ughi
 381:C:/Workspace/FW_Inertia/branch_indesit/PlatformLibrary/LIB_BackUp\LIB_BackUp.c **** \date		Feb 8, 2011
 382:C:/Workspace/FW_Inertia/branch_indesit/PlatformLibrary/LIB_BackUp\LIB_BackUp.c **** \version	1.0.0
 383:C:/Workspace/FW_Inertia/branch_indesit/PlatformLibrary/LIB_BackUp\LIB_BackUp.c **** 
 384:C:/Workspace/FW_Inertia/branch_indesit/PlatformLibrary/LIB_BackUp\LIB_BackUp.c **** \note		\par \b Note 1:
 385:C:/Workspace/FW_Inertia/branch_indesit/PlatformLibrary/LIB_BackUp\LIB_BackUp.c **** 			documentation by stefano.ughi
 386:C:/Workspace/FW_Inertia/branch_indesit/PlatformLibrary/LIB_BackUp\LIB_BackUp.c **** 
 387:C:/Workspace/FW_Inertia/branch_indesit/PlatformLibrary/LIB_BackUp\LIB_BackUp.c **** */
 388:C:/Workspace/FW_Inertia/branch_indesit/PlatformLibrary/LIB_BackUp\LIB_BackUp.c **** #elif defined(RTN_CHECK_WITH_SW_ALARM)
 389:C:/Workspace/FW_Inertia/branch_indesit/PlatformLibrary/LIB_BackUp\LIB_BackUp.c **** uint8_t LIB_Backup_RefCheck(void)
 390:C:/Workspace/FW_Inertia/branch_indesit/PlatformLibrary/LIB_BackUp\LIB_BackUp.c **** {
 109                             		.loc 1 390 0
 110 0000 6E 7A                   		pushm	r7-r10
 111                             	.LCFI2:
 391:C:/Workspace/FW_Inertia/branch_indesit/PlatformLibrary/LIB_BackUp\LIB_BackUp.c **** 	static struct
 392:C:/Workspace/FW_Inertia/branch_indesit/PlatformLibrary/LIB_BackUp\LIB_BackUp.c **** 	{
 393:C:/Workspace/FW_Inertia/branch_indesit/PlatformLibrary/LIB_BackUp\LIB_BackUp.c **** 		bool_t AlarmOutOfRangeSetup:1;
 394:C:/Workspace/FW_Inertia/branch_indesit/PlatformLibrary/LIB_BackUp\LIB_BackUp.c **** 		bool_t AlarmInRangeSetup:1;
 395:C:/Workspace/FW_Inertia/branch_indesit/PlatformLibrary/LIB_BackUp\LIB_BackUp.c **** 		bool_t Free:6;
 396:C:/Workspace/FW_Inertia/branch_indesit/PlatformLibrary/LIB_BackUp\LIB_BackUp.c **** 	} Flags= {0,0,0};
 397:C:/Workspace/FW_Inertia/branch_indesit/PlatformLibrary/LIB_BackUp\LIB_BackUp.c **** 	IO_HwTimerType alarmInTicks;
 398:C:/Workspace/FW_Inertia/branch_indesit/PlatformLibrary/LIB_BackUp\LIB_BackUp.c **** #if defined (DEBUG_BACKUP_MANAGER)
 399:C:/Workspace/FW_Inertia/branch_indesit/PlatformLibrary/LIB_BackUp\LIB_BackUp.c **** 	static ADC_ValueType rtnADvalue;
 400:C:/Workspace/FW_Inertia/branch_indesit/PlatformLibrary/LIB_BackUp\LIB_BackUp.c **** #else
 401:C:/Workspace/FW_Inertia/branch_indesit/PlatformLibrary/LIB_BackUp\LIB_BackUp.c **** 	ADC_ValueType rtnADvalue;
 402:C:/Workspace/FW_Inertia/branch_indesit/PlatformLibrary/LIB_BackUp\LIB_BackUp.c **** #endif
 403:C:/Workspace/FW_Inertia/branch_indesit/PlatformLibrary/LIB_BackUp\LIB_BackUp.c **** 	uint8_t posAnalogInputParam;
 404:C:/Workspace/FW_Inertia/branch_indesit/PlatformLibrary/LIB_BackUp\LIB_BackUp.c **** 
 405:C:/Workspace/FW_Inertia/branch_indesit/PlatformLibrary/LIB_BackUp\LIB_BackUp.c **** 
 406:C:/Workspace/FW_Inertia/branch_indesit/PlatformLibrary/LIB_BackUp\LIB_BackUp.c **** 	posAnalogInputParam = LIB_ADC_ADChVsAnalogInputParamIndex(LIB_ADC_GetChCompPos());
 112                             		.loc 1 406 0
 113 0002 05 00 00 00             		bsr	_LIB_ADC_GetChCompPos
 114                             	.LVL7:
 115 0006 05 00 00 00             		bsr	_LIB_ADC_ADChVsAnalogInputParamIndex
 116                             	.LVL8:
 407:C:/Workspace/FW_Inertia/branch_indesit/PlatformLibrary/LIB_BackUp\LIB_BackUp.c **** 
 408:C:/Workspace/FW_Inertia/branch_indesit/PlatformLibrary/LIB_BackUp\LIB_BackUp.c **** 	if ( AD_POS_NOT_FOUND == posAnalogInputParam )
 117                             		.loc 1 408 0
 118 000a 75 51 FF                		cmp	#0xff, r1
 119 000d 21 0D                   		bne	.L13
 409:C:/Workspace/FW_Inertia/branch_indesit/PlatformLibrary/LIB_BackUp\LIB_BackUp.c **** 	{
 410:C:/Workspace/FW_Inertia/branch_indesit/PlatformLibrary/LIB_BackUp\LIB_BackUp.c **** 		/* Serious error Ch_Comp not defined */
 411:C:/Workspace/FW_Inertia/branch_indesit/PlatformLibrary/LIB_BackUp\LIB_BackUp.c **** 		PLT_ERROR_WARNING(PLT_ERROR_BACKUP_2);
 120                             		.loc 1 411 0
 121 000f 66 41                   		mov.L	#4, r1
 122                             	.LVL9:
 123 0011 05 00 00 00             		bsr	_LIB_Error_Warning_Handler
 124                             	.LVL10:
 412:C:/Workspace/FW_Inertia/branch_indesit/PlatformLibrary/LIB_BackUp\LIB_BackUp.c **** 
 413:C:/Workspace/FW_Inertia/branch_indesit/PlatformLibrary/LIB_BackUp\LIB_BackUp.c **** 		return BACKUP_RTN_CH_NOT_FOUND;
 125                             		.loc 1 413 0
 126 0015 66 31                   		mov	#3, r1
 127 0017 38 A7 00                		bra	.L14
 128                             	.LVL11:
 129                             	.L13:
 414:C:/Workspace/FW_Inertia/branch_indesit/PlatformLibrary/LIB_BackUp\LIB_BackUp.c **** 	}
 415:C:/Workspace/FW_Inertia/branch_indesit/PlatformLibrary/LIB_BackUp\LIB_BackUp.c **** 	/* Performs read on RTN */
 416:C:/Workspace/FW_Inertia/branch_indesit/PlatformLibrary/LIB_BackUp\LIB_BackUp.c **** 	rtnADvalue = LIB_ADC_Conv_F (posAnalogInputParam, AD_LOCAL_SAMPLES_POWER_OF_TWO, AD_LOCAL_SAMPLES_
 130                             		.loc 1 416 0
 131 001a 66 22                   		mov	#2, r2
 132 001c 66 03                   		mov	#0, r3
 133 001e 05 00 00 00             		bsr	_LIB_ADC_Conv_F
 134                             	.LVL12:
 417:C:/Workspace/FW_Inertia/branch_indesit/PlatformLibrary/LIB_BackUp\LIB_BackUp.c **** 
 418:C:/Workspace/FW_Inertia/branch_indesit/PlatformLibrary/LIB_BackUp\LIB_BackUp.c **** 	if ( RTN_RANGE(rtnADvalue) )
 135                             		.loc 1 418 0
 136 0022 5F 11                   		movu.W	r1, r1
 137 0024 FB 72 00 00 00 00       		mov.L	#_Flags.10782, r7
 419:C:/Workspace/FW_Inertia/branch_indesit/PlatformLibrary/LIB_BackUp\LIB_BackUp.c **** 	{
 420:C:/Workspace/FW_Inertia/branch_indesit/PlatformLibrary/LIB_BackUp\LIB_BackUp.c **** 		/* Measure lower than minimum  */
 421:C:/Workspace/FW_Inertia/branch_indesit/PlatformLibrary/LIB_BackUp\LIB_BackUp.c **** 		Flags.AlarmInRangeSetup = 0;
 138                             		.loc 1 421 0
 139 002a CC 7A                   		mov.B	[r7], r10
 418:C:/Workspace/FW_Inertia/branch_indesit/PlatformLibrary/LIB_BackUp\LIB_BackUp.c **** 	if ( RTN_RANGE(rtnADvalue) )
 140                             		.loc 1 418 0
 141 002c 76 01 8D 01             		cmp	#0x18d, r1
 142 0030 24 4A                   		bgtu	.L15
 143                             		.loc 1 421 0
 144 0032 7A 6A                   		bclr	#6, r10
 145 0034 C3 7A                   		mov.B	r10, [r7]
 422:C:/Workspace/FW_Inertia/branch_indesit/PlatformLibrary/LIB_BackUp\LIB_BackUp.c **** 		if ( 0 == Flags.AlarmOutOfRangeSetup )
 146                             		.loc 1 422 0
 147 0036 EC 7A                   		mov.L	[r7], r10
 148 0038 74 2A 00 00 00 80       		and	#0x80000000, r10
 149 003e 21 1A                   		bne	.L16
 423:C:/Workspace/FW_Inertia/branch_indesit/PlatformLibrary/LIB_BackUp\LIB_BackUp.c **** 		{
 424:C:/Workspace/FW_Inertia/branch_indesit/PlatformLibrary/LIB_BackUp\LIB_BackUp.c **** 			alarmInTicks = PM_SWalarmsConvNsecInTicks(RTN_OUT_OF_RANGE_TOUT_NSEC);
 150                             		.loc 1 424 0
 151 0040 FB 1E 40 4B 4C          		mov.L	#0x4c4b40, r1
 152                             	.LVL13:
 153 0045 05 00 00 00             		bsr	_PM_SWalarmsConvNsecInTicks
 154                             	.LVL14:
 155 0049 EF 12                   		mov.L	r1, r2
 425:C:/Workspace/FW_Inertia/branch_indesit/PlatformLibrary/LIB_BackUp\LIB_BackUp.c **** 			PM_SWalarmsSet(ID_SW_ALARM, alarmInTicks);
 156                             		.loc 1 425 0
 157 004b CF A1                   		mov.B	r10, r1
 158 004d 05 00 00 00             		bsr	_PM_SWalarmsSet
 159                             	.LVL15:
 426:C:/Workspace/FW_Inertia/branch_indesit/PlatformLibrary/LIB_BackUp\LIB_BackUp.c **** 
 427:C:/Workspace/FW_Inertia/branch_indesit/PlatformLibrary/LIB_BackUp\LIB_BackUp.c **** 			Flags.AlarmOutOfRangeSetup = 1;
 160                             		.loc 1 427 0
 161 0051 CC 7A                   		mov.B	[r7], r10
 162 0053 78 7A                   		bset	#7, r10
 163 0055 C3 7A                   		mov.B	r10, [r7]
 164 0057 03                      		.balign 2,3,1
 165                             	.L16:
 428:C:/Workspace/FW_Inertia/branch_indesit/PlatformLibrary/LIB_BackUp\LIB_BackUp.c **** 		}
 429:C:/Workspace/FW_Inertia/branch_indesit/PlatformLibrary/LIB_BackUp\LIB_BackUp.c **** 
 430:C:/Workspace/FW_Inertia/branch_indesit/PlatformLibrary/LIB_BackUp\LIB_BackUp.c **** 		PM_SWalarmsCheck(ID_SW_ALARM);
 166                             		.loc 1 430 0
 167 0058 66 01                   		mov	#0, r1
 168 005a 05 00 00 00             		bsr	_PM_SWalarmsCheck
 169                             	.LVL16:
 431:C:/Workspace/FW_Inertia/branch_indesit/PlatformLibrary/LIB_BackUp\LIB_BackUp.c **** 		if ( PM_SWalarms_IsAlarmExpired(ID_SW_ALARM) == TRUE )
 170                             		.loc 1 431 0
 171 005e 66 01                   		mov	#0, r1
 172 0060 05 00 00 00             		bsr	_PM_SWalarms_IsAlarmExpired
 173                             	.LVL17:
 174 0064 61 11                   		cmp	#1, r1
 175 0066 16                      		beq	.L17
 176 0067 03                      		.balign 2,3,1
 177                             	.L19:
 432:C:/Workspace/FW_Inertia/branch_indesit/PlatformLibrary/LIB_BackUp\LIB_BackUp.c **** 		{
 433:C:/Workspace/FW_Inertia/branch_indesit/PlatformLibrary/LIB_BackUp\LIB_BackUp.c **** 			/* For the next time but perhaps not necessary if after backup a cold reset is performed */
 434:C:/Workspace/FW_Inertia/branch_indesit/PlatformLibrary/LIB_BackUp\LIB_BackUp.c **** 			Flags.AlarmOutOfRangeSetup = 0;
 435:C:/Workspace/FW_Inertia/branch_indesit/PlatformLibrary/LIB_BackUp\LIB_BackUp.c **** 
 436:C:/Workspace/FW_Inertia/branch_indesit/PlatformLibrary/LIB_BackUp\LIB_BackUp.c **** 			/* It's time to perform backup ! */
 437:C:/Workspace/FW_Inertia/branch_indesit/PlatformLibrary/LIB_BackUp\LIB_BackUp.c **** 			return BACKUP_NOW;
 438:C:/Workspace/FW_Inertia/branch_indesit/PlatformLibrary/LIB_BackUp\LIB_BackUp.c **** 		}
 439:C:/Workspace/FW_Inertia/branch_indesit/PlatformLibrary/LIB_BackUp\LIB_BackUp.c **** 		else
 440:C:/Workspace/FW_Inertia/branch_indesit/PlatformLibrary/LIB_BackUp\LIB_BackUp.c **** 		{
 441:C:/Workspace/FW_Inertia/branch_indesit/PlatformLibrary/LIB_BackUp\LIB_BackUp.c **** 			return BACKUP_WAIT;
 178                             		.loc 1 441 0
 179 0068 66 01                   		mov	#0, r1
 180 006a 2E 54                   		bra	.L14
 181                             	.L17:
 434:C:/Workspace/FW_Inertia/branch_indesit/PlatformLibrary/LIB_BackUp\LIB_BackUp.c **** 			Flags.AlarmOutOfRangeSetup = 0;
 182                             		.loc 1 434 0
 183 006c FB 72 00 00 00 00       		mov.L	#_Flags.10782, r7
 184 0072 CC 7A                   		mov.B	[r7], r10
 185 0074 7A 7A                   		bclr	#7, r10
 186 0076 C3 7A                   		mov.B	r10, [r7]
 437:C:/Workspace/FW_Inertia/branch_indesit/PlatformLibrary/LIB_BackUp\LIB_BackUp.c **** 			return BACKUP_NOW;
 187                             		.loc 1 437 0
 188 0078 2E 46                   		bra	.L14
 189                             	.LVL18:
 190                             	.L15:
 442:C:/Workspace/FW_Inertia/branch_indesit/PlatformLibrary/LIB_BackUp\LIB_BackUp.c **** 		}
 443:C:/Workspace/FW_Inertia/branch_indesit/PlatformLibrary/LIB_BackUp\LIB_BackUp.c **** 	}
 444:C:/Workspace/FW_Inertia/branch_indesit/PlatformLibrary/LIB_BackUp\LIB_BackUp.c **** 	else
 445:C:/Workspace/FW_Inertia/branch_indesit/PlatformLibrary/LIB_BackUp\LIB_BackUp.c **** 	{
 446:C:/Workspace/FW_Inertia/branch_indesit/PlatformLibrary/LIB_BackUp\LIB_BackUp.c **** 		/* Measure in range */
 447:C:/Workspace/FW_Inertia/branch_indesit/PlatformLibrary/LIB_BackUp\LIB_BackUp.c **** 		Flags.AlarmOutOfRangeSetup = 0;
 191                             		.loc 1 447 0
 192 007a 7A 7A                   		bclr	#7, r10
 193 007c C3 7A                   		mov.B	r10, [r7]
 448:C:/Workspace/FW_Inertia/branch_indesit/PlatformLibrary/LIB_BackUp\LIB_BackUp.c **** 		if ( 0 == Flags.AlarmInRangeSetup )
 194                             		.loc 1 448 0
 195 007e EC 7A                   		mov.L	[r7], r10
 196 0080 74 2A 00 00 00 40       		and	#0x40000000, r10
 197 0086 21 1A                   		bne	.L18
 449:C:/Workspace/FW_Inertia/branch_indesit/PlatformLibrary/LIB_BackUp\LIB_BackUp.c **** 		{
 450:C:/Workspace/FW_Inertia/branch_indesit/PlatformLibrary/LIB_BackUp\LIB_BackUp.c **** 			alarmInTicks = PM_SWalarmsConvNsecInTicks(RTN_IN_RANGE_TOUT_NSEC);
 198                             		.loc 1 450 0
 199 0088 FB 1E 40 4B 4C          		mov.L	#0x4c4b40, r1
 200                             	.LVL19:
 201 008d 05 00 00 00             		bsr	_PM_SWalarmsConvNsecInTicks
 202                             	.LVL20:
 203 0091 EF 12                   		mov.L	r1, r2
 451:C:/Workspace/FW_Inertia/branch_indesit/PlatformLibrary/LIB_BackUp\LIB_BackUp.c **** 			PM_SWalarmsSet(ID_SW_ALARM, alarmInTicks);
 204                             		.loc 1 451 0
 205 0093 CF A1                   		mov.B	r10, r1
 206 0095 05 00 00 00             		bsr	_PM_SWalarmsSet
 207                             	.LVL21:
 452:C:/Workspace/FW_Inertia/branch_indesit/PlatformLibrary/LIB_BackUp\LIB_BackUp.c **** 			Flags.AlarmInRangeSetup = 1;
 208                             		.loc 1 452 0
 209 0099 CC 7A                   		mov.B	[r7], r10
 210 009b 78 6A                   		bset	#6, r10
 211 009d C3 7A                   		mov.B	r10, [r7]
 212 009f 03                      		.balign 2,3,1
 213                             	.L18:
 453:C:/Workspace/FW_Inertia/branch_indesit/PlatformLibrary/LIB_BackUp\LIB_BackUp.c **** 		}
 454:C:/Workspace/FW_Inertia/branch_indesit/PlatformLibrary/LIB_BackUp\LIB_BackUp.c **** 
 455:C:/Workspace/FW_Inertia/branch_indesit/PlatformLibrary/LIB_BackUp\LIB_BackUp.c **** 		PM_SWalarmsCheck(ID_SW_ALARM);
 214                             		.loc 1 455 0
 215 00a0 66 01                   		mov	#0, r1
 216 00a2 05 00 00 00             		bsr	_PM_SWalarmsCheck
 217                             	.LVL22:
 456:C:/Workspace/FW_Inertia/branch_indesit/PlatformLibrary/LIB_BackUp\LIB_BackUp.c **** 		if ( PM_SWalarms_IsAlarmExpired(ID_SW_ALARM) == TRUE )
 218                             		.loc 1 456 0
 219 00a6 66 01                   		mov	#0, r1
 220 00a8 05 00 00 00             		bsr	_PM_SWalarms_IsAlarmExpired
 221                             	.LVL23:
 222 00ac 61 11                   		cmp	#1, r1
 223 00ae 21 BA                   		bne	.L19
 457:C:/Workspace/FW_Inertia/branch_indesit/PlatformLibrary/LIB_BackUp\LIB_BackUp.c **** 		{
 458:C:/Workspace/FW_Inertia/branch_indesit/PlatformLibrary/LIB_BackUp\LIB_BackUp.c **** 			/* For the next time */
 459:C:/Workspace/FW_Inertia/branch_indesit/PlatformLibrary/LIB_BackUp\LIB_BackUp.c **** 			Flags.AlarmInRangeSetup = 0;
 224                             		.loc 1 459 0
 225 00b0 FB 72 00 00 00 00       		mov.L	#_Flags.10782, r7
 226 00b6 CC 7A                   		mov.B	[r7], r10
 227 00b8 7A 6A                   		bclr	#6, r10
 228 00ba C3 7A                   		mov.B	r10, [r7]
 460:C:/Workspace/FW_Inertia/branch_indesit/PlatformLibrary/LIB_BackUp\LIB_BackUp.c **** 			/* False Alarm Exit From Task Backup  */
 461:C:/Workspace/FW_Inertia/branch_indesit/PlatformLibrary/LIB_BackUp\LIB_BackUp.c **** 			return BACKUP_EXIT;
 229                             		.loc 1 461 0
 230 00bc 66 21                   		mov	#2, r1
 231                             		.balign 2,3,1
 232                             	.L14:
 462:C:/Workspace/FW_Inertia/branch_indesit/PlatformLibrary/LIB_BackUp\LIB_BackUp.c **** 		}
 463:C:/Workspace/FW_Inertia/branch_indesit/PlatformLibrary/LIB_BackUp\LIB_BackUp.c **** 		else
 464:C:/Workspace/FW_Inertia/branch_indesit/PlatformLibrary/LIB_BackUp\LIB_BackUp.c **** 		{
 465:C:/Workspace/FW_Inertia/branch_indesit/PlatformLibrary/LIB_BackUp\LIB_BackUp.c **** 			return BACKUP_WAIT;
 466:C:/Workspace/FW_Inertia/branch_indesit/PlatformLibrary/LIB_BackUp\LIB_BackUp.c **** 		}
 467:C:/Workspace/FW_Inertia/branch_indesit/PlatformLibrary/LIB_BackUp\LIB_BackUp.c **** 	}
 468:C:/Workspace/FW_Inertia/branch_indesit/PlatformLibrary/LIB_BackUp\LIB_BackUp.c **** }
 233                             		.loc 1 468 0
 234 00be 5B 11                   		movu.B	r1, r1
 235 00c0 3F 7A 04                		rtsd	#16, r7-r10
 236                             	.LFE4:
 238 00c3 03                      		.section	.text.Task_Backup,"ax",@progbits
 239                             		.global	_Task_Backup
 241                             	_Task_Backup:
 242                             	.LFB0:
 142:C:/Workspace/FW_Inertia/branch_indesit/PlatformLibrary/LIB_BackUp\LIB_BackUp.c **** {
 243                             		.loc 1 142 0
 244 0000 7E A7                   		push.l	r7
 245                             	.LCFI3:
 145:C:/Workspace/FW_Inertia/branch_indesit/PlatformLibrary/LIB_BackUp\LIB_BackUp.c **** 	CBF_notifyBackupAlarm();
 246                             		.loc 1 145 0
 247 0002 05 00 00 00             		bsr	_CBF_notifyBackupAlarm
 147:C:/Workspace/FW_Inertia/branch_indesit/PlatformLibrary/LIB_BackUp\LIB_BackUp.c **** 	LIB_IOM_SetAllLoadsOff ( SOURCE_SALO_PLATFORM );
 248                             		.loc 1 147 0
 249 0006 66 11                   		mov	#1, r1
 250 0008 05 00 00 00             		bsr	_LIB_IOM_SetAllLoadsOff
 251                             		.balign 2,3,3
 252                             	.L23:
 253                             	.LBB12:
 254                             	.LBB13:
 469:C:/Workspace/FW_Inertia/branch_indesit/PlatformLibrary/LIB_BackUp\LIB_BackUp.c **** #else
 470:C:/Workspace/FW_Inertia/branch_indesit/PlatformLibrary/LIB_BackUp\LIB_BackUp.c **** #error "Backup RTN Check Mode not defined"
 471:C:/Workspace/FW_Inertia/branch_indesit/PlatformLibrary/LIB_BackUp\LIB_BackUp.c **** #endif
 472:C:/Workspace/FW_Inertia/branch_indesit/PlatformLibrary/LIB_BackUp\LIB_BackUp.c **** /**
 473:C:/Workspace/FW_Inertia/branch_indesit/PlatformLibrary/LIB_BackUp\LIB_BackUp.c **** Enables/Disables Backup Control on...
 474:C:/Workspace/FW_Inertia/branch_indesit/PlatformLibrary/LIB_BackUp\LIB_BackUp.c **** 
 475:C:/Workspace/FW_Inertia/branch_indesit/PlatformLibrary/LIB_BackUp\LIB_BackUp.c **** \param  [in]    backupSource event to monitor in order to enter in backup
 476:C:/Workspace/FW_Inertia/branch_indesit/PlatformLibrary/LIB_BackUp\LIB_BackUp.c **** 
 477:C:/Workspace/FW_Inertia/branch_indesit/PlatformLibrary/LIB_BackUp\LIB_BackUp.c **** \author 	stefano.ughi
 478:C:/Workspace/FW_Inertia/branch_indesit/PlatformLibrary/LIB_BackUp\LIB_BackUp.c **** \date		Feb 9, 2011
 479:C:/Workspace/FW_Inertia/branch_indesit/PlatformLibrary/LIB_BackUp\LIB_BackUp.c **** \version	1.0.0
 480:C:/Workspace/FW_Inertia/branch_indesit/PlatformLibrary/LIB_BackUp\LIB_BackUp.c **** 
 481:C:/Workspace/FW_Inertia/branch_indesit/PlatformLibrary/LIB_BackUp\LIB_BackUp.c **** 
 482:C:/Workspace/FW_Inertia/branch_indesit/PlatformLibrary/LIB_BackUp\LIB_BackUp.c **** \note		\par \b Note 1:
 483:C:/Workspace/FW_Inertia/branch_indesit/PlatformLibrary/LIB_BackUp\LIB_BackUp.c **** 			documentation by stefano.ughi
 484:C:/Workspace/FW_Inertia/branch_indesit/PlatformLibrary/LIB_BackUp\LIB_BackUp.c **** 
 485:C:/Workspace/FW_Inertia/branch_indesit/PlatformLibrary/LIB_BackUp\LIB_BackUp.c **** */
 486:C:/Workspace/FW_Inertia/branch_indesit/PlatformLibrary/LIB_BackUp\LIB_BackUp.c **** void LIB_Backup_SetBackupControlMonitor(uint8_t backupSource)
 487:C:/Workspace/FW_Inertia/branch_indesit/PlatformLibrary/LIB_BackUp\LIB_BackUp.c **** {
 488:C:/Workspace/FW_Inertia/branch_indesit/PlatformLibrary/LIB_BackUp\LIB_BackUp.c **** 	BackupCntrlSource = backupSource;
 489:C:/Workspace/FW_Inertia/branch_indesit/PlatformLibrary/LIB_BackUp\LIB_BackUp.c **** }
 490:C:/Workspace/FW_Inertia/branch_indesit/PlatformLibrary/LIB_BackUp\LIB_BackUp.c **** /**
 491:C:/Workspace/FW_Inertia/branch_indesit/PlatformLibrary/LIB_BackUp\LIB_BackUp.c **** Returns Backup Control Monitor source.
 492:C:/Workspace/FW_Inertia/branch_indesit/PlatformLibrary/LIB_BackUp\LIB_BackUp.c **** 
 493:C:/Workspace/FW_Inertia/branch_indesit/PlatformLibrary/LIB_BackUp\LIB_BackUp.c **** \return 	uint8_t
 494:C:/Workspace/FW_Inertia/branch_indesit/PlatformLibrary/LIB_BackUp\LIB_BackUp.c **** 
 495:C:/Workspace/FW_Inertia/branch_indesit/PlatformLibrary/LIB_BackUp\LIB_BackUp.c **** \retval		BACKUP_NO_SOURCE    Backup'monitoring off so no backup is performed.
 496:C:/Workspace/FW_Inertia/branch_indesit/PlatformLibrary/LIB_BackUp\LIB_BackUp.c **** \retval     BACKUP_ON_RTN       Backup'monitoring on RTN active.
 497:C:/Workspace/FW_Inertia/branch_indesit/PlatformLibrary/LIB_BackUp\LIB_BackUp.c **** 
 498:C:/Workspace/FW_Inertia/branch_indesit/PlatformLibrary/LIB_BackUp\LIB_BackUp.c **** \author 	stefano.ughi
 499:C:/Workspace/FW_Inertia/branch_indesit/PlatformLibrary/LIB_BackUp\LIB_BackUp.c **** \date		Feb 9, 2011
 500:C:/Workspace/FW_Inertia/branch_indesit/PlatformLibrary/LIB_BackUp\LIB_BackUp.c **** \version	1.0.0
 501:C:/Workspace/FW_Inertia/branch_indesit/PlatformLibrary/LIB_BackUp\LIB_BackUp.c **** 
 502:C:/Workspace/FW_Inertia/branch_indesit/PlatformLibrary/LIB_BackUp\LIB_BackUp.c **** \note		\par \b Note 1:
 503:C:/Workspace/FW_Inertia/branch_indesit/PlatformLibrary/LIB_BackUp\LIB_BackUp.c **** 			documentation by stefano.ughi
 504:C:/Workspace/FW_Inertia/branch_indesit/PlatformLibrary/LIB_BackUp\LIB_BackUp.c **** 
 505:C:/Workspace/FW_Inertia/branch_indesit/PlatformLibrary/LIB_BackUp\LIB_BackUp.c **** */
 506:C:/Workspace/FW_Inertia/branch_indesit/PlatformLibrary/LIB_BackUp\LIB_BackUp.c **** uint8_t LIB_Backup_GetBackupControlMonitor(void)
 507:C:/Workspace/FW_Inertia/branch_indesit/PlatformLibrary/LIB_BackUp\LIB_BackUp.c **** {
 508:C:/Workspace/FW_Inertia/branch_indesit/PlatformLibrary/LIB_BackUp\LIB_BackUp.c **** 	return BackupCntrlSource;
 509:C:/Workspace/FW_Inertia/branch_indesit/PlatformLibrary/LIB_BackUp\LIB_BackUp.c **** }
 510:C:/Workspace/FW_Inertia/branch_indesit/PlatformLibrary/LIB_BackUp\LIB_BackUp.c **** /**
 511:C:/Workspace/FW_Inertia/branch_indesit/PlatformLibrary/LIB_BackUp\LIB_BackUp.c **** Returns the value of Backup_Source that must be the first variable of backup data.
 512:C:/Workspace/FW_Inertia/branch_indesit/PlatformLibrary/LIB_BackUp\LIB_BackUp.c **** 
 513:C:/Workspace/FW_Inertia/branch_indesit/PlatformLibrary/LIB_BackUp\LIB_BackUp.c **** \return 	uint8_t
 514:C:/Workspace/FW_Inertia/branch_indesit/PlatformLibrary/LIB_BackUp\LIB_BackUp.c **** 
 515:C:/Workspace/FW_Inertia/branch_indesit/PlatformLibrary/LIB_BackUp\LIB_BackUp.c **** \retval		PARTIAL_BACKUP_KEYWORD partial backup data restore was performed
 516:C:/Workspace/FW_Inertia/branch_indesit/PlatformLibrary/LIB_BackUp\LIB_BackUp.c **** \retval		not PARTIAL_BACKUP_KEYWORD full backup data restore was performed
 517:C:/Workspace/FW_Inertia/branch_indesit/PlatformLibrary/LIB_BackUp\LIB_BackUp.c **** 
 518:C:/Workspace/FW_Inertia/branch_indesit/PlatformLibrary/LIB_BackUp\LIB_BackUp.c **** \author 	stefano.ughi
 519:C:/Workspace/FW_Inertia/branch_indesit/PlatformLibrary/LIB_BackUp\LIB_BackUp.c **** \date		Feb 01, 2011
 520:C:/Workspace/FW_Inertia/branch_indesit/PlatformLibrary/LIB_BackUp\LIB_BackUp.c **** \version	1.0.0
 521:C:/Workspace/FW_Inertia/branch_indesit/PlatformLibrary/LIB_BackUp\LIB_BackUp.c **** 
 522:C:/Workspace/FW_Inertia/branch_indesit/PlatformLibrary/LIB_BackUp\LIB_BackUp.c **** \note		\par \b Note 1:
 523:C:/Workspace/FW_Inertia/branch_indesit/PlatformLibrary/LIB_BackUp\LIB_BackUp.c **** 			documentation by stefano.ughi
 524:C:/Workspace/FW_Inertia/branch_indesit/PlatformLibrary/LIB_BackUp\LIB_BackUp.c **** 			\par \b Note 2:
 525:C:/Workspace/FW_Inertia/branch_indesit/PlatformLibrary/LIB_BackUp\LIB_BackUp.c **** 			This routine must be called after LIB_Backup_DataRestore()
 526:C:/Workspace/FW_Inertia/branch_indesit/PlatformLibrary/LIB_BackUp\LIB_BackUp.c **** 
 527:C:/Workspace/FW_Inertia/branch_indesit/PlatformLibrary/LIB_BackUp\LIB_BackUp.c **** */
 528:C:/Workspace/FW_Inertia/branch_indesit/PlatformLibrary/LIB_BackUp\LIB_BackUp.c **** uint8_t LIB_Backup_GetBackupSource(void)
 529:C:/Workspace/FW_Inertia/branch_indesit/PlatformLibrary/LIB_BackUp\LIB_BackUp.c **** {
 530:C:/Workspace/FW_Inertia/branch_indesit/PlatformLibrary/LIB_BackUp\LIB_BackUp.c **** 	return Backup_Source;
 531:C:/Workspace/FW_Inertia/branch_indesit/PlatformLibrary/LIB_BackUp\LIB_BackUp.c **** }
 532:C:/Workspace/FW_Inertia/branch_indesit/PlatformLibrary/LIB_BackUp\LIB_BackUp.c **** /**
 533:C:/Workspace/FW_Inertia/branch_indesit/PlatformLibrary/LIB_BackUp\LIB_BackUp.c **** Sets Backup_Source variable with the keyword for partial backup.
 534:C:/Workspace/FW_Inertia/branch_indesit/PlatformLibrary/LIB_BackUp\LIB_BackUp.c **** 
 535:C:/Workspace/FW_Inertia/branch_indesit/PlatformLibrary/LIB_BackUp\LIB_BackUp.c **** \author 	stefano.ughi
 536:C:/Workspace/FW_Inertia/branch_indesit/PlatformLibrary/LIB_BackUp\LIB_BackUp.c **** \date		Feb 01, 2011
 537:C:/Workspace/FW_Inertia/branch_indesit/PlatformLibrary/LIB_BackUp\LIB_BackUp.c **** \version	1.0.0
 538:C:/Workspace/FW_Inertia/branch_indesit/PlatformLibrary/LIB_BackUp\LIB_BackUp.c **** 
 539:C:/Workspace/FW_Inertia/branch_indesit/PlatformLibrary/LIB_BackUp\LIB_BackUp.c **** 
 540:C:/Workspace/FW_Inertia/branch_indesit/PlatformLibrary/LIB_BackUp\LIB_BackUp.c **** \note		\par \b Note 1:
 541:C:/Workspace/FW_Inertia/branch_indesit/PlatformLibrary/LIB_BackUp\LIB_BackUp.c **** 			documentation by stefano.ughi
 542:C:/Workspace/FW_Inertia/branch_indesit/PlatformLibrary/LIB_BackUp\LIB_BackUp.c **** 			\par \b Note 2:
 543:C:/Workspace/FW_Inertia/branch_indesit/PlatformLibrary/LIB_BackUp\LIB_BackUp.c **** 			This routine must be invoked before performing backup if you want\n
 544:C:/Workspace/FW_Inertia/branch_indesit/PlatformLibrary/LIB_BackUp\LIB_BackUp.c **** 			partial restore.
 545:C:/Workspace/FW_Inertia/branch_indesit/PlatformLibrary/LIB_BackUp\LIB_BackUp.c **** 
 546:C:/Workspace/FW_Inertia/branch_indesit/PlatformLibrary/LIB_BackUp\LIB_BackUp.c **** */
 547:C:/Workspace/FW_Inertia/branch_indesit/PlatformLibrary/LIB_BackUp\LIB_BackUp.c **** void LIB_Backup_SetBackupSource(void)
 548:C:/Workspace/FW_Inertia/branch_indesit/PlatformLibrary/LIB_BackUp\LIB_BackUp.c **** {
 549:C:/Workspace/FW_Inertia/branch_indesit/PlatformLibrary/LIB_BackUp\LIB_BackUp.c **** 	Backup_Source = PARTIAL_BACKUP_KEYWORD;
 550:C:/Workspace/FW_Inertia/branch_indesit/PlatformLibrary/LIB_BackUp\LIB_BackUp.c **** }
 551:C:/Workspace/FW_Inertia/branch_indesit/PlatformLibrary/LIB_BackUp\LIB_BackUp.c **** 
 552:C:/Workspace/FW_Inertia/branch_indesit/PlatformLibrary/LIB_BackUp\LIB_BackUp.c **** /**
 553:C:/Workspace/FW_Inertia/branch_indesit/PlatformLibrary/LIB_BackUp\LIB_BackUp.c **** Resets Backup_Source variable.
 554:C:/Workspace/FW_Inertia/branch_indesit/PlatformLibrary/LIB_BackUp\LIB_BackUp.c **** 
 555:C:/Workspace/FW_Inertia/branch_indesit/PlatformLibrary/LIB_BackUp\LIB_BackUp.c **** \author 	stefano.ughi
 556:C:/Workspace/FW_Inertia/branch_indesit/PlatformLibrary/LIB_BackUp\LIB_BackUp.c **** \date		Feb 01, 2011
 557:C:/Workspace/FW_Inertia/branch_indesit/PlatformLibrary/LIB_BackUp\LIB_BackUp.c **** \version	1.0.0
 558:C:/Workspace/FW_Inertia/branch_indesit/PlatformLibrary/LIB_BackUp\LIB_BackUp.c **** 
 559:C:/Workspace/FW_Inertia/branch_indesit/PlatformLibrary/LIB_BackUp\LIB_BackUp.c **** 
 560:C:/Workspace/FW_Inertia/branch_indesit/PlatformLibrary/LIB_BackUp\LIB_BackUp.c **** \note		\par \b Note 1:
 561:C:/Workspace/FW_Inertia/branch_indesit/PlatformLibrary/LIB_BackUp\LIB_BackUp.c **** 			documentation by stefano.ughi
 562:C:/Workspace/FW_Inertia/branch_indesit/PlatformLibrary/LIB_BackUp\LIB_BackUp.c **** 			\par \b Note 2:
 563:C:/Workspace/FW_Inertia/branch_indesit/PlatformLibrary/LIB_BackUp\LIB_BackUp.c **** 			This routine must be invoked before performing backup if you want\n
 564:C:/Workspace/FW_Inertia/branch_indesit/PlatformLibrary/LIB_BackUp\LIB_BackUp.c **** 			full restore.
 565:C:/Workspace/FW_Inertia/branch_indesit/PlatformLibrary/LIB_BackUp\LIB_BackUp.c **** 
 566:C:/Workspace/FW_Inertia/branch_indesit/PlatformLibrary/LIB_BackUp\LIB_BackUp.c **** */
 567:C:/Workspace/FW_Inertia/branch_indesit/PlatformLibrary/LIB_BackUp\LIB_BackUp.c **** void LIB_Backup_ResetBackupSource(void)
 568:C:/Workspace/FW_Inertia/branch_indesit/PlatformLibrary/LIB_BackUp\LIB_BackUp.c **** {
 569:C:/Workspace/FW_Inertia/branch_indesit/PlatformLibrary/LIB_BackUp\LIB_BackUp.c **** 	Backup_Source = 0;
 570:C:/Workspace/FW_Inertia/branch_indesit/PlatformLibrary/LIB_BackUp\LIB_BackUp.c **** }
 571:C:/Workspace/FW_Inertia/branch_indesit/PlatformLibrary/LIB_BackUp\LIB_BackUp.c **** 
 572:C:/Workspace/FW_Inertia/branch_indesit/PlatformLibrary/LIB_BackUp\LIB_BackUp.c **** /* Local Function */
 573:C:/Workspace/FW_Inertia/branch_indesit/PlatformLibrary/LIB_BackUp\LIB_BackUp.c **** /**
 574:C:/Workspace/FW_Inertia/branch_indesit/PlatformLibrary/LIB_BackUp\LIB_BackUp.c **** Checks if it's time to perform backup.
 575:C:/Workspace/FW_Inertia/branch_indesit/PlatformLibrary/LIB_BackUp\LIB_BackUp.c **** 
 576:C:/Workspace/FW_Inertia/branch_indesit/PlatformLibrary/LIB_BackUp\LIB_BackUp.c **** \return 	bool_t
 577:C:/Workspace/FW_Inertia/branch_indesit/PlatformLibrary/LIB_BackUp\LIB_BackUp.c **** 
 578:C:/Workspace/FW_Inertia/branch_indesit/PlatformLibrary/LIB_BackUp\LIB_BackUp.c **** \retval		TRUE it's time to perform backup
 579:C:/Workspace/FW_Inertia/branch_indesit/PlatformLibrary/LIB_BackUp\LIB_BackUp.c **** \retval		FALSE it was a false alarm.
 580:C:/Workspace/FW_Inertia/branch_indesit/PlatformLibrary/LIB_BackUp\LIB_BackUp.c **** 
 581:C:/Workspace/FW_Inertia/branch_indesit/PlatformLibrary/LIB_BackUp\LIB_BackUp.c **** \author 	stefano.ughi
 582:C:/Workspace/FW_Inertia/branch_indesit/PlatformLibrary/LIB_BackUp\LIB_BackUp.c **** \date		Feb 14, 2011
 583:C:/Workspace/FW_Inertia/branch_indesit/PlatformLibrary/LIB_BackUp\LIB_BackUp.c **** \version	1.0.0
 584:C:/Workspace/FW_Inertia/branch_indesit/PlatformLibrary/LIB_BackUp\LIB_BackUp.c **** 
 585:C:/Workspace/FW_Inertia/branch_indesit/PlatformLibrary/LIB_BackUp\LIB_BackUp.c **** 
 586:C:/Workspace/FW_Inertia/branch_indesit/PlatformLibrary/LIB_BackUp\LIB_BackUp.c **** \note		\par \b Note 1:
 587:C:/Workspace/FW_Inertia/branch_indesit/PlatformLibrary/LIB_BackUp\LIB_BackUp.c **** 			documentation by stefano.ughi
 588:C:/Workspace/FW_Inertia/branch_indesit/PlatformLibrary/LIB_BackUp\LIB_BackUp.c **** 
 589:C:/Workspace/FW_Inertia/branch_indesit/PlatformLibrary/LIB_BackUp\LIB_BackUp.c **** */
 590:C:/Workspace/FW_Inertia/branch_indesit/PlatformLibrary/LIB_BackUp\LIB_BackUp.c **** static bool_t LIB_Backup_IsTimeToBackup(void)
 591:C:/Workspace/FW_Inertia/branch_indesit/PlatformLibrary/LIB_BackUp\LIB_BackUp.c **** {
 592:C:/Workspace/FW_Inertia/branch_indesit/PlatformLibrary/LIB_BackUp\LIB_BackUp.c **** 	uint8_t refCheckResult;
 593:C:/Workspace/FW_Inertia/branch_indesit/PlatformLibrary/LIB_BackUp\LIB_BackUp.c **** 	bool_t endLessLoop;
 594:C:/Workspace/FW_Inertia/branch_indesit/PlatformLibrary/LIB_BackUp\LIB_BackUp.c **** 	/*lint -esym(644,backup) backup is always initialized */
 595:C:/Workspace/FW_Inertia/branch_indesit/PlatformLibrary/LIB_BackUp\LIB_BackUp.c **** 	bool_t backup;
 596:C:/Workspace/FW_Inertia/branch_indesit/PlatformLibrary/LIB_BackUp\LIB_BackUp.c **** 
 597:C:/Workspace/FW_Inertia/branch_indesit/PlatformLibrary/LIB_BackUp\LIB_BackUp.c **** 	endLessLoop = TRUE;
 598:C:/Workspace/FW_Inertia/branch_indesit/PlatformLibrary/LIB_BackUp\LIB_BackUp.c **** 	while ( TRUE == endLessLoop )
 599:C:/Workspace/FW_Inertia/branch_indesit/PlatformLibrary/LIB_BackUp\LIB_BackUp.c **** 	{
 600:C:/Workspace/FW_Inertia/branch_indesit/PlatformLibrary/LIB_BackUp\LIB_BackUp.c **** 		DEBUG_BACKUP_GOBACKUP();
 601:C:/Workspace/FW_Inertia/branch_indesit/PlatformLibrary/LIB_BackUp\LIB_BackUp.c **** 
 602:C:/Workspace/FW_Inertia/branch_indesit/PlatformLibrary/LIB_BackUp\LIB_BackUp.c **** 		refCheckResult = LIB_Backup_RefCheck();
 255                             		.loc 1 602 0
 256 000c 05 00 00 00             		bsr	_LIB_Backup_RefCheck
 603:C:/Workspace/FW_Inertia/branch_indesit/PlatformLibrary/LIB_BackUp\LIB_BackUp.c **** 		if ( BACKUP_NOW == refCheckResult )
 257                             		.loc 1 603 0
 258 0010 5B 17                   		movu.B	r1, r7
 259 0012 61 17                   		cmp	#1, r7
 260 0014 17                      		beq	.L22
 604:C:/Workspace/FW_Inertia/branch_indesit/PlatformLibrary/LIB_BackUp\LIB_BackUp.c **** 		{
 605:C:/Workspace/FW_Inertia/branch_indesit/PlatformLibrary/LIB_BackUp\LIB_BackUp.c **** 			backup = TRUE;
 606:C:/Workspace/FW_Inertia/branch_indesit/PlatformLibrary/LIB_BackUp\LIB_BackUp.c **** 			endLessLoop = FALSE;
 607:C:/Workspace/FW_Inertia/branch_indesit/PlatformLibrary/LIB_BackUp\LIB_BackUp.c **** 		}
 608:C:/Workspace/FW_Inertia/branch_indesit/PlatformLibrary/LIB_BackUp\LIB_BackUp.c **** 		else if ( BACKUP_EXIT == refCheckResult )
 261                             		.loc 1 608 0
 262 0015 61 27                   		cmp	#2, r7
 263 0017 21 F5                   		bne	.L23
 264 0019 2E 5F                   		bra	.L25
 265                             	.L22:
 266                             	.LBE13:
 267                             	.LBE12:
 152:C:/Workspace/FW_Inertia/branch_indesit/PlatformLibrary/LIB_BackUp\LIB_BackUp.c **** 		EnterCriticalSection();
 268                             		.loc 1 152 0
 269 001b 05 00 00 00             		bsr	_OS_DisableInterrupt
 270 001f FB E2 00 00 00 00       		mov.L	#_OS_Global, r14
 271 0025 CD E4 01                		mov.B	1[r14], r4
 272 0028 62 14                   		add	#1, r4
 273 002a C7 E4 01                		mov.B	r4, 1[r14]
 274                             	.LBB14:
 275                             	.LBB15:
 609:C:/Workspace/FW_Inertia/branch_indesit/PlatformLibrary/LIB_BackUp\LIB_BackUp.c **** 		{
 610:C:/Workspace/FW_Inertia/branch_indesit/PlatformLibrary/LIB_BackUp\LIB_BackUp.c **** 			backup = FALSE;
 611:C:/Workspace/FW_Inertia/branch_indesit/PlatformLibrary/LIB_BackUp\LIB_BackUp.c **** 			endLessLoop = FALSE;
 612:C:/Workspace/FW_Inertia/branch_indesit/PlatformLibrary/LIB_BackUp\LIB_BackUp.c **** 		}
 613:C:/Workspace/FW_Inertia/branch_indesit/PlatformLibrary/LIB_BackUp\LIB_BackUp.c **** 		else
 614:C:/Workspace/FW_Inertia/branch_indesit/PlatformLibrary/LIB_BackUp\LIB_BackUp.c **** 		{
 615:C:/Workspace/FW_Inertia/branch_indesit/PlatformLibrary/LIB_BackUp\LIB_BackUp.c **** 			/* Wait for response */
 616:C:/Workspace/FW_Inertia/branch_indesit/PlatformLibrary/LIB_BackUp\LIB_BackUp.c **** 		}
 617:C:/Workspace/FW_Inertia/branch_indesit/PlatformLibrary/LIB_BackUp\LIB_BackUp.c **** 	}
 618:C:/Workspace/FW_Inertia/branch_indesit/PlatformLibrary/LIB_BackUp\LIB_BackUp.c **** 	return backup;
 619:C:/Workspace/FW_Inertia/branch_indesit/PlatformLibrary/LIB_BackUp\LIB_BackUp.c **** }
 620:C:/Workspace/FW_Inertia/branch_indesit/PlatformLibrary/LIB_BackUp\LIB_BackUp.c **** /**
 621:C:/Workspace/FW_Inertia/branch_indesit/PlatformLibrary/LIB_BackUp\LIB_BackUp.c **** Peripherals's deinitialization.
 622:C:/Workspace/FW_Inertia/branch_indesit/PlatformLibrary/LIB_BackUp\LIB_BackUp.c **** 
 623:C:/Workspace/FW_Inertia/branch_indesit/PlatformLibrary/LIB_BackUp\LIB_BackUp.c **** \author 	stefano.ughi
 624:C:/Workspace/FW_Inertia/branch_indesit/PlatformLibrary/LIB_BackUp\LIB_BackUp.c **** \date		Feb 15, 2011
 625:C:/Workspace/FW_Inertia/branch_indesit/PlatformLibrary/LIB_BackUp\LIB_BackUp.c **** \version	1.0.0
 626:C:/Workspace/FW_Inertia/branch_indesit/PlatformLibrary/LIB_BackUp\LIB_BackUp.c **** 
 627:C:/Workspace/FW_Inertia/branch_indesit/PlatformLibrary/LIB_BackUp\LIB_BackUp.c **** 
 628:C:/Workspace/FW_Inertia/branch_indesit/PlatformLibrary/LIB_BackUp\LIB_BackUp.c **** \todo		OCDMA_DeinitSync()
 629:C:/Workspace/FW_Inertia/branch_indesit/PlatformLibrary/LIB_BackUp\LIB_BackUp.c **** \todo       OCI2C_DeInitSync()
 630:C:/Workspace/FW_Inertia/branch_indesit/PlatformLibrary/LIB_BackUp\LIB_BackUp.c **** \todo       OCUART_DeInitSync()
 631:C:/Workspace/FW_Inertia/branch_indesit/PlatformLibrary/LIB_BackUp\LIB_BackUp.c **** 
 632:C:/Workspace/FW_Inertia/branch_indesit/PlatformLibrary/LIB_BackUp\LIB_BackUp.c **** \note		\par \b Note 1:
 633:C:/Workspace/FW_Inertia/branch_indesit/PlatformLibrary/LIB_BackUp\LIB_BackUp.c **** 			documentation by stefano.ughi
 634:C:/Workspace/FW_Inertia/branch_indesit/PlatformLibrary/LIB_BackUp\LIB_BackUp.c **** 
 635:C:/Workspace/FW_Inertia/branch_indesit/PlatformLibrary/LIB_BackUp\LIB_BackUp.c **** */
 636:C:/Workspace/FW_Inertia/branch_indesit/PlatformLibrary/LIB_BackUp\LIB_BackUp.c **** static void DeinitAllPeripherals(void)
 637:C:/Workspace/FW_Inertia/branch_indesit/PlatformLibrary/LIB_BackUp\LIB_BackUp.c **** {
 638:C:/Workspace/FW_Inertia/branch_indesit/PlatformLibrary/LIB_BackUp\LIB_BackUp.c **** 	IO_ChannelType tmrId;
 639:C:/Workspace/FW_Inertia/branch_indesit/PlatformLibrary/LIB_BackUp\LIB_BackUp.c **** 
 640:C:/Workspace/FW_Inertia/branch_indesit/PlatformLibrary/LIB_BackUp\LIB_BackUp.c **** 	(void)OCDIO_DeInitSync();
 276                             		.loc 1 640 0
 277 002d 05 00 00 00             		bsr	_OCDIO_DeInitSync
 641:C:/Workspace/FW_Inertia/branch_indesit/PlatformLibrary/LIB_BackUp\LIB_BackUp.c **** 	(void)OCIRQ_DeInitSync();
 278                             		.loc 1 641 0
 279 0031 05 00 00 00             		bsr	_OCIRQ_DeInitSync
 642:C:/Workspace/FW_Inertia/branch_indesit/PlatformLibrary/LIB_BackUp\LIB_BackUp.c **** 	(void)OCADC_DeInitSync();
 280                             		.loc 1 642 0
 281 0035 05 00 00 00             		bsr	_OCADC_DeInitSync
 643:C:/Workspace/FW_Inertia/branch_indesit/PlatformLibrary/LIB_BackUp\LIB_BackUp.c **** #if defined(CONFIG_PL_DRV_OCCRC)
 644:C:/Workspace/FW_Inertia/branch_indesit/PlatformLibrary/LIB_BackUp\LIB_BackUp.c **** 	(void)OCCRC_DeInitSync();
 282                             		.loc 1 644 0
 283 0039 05 00 00 00             		bsr	_OCCRC_DeInitSync
 645:C:/Workspace/FW_Inertia/branch_indesit/PlatformLibrary/LIB_BackUp\LIB_BackUp.c **** #endif
 646:C:/Workspace/FW_Inertia/branch_indesit/PlatformLibrary/LIB_BackUp\LIB_BackUp.c **** 	for ( tmrId = 0; tmrId < NUM_HW_CNTR; tmrId++ )
 647:C:/Workspace/FW_Inertia/branch_indesit/PlatformLibrary/LIB_BackUp\LIB_BackUp.c **** 	{
 648:C:/Workspace/FW_Inertia/branch_indesit/PlatformLibrary/LIB_BackUp\LIB_BackUp.c **** 		(void)OCHWCNTR_DeInitSync(tmrId);
 284                             		.loc 1 648 0
 285 003d 66 01                   		mov	#0, r1
 286 003f 05 00 00 00             		bsr	_OCHWCNTR_DeInitSync
 287 0043 CF 71                   		mov.B	r7, r1
 288 0045 05 00 00 00             		bsr	_OCHWCNTR_DeInitSync
 289 0049 66 21                   		mov	#2, r1
 290 004b 05 00 00 00             		bsr	_OCHWCNTR_DeInitSync
 291 004f 66 31                   		mov	#3, r1
 292 0051 05 00 00 00             		bsr	_OCHWCNTR_DeInitSync
 293 0055 66 41                   		mov	#4, r1
 294 0057 05 00 00 00             		bsr	_OCHWCNTR_DeInitSync
 295                             	.LBE15:
 296                             	.LBE14:
 163:C:/Workspace/FW_Inertia/branch_indesit/PlatformLibrary/LIB_BackUp\LIB_BackUp.c **** 		retVal = LIB_Backup_DataSave();
 297                             		.loc 1 163 0
 298 005b 05 00 00 00             		bsr	_LIB_Backup_DataSave
 169:C:/Workspace/FW_Inertia/branch_indesit/PlatformLibrary/LIB_BackUp\LIB_BackUp.c **** 		LIB_ZC_ResetSyncPhase();
 299                             		.loc 1 169 0
 300 005f 05 00 00 00             		bsr	_LIB_ZC_ResetSyncPhase
 170:C:/Workspace/FW_Inertia/branch_indesit/PlatformLibrary/LIB_BackUp\LIB_BackUp.c **** 		SetgoodZCSignalTo(FALSE);
 301                             		.loc 1 170 0
 302 0063 66 01                   		mov.L	#0, r1
 303 0065 05 00 00 00             		bsr	_SetgoodZCSignalTo
 304                             	.LBB16:
 305                             	.LBB17:
 488:C:/Workspace/FW_Inertia/branch_indesit/PlatformLibrary/LIB_BackUp\LIB_BackUp.c **** 	BackupCntrlSource = backupSource;
 306                             		.loc 1 488 0
 307 0069 FB 72 00 00 00 00       		mov.L	#_BackupCntrlSource, r7
 308 006f 3C 70 00                		mov.B	#0, [r7]
 309                             	.LBE17:
 310                             	.LBE16:
 176:C:/Workspace/FW_Inertia/branch_indesit/PlatformLibrary/LIB_BackUp\LIB_BackUp.c **** }
 311                             		.loc 1 176 0
 312 0072 7E B7                   		pop	r7
 174:C:/Workspace/FW_Inertia/branch_indesit/PlatformLibrary/LIB_BackUp\LIB_BackUp.c **** 		OCRST_GenerateUserResetSync();
 313                             		.loc 1 174 0
 314 0074 04 00 00 00             		bra	_OCRST_GenerateUserResetSync
 315                             	.L25:
 176:C:/Workspace/FW_Inertia/branch_indesit/PlatformLibrary/LIB_BackUp\LIB_BackUp.c **** }
 316                             		.loc 1 176 0
 317 0078 3F 77 01                		rtsd	#4, r7-r7
 318                             	.LFE0:
 320 007b 03                      		.section	.text.LIB_Backup_SetBackupControlMonitor,"ax",@progbits
 321                             		.global	_LIB_Backup_SetBackupControlMonitor
 323                             	_LIB_Backup_SetBackupControlMonitor:
 324                             	.LFB5:
 487:C:/Workspace/FW_Inertia/branch_indesit/PlatformLibrary/LIB_BackUp\LIB_BackUp.c **** {
 325                             		.loc 1 487 0
 326                             	.LVL24:
 488:C:/Workspace/FW_Inertia/branch_indesit/PlatformLibrary/LIB_BackUp\LIB_BackUp.c **** 	BackupCntrlSource = backupSource;
 327                             		.loc 1 488 0
 328 0000 FB E2 00 00 00 00       		mov.L	#_BackupCntrlSource, r14
 329 0006 C3 E1                   		mov.B	r1, [r14]
 330 0008 02                      		rts
 331                             	.LFE5:
 333                             		.section	.text.LIB_Backup_GetBackupControlMonitor,"ax",@progbits
 334                             		.global	_LIB_Backup_GetBackupControlMonitor
 336                             	_LIB_Backup_GetBackupControlMonitor:
 337                             	.LFB6:
 507:C:/Workspace/FW_Inertia/branch_indesit/PlatformLibrary/LIB_BackUp\LIB_BackUp.c **** {
 338                             		.loc 1 507 0
 509:C:/Workspace/FW_Inertia/branch_indesit/PlatformLibrary/LIB_BackUp\LIB_BackUp.c **** }
 339                             		.loc 1 509 0
 340 0000 FB E2 00 00 00 00       		mov.L	#_BackupCntrlSource, r14
 341 0006 58 E1                   		movu.B	[r14], r1
 342 0008 02                      		rts
 343                             	.LFE6:
 345                             		.section	.text.LIB_Backup_GetBackupSource,"ax",@progbits
 346                             		.global	_LIB_Backup_GetBackupSource
 348                             	_LIB_Backup_GetBackupSource:
 349                             	.LFB7:
 529:C:/Workspace/FW_Inertia/branch_indesit/PlatformLibrary/LIB_BackUp\LIB_BackUp.c **** {
 350                             		.loc 1 529 0
 531:C:/Workspace/FW_Inertia/branch_indesit/PlatformLibrary/LIB_BackUp\LIB_BackUp.c **** }
 351                             		.loc 1 531 0
 352 0000 FB E2 00 00 00 00       		mov.L	#_Backup_Source, r14
 353 0006 58 E1                   		movu.B	[r14], r1
 354 0008 02                      		rts
 355                             	.LFE7:
 357                             		.section	.text.LIB_Backup_SetBackupSource,"ax",@progbits
 358                             		.global	_LIB_Backup_SetBackupSource
 360                             	_LIB_Backup_SetBackupSource:
 361                             	.LFB8:
 548:C:/Workspace/FW_Inertia/branch_indesit/PlatformLibrary/LIB_BackUp\LIB_BackUp.c **** {
 362                             		.loc 1 548 0
 549:C:/Workspace/FW_Inertia/branch_indesit/PlatformLibrary/LIB_BackUp\LIB_BackUp.c **** 	Backup_Source = PARTIAL_BACKUP_KEYWORD;
 363                             		.loc 1 549 0
 364 0000 FB E2 00 00 00 00       		mov.L	#_Backup_Source, r14
 365 0006 F8 E4 5A                		mov.B	#0x5a, [r14]
 366 0009 02                      		rts
 367                             	.LFE8:
 369                             		.section	.text.LIB_Backup_ResetBackupSource,"ax",@progbits
 370                             		.global	_LIB_Backup_ResetBackupSource
 372                             	_LIB_Backup_ResetBackupSource:
 373                             	.LFB9:
 568:C:/Workspace/FW_Inertia/branch_indesit/PlatformLibrary/LIB_BackUp\LIB_BackUp.c **** {
 374                             		.loc 1 568 0
 569:C:/Workspace/FW_Inertia/branch_indesit/PlatformLibrary/LIB_BackUp\LIB_BackUp.c **** 	Backup_Source = 0;
 375                             		.loc 1 569 0
 376 0000 FB E2 00 00 00 00       		mov.L	#_Backup_Source, r14
 377 0006 F8 E4 00                		mov.B	#0, [r14]
 378 0009 02                      		rts
 379                             	.LFE9:
 381                             		.global	_dbg_gobackup
 382                             		.section	.bss.dbg_gobackup,"aw",@nobits
 383                             		.balign 4
 386                             	_dbg_gobackup:
 387 0000 00 00 00 00             		.zero	4
 388                             		.comm	_Backup_Source,1,1
 389                             		.section	.bss.BackupCntrlSource,"aw",@nobits
 392                             	_BackupCntrlSource:
 393 0000 00                      		.zero	1
 394                             		.section	.bss.Flags.10782,"aw",@nobits
 395                             		.balign 4
 398                             	_Flags.10782:
 399 0000 00 00 00 00             		.zero	4
 528                             	.Letext0:
 529                             		.file 2 "C:\\Workspace\\FW_Inertia\\branch_indesit\\HAL\\HAL_General/StandardTypes.h"
 530                             		.file 3 "C:\\Workspace\\FW_Inertia\\branch_indesit\\OS\\EmbOS\\RX200_GNU\\V388\\Inc/RTOS.h"
 531                             		.file 4 "C:\\Workspace\\FW_Inertia\\branch_indesit\\PlatformLibrary\\LIB_Error/LIB_Error.h"
 532                             		.file 5 "C:\\Workspace\\FW_Inertia\\branch_indesit\\HAL\\RN_RX200/RN_RX200_cfg.h"
 533                             		.file 6 "C:\\Workspace\\FW_Inertia\\branch_indesit\\Drivers/IO_driver.h"
 534                             		.file 7 "C:\\Workspace\\FW_Inertia\\branch_indesit\\Drivers\\OCADC/OCADC_drv.h"
 535                             		.file 8 "C:\\Workspace\\FW_Inertia\\branch_indesit\\ProductModules\\PM_SWalarms/PM_SWalarms.h"
 536                             		.file 9 "C:\\Workspace\\FW_Inertia\\branch_indesit\\PlatformLibrary\\LIB_Analog/Analog.h"
 537                             		.file 10 "C:\\Workspace\\FW_Inertia\\branch_indesit\\PlatformLibrary\\LIB_Analog/AnalogExp.h"
 538                             		.file 11 "C:/Workspace/FW_Inertia/branch_indesit/PlatformLibrary/LIB_BackUp/LIB_BackUp.h"
DEFINED SYMBOLS
                            *ABS*:00000000 LIB_BackUp.c
C:\Users\Andrea\AppData\Local\Temp\ccgn9dnb.s:7      .text.LIB_Backup_CheckIfIsTimeToBackup:00000000 _LIB_Backup_CheckIfIsTimeToBackup
C:\Users\Andrea\AppData\Local\Temp\ccgn9dnb.s:13     .text.LIB_Backup_CheckIfIsTimeToBackup:00000000 L0
C:\Users\Andrea\AppData\Local\Temp\ccgn9dnb.s:392    .bss.BackupCntrlSource:00000000 _BackupCntrlSource
C:\Users\Andrea\AppData\Local\Temp\ccgn9dnb.s:47     .text.LIB_Backup_ForceBackup:00000000 _LIB_Backup_ForceBackup
C:\Users\Andrea\AppData\Local\Temp\ccgn9dnb.s:50     .text.LIB_Backup_ForceBackup:00000000 L0
C:\Users\Andrea\AppData\Local\Temp\ccgn9dnb.s:78     .text.LIB_Backup_RestoreManager:00000000 _LIB_Backup_RestoreManager
C:\Users\Andrea\AppData\Local\Temp\ccgn9dnb.s:81     .text.LIB_Backup_RestoreManager:00000000 L0
C:\Users\Andrea\AppData\Local\Temp\ccgn9dnb.s:107    .text.LIB_Backup_RefCheck:00000000 _LIB_Backup_RefCheck
C:\Users\Andrea\AppData\Local\Temp\ccgn9dnb.s:110    .text.LIB_Backup_RefCheck:00000000 L0
C:\Users\Andrea\AppData\Local\Temp\ccgn9dnb.s:398    .bss.Flags.10782:00000000 _Flags.10782
C:\Users\Andrea\AppData\Local\Temp\ccgn9dnb.s:241    .text.Task_Backup:00000000 _Task_Backup
C:\Users\Andrea\AppData\Local\Temp\ccgn9dnb.s:244    .text.Task_Backup:00000000 L0
C:\Users\Andrea\AppData\Local\Temp\ccgn9dnb.s:323    .text.LIB_Backup_SetBackupControlMonitor:00000000 _LIB_Backup_SetBackupControlMonitor
C:\Users\Andrea\AppData\Local\Temp\ccgn9dnb.s:328    .text.LIB_Backup_SetBackupControlMonitor:00000000 L0
C:\Users\Andrea\AppData\Local\Temp\ccgn9dnb.s:336    .text.LIB_Backup_GetBackupControlMonitor:00000000 _LIB_Backup_GetBackupControlMonitor
C:\Users\Andrea\AppData\Local\Temp\ccgn9dnb.s:340    .text.LIB_Backup_GetBackupControlMonitor:00000000 L0
C:\Users\Andrea\AppData\Local\Temp\ccgn9dnb.s:348    .text.LIB_Backup_GetBackupSource:00000000 _LIB_Backup_GetBackupSource
C:\Users\Andrea\AppData\Local\Temp\ccgn9dnb.s:352    .text.LIB_Backup_GetBackupSource:00000000 L0
                            *COM*:00000001 _Backup_Source
C:\Users\Andrea\AppData\Local\Temp\ccgn9dnb.s:360    .text.LIB_Backup_SetBackupSource:00000000 _LIB_Backup_SetBackupSource
C:\Users\Andrea\AppData\Local\Temp\ccgn9dnb.s:364    .text.LIB_Backup_SetBackupSource:00000000 L0
C:\Users\Andrea\AppData\Local\Temp\ccgn9dnb.s:372    .text.LIB_Backup_ResetBackupSource:00000000 _LIB_Backup_ResetBackupSource
C:\Users\Andrea\AppData\Local\Temp\ccgn9dnb.s:376    .text.LIB_Backup_ResetBackupSource:00000000 L0
C:\Users\Andrea\AppData\Local\Temp\ccgn9dnb.s:386    .bss.dbg_gobackup:00000000 _dbg_gobackup
C:\Users\Andrea\AppData\Local\Temp\ccgn9dnb.s:401    .debug_frame:00000000 .Lframe0
C:\Users\Andrea\AppData\Local\Temp\ccgn9dnb.s:8      .text.LIB_Backup_CheckIfIsTimeToBackup:00000000 .LFB1
C:\Users\Andrea\AppData\Local\Temp\ccgn9dnb.s:48     .text.LIB_Backup_ForceBackup:00000000 .LFB2
C:\Users\Andrea\AppData\Local\Temp\ccgn9dnb.s:79     .text.LIB_Backup_RestoreManager:00000000 .LFB3
C:\Users\Andrea\AppData\Local\Temp\ccgn9dnb.s:108    .text.LIB_Backup_RefCheck:00000000 .LFB4
C:\Users\Andrea\AppData\Local\Temp\ccgn9dnb.s:242    .text.Task_Backup:00000000 .LFB0
C:\Users\Andrea\AppData\Local\Temp\ccgn9dnb.s:324    .text.LIB_Backup_SetBackupControlMonitor:00000000 .LFB5
C:\Users\Andrea\AppData\Local\Temp\ccgn9dnb.s:337    .text.LIB_Backup_GetBackupControlMonitor:00000000 .LFB6
C:\Users\Andrea\AppData\Local\Temp\ccgn9dnb.s:349    .text.LIB_Backup_GetBackupSource:00000000 .LFB7
C:\Users\Andrea\AppData\Local\Temp\ccgn9dnb.s:361    .text.LIB_Backup_SetBackupSource:00000000 .LFB8
C:\Users\Andrea\AppData\Local\Temp\ccgn9dnb.s:373    .text.LIB_Backup_ResetBackupSource:00000000 .LFB9
C:\Users\Andrea\AppData\Local\Temp\ccgn9dnb.s:2285   .debug_abbrev:00000000 .Ldebug_abbrev0
C:\Users\Andrea\AppData\Local\Temp\ccgn9dnb.s:3452   .debug_str:000004ba .LASF208
C:\Users\Andrea\AppData\Local\Temp\ccgn9dnb.s:3694   .debug_str:00000f50 .LASF209
C:\Users\Andrea\AppData\Local\Temp\ccgn9dnb.s:3304   .debug_ranges:00000000 .Ldebug_ranges0
C:\Users\Andrea\AppData\Local\Temp\ccgn9dnb.s:3328   .debug_line:00000000 .Ldebug_line0
C:\Users\Andrea\AppData\Local\Temp\ccgn9dnb.s:3596   .debug_str:00000b3d .LASF0
C:\Users\Andrea\AppData\Local\Temp\ccgn9dnb.s:3424   .debug_str:0000039d .LASF2
C:\Users\Andrea\AppData\Local\Temp\ccgn9dnb.s:3502   .debug_str:000006fe .LASF1
C:\Users\Andrea\AppData\Local\Temp\ccgn9dnb.s:3632   .debug_str:00000ce2 .LASF3
C:\Users\Andrea\AppData\Local\Temp\ccgn9dnb.s:3486   .debug_str:00000675 .LASF4
C:\Users\Andrea\AppData\Local\Temp\ccgn9dnb.s:3736   .debug_str:000010ec .LASF5
C:\Users\Andrea\AppData\Local\Temp\ccgn9dnb.s:3370   .debug_str:0000016d .LASF6
C:\Users\Andrea\AppData\Local\Temp\ccgn9dnb.s:3420   .debug_str:00000372 .LASF7
C:\Users\Andrea\AppData\Local\Temp\ccgn9dnb.s:3704   .debug_str:00000fde .LASF8
C:\Users\Andrea\AppData\Local\Temp\ccgn9dnb.s:3590   .debug_str:00000b08 .LASF9
C:\Users\Andrea\AppData\Local\Temp\ccgn9dnb.s:3390   .debug_str:0000025f .LASF10
C:\Users\Andrea\AppData\Local\Temp\ccgn9dnb.s:3396   .debug_str:0000027e .LASF11
C:\Users\Andrea\AppData\Local\Temp\ccgn9dnb.s:3644   .debug_str:00000d44 .LASF12
C:\Users\Andrea\AppData\Local\Temp\ccgn9dnb.s:3712   .debug_str:0000100c .LASF13
C:\Users\Andrea\AppData\Local\Temp\ccgn9dnb.s:3732   .debug_str:000010cb .LASF14
C:\Users\Andrea\AppData\Local\Temp\ccgn9dnb.s:3418   .debug_str:00000365 .LASF15
C:\Users\Andrea\AppData\Local\Temp\ccgn9dnb.s:3672   .debug_str:00000e8b .LASF16
C:\Users\Andrea\AppData\Local\Temp\ccgn9dnb.s:3330   .debug_str:00000000 .LASF17
C:\Users\Andrea\AppData\Local\Temp\ccgn9dnb.s:3600   .debug_str:00000b5e .LASF18
C:\Users\Andrea\AppData\Local\Temp\ccgn9dnb.s:3634   .debug_str:00000ceb .LASF19
C:\Users\Andrea\AppData\Local\Temp\ccgn9dnb.s:3602   .debug_str:00000b66 .LASF33
C:\Users\Andrea\AppData\Local\Temp\ccgn9dnb.s:3338   .debug_str:00000036 .LASF20
C:\Users\Andrea\AppData\Local\Temp\ccgn9dnb.s:3528   .debug_str:00000826 .LASF21
C:\Users\Andrea\AppData\Local\Temp\ccgn9dnb.s:3356   .debug_str:000000d5 .LASF22
C:\Users\Andrea\AppData\Local\Temp\ccgn9dnb.s:3616   .debug_str:00000c37 .LASF23
C:\Users\Andrea\AppData\Local\Temp\ccgn9dnb.s:3488   .debug_str:00000687 .LASF24
C:\Users\Andrea\AppData\Local\Temp\ccgn9dnb.s:3504   .debug_str:00000711 .LASF25
C:\Users\Andrea\AppData\Local\Temp\ccgn9dnb.s:3660   .debug_str:00000dfc .LASF26
C:\Users\Andrea\AppData\Local\Temp\ccgn9dnb.s:3690   .debug_str:00000f2c .LASF27
C:\Users\Andrea\AppData\Local\Temp\ccgn9dnb.s:3700   .debug_str:00000fcf .LASF28
C:\Users\Andrea\AppData\Local\Temp\ccgn9dnb.s:3756   .debug_str:000011bd .LASF29
C:\Users\Andrea\AppData\Local\Temp\ccgn9dnb.s:3702   .debug_str:00000fd4 .LASF30
C:\Users\Andrea\AppData\Local\Temp\ccgn9dnb.s:3548   .debug_str:000008e4 .LASF31
C:\Users\Andrea\AppData\Local\Temp\ccgn9dnb.s:3664   .debug_str:00000e2e .LASF32
C:\Users\Andrea\AppData\Local\Temp\ccgn9dnb.s:3500   .debug_str:000006ea .LASF34
C:\Users\Andrea\AppData\Local\Temp\ccgn9dnb.s:3730   .debug_str:000010c5 .LASF35
C:\Users\Andrea\AppData\Local\Temp\ccgn9dnb.s:3592   .debug_str:00000b16 .LASF36
C:\Users\Andrea\AppData\Local\Temp\ccgn9dnb.s:3346   .debug_str:00000096 .LASF37
C:\Users\Andrea\AppData\Local\Temp\ccgn9dnb.s:3620   .debug_str:00000c54 .LASF38
C:\Users\Andrea\AppData\Local\Temp\ccgn9dnb.s:3334   .debug_str:0000001c .LASF39
C:\Users\Andrea\AppData\Local\Temp\ccgn9dnb.s:3364   .debug_str:00000143 .LASF40
C:\Users\Andrea\AppData\Local\Temp\ccgn9dnb.s:3536   .debug_str:00000882 .LASF41
C:\Users\Andrea\AppData\Local\Temp\ccgn9dnb.s:3498   .debug_str:000006d9 .LASF42
C:\Users\Andrea\AppData\Local\Temp\ccgn9dnb.s:3460   .debug_str:00000525 .LASF43
C:\Users\Andrea\AppData\Local\Temp\ccgn9dnb.s:3630   .debug_str:00000cd5 .LASF44
C:\Users\Andrea\AppData\Local\Temp\ccgn9dnb.s:3492   .debug_str:000006a7 .LASF45
C:\Users\Andrea\AppData\Local\Temp\ccgn9dnb.s:3648   .debug_str:00000d6b .LASF46
C:\Users\Andrea\AppData\Local\Temp\ccgn9dnb.s:3394   .debug_str:00000272 .LASF47
C:\Users\Andrea\AppData\Local\Temp\ccgn9dnb.s:3494   .debug_str:000006ae .LASF48
C:\Users\Andrea\AppData\Local\Temp\ccgn9dnb.s:3686   .debug_str:00000f0c .LASF49
C:\Users\Andrea\AppData\Local\Temp\ccgn9dnb.s:3516   .debug_str:00000798 .LASF50
C:\Users\Andrea\AppData\Local\Temp\ccgn9dnb.s:3652   .debug_str:00000d8d .LASF51
C:\Users\Andrea\AppData\Local\Temp\ccgn9dnb.s:3738   .debug_str:000010f5 .LASF52
C:\Users\Andrea\AppData\Local\Temp\ccgn9dnb.s:3348   .debug_str:0000009c .LASF53
C:\Users\Andrea\AppData\Local\Temp\ccgn9dnb.s:3374   .debug_str:000001a7 .LASF54
C:\Users\Andrea\AppData\Local\Temp\ccgn9dnb.s:3546   .debug_str:000008dd .LASF55
C:\Users\Andrea\AppData\Local\Temp\ccgn9dnb.s:3352   .debug_str:000000b8 .LASF56
C:\Users\Andrea\AppData\Local\Temp\ccgn9dnb.s:3434   .debug_str:000003f4 .LASF57
C:\Users\Andrea\AppData\Local\Temp\ccgn9dnb.s:3636   .debug_str:00000cf3 .LASF58
C:\Users\Andrea\AppData\Local\Temp\ccgn9dnb.s:3682   .debug_str:00000efd .LASF59
C:\Users\Andrea\AppData\Local\Temp\ccgn9dnb.s:3720   .debug_str:00001046 .LASF60
C:\Users\Andrea\AppData\Local\Temp\ccgn9dnb.s:3446   .debug_str:00000483 .LASF61
C:\Users\Andrea\AppData\Local\Temp\ccgn9dnb.s:3392   .debug_str:0000026b .LASF62
C:\Users\Andrea\AppData\Local\Temp\ccgn9dnb.s:3432   .debug_str:000003ed .LASF63
C:\Users\Andrea\AppData\Local\Temp\ccgn9dnb.s:3718   .debug_str:0000103f .LASF64
C:\Users\Andrea\AppData\Local\Temp\ccgn9dnb.s:3404   .debug_str:000002db .LASF65
C:\Users\Andrea\AppData\Local\Temp\ccgn9dnb.s:3518   .debug_str:000007a5 .LASF66
C:\Users\Andrea\AppData\Local\Temp\ccgn9dnb.s:3530   .debug_str:0000082d .LASF67
C:\Users\Andrea\AppData\Local\Temp\ccgn9dnb.s:3746   .debug_str:00001137 .LASF68
C:\Users\Andrea\AppData\Local\Temp\ccgn9dnb.s:3706   .debug_str:00000fe6 .LASF69
C:\Users\Andrea\AppData\Local\Temp\ccgn9dnb.s:3414   .debug_str:00000346 .LASF70
C:\Users\Andrea\AppData\Local\Temp\ccgn9dnb.s:3384   .debug_str:00000238 .LASF71
C:\Users\Andrea\AppData\Local\Temp\ccgn9dnb.s:3368   .debug_str:0000015e .LASF72
C:\Users\Andrea\AppData\Local\Temp\ccgn9dnb.s:3626   .debug_str:00000caf .LASF73
C:\Users\Andrea\AppData\Local\Temp\ccgn9dnb.s:3628   .debug_str:00000cc2 .LASF74
C:\Users\Andrea\AppData\Local\Temp\ccgn9dnb.s:3354   .debug_str:000000c2 .LASF75
C:\Users\Andrea\AppData\Local\Temp\ccgn9dnb.s:3562   .debug_str:000009a4 .LASF76
C:\Users\Andrea\AppData\Local\Temp\ccgn9dnb.s:3714   .debug_str:00001015 .LASF77
C:\Users\Andrea\AppData\Local\Temp\ccgn9dnb.s:3674   .debug_str:00000e97 .LASF78
C:\Users\Andrea\AppData\Local\Temp\ccgn9dnb.s:3576   .debug_str:00000a6b .LASF79
C:\Users\Andrea\AppData\Local\Temp\ccgn9dnb.s:3578   .debug_str:00000a80 .LASF80
C:\Users\Andrea\AppData\Local\Temp\ccgn9dnb.s:3524   .debug_str:000007e3 .LASF81
C:\Users\Andrea\AppData\Local\Temp\ccgn9dnb.s:3468   .debug_str:0000057a .LASF82
C:\Users\Andrea\AppData\Local\Temp\ccgn9dnb.s:3614   .debug_str:00000c02 .LASF83
C:\Users\Andrea\AppData\Local\Temp\ccgn9dnb.s:3560   .debug_str:00000970 .LASF84
C:\Users\Andrea\AppData\Local\Temp\ccgn9dnb.s:3670   .debug_str:00000e55 .LASF85
C:\Users\Andrea\AppData\Local\Temp\ccgn9dnb.s:3534   .debug_str:0000084c .LASF86
C:\Users\Andrea\AppData\Local\Temp\ccgn9dnb.s:3656   .debug_str:00000d98 .LASF87
C:\Users\Andrea\AppData\Local\Temp\ccgn9dnb.s:3622   .debug_str:00000c60 .LASF88
C:\Users\Andrea\AppData\Local\Temp\ccgn9dnb.s:3610   .debug_str:00000bbb .LASF89
C:\Users\Andrea\AppData\Local\Temp\ccgn9dnb.s:3454   .debug_str:000004e0 .LASF90
C:\Users\Andrea\AppData\Local\Temp\ccgn9dnb.s:3456   .debug_str:000004f7 .LASF91
C:\Users\Andrea\AppData\Local\Temp\ccgn9dnb.s:3458   .debug_str:0000050e .LASF92
C:\Users\Andrea\AppData\Local\Temp\ccgn9dnb.s:3752   .debug_str:0000118b .LASF93
C:\Users\Andrea\AppData\Local\Temp\ccgn9dnb.s:3462   .debug_str:0000052d .LASF94
C:\Users\Andrea\AppData\Local\Temp\ccgn9dnb.s:3598   .debug_str:00000b47 .LASF95
C:\Users\Andrea\AppData\Local\Temp\ccgn9dnb.s:3760   .debug_str:000011d7 .LASF96
C:\Users\Andrea\AppData\Local\Temp\ccgn9dnb.s:3332   .debug_str:00000005 .LASF97
C:\Users\Andrea\AppData\Local\Temp\ccgn9dnb.s:3436   .debug_str:0000040b .LASF98
C:\Users\Andrea\AppData\Local\Temp\ccgn9dnb.s:3506   .debug_str:0000071a .LASF99
C:\Users\Andrea\AppData\Local\Temp\ccgn9dnb.s:3734   .debug_str:000010d4 .LASF100
C:\Users\Andrea\AppData\Local\Temp\ccgn9dnb.s:3642   .debug_str:00000d2c .LASF101
C:\Users\Andrea\AppData\Local\Temp\ccgn9dnb.s:3550   .debug_str:000008f3 .LASF102
C:\Users\Andrea\AppData\Local\Temp\ccgn9dnb.s:3742   .debug_str:00001110 .LASF103
C:\Users\Andrea\AppData\Local\Temp\ccgn9dnb.s:3554   .debug_str:00000925 .LASF104
C:\Users\Andrea\AppData\Local\Temp\ccgn9dnb.s:3556   .debug_str:0000093d .LASF105
C:\Users\Andrea\AppData\Local\Temp\ccgn9dnb.s:3508   .debug_str:00000732 .LASF106
C:\Users\Andrea\AppData\Local\Temp\ccgn9dnb.s:3568   .debug_str:000009dc .LASF107
C:\Users\Andrea\AppData\Local\Temp\ccgn9dnb.s:3512   .debug_str:00000766 .LASF108
C:\Users\Andrea\AppData\Local\Temp\ccgn9dnb.s:3514   .debug_str:0000077f .LASF109
C:\Users\Andrea\AppData\Local\Temp\ccgn9dnb.s:3572   .debug_str:00000a24 .LASF110
C:\Users\Andrea\AppData\Local\Temp\ccgn9dnb.s:3750   .debug_str:00001167 .LASF111
C:\Users\Andrea\AppData\Local\Temp\ccgn9dnb.s:3520   .debug_str:000007b1 .LASF112
C:\Users\Andrea\AppData\Local\Temp\ccgn9dnb.s:3522   .debug_str:000007ca .LASF113
C:\Users\Andrea\AppData\Local\Temp\ccgn9dnb.s:3582   .debug_str:00000aa1 .LASF114
C:\Users\Andrea\AppData\Local\Temp\ccgn9dnb.s:3748   .debug_str:00001142 .LASF115
C:\Users\Andrea\AppData\Local\Temp\ccgn9dnb.s:3358   .debug_str:000000df .LASF116
C:\Users\Andrea\AppData\Local\Temp\ccgn9dnb.s:3544   .debug_str:000008c8 .LASF117
C:\Users\Andrea\AppData\Local\Temp\ccgn9dnb.s:3650   .debug_str:00000d72 .LASF118
C:\Users\Andrea\AppData\Local\Temp\ccgn9dnb.s:3612   .debug_str:00000bef .LASF119
C:\Users\Andrea\AppData\Local\Temp\ccgn9dnb.s:3758   .debug_str:000011c7 .LASF120
C:\Users\Andrea\AppData\Local\Temp\ccgn9dnb.s:3366   .debug_str:0000014f .LASF121
C:\Users\Andrea\AppData\Local\Temp\ccgn9dnb.s:3472   .debug_str:000005db .LASF122
C:\Users\Andrea\AppData\Local\Temp\ccgn9dnb.s:3678   .debug_str:00000ec6 .LASF123
C:\Users\Andrea\AppData\Local\Temp\ccgn9dnb.s:3476   .debug_str:0000061a .LASF124
C:\Users\Andrea\AppData\Local\Temp\ccgn9dnb.s:3442   .debug_str:00000449 .LASF125
C:\Users\Andrea\AppData\Local\Temp\ccgn9dnb.s:3466   .debug_str:00000555 .LASF126
C:\Users\Andrea\AppData\Local\Temp\ccgn9dnb.s:3426   .debug_str:000003a6 .LASF127
C:\Users\Andrea\AppData\Local\Temp\ccgn9dnb.s:3564   .debug_str:000009b7 .LASF128
C:\Users\Andrea\AppData\Local\Temp\ccgn9dnb.s:3496   .debug_str:000006b5 .LASF129
C:\Users\Andrea\AppData\Local\Temp\ccgn9dnb.s:3444   .debug_str:00000463 .LASF130
C:\Users\Andrea\AppData\Local\Temp\ccgn9dnb.s:3692   .debug_str:00000f36 .LASF131
C:\Users\Andrea\AppData\Local\Temp\ccgn9dnb.s:3428   .debug_str:000003c2 .LASF132
C:\Users\Andrea\AppData\Local\Temp\ccgn9dnb.s:3724   .debug_str:0000105b .LASF133
C:\Users\Andrea\AppData\Local\Temp\ccgn9dnb.s:3470   .debug_str:000005b6 .LASF134
C:\Users\Andrea\AppData\Local\Temp\ccgn9dnb.s:3362   .debug_str:0000011d .LASF135
C:\Users\Andrea\AppData\Local\Temp\ccgn9dnb.s:3410   .debug_str:00000308 .LASF136
C:\Users\Andrea\AppData\Local\Temp\ccgn9dnb.s:3726   .debug_str:00001086 .LASF137
C:\Users\Andrea\AppData\Local\Temp\ccgn9dnb.s:3640   .debug_str:00000d0d .LASF138
C:\Users\Andrea\AppData\Local\Temp\ccgn9dnb.s:3552   .debug_str:0000090b .LASF139
C:\Users\Andrea\AppData\Local\Temp\ccgn9dnb.s:3696   .debug_str:00000f9f .LASF140
C:\Users\Andrea\AppData\Local\Temp\ccgn9dnb.s:3400   .debug_str:000002a9 .LASF141
C:\Users\Andrea\AppData\Local\Temp\ccgn9dnb.s:3474   .debug_str:000005f8 .LASF142
C:\Users\Andrea\AppData\Local\Temp\ccgn9dnb.s:3448   .debug_str:00000488 .LASF143
C:\Users\Andrea\AppData\Local\Temp\ccgn9dnb.s:3658   .debug_str:00000dcd .LASF144
C:\Users\Andrea\AppData\Local\Temp\ccgn9dnb.s:3570   .debug_str:000009f5 .LASF145
C:\Users\Andrea\AppData\Local\Temp\ccgn9dnb.s:3574   .debug_str:00000a3d .LASF146
C:\Users\Andrea\AppData\Local\Temp\ccgn9dnb.s:3662   .debug_str:00000e03 .LASF147
C:\Users\Andrea\AppData\Local\Temp\ccgn9dnb.s:3378   .debug_str:000001d3 .LASF148
C:\Users\Andrea\AppData\Local\Temp\ccgn9dnb.s:3344   .debug_str:00000068 .LASF149
C:\Users\Andrea\AppData\Local\Temp\ccgn9dnb.s:3510   .debug_str:0000074b .LASF150
C:\Users\Andrea\AppData\Local\Temp\ccgn9dnb.s:3584   .debug_str:00000ac1 .LASF151
C:\Users\Andrea\AppData\Local\Temp\ccgn9dnb.s:3412   .debug_str:0000032c .LASF152
C:\Users\Andrea\AppData\Local\Temp\ccgn9dnb.s:3408   .debug_str:000002f0 .LASF153
C:\Users\Andrea\AppData\Local\Temp\ccgn9dnb.s:3340   .debug_str:0000003c .LASF154
C:\Users\Andrea\AppData\Local\Temp\ccgn9dnb.s:3594   .debug_str:00000b1f .LASF155
C:\Users\Andrea\AppData\Local\Temp\ccgn9dnb.s:3540   .debug_str:000008a6 .LASF156
C:\Users\Andrea\AppData\Local\Temp\ccgn9dnb.s:3680   .debug_str:00000ee0 .LASF157
C:\Users\Andrea\AppData\Local\Temp\ccgn9dnb.s:3638   .debug_str:00000cf8 .LASF158
C:\Users\Andrea\AppData\Local\Temp\ccgn9dnb.s:3698   .debug_str:00000fb6 .LASF159
C:\Users\Andrea\AppData\Local\Temp\ccgn9dnb.s:3646   .debug_str:00000d51 .LASF160
C:\Users\Andrea\AppData\Local\Temp\ccgn9dnb.s:3360   .debug_str:00000104 .LASF161
C:\Users\Andrea\AppData\Local\Temp\ccgn9dnb.s:3558   .debug_str:00000955 .LASF162
C:\Users\Andrea\AppData\Local\Temp\ccgn9dnb.s:3538   .debug_str:0000088c .LASF163
C:\Users\Andrea\AppData\Local\Temp\ccgn9dnb.s:3668   .debug_str:00000e4a .LASF164
C:\Users\Andrea\AppData\Local\Temp\ccgn9dnb.s:3464   .debug_str:00000544 .LASF165
C:\Users\Andrea\AppData\Local\Temp\ccgn9dnb.s:3450   .debug_str:000004ab .LASF166
C:\Users\Andrea\AppData\Local\Temp\ccgn9dnb.s:3744   .debug_str:00001128 .LASF167
C:\Users\Andrea\AppData\Local\Temp\ccgn9dnb.s:3740   .debug_str:000010fd .LASF168
C:\Users\Andrea\AppData\Local\Temp\ccgn9dnb.s:3376   .debug_str:000001c5 .LASF169
C:\Users\Andrea\AppData\Local\Temp\ccgn9dnb.s:3342   .debug_str:0000005b .LASF170
C:\Users\Andrea\AppData\Local\Temp\ccgn9dnb.s:3380   .debug_str:00000204 .LASF200
C:\Users\Andrea\AppData\Local\Temp\ccgn9dnb.s:3430   .debug_str:000003e0 .LASF210
C:\Users\Andrea\AppData\Local\Temp\ccgn9dnb.s:3372   .debug_str:00000184 .LASF195
C:\Users\Andrea\AppData\Local\Temp\ccgn9dnb.s:3440   .debug_str:00000428 .LASF171
C:\Users\Andrea\AppData\Local\Temp\ccgn9dnb.s:42     .text.LIB_Backup_CheckIfIsTimeToBackup:00000027 .LFE1
C:\Users\Andrea\AppData\Local\Temp\ccgn9dnb.s:3566   .debug_str:000009d1 .LASF211
C:\Users\Andrea\AppData\Local\Temp\ccgn9dnb.s:3173   .debug_loc:00000000 .LLST0
C:\Users\Andrea\AppData\Local\Temp\ccgn9dnb.s:3542   .debug_str:000008c1 .LASF177
C:\Users\Andrea\AppData\Local\Temp\ccgn9dnb.s:3187   .debug_loc:00000021 .LLST1
C:\Users\Andrea\AppData\Local\Temp\ccgn9dnb.s:25     .text.LIB_Backup_CheckIfIsTimeToBackup:0000000d .LVL2
C:\Users\Andrea\AppData\Local\Temp\ccgn9dnb.s:35     .text.LIB_Backup_CheckIfIsTimeToBackup:00000021 .LVL3
C:\Users\Andrea\AppData\Local\Temp\ccgn9dnb.s:3716   .debug_str:00001028 .LASF187
C:\Users\Andrea\AppData\Local\Temp\ccgn9dnb.s:73     .text.LIB_Backup_ForceBackup:0000002e .LFE2
C:\Users\Andrea\AppData\Local\Temp\ccgn9dnb.s:3199   .debug_loc:00000040 .LLST2
C:\Users\Andrea\AppData\Local\Temp\ccgn9dnb.s:3336   .debug_str:0000002f .LASF179
C:\Users\Andrea\AppData\Local\Temp\ccgn9dnb.s:3624   .debug_str:00000c95 .LASF172
C:\Users\Andrea\AppData\Local\Temp\ccgn9dnb.s:102    .text.LIB_Backup_RestoreManager:00000017 .LFE3
C:\Users\Andrea\AppData\Local\Temp\ccgn9dnb.s:3212   .debug_loc:00000060 .LLST3
C:\Users\Andrea\AppData\Local\Temp\ccgn9dnb.s:85     .text.LIB_Backup_RestoreManager:00000006 .LVL5
C:\Users\Andrea\AppData\Local\Temp\ccgn9dnb.s:91     .text.LIB_Backup_RestoreManager:0000000f .LVL6
C:\Users\Andrea\AppData\Local\Temp\ccgn9dnb.s:3526   .debug_str:00000812 .LASF173
C:\Users\Andrea\AppData\Local\Temp\ccgn9dnb.s:236    .text.LIB_Backup_RefCheck:000000c3 .LFE4
C:\Users\Andrea\AppData\Local\Temp\ccgn9dnb.s:3225   .debug_loc:00000080 .LLST4
C:\Users\Andrea\AppData\Local\Temp\ccgn9dnb.s:3608   .debug_str:00000ba6 .LASF174
C:\Users\Andrea\AppData\Local\Temp\ccgn9dnb.s:3688   .debug_str:00000f1a .LASF175
C:\Users\Andrea\AppData\Local\Temp\ccgn9dnb.s:3438   .debug_str:00000423 .LASF176
C:\Users\Andrea\AppData\Local\Temp\ccgn9dnb.s:3654   .debug_str:00000d92 .LASF178
C:\Users\Andrea\AppData\Local\Temp\ccgn9dnb.s:3484   .debug_str:00000668 .LASF180
C:\Users\Andrea\AppData\Local\Temp\ccgn9dnb.s:3350   .debug_str:000000ad .LASF181
C:\Users\Andrea\AppData\Local\Temp\ccgn9dnb.s:3238   .debug_loc:000000a0 .LLST5
C:\Users\Andrea\AppData\Local\Temp\ccgn9dnb.s:3532   .debug_str:00000838 .LASF182
C:\Users\Andrea\AppData\Local\Temp\ccgn9dnb.s:3249   .debug_loc:000000be .LLST6
C:\Users\Andrea\AppData\Local\Temp\ccgn9dnb.s:114    .text.LIB_Backup_RefCheck:00000006 .LVL7
C:\Users\Andrea\AppData\Local\Temp\ccgn9dnb.s:116    .text.LIB_Backup_RefCheck:0000000a .LVL8
C:\Users\Andrea\AppData\Local\Temp\ccgn9dnb.s:124    .text.LIB_Backup_RefCheck:00000015 .LVL10
C:\Users\Andrea\AppData\Local\Temp\ccgn9dnb.s:134    .text.LIB_Backup_RefCheck:00000022 .LVL12
C:\Users\Andrea\AppData\Local\Temp\ccgn9dnb.s:154    .text.LIB_Backup_RefCheck:00000049 .LVL14
C:\Users\Andrea\AppData\Local\Temp\ccgn9dnb.s:159    .text.LIB_Backup_RefCheck:00000051 .LVL15
C:\Users\Andrea\AppData\Local\Temp\ccgn9dnb.s:169    .text.LIB_Backup_RefCheck:0000005e .LVL16
C:\Users\Andrea\AppData\Local\Temp\ccgn9dnb.s:173    .text.LIB_Backup_RefCheck:00000064 .LVL17
C:\Users\Andrea\AppData\Local\Temp\ccgn9dnb.s:202    .text.LIB_Backup_RefCheck:00000091 .LVL20
C:\Users\Andrea\AppData\Local\Temp\ccgn9dnb.s:207    .text.LIB_Backup_RefCheck:00000099 .LVL21
C:\Users\Andrea\AppData\Local\Temp\ccgn9dnb.s:217    .text.LIB_Backup_RefCheck:000000a6 .LVL22
C:\Users\Andrea\AppData\Local\Temp\ccgn9dnb.s:221    .text.LIB_Backup_RefCheck:000000ac .LVL23
C:\Users\Andrea\AppData\Local\Temp\ccgn9dnb.s:3416   .debug_str:0000034b .LASF212
C:\Users\Andrea\AppData\Local\Temp\ccgn9dnb.s:3406   .debug_str:000002e1 .LASF183
C:\Users\Andrea\AppData\Local\Temp\ccgn9dnb.s:3722   .debug_str:0000104f .LASF184
C:\Users\Andrea\AppData\Local\Temp\ccgn9dnb.s:3708   .debug_str:00000ff1 .LASF185
C:\Users\Andrea\AppData\Local\Temp\ccgn9dnb.s:3618   .debug_str:00000c3f .LASF213
C:\Users\Andrea\AppData\Local\Temp\ccgn9dnb.s:3684   .debug_str:00000f06 .LASF186
C:\Users\Andrea\AppData\Local\Temp\ccgn9dnb.s:3580   .debug_str:00000a95 .LASF188
C:\Users\Andrea\AppData\Local\Temp\ccgn9dnb.s:318    .text.Task_Backup:0000007b .LFE0
C:\Users\Andrea\AppData\Local\Temp\ccgn9dnb.s:3260   .debug_loc:000000dc .LLST7
C:\Users\Andrea\AppData\Local\Temp\ccgn9dnb.s:253    .text.Task_Backup:0000000c .LBB12
C:\Users\Andrea\AppData\Local\Temp\ccgn9dnb.s:267    .text.Task_Backup:0000001b .LBE12
C:\Users\Andrea\AppData\Local\Temp\ccgn9dnb.s:254    .text.Task_Backup:0000000c .LBB13
C:\Users\Andrea\AppData\Local\Temp\ccgn9dnb.s:266    .text.Task_Backup:0000001b .LBE13
C:\Users\Andrea\AppData\Local\Temp\ccgn9dnb.s:274    .text.Task_Backup:0000002d .LBB14
C:\Users\Andrea\AppData\Local\Temp\ccgn9dnb.s:296    .text.Task_Backup:0000005b .LBE14
C:\Users\Andrea\AppData\Local\Temp\ccgn9dnb.s:275    .text.Task_Backup:0000002d .LBB15
C:\Users\Andrea\AppData\Local\Temp\ccgn9dnb.s:295    .text.Task_Backup:0000005b .LBE15
C:\Users\Andrea\AppData\Local\Temp\ccgn9dnb.s:304    .text.Task_Backup:00000069 .LBB16
C:\Users\Andrea\AppData\Local\Temp\ccgn9dnb.s:310    .text.Task_Backup:00000072 .LBE16
C:\Users\Andrea\AppData\Local\Temp\ccgn9dnb.s:331    .text.LIB_Backup_SetBackupControlMonitor:00000009 .LFE5
C:\Users\Andrea\AppData\Local\Temp\ccgn9dnb.s:343    .text.LIB_Backup_GetBackupControlMonitor:00000009 .LFE6
C:\Users\Andrea\AppData\Local\Temp\ccgn9dnb.s:3490   .debug_str:0000068c .LASF214
C:\Users\Andrea\AppData\Local\Temp\ccgn9dnb.s:355    .text.LIB_Backup_GetBackupSource:00000009 .LFE7
C:\Users\Andrea\AppData\Local\Temp\ccgn9dnb.s:3676   .debug_str:00000eab .LASF189
C:\Users\Andrea\AppData\Local\Temp\ccgn9dnb.s:367    .text.LIB_Backup_SetBackupSource:0000000a .LFE8
C:\Users\Andrea\AppData\Local\Temp\ccgn9dnb.s:3422   .debug_str:00000380 .LASF190
C:\Users\Andrea\AppData\Local\Temp\ccgn9dnb.s:379    .text.LIB_Backup_ResetBackupSource:0000000a .LFE9
C:\Users\Andrea\AppData\Local\Temp\ccgn9dnb.s:3386   .debug_str:00000243 .LASF191
C:\Users\Andrea\AppData\Local\Temp\ccgn9dnb.s:3388   .debug_str:00000255 .LASF192
C:\Users\Andrea\AppData\Local\Temp\ccgn9dnb.s:3482   .debug_str:0000065a .LASF193
C:\Users\Andrea\AppData\Local\Temp\ccgn9dnb.s:3588   .debug_str:00000afb .LASF194
C:\Users\Andrea\AppData\Local\Temp\ccgn9dnb.s:3382   .debug_str:00000227 .LASF196
C:\Users\Andrea\AppData\Local\Temp\ccgn9dnb.s:3710   .debug_str:00000ff8 .LASF197
C:\Users\Andrea\AppData\Local\Temp\ccgn9dnb.s:3586   .debug_str:00000ae1 .LASF198
C:\Users\Andrea\AppData\Local\Temp\ccgn9dnb.s:3606   .debug_str:00000b8f .LASF215
C:\Users\Andrea\AppData\Local\Temp\ccgn9dnb.s:3480   .debug_str:00000645 .LASF199
C:\Users\Andrea\AppData\Local\Temp\ccgn9dnb.s:3398   .debug_str:00000285 .LASF202
C:\Users\Andrea\AppData\Local\Temp\ccgn9dnb.s:3604   .debug_str:00000b75 .LASF201
C:\Users\Andrea\AppData\Local\Temp\ccgn9dnb.s:3478   .debug_str:00000636 .LASF203
C:\Users\Andrea\AppData\Local\Temp\ccgn9dnb.s:3728   .debug_str:000010aa .LASF204
C:\Users\Andrea\AppData\Local\Temp\ccgn9dnb.s:3666   .debug_str:00000e3b .LASF205
C:\Users\Andrea\AppData\Local\Temp\ccgn9dnb.s:3402   .debug_str:000002ca .LASF206
C:\Users\Andrea\AppData\Local\Temp\ccgn9dnb.s:3754   .debug_str:000011a2 .LASF207
C:\Users\Andrea\AppData\Local\Temp\ccgn9dnb.s:11     .text.LIB_Backup_CheckIfIsTimeToBackup:00000000 .LVL0
C:\Users\Andrea\AppData\Local\Temp\ccgn9dnb.s:16     .text.LIB_Backup_CheckIfIsTimeToBackup:00000005 .LVL1
C:\Users\Andrea\AppData\Local\Temp\ccgn9dnb.s:39     .text.LIB_Backup_CheckIfIsTimeToBackup:00000026 .LVL4
C:\Users\Andrea\AppData\Local\Temp\ccgn9dnb.s:51     .text.LIB_Backup_ForceBackup:00000002 .LCFI0
C:\Users\Andrea\AppData\Local\Temp\ccgn9dnb.s:82     .text.LIB_Backup_RestoreManager:00000002 .LCFI1
C:\Users\Andrea\AppData\Local\Temp\ccgn9dnb.s:111    .text.LIB_Backup_RefCheck:00000002 .LCFI2
C:\Users\Andrea\AppData\Local\Temp\ccgn9dnb.s:152    .text.LIB_Backup_RefCheck:00000045 .LVL13
C:\Users\Andrea\AppData\Local\Temp\ccgn9dnb.s:189    .text.LIB_Backup_RefCheck:0000007a .LVL18
C:\Users\Andrea\AppData\Local\Temp\ccgn9dnb.s:200    .text.LIB_Backup_RefCheck:0000008d .LVL19
C:\Users\Andrea\AppData\Local\Temp\ccgn9dnb.s:122    .text.LIB_Backup_RefCheck:00000011 .LVL9
C:\Users\Andrea\AppData\Local\Temp\ccgn9dnb.s:128    .text.LIB_Backup_RefCheck:0000001a .LVL11
C:\Users\Andrea\AppData\Local\Temp\ccgn9dnb.s:245    .text.Task_Backup:00000002 .LCFI3
C:\Users\Andrea\AppData\Local\Temp\ccgn9dnb.s:540    .debug_info:00000000 .Ldebug_info0

UNDEFINED SYMBOLS
_LIB_ADC_CheckRef
_LIB_ADC_Is_Ref_Good
_OS_DisableInterrupt
_OS_Global
_LIB_Backup_DataSave
_OS_EnableInterrupt
_LIB_Backup_ChecksumVerify
_LIB_Backup_DataRestore
_LIB_ADC_GetChCompPos
_LIB_ADC_ADChVsAnalogInputParamIndex
_LIB_Error_Warning_Handler
_LIB_ADC_Conv_F
_PM_SWalarmsConvNsecInTicks
_PM_SWalarmsSet
_PM_SWalarmsCheck
_PM_SWalarms_IsAlarmExpired
_CBF_notifyBackupAlarm
_LIB_IOM_SetAllLoadsOff
_OCDIO_DeInitSync
_OCIRQ_DeInitSync
_OCADC_DeInitSync
_OCCRC_DeInitSync
_OCHWCNTR_DeInitSync
_LIB_ZC_ResetSyncPhase
_SetgoodZCSignalTo
_OCRST_GenerateUserResetSync
