   1                             		.file	"Maintain.c"
   2                             		.section P,"ax"
   3                             	.Ltext0:
   4                             		.section	.text.MTN_uP_Maintain_Exe,"ax",@progbits
   5                             		.global	_MTN_uP_Maintain_Exe
   7                             	_MTN_uP_Maintain_Exe:
   8                             	.LFB0:
   9                             		.file 1 "C:/Workspace/FW_Inertia/branch_indesit/Inertia/Modules/Maintain.c"
   1:C:/Workspace/FW_Inertia/branch_indesit/Inertia/Modules\Maintain.c **** /**
   2:C:/Workspace/FW_Inertia/branch_indesit/Inertia/Modules\Maintain.c **** Source File 
   3:C:/Workspace/FW_Inertia/branch_indesit/Inertia/Modules\Maintain.c **** 
   4:C:/Workspace/FW_Inertia/branch_indesit/Inertia/Modules\Maintain.c **** \file    Maintain.c
   5:C:/Workspace/FW_Inertia/branch_indesit/Inertia/Modules\Maintain.c **** \ingroup Maintain
   6:C:/Workspace/FW_Inertia/branch_indesit/Inertia/Modules\Maintain.c **** \date    13/02/2008
   7:C:/Workspace/FW_Inertia/branch_indesit/Inertia/Modules\Maintain.c **** \author  Roberto Fioravanti
   8:C:/Workspace/FW_Inertia/branch_indesit/Inertia/Modules\Maintain.c **** \version 1.0.0
   9:C:/Workspace/FW_Inertia/branch_indesit/Inertia/Modules\Maintain.c **** */
  10:C:/Workspace/FW_Inertia/branch_indesit/Inertia/Modules\Maintain.c **** 
  11:C:/Workspace/FW_Inertia/branch_indesit/Inertia/Modules\Maintain.c **** /*
  12:C:/Workspace/FW_Inertia/branch_indesit/Inertia/Modules\Maintain.c **** Copyright (c) 2004-2008, Indesit Company, IDD.
  13:C:/Workspace/FW_Inertia/branch_indesit/Inertia/Modules\Maintain.c **** Tutti i diritti sono riservati. All rights reserved.
  14:C:/Workspace/FW_Inertia/branch_indesit/Inertia/Modules\Maintain.c **** */
  15:C:/Workspace/FW_Inertia/branch_indesit/Inertia/Modules\Maintain.c **** 
  16:C:/Workspace/FW_Inertia/branch_indesit/Inertia/Modules\Maintain.c **** /* Old Versions
  17:C:/Workspace/FW_Inertia/branch_indesit/Inertia/Modules\Maintain.c **** \version 
  18:C:/Workspace/FW_Inertia/branch_indesit/Inertia/Modules\Maintain.c **** \date    
  19:C:/Workspace/FW_Inertia/branch_indesit/Inertia/Modules\Maintain.c **** \author
  20:C:/Workspace/FW_Inertia/branch_indesit/Inertia/Modules\Maintain.c **** */
  21:C:/Workspace/FW_Inertia/branch_indesit/Inertia/Modules\Maintain.c **** 
  22:C:/Workspace/FW_Inertia/branch_indesit/Inertia/Modules\Maintain.c **** 
  23:C:/Workspace/FW_Inertia/branch_indesit/Inertia/Modules\Maintain.c **** /** 
  24:C:/Workspace/FW_Inertia/branch_indesit/Inertia/Modules\Maintain.c **** \todo :  gestione modificatori da implementare e provare		
  25:C:/Workspace/FW_Inertia/branch_indesit/Inertia/Modules\Maintain.c **** */ 
  26:C:/Workspace/FW_Inertia/branch_indesit/Inertia/Modules\Maintain.c **** 
  27:C:/Workspace/FW_Inertia/branch_indesit/Inertia/Modules\Maintain.c **** 
  28:C:/Workspace/FW_Inertia/branch_indesit/Inertia/Modules\Maintain.c **** 
  29:C:/Workspace/FW_Inertia/branch_indesit/Inertia/Modules\Maintain.c **** /* ******** */
  30:C:/Workspace/FW_Inertia/branch_indesit/Inertia/Modules\Maintain.c **** /* Includes */
  31:C:/Workspace/FW_Inertia/branch_indesit/Inertia/Modules\Maintain.c **** /* ******** */
  32:C:/Workspace/FW_Inertia/branch_indesit/Inertia/Modules\Maintain.c **** 
  33:C:/Workspace/FW_Inertia/branch_indesit/Inertia/Modules\Maintain.c **** #include "CstmHeaders.h"
  34:C:/Workspace/FW_Inertia/branch_indesit/Inertia/Modules\Maintain.c **** 
  35:C:/Workspace/FW_Inertia/branch_indesit/Inertia/Modules\Maintain.c **** /* ****************** */
  36:C:/Workspace/FW_Inertia/branch_indesit/Inertia/Modules\Maintain.c **** /* Defines and Macros */
  37:C:/Workspace/FW_Inertia/branch_indesit/Inertia/Modules\Maintain.c **** /* ****************** */
  38:C:/Workspace/FW_Inertia/branch_indesit/Inertia/Modules\Maintain.c **** 
  39:C:/Workspace/FW_Inertia/branch_indesit/Inertia/Modules\Maintain.c **** /* *************************** */
  40:C:/Workspace/FW_Inertia/branch_indesit/Inertia/Modules\Maintain.c **** /* Typedef, Structs and Unions */
  41:C:/Workspace/FW_Inertia/branch_indesit/Inertia/Modules\Maintain.c **** /* *************************** */
  42:C:/Workspace/FW_Inertia/branch_indesit/Inertia/Modules\Maintain.c **** 
  43:C:/Workspace/FW_Inertia/branch_indesit/Inertia/Modules\Maintain.c **** /* **************************** */
  44:C:/Workspace/FW_Inertia/branch_indesit/Inertia/Modules\Maintain.c **** /* Prototype of local functions */
  45:C:/Workspace/FW_Inertia/branch_indesit/Inertia/Modules\Maintain.c **** /* **************************** */
  46:C:/Workspace/FW_Inertia/branch_indesit/Inertia/Modules\Maintain.c **** 
  47:C:/Workspace/FW_Inertia/branch_indesit/Inertia/Modules\Maintain.c **** /* ****************** */
  48:C:/Workspace/FW_Inertia/branch_indesit/Inertia/Modules\Maintain.c **** /* Exported variables */
  49:C:/Workspace/FW_Inertia/branch_indesit/Inertia/Modules\Maintain.c **** /* ****************** */
  50:C:/Workspace/FW_Inertia/branch_indesit/Inertia/Modules\Maintain.c **** 
  51:C:/Workspace/FW_Inertia/branch_indesit/Inertia/Modules\Maintain.c **** /* **************** */
  52:C:/Workspace/FW_Inertia/branch_indesit/Inertia/Modules\Maintain.c **** /* Global variables */
  53:C:/Workspace/FW_Inertia/branch_indesit/Inertia/Modules\Maintain.c **** /* **************** */
  54:C:/Workspace/FW_Inertia/branch_indesit/Inertia/Modules\Maintain.c **** 
  55:C:/Workspace/FW_Inertia/branch_indesit/Inertia/Modules\Maintain.c **** 
  56:C:/Workspace/FW_Inertia/branch_indesit/Inertia/Modules\Maintain.c **** /* ******************* */
  57:C:/Workspace/FW_Inertia/branch_indesit/Inertia/Modules\Maintain.c **** /* External variables  */
  58:C:/Workspace/FW_Inertia/branch_indesit/Inertia/Modules\Maintain.c **** /* ******************* */
  59:C:/Workspace/FW_Inertia/branch_indesit/Inertia/Modules\Maintain.c **** 
  60:C:/Workspace/FW_Inertia/branch_indesit/Inertia/Modules\Maintain.c **** /* ***************** */
  61:C:/Workspace/FW_Inertia/branch_indesit/Inertia/Modules\Maintain.c **** /* Exported function */
  62:C:/Workspace/FW_Inertia/branch_indesit/Inertia/Modules\Maintain.c **** /* ***************** */
  63:C:/Workspace/FW_Inertia/branch_indesit/Inertia/Modules\Maintain.c **** 
  64:C:/Workspace/FW_Inertia/branch_indesit/Inertia/Modules\Maintain.c **** /**
  65:C:/Workspace/FW_Inertia/branch_indesit/Inertia/Modules\Maintain.c **** Gestisce l'esecuzione del microprogramma Maintain.
  66:C:/Workspace/FW_Inertia/branch_indesit/Inertia/Modules\Maintain.c ****  
  67:C:/Workspace/FW_Inertia/branch_indesit/Inertia/Modules\Maintain.c **** \param [in] HighStatement specifica l'high statement (opcode +  modificatori F0-F1 + N flag + T fla
  68:C:/Workspace/FW_Inertia/branch_indesit/Inertia/Modules\Maintain.c **** \param [in] LowStatement specifica il low statement (displacement ai dati) del microprogramma.
  69:C:/Workspace/FW_Inertia/branch_indesit/Inertia/Modules\Maintain.c ****  
  70:C:/Workspace/FW_Inertia/branch_indesit/Inertia/Modules\Maintain.c **** \retvalue S_OK se la condizione di avanzamento passo per il microprogramma è verificata (termine co
  71:C:/Workspace/FW_Inertia/branch_indesit/Inertia/Modules\Maintain.c **** \retvalue S_FALSE se non è ancora verificata(conteggio in corso),
  72:C:/Workspace/FW_Inertia/branch_indesit/Inertia/Modules\Maintain.c ****  
  73:C:/Workspace/FW_Inertia/branch_indesit/Inertia/Modules\Maintain.c **** \version		1.0.0
  74:C:/Workspace/FW_Inertia/branch_indesit/Inertia/Modules\Maintain.c **** \date 			1/2/2008
  75:C:/Workspace/FW_Inertia/branch_indesit/Inertia/Modules\Maintain.c **** \author			Roberto Fioravanti
  76:C:/Workspace/FW_Inertia/branch_indesit/Inertia/Modules\Maintain.c **** 
  77:C:/Workspace/FW_Inertia/branch_indesit/Inertia/Modules\Maintain.c **** \versione 1.1.0
  78:C:/Workspace/FW_Inertia/branch_indesit/Inertia/Modules\Maintain.c **** \date	27/9/2010
  79:C:/Workspace/FW_Inertia/branch_indesit/Inertia/Modules\Maintain.c **** \author Emanuela Antognoli
  80:C:/Workspace/FW_Inertia/branch_indesit/Inertia/Modules\Maintain.c **** \note: cambiata la gestione dei timers per la piattaforma 2.0: se il timer è a 15 bit la gestione d
  81:C:/Workspace/FW_Inertia/branch_indesit/Inertia/Modules\Maintain.c **** \non serve più quindi il conteggio massimo è 0x3FFF secondi.
  82:C:/Workspace/FW_Inertia/branch_indesit/Inertia/Modules\Maintain.c **** 
  83:C:/Workspace/FW_Inertia/branch_indesit/Inertia/Modules\Maintain.c **** */
  84:C:/Workspace/FW_Inertia/branch_indesit/Inertia/Modules\Maintain.c **** uint8_t MTN_uP_Maintain_Exe (uint8_t HighStatement,uint8_t LowStatement)
  85:C:/Workspace/FW_Inertia/branch_indesit/Inertia/Modules\Maintain.c **** {
  10                             		.loc 1 85 0
  11                             	.LVL0:
  12 0000 6E 7A                   		pushm	r7-r10
  13                             	.LCFI0:
  14 0002 60 C0                   		sub	#12, r0
  15                             	.LCFI1:
  86:C:/Workspace/FW_Inertia/branch_indesit/Inertia/Modules\Maintain.c **** uint8_t res;
  87:C:/Workspace/FW_Inertia/branch_indesit/Inertia/Modules\Maintain.c **** int8_t perc=0;
  16                             		.loc 1 87 0
  17 0004 3C 08 00                		mov.B	#0, 8[r0]
  18                             	.LVL1:
  88:C:/Workspace/FW_Inertia/branch_indesit/Inertia/Modules\Maintain.c **** int16_t delta;
  89:C:/Workspace/FW_Inertia/branch_indesit/Inertia/Modules\Maintain.c **** #if defined(CONFIG_LIB_ADC_CALIBRATION)
  90:C:/Workspace/FW_Inertia/branch_indesit/Inertia/Modules\Maintain.c **** struct Loader CalibrationDataPtr_Factory;
  91:C:/Workspace/FW_Inertia/branch_indesit/Inertia/Modules\Maintain.c **** #endif /* defined(CONFIG_LIB_ADC_CALIBRATION) */
  92:C:/Workspace/FW_Inertia/branch_indesit/Inertia/Modules\Maintain.c **** 
  93:C:/Workspace/FW_Inertia/branch_indesit/Inertia/Modules\Maintain.c **** 	if (Interpreter_Data[0].stepInitialized== FALSE)
  19                             		.loc 1 93 0
  20 0007 FB 72 00 00 00 00       		mov.L	#_Interpreter_Data, r7
  21 000d 89 77                   		mov.B	4[r7], r7
  22 000f 64 27                   		and	#2, r7
  23 0011 19                      		bne	.L2
  94:C:/Workspace/FW_Inertia/branch_indesit/Inertia/Modules\Maintain.c **** 	{	/*prima iterazione del passo*/
  95:C:/Workspace/FW_Inertia/branch_indesit/Inertia/Modules\Maintain.c **** 
  96:C:/Workspace/FW_Inertia/branch_indesit/Inertia/Modules\Maintain.c **** 		uP_Maintain_Data.status = MAINTAIN_INIT;
  24                             		.loc 1 96 0
  25 0012 FB A2 00 00 00 00       		mov.L	#_uP_Maintain_Data, r10
  26 0018 C3 A7                   		mov.B	r7, [r10]
  27                             		.balign 2,3,5
  28                             	.L2:
  97:C:/Workspace/FW_Inertia/branch_indesit/Inertia/Modules\Maintain.c **** 	}
  98:C:/Workspace/FW_Inertia/branch_indesit/Inertia/Modules\Maintain.c **** 	
  99:C:/Workspace/FW_Inertia/branch_indesit/Inertia/Modules\Maintain.c ****   
 100:C:/Workspace/FW_Inertia/branch_indesit/Inertia/Modules\Maintain.c **** 	if (CurrentFault[0].code == CODE_NO_FAULT)
  29                             		.loc 1 100 0
  30 001a FB 72 00 00 00 00       		mov.L	#_CurrentFault, r7
  31 0020 58 77                   		movu.B	[r7], r7
  32 0022 61 07                   		cmp	#0, r7
  33 0024 21 16                   		bne	.L3
 101:C:/Workspace/FW_Inertia/branch_indesit/Inertia/Modules\Maintain.c **** 	{/* non sono in fault - controllo lo stato della porta 
 102:C:/Workspace/FW_Inertia/branch_indesit/Inertia/Modules\Maintain.c **** 		In caso di Fault il uP può agire anche a porta aperta, non eseguo controllo  */
 103:C:/Workspace/FW_Inertia/branch_indesit/Inertia/Modules\Maintain.c **** 
 104:C:/Workspace/FW_Inertia/branch_indesit/Inertia/Modules\Maintain.c **** 		if ( uPDoorStatus == UP_DOOR_WAIT ) 
  34                             		.loc 1 104 0
  35 0026 FB 72 00 00 00 00       		mov.L	#_uPDoorStatus, r7
  36 002c 58 77                   		movu.B	[r7], r7
  37 002e 61 07                   		cmp	#0, r7
  38 0030 1A                      		bne	.L3
 105:C:/Workspace/FW_Inertia/branch_indesit/Inertia/Modules\Maintain.c **** 		{ /* porta aperta -> il uP va sospeso */
 106:C:/Workspace/FW_Inertia/branch_indesit/Inertia/Modules\Maintain.c **** 
 107:C:/Workspace/FW_Inertia/branch_indesit/Inertia/Modules\Maintain.c **** 			(void)SWTC_Stop((SWTC_CountersType)MP_MAINTAIN_M_COUNTER);
  39                             		.loc 1 107 0
  40 0031 66 41                   		mov	#4, r1
  41                             	.LVL2:
  42 0033 05 00 00 00             		bsr	_SWTC_Stop
  43                             	.LVL3:
  44 0037 38 1D 01                		bra	.L20
  45                             	.LVL4:
  46                             	.L3:
 108:C:/Workspace/FW_Inertia/branch_indesit/Inertia/Modules\Maintain.c **** 
 109:C:/Workspace/FW_Inertia/branch_indesit/Inertia/Modules\Maintain.c **** 			return S_FALSE;
 110:C:/Workspace/FW_Inertia/branch_indesit/Inertia/Modules\Maintain.c **** 		}
 111:C:/Workspace/FW_Inertia/branch_indesit/Inertia/Modules\Maintain.c **** 	}
 112:C:/Workspace/FW_Inertia/branch_indesit/Inertia/Modules\Maintain.c **** 	
 113:C:/Workspace/FW_Inertia/branch_indesit/Inertia/Modules\Maintain.c **** 	if (uP_Maintain_Data.status == MAINTAIN_INIT) 
  47                             		.loc 1 113 0
  48 003a FB A2 00 00 00 00       		mov.L	#_uP_Maintain_Data, r10
  49 0040 58 A7                   		movu.B	[r10], r7
  50 0042 61 07                   		cmp	#0, r7
  51 0044 3B CA 00                		bne	.L5
 114:C:/Workspace/FW_Inertia/branch_indesit/Inertia/Modules\Maintain.c **** 	{
 115:C:/Workspace/FW_Inertia/branch_indesit/Inertia/Modules\Maintain.c **** 		/* caricamento dati dal setting */
 116:C:/Workspace/FW_Inertia/branch_indesit/Inertia/Modules\Maintain.c **** 
 117:C:/Workspace/FW_Inertia/branch_indesit/Inertia/Modules\Maintain.c **** 		if ( BasicLoader ( PTR_UP_MAINTAIN, LowStatement, &uPMaintain_setting_data ) != S_OK )
  52                             		.loc 1 117 0
  53 0047 5B 22                   		movu.B	r2, r2
  54 0049 75 41 19                		mov	#25, r1
  55                             	.LVL5:
  56 004c FB 32 00 00 00 00       		mov.L	#_uPMaintain_setting_data, r3
  57 0052 05 00 00 00             		bsr	_BasicLoader
  58                             	.LVL6:
  59 0056 76 21 FF 00             		and #0xff, r1
  60 005a 3B F7 00                		bne	.L17
 118:C:/Workspace/FW_Inertia/branch_indesit/Inertia/Modules\Maintain.c **** 		{			
 119:C:/Workspace/FW_Inertia/branch_indesit/Inertia/Modules\Maintain.c **** 			return S_OK;			
 120:C:/Workspace/FW_Inertia/branch_indesit/Inertia/Modules\Maintain.c **** 		}
 121:C:/Workspace/FW_Inertia/branch_indesit/Inertia/Modules\Maintain.c **** 
 122:C:/Workspace/FW_Inertia/branch_indesit/Inertia/Modules\Maintain.c **** #if defined(CONFIG_LIB_ADC_CALIBRATION)
 123:C:/Workspace/FW_Inertia/branch_indesit/Inertia/Modules\Maintain.c **** 
 124:C:/Workspace/FW_Inertia/branch_indesit/Inertia/Modules\Maintain.c **** 		LKT_FIELD_S(uP_Maintain_Data.time_target) = ( (*(uint16_t*)uPMaintain_setting_data.Data) & MTN_TI
  61                             		.loc 1 124 0
  62 005d FB 72 00 00 00 00       		mov.L	#_uPMaintain_setting_data, r7
  63 0063 EC 77                   		mov.L	[r7], r7
  64 0065 DC 7E                   		mov.W	[r7], r14
  65 0067 76 2E FF 7F             		and #0x7fff, r14
  66 006b D7 AE 02                		mov.W	r14, 4[r10]
 125:C:/Workspace/FW_Inertia/branch_indesit/Inertia/Modules\Maintain.c **** 		
 126:C:/Workspace/FW_Inertia/branch_indesit/Inertia/Modules\Maintain.c **** 
 127:C:/Workspace/FW_Inertia/branch_indesit/Inertia/Modules\Maintain.c **** #else /*(CONFIG_LIB_ADC_CALIBRATION )*/
 128:C:/Workspace/FW_Inertia/branch_indesit/Inertia/Modules\Maintain.c **** 
 129:C:/Workspace/FW_Inertia/branch_indesit/Inertia/Modules\Maintain.c **** 		LKT_FIELD_S(uP_Maintain_Data.time_target) = *(uint16_t*)uPMaintain_setting_data.Data;
 130:C:/Workspace/FW_Inertia/branch_indesit/Inertia/Modules\Maintain.c **** 
 131:C:/Workspace/FW_Inertia/branch_indesit/Inertia/Modules\Maintain.c **** #endif /*(CONFIG_LIB_ADC_CALIBRATION )*/		
 132:C:/Workspace/FW_Inertia/branch_indesit/Inertia/Modules\Maintain.c **** 		if(MTN_MOD_TAB == 0x7F)
  67                             		.loc 1 132 0
  68 006e 88 F9                   		mov.B	3[r7], r1
  69 0070 75 21 7F                		and #0x7f, r1
  70 0073 75 51 7F                		cmp	#0x7f, r1
  71 0076 1F                      		bne	.L6
  72 0077 03                      		.balign 2,3,4
  73                             	.L8:
 133:C:/Workspace/FW_Inertia/branch_indesit/Inertia/Modules\Maintain.c **** 		{
 134:C:/Workspace/FW_Inertia/branch_indesit/Inertia/Modules\Maintain.c **** 			res=S_FALSE;
 135:C:/Workspace/FW_Inertia/branch_indesit/Inertia/Modules\Maintain.c **** 		}
 136:C:/Workspace/FW_Inertia/branch_indesit/Inertia/Modules\Maintain.c **** 		else
 137:C:/Workspace/FW_Inertia/branch_indesit/Inertia/Modules\Maintain.c **** 		{
 138:C:/Workspace/FW_Inertia/branch_indesit/Inertia/Modules\Maintain.c **** 		    /* Gestione modificatori */
 139:C:/Workspace/FW_Inertia/branch_indesit/Inertia/Modules\Maintain.c **** 		    res=GetModifierValue(MTN_MOD_TAB, &perc);
 140:C:/Workspace/FW_Inertia/branch_indesit/Inertia/Modules\Maintain.c **** 		}
 141:C:/Workspace/FW_Inertia/branch_indesit/Inertia/Modules\Maintain.c **** 		if( ( MOD_DONT_CARE == res ) || ( S_FALSE == res ) )
 142:C:/Workspace/FW_Inertia/branch_indesit/Inertia/Modules\Maintain.c **** 		{
 143:C:/Workspace/FW_Inertia/branch_indesit/Inertia/Modules\Maintain.c **** 			perc=0;
  74                             		.loc 1 143 0
  75 0078 3C 08 00                		mov.B	#0, 8[r0]
  76 007b 2E 15                   		bra	.L7
  77                             	.L6:
 139:C:/Workspace/FW_Inertia/branch_indesit/Inertia/Modules\Maintain.c **** 		    res=GetModifierValue(MTN_MOD_TAB, &perc);
  78                             		.loc 1 139 0
  79 007d 71 02 08                		add	#8, r0, r2
  80 0080 05 00 00 00             		bsr	_GetModifierValue
  81                             	.LVL7:
 141:C:/Workspace/FW_Inertia/branch_indesit/Inertia/Modules\Maintain.c **** 		if( ( MOD_DONT_CARE == res ) || ( S_FALSE == res ) )
  82                             		.loc 1 141 0
  83 0084 5B 11                   		movu.B	r1, r1
  84 0086 75 51 7F                		cmp	#0x7f, r1
  85 0089 20 EF                   		beq	.L8
 141:C:/Workspace/FW_Inertia/branch_indesit/Inertia/Modules\Maintain.c **** 		if( ( MOD_DONT_CARE == res ) || ( S_FALSE == res ) )
  86                             		.loc 1 141 0 is_stmt 0 discriminator 1
  87 008b 61 11                   		cmp	#1, r1
  88 008d 20 EB                   		beq	.L8
  89                             	.LVL8:
  90 008f 03                      		.balign 2,3,5
  91                             	.L7:
 144:C:/Workspace/FW_Inertia/branch_indesit/Inertia/Modules\Maintain.c **** 		}
 145:C:/Workspace/FW_Inertia/branch_indesit/Inertia/Modules\Maintain.c **** 		
 146:C:/Workspace/FW_Inertia/branch_indesit/Inertia/Modules\Maintain.c **** 		/* aggiornamento target conteggio */
 147:C:/Workspace/FW_Inertia/branch_indesit/Inertia/Modules\Maintain.c **** 		if(perc)
  92                             		.loc 1 147 0 is_stmt 1
  93 0090 8A 02                   		mov.B	8[r0], r2
  94 0092 CF 27                   		mov.B	r2, r7
  95 0094 61 07                   		cmp	#0, r7
  96 0096 20 14                   		beq	.L9
 148:C:/Workspace/FW_Inertia/branch_indesit/Inertia/Modules\Maintain.c **** 		{		    
 149:C:/Workspace/FW_Inertia/branch_indesit/Inertia/Modules\Maintain.c **** 			delta = GetDeltaFromVariation(uP_Maintain_Data.time_target,perc);
  97                             		.loc 1 149 0
  98 0098 FB 72 00 00 00 00       		mov.L	#_uP_Maintain_Data, r7
  99 009e 98 F1                   		mov.W	4[r7], r1
 100 00a0 05 00 00 00             		bsr	_GetDeltaFromVariation
 101                             	.LVL9:
 150:C:/Workspace/FW_Inertia/branch_indesit/Inertia/Modules\Maintain.c **** 			LKT_FIELD_S(uP_Maintain_Data.time_target) += delta;
 102                             		.loc 1 150 0
 103 00a4 06 49 71 02             		add	4[r7].W, r1
 104                             	.LVL10:
 105 00a8 90 F1                   		mov.W	r1, 4[r7]
 106                             		.balign 2,3,5
 107                             	.L9:
 151:C:/Workspace/FW_Inertia/branch_indesit/Inertia/Modules\Maintain.c **** 		}
 152:C:/Workspace/FW_Inertia/branch_indesit/Inertia/Modules\Maintain.c **** 	
 153:C:/Workspace/FW_Inertia/branch_indesit/Inertia/Modules\Maintain.c **** 		/* Gestione fattore correttivo */ 
 154:C:/Workspace/FW_Inertia/branch_indesit/Inertia/Modules\Maintain.c **** #if defined(CONFIG_LIB_ADC_CALIBRATION)
 155:C:/Workspace/FW_Inertia/branch_indesit/Inertia/Modules\Maintain.c **** 
 156:C:/Workspace/FW_Inertia/branch_indesit/Inertia/Modules\Maintain.c **** 		if ( TESTBIT((*(uint16_t*)uPMaintain_setting_data.Data),MTN_CORR_FLAG_BIT) && (LIB_CAL_GetCalibDa
 108                             		.loc 1 156 0
 109 00aa FB 72 00 00 00 00       		mov.L	#_uPMaintain_setting_data, r7
 110 00b0 EC 7A                   		mov.L	[r7], r10
 111 00b2 DC AA                   		mov.W	[r10], r10
 112 00b4 61 0A                   		cmp	#0, r10
 113 00b6 28 44                   		bge	.L11
 114                             		.loc 1 156 0 is_stmt 0 discriminator 1
 115 00b8 66 11                   		mov	#1, r1
 116 00ba EF 02                   		mov.L	r0, r2
 117 00bc 05 00 00 00             		bsr	_LIB_CAL_GetCalibData
 118                             	.LVL11:
 119 00c0 5B 11                   		movu.B	r1, r1
 120 00c2 61 01                   		cmp	#0, r1
 121 00c4 21 36                   		bne	.L11
 122                             	.LVL12:
 157:C:/Workspace/FW_Inertia/branch_indesit/Inertia/Modules\Maintain.c **** 		{	/* richiesta applicazione fattore correttivo */
 158:C:/Workspace/FW_Inertia/branch_indesit/Inertia/Modules\Maintain.c **** 			/* aggiornamento target conteggio */
 159:C:/Workspace/FW_Inertia/branch_indesit/Inertia/Modules\Maintain.c **** 			delta = 0;
 160:C:/Workspace/FW_Inertia/branch_indesit/Inertia/Modules\Maintain.c **** 
 161:C:/Workspace/FW_Inertia/branch_indesit/Inertia/Modules\Maintain.c **** 			if ( ( OFFS_B(uPMaintain_setting_data.Data,3) & MNT_RES_FOR_CORR_MASK ) == 0 )
 123                             		.loc 1 161 0 is_stmt 1
 124 00c6 EC 77                   		mov.L	[r7], r7
 125 00c8 CD 7A 03                		mov.B	3[r7], r10
 126 00cb EC 07                   		mov.L	[r0], r7
 127 00cd 61 0A                   		cmp	#0, r10
 128 00cf 29 05                   		blt	.L13
 162:C:/Workspace/FW_Inertia/branch_indesit/Inertia/Modules\Maintain.c **** 			{/* indica di quale resistenza fare applicare il fattore di correzione*/
 163:C:/Workspace/FW_Inertia/branch_indesit/Inertia/Modules\Maintain.c **** 				/* RESISTENZA LAVAGGIO*/
 164:C:/Workspace/FW_Inertia/branch_indesit/Inertia/Modules\Maintain.c **** 				if((uint8_t)CalibrationDataPtr_Factory.Data[WASH_RESISTOR_CAL_OFFSET] != 0xFF)
 129                             		.loc 1 164 0
 130 00d1 CC 77                   		mov.B	[r7], r7
 131 00d3 0B                      		bra	.L33
 132                             	.L13:
 165:C:/Workspace/FW_Inertia/branch_indesit/Inertia/Modules\Maintain.c **** 				{				
 166:C:/Workspace/FW_Inertia/branch_indesit/Inertia/Modules\Maintain.c **** 					delta = ((int8_t)CalibrationDataPtr_Factory.Data[WASH_RESISTOR_CAL_OFFSET]*(int32_t)uP_Maintai
 167:C:/Workspace/FW_Inertia/branch_indesit/Inertia/Modules\Maintain.c **** 				}
 168:C:/Workspace/FW_Inertia/branch_indesit/Inertia/Modules\Maintain.c **** 			}
 169:C:/Workspace/FW_Inertia/branch_indesit/Inertia/Modules\Maintain.c **** 			else
 170:C:/Workspace/FW_Inertia/branch_indesit/Inertia/Modules\Maintain.c **** 			{	/* RESISTENZA ASCIUGATURA */
 171:C:/Workspace/FW_Inertia/branch_indesit/Inertia/Modules\Maintain.c **** 				if((uint8_t)CalibrationDataPtr_Factory.Data[DRY_RESISTOR_CAL_OFFSET] != 0xFF)
 133                             		.loc 1 171 0
 134 00d4 88 7F                   		mov.B	1[r7], r7
 135                             		.balign 2,3,1
 136                             	.L33:
 137 00d6 5B 7A                   		movu.B	r7, r10
 138 00d8 75 5A FF                		cmp	#0xff, r10
 139 00db 20 13                   		beq	.L14
 172:C:/Workspace/FW_Inertia/branch_indesit/Inertia/Modules\Maintain.c **** 				{
 173:C:/Workspace/FW_Inertia/branch_indesit/Inertia/Modules\Maintain.c **** 					delta = ((int8_t)CalibrationDataPtr_Factory.Data[DRY_RESISTOR_CAL_OFFSET]*(int32_t)uP_Maintain
 140                             		.loc 1 173 0
 141 00dd CF 71                   		mov.B	r7, r1
 142 00df FB 72 00 00 00 00       		mov.L	#_uP_Maintain_Data, r7
 143 00e5 06 CD 71 02             		mul	4[r7].UW, r1
 144 00e9 FD 78 81 00 05          		div	#0x500, r1
 145                             	.LVL13:
 146                             		.balign 2,3,5
 147                             	.L14:
 174:C:/Workspace/FW_Inertia/branch_indesit/Inertia/Modules\Maintain.c **** 				}
 175:C:/Workspace/FW_Inertia/branch_indesit/Inertia/Modules\Maintain.c **** 			}
 176:C:/Workspace/FW_Inertia/branch_indesit/Inertia/Modules\Maintain.c **** 
 177:C:/Workspace/FW_Inertia/branch_indesit/Inertia/Modules\Maintain.c **** 			LKT_FIELD_S(uP_Maintain_Data.time_target) += delta;
 148                             		.loc 1 177 0
 149 00ee FB 72 00 00 00 00       		mov.L	#_uP_Maintain_Data, r7
 150 00f4 06 49 71 02             		add	4[r7].W, r1
 151                             	.LVL14:
 152 00f8 90 F1                   		mov.W	r1, 4[r7]
 153                             		.balign 2,3,5
 154                             	.L11:
 178:C:/Workspace/FW_Inertia/branch_indesit/Inertia/Modules\Maintain.c **** 		}
 179:C:/Workspace/FW_Inertia/branch_indesit/Inertia/Modules\Maintain.c **** #endif /*(CALIBRATION_ENABLE == 1)*/
 180:C:/Workspace/FW_Inertia/branch_indesit/Inertia/Modules\Maintain.c **** 		/**/		
 181:C:/Workspace/FW_Inertia/branch_indesit/Inertia/Modules\Maintain.c **** 		/* Config + init downcounter */
 182:C:/Workspace/FW_Inertia/branch_indesit/Inertia/Modules\Maintain.c **** 		/*
 183:C:/Workspace/FW_Inertia/branch_indesit/Inertia/Modules\Maintain.c **** 		Attenzione: a differenza di DEA602 il contatore ? un down counter, quindi
 184:C:/Workspace/FW_Inertia/branch_indesit/Inertia/Modules\Maintain.c **** 		l'inizializzazione deve essere fatta dopo tutte le potenziali modifiche
 185:C:/Workspace/FW_Inertia/branch_indesit/Inertia/Modules\Maintain.c **** 		(modificatori e/o calibrazione) a uP_Maintain_Data.time_target
 186:C:/Workspace/FW_Inertia/branch_indesit/Inertia/Modules\Maintain.c **** 		*/
 187:C:/Workspace/FW_Inertia/branch_indesit/Inertia/Modules\Maintain.c **** 		(void)Set_MediumCounter((SWTC_CountersType)MP_MAINTAIN_M_COUNTER, (SWTC_PrescalerType)COUNTERS2_T
 155                             		.loc 1 187 0
 156 00fa FB 72 00 00 00 00       		mov.L	#_uP_Maintain_Data, r7
 157 0100 66 41                   		mov	#4, r1
 158 0102 66 32                   		mov	#3, r2
 159 0104 98 F3                   		mov.W	4[r7], r3
 160 0106 05 00 00 00             		bsr	_Set_MediumCounter
 161                             	.LVL15:
 188:C:/Workspace/FW_Inertia/branch_indesit/Inertia/Modules\Maintain.c **** 
 189:C:/Workspace/FW_Inertia/branch_indesit/Inertia/Modules\Maintain.c **** 						
 190:C:/Workspace/FW_Inertia/branch_indesit/Inertia/Modules\Maintain.c **** 		uP_Maintain_Data.status = MAINTAIN_EXE;
 162                             		.loc 1 190 0
 163 010a 3C 70 01                		mov.B	#1, [r7]
 164 010d 03                      		.balign 2,3,5
 165                             	.L5:
 191:C:/Workspace/FW_Inertia/branch_indesit/Inertia/Modules\Maintain.c **** 
 192:C:/Workspace/FW_Inertia/branch_indesit/Inertia/Modules\Maintain.c **** 	} /* MAINTAIN_INIT */
 193:C:/Workspace/FW_Inertia/branch_indesit/Inertia/Modules\Maintain.c **** 	
 194:C:/Workspace/FW_Inertia/branch_indesit/Inertia/Modules\Maintain.c **** 	if (uP_Maintain_Data.status == MAINTAIN_EXE) 
 166                             		.loc 1 194 0
 167 010e FB 72 00 00 00 00       		mov.L	#_uP_Maintain_Data, r7
 168 0114 58 7A                   		movu.B	[r7], r10
 169 0116 61 1A                   		cmp	#1, r10
 170 0118 21 24                   		bne	.L15
 195:C:/Workspace/FW_Inertia/branch_indesit/Inertia/Modules\Maintain.c **** 	{
 196:C:/Workspace/FW_Inertia/branch_indesit/Inertia/Modules\Maintain.c **** 		/*CHECK COUNTER*/
 197:C:/Workspace/FW_Inertia/branch_indesit/Inertia/Modules\Maintain.c **** 
 198:C:/Workspace/FW_Inertia/branch_indesit/Inertia/Modules\Maintain.c **** 		if ( (( SWTC_IsExpired((SWTC_CountersType)MP_MAINTAIN_M_COUNTER) ) ))
 171                             		.loc 1 198 0
 172 011a 66 41                   		mov	#4, r1
 173 011c 05 00 00 00             		bsr	_SWTC_IsExpired
 174                             	.LVL16:
 175 0120 61 01                   		cmp	#0, r1
 176 0122 20 13                   		beq	.L16
 199:C:/Workspace/FW_Inertia/branch_indesit/Inertia/Modules\Maintain.c **** 		{/*End counting*/
 200:C:/Workspace/FW_Inertia/branch_indesit/Inertia/Modules\Maintain.c **** 
 201:C:/Workspace/FW_Inertia/branch_indesit/Inertia/Modules\Maintain.c **** 			uP_Maintain_Data.status = MAINTAIN_END;	
 177                             		.loc 1 201 0
 178 0124 3C 70 02                		mov.B	#2, [r7]
 202:C:/Workspace/FW_Inertia/branch_indesit/Inertia/Modules\Maintain.c **** 
 203:C:/Workspace/FW_Inertia/branch_indesit/Inertia/Modules\Maintain.c **** 			SETBIT(Flags_1,JIF_FLAG1_MAINTAIN_TARGET_OK_POS);	
 179                             		.loc 1 203 0
 180 0127 FB 72 00 00 00 00       		mov.L	#_Flags_1, r7
 181 012d CC 7A                   		mov.B	[r7], r10
 182 012f 75 3A 80                		or	#0xffffff80, r10
 183 0132 C3 7A                   		mov.B	r10, [r7]
 184 0134 08                      		bra	.L15
 185                             	.L16:
 204:C:/Workspace/FW_Inertia/branch_indesit/Inertia/Modules\Maintain.c **** 			/*
 205:C:/Workspace/FW_Inertia/branch_indesit/Inertia/Modules\Maintain.c **** 			conteggio concluso-> flag utile per JumpIF
 206:C:/Workspace/FW_Inertia/branch_indesit/Inertia/Modules\Maintain.c **** 			Mantieni utilizzato come Timeout per uscita
 207:C:/Workspace/FW_Inertia/branch_indesit/Inertia/Modules\Maintain.c **** 			dal passo corrente
 208:C:/Workspace/FW_Inertia/branch_indesit/Inertia/Modules\Maintain.c **** 			*/
 209:C:/Workspace/FW_Inertia/branch_indesit/Inertia/Modules\Maintain.c **** 		}
 210:C:/Workspace/FW_Inertia/branch_indesit/Inertia/Modules\Maintain.c **** 		else
 211:C:/Workspace/FW_Inertia/branch_indesit/Inertia/Modules\Maintain.c **** 		{
 212:C:/Workspace/FW_Inertia/branch_indesit/Inertia/Modules\Maintain.c **** 			(void)SWTC_Run((SWTC_CountersType)MP_MAINTAIN_M_COUNTER);
 186                             		.loc 1 212 0
 187 0135 66 41                   		mov	#4, r1
 188 0137 05 00 00 00             		bsr	_SWTC_Run
 189                             	.LVL17:
 190 013b 03                      		.balign 2,3,5
 191                             	.L15:
 213:C:/Workspace/FW_Inertia/branch_indesit/Inertia/Modules\Maintain.c **** 		}
 214:C:/Workspace/FW_Inertia/branch_indesit/Inertia/Modules\Maintain.c **** 
 215:C:/Workspace/FW_Inertia/branch_indesit/Inertia/Modules\Maintain.c **** 	}/*MAINTAIN_EXE*/
 216:C:/Workspace/FW_Inertia/branch_indesit/Inertia/Modules\Maintain.c **** 	
 217:C:/Workspace/FW_Inertia/branch_indesit/Inertia/Modules\Maintain.c **** 	if (uP_Maintain_Data.status == MAINTAIN_END)
 192                             		.loc 1 217 0
 193 013c FB 72 00 00 00 00       		mov.L	#_uP_Maintain_Data, r7
 194 0142 58 77                   		movu.B	[r7], r7
 195 0144 61 27                   		cmp	#2, r7
 196 0146 21 0E                   		bne	.L20
 218:C:/Workspace/FW_Inertia/branch_indesit/Inertia/Modules\Maintain.c **** 	{
 219:C:/Workspace/FW_Inertia/branch_indesit/Inertia/Modules\Maintain.c **** 		(void)SWTC_Stop((SWTC_CountersType)MP_MAINTAIN_M_COUNTER);
 197                             		.loc 1 219 0
 198 0148 66 41                   		mov	#4, r1
 199 014a 05 00 00 00             		bsr	_SWTC_Stop
 200                             	.LVL18:
 220:C:/Workspace/FW_Inertia/branch_indesit/Inertia/Modules\Maintain.c **** 
 221:C:/Workspace/FW_Inertia/branch_indesit/Inertia/Modules\Maintain.c **** 		return S_OK;
 201                             		.loc 1 221 0
 202 014e 66 01                   		mov	#0, r1
 203 0150 0E                      		bra	.L4
 204                             	.L17:
 119:C:/Workspace/FW_Inertia/branch_indesit/Inertia/Modules\Maintain.c **** 			return S_OK;			
 205                             		.loc 1 119 0
 206 0151 CF 71                   		mov.B	r7, r1
 207 0153 0B                      		bra	.L4
 208                             	.L20:
 222:C:/Workspace/FW_Inertia/branch_indesit/Inertia/Modules\Maintain.c **** 
 223:C:/Workspace/FW_Inertia/branch_indesit/Inertia/Modules\Maintain.c **** 	}/*MAINTAIN_TRUE*/
 224:C:/Workspace/FW_Inertia/branch_indesit/Inertia/Modules\Maintain.c **** 
 225:C:/Workspace/FW_Inertia/branch_indesit/Inertia/Modules\Maintain.c **** 	return S_FALSE;
 209                             		.loc 1 225 0
 210 0154 66 11                   		mov	#1, r1
 211                             		.balign 2,3,1
 212                             	.L4:
 226:C:/Workspace/FW_Inertia/branch_indesit/Inertia/Modules\Maintain.c **** }
 213                             		.loc 1 226 0
 214 0156 5B 11                   		movu.B	r1, r1
 215 0158 3F 7A 07                		rtsd	#28, r7-r10
 216                             	.LFE0:
 260                             	.Letext0:
 261                             		.file 2 "C:\\Workspace\\FW_Inertia\\branch_indesit\\HAL\\HAL_General/StandardTypes.h"
 262                             		.file 3 "C:\\Workspace\\FW_Inertia\\branch_indesit\\ProductModules\\PM_SwTimersCounters/SwTimersCo
 263                             		.file 4 "C:\\Workspace\\FW_Inertia\\branch_indesit\\ProductModules\\PM_Library/LIB_Utilities.h"
 264                             		.file 5 "C:\\Workspace\\FW_Inertia\\branch_indesit\\Application_Platform/APP_Types.h"
 265                             		.file 6 "C:\\Workspace\\FW_Inertia\\branch_indesit\\ProductModules\\PM_BusCOMM/BCP_General.h"
 266                             		.file 7 "C:\\Workspace\\FW_Inertia\\branch_indesit\\Inertia\\General/CstmTypes.h"
 267                             		.file 8 "C:\\Workspace\\FW_Inertia\\branch_indesit\\Inertia\\General/CstmDefines.h"
 268                             		.file 9 "C:\\Workspace\\FW_Inertia\\branch_indesit\\Inertia\\General/CstmGlobal.h"
 269                             		.file 10 "C:\\Workspace\\FW_Inertia\\branch_indesit\\ProductModules\\PM_BusCOMM/BCP_BusCommMng.h"
 270                             		.file 11 "C:\\Workspace\\FW_Inertia\\branch_indesit\\Application_Platform/APP_Global.h"
 271                             		.file 12 "C:\\Workspace\\FW_Inertia\\branch_indesit\\Inertia\\General/CstmFuncLib.h"
 272                             		.file 13 "C:\\Workspace\\FW_Inertia\\branch_indesit\\Application_Platform/APP_FuncLib.h"
 273                             		.file 14 "C:\\Workspace\\FW_Inertia\\branch_indesit\\Inertia\\Modules/Maintain.h"
DEFINED SYMBOLS
                            *ABS*:00000000 Maintain.c
C:\Users\Andrea\AppData\Local\Temp\ccPcAFyz.s:7      .text.MTN_uP_Maintain_Exe:00000000 _MTN_uP_Maintain_Exe
C:\Users\Andrea\AppData\Local\Temp\ccPcAFyz.s:12     .text.MTN_uP_Maintain_Exe:00000000 L0
C:\Users\Andrea\AppData\Local\Temp\ccPcAFyz.s:219    .debug_frame:00000000 .Lframe0
C:\Users\Andrea\AppData\Local\Temp\ccPcAFyz.s:8      .text.MTN_uP_Maintain_Exe:00000000 .LFB0
C:\Users\Andrea\AppData\Local\Temp\ccPcAFyz.s:1227   .debug_abbrev:00000000 .Ldebug_abbrev0
C:\Users\Andrea\AppData\Local\Temp\ccPcAFyz.s:1945   .debug_str:00000387 .LASF132
C:\Users\Andrea\AppData\Local\Temp\ccPcAFyz.s:2077   .debug_str:00000847 .LASF133
C:\Users\Andrea\AppData\Local\Temp\ccPcAFyz.s:1843   .debug_ranges:00000000 .Ldebug_ranges0
C:\Users\Andrea\AppData\Local\Temp\ccPcAFyz.s:1849   .debug_line:00000000 .Ldebug_line0
C:\Users\Andrea\AppData\Local\Temp\ccPcAFyz.s:2047   .debug_str:00000719 .LASF0
C:\Users\Andrea\AppData\Local\Temp\ccPcAFyz.s:1893   .debug_str:000001a2 .LASF2
C:\Users\Andrea\AppData\Local\Temp\ccPcAFyz.s:2023   .debug_str:00000651 .LASF1
C:\Users\Andrea\AppData\Local\Temp\ccPcAFyz.s:1925   .debug_str:000002e0 .LASF3
C:\Users\Andrea\AppData\Local\Temp\ccPcAFyz.s:1963   .debug_str:00000461 .LASF4
C:\Users\Andrea\AppData\Local\Temp\ccPcAFyz.s:2083   .debug_str:000008b2 .LASF5
C:\Users\Andrea\AppData\Local\Temp\ccPcAFyz.s:1957   .debug_str:00000413 .LASF6
C:\Users\Andrea\AppData\Local\Temp\ccPcAFyz.s:2011   .debug_str:000005f3 .LASF7
C:\Users\Andrea\AppData\Local\Temp\ccPcAFyz.s:1915   .debug_str:00000264 .LASF8
C:\Users\Andrea\AppData\Local\Temp\ccPcAFyz.s:1879   .debug_str:0000012e .LASF9
C:\Users\Andrea\AppData\Local\Temp\ccPcAFyz.s:1895   .debug_str:000001aa .LASF10
C:\Users\Andrea\AppData\Local\Temp\ccPcAFyz.s:2099   .debug_str:00000940 .LASF11
C:\Users\Andrea\AppData\Local\Temp\ccPcAFyz.s:2013   .debug_str:000005fb .LASF12
C:\Users\Andrea\AppData\Local\Temp\ccPcAFyz.s:2073   .debug_str:00000820 .LASF13
C:\Users\Andrea\AppData\Local\Temp\ccPcAFyz.s:1897   .debug_str:000001b8 .LASF14
C:\Users\Andrea\AppData\Local\Temp\ccPcAFyz.s:1889   .debug_str:00000194 .LASF15
C:\Users\Andrea\AppData\Local\Temp\ccPcAFyz.s:1891   .debug_str:0000019b .LASF20
C:\Users\Andrea\AppData\Local\Temp\ccPcAFyz.s:1991   .debug_str:00000555 .LASF16
C:\Users\Andrea\AppData\Local\Temp\ccPcAFyz.s:1983   .debug_str:0000051b .LASF17
C:\Users\Andrea\AppData\Local\Temp\ccPcAFyz.s:2107   .debug_str:00000974 .LASF18
C:\Users\Andrea\AppData\Local\Temp\ccPcAFyz.s:1987   .debug_str:00000537 .LASF19
C:\Users\Andrea\AppData\Local\Temp\ccPcAFyz.s:1929   .debug_str:000002f7 .LASF21
C:\Users\Andrea\AppData\Local\Temp\ccPcAFyz.s:2087   .debug_str:000008cd .LASF22
C:\Users\Andrea\AppData\Local\Temp\ccPcAFyz.s:1871   .debug_str:000000d0 .LASF23
C:\Users\Andrea\AppData\Local\Temp\ccPcAFyz.s:2085   .debug_str:000008bb .LASF24
C:\Users\Andrea\AppData\Local\Temp\ccPcAFyz.s:2045   .debug_str:00000714 .LASF25
C:\Users\Andrea\AppData\Local\Temp\ccPcAFyz.s:1859   .debug_str:0000004d .LASF26
C:\Users\Andrea\AppData\Local\Temp\ccPcAFyz.s:2111   .debug_str:0000098a .LASF27
C:\Users\Andrea\AppData\Local\Temp\ccPcAFyz.s:1997   .debug_str:00000586 .LASF28
C:\Users\Andrea\AppData\Local\Temp\ccPcAFyz.s:2025   .debug_str:0000065b .LASF42
C:\Users\Andrea\AppData\Local\Temp\ccPcAFyz.s:1967   .debug_str:0000048f .LASF29
C:\Users\Andrea\AppData\Local\Temp\ccPcAFyz.s:2027   .debug_str:00000663 .LASF30
C:\Users\Andrea\AppData\Local\Temp\ccPcAFyz.s:2071   .debug_str:00000812 .LASF31
C:\Users\Andrea\AppData\Local\Temp\ccPcAFyz.s:1901   .debug_str:000001d1 .LASF65
C:\Users\Andrea\AppData\Local\Temp\ccPcAFyz.s:2035   .debug_str:000006b7 .LASF32
C:\Users\Andrea\AppData\Local\Temp\ccPcAFyz.s:2009   .debug_str:000005dd .LASF33
C:\Users\Andrea\AppData\Local\Temp\ccPcAFyz.s:1931   .debug_str:00000309 .LASF34
C:\Users\Andrea\AppData\Local\Temp\ccPcAFyz.s:1943   .debug_str:00000372 .LASF35
C:\Users\Andrea\AppData\Local\Temp\ccPcAFyz.s:1911   .debug_str:00000249 .LASF36
C:\Users\Andrea\AppData\Local\Temp\ccPcAFyz.s:1921   .debug_str:000002a3 .LASF37
C:\Users\Andrea\AppData\Local\Temp\ccPcAFyz.s:2005   .debug_str:000005ba .LASF38
C:\Users\Andrea\AppData\Local\Temp\ccPcAFyz.s:1953   .debug_str:000003e3 .LASF39
C:\Users\Andrea\AppData\Local\Temp\ccPcAFyz.s:2039   .debug_str:000006e5 .LASF40
C:\Users\Andrea\AppData\Local\Temp\ccPcAFyz.s:1973   .debug_str:000004ce .LASF41
C:\Users\Andrea\AppData\Local\Temp\ccPcAFyz.s:1971   .debug_str:000004ba .LASF43
C:\Users\Andrea\AppData\Local\Temp\ccPcAFyz.s:1935   .debug_str:0000033a .LASF44
C:\Users\Andrea\AppData\Local\Temp\ccPcAFyz.s:1939   .debug_str:0000035e .LASF45
C:\Users\Andrea\AppData\Local\Temp\ccPcAFyz.s:1913   .debug_str:0000025e .LASF46
C:\Users\Andrea\AppData\Local\Temp\ccPcAFyz.s:2101   .debug_str:00000948 .LASF47
C:\Users\Andrea\AppData\Local\Temp\ccPcAFyz.s:1907   .debug_str:0000022a .LASF48
C:\Users\Andrea\AppData\Local\Temp\ccPcAFyz.s:2021   .debug_str:0000063b .LASF49
C:\Users\Andrea\AppData\Local\Temp\ccPcAFyz.s:1855   .debug_str:00000025 .LASF50
C:\Users\Andrea\AppData\Local\Temp\ccPcAFyz.s:1919   .debug_str:00000291 .LASF51
C:\Users\Andrea\AppData\Local\Temp\ccPcAFyz.s:2057   .debug_str:0000076b .LASF52
C:\Users\Andrea\AppData\Local\Temp\ccPcAFyz.s:2113   .debug_str:0000099c .LASF53
C:\Users\Andrea\AppData\Local\Temp\ccPcAFyz.s:1989   .debug_str:00000540 .LASF54
C:\Users\Andrea\AppData\Local\Temp\ccPcAFyz.s:2049   .debug_str:00000726 .LASF55
C:\Users\Andrea\AppData\Local\Temp\ccPcAFyz.s:1909   .debug_str:00000236 .LASF56
C:\Users\Andrea\AppData\Local\Temp\ccPcAFyz.s:1851   .debug_str:00000000 .LASF57
C:\Users\Andrea\AppData\Local\Temp\ccPcAFyz.s:2069   .debug_str:000007fe .LASF58
C:\Users\Andrea\AppData\Local\Temp\ccPcAFyz.s:2093   .debug_str:00000900 .LASF59
C:\Users\Andrea\AppData\Local\Temp\ccPcAFyz.s:2031   .debug_str:00000695 .LASF60
C:\Users\Andrea\AppData\Local\Temp\ccPcAFyz.s:2103   .debug_str:00000958 .LASF61
C:\Users\Andrea\AppData\Local\Temp\ccPcAFyz.s:2079   .debug_str:00000889 .LASF62
C:\Users\Andrea\AppData\Local\Temp\ccPcAFyz.s:2043   .debug_str:0000070c .LASF63
C:\Users\Andrea\AppData\Local\Temp\ccPcAFyz.s:1865   .debug_str:00000088 .LASF64
C:\Users\Andrea\AppData\Local\Temp\ccPcAFyz.s:2007   .debug_str:000005cf .LASF66
C:\Users\Andrea\AppData\Local\Temp\ccPcAFyz.s:2017   .debug_str:00000618 .LASF67
C:\Users\Andrea\AppData\Local\Temp\ccPcAFyz.s:1873   .debug_str:000000d8 .LASF68
C:\Users\Andrea\AppData\Local\Temp\ccPcAFyz.s:1875   .debug_str:000000f2 .LASF69
C:\Users\Andrea\AppData\Local\Temp\ccPcAFyz.s:2003   .debug_str:000005a7 .LASF70
C:\Users\Andrea\AppData\Local\Temp\ccPcAFyz.s:1917   .debug_str:0000026d .LASF71
C:\Users\Andrea\AppData\Local\Temp\ccPcAFyz.s:1853   .debug_str:00000011 .LASF72
C:\Users\Andrea\AppData\Local\Temp\ccPcAFyz.s:2091   .debug_str:000008eb .LASF73
C:\Users\Andrea\AppData\Local\Temp\ccPcAFyz.s:1877   .debug_str:0000010c .LASF74
C:\Users\Andrea\AppData\Local\Temp\ccPcAFyz.s:2051   .debug_str:0000072f .LASF75
C:\Users\Andrea\AppData\Local\Temp\ccPcAFyz.s:2115   .debug_str:000009ac .LASF76
C:\Users\Andrea\AppData\Local\Temp\ccPcAFyz.s:2059   .debug_str:00000783 .LASF77
C:\Users\Andrea\AppData\Local\Temp\ccPcAFyz.s:1863   .debug_str:00000070 .LASF78
C:\Users\Andrea\AppData\Local\Temp\ccPcAFyz.s:1933   .debug_str:0000031f .LASF79
C:\Users\Andrea\AppData\Local\Temp\ccPcAFyz.s:1883   .debug_str:0000014b .LASF80
C:\Users\Andrea\AppData\Local\Temp\ccPcAFyz.s:2081   .debug_str:00000895 .LASF81
C:\Users\Andrea\AppData\Local\Temp\ccPcAFyz.s:1955   .debug_str:000003f9 .LASF82
C:\Users\Andrea\AppData\Local\Temp\ccPcAFyz.s:1959   .debug_str:00000425 .LASF83
C:\Users\Andrea\AppData\Local\Temp\ccPcAFyz.s:2097   .debug_str:00000926 .LASF84
C:\Users\Andrea\AppData\Local\Temp\ccPcAFyz.s:2037   .debug_str:000006cc .LASF85
C:\Users\Andrea\AppData\Local\Temp\ccPcAFyz.s:2075   .debug_str:00000827 .LASF86
C:\Users\Andrea\AppData\Local\Temp\ccPcAFyz.s:2065   .debug_str:000007cd .LASF87
C:\Users\Andrea\AppData\Local\Temp\ccPcAFyz.s:2119   .debug_str:000009d6 .LASF88
C:\Users\Andrea\AppData\Local\Temp\ccPcAFyz.s:1867   .debug_str:0000009b .LASF89
C:\Users\Andrea\AppData\Local\Temp\ccPcAFyz.s:2063   .debug_str:000007b5 .LASF90
C:\Users\Andrea\AppData\Local\Temp\ccPcAFyz.s:1861   .debug_str:00000060 .LASF91
C:\Users\Andrea\AppData\Local\Temp\ccPcAFyz.s:2055   .debug_str:00000753 .LASF92
C:\Users\Andrea\AppData\Local\Temp\ccPcAFyz.s:1995   .debug_str:00000570 .LASF93
C:\Users\Andrea\AppData\Local\Temp\ccPcAFyz.s:1951   .debug_str:000003cb .LASF94
C:\Users\Andrea\AppData\Local\Temp\ccPcAFyz.s:2061   .debug_str:0000079e .LASF95
C:\Users\Andrea\AppData\Local\Temp\ccPcAFyz.s:2095   .debug_str:00000907 .LASF96
C:\Users\Andrea\AppData\Local\Temp\ccPcAFyz.s:1857   .debug_str:00000031 .LASF97
C:\Users\Andrea\AppData\Local\Temp\ccPcAFyz.s:2105   .debug_str:0000095e .LASF98
C:\Users\Andrea\AppData\Local\Temp\ccPcAFyz.s:1993   .debug_str:0000055a .LASF99
C:\Users\Andrea\AppData\Local\Temp\ccPcAFyz.s:2033   .debug_str:000006a2 .LASF100
C:\Users\Andrea\AppData\Local\Temp\ccPcAFyz.s:1961   .debug_str:0000044a .LASF101
C:\Users\Andrea\AppData\Local\Temp\ccPcAFyz.s:1905   .debug_str:00000206 .LASF102
C:\Users\Andrea\AppData\Local\Temp\ccPcAFyz.s:1885   .debug_str:00000165 .LASF103
C:\Users\Andrea\AppData\Local\Temp\ccPcAFyz.s:1903   .debug_str:000001e3 .LASF104
C:\Users\Andrea\AppData\Local\Temp\ccPcAFyz.s:2041   .debug_str:000006ee .LASF105
C:\Users\Andrea\AppData\Local\Temp\ccPcAFyz.s:1869   .debug_str:000000b3 .LASF106
C:\Users\Andrea\AppData\Local\Temp\ccPcAFyz.s:2089   .debug_str:000008d2 .LASF107
C:\Users\Andrea\AppData\Local\Temp\ccPcAFyz.s:1923   .debug_str:000002b9 .LASF108
C:\Users\Andrea\AppData\Local\Temp\ccPcAFyz.s:1927   .debug_str:000002e9 .LASF109
C:\Users\Andrea\AppData\Local\Temp\ccPcAFyz.s:1977   .debug_str:000004e1 .LASF110
C:\Users\Andrea\AppData\Local\Temp\ccPcAFyz.s:1887   .debug_str:00000187 .LASF111
C:\Users\Andrea\AppData\Local\Temp\ccPcAFyz.s:1975   .debug_str:000004d4 .LASF112
C:\Users\Andrea\AppData\Local\Temp\ccPcAFyz.s:2029   .debug_str:00000681 .LASF134
C:\Users\Andrea\AppData\Local\Temp\ccPcAFyz.s:216    .text.MTN_uP_Maintain_Exe:0000015b .LFE0
C:\Users\Andrea\AppData\Local\Temp\ccPcAFyz.s:1739   .debug_loc:00000000 .LLST0
C:\Users\Andrea\AppData\Local\Temp\ccPcAFyz.s:1941   .debug_str:00000364 .LASF113
C:\Users\Andrea\AppData\Local\Temp\ccPcAFyz.s:1757   .debug_loc:0000002c .LLST1
C:\Users\Andrea\AppData\Local\Temp\ccPcAFyz.s:1947   .debug_str:000003ad .LASF114
C:\Users\Andrea\AppData\Local\Temp\ccPcAFyz.s:1782   .debug_loc:00000066 .LLST2
C:\Users\Andrea\AppData\Local\Temp\ccPcAFyz.s:1807   .debug_loc:000000a0 .LLST3
C:\Users\Andrea\AppData\Local\Temp\ccPcAFyz.s:1999   .debug_str:00000599 .LASF115
C:\Users\Andrea\AppData\Local\Temp\ccPcAFyz.s:1881   .debug_str:00000145 .LASF116
C:\Users\Andrea\AppData\Local\Temp\ccPcAFyz.s:1814   .debug_loc:000000b3 .LLST4
C:\Users\Andrea\AppData\Local\Temp\ccPcAFyz.s:1965   .debug_str:00000474 .LASF117
C:\Users\Andrea\AppData\Local\Temp\ccPcAFyz.s:43     .text.MTN_uP_Maintain_Exe:00000037 .LVL3
C:\Users\Andrea\AppData\Local\Temp\ccPcAFyz.s:58     .text.MTN_uP_Maintain_Exe:00000056 .LVL6
C:\Users\Andrea\AppData\Local\Temp\ccPcAFyz.s:81     .text.MTN_uP_Maintain_Exe:00000084 .LVL7
C:\Users\Andrea\AppData\Local\Temp\ccPcAFyz.s:101    .text.MTN_uP_Maintain_Exe:000000a4 .LVL9
C:\Users\Andrea\AppData\Local\Temp\ccPcAFyz.s:118    .text.MTN_uP_Maintain_Exe:000000c0 .LVL11
C:\Users\Andrea\AppData\Local\Temp\ccPcAFyz.s:161    .text.MTN_uP_Maintain_Exe:0000010a .LVL15
C:\Users\Andrea\AppData\Local\Temp\ccPcAFyz.s:174    .text.MTN_uP_Maintain_Exe:00000120 .LVL16
C:\Users\Andrea\AppData\Local\Temp\ccPcAFyz.s:189    .text.MTN_uP_Maintain_Exe:0000013b .LVL17
C:\Users\Andrea\AppData\Local\Temp\ccPcAFyz.s:200    .text.MTN_uP_Maintain_Exe:0000014e .LVL18
C:\Users\Andrea\AppData\Local\Temp\ccPcAFyz.s:2053   .debug_str:0000074b .LASF118
C:\Users\Andrea\AppData\Local\Temp\ccPcAFyz.s:1969   .debug_str:000004a9 .LASF119
C:\Users\Andrea\AppData\Local\Temp\ccPcAFyz.s:2019   .debug_str:0000062e .LASF120
C:\Users\Andrea\AppData\Local\Temp\ccPcAFyz.s:1979   .debug_str:000004ee .LASF121
C:\Users\Andrea\AppData\Local\Temp\ccPcAFyz.s:1949   .debug_str:000003ba .LASF122
C:\Users\Andrea\AppData\Local\Temp\ccPcAFyz.s:1899   .debug_str:000001c4 .LASF123
C:\Users\Andrea\AppData\Local\Temp\ccPcAFyz.s:2109   .debug_str:00000982 .LASF124
C:\Users\Andrea\AppData\Local\Temp\ccPcAFyz.s:2117   .debug_str:000009cc .LASF129
C:\Users\Andrea\AppData\Local\Temp\ccPcAFyz.s:2121   .debug_str:000009f4 .LASF125
C:\Users\Andrea\AppData\Local\Temp\ccPcAFyz.s:1985   .debug_str:00000526 .LASF126
C:\Users\Andrea\AppData\Local\Temp\ccPcAFyz.s:1937   .debug_str:00000348 .LASF127
C:\Users\Andrea\AppData\Local\Temp\ccPcAFyz.s:1981   .debug_str:00000506 .LASF128
C:\Users\Andrea\AppData\Local\Temp\ccPcAFyz.s:2067   .debug_str:000007ec .LASF130
C:\Users\Andrea\AppData\Local\Temp\ccPcAFyz.s:2015   .debug_str:00000609 .LASF131
C:\Users\Andrea\AppData\Local\Temp\ccPcAFyz.s:2001   .debug_str:0000059e .LASF135
C:\Users\Andrea\AppData\Local\Temp\ccPcAFyz.s:13     .text.MTN_uP_Maintain_Exe:00000002 .LCFI0
C:\Users\Andrea\AppData\Local\Temp\ccPcAFyz.s:15     .text.MTN_uP_Maintain_Exe:00000004 .LCFI1
C:\Users\Andrea\AppData\Local\Temp\ccPcAFyz.s:11     .text.MTN_uP_Maintain_Exe:00000000 .LVL0
C:\Users\Andrea\AppData\Local\Temp\ccPcAFyz.s:41     .text.MTN_uP_Maintain_Exe:00000033 .LVL2
C:\Users\Andrea\AppData\Local\Temp\ccPcAFyz.s:45     .text.MTN_uP_Maintain_Exe:0000003a .LVL4
C:\Users\Andrea\AppData\Local\Temp\ccPcAFyz.s:55     .text.MTN_uP_Maintain_Exe:0000004c .LVL5
C:\Users\Andrea\AppData\Local\Temp\ccPcAFyz.s:89     .text.MTN_uP_Maintain_Exe:0000008f .LVL8
C:\Users\Andrea\AppData\Local\Temp\ccPcAFyz.s:104    .text.MTN_uP_Maintain_Exe:000000a8 .LVL10
C:\Users\Andrea\AppData\Local\Temp\ccPcAFyz.s:122    .text.MTN_uP_Maintain_Exe:000000c6 .LVL12
C:\Users\Andrea\AppData\Local\Temp\ccPcAFyz.s:145    .text.MTN_uP_Maintain_Exe:000000ee .LVL13
C:\Users\Andrea\AppData\Local\Temp\ccPcAFyz.s:151    .text.MTN_uP_Maintain_Exe:000000f8 .LVL14
C:\Users\Andrea\AppData\Local\Temp\ccPcAFyz.s:275    .debug_info:00000000 .Ldebug_info0

UNDEFINED SYMBOLS
_Interpreter_Data
_uP_Maintain_Data
_CurrentFault
_uPDoorStatus
_SWTC_Stop
_uPMaintain_setting_data
_BasicLoader
_GetModifierValue
_GetDeltaFromVariation
_LIB_CAL_GetCalibData
_Set_MediumCounter
_SWTC_IsExpired
_Flags_1
_SWTC_Run
