   1                             		.file	"notify.c"
   2                             		.section P,"ax"
   3                             	.Ltext0:
   4                             		.section	.text.notifyEvent,"ax",@progbits
   5                             		.global	_notifyEvent
   7                             	_notifyEvent:
   8                             	.LFB0:
   9                             		.file 1 "C:/Workspace/FW_Inertia/branch_indesit/PlatformLibrary/LIB_notify/notify.c"
   1:C:/Workspace/FW_Inertia/branch_indesit/PlatformLibrary/LIB_notify\notify.c **** /*
   2:C:/Workspace/FW_Inertia/branch_indesit/PlatformLibrary/LIB_notify\notify.c **** Copyright (c) 2004-2005, Indesit Company, EDT.
   3:C:/Workspace/FW_Inertia/branch_indesit/PlatformLibrary/LIB_notify\notify.c **** Tutti i diritti sono riservati. All rights reserved.
   4:C:/Workspace/FW_Inertia/branch_indesit/PlatformLibrary/LIB_notify\notify.c **** */
   5:C:/Workspace/FW_Inertia/branch_indesit/PlatformLibrary/LIB_notify\notify.c **** 
   6:C:/Workspace/FW_Inertia/branch_indesit/PlatformLibrary/LIB_notify\notify.c **** 
   7:C:/Workspace/FW_Inertia/branch_indesit/PlatformLibrary/LIB_notify\notify.c **** 
   8:C:/Workspace/FW_Inertia/branch_indesit/PlatformLibrary/LIB_notify\notify.c **** /**
   9:C:/Workspace/FW_Inertia/branch_indesit/PlatformLibrary/LIB_notify\notify.c **** \par	  Lib gestione sottoscrizione e notfica eventi
  10:C:/Workspace/FW_Inertia/branch_indesit/PlatformLibrary/LIB_notify\notify.c **** \n	    Il file contiene le funzioni per gestire la sottoscrizione alla ricezione di un evento e per
  11:C:/Workspace/FW_Inertia/branch_indesit/PlatformLibrary/LIB_notify\notify.c **** \n      la notifica dell'evento.
  12:C:/Workspace/FW_Inertia/branch_indesit/PlatformLibrary/LIB_notify\notify.c **** \n
  13:C:/Workspace/FW_Inertia/branch_indesit/PlatformLibrary/LIB_notify\notify.c **** \file		notify.c
  14:C:/Workspace/FW_Inertia/branch_indesit/PlatformLibrary/LIB_notify\notify.c **** \ingroup       LIB_Notify
  15:C:/Workspace/FW_Inertia/branch_indesit/PlatformLibrary/LIB_notify\notify.c **** \date	    20/09/2011
  16:C:/Workspace/FW_Inertia/branch_indesit/PlatformLibrary/LIB_notify\notify.c **** \version	01.00.00
  17:C:/Workspace/FW_Inertia/branch_indesit/PlatformLibrary/LIB_notify\notify.c **** \author		Marco Sperandini
  18:C:/Workspace/FW_Inertia/branch_indesit/PlatformLibrary/LIB_notify\notify.c **** \n
  19:C:/Workspace/FW_Inertia/branch_indesit/PlatformLibrary/LIB_notify\notify.c **** \n
  20:C:/Workspace/FW_Inertia/branch_indesit/PlatformLibrary/LIB_notify\notify.c **** \par	History:
  21:C:/Workspace/FW_Inertia/branch_indesit/PlatformLibrary/LIB_notify\notify.c **** \n
  22:C:/Workspace/FW_Inertia/branch_indesit/PlatformLibrary/LIB_notify\notify.c **** \n 		01.00.00
  23:C:/Workspace/FW_Inertia/branch_indesit/PlatformLibrary/LIB_notify\notify.c **** \n		20/09/2011
  24:C:/Workspace/FW_Inertia/branch_indesit/PlatformLibrary/LIB_notify\notify.c **** \n		marco.sperandini
  25:C:/Workspace/FW_Inertia/branch_indesit/PlatformLibrary/LIB_notify\notify.c **** \n		changes
  26:C:/Workspace/FW_Inertia/branch_indesit/PlatformLibrary/LIB_notify\notify.c **** \n 			Creation
  27:C:/Workspace/FW_Inertia/branch_indesit/PlatformLibrary/LIB_notify\notify.c **** \n
  28:C:/Workspace/FW_Inertia/branch_indesit/PlatformLibrary/LIB_notify\notify.c **** */
  29:C:/Workspace/FW_Inertia/branch_indesit/PlatformLibrary/LIB_notify\notify.c **** 
  30:C:/Workspace/FW_Inertia/branch_indesit/PlatformLibrary/LIB_notify\notify.c **** #define NULL (0)
  31:C:/Workspace/FW_Inertia/branch_indesit/PlatformLibrary/LIB_notify\notify.c **** #include "notify.h"
  32:C:/Workspace/FW_Inertia/branch_indesit/PlatformLibrary/LIB_notify\notify.c **** 
  33:C:/Workspace/FW_Inertia/branch_indesit/PlatformLibrary/LIB_notify\notify.c **** 
  34:C:/Workspace/FW_Inertia/branch_indesit/PlatformLibrary/LIB_notify\notify.c **** void notifyEvent( struct SubscriberNode **head, NotifyEvent*  pEvent)
  35:C:/Workspace/FW_Inertia/branch_indesit/PlatformLibrary/LIB_notify\notify.c **** {
  10                             		.loc 1 35 0
  11                             	.LVL0:
  12 0000 6E 7A                   		pushm	r7-r10
  13                             	.LCFI0:
  14 0002 EF 2A                   		mov.L	r2, r10
  36:C:/Workspace/FW_Inertia/branch_indesit/PlatformLibrary/LIB_notify\notify.c ****    if( *head == NULL)
  15                             		.loc 1 36 0
  16 0004 EC 17                   		mov.L	[r1], r7
  17                             	.LVL1:
  18                             		.balign 2,3,1
  19                             	.L12:
  20 0006 61 07                   		cmp	#0, r7
  21 0008 20 16                   		beq	.L1
  22                             	.LVL2:
  23                             	.LBB2:
  37:C:/Workspace/FW_Inertia/branch_indesit/PlatformLibrary/LIB_notify\notify.c ****     {
  38:C:/Workspace/FW_Inertia/branch_indesit/PlatformLibrary/LIB_notify\notify.c ****         return;
  39:C:/Workspace/FW_Inertia/branch_indesit/PlatformLibrary/LIB_notify\notify.c ****     }
  40:C:/Workspace/FW_Inertia/branch_indesit/PlatformLibrary/LIB_notify\notify.c ****     else
  41:C:/Workspace/FW_Inertia/branch_indesit/PlatformLibrary/LIB_notify\notify.c ****     {
  42:C:/Workspace/FW_Inertia/branch_indesit/PlatformLibrary/LIB_notify\notify.c ****         struct SubscriberNode *p = *head;
  43:C:/Workspace/FW_Inertia/branch_indesit/PlatformLibrary/LIB_notify\notify.c **** 
  44:C:/Workspace/FW_Inertia/branch_indesit/PlatformLibrary/LIB_notify\notify.c ****         do
  45:C:/Workspace/FW_Inertia/branch_indesit/PlatformLibrary/LIB_notify\notify.c ****         {
  46:C:/Workspace/FW_Inertia/branch_indesit/PlatformLibrary/LIB_notify\notify.c ****         	if( p->event.type == pEvent->type){
  24                             		.loc 1 46 0
  25 000a B8 F4                   		movu.W	4[r7], r4
  26 000c 06 C4 A4                		cmp	[r10].UW, r4
  27 000f 21 0B                   		bne	.L3
  47:C:/Workspace/FW_Inertia/branch_indesit/PlatformLibrary/LIB_notify\notify.c ****         		if( p->callback != NULL)
  28                             		.loc 1 47 0
  29 0011 EC 7E                   		mov.L	[r7], r14
  30 0013 61 0E                   		cmp	#0, r14
  31 0015 15                      		beq	.L3
  48:C:/Workspace/FW_Inertia/branch_indesit/PlatformLibrary/LIB_notify\notify.c ****         			p->callback( pEvent );
  32                             		.loc 1 48 0
  33 0016 EF A1                   		mov.L	r10, r1
  34 0018 7F 1E                   		jsr	r14
  35                             	.LVL3:
  36                             		.balign 2,3,1
  37                             	.L3:
  49:C:/Workspace/FW_Inertia/branch_indesit/PlatformLibrary/LIB_notify\notify.c ****         	}
  50:C:/Workspace/FW_Inertia/branch_indesit/PlatformLibrary/LIB_notify\notify.c ****             p = p->next;
  38                             		.loc 1 50 0
  39 001a A8 F7                   		mov.L	8[r7], r7
  40                             	.LVL4:
  41 001c 2E EA                   		bra	.L12
  42                             	.LVL5:
  43                             	.L1:
  44                             	.LBE2:
  51:C:/Workspace/FW_Inertia/branch_indesit/PlatformLibrary/LIB_notify\notify.c ****         }
  52:C:/Workspace/FW_Inertia/branch_indesit/PlatformLibrary/LIB_notify\notify.c ****         while(p != NULL);
  53:C:/Workspace/FW_Inertia/branch_indesit/PlatformLibrary/LIB_notify\notify.c ****     }
  54:C:/Workspace/FW_Inertia/branch_indesit/PlatformLibrary/LIB_notify\notify.c **** }
  45                             		.loc 1 54 0
  46 001e 3F 7A 04                		rtsd	#16, r7-r10
  47                             	.LFE0:
  49 0021 03                      		.section	.text.subscribe,"ax",@progbits
  50                             		.global	_subscribe
  52                             	_subscribe:
  53                             	.LFB1:
  55:C:/Workspace/FW_Inertia/branch_indesit/PlatformLibrary/LIB_notify\notify.c **** #ifdef NOTIFY_PRIORITY
  56:C:/Workspace/FW_Inertia/branch_indesit/PlatformLibrary/LIB_notify\notify.c **** void subscribe( struct SubscriberNode **head, struct SubscriberNode *node)
  57:C:/Workspace/FW_Inertia/branch_indesit/PlatformLibrary/LIB_notify\notify.c **** {
  54                             		.loc 1 57 0
  55                             	.LVL6:
  58:C:/Workspace/FW_Inertia/branch_indesit/PlatformLibrary/LIB_notify\notify.c ****     node->next = NULL;
  56                             		.loc 1 58 0
  57 0000 3E 22 00                		mov.L	#0, 8[r2]
  59:C:/Workspace/FW_Inertia/branch_indesit/PlatformLibrary/LIB_notify\notify.c **** 
  60:C:/Workspace/FW_Inertia/branch_indesit/PlatformLibrary/LIB_notify\notify.c ****     if( *head == NULL)
  58                             		.loc 1 60 0
  59 0003 EC 1E                   		mov.L	[r1], r14
  60 0005 61 0E                   		cmp	#0, r14
  61 0007 1B                      		bne	.L14
  62 0008 2E 0C                   		bra	.L22
  63                             	.L14:
  64                             	.LVL7:
  65                             	.LBB3:
  61:C:/Workspace/FW_Inertia/branch_indesit/PlatformLibrary/LIB_notify\notify.c ****     {
  62:C:/Workspace/FW_Inertia/branch_indesit/PlatformLibrary/LIB_notify\notify.c ****         *head = node;
  63:C:/Workspace/FW_Inertia/branch_indesit/PlatformLibrary/LIB_notify\notify.c ****     }
  64:C:/Workspace/FW_Inertia/branch_indesit/PlatformLibrary/LIB_notify\notify.c ****     else
  65:C:/Workspace/FW_Inertia/branch_indesit/PlatformLibrary/LIB_notify\notify.c ****     {
  66:C:/Workspace/FW_Inertia/branch_indesit/PlatformLibrary/LIB_notify\notify.c ****         struct SubscriberNode *p = *head;
  67:C:/Workspace/FW_Inertia/branch_indesit/PlatformLibrary/LIB_notify\notify.c **** 
  68:C:/Workspace/FW_Inertia/branch_indesit/PlatformLibrary/LIB_notify\notify.c ****         if( node->priority > p->priority)
  66                             		.loc 1 68 0
  67 000a B3 24                   		movu.B	12[r2], r4
  68 000c 45 E4 0C                		cmp	12[r14].UB, r4
  69 000f 25 0B                   		bleu	.L18
  69:C:/Workspace/FW_Inertia/branch_indesit/PlatformLibrary/LIB_notify\notify.c ****         {/* inserimento in testa*/
  70:C:/Workspace/FW_Inertia/branch_indesit/PlatformLibrary/LIB_notify\notify.c ****             node->next = *head;
  70                             		.loc 1 70 0
  71 0011 E7 2E 02                		mov.L	r14, 8[r2]
  72                             	.LVL8:
  73                             		.balign 2,3,1
  74                             	.L22:
  71:C:/Workspace/FW_Inertia/branch_indesit/PlatformLibrary/LIB_notify\notify.c ****             *head = node;
  75                             		.loc 1 71 0
  76 0014 E3 12                   		mov.L	r2, [r1]
  72:C:/Workspace/FW_Inertia/branch_indesit/PlatformLibrary/LIB_notify\notify.c ****             return;
  77                             		.loc 1 72 0
  78 0016 02                      		rts
  79                             	.LVL9:
  80                             	.L20:
  73:C:/Workspace/FW_Inertia/branch_indesit/PlatformLibrary/LIB_notify\notify.c ****         }
  74:C:/Workspace/FW_Inertia/branch_indesit/PlatformLibrary/LIB_notify\notify.c ****         while(p->next != NULL
  75:C:/Workspace/FW_Inertia/branch_indesit/PlatformLibrary/LIB_notify\notify.c ****               && node->priority <= p->priority
  76:C:/Workspace/FW_Inertia/branch_indesit/PlatformLibrary/LIB_notify\notify.c ****               )
  77:C:/Workspace/FW_Inertia/branch_indesit/PlatformLibrary/LIB_notify\notify.c ****         {
  78:C:/Workspace/FW_Inertia/branch_indesit/PlatformLibrary/LIB_notify\notify.c ****             p = p->next;
  81                             		.loc 1 78 0
  82 0017 EF 4E                   		mov.L	r4, r14
  83                             	.LVL10:
  84 0019 0B                      		bra	.L21
  85                             	.LVL11:
  86                             	.L18:
  75:C:/Workspace/FW_Inertia/branch_indesit/PlatformLibrary/LIB_notify\notify.c ****               && node->priority <= p->priority
  87                             		.loc 1 75 0 discriminator 1
  88 001a EF 41                   		mov.L	r4, r1
  89                             	.LVL12:
  90                             		.balign 2,3,1
  91                             	.L21:
  74:C:/Workspace/FW_Inertia/branch_indesit/PlatformLibrary/LIB_notify\notify.c ****         while(p->next != NULL
  92                             		.loc 1 74 0 discriminator 1
  93 001c ED E4 02                		mov.L	8[r14], r4
  94 001f 61 04                   		cmp	#0, r4
  95 0021 1D                      		bne	.L17
  96                             		.balign 2,3,5
  97                             	.L19:
  79:C:/Workspace/FW_Inertia/branch_indesit/PlatformLibrary/LIB_notify\notify.c ****         }
  80:C:/Workspace/FW_Inertia/branch_indesit/PlatformLibrary/LIB_notify\notify.c ****         p->next = node;
  98                             		.loc 1 80 0
  99 0022 E7 E2 02                		mov.L	r2, 8[r14]
 100 0025 02                      		rts
 101                             	.L17:
  75:C:/Workspace/FW_Inertia/branch_indesit/PlatformLibrary/LIB_notify\notify.c ****               && node->priority <= p->priority
 102                             		.loc 1 75 0
 103 0026 45 E1 0C                		cmp	12[r14].UB, r1
 104 0029 25 EE                   		bleu	.L20
 105 002b 2E F7                   		bra	.L19
 106                             	.LBE3:
 107                             	.LFE1:
 109 002d 03                      		.section	.text.unSubscribe,"ax",@progbits
 110                             		.global	_unSubscribe
 112                             	_unSubscribe:
 113                             	.LFB2:
  81:C:/Workspace/FW_Inertia/branch_indesit/PlatformLibrary/LIB_notify\notify.c ****     }
  82:C:/Workspace/FW_Inertia/branch_indesit/PlatformLibrary/LIB_notify\notify.c **** }
  83:C:/Workspace/FW_Inertia/branch_indesit/PlatformLibrary/LIB_notify\notify.c **** 
  84:C:/Workspace/FW_Inertia/branch_indesit/PlatformLibrary/LIB_notify\notify.c **** #else
  85:C:/Workspace/FW_Inertia/branch_indesit/PlatformLibrary/LIB_notify\notify.c **** // INSERISCE IN CODA
  86:C:/Workspace/FW_Inertia/branch_indesit/PlatformLibrary/LIB_notify\notify.c **** void subscribe( struct SubscriberNode **head, struct SubscriberNode *node)
  87:C:/Workspace/FW_Inertia/branch_indesit/PlatformLibrary/LIB_notify\notify.c **** {
  88:C:/Workspace/FW_Inertia/branch_indesit/PlatformLibrary/LIB_notify\notify.c ****     node->next = NULL;
  89:C:/Workspace/FW_Inertia/branch_indesit/PlatformLibrary/LIB_notify\notify.c ****     
  90:C:/Workspace/FW_Inertia/branch_indesit/PlatformLibrary/LIB_notify\notify.c ****     if( *head == NULL)
  91:C:/Workspace/FW_Inertia/branch_indesit/PlatformLibrary/LIB_notify\notify.c ****     {
  92:C:/Workspace/FW_Inertia/branch_indesit/PlatformLibrary/LIB_notify\notify.c ****         *head = node;
  93:C:/Workspace/FW_Inertia/branch_indesit/PlatformLibrary/LIB_notify\notify.c ****     }
  94:C:/Workspace/FW_Inertia/branch_indesit/PlatformLibrary/LIB_notify\notify.c ****     else
  95:C:/Workspace/FW_Inertia/branch_indesit/PlatformLibrary/LIB_notify\notify.c ****     {
  96:C:/Workspace/FW_Inertia/branch_indesit/PlatformLibrary/LIB_notify\notify.c ****         struct SubscriberNode *p = *head;
  97:C:/Workspace/FW_Inertia/branch_indesit/PlatformLibrary/LIB_notify\notify.c **** 
  98:C:/Workspace/FW_Inertia/branch_indesit/PlatformLibrary/LIB_notify\notify.c ****         while(p->next != NULL)
  99:C:/Workspace/FW_Inertia/branch_indesit/PlatformLibrary/LIB_notify\notify.c ****         {
 100:C:/Workspace/FW_Inertia/branch_indesit/PlatformLibrary/LIB_notify\notify.c ****             p = p->next;
 101:C:/Workspace/FW_Inertia/branch_indesit/PlatformLibrary/LIB_notify\notify.c ****         }
 102:C:/Workspace/FW_Inertia/branch_indesit/PlatformLibrary/LIB_notify\notify.c ****         p->next = node;
 103:C:/Workspace/FW_Inertia/branch_indesit/PlatformLibrary/LIB_notify\notify.c ****     }
 104:C:/Workspace/FW_Inertia/branch_indesit/PlatformLibrary/LIB_notify\notify.c **** }
 105:C:/Workspace/FW_Inertia/branch_indesit/PlatformLibrary/LIB_notify\notify.c **** #endif /* NOTIFY_PRIORITY */
 106:C:/Workspace/FW_Inertia/branch_indesit/PlatformLibrary/LIB_notify\notify.c **** 
 107:C:/Workspace/FW_Inertia/branch_indesit/PlatformLibrary/LIB_notify\notify.c **** 
 108:C:/Workspace/FW_Inertia/branch_indesit/PlatformLibrary/LIB_notify\notify.c **** int unSubscribe( struct SubscriberNode **head, struct SubscriberNode *node)
 109:C:/Workspace/FW_Inertia/branch_indesit/PlatformLibrary/LIB_notify\notify.c **** {
 114                             		.loc 1 109 0
 115                             	.LVL13:
 110:C:/Workspace/FW_Inertia/branch_indesit/PlatformLibrary/LIB_notify\notify.c ****     if( *head == NULL)
 116                             		.loc 1 110 0
 117 0000 EC 1E                   		mov.L	[r1], r14
 118 0002 61 0E                   		cmp	#0, r14
 119 0004 20 1C                   		beq	.L31
 120                             	.LVL14:
 121                             	.LBB4:
 111:C:/Workspace/FW_Inertia/branch_indesit/PlatformLibrary/LIB_notify\notify.c ****     {
 112:C:/Workspace/FW_Inertia/branch_indesit/PlatformLibrary/LIB_notify\notify.c ****         return 1;
 113:C:/Workspace/FW_Inertia/branch_indesit/PlatformLibrary/LIB_notify\notify.c ****     }
 114:C:/Workspace/FW_Inertia/branch_indesit/PlatformLibrary/LIB_notify\notify.c ****     else
 115:C:/Workspace/FW_Inertia/branch_indesit/PlatformLibrary/LIB_notify\notify.c ****     {
 116:C:/Workspace/FW_Inertia/branch_indesit/PlatformLibrary/LIB_notify\notify.c ****         struct SubscriberNode *p = *head;
 117:C:/Workspace/FW_Inertia/branch_indesit/PlatformLibrary/LIB_notify\notify.c **** 
 118:C:/Workspace/FW_Inertia/branch_indesit/PlatformLibrary/LIB_notify\notify.c ****         if( *head == node){ /* rimozione in testa*/
 122                             		.loc 1 118 0
 123 0006 47 2E                   		cmp	r2, r14
 124 0008 21 0C                   		bne	.L30
 119:C:/Workspace/FW_Inertia/branch_indesit/PlatformLibrary/LIB_notify\notify.c ****             *head = p->next;
 125                             		.loc 1 119 0
 126 000a E1 E1 02                		mov.L	8[r14], [r1]
 127 000d 2E 13                   		bra	.L31
 128                             	.L27:
 120:C:/Workspace/FW_Inertia/branch_indesit/PlatformLibrary/LIB_notify\notify.c ****             return 1;
 121:C:/Workspace/FW_Inertia/branch_indesit/PlatformLibrary/LIB_notify\notify.c ****         }else{
 122:C:/Workspace/FW_Inertia/branch_indesit/PlatformLibrary/LIB_notify\notify.c ****             while( p->next != node  )
 123:C:/Workspace/FW_Inertia/branch_indesit/PlatformLibrary/LIB_notify\notify.c ****             {
 124:C:/Workspace/FW_Inertia/branch_indesit/PlatformLibrary/LIB_notify\notify.c ****                 if( p->next == NULL )
 129                             		.loc 1 124 0
 130 000f 71 4E 00                		add	#0, r4, r14
 131                             	.LVL15:
 132 0012 20 11                   		beq	.L29
 133                             		.balign 2,3,1
 134                             	.L30:
 135                             	.LVL16:
 122:C:/Workspace/FW_Inertia/branch_indesit/PlatformLibrary/LIB_notify\notify.c ****             while( p->next != node  )
 136                             		.loc 1 122 0 discriminator 1
 137 0014 ED E4 02                		mov.L	8[r14], r4
 138 0017 47 24                   		cmp	r2, r4
 139 0019 21 F6                   		bne	.L27
 125:C:/Workspace/FW_Inertia/branch_indesit/PlatformLibrary/LIB_notify\notify.c ****                     return 0;
 126:C:/Workspace/FW_Inertia/branch_indesit/PlatformLibrary/LIB_notify\notify.c **** 
 127:C:/Workspace/FW_Inertia/branch_indesit/PlatformLibrary/LIB_notify\notify.c ****                 p = p->next;
 128:C:/Workspace/FW_Inertia/branch_indesit/PlatformLibrary/LIB_notify\notify.c ****             }
 129:C:/Workspace/FW_Inertia/branch_indesit/PlatformLibrary/LIB_notify\notify.c **** 
 130:C:/Workspace/FW_Inertia/branch_indesit/PlatformLibrary/LIB_notify\notify.c ****             p->next = p->next->next;
 140                             		.loc 1 130 0
 141 001b E5 2E 02 02             		mov.L	8[r2], 8[r14]
 142                             	.LVL17:
 143 001f 03                      		.balign 2,3,1
 144                             	.L31:
 131:C:/Workspace/FW_Inertia/branch_indesit/PlatformLibrary/LIB_notify\notify.c ****             return 1;
 145                             		.loc 1 131 0
 146 0020 66 11                   		mov.L	#1, r1
 147                             	.LVL18:
 148 0022 02                      		rts
 149                             	.LVL19:
 150                             	.L29:
 125:C:/Workspace/FW_Inertia/branch_indesit/PlatformLibrary/LIB_notify\notify.c ****                     return 0;
 151                             		.loc 1 125 0
 152 0023 EF E1                   		mov.L	r14, r1
 153                             	.LVL20:
 154                             	.LBE4:
 132:C:/Workspace/FW_Inertia/branch_indesit/PlatformLibrary/LIB_notify\notify.c ****         }
 133:C:/Workspace/FW_Inertia/branch_indesit/PlatformLibrary/LIB_notify\notify.c ****     }
 134:C:/Workspace/FW_Inertia/branch_indesit/PlatformLibrary/LIB_notify\notify.c ****     /*lint -e{527} Warning 527:*/
 135:C:/Workspace/FW_Inertia/branch_indesit/PlatformLibrary/LIB_notify\notify.c ****     return 0;
 136:C:/Workspace/FW_Inertia/branch_indesit/PlatformLibrary/LIB_notify\notify.c **** 
 137:C:/Workspace/FW_Inertia/branch_indesit/PlatformLibrary/LIB_notify\notify.c **** }
 155                             		.loc 1 137 0
 156 0025 02                      		rts
 157                             	.LFE2:
 159                             		.section	.text.isSubscribed,"ax",@progbits
 160                             		.global	_isSubscribed
 162                             	_isSubscribed:
 163                             	.LFB3:
 138:C:/Workspace/FW_Inertia/branch_indesit/PlatformLibrary/LIB_notify\notify.c **** 
 139:C:/Workspace/FW_Inertia/branch_indesit/PlatformLibrary/LIB_notify\notify.c **** int isSubscribed(struct SubscriberNode **head, struct SubscriberNode *node)
 140:C:/Workspace/FW_Inertia/branch_indesit/PlatformLibrary/LIB_notify\notify.c **** {
 164                             		.loc 1 140 0
 165                             	.LVL21:
 141:C:/Workspace/FW_Inertia/branch_indesit/PlatformLibrary/LIB_notify\notify.c ****     if( *head != NULL)
 166                             		.loc 1 141 0
 167 0000 EC 11                   		mov.L	[r1], r1
 168                             	.LVL22:
 169 0002 61 01                   		cmp	#0, r1
 170 0004 20 0E                   		beq	.L33
 171                             		.balign 2,3,1
 172                             	.L37:
 173                             	.LVL23:
 174                             	.LBB5:
 142:C:/Workspace/FW_Inertia/branch_indesit/PlatformLibrary/LIB_notify\notify.c ****     {
 143:C:/Workspace/FW_Inertia/branch_indesit/PlatformLibrary/LIB_notify\notify.c ****         struct SubscriberNode *p = *head;
 144:C:/Workspace/FW_Inertia/branch_indesit/PlatformLibrary/LIB_notify\notify.c ****         do
 145:C:/Workspace/FW_Inertia/branch_indesit/PlatformLibrary/LIB_notify\notify.c ****         {
 146:C:/Workspace/FW_Inertia/branch_indesit/PlatformLibrary/LIB_notify\notify.c ****             if( p == node)
 175                             		.loc 1 146 0
 176 0006 47 21                   		cmp	r2, r1
 177 0008 10                      		beq	.L36
 147:C:/Workspace/FW_Inertia/branch_indesit/PlatformLibrary/LIB_notify\notify.c ****                 return 1;
 148:C:/Workspace/FW_Inertia/branch_indesit/PlatformLibrary/LIB_notify\notify.c **** 
 149:C:/Workspace/FW_Inertia/branch_indesit/PlatformLibrary/LIB_notify\notify.c ****             p = p->next;
 178                             		.loc 1 149 0
 179 0009 A8 91                   		mov.L	8[r1], r1
 180                             	.LVL24:
 150:C:/Workspace/FW_Inertia/branch_indesit/PlatformLibrary/LIB_notify\notify.c ****         }
 151:C:/Workspace/FW_Inertia/branch_indesit/PlatformLibrary/LIB_notify\notify.c ****         while(p != NULL);
 181                             		.loc 1 151 0
 182 000b 61 01                   		cmp	#0, r1
 183 000d 21 F9                   		bne	.L37
 184 000f 02                      		rts
 185                             	.L36:
 147:C:/Workspace/FW_Inertia/branch_indesit/PlatformLibrary/LIB_notify\notify.c ****                 return 1;
 186                             		.loc 1 147 0
 187 0010 66 11                   		mov.L	#1, r1
 188                             	.LVL25:
 189                             	.L33:
 190                             	.LBE5:
 152:C:/Workspace/FW_Inertia/branch_indesit/PlatformLibrary/LIB_notify\notify.c ****     }
 153:C:/Workspace/FW_Inertia/branch_indesit/PlatformLibrary/LIB_notify\notify.c ****     return 0;
 154:C:/Workspace/FW_Inertia/branch_indesit/PlatformLibrary/LIB_notify\notify.c **** }
 191                             		.loc 1 154 0
 192 0012 02                      		rts
 193                             	.LFE3:
 257                             	.Letext0:
 258                             		.file 2 "C:\\Workspace\\FW_Inertia\\branch_indesit\\HAL\\HAL_General/StandardTypes.h"
 259                             		.file 3 "C:/Workspace/FW_Inertia/branch_indesit/PlatformLibrary/LIB_notify/notify.h"
DEFINED SYMBOLS
                            *ABS*:00000000 notify.c
C:\Users\Andrea\AppData\Local\Temp\ccmbzRYf.s:7      .text.notifyEvent:00000000 _notifyEvent
C:\Users\Andrea\AppData\Local\Temp\ccmbzRYf.s:12     .text.notifyEvent:00000000 L0
C:\Users\Andrea\AppData\Local\Temp\ccmbzRYf.s:52     .text.subscribe:00000000 _subscribe
C:\Users\Andrea\AppData\Local\Temp\ccmbzRYf.s:57     .text.subscribe:00000000 L0
C:\Users\Andrea\AppData\Local\Temp\ccmbzRYf.s:112    .text.unSubscribe:00000000 _unSubscribe
C:\Users\Andrea\AppData\Local\Temp\ccmbzRYf.s:117    .text.unSubscribe:00000000 L0
C:\Users\Andrea\AppData\Local\Temp\ccmbzRYf.s:162    .text.isSubscribed:00000000 _isSubscribed
C:\Users\Andrea\AppData\Local\Temp\ccmbzRYf.s:167    .text.isSubscribed:00000000 L0
C:\Users\Andrea\AppData\Local\Temp\ccmbzRYf.s:196    .debug_frame:00000000 .Lframe0
C:\Users\Andrea\AppData\Local\Temp\ccmbzRYf.s:8      .text.notifyEvent:00000000 .LFB0
C:\Users\Andrea\AppData\Local\Temp\ccmbzRYf.s:53     .text.subscribe:00000000 .LFB1
C:\Users\Andrea\AppData\Local\Temp\ccmbzRYf.s:113    .text.unSubscribe:00000000 .LFB2
C:\Users\Andrea\AppData\Local\Temp\ccmbzRYf.s:163    .text.isSubscribed:00000000 .LFB3
C:\Users\Andrea\AppData\Local\Temp\ccmbzRYf.s:561    .debug_abbrev:00000000 .Ldebug_abbrev0
C:\Users\Andrea\AppData\Local\Temp\ccmbzRYf.s:1066   .debug_str:000000bf .LASF24
C:\Users\Andrea\AppData\Local\Temp\ccmbzRYf.s:1074   .debug_str:000000ff .LASF25
C:\Users\Andrea\AppData\Local\Temp\ccmbzRYf.s:1020   .debug_ranges:00000000 .Ldebug_ranges0
C:\Users\Andrea\AppData\Local\Temp\ccmbzRYf.s:1032   .debug_line:00000000 .Ldebug_line0
C:\Users\Andrea\AppData\Local\Temp\ccmbzRYf.s:1082   .debug_str:00000164 .LASF0
C:\Users\Andrea\AppData\Local\Temp\ccmbzRYf.s:1080   .debug_str:0000015b .LASF10
C:\Users\Andrea\AppData\Local\Temp\ccmbzRYf.s:1052   .debug_str:00000070 .LASF1
C:\Users\Andrea\AppData\Local\Temp\ccmbzRYf.s:1048   .debug_str:00000047 .LASF2
C:\Users\Andrea\AppData\Local\Temp\ccmbzRYf.s:1070   .debug_str:000000f1 .LASF3
C:\Users\Andrea\AppData\Local\Temp\ccmbzRYf.s:1050   .debug_str:00000059 .LASF4
C:\Users\Andrea\AppData\Local\Temp\ccmbzRYf.s:1034   .debug_str:00000000 .LASF5
C:\Users\Andrea\AppData\Local\Temp\ccmbzRYf.s:1060   .debug_str:0000009b .LASF6
C:\Users\Andrea\AppData\Local\Temp\ccmbzRYf.s:1076   .debug_str:0000014a .LASF7
C:\Users\Andrea\AppData\Local\Temp\ccmbzRYf.s:1086   .debug_str:0000017a .LASF8
C:\Users\Andrea\AppData\Local\Temp\ccmbzRYf.s:1088   .debug_str:00000187 .LASF9
C:\Users\Andrea\AppData\Local\Temp\ccmbzRYf.s:1068   .debug_str:000000e5 .LASF11
C:\Users\Andrea\AppData\Local\Temp\ccmbzRYf.s:1038   .debug_str:00000015 .LASF13
C:\Users\Andrea\AppData\Local\Temp\ccmbzRYf.s:1040   .debug_str:0000001a .LASF12
C:\Users\Andrea\AppData\Local\Temp\ccmbzRYf.s:1044   .debug_str:00000033 .LASF26
C:\Users\Andrea\AppData\Local\Temp\ccmbzRYf.s:1058   .debug_str:00000092 .LASF14
C:\Users\Andrea\AppData\Local\Temp\ccmbzRYf.s:1056   .debug_str:0000008c .LASF15
C:\Users\Andrea\AppData\Local\Temp\ccmbzRYf.s:1078   .debug_str:00000156 .LASF16
C:\Users\Andrea\AppData\Local\Temp\ccmbzRYf.s:1054   .debug_str:00000083 .LASF17
C:\Users\Andrea\AppData\Local\Temp\ccmbzRYf.s:1064   .debug_str:000000b3 .LASF20
C:\Users\Andrea\AppData\Local\Temp\ccmbzRYf.s:47     .text.notifyEvent:00000021 .LFE0
C:\Users\Andrea\AppData\Local\Temp\ccmbzRYf.s:859    .debug_loc:00000000 .LLST0
C:\Users\Andrea\AppData\Local\Temp\ccmbzRYf.s:1046   .debug_str:00000042 .LASF18
C:\Users\Andrea\AppData\Local\Temp\ccmbzRYf.s:872    .debug_loc:00000020 .LLST1
C:\Users\Andrea\AppData\Local\Temp\ccmbzRYf.s:1036   .debug_str:0000000e .LASF19
C:\Users\Andrea\AppData\Local\Temp\ccmbzRYf.s:886    .debug_loc:00000041 .LLST2
C:\Users\Andrea\AppData\Local\Temp\ccmbzRYf.s:23     .text.notifyEvent:0000000a .LBB2
C:\Users\Andrea\AppData\Local\Temp\ccmbzRYf.s:44     .text.notifyEvent:0000001e .LBE2
C:\Users\Andrea\AppData\Local\Temp\ccmbzRYf.s:897    .debug_loc:0000005f .LLST3
C:\Users\Andrea\AppData\Local\Temp\ccmbzRYf.s:35     .text.notifyEvent:0000001a .LVL3
C:\Users\Andrea\AppData\Local\Temp\ccmbzRYf.s:1062   .debug_str:000000a9 .LASF21
C:\Users\Andrea\AppData\Local\Temp\ccmbzRYf.s:107    .text.subscribe:0000002d .LFE1
C:\Users\Andrea\AppData\Local\Temp\ccmbzRYf.s:904    .debug_loc:00000072 .LLST4
C:\Users\Andrea\AppData\Local\Temp\ccmbzRYf.s:1072   .debug_str:000000fa .LASF22
C:\Users\Andrea\AppData\Local\Temp\ccmbzRYf.s:65     .text.subscribe:0000000a .LBB3
C:\Users\Andrea\AppData\Local\Temp\ccmbzRYf.s:106    .text.subscribe:0000002d .LBE3
C:\Users\Andrea\AppData\Local\Temp\ccmbzRYf.s:929    .debug_loc:000000ac .LLST5
C:\Users\Andrea\AppData\Local\Temp\ccmbzRYf.s:1084   .debug_str:0000016e .LASF27
C:\Users\Andrea\AppData\Local\Temp\ccmbzRYf.s:157    .text.unSubscribe:00000026 .LFE2
C:\Users\Andrea\AppData\Local\Temp\ccmbzRYf.s:944    .debug_loc:000000d5 .LLST6
C:\Users\Andrea\AppData\Local\Temp\ccmbzRYf.s:121    .text.unSubscribe:00000006 .LBB4
C:\Users\Andrea\AppData\Local\Temp\ccmbzRYf.s:154    .text.unSubscribe:00000025 .LBE4
C:\Users\Andrea\AppData\Local\Temp\ccmbzRYf.s:969    .debug_loc:0000010f .LLST7
C:\Users\Andrea\AppData\Local\Temp\ccmbzRYf.s:1042   .debug_str:00000026 .LASF23
C:\Users\Andrea\AppData\Local\Temp\ccmbzRYf.s:193    .text.isSubscribed:00000013 .LFE3
C:\Users\Andrea\AppData\Local\Temp\ccmbzRYf.s:980    .debug_loc:0000012d .LLST8
C:\Users\Andrea\AppData\Local\Temp\ccmbzRYf.s:174    .text.isSubscribed:00000006 .LBB5
C:\Users\Andrea\AppData\Local\Temp\ccmbzRYf.s:190    .text.isSubscribed:00000012 .LBE5
C:\Users\Andrea\AppData\Local\Temp\ccmbzRYf.s:994    .debug_loc:0000014e .LLST9
C:\Users\Andrea\AppData\Local\Temp\ccmbzRYf.s:13     .text.notifyEvent:00000002 .LCFI0
C:\Users\Andrea\AppData\Local\Temp\ccmbzRYf.s:11     .text.notifyEvent:00000000 .LVL0
C:\Users\Andrea\AppData\Local\Temp\ccmbzRYf.s:17     .text.notifyEvent:00000006 .LVL1
C:\Users\Andrea\AppData\Local\Temp\ccmbzRYf.s:22     .text.notifyEvent:0000000a .LVL2
C:\Users\Andrea\AppData\Local\Temp\ccmbzRYf.s:42     .text.notifyEvent:0000001e .LVL5
C:\Users\Andrea\AppData\Local\Temp\ccmbzRYf.s:55     .text.subscribe:00000000 .LVL6
C:\Users\Andrea\AppData\Local\Temp\ccmbzRYf.s:79     .text.subscribe:00000017 .LVL9
C:\Users\Andrea\AppData\Local\Temp\ccmbzRYf.s:85     .text.subscribe:0000001a .LVL11
C:\Users\Andrea\AppData\Local\Temp\ccmbzRYf.s:89     .text.subscribe:0000001c .LVL12
C:\Users\Andrea\AppData\Local\Temp\ccmbzRYf.s:64     .text.subscribe:0000000a .LVL7
C:\Users\Andrea\AppData\Local\Temp\ccmbzRYf.s:72     .text.subscribe:00000014 .LVL8
C:\Users\Andrea\AppData\Local\Temp\ccmbzRYf.s:83     .text.subscribe:00000019 .LVL10
C:\Users\Andrea\AppData\Local\Temp\ccmbzRYf.s:115    .text.unSubscribe:00000000 .LVL13
C:\Users\Andrea\AppData\Local\Temp\ccmbzRYf.s:147    .text.unSubscribe:00000022 .LVL18
C:\Users\Andrea\AppData\Local\Temp\ccmbzRYf.s:149    .text.unSubscribe:00000023 .LVL19
C:\Users\Andrea\AppData\Local\Temp\ccmbzRYf.s:153    .text.unSubscribe:00000025 .LVL20
C:\Users\Andrea\AppData\Local\Temp\ccmbzRYf.s:120    .text.unSubscribe:00000006 .LVL14
C:\Users\Andrea\AppData\Local\Temp\ccmbzRYf.s:131    .text.unSubscribe:00000012 .LVL15
C:\Users\Andrea\AppData\Local\Temp\ccmbzRYf.s:135    .text.unSubscribe:00000014 .LVL16
C:\Users\Andrea\AppData\Local\Temp\ccmbzRYf.s:142    .text.unSubscribe:0000001f .LVL17
C:\Users\Andrea\AppData\Local\Temp\ccmbzRYf.s:165    .text.isSubscribed:00000000 .LVL21
C:\Users\Andrea\AppData\Local\Temp\ccmbzRYf.s:168    .text.isSubscribed:00000002 .LVL22
C:\Users\Andrea\AppData\Local\Temp\ccmbzRYf.s:173    .text.isSubscribed:00000006 .LVL23
C:\Users\Andrea\AppData\Local\Temp\ccmbzRYf.s:188    .text.isSubscribed:00000012 .LVL25
C:\Users\Andrea\AppData\Local\Temp\ccmbzRYf.s:261    .debug_info:00000000 .Ldebug_info0

NO UNDEFINED SYMBOLS
