   1                             		.file	"OCIRQ_drv.c"
   2                             		.section P,"ax"
   3                             	.Ltext0:
   4                             		.section	.text.OCIRQ_InitSync,"ax",@progbits
   5                             		.global	_OCIRQ_InitSync
   7                             	_OCIRQ_InitSync:
   8                             	.LFB0:
   9                             		.file 1 "C:/Workspace/FW_Inertia/branch_indesit/Drivers/OCIRQ/OCIRQ_drv.c"
   1:C:/Workspace/FW_Inertia/branch_indesit/Drivers/OCIRQ\OCIRQ_drv.c **** /*
   2:C:/Workspace/FW_Inertia/branch_indesit/Drivers/OCIRQ\OCIRQ_drv.c **** Copyright (c) 2004-2005, Indesit Company, I.D.D..
   3:C:/Workspace/FW_Inertia/branch_indesit/Drivers/OCIRQ\OCIRQ_drv.c **** Tutti i diritti sono riservati. All rights reserved.
   4:C:/Workspace/FW_Inertia/branch_indesit/Drivers/OCIRQ\OCIRQ_drv.c **** */
   5:C:/Workspace/FW_Inertia/branch_indesit/Drivers/OCIRQ\OCIRQ_drv.c **** 
   6:C:/Workspace/FW_Inertia/branch_indesit/Drivers/OCIRQ\OCIRQ_drv.c **** /**
   7:C:/Workspace/FW_Inertia/branch_indesit/Drivers/OCIRQ\OCIRQ_drv.c **** \n
   8:C:/Workspace/FW_Inertia/branch_indesit/Drivers/OCIRQ\OCIRQ_drv.c **** \Par		OCIRQ_drv.c
   9:C:/Workspace/FW_Inertia/branch_indesit/Drivers/OCIRQ\OCIRQ_drv.c **** \n			Implementation of all functions necessary to achieve the aim.
  10:C:/Workspace/FW_Inertia/branch_indesit/Drivers/OCIRQ\OCIRQ_drv.c **** \n
  11:C:/Workspace/FW_Inertia/branch_indesit/Drivers/OCIRQ\OCIRQ_drv.c **** \file		OCIRQ_drv.c
  12:C:/Workspace/FW_Inertia/branch_indesit/Drivers/OCIRQ\OCIRQ_drv.c **** \ingroup	OCIRQ
  13:C:/Workspace/FW_Inertia/branch_indesit/Drivers/OCIRQ\OCIRQ_drv.c **** \date		Nov 30, 2010
  14:C:/Workspace/FW_Inertia/branch_indesit/Drivers/OCIRQ\OCIRQ_drv.c **** \version	01.00.00
  15:C:/Workspace/FW_Inertia/branch_indesit/Drivers/OCIRQ\OCIRQ_drv.c **** \author		stefano.ughi
  16:C:/Workspace/FW_Inertia/branch_indesit/Drivers/OCIRQ\OCIRQ_drv.c **** \n
  17:C:/Workspace/FW_Inertia/branch_indesit/Drivers/OCIRQ\OCIRQ_drv.c **** \n
  18:C:/Workspace/FW_Inertia/branch_indesit/Drivers/OCIRQ\OCIRQ_drv.c **** \Par\b	History:
  19:C:/Workspace/FW_Inertia/branch_indesit/Drivers/OCIRQ\OCIRQ_drv.c **** \n
  20:C:/Workspace/FW_Inertia/branch_indesit/Drivers/OCIRQ\OCIRQ_drv.c **** \n 		01.00.00
  21:C:/Workspace/FW_Inertia/branch_indesit/Drivers/OCIRQ\OCIRQ_drv.c **** \n		Nov 30, 2010
  22:C:/Workspace/FW_Inertia/branch_indesit/Drivers/OCIRQ\OCIRQ_drv.c **** \n		stefano.ughi
  23:C:/Workspace/FW_Inertia/branch_indesit/Drivers/OCIRQ\OCIRQ_drv.c **** \n		changes
  24:C:/Workspace/FW_Inertia/branch_indesit/Drivers/OCIRQ\OCIRQ_drv.c **** \n 			Creation
  25:C:/Workspace/FW_Inertia/branch_indesit/Drivers/OCIRQ\OCIRQ_drv.c **** \n
  26:C:/Workspace/FW_Inertia/branch_indesit/Drivers/OCIRQ\OCIRQ_drv.c **** \n
  27:C:/Workspace/FW_Inertia/branch_indesit/Drivers/OCIRQ\OCIRQ_drv.c **** */
  28:C:/Workspace/FW_Inertia/branch_indesit/Drivers/OCIRQ\OCIRQ_drv.c **** #include "Config.h"
  29:C:/Workspace/FW_Inertia/branch_indesit/Drivers/OCIRQ\OCIRQ_drv.c **** 
  30:C:/Workspace/FW_Inertia/branch_indesit/Drivers/OCIRQ\OCIRQ_drv.c **** /* ******** */
  31:C:/Workspace/FW_Inertia/branch_indesit/Drivers/OCIRQ\OCIRQ_drv.c **** /* Includes */
  32:C:/Workspace/FW_Inertia/branch_indesit/Drivers/OCIRQ\OCIRQ_drv.c **** /* ******** */
  33:C:/Workspace/FW_Inertia/branch_indesit/Drivers/OCIRQ\OCIRQ_drv.c **** #include "OCDIO_drv.h"
  34:C:/Workspace/FW_Inertia/branch_indesit/Drivers/OCIRQ\OCIRQ_drv.c **** #include "OCIRQ_drv.h"
  35:C:/Workspace/FW_Inertia/branch_indesit/Drivers/OCIRQ\OCIRQ_drv.c **** #include "LIB_TaskMonitoring.h"
  36:C:/Workspace/FW_Inertia/branch_indesit/Drivers/OCIRQ\OCIRQ_drv.c **** 
  37:C:/Workspace/FW_Inertia/branch_indesit/Drivers/OCIRQ\OCIRQ_drv.c **** 
  38:C:/Workspace/FW_Inertia/branch_indesit/Drivers/OCIRQ\OCIRQ_drv.c **** #if defined(ZC_IO_MODULE_MAP_SIZE) && defined(ZC_IO_MODULE_MAP_NAME)
  39:C:/Workspace/FW_Inertia/branch_indesit/Drivers/OCIRQ\OCIRQ_drv.c **** 
  40:C:/Workspace/FW_Inertia/branch_indesit/Drivers/OCIRQ\OCIRQ_drv.c **** #if (ZC_IO_MODULE_MAP_SIZE == 0)
  41:C:/Workspace/FW_Inertia/branch_indesit/Drivers/OCIRQ\OCIRQ_drv.c **** 	#error "ZC_IO_MODULE_MAP_SIZE, if defined, must assume values greater than 0. IRQ_cfg.h"
  42:C:/Workspace/FW_Inertia/branch_indesit/Drivers/OCIRQ\OCIRQ_drv.c **** #else   /* (ZC_IO_MODULE_MAP_SIZE == 0) */
  43:C:/Workspace/FW_Inertia/branch_indesit/Drivers/OCIRQ\OCIRQ_drv.c **** 	#include "OCDIO_drv.h"
  44:C:/Workspace/FW_Inertia/branch_indesit/Drivers/OCIRQ\OCIRQ_drv.c **** #endif  /* (ZC_IO_MODULE_MAP_SIZE == 0) */
  45:C:/Workspace/FW_Inertia/branch_indesit/Drivers/OCIRQ\OCIRQ_drv.c **** 
  46:C:/Workspace/FW_Inertia/branch_indesit/Drivers/OCIRQ\OCIRQ_drv.c **** #endif  /* defined(ZC_IO_MODULE_MAP_SIZE) && defined(ZC_IO_MODULE_MAP_NAME) */
  47:C:/Workspace/FW_Inertia/branch_indesit/Drivers/OCIRQ\OCIRQ_drv.c **** 
  48:C:/Workspace/FW_Inertia/branch_indesit/Drivers/OCIRQ\OCIRQ_drv.c **** /* ****************** */
  49:C:/Workspace/FW_Inertia/branch_indesit/Drivers/OCIRQ\OCIRQ_drv.c **** /* Defines and Macros */
  50:C:/Workspace/FW_Inertia/branch_indesit/Drivers/OCIRQ\OCIRQ_drv.c **** /* ****************** */
  51:C:/Workspace/FW_Inertia/branch_indesit/Drivers/OCIRQ\OCIRQ_drv.c **** 
  52:C:/Workspace/FW_Inertia/branch_indesit/Drivers/OCIRQ\OCIRQ_drv.c **** 
  53:C:/Workspace/FW_Inertia/branch_indesit/Drivers/OCIRQ\OCIRQ_drv.c **** /* *************************** */
  54:C:/Workspace/FW_Inertia/branch_indesit/Drivers/OCIRQ\OCIRQ_drv.c **** /* Typedef, Structs and Unions */
  55:C:/Workspace/FW_Inertia/branch_indesit/Drivers/OCIRQ\OCIRQ_drv.c **** /* *************************** */
  56:C:/Workspace/FW_Inertia/branch_indesit/Drivers/OCIRQ\OCIRQ_drv.c **** 
  57:C:/Workspace/FW_Inertia/branch_indesit/Drivers/OCIRQ\OCIRQ_drv.c **** 
  58:C:/Workspace/FW_Inertia/branch_indesit/Drivers/OCIRQ\OCIRQ_drv.c **** /* ********* */
  59:C:/Workspace/FW_Inertia/branch_indesit/Drivers/OCIRQ\OCIRQ_drv.c **** /* Variables */
  60:C:/Workspace/FW_Inertia/branch_indesit/Drivers/OCIRQ\OCIRQ_drv.c **** /* ********* */
  61:C:/Workspace/FW_Inertia/branch_indesit/Drivers/OCIRQ\OCIRQ_drv.c **** 
  62:C:/Workspace/FW_Inertia/branch_indesit/Drivers/OCIRQ\OCIRQ_drv.c **** /* Global */
  63:C:/Workspace/FW_Inertia/branch_indesit/Drivers/OCIRQ\OCIRQ_drv.c **** #if defined(ZC_IO_MODULE_MAP_SIZE) && defined(ZC_IO_MODULE_MAP_NAME)
  64:C:/Workspace/FW_Inertia/branch_indesit/Drivers/OCIRQ\OCIRQ_drv.c **** extern const IO_ModuleIOMapType ZC_IO_MODULE_MAP_NAME[ZC_IO_MODULE_MAP_SIZE];
  65:C:/Workspace/FW_Inertia/branch_indesit/Drivers/OCIRQ\OCIRQ_drv.c **** #endif /* defined(ZC_IO_MODULE_MAP_SIZE) && defined(ZC_IO_MODULE_MAP_NAME)*/
  66:C:/Workspace/FW_Inertia/branch_indesit/Drivers/OCIRQ\OCIRQ_drv.c **** /* Static */
  67:C:/Workspace/FW_Inertia/branch_indesit/Drivers/OCIRQ\OCIRQ_drv.c **** /** callback called inside ISR */
  68:C:/Workspace/FW_Inertia/branch_indesit/Drivers/OCIRQ\OCIRQ_drv.c **** #if defined(CONFIG_OCIRQ_STATIC_CFG) && !defined(CONFIG_LIB_ZC_ON_ICU)
  69:C:/Workspace/FW_Inertia/branch_indesit/Drivers/OCIRQ\OCIRQ_drv.c **** 		#define IRQ_Callback OCIRQ_CALLBACK
  70:C:/Workspace/FW_Inertia/branch_indesit/Drivers/OCIRQ\OCIRQ_drv.c **** #else
  71:C:/Workspace/FW_Inertia/branch_indesit/Drivers/OCIRQ\OCIRQ_drv.c **** static Comm_Notification IRQ_Callback= (Comm_Notification)NULL;
  72:C:/Workspace/FW_Inertia/branch_indesit/Drivers/OCIRQ\OCIRQ_drv.c **** #endif
  73:C:/Workspace/FW_Inertia/branch_indesit/Drivers/OCIRQ\OCIRQ_drv.c **** /* ******************* */
  74:C:/Workspace/FW_Inertia/branch_indesit/Drivers/OCIRQ\OCIRQ_drv.c **** /* Functions Prototype */
  75:C:/Workspace/FW_Inertia/branch_indesit/Drivers/OCIRQ\OCIRQ_drv.c **** /* ******************* */
  76:C:/Workspace/FW_Inertia/branch_indesit/Drivers/OCIRQ\OCIRQ_drv.c **** 
  77:C:/Workspace/FW_Inertia/branch_indesit/Drivers/OCIRQ\OCIRQ_drv.c **** /* Exported function */
  78:C:/Workspace/FW_Inertia/branch_indesit/Drivers/OCIRQ\OCIRQ_drv.c **** /* Local Function */
  79:C:/Workspace/FW_Inertia/branch_indesit/Drivers/OCIRQ\OCIRQ_drv.c **** static bool_t IRQ_IsValid(bool_t edge);
  80:C:/Workspace/FW_Inertia/branch_indesit/Drivers/OCIRQ\OCIRQ_drv.c **** 
  81:C:/Workspace/FW_Inertia/branch_indesit/Drivers/OCIRQ\OCIRQ_drv.c **** /* *************** */
  82:C:/Workspace/FW_Inertia/branch_indesit/Drivers/OCIRQ\OCIRQ_drv.c **** /* Function Bodies */
  83:C:/Workspace/FW_Inertia/branch_indesit/Drivers/OCIRQ\OCIRQ_drv.c **** /* *************** */
  84:C:/Workspace/FW_Inertia/branch_indesit/Drivers/OCIRQ\OCIRQ_drv.c **** 
  85:C:/Workspace/FW_Inertia/branch_indesit/Drivers/OCIRQ\OCIRQ_drv.c **** /* Exported function */
  86:C:/Workspace/FW_Inertia/branch_indesit/Drivers/OCIRQ\OCIRQ_drv.c **** /**
  87:C:/Workspace/FW_Inertia/branch_indesit/Drivers/OCIRQ\OCIRQ_drv.c **** IRQ Input Initialization. This function performs IRQ setup according to the properties defined
  88:C:/Workspace/FW_Inertia/branch_indesit/Drivers/OCIRQ\OCIRQ_drv.c **** \n in IRQ_cfg.h.
  89:C:/Workspace/FW_Inertia/branch_indesit/Drivers/OCIRQ\OCIRQ_drv.c **** \n Call this function at reset.
  90:C:/Workspace/FW_Inertia/branch_indesit/Drivers/OCIRQ\OCIRQ_drv.c **** 
  91:C:/Workspace/FW_Inertia/branch_indesit/Drivers/OCIRQ\OCIRQ_drv.c **** \param  [in]  callback used to notify user about IRQ event
  92:C:/Workspace/FW_Inertia/branch_indesit/Drivers/OCIRQ\OCIRQ_drv.c **** 
  93:C:/Workspace/FW_Inertia/branch_indesit/Drivers/OCIRQ\OCIRQ_drv.c **** \return 	IO_ErrorType
  94:C:/Workspace/FW_Inertia/branch_indesit/Drivers/OCIRQ\OCIRQ_drv.c **** \retval		IO_E_OK
  95:C:/Workspace/FW_Inertia/branch_indesit/Drivers/OCIRQ\OCIRQ_drv.c **** 
  96:C:/Workspace/FW_Inertia/branch_indesit/Drivers/OCIRQ\OCIRQ_drv.c **** \par Architecture Requirements ID: SARS_WMMT_MN_DrvIRQ_2
  97:C:/Workspace/FW_Inertia/branch_indesit/Drivers/OCIRQ\OCIRQ_drv.c **** */
  98:C:/Workspace/FW_Inertia/branch_indesit/Drivers/OCIRQ\OCIRQ_drv.c **** IO_ErrorType OCIRQ_InitSync(Comm_Notification callback)
  99:C:/Workspace/FW_Inertia/branch_indesit/Drivers/OCIRQ\OCIRQ_drv.c **** {
  10                             		.loc 1 99 0
  11                             	.LVL0:
 100:C:/Workspace/FW_Inertia/branch_indesit/Drivers/OCIRQ\OCIRQ_drv.c **** #if !defined(CONFIG_OCIRQ_STATIC_CFG)
 101:C:/Workspace/FW_Inertia/branch_indesit/Drivers/OCIRQ\OCIRQ_drv.c **** 	IRQ_Callback = callback;
  12                             		.loc 1 101 0
  13 0000 FB E2 00 00 00 00       		mov.L	#_IRQ_Callback, r14
  14 0006 E3 E1                   		mov.L	r1, [r14]
 102:C:/Workspace/FW_Inertia/branch_indesit/Drivers/OCIRQ\OCIRQ_drv.c **** #endif
 103:C:/Workspace/FW_Inertia/branch_indesit/Drivers/OCIRQ\OCIRQ_drv.c **** #if defined(ZC_IO_MODULE_MAP_SIZE)
 104:C:/Workspace/FW_Inertia/branch_indesit/Drivers/OCIRQ\OCIRQ_drv.c ****     OCDIO_SetIOMapPinDirValueSync((IO_ModuleIOMapType*)&ZC_IO_MODULE_MAP_NAME[0], 0, 1);
 105:C:/Workspace/FW_Inertia/branch_indesit/Drivers/OCIRQ\OCIRQ_drv.c **** #endif /* defined(ZC_IO_MODULE_MAP_SIZE) */
 106:C:/Workspace/FW_Inertia/branch_indesit/Drivers/OCIRQ\OCIRQ_drv.c **** 	
 107:C:/Workspace/FW_Inertia/branch_indesit/Drivers/OCIRQ\OCIRQ_drv.c **** 	IRQ_Init(IRQ_ZC_ID);
  15                             		.loc 1 107 0
  16 0008 66 01                   		mov	#0, r1
  17                             	.LVL1:
  18 000a 05 00 00 00             		bsr	_IRQ_Init
  19                             	.LVL2:
 108:C:/Workspace/FW_Inertia/branch_indesit/Drivers/OCIRQ\OCIRQ_drv.c **** 
 109:C:/Workspace/FW_Inertia/branch_indesit/Drivers/OCIRQ\OCIRQ_drv.c **** #if (DIO_DIGITAL_FILTER_IS_AVAILABLE == TRUE) && defined(ZC_PIN_IDX) && defined(DIGITAL_FILTER_CLOC
 110:C:/Workspace/FW_Inertia/branch_indesit/Drivers/OCIRQ\OCIRQ_drv.c **** 	OCDIO_SetIODigitalFilterPinSync(ZC_PIN_IDX);
  20                             		.loc 1 110 0
  21 000e 75 41 1B                		mov	#27, r1
  22 0011 05 00 00 00             		bsr	_OCDIO_SetIODigitalFilterPinSync
  23                             	.LVL3:
 111:C:/Workspace/FW_Inertia/branch_indesit/Drivers/OCIRQ\OCIRQ_drv.c **** 	OCDIO_SetIODigitalFilterFrequencySync(ZC_PIN_IDX, DIGITAL_FILTER_CLOCK_IRQ);
  24                             		.loc 1 111 0
  25 0015 75 41 1B                		mov	#27, r1
  26 0018 FB 2A C4 09             		mov	#0x9c4, r2
  27 001c 05 00 00 00             		bsr	_OCDIO_SetIODigitalFilterFrequencySync
  28                             	.LVL4:
 112:C:/Workspace/FW_Inertia/branch_indesit/Drivers/OCIRQ\OCIRQ_drv.c **** #endif
 113:C:/Workspace/FW_Inertia/branch_indesit/Drivers/OCIRQ\OCIRQ_drv.c **** 	return (IO_ErrorType)IO_E_OK;
 114:C:/Workspace/FW_Inertia/branch_indesit/Drivers/OCIRQ\OCIRQ_drv.c **** }
  29                             		.loc 1 114 0
  30 0020 66 01                   		mov.L	#0, r1
  31 0022 02                      		rts
  32                             	.LFE0:
  34                             		.section	.text.OCIRQ_SetEdgeSync,"ax",@progbits
  35                             		.global	_OCIRQ_SetEdgeSync
  37                             	_OCIRQ_SetEdgeSync:
  38                             	.LFB1:
 115:C:/Workspace/FW_Inertia/branch_indesit/Drivers/OCIRQ\OCIRQ_drv.c **** /**
 116:C:/Workspace/FW_Inertia/branch_indesit/Drivers/OCIRQ\OCIRQ_drv.c **** This function sets the edge for IRQ interrupt.
 117:C:/Workspace/FW_Inertia/branch_indesit/Drivers/OCIRQ\OCIRQ_drv.c **** 
 118:C:/Workspace/FW_Inertia/branch_indesit/Drivers/OCIRQ\OCIRQ_drv.c **** \param  [in]	edge possibles values are:
 119:C:/Workspace/FW_Inertia/branch_indesit/Drivers/OCIRQ\OCIRQ_drv.c **** \li IRQ_ON_NEGATIVE_EDGE
 120:C:/Workspace/FW_Inertia/branch_indesit/Drivers/OCIRQ\OCIRQ_drv.c **** \li IRQ_ON_POSITIVE_EDGE
 121:C:/Workspace/FW_Inertia/branch_indesit/Drivers/OCIRQ\OCIRQ_drv.c **** 
 122:C:/Workspace/FW_Inertia/branch_indesit/Drivers/OCIRQ\OCIRQ_drv.c **** \return 	IO_ErrorType
 123:C:/Workspace/FW_Inertia/branch_indesit/Drivers/OCIRQ\OCIRQ_drv.c **** \retval		IO_E_OK
 124:C:/Workspace/FW_Inertia/branch_indesit/Drivers/OCIRQ\OCIRQ_drv.c **** 
 125:C:/Workspace/FW_Inertia/branch_indesit/Drivers/OCIRQ\OCIRQ_drv.c **** \par Architecture Requirements ID: SARS_WMMT_MN_DrvADC_2
 126:C:/Workspace/FW_Inertia/branch_indesit/Drivers/OCIRQ\OCIRQ_drv.c **** */
 127:C:/Workspace/FW_Inertia/branch_indesit/Drivers/OCIRQ\OCIRQ_drv.c **** 
 128:C:/Workspace/FW_Inertia/branch_indesit/Drivers/OCIRQ\OCIRQ_drv.c **** IO_ErrorType OCIRQ_SetEdgeSync(bool_t edge)
 129:C:/Workspace/FW_Inertia/branch_indesit/Drivers/OCIRQ\OCIRQ_drv.c **** {
  39                             		.loc 1 129 0
  40                             	.LVL5:
 130:C:/Workspace/FW_Inertia/branch_indesit/Drivers/OCIRQ\OCIRQ_drv.c **** 	IRQ_SetEdge(edge, IRQ_ZC_ID);
  41                             		.loc 1 130 0
  42 0000 66 02                   		mov	#0, r2
  43 0002 05 00 00 00             		bsr	_IRQ_SetEdge
  44                             	.LVL6:
 131:C:/Workspace/FW_Inertia/branch_indesit/Drivers/OCIRQ\OCIRQ_drv.c **** 	return (IO_ErrorType)IO_E_OK;
 132:C:/Workspace/FW_Inertia/branch_indesit/Drivers/OCIRQ\OCIRQ_drv.c **** }
  45                             		.loc 1 132 0
  46 0006 66 01                   		mov.L	#0, r1
  47 0008 02                      		rts
  48                             	.LFE1:
  50                             		.section	.text.OCIRQ_IntrptEnableSync,"ax",@progbits
  51                             		.global	_OCIRQ_IntrptEnableSync
  53                             	_OCIRQ_IntrptEnableSync:
  54                             	.LFB2:
 133:C:/Workspace/FW_Inertia/branch_indesit/Drivers/OCIRQ\OCIRQ_drv.c **** /**
 134:C:/Workspace/FW_Inertia/branch_indesit/Drivers/OCIRQ\OCIRQ_drv.c **** This function Enables/Disables IRQ interrupt.
 135:C:/Workspace/FW_Inertia/branch_indesit/Drivers/OCIRQ\OCIRQ_drv.c **** 
 136:C:/Workspace/FW_Inertia/branch_indesit/Drivers/OCIRQ\OCIRQ_drv.c **** \param  [in]	enable possibles values are:
 137:C:/Workspace/FW_Inertia/branch_indesit/Drivers/OCIRQ\OCIRQ_drv.c **** \li TRUE enable
 138:C:/Workspace/FW_Inertia/branch_indesit/Drivers/OCIRQ\OCIRQ_drv.c **** \li FALSE disable
 139:C:/Workspace/FW_Inertia/branch_indesit/Drivers/OCIRQ\OCIRQ_drv.c **** 
 140:C:/Workspace/FW_Inertia/branch_indesit/Drivers/OCIRQ\OCIRQ_drv.c **** \return 	IO_ErrorType
 141:C:/Workspace/FW_Inertia/branch_indesit/Drivers/OCIRQ\OCIRQ_drv.c **** \retval		IO_E_OK
 142:C:/Workspace/FW_Inertia/branch_indesit/Drivers/OCIRQ\OCIRQ_drv.c **** 
 143:C:/Workspace/FW_Inertia/branch_indesit/Drivers/OCIRQ\OCIRQ_drv.c **** \par Architecture Requirements ID: SARS_WMMT_MN_DrvADC_2
 144:C:/Workspace/FW_Inertia/branch_indesit/Drivers/OCIRQ\OCIRQ_drv.c **** */
 145:C:/Workspace/FW_Inertia/branch_indesit/Drivers/OCIRQ\OCIRQ_drv.c **** 
 146:C:/Workspace/FW_Inertia/branch_indesit/Drivers/OCIRQ\OCIRQ_drv.c **** IO_ErrorType OCIRQ_IntrptEnableSync(bool_t enable)
 147:C:/Workspace/FW_Inertia/branch_indesit/Drivers/OCIRQ\OCIRQ_drv.c **** {
  55                             		.loc 1 147 0
  56                             	.LVL7:
 148:C:/Workspace/FW_Inertia/branch_indesit/Drivers/OCIRQ\OCIRQ_drv.c **** 	IRQ_IntEnable(enable, IRQ_ZC_ID);
  57                             		.loc 1 148 0
  58 0000 66 02                   		mov	#0, r2
  59 0002 05 00 00 00             		bsr	_IRQ_IntEnable
  60                             	.LVL8:
 149:C:/Workspace/FW_Inertia/branch_indesit/Drivers/OCIRQ\OCIRQ_drv.c **** 	return (IO_ErrorType)IO_E_OK;
 150:C:/Workspace/FW_Inertia/branch_indesit/Drivers/OCIRQ\OCIRQ_drv.c **** }
  61                             		.loc 1 150 0
  62 0006 66 01                   		mov.L	#0, r1
  63 0008 02                      		rts
  64                             	.LFE2:
  66                             		.section	.text.OCIRQ_GetEdgeSync,"ax",@progbits
  67                             		.global	_OCIRQ_GetEdgeSync
  69                             	_OCIRQ_GetEdgeSync:
  70                             	.LFB3:
 151:C:/Workspace/FW_Inertia/branch_indesit/Drivers/OCIRQ\OCIRQ_drv.c **** /**
 152:C:/Workspace/FW_Inertia/branch_indesit/Drivers/OCIRQ\OCIRQ_drv.c **** This function returns the edge selected for IRQ interrupt.
 153:C:/Workspace/FW_Inertia/branch_indesit/Drivers/OCIRQ\OCIRQ_drv.c **** 
 154:C:/Workspace/FW_Inertia/branch_indesit/Drivers/OCIRQ\OCIRQ_drv.c **** \return 	bool_t
 155:C:/Workspace/FW_Inertia/branch_indesit/Drivers/OCIRQ\OCIRQ_drv.c **** 
 156:C:/Workspace/FW_Inertia/branch_indesit/Drivers/OCIRQ\OCIRQ_drv.c **** \retval		IRQ_ON_NEGATIVE_EDGE
 157:C:/Workspace/FW_Inertia/branch_indesit/Drivers/OCIRQ\OCIRQ_drv.c **** \retval		IRQ_ON_POSITIVE_EDGE
 158:C:/Workspace/FW_Inertia/branch_indesit/Drivers/OCIRQ\OCIRQ_drv.c **** 
 159:C:/Workspace/FW_Inertia/branch_indesit/Drivers/OCIRQ\OCIRQ_drv.c **** \par Architecture Requirements ID: SARS_WMMT_MN_DrvADC_2
 160:C:/Workspace/FW_Inertia/branch_indesit/Drivers/OCIRQ\OCIRQ_drv.c **** */
 161:C:/Workspace/FW_Inertia/branch_indesit/Drivers/OCIRQ\OCIRQ_drv.c **** 
 162:C:/Workspace/FW_Inertia/branch_indesit/Drivers/OCIRQ\OCIRQ_drv.c **** bool_t OCIRQ_GetEdgeSync(void)
 163:C:/Workspace/FW_Inertia/branch_indesit/Drivers/OCIRQ\OCIRQ_drv.c **** {
  71                             		.loc 1 163 0
 164:C:/Workspace/FW_Inertia/branch_indesit/Drivers/OCIRQ\OCIRQ_drv.c **** 	return (bool_t)IRQ_GetEdge(IRQ_ZC_ID);
  72                             		.loc 1 164 0
  73 0000 66 01                   		mov	#0, r1
  74 0002 04 00 00 00             		bra	_IRQ_GetEdge
  75                             	.LVL9:
  76                             	.LFE3:
  78                             		.section	.text.OCIRQ_ChangeEdgeSync,"ax",@progbits
  79                             		.global	_OCIRQ_ChangeEdgeSync
  81                             	_OCIRQ_ChangeEdgeSync:
  82                             	.LFB4:
 165:C:/Workspace/FW_Inertia/branch_indesit/Drivers/OCIRQ\OCIRQ_drv.c **** }
 166:C:/Workspace/FW_Inertia/branch_indesit/Drivers/OCIRQ\OCIRQ_drv.c **** 
 167:C:/Workspace/FW_Inertia/branch_indesit/Drivers/OCIRQ\OCIRQ_drv.c **** /**
 168:C:/Workspace/FW_Inertia/branch_indesit/Drivers/OCIRQ\OCIRQ_drv.c **** This function changes synchronization edge for IRQ interrupt.
 169:C:/Workspace/FW_Inertia/branch_indesit/Drivers/OCIRQ\OCIRQ_drv.c **** 
 170:C:/Workspace/FW_Inertia/branch_indesit/Drivers/OCIRQ\OCIRQ_drv.c **** \param  [in] irqEdgeSync    current sync. edge
 171:C:/Workspace/FW_Inertia/branch_indesit/Drivers/OCIRQ\OCIRQ_drv.c **** 
 172:C:/Workspace/FW_Inertia/branch_indesit/Drivers/OCIRQ\OCIRQ_drv.c **** \par Architecture Requirements ID: SARS_WMMT_MN_DrvADC_2
 173:C:/Workspace/FW_Inertia/branch_indesit/Drivers/OCIRQ\OCIRQ_drv.c **** */
 174:C:/Workspace/FW_Inertia/branch_indesit/Drivers/OCIRQ\OCIRQ_drv.c **** void OCIRQ_ChangeEdgeSync(bool_t irqEdgeSync)
 175:C:/Workspace/FW_Inertia/branch_indesit/Drivers/OCIRQ\OCIRQ_drv.c **** {
  83                             		.loc 1 175 0
  84                             	.LVL10:
 176:C:/Workspace/FW_Inertia/branch_indesit/Drivers/OCIRQ\OCIRQ_drv.c **** 	if(IRQ_ON_POSITIVE_EDGE == irqEdgeSync)
  85                             		.loc 1 176 0
  86 0000 61 11                   		cmp	#1, r1
  87 0002 1C                      		bne	.L6
 177:C:/Workspace/FW_Inertia/branch_indesit/Drivers/OCIRQ\OCIRQ_drv.c **** 	{
 178:C:/Workspace/FW_Inertia/branch_indesit/Drivers/OCIRQ\OCIRQ_drv.c **** 		(void)OCIRQ_SetEdgeSync(IRQ_ON_NEGATIVE_EDGE);
  88                             		.loc 1 178 0
  89 0003 66 01                   		mov.L	#0, r1
  90                             	.LVL11:
  91 0005 0B                      		bra	.L7
  92                             	.LVL12:
  93                             	.L6:
 179:C:/Workspace/FW_Inertia/branch_indesit/Drivers/OCIRQ\OCIRQ_drv.c **** 	}
 180:C:/Workspace/FW_Inertia/branch_indesit/Drivers/OCIRQ\OCIRQ_drv.c **** 	else
 181:C:/Workspace/FW_Inertia/branch_indesit/Drivers/OCIRQ\OCIRQ_drv.c **** 	{
 182:C:/Workspace/FW_Inertia/branch_indesit/Drivers/OCIRQ\OCIRQ_drv.c **** 		(void)OCIRQ_SetEdgeSync(IRQ_ON_POSITIVE_EDGE);
  94                             		.loc 1 182 0
  95 0006 66 11                   		mov.L	#1, r1
  96                             	.LVL13:
  97                             		.balign 2,3,3
  98                             	.L7:
  99 0008 04 00 00 00             		bra	_OCIRQ_SetEdgeSync
 100                             	.LVL14:
 101                             	.LFE4:
 103                             		.section	.text.OCIRQ_DeInitSync,"ax",@progbits
 104                             		.global	_OCIRQ_DeInitSync
 106                             	_OCIRQ_DeInitSync:
 107                             	.LFB5:
 183:C:/Workspace/FW_Inertia/branch_indesit/Drivers/OCIRQ\OCIRQ_drv.c **** 	}
 184:C:/Workspace/FW_Inertia/branch_indesit/Drivers/OCIRQ\OCIRQ_drv.c **** }
 185:C:/Workspace/FW_Inertia/branch_indesit/Drivers/OCIRQ\OCIRQ_drv.c **** 
 186:C:/Workspace/FW_Inertia/branch_indesit/Drivers/OCIRQ\OCIRQ_drv.c **** /**
 187:C:/Workspace/FW_Inertia/branch_indesit/Drivers/OCIRQ\OCIRQ_drv.c **** This function deinitialises the IRQ driver and
 188:C:/Workspace/FW_Inertia/branch_indesit/Drivers/OCIRQ\OCIRQ_drv.c **** \n sets involved registers back to their controller default configuration.
 189:C:/Workspace/FW_Inertia/branch_indesit/Drivers/OCIRQ\OCIRQ_drv.c **** 
 190:C:/Workspace/FW_Inertia/branch_indesit/Drivers/OCIRQ\OCIRQ_drv.c **** \par Architecture Requirements ID: SARS_WMMT_MN_DrvADC_2
 191:C:/Workspace/FW_Inertia/branch_indesit/Drivers/OCIRQ\OCIRQ_drv.c **** */
 192:C:/Workspace/FW_Inertia/branch_indesit/Drivers/OCIRQ\OCIRQ_drv.c **** IO_ErrorType OCIRQ_DeInitSync(void)
 193:C:/Workspace/FW_Inertia/branch_indesit/Drivers/OCIRQ\OCIRQ_drv.c **** {
 108                             		.loc 1 193 0
 194:C:/Workspace/FW_Inertia/branch_indesit/Drivers/OCIRQ\OCIRQ_drv.c **** 	IRQ_DeInit(IRQ_ZC_ID);
 109                             		.loc 1 194 0
 110 0000 66 01                   		mov	#0, r1
 111 0002 05 00 00 00             		bsr	_IRQ_DeInit
 112                             	.LVL15:
 195:C:/Workspace/FW_Inertia/branch_indesit/Drivers/OCIRQ\OCIRQ_drv.c **** #if !defined(CONFIG_OCIRQ_STATIC_CFG)
 196:C:/Workspace/FW_Inertia/branch_indesit/Drivers/OCIRQ\OCIRQ_drv.c **** 	IRQ_Callback=(Comm_Notification)NULL;
 113                             		.loc 1 196 0
 114 0006 FB E2 00 00 00 00       		mov.L	#_IRQ_Callback, r14
 115 000c F8 E6 00                		mov.L	#0, [r14]
 197:C:/Workspace/FW_Inertia/branch_indesit/Drivers/OCIRQ\OCIRQ_drv.c **** #endif
 198:C:/Workspace/FW_Inertia/branch_indesit/Drivers/OCIRQ\OCIRQ_drv.c **** 	return (IO_ErrorType)IO_E_OK;
 199:C:/Workspace/FW_Inertia/branch_indesit/Drivers/OCIRQ\OCIRQ_drv.c **** }
 116                             		.loc 1 199 0
 117 000f 66 01                   		mov.L	#0, r1
 118 0011 02                      		rts
 119                             	.LFE5:
 121                             		.section	.text.IRQ_ISR,"ax",@progbits
 122                             		.global	_IRQ_ISR
 124                             	_IRQ_ISR:
 125                             	.LFB6:
 200:C:/Workspace/FW_Inertia/branch_indesit/Drivers/OCIRQ\OCIRQ_drv.c **** 
 201:C:/Workspace/FW_Inertia/branch_indesit/Drivers/OCIRQ\OCIRQ_drv.c **** /**
 202:C:/Workspace/FW_Inertia/branch_indesit/Drivers/OCIRQ\OCIRQ_drv.c **** ISR of IRQ. This function calls the callback function defined by the user.
 203:C:/Workspace/FW_Inertia/branch_indesit/Drivers/OCIRQ\OCIRQ_drv.c **** \n It checks first if IRQ is valid.
 204:C:/Workspace/FW_Inertia/branch_indesit/Drivers/OCIRQ\OCIRQ_drv.c **** 
 205:C:/Workspace/FW_Inertia/branch_indesit/Drivers/OCIRQ\OCIRQ_drv.c **** \note		This function must be called inside interrupt vector
 206:C:/Workspace/FW_Inertia/branch_indesit/Drivers/OCIRQ\OCIRQ_drv.c **** 
 207:C:/Workspace/FW_Inertia/branch_indesit/Drivers/OCIRQ\OCIRQ_drv.c **** \par Architecture Requirements ID: SARS_WMMT_MN_DrvADC_2
 208:C:/Workspace/FW_Inertia/branch_indesit/Drivers/OCIRQ\OCIRQ_drv.c **** */
 209:C:/Workspace/FW_Inertia/branch_indesit/Drivers/OCIRQ\OCIRQ_drv.c **** 
 210:C:/Workspace/FW_Inertia/branch_indesit/Drivers/OCIRQ\OCIRQ_drv.c **** void IRQ_ISR(void)
 211:C:/Workspace/FW_Inertia/branch_indesit/Drivers/OCIRQ\OCIRQ_drv.c **** {
 126                             		.loc 1 211 0
 127 0000 6E 7B                   		pushm	r7-r11
 128                             	.LCFI0:
 212:C:/Workspace/FW_Inertia/branch_indesit/Drivers/OCIRQ\OCIRQ_drv.c **** 	bool_t irqValidation;
 213:C:/Workspace/FW_Inertia/branch_indesit/Drivers/OCIRQ\OCIRQ_drv.c **** 	bool_t irqEdgeSync;
 214:C:/Workspace/FW_Inertia/branch_indesit/Drivers/OCIRQ\OCIRQ_drv.c **** 
 215:C:/Workspace/FW_Inertia/branch_indesit/Drivers/OCIRQ\OCIRQ_drv.c **** 	IRQ_MONITOR_ENTER();
 129                             		.loc 1 215 0
 130 0002 05 00 00 00             		bsr	_LIB_IRQMonitor_Enter
 131                             	.LVL16:
 216:C:/Workspace/FW_Inertia/branch_indesit/Drivers/OCIRQ\OCIRQ_drv.c **** 
 217:C:/Workspace/FW_Inertia/branch_indesit/Drivers/OCIRQ\OCIRQ_drv.c **** 	/* Get IRQ Sync Edge */
 218:C:/Workspace/FW_Inertia/branch_indesit/Drivers/OCIRQ\OCIRQ_drv.c **** 	irqEdgeSync = OCIRQ_GetEdgeSync();
 132                             		.loc 1 218 0
 133 0006 05 00 00 00             		bsr	_OCIRQ_GetEdgeSync
 134                             	.LVL17:
 135 000a EF 17                   		mov.L	r1, r7
 136                             	.LVL18:
 137 000c 66 5B                   		mov	#5, r11
 219:C:/Workspace/FW_Inertia/branch_indesit/Drivers/OCIRQ\OCIRQ_drv.c **** 
 220:C:/Workspace/FW_Inertia/branch_indesit/Drivers/OCIRQ\OCIRQ_drv.c **** 	/* Validate Interrupt */
 221:C:/Workspace/FW_Inertia/branch_indesit/Drivers/OCIRQ\OCIRQ_drv.c **** 	irqValidation = IRQ_IsValid(irqEdgeSync);
 222:C:/Workspace/FW_Inertia/branch_indesit/Drivers/OCIRQ\OCIRQ_drv.c **** 	/* Calls the user callback */
 223:C:/Workspace/FW_Inertia/branch_indesit/Drivers/OCIRQ\OCIRQ_drv.c **** 	if( IRQ_Callback ){
 224:C:/Workspace/FW_Inertia/branch_indesit/Drivers/OCIRQ\OCIRQ_drv.c **** 		(void)(IRQ_Callback)((IO_NotificationType)irqEdgeSync, (IO_ChannelType)0, (IO_ErrorType)irqValida
 225:C:/Workspace/FW_Inertia/branch_indesit/Drivers/OCIRQ\OCIRQ_drv.c **** 	}
 226:C:/Workspace/FW_Inertia/branch_indesit/Drivers/OCIRQ\OCIRQ_drv.c **** 	/* Acknowledges interrupt request events */
 227:C:/Workspace/FW_Inertia/branch_indesit/Drivers/OCIRQ\OCIRQ_drv.c **** 	IRQ_Acknowledge(IRQ_ZC_ID);
 228:C:/Workspace/FW_Inertia/branch_indesit/Drivers/OCIRQ\OCIRQ_drv.c **** 
 229:C:/Workspace/FW_Inertia/branch_indesit/Drivers/OCIRQ\OCIRQ_drv.c **** 	IRQ_MONITOR_EXIT();
 230:C:/Workspace/FW_Inertia/branch_indesit/Drivers/OCIRQ\OCIRQ_drv.c **** 
 231:C:/Workspace/FW_Inertia/branch_indesit/Drivers/OCIRQ\OCIRQ_drv.c **** }
 232:C:/Workspace/FW_Inertia/branch_indesit/Drivers/OCIRQ\OCIRQ_drv.c **** 
 233:C:/Workspace/FW_Inertia/branch_indesit/Drivers/OCIRQ\OCIRQ_drv.c **** /* Local Function */
 234:C:/Workspace/FW_Inertia/branch_indesit/Drivers/OCIRQ\OCIRQ_drv.c **** 
 235:C:/Workspace/FW_Inertia/branch_indesit/Drivers/OCIRQ\OCIRQ_drv.c **** 
 236:C:/Workspace/FW_Inertia/branch_indesit/Drivers/OCIRQ\OCIRQ_drv.c **** /**
 237:C:/Workspace/FW_Inertia/branch_indesit/Drivers/OCIRQ\OCIRQ_drv.c **** This function checks if interrupt is valid.
 238:C:/Workspace/FW_Inertia/branch_indesit/Drivers/OCIRQ\OCIRQ_drv.c **** 
 239:C:/Workspace/FW_Inertia/branch_indesit/Drivers/OCIRQ\OCIRQ_drv.c **** \param  [in]    edge syncronization edge valid values are:
 240:C:/Workspace/FW_Inertia/branch_indesit/Drivers/OCIRQ\OCIRQ_drv.c **** \li             IRQ_ON_NEGATIVE_EDGE
 241:C:/Workspace/FW_Inertia/branch_indesit/Drivers/OCIRQ\OCIRQ_drv.c **** \li             IRQ_ON_POSITIVE_EDGE
 242:C:/Workspace/FW_Inertia/branch_indesit/Drivers/OCIRQ\OCIRQ_drv.c **** 
 243:C:/Workspace/FW_Inertia/branch_indesit/Drivers/OCIRQ\OCIRQ_drv.c **** \return 	bool_t
 244:C:/Workspace/FW_Inertia/branch_indesit/Drivers/OCIRQ\OCIRQ_drv.c **** 
 245:C:/Workspace/FW_Inertia/branch_indesit/Drivers/OCIRQ\OCIRQ_drv.c **** \retval		TRUE    valid IRQ interrupt
 246:C:/Workspace/FW_Inertia/branch_indesit/Drivers/OCIRQ\OCIRQ_drv.c **** \retval		FALSE   spurious IRQ interrupt
 247:C:/Workspace/FW_Inertia/branch_indesit/Drivers/OCIRQ\OCIRQ_drv.c **** */
 248:C:/Workspace/FW_Inertia/branch_indesit/Drivers/OCIRQ\OCIRQ_drv.c **** #if defined(ZC_IO_MODULE_MAP_SIZE)
 249:C:/Workspace/FW_Inertia/branch_indesit/Drivers/OCIRQ\OCIRQ_drv.c **** 
 250:C:/Workspace/FW_Inertia/branch_indesit/Drivers/OCIRQ\OCIRQ_drv.c **** static bool_t IRQ_IsValid(bool_t edge)
 251:C:/Workspace/FW_Inertia/branch_indesit/Drivers/OCIRQ\OCIRQ_drv.c **** {
 252:C:/Workspace/FW_Inertia/branch_indesit/Drivers/OCIRQ\OCIRQ_drv.c **** #if (IRQ_FILTER > 0)
 253:C:/Workspace/FW_Inertia/branch_indesit/Drivers/OCIRQ\OCIRQ_drv.c **** 	{
 254:C:/Workspace/FW_Inertia/branch_indesit/Drivers/OCIRQ\OCIRQ_drv.c **** 
 255:C:/Workspace/FW_Inertia/branch_indesit/Drivers/OCIRQ\OCIRQ_drv.c **** 		uint8_t filter = IRQ_FILTER;
 256:C:/Workspace/FW_Inertia/branch_indesit/Drivers/OCIRQ\OCIRQ_drv.c **** 		uint8_t cntr = 0;
 257:C:/Workspace/FW_Inertia/branch_indesit/Drivers/OCIRQ\OCIRQ_drv.c **** 		/* read more time to ensure that the signal level is correct*/
 258:C:/Workspace/FW_Inertia/branch_indesit/Drivers/OCIRQ\OCIRQ_drv.c **** 		do
 259:C:/Workspace/FW_Inertia/branch_indesit/Drivers/OCIRQ\OCIRQ_drv.c **** 		{   /*lint -e960 no side effects on right hand */
 260:C:/Workspace/FW_Inertia/branch_indesit/Drivers/OCIRQ\OCIRQ_drv.c **** 			if ( ((IRQ_ON_POSITIVE_EDGE == edge) && 
 261:C:/Workspace/FW_Inertia/branch_indesit/Drivers/OCIRQ\OCIRQ_drv.c **** 			        OCDIO_GetIOMapPinValueSync((IO_ModuleIOMapType*)&ZC_IO_MODULE_MAP_NAME[0], 0)) 
 262:C:/Workspace/FW_Inertia/branch_indesit/Drivers/OCIRQ\OCIRQ_drv.c **** 			||
 263:C:/Workspace/FW_Inertia/branch_indesit/Drivers/OCIRQ\OCIRQ_drv.c **** 			((IRQ_ON_NEGATIVE_EDGE == edge) && 
 264:C:/Workspace/FW_Inertia/branch_indesit/Drivers/OCIRQ\OCIRQ_drv.c **** 			    (!OCDIO_GetIOMapPinValueSync((IO_ModuleIOMapType*)&ZC_IO_MODULE_MAP_NAME[0], 0))) )
 265:C:/Workspace/FW_Inertia/branch_indesit/Drivers/OCIRQ\OCIRQ_drv.c **** 				/*lint +e960 no side effects on right hand */
 266:C:/Workspace/FW_Inertia/branch_indesit/Drivers/OCIRQ\OCIRQ_drv.c **** 			{
 267:C:/Workspace/FW_Inertia/branch_indesit/Drivers/OCIRQ\OCIRQ_drv.c **** 				cntr++;
 268:C:/Workspace/FW_Inertia/branch_indesit/Drivers/OCIRQ\OCIRQ_drv.c **** 			}
 269:C:/Workspace/FW_Inertia/branch_indesit/Drivers/OCIRQ\OCIRQ_drv.c **** 			filter--;
 270:C:/Workspace/FW_Inertia/branch_indesit/Drivers/OCIRQ\OCIRQ_drv.c **** 		}
 271:C:/Workspace/FW_Inertia/branch_indesit/Drivers/OCIRQ\OCIRQ_drv.c **** 		while(filter > 0);
 272:C:/Workspace/FW_Inertia/branch_indesit/Drivers/OCIRQ\OCIRQ_drv.c **** 
 273:C:/Workspace/FW_Inertia/branch_indesit/Drivers/OCIRQ\OCIRQ_drv.c **** 		if ( IRQ_FILTER == cntr )
 274:C:/Workspace/FW_Inertia/branch_indesit/Drivers/OCIRQ\OCIRQ_drv.c **** 		{
 275:C:/Workspace/FW_Inertia/branch_indesit/Drivers/OCIRQ\OCIRQ_drv.c **** 			return TRUE;
 276:C:/Workspace/FW_Inertia/branch_indesit/Drivers/OCIRQ\OCIRQ_drv.c **** 		}
 277:C:/Workspace/FW_Inertia/branch_indesit/Drivers/OCIRQ\OCIRQ_drv.c **** 		else
 278:C:/Workspace/FW_Inertia/branch_indesit/Drivers/OCIRQ\OCIRQ_drv.c **** 		{
 279:C:/Workspace/FW_Inertia/branch_indesit/Drivers/OCIRQ\OCIRQ_drv.c **** 			return FALSE;
 280:C:/Workspace/FW_Inertia/branch_indesit/Drivers/OCIRQ\OCIRQ_drv.c **** 		}
 281:C:/Workspace/FW_Inertia/branch_indesit/Drivers/OCIRQ\OCIRQ_drv.c **** 
 282:C:/Workspace/FW_Inertia/branch_indesit/Drivers/OCIRQ\OCIRQ_drv.c **** 	}
 283:C:/Workspace/FW_Inertia/branch_indesit/Drivers/OCIRQ\OCIRQ_drv.c **** #else
 284:C:/Workspace/FW_Inertia/branch_indesit/Drivers/OCIRQ\OCIRQ_drv.c **** 	return TRUE;
 285:C:/Workspace/FW_Inertia/branch_indesit/Drivers/OCIRQ\OCIRQ_drv.c **** #endif  /* #if (IRQ_FILTER > 0) */
 286:C:/Workspace/FW_Inertia/branch_indesit/Drivers/OCIRQ\OCIRQ_drv.c **** 
 287:C:/Workspace/FW_Inertia/branch_indesit/Drivers/OCIRQ\OCIRQ_drv.c **** }
 288:C:/Workspace/FW_Inertia/branch_indesit/Drivers/OCIRQ\OCIRQ_drv.c **** 
 289:C:/Workspace/FW_Inertia/branch_indesit/Drivers/OCIRQ\OCIRQ_drv.c **** 
 290:C:/Workspace/FW_Inertia/branch_indesit/Drivers/OCIRQ\OCIRQ_drv.c **** #else /* defined(ZC_IO_MODULE_MAP_SIZE) */
 291:C:/Workspace/FW_Inertia/branch_indesit/Drivers/OCIRQ\OCIRQ_drv.c **** 
 292:C:/Workspace/FW_Inertia/branch_indesit/Drivers/OCIRQ\OCIRQ_drv.c **** /**
 293:C:/Workspace/FW_Inertia/branch_indesit/Drivers/OCIRQ\OCIRQ_drv.c **** This function checks if interrupt is valid.
 294:C:/Workspace/FW_Inertia/branch_indesit/Drivers/OCIRQ\OCIRQ_drv.c **** 
 295:C:/Workspace/FW_Inertia/branch_indesit/Drivers/OCIRQ\OCIRQ_drv.c **** \param  [in]    edge syncronization edge valid values are:
 296:C:/Workspace/FW_Inertia/branch_indesit/Drivers/OCIRQ\OCIRQ_drv.c **** \li             IRQ_ON_NEGATIVE_EDGE
 297:C:/Workspace/FW_Inertia/branch_indesit/Drivers/OCIRQ\OCIRQ_drv.c **** \li             IRQ_ON_POSITIVE_EDGE
 298:C:/Workspace/FW_Inertia/branch_indesit/Drivers/OCIRQ\OCIRQ_drv.c **** 
 299:C:/Workspace/FW_Inertia/branch_indesit/Drivers/OCIRQ\OCIRQ_drv.c **** \return 	bool_t
 300:C:/Workspace/FW_Inertia/branch_indesit/Drivers/OCIRQ\OCIRQ_drv.c **** 
 301:C:/Workspace/FW_Inertia/branch_indesit/Drivers/OCIRQ\OCIRQ_drv.c **** \retval		TRUE    valid IRQ interrupt
 302:C:/Workspace/FW_Inertia/branch_indesit/Drivers/OCIRQ\OCIRQ_drv.c **** \retval		FALSE   spurious IRQ interrupt
 303:C:/Workspace/FW_Inertia/branch_indesit/Drivers/OCIRQ\OCIRQ_drv.c **** */
 304:C:/Workspace/FW_Inertia/branch_indesit/Drivers/OCIRQ\OCIRQ_drv.c **** 
 305:C:/Workspace/FW_Inertia/branch_indesit/Drivers/OCIRQ\OCIRQ_drv.c **** static bool_t IRQ_IsValid(bool_t edge)
 306:C:/Workspace/FW_Inertia/branch_indesit/Drivers/OCIRQ\OCIRQ_drv.c **** {
 307:C:/Workspace/FW_Inertia/branch_indesit/Drivers/OCIRQ\OCIRQ_drv.c **** #if (IRQ_FILTER > 0)
 308:C:/Workspace/FW_Inertia/branch_indesit/Drivers/OCIRQ\OCIRQ_drv.c **** 	{
 309:C:/Workspace/FW_Inertia/branch_indesit/Drivers/OCIRQ\OCIRQ_drv.c **** 
 310:C:/Workspace/FW_Inertia/branch_indesit/Drivers/OCIRQ\OCIRQ_drv.c **** 		uint8_t filter = IRQ_FILTER;
 311:C:/Workspace/FW_Inertia/branch_indesit/Drivers/OCIRQ\OCIRQ_drv.c **** 		uint8_t cntr = 0;
 138                             		.loc 1 311 0
 139 000e 66 0A                   		mov	#0, r10
 140                             	.LVL19:
 141                             		.balign 2,3,1
 142                             	.L13:
 143                             	.LBB5:
 144                             	.LBB6:
 312:C:/Workspace/FW_Inertia/branch_indesit/Drivers/OCIRQ\OCIRQ_drv.c **** 		do
 313:C:/Workspace/FW_Inertia/branch_indesit/Drivers/OCIRQ\OCIRQ_drv.c **** 		{   /*lint -e960 no side effects on right hand */
 314:C:/Workspace/FW_Inertia/branch_indesit/Drivers/OCIRQ\OCIRQ_drv.c **** 			if ( ((IRQ_ON_POSITIVE_EDGE == edge) && IRQ_pinIsHigh(IRQ_ZC_ID)) ||
 145                             		.loc 1 314 0
 146 0010 61 17                   		cmp	#1, r7
 147 0012 21 10                   		bne	.L10
 148 0014 66 01                   		mov	#0, r1
 149 0016 05 00 00 00             		bsr	_IRQ_pinIsHigh
 150                             	.LVL20:
 151 001a 61 01                   		cmp	#0, r1
 152 001c 20 14                   		beq	.L11
 153                             		.balign 2,3,1
 154                             	.L12:
 315:C:/Workspace/FW_Inertia/branch_indesit/Drivers/OCIRQ\OCIRQ_drv.c **** 			     ((IRQ_ON_NEGATIVE_EDGE == edge) && IRQ_pinIsLow( IRQ_ZC_ID)) )
 316:C:/Workspace/FW_Inertia/branch_indesit/Drivers/OCIRQ\OCIRQ_drv.c **** 				/*lint +e960 no side effects on right hand */
 317:C:/Workspace/FW_Inertia/branch_indesit/Drivers/OCIRQ\OCIRQ_drv.c **** 			{
 318:C:/Workspace/FW_Inertia/branch_indesit/Drivers/OCIRQ\OCIRQ_drv.c **** 				cntr++;
 155                             		.loc 1 318 0
 156 001e 62 1A                   		add	#1, r10
 157                             	.LVL21:
 158 0020 2E 10                   		bra	.L11
 159                             	.L10:
 314:C:/Workspace/FW_Inertia/branch_indesit/Drivers/OCIRQ\OCIRQ_drv.c **** 			if ( ((IRQ_ON_POSITIVE_EDGE == edge) && IRQ_pinIsHigh(IRQ_ZC_ID)) ||
 160                             		.loc 1 314 0
 161 0022 61 07                   		cmp	#0, r7
 162 0024 21 0C                   		bne	.L11
 315:C:/Workspace/FW_Inertia/branch_indesit/Drivers/OCIRQ\OCIRQ_drv.c **** 			     ((IRQ_ON_NEGATIVE_EDGE == edge) && IRQ_pinIsLow( IRQ_ZC_ID)) )
 163                             		.loc 1 315 0
 164 0026 CF 71                   		mov.B	r7, r1
 165 0028 05 00 00 00             		bsr	_IRQ_pinIsHigh
 166                             	.LVL22:
 167 002c 61 01                   		cmp	#0, r1
 168 002e 20 F0                   		beq	.L12
 169                             		.balign 2,3,1
 170                             	.L11:
 171 0030 60 1B                   		sub	#1, r11
 319:C:/Workspace/FW_Inertia/branch_indesit/Drivers/OCIRQ\OCIRQ_drv.c **** 			}
 320:C:/Workspace/FW_Inertia/branch_indesit/Drivers/OCIRQ\OCIRQ_drv.c **** 			filter--;
 321:C:/Workspace/FW_Inertia/branch_indesit/Drivers/OCIRQ\OCIRQ_drv.c **** 		}
 322:C:/Workspace/FW_Inertia/branch_indesit/Drivers/OCIRQ\OCIRQ_drv.c **** 		while(filter > 0);
 172                             		.loc 1 322 0
 173 0032 5B B2                   		movu.B	r11, r2
 174 0034 61 02                   		cmp	#0, r2
 175 0036 21 DA                   		bne	.L13
 323:C:/Workspace/FW_Inertia/branch_indesit/Drivers/OCIRQ\OCIRQ_drv.c **** 
 324:C:/Workspace/FW_Inertia/branch_indesit/Drivers/OCIRQ\OCIRQ_drv.c **** 		if ( IRQ_FILTER == cntr )
 176                             		.loc 1 324 0
 177 0038 5B AA                   		movu.B	r10, r10
 178 003a 61 5A                   		cmp	#5, r10
 179 003c FC DB 30                		sceq.L	r3
 180                             	.LBE6:
 181                             	.LBE5:
 223:C:/Workspace/FW_Inertia/branch_indesit/Drivers/OCIRQ\OCIRQ_drv.c **** 	if( IRQ_Callback ){
 182                             		.loc 1 223 0
 183 003f FB A2 00 00 00 00       		mov.L	#_IRQ_Callback, r10
 184                             	.LVL23:
 185 0045 EC AB                   		mov.L	[r10], r11
 186 0047 61 0B                   		cmp	#0, r11
 187 0049 15                      		beq	.L14
 224:C:/Workspace/FW_Inertia/branch_indesit/Drivers/OCIRQ\OCIRQ_drv.c **** 		(void)(IRQ_Callback)((IO_NotificationType)irqEdgeSync, (IO_ChannelType)0, (IO_ErrorType)irqValida
 188                             		.loc 1 224 0
 189 004a CF 71                   		mov.B	r7, r1
 190 004c 7F 1B                   		jsr	r11
 191                             	.LVL24:
 192                             		.balign 2,3,1
 193                             	.L14:
 227:C:/Workspace/FW_Inertia/branch_indesit/Drivers/OCIRQ\OCIRQ_drv.c **** 	IRQ_Acknowledge(IRQ_ZC_ID);
 194                             		.loc 1 227 0
 195 004e 66 01                   		mov	#0, r1
 196 0050 05 00 00 00             		bsr	_IRQ_Acknowledge
 197                             	.LVL25:
 231:C:/Workspace/FW_Inertia/branch_indesit/Drivers/OCIRQ\OCIRQ_drv.c **** }
 198                             		.loc 1 231 0
 199 0054 6F 7B                   		popm	r7-r11
 200                             	.LVL26:
 229:C:/Workspace/FW_Inertia/branch_indesit/Drivers/OCIRQ\OCIRQ_drv.c **** 	IRQ_MONITOR_EXIT();
 201                             		.loc 1 229 0
 202 0056 04 00 00 00             		bra	_LIB_IRQMonitor_Exit
 203                             	.LVL27:
 204                             	.LFE6:
 206                             		.section	.bss.IRQ_Callback,"aw",@nobits
 207                             		.balign 4
 210                             	_IRQ_Callback:
 211 0000 00 00 00 00             		.zero	4
 300                             	.Letext0:
 301                             		.file 2 "C:\\Workspace\\FW_Inertia\\branch_indesit\\HAL\\HAL_General/StandardTypes.h"
 302                             		.file 3 "C:\\Workspace\\FW_Inertia\\branch_indesit\\Drivers/IO_driver.h"
 303                             		.file 4 "C:\\Workspace\\FW_Inertia\\branch_indesit\\Drivers\\OCDIO/OCDIO_drv.h"
 304                             		.file 5 "C:\\Workspace\\FW_Inertia\\branch_indesit\\HAL\\RN_RX200/RN_RX200_hal.h"
 305                             		.file 6 "C:\\Workspace\\FW_Inertia\\branch_indesit\\PlatformLibrary\\LIB_SecurityCheck/LIB_TaskMon
DEFINED SYMBOLS
                            *ABS*:00000000 OCIRQ_drv.c
C:\Users\Andrea\AppData\Local\Temp\ccjWronF.s:7      .text.OCIRQ_InitSync:00000000 _OCIRQ_InitSync
C:\Users\Andrea\AppData\Local\Temp\ccjWronF.s:13     .text.OCIRQ_InitSync:00000000 L0
C:\Users\Andrea\AppData\Local\Temp\ccjWronF.s:210    .bss.IRQ_Callback:00000000 _IRQ_Callback
C:\Users\Andrea\AppData\Local\Temp\ccjWronF.s:37     .text.OCIRQ_SetEdgeSync:00000000 _OCIRQ_SetEdgeSync
C:\Users\Andrea\AppData\Local\Temp\ccjWronF.s:42     .text.OCIRQ_SetEdgeSync:00000000 L0
C:\Users\Andrea\AppData\Local\Temp\ccjWronF.s:53     .text.OCIRQ_IntrptEnableSync:00000000 _OCIRQ_IntrptEnableSync
C:\Users\Andrea\AppData\Local\Temp\ccjWronF.s:58     .text.OCIRQ_IntrptEnableSync:00000000 L0
C:\Users\Andrea\AppData\Local\Temp\ccjWronF.s:69     .text.OCIRQ_GetEdgeSync:00000000 _OCIRQ_GetEdgeSync
C:\Users\Andrea\AppData\Local\Temp\ccjWronF.s:73     .text.OCIRQ_GetEdgeSync:00000000 L0
C:\Users\Andrea\AppData\Local\Temp\ccjWronF.s:81     .text.OCIRQ_ChangeEdgeSync:00000000 _OCIRQ_ChangeEdgeSync
C:\Users\Andrea\AppData\Local\Temp\ccjWronF.s:86     .text.OCIRQ_ChangeEdgeSync:00000000 L0
C:\Users\Andrea\AppData\Local\Temp\ccjWronF.s:106    .text.OCIRQ_DeInitSync:00000000 _OCIRQ_DeInitSync
C:\Users\Andrea\AppData\Local\Temp\ccjWronF.s:110    .text.OCIRQ_DeInitSync:00000000 L0
C:\Users\Andrea\AppData\Local\Temp\ccjWronF.s:124    .text.IRQ_ISR:00000000 _IRQ_ISR
C:\Users\Andrea\AppData\Local\Temp\ccjWronF.s:127    .text.IRQ_ISR:00000000 L0
C:\Users\Andrea\AppData\Local\Temp\ccjWronF.s:213    .debug_frame:00000000 .Lframe0
C:\Users\Andrea\AppData\Local\Temp\ccjWronF.s:8      .text.OCIRQ_InitSync:00000000 .LFB0
C:\Users\Andrea\AppData\Local\Temp\ccjWronF.s:38     .text.OCIRQ_SetEdgeSync:00000000 .LFB1
C:\Users\Andrea\AppData\Local\Temp\ccjWronF.s:54     .text.OCIRQ_IntrptEnableSync:00000000 .LFB2
C:\Users\Andrea\AppData\Local\Temp\ccjWronF.s:70     .text.OCIRQ_GetEdgeSync:00000000 .LFB3
C:\Users\Andrea\AppData\Local\Temp\ccjWronF.s:82     .text.OCIRQ_ChangeEdgeSync:00000000 .LFB4
C:\Users\Andrea\AppData\Local\Temp\ccjWronF.s:107    .text.OCIRQ_DeInitSync:00000000 .LFB5
C:\Users\Andrea\AppData\Local\Temp\ccjWronF.s:125    .text.IRQ_ISR:00000000 .LFB6
C:\Users\Andrea\AppData\Local\Temp\ccjWronF.s:966    .debug_abbrev:00000000 .Ldebug_abbrev0
C:\Users\Andrea\AppData\Local\Temp\ccjWronF.s:1641   .debug_str:00000068 .LASF71
C:\Users\Andrea\AppData\Local\Temp\ccjWronF.s:1747   .debug_str:0000038b .LASF72
C:\Users\Andrea\AppData\Local\Temp\ccjWronF.s:1607   .debug_ranges:00000000 .Ldebug_ranges0
C:\Users\Andrea\AppData\Local\Temp\ccjWronF.s:1625   .debug_line:00000000 .Ldebug_line0
C:\Users\Andrea\AppData\Local\Temp\ccjWronF.s:1659   .debug_str:000000ee .LASF0
C:\Users\Andrea\AppData\Local\Temp\ccjWronF.s:1711   .debug_str:00000272 .LASF6
C:\Users\Andrea\AppData\Local\Temp\ccjWronF.s:1715   .debug_str:00000289 .LASF1
C:\Users\Andrea\AppData\Local\Temp\ccjWronF.s:1735   .debug_str:00000323 .LASF2
C:\Users\Andrea\AppData\Local\Temp\ccjWronF.s:1691   .debug_str:000001df .LASF3
C:\Users\Andrea\AppData\Local\Temp\ccjWronF.s:1705   .debug_str:00000241 .LASF4
C:\Users\Andrea\AppData\Local\Temp\ccjWronF.s:1685   .debug_str:000001b7 .LASF5
C:\Users\Andrea\AppData\Local\Temp\ccjWronF.s:1755   .debug_str:00000402 .LASF7
C:\Users\Andrea\AppData\Local\Temp\ccjWronF.s:1697   .debug_str:00000201 .LASF8
C:\Users\Andrea\AppData\Local\Temp\ccjWronF.s:1677   .debug_str:00000187 .LASF9
C:\Users\Andrea\AppData\Local\Temp\ccjWronF.s:1725   .debug_str:000002e9 .LASF10
C:\Users\Andrea\AppData\Local\Temp\ccjWronF.s:1709   .debug_str:00000265 .LASF11
C:\Users\Andrea\AppData\Local\Temp\ccjWronF.s:1643   .debug_str:0000008e .LASF12
C:\Users\Andrea\AppData\Local\Temp\ccjWronF.s:1687   .debug_str:000001c5 .LASF13
C:\Users\Andrea\AppData\Local\Temp\ccjWronF.s:1763   .debug_str:0000044d .LASF73
C:\Users\Andrea\AppData\Local\Temp\ccjWronF.s:1727   .debug_str:000002f0 .LASF14
C:\Users\Andrea\AppData\Local\Temp\ccjWronF.s:1633   .debug_str:00000029 .LASF15
C:\Users\Andrea\AppData\Local\Temp\ccjWronF.s:1695   .debug_str:000001f4 .LASF16
C:\Users\Andrea\AppData\Local\Temp\ccjWronF.s:1653   .debug_str:000000cb .LASF17
C:\Users\Andrea\AppData\Local\Temp\ccjWronF.s:1769   .debug_str:00000476 .LASF18
C:\Users\Andrea\AppData\Local\Temp\ccjWronF.s:1675   .debug_str:00000174 .LASF19
C:\Users\Andrea\AppData\Local\Temp\ccjWronF.s:1767   .debug_str:0000045e .LASF20
C:\Users\Andrea\AppData\Local\Temp\ccjWronF.s:1649   .debug_str:000000ac .LASF21
C:\Users\Andrea\AppData\Local\Temp\ccjWronF.s:1737   .debug_str:00000335 .LASF22
C:\Users\Andrea\AppData\Local\Temp\ccjWronF.s:1627   .debug_str:00000000 .LASF23
C:\Users\Andrea\AppData\Local\Temp\ccjWronF.s:1733   .debug_str:0000030b .LASF24
C:\Users\Andrea\AppData\Local\Temp\ccjWronF.s:1723   .debug_str:000002cf .LASF25
C:\Users\Andrea\AppData\Local\Temp\ccjWronF.s:1635   .debug_str:00000033 .LASF26
C:\Users\Andrea\AppData\Local\Temp\ccjWronF.s:1775   .debug_str:000004a6 .LASF27
C:\Users\Andrea\AppData\Local\Temp\ccjWronF.s:1729   .debug_str:000002f8 .LASF28
C:\Users\Andrea\AppData\Local\Temp\ccjWronF.s:1739   .debug_str:00000347 .LASF29
C:\Users\Andrea\AppData\Local\Temp\ccjWronF.s:1631   .debug_str:0000001b .LASF30
C:\Users\Andrea\AppData\Local\Temp\ccjWronF.s:1655   .debug_str:000000dd .LASF31
C:\Users\Andrea\AppData\Local\Temp\ccjWronF.s:1741   .debug_str:0000035c .LASF32
C:\Users\Andrea\AppData\Local\Temp\ccjWronF.s:1771   .debug_str:00000489 .LASF33
C:\Users\Andrea\AppData\Local\Temp\ccjWronF.s:1719   .debug_str:000002a9 .LASF34
C:\Users\Andrea\AppData\Local\Temp\ccjWronF.s:1721   .debug_str:000002bc .LASF35
C:\Users\Andrea\AppData\Local\Temp\ccjWronF.s:1639   .debug_str:00000059 .LASF36
C:\Users\Andrea\AppData\Local\Temp\ccjWronF.s:1669   .debug_str:0000013e .LASF37
C:\Users\Andrea\AppData\Local\Temp\ccjWronF.s:1693   .debug_str:000001e8 .LASF38
C:\Users\Andrea\AppData\Local\Temp\ccjWronF.s:1699   .debug_str:0000020f .LASF39
C:\Users\Andrea\AppData\Local\Temp\ccjWronF.s:1717   .debug_str:0000029c .LASF40
C:\Users\Andrea\AppData\Local\Temp\ccjWronF.s:1751   .debug_str:000003e1 .LASF41
C:\Users\Andrea\AppData\Local\Temp\ccjWronF.s:1707   .debug_str:00000258 .LASF42
C:\Users\Andrea\AppData\Local\Temp\ccjWronF.s:1757   .debug_str:0000040a .LASF43
C:\Users\Andrea\AppData\Local\Temp\ccjWronF.s:1701   .debug_str:00000224 .LASF44
C:\Users\Andrea\AppData\Local\Temp\ccjWronF.s:1663   .debug_str:00000108 .LASF45
C:\Users\Andrea\AppData\Local\Temp\ccjWronF.s:32     .text.OCIRQ_InitSync:00000023 .LFE0
C:\Users\Andrea\AppData\Local\Temp\ccjWronF.s:1759   .debug_str:0000041e .LASF47
C:\Users\Andrea\AppData\Local\Temp\ccjWronF.s:1466   .debug_loc:00000000 .LLST0
C:\Users\Andrea\AppData\Local\Temp\ccjWronF.s:19     .text.OCIRQ_InitSync:0000000e .LVL2
C:\Users\Andrea\AppData\Local\Temp\ccjWronF.s:23     .text.OCIRQ_InitSync:00000015 .LVL3
C:\Users\Andrea\AppData\Local\Temp\ccjWronF.s:28     .text.OCIRQ_InitSync:00000020 .LVL4
C:\Users\Andrea\AppData\Local\Temp\ccjWronF.s:1753   .debug_str:000003f0 .LASF46
C:\Users\Andrea\AppData\Local\Temp\ccjWronF.s:48     .text.OCIRQ_SetEdgeSync:00000009 .LFE1
C:\Users\Andrea\AppData\Local\Temp\ccjWronF.s:1657   .debug_str:000000e9 .LASF48
C:\Users\Andrea\AppData\Local\Temp\ccjWronF.s:1485   .debug_loc:00000030 .LLST1
C:\Users\Andrea\AppData\Local\Temp\ccjWronF.s:44     .text.OCIRQ_SetEdgeSync:00000006 .LVL6
C:\Users\Andrea\AppData\Local\Temp\ccjWronF.s:1673   .debug_str:0000015d .LASF49
C:\Users\Andrea\AppData\Local\Temp\ccjWronF.s:64     .text.OCIRQ_IntrptEnableSync:00000009 .LFE2
C:\Users\Andrea\AppData\Local\Temp\ccjWronF.s:1665   .debug_str:00000117 .LASF50
C:\Users\Andrea\AppData\Local\Temp\ccjWronF.s:1499   .debug_loc:00000051 .LLST2
C:\Users\Andrea\AppData\Local\Temp\ccjWronF.s:60     .text.OCIRQ_IntrptEnableSync:00000006 .LVL8
C:\Users\Andrea\AppData\Local\Temp\ccjWronF.s:1773   .debug_str:00000494 .LASF51
C:\Users\Andrea\AppData\Local\Temp\ccjWronF.s:76     .text.OCIRQ_GetEdgeSync:00000006 .LFE3
C:\Users\Andrea\AppData\Local\Temp\ccjWronF.s:75     .text.OCIRQ_GetEdgeSync:00000006 .LVL9
C:\Users\Andrea\AppData\Local\Temp\ccjWronF.s:1689   .debug_str:000001ca .LASF56
C:\Users\Andrea\AppData\Local\Temp\ccjWronF.s:101    .text.OCIRQ_ChangeEdgeSync:0000000c .LFE4
C:\Users\Andrea\AppData\Local\Temp\ccjWronF.s:1679   .debug_str:00000193 .LASF52
C:\Users\Andrea\AppData\Local\Temp\ccjWronF.s:1513   .debug_loc:00000072 .LLST3
C:\Users\Andrea\AppData\Local\Temp\ccjWronF.s:100    .text.OCIRQ_ChangeEdgeSync:0000000c .LVL14
C:\Users\Andrea\AppData\Local\Temp\ccjWronF.s:1637   .debug_str:00000048 .LASF53
C:\Users\Andrea\AppData\Local\Temp\ccjWronF.s:119    .text.OCIRQ_DeInitSync:00000012 .LFE5
C:\Users\Andrea\AppData\Local\Temp\ccjWronF.s:112    .text.OCIRQ_DeInitSync:00000006 .LVL15
C:\Users\Andrea\AppData\Local\Temp\ccjWronF.s:1651   .debug_str:000000bf .LASF74
C:\Users\Andrea\AppData\Local\Temp\ccjWronF.s:1765   .debug_str:00000457 .LASF54
C:\Users\Andrea\AppData\Local\Temp\ccjWronF.s:1629   .debug_str:00000016 .LASF55
C:\Users\Andrea\AppData\Local\Temp\ccjWronF.s:1645   .debug_str:00000097 .LASF57
C:\Users\Andrea\AppData\Local\Temp\ccjWronF.s:204    .text.IRQ_ISR:0000005a .LFE6
C:\Users\Andrea\AppData\Local\Temp\ccjWronF.s:1538   .debug_loc:000000ac .LLST4
C:\Users\Andrea\AppData\Local\Temp\ccjWronF.s:1713   .debug_str:0000027b .LASF58
C:\Users\Andrea\AppData\Local\Temp\ccjWronF.s:1551   .debug_loc:000000cc .LLST5
C:\Users\Andrea\AppData\Local\Temp\ccjWronF.s:143    .text.IRQ_ISR:00000010 .LBB5
C:\Users\Andrea\AppData\Local\Temp\ccjWronF.s:181    .text.IRQ_ISR:0000003f .LBE5
C:\Users\Andrea\AppData\Local\Temp\ccjWronF.s:144    .text.IRQ_ISR:00000010 .LBB6
C:\Users\Andrea\AppData\Local\Temp\ccjWronF.s:180    .text.IRQ_ISR:0000003f .LBE6
C:\Users\Andrea\AppData\Local\Temp\ccjWronF.s:1562   .debug_loc:000000ea .LLST7
C:\Users\Andrea\AppData\Local\Temp\ccjWronF.s:1570   .debug_loc:000000fe .LLST8
C:\Users\Andrea\AppData\Local\Temp\ccjWronF.s:150    .text.IRQ_ISR:0000001a .LVL20
C:\Users\Andrea\AppData\Local\Temp\ccjWronF.s:166    .text.IRQ_ISR:0000002c .LVL22
C:\Users\Andrea\AppData\Local\Temp\ccjWronF.s:131    .text.IRQ_ISR:00000006 .LVL16
C:\Users\Andrea\AppData\Local\Temp\ccjWronF.s:134    .text.IRQ_ISR:0000000a .LVL17
C:\Users\Andrea\AppData\Local\Temp\ccjWronF.s:191    .text.IRQ_ISR:0000004e .LVL24
C:\Users\Andrea\AppData\Local\Temp\ccjWronF.s:197    .text.IRQ_ISR:00000054 .LVL25
C:\Users\Andrea\AppData\Local\Temp\ccjWronF.s:203    .text.IRQ_ISR:0000005a .LVL27
C:\Users\Andrea\AppData\Local\Temp\ccjWronF.s:1647   .debug_str:0000009f .LASF59
C:\Users\Andrea\AppData\Local\Temp\ccjWronF.s:1731   .debug_str:00000302 .LASF62
C:\Users\Andrea\AppData\Local\Temp\ccjWronF.s:1667   .debug_str:0000011e .LASF60
C:\Users\Andrea\AppData\Local\Temp\ccjWronF.s:1761   .debug_str:00000427 .LASF61
C:\Users\Andrea\AppData\Local\Temp\ccjWronF.s:1683   .debug_str:000001ab .LASF63
C:\Users\Andrea\AppData\Local\Temp\ccjWronF.s:1671   .debug_str:0000014f .LASF64
C:\Users\Andrea\AppData\Local\Temp\ccjWronF.s:1681   .debug_str:0000019f .LASF65
C:\Users\Andrea\AppData\Local\Temp\ccjWronF.s:1703   .debug_str:00000236 .LASF66
C:\Users\Andrea\AppData\Local\Temp\ccjWronF.s:1745   .debug_str:0000037d .LASF67
C:\Users\Andrea\AppData\Local\Temp\ccjWronF.s:1749   .debug_str:000003cc .LASF69
C:\Users\Andrea\AppData\Local\Temp\ccjWronF.s:1661   .debug_str:000000f8 .LASF68
C:\Users\Andrea\AppData\Local\Temp\ccjWronF.s:1743   .debug_str:00000369 .LASF70
C:\Users\Andrea\AppData\Local\Temp\ccjWronF.s:11     .text.OCIRQ_InitSync:00000000 .LVL0
C:\Users\Andrea\AppData\Local\Temp\ccjWronF.s:17     .text.OCIRQ_InitSync:0000000a .LVL1
C:\Users\Andrea\AppData\Local\Temp\ccjWronF.s:40     .text.OCIRQ_SetEdgeSync:00000000 .LVL5
C:\Users\Andrea\AppData\Local\Temp\ccjWronF.s:56     .text.OCIRQ_IntrptEnableSync:00000000 .LVL7
C:\Users\Andrea\AppData\Local\Temp\ccjWronF.s:84     .text.OCIRQ_ChangeEdgeSync:00000000 .LVL10
C:\Users\Andrea\AppData\Local\Temp\ccjWronF.s:90     .text.OCIRQ_ChangeEdgeSync:00000005 .LVL11
C:\Users\Andrea\AppData\Local\Temp\ccjWronF.s:92     .text.OCIRQ_ChangeEdgeSync:00000006 .LVL12
C:\Users\Andrea\AppData\Local\Temp\ccjWronF.s:96     .text.OCIRQ_ChangeEdgeSync:00000008 .LVL13
C:\Users\Andrea\AppData\Local\Temp\ccjWronF.s:128    .text.IRQ_ISR:00000002 .LCFI0
C:\Users\Andrea\AppData\Local\Temp\ccjWronF.s:136    .text.IRQ_ISR:0000000c .LVL18
C:\Users\Andrea\AppData\Local\Temp\ccjWronF.s:140    .text.IRQ_ISR:00000010 .LVL19
C:\Users\Andrea\AppData\Local\Temp\ccjWronF.s:200    .text.IRQ_ISR:00000056 .LVL26
C:\Users\Andrea\AppData\Local\Temp\ccjWronF.s:184    .text.IRQ_ISR:00000045 .LVL23
C:\Users\Andrea\AppData\Local\Temp\ccjWronF.s:307    .debug_info:00000000 .Ldebug_info0

UNDEFINED SYMBOLS
_IRQ_Init
_OCDIO_SetIODigitalFilterPinSync
_OCDIO_SetIODigitalFilterFrequencySync
_IRQ_SetEdge
_IRQ_IntEnable
_IRQ_GetEdge
_IRQ_DeInit
_LIB_IRQMonitor_Enter
_IRQ_pinIsHigh
_IRQ_Acknowledge
_LIB_IRQMonitor_Exit
