   1                             		.file	"PM_EnergyMeterSwTable.c"
   2                             		.section P,"ax"
   3                             	.Ltext0:
   4                             		.section	.text.TableInit,"ax",@progbits
   5                             		.global	_TableInit
   7                             	_TableInit:
   8                             	.LFB0:
   9                             		.file 1 "C:/Workspace/FW_Inertia/branch_indesit/ProductModules/PM_EnergyMeterSw/PM_EnergyMeterSwTa
   1:C:/Workspace/FW_Inertia/branch_indesit/ProductModules/PM_EnergyMeterSw\PM_EnergyMeterSwTable.c **** 
   2:C:/Workspace/FW_Inertia/branch_indesit/ProductModules/PM_EnergyMeterSw\PM_EnergyMeterSwTable.c **** #include "PM_EnergyMeterSwTable.h"
   3:C:/Workspace/FW_Inertia/branch_indesit/ProductModules/PM_EnergyMeterSw\PM_EnergyMeterSwTable.c **** #include "Config.h"
   4:C:/Workspace/FW_Inertia/branch_indesit/ProductModules/PM_EnergyMeterSw\PM_EnergyMeterSwTable.c **** 
   5:C:/Workspace/FW_Inertia/branch_indesit/ProductModules/PM_EnergyMeterSw\PM_EnergyMeterSwTable.c **** #if defined(CONFIG_EMS_TLOAD_ITEMS_MAX)
   6:C:/Workspace/FW_Inertia/branch_indesit/ProductModules/PM_EnergyMeterSw\PM_EnergyMeterSwTable.c **** #include "PM_EnergyMeterSwTable_pri.h"
   7:C:/Workspace/FW_Inertia/branch_indesit/ProductModules/PM_EnergyMeterSw\PM_EnergyMeterSwTable.c **** 
   8:C:/Workspace/FW_Inertia/branch_indesit/ProductModules/PM_EnergyMeterSw\PM_EnergyMeterSwTable.c **** #include <string.h> /* memset */
   9:C:/Workspace/FW_Inertia/branch_indesit/ProductModules/PM_EnergyMeterSw\PM_EnergyMeterSwTable.c **** 
  10:C:/Workspace/FW_Inertia/branch_indesit/ProductModules/PM_EnergyMeterSw\PM_EnergyMeterSwTable.c **** 
  11:C:/Workspace/FW_Inertia/branch_indesit/ProductModules/PM_EnergyMeterSw\PM_EnergyMeterSwTable.c **** 
  12:C:/Workspace/FW_Inertia/branch_indesit/ProductModules/PM_EnergyMeterSw\PM_EnergyMeterSwTable.c **** /* ******************* */
  13:C:/Workspace/FW_Inertia/branch_indesit/ProductModules/PM_EnergyMeterSw\PM_EnergyMeterSwTable.c **** /* Function prototypes */
  14:C:/Workspace/FW_Inertia/branch_indesit/ProductModules/PM_EnergyMeterSw\PM_EnergyMeterSwTable.c **** /* ******************* */
  15:C:/Workspace/FW_Inertia/branch_indesit/ProductModules/PM_EnergyMeterSw\PM_EnergyMeterSwTable.c **** 
  16:C:/Workspace/FW_Inertia/branch_indesit/ProductModules/PM_EnergyMeterSw\PM_EnergyMeterSwTable.c **** 
  17:C:/Workspace/FW_Inertia/branch_indesit/ProductModules/PM_EnergyMeterSw\PM_EnergyMeterSwTable.c **** /**
  18:C:/Workspace/FW_Inertia/branch_indesit/ProductModules/PM_EnergyMeterSw\PM_EnergyMeterSwTable.c ****   This function find, in the table, the Y (Temperature) curves including the Yx value
  19:C:/Workspace/FW_Inertia/branch_indesit/ProductModules/PM_EnergyMeterSw\PM_EnergyMeterSwTable.c **** 
  20:C:/Workspace/FW_Inertia/branch_indesit/ProductModules/PM_EnergyMeterSw\PM_EnergyMeterSwTable.c **** \param  [in]      stTable_t*          psTable     [pointer to data table struct]
  21:C:/Workspace/FW_Inertia/branch_indesit/ProductModules/PM_EnergyMeterSw\PM_EnergyMeterSwTable.c **** \param  [in]      uint16_t            ui16Yx      [the value of temperature]
  22:C:/Workspace/FW_Inertia/branch_indesit/ProductModules/PM_EnergyMeterSw\PM_EnergyMeterSwTable.c **** \param  [out]     stTableSurfaceY_t*  psSurfaceY  [pointer to Y surface]
  23:C:/Workspace/FW_Inertia/branch_indesit/ProductModules/PM_EnergyMeterSw\PM_EnergyMeterSwTable.c **** \param  [in,out]  none
  24:C:/Workspace/FW_Inertia/branch_indesit/ProductModules/PM_EnergyMeterSw\PM_EnergyMeterSwTable.c **** 
  25:C:/Workspace/FW_Inertia/branch_indesit/ProductModules/PM_EnergyMeterSw\PM_EnergyMeterSwTable.c **** \attention \b
  26:C:/Workspace/FW_Inertia/branch_indesit/ProductModules/PM_EnergyMeterSw\PM_EnergyMeterSwTable.c **** 
  27:C:/Workspace/FW_Inertia/branch_indesit/ProductModules/PM_EnergyMeterSw\PM_EnergyMeterSwTable.c **** \return   eEMS_Err - error code
  28:C:/Workspace/FW_Inertia/branch_indesit/ProductModules/PM_EnergyMeterSw\PM_EnergyMeterSwTable.c **** 
  29:C:/Workspace/FW_Inertia/branch_indesit/ProductModules/PM_EnergyMeterSw\PM_EnergyMeterSwTable.c **** \retval   [none]
  30:C:/Workspace/FW_Inertia/branch_indesit/ProductModules/PM_EnergyMeterSw\PM_EnergyMeterSwTable.c **** 
  31:C:/Workspace/FW_Inertia/branch_indesit/ProductModules/PM_EnergyMeterSw\PM_EnergyMeterSwTable.c **** \warning  [none]
  32:C:/Workspace/FW_Inertia/branch_indesit/ProductModules/PM_EnergyMeterSw\PM_EnergyMeterSwTable.c **** 
  33:C:/Workspace/FW_Inertia/branch_indesit/ProductModules/PM_EnergyMeterSw\PM_EnergyMeterSwTable.c **** \author   Intecs
  34:C:/Workspace/FW_Inertia/branch_indesit/ProductModules/PM_EnergyMeterSw\PM_EnergyMeterSwTable.c **** \date     08-09-2011
  35:C:/Workspace/FW_Inertia/branch_indesit/ProductModules/PM_EnergyMeterSw\PM_EnergyMeterSwTable.c **** \version  1.0.0
  36:C:/Workspace/FW_Inertia/branch_indesit/ProductModules/PM_EnergyMeterSw\PM_EnergyMeterSwTable.c **** 
  37:C:/Workspace/FW_Inertia/branch_indesit/ProductModules/PM_EnergyMeterSw\PM_EnergyMeterSwTable.c **** \bug    [none]
  38:C:/Workspace/FW_Inertia/branch_indesit/ProductModules/PM_EnergyMeterSw\PM_EnergyMeterSwTable.c **** 
  39:C:/Workspace/FW_Inertia/branch_indesit/ProductModules/PM_EnergyMeterSw\PM_EnergyMeterSwTable.c **** 
  40:C:/Workspace/FW_Inertia/branch_indesit/ProductModules/PM_EnergyMeterSw\PM_EnergyMeterSwTable.c **** 
  41:C:/Workspace/FW_Inertia/branch_indesit/ProductModules/PM_EnergyMeterSw\PM_EnergyMeterSwTable.c **** \note   \par \b Nota 1:
  42:C:/Workspace/FW_Inertia/branch_indesit/ProductModules/PM_EnergyMeterSw\PM_EnergyMeterSwTable.c ****       documentation by ${Intecs}
  43:C:/Workspace/FW_Inertia/branch_indesit/ProductModules/PM_EnergyMeterSw\PM_EnergyMeterSwTable.c **** */
  44:C:/Workspace/FW_Inertia/branch_indesit/ProductModules/PM_EnergyMeterSw\PM_EnergyMeterSwTable.c **** STATIC eEMS_Err TableFindYCurves (const stTable_t* psTable, uint16_t ui16Yx,
  45:C:/Workspace/FW_Inertia/branch_indesit/ProductModules/PM_EnergyMeterSw\PM_EnergyMeterSwTable.c ****                                   stTableSurfaceY_t* psSurfaceY);
  46:C:/Workspace/FW_Inertia/branch_indesit/ProductModules/PM_EnergyMeterSw\PM_EnergyMeterSwTable.c **** 
  47:C:/Workspace/FW_Inertia/branch_indesit/ProductModules/PM_EnergyMeterSw\PM_EnergyMeterSwTable.c **** 
  48:C:/Workspace/FW_Inertia/branch_indesit/ProductModules/PM_EnergyMeterSw\PM_EnergyMeterSwTable.c **** /**
  49:C:/Workspace/FW_Inertia/branch_indesit/ProductModules/PM_EnergyMeterSw\PM_EnergyMeterSwTable.c ****   This function computes the power based on Vin and a Y curve
  50:C:/Workspace/FW_Inertia/branch_indesit/ProductModules/PM_EnergyMeterSw\PM_EnergyMeterSwTable.c **** 
  51:C:/Workspace/FW_Inertia/branch_indesit/ProductModules/PM_EnergyMeterSw\PM_EnergyMeterSwTable.c **** \param  [in]      stTable_t*        psTable     [pointer to data table struct]
  52:C:/Workspace/FW_Inertia/branch_indesit/ProductModules/PM_EnergyMeterSw\PM_EnergyMeterSwTable.c **** \param  [in]      uint16_t          ui16Vin     [the value of Vin]
  53:C:/Workspace/FW_Inertia/branch_indesit/ProductModules/PM_EnergyMeterSw\PM_EnergyMeterSwTable.c **** \param  [in]      stTableCurveY_t*  psCurveY    [pointer to Y curve]
  54:C:/Workspace/FW_Inertia/branch_indesit/ProductModules/PM_EnergyMeterSw\PM_EnergyMeterSwTable.c **** \param  [out]     uint16_t*         pui16Power  [pointer to the power calculated]
  55:C:/Workspace/FW_Inertia/branch_indesit/ProductModules/PM_EnergyMeterSw\PM_EnergyMeterSwTable.c **** \param  [in,out]  none
  56:C:/Workspace/FW_Inertia/branch_indesit/ProductModules/PM_EnergyMeterSw\PM_EnergyMeterSwTable.c **** 
  57:C:/Workspace/FW_Inertia/branch_indesit/ProductModules/PM_EnergyMeterSw\PM_EnergyMeterSwTable.c **** \attention \b
  58:C:/Workspace/FW_Inertia/branch_indesit/ProductModules/PM_EnergyMeterSw\PM_EnergyMeterSwTable.c **** 
  59:C:/Workspace/FW_Inertia/branch_indesit/ProductModules/PM_EnergyMeterSw\PM_EnergyMeterSwTable.c **** \return   eEMS_Err - error code
  60:C:/Workspace/FW_Inertia/branch_indesit/ProductModules/PM_EnergyMeterSw\PM_EnergyMeterSwTable.c **** 
  61:C:/Workspace/FW_Inertia/branch_indesit/ProductModules/PM_EnergyMeterSw\PM_EnergyMeterSwTable.c **** \retval   [none]
  62:C:/Workspace/FW_Inertia/branch_indesit/ProductModules/PM_EnergyMeterSw\PM_EnergyMeterSwTable.c **** 
  63:C:/Workspace/FW_Inertia/branch_indesit/ProductModules/PM_EnergyMeterSw\PM_EnergyMeterSwTable.c **** \warning  [none]
  64:C:/Workspace/FW_Inertia/branch_indesit/ProductModules/PM_EnergyMeterSw\PM_EnergyMeterSwTable.c **** 
  65:C:/Workspace/FW_Inertia/branch_indesit/ProductModules/PM_EnergyMeterSw\PM_EnergyMeterSwTable.c **** \author   Intecs
  66:C:/Workspace/FW_Inertia/branch_indesit/ProductModules/PM_EnergyMeterSw\PM_EnergyMeterSwTable.c **** \date     08-09-2011
  67:C:/Workspace/FW_Inertia/branch_indesit/ProductModules/PM_EnergyMeterSw\PM_EnergyMeterSwTable.c **** \version  1.0.0
  68:C:/Workspace/FW_Inertia/branch_indesit/ProductModules/PM_EnergyMeterSw\PM_EnergyMeterSwTable.c **** 
  69:C:/Workspace/FW_Inertia/branch_indesit/ProductModules/PM_EnergyMeterSw\PM_EnergyMeterSwTable.c **** \bug    [none]
  70:C:/Workspace/FW_Inertia/branch_indesit/ProductModules/PM_EnergyMeterSw\PM_EnergyMeterSwTable.c **** 
  71:C:/Workspace/FW_Inertia/branch_indesit/ProductModules/PM_EnergyMeterSw\PM_EnergyMeterSwTable.c **** 
  72:C:/Workspace/FW_Inertia/branch_indesit/ProductModules/PM_EnergyMeterSw\PM_EnergyMeterSwTable.c **** 
  73:C:/Workspace/FW_Inertia/branch_indesit/ProductModules/PM_EnergyMeterSw\PM_EnergyMeterSwTable.c **** \note   \par \b Nota 1:
  74:C:/Workspace/FW_Inertia/branch_indesit/ProductModules/PM_EnergyMeterSw\PM_EnergyMeterSwTable.c ****       documentation by ${Intecs}
  75:C:/Workspace/FW_Inertia/branch_indesit/ProductModules/PM_EnergyMeterSw\PM_EnergyMeterSwTable.c **** */
  76:C:/Workspace/FW_Inertia/branch_indesit/ProductModules/PM_EnergyMeterSw\PM_EnergyMeterSwTable.c **** STATIC eEMS_Err TableCalibSingola (const stTable_t* psTable, uint16_t ui16Vin,
  77:C:/Workspace/FW_Inertia/branch_indesit/ProductModules/PM_EnergyMeterSw\PM_EnergyMeterSwTable.c ****                                    const stTableCurveY_t* psCurveY, uint16_t* pui16Power);
  78:C:/Workspace/FW_Inertia/branch_indesit/ProductModules/PM_EnergyMeterSw\PM_EnergyMeterSwTable.c **** 
  79:C:/Workspace/FW_Inertia/branch_indesit/ProductModules/PM_EnergyMeterSw\PM_EnergyMeterSwTable.c **** 
  80:C:/Workspace/FW_Inertia/branch_indesit/ProductModules/PM_EnergyMeterSw\PM_EnergyMeterSwTable.c **** /**
  81:C:/Workspace/FW_Inertia/branch_indesit/ProductModules/PM_EnergyMeterSw\PM_EnergyMeterSwTable.c ****   This function computes the power based on Yx, Vin and the curves Y1 and Y2
  82:C:/Workspace/FW_Inertia/branch_indesit/ProductModules/PM_EnergyMeterSw\PM_EnergyMeterSwTable.c **** 
  83:C:/Workspace/FW_Inertia/branch_indesit/ProductModules/PM_EnergyMeterSw\PM_EnergyMeterSwTable.c **** \param  [in]      stTable_t*          psTable     [pointer to data table struct]
  84:C:/Workspace/FW_Inertia/branch_indesit/ProductModules/PM_EnergyMeterSw\PM_EnergyMeterSwTable.c **** \param  [in]      uint16_t            ui16Yx      [the value of temperature]
  85:C:/Workspace/FW_Inertia/branch_indesit/ProductModules/PM_EnergyMeterSw\PM_EnergyMeterSwTable.c **** \param  [in]      uint16_t            ui16Vin     [the value of Vin]
  86:C:/Workspace/FW_Inertia/branch_indesit/ProductModules/PM_EnergyMeterSw\PM_EnergyMeterSwTable.c **** \param  [in]      stTableSurfaceY_t*  psSurfaceY  [pointer to Y surface]
  87:C:/Workspace/FW_Inertia/branch_indesit/ProductModules/PM_EnergyMeterSw\PM_EnergyMeterSwTable.c **** \param  [out]     uint16_t*           pui16Power  [pointer to the power calculated]
  88:C:/Workspace/FW_Inertia/branch_indesit/ProductModules/PM_EnergyMeterSw\PM_EnergyMeterSwTable.c **** \param  [in,out]  none
  89:C:/Workspace/FW_Inertia/branch_indesit/ProductModules/PM_EnergyMeterSw\PM_EnergyMeterSwTable.c **** 
  90:C:/Workspace/FW_Inertia/branch_indesit/ProductModules/PM_EnergyMeterSw\PM_EnergyMeterSwTable.c **** \attention \b
  91:C:/Workspace/FW_Inertia/branch_indesit/ProductModules/PM_EnergyMeterSw\PM_EnergyMeterSwTable.c **** 
  92:C:/Workspace/FW_Inertia/branch_indesit/ProductModules/PM_EnergyMeterSw\PM_EnergyMeterSwTable.c **** \return   eEMS_Err - error code
  93:C:/Workspace/FW_Inertia/branch_indesit/ProductModules/PM_EnergyMeterSw\PM_EnergyMeterSwTable.c **** 
  94:C:/Workspace/FW_Inertia/branch_indesit/ProductModules/PM_EnergyMeterSw\PM_EnergyMeterSwTable.c **** \retval   [none]
  95:C:/Workspace/FW_Inertia/branch_indesit/ProductModules/PM_EnergyMeterSw\PM_EnergyMeterSwTable.c **** 
  96:C:/Workspace/FW_Inertia/branch_indesit/ProductModules/PM_EnergyMeterSw\PM_EnergyMeterSwTable.c **** \warning  [none]
  97:C:/Workspace/FW_Inertia/branch_indesit/ProductModules/PM_EnergyMeterSw\PM_EnergyMeterSwTable.c **** 
  98:C:/Workspace/FW_Inertia/branch_indesit/ProductModules/PM_EnergyMeterSw\PM_EnergyMeterSwTable.c **** \author   Intecs
  99:C:/Workspace/FW_Inertia/branch_indesit/ProductModules/PM_EnergyMeterSw\PM_EnergyMeterSwTable.c **** \date     08-09-2011
 100:C:/Workspace/FW_Inertia/branch_indesit/ProductModules/PM_EnergyMeterSw\PM_EnergyMeterSwTable.c **** \version  1.0.0
 101:C:/Workspace/FW_Inertia/branch_indesit/ProductModules/PM_EnergyMeterSw\PM_EnergyMeterSwTable.c **** 
 102:C:/Workspace/FW_Inertia/branch_indesit/ProductModules/PM_EnergyMeterSw\PM_EnergyMeterSwTable.c **** \bug    [none]
 103:C:/Workspace/FW_Inertia/branch_indesit/ProductModules/PM_EnergyMeterSw\PM_EnergyMeterSwTable.c **** 
 104:C:/Workspace/FW_Inertia/branch_indesit/ProductModules/PM_EnergyMeterSw\PM_EnergyMeterSwTable.c **** 
 105:C:/Workspace/FW_Inertia/branch_indesit/ProductModules/PM_EnergyMeterSw\PM_EnergyMeterSwTable.c **** 
 106:C:/Workspace/FW_Inertia/branch_indesit/ProductModules/PM_EnergyMeterSw\PM_EnergyMeterSwTable.c **** \note   \par \b Nota 1:
 107:C:/Workspace/FW_Inertia/branch_indesit/ProductModules/PM_EnergyMeterSw\PM_EnergyMeterSwTable.c ****       documentation by ${Intecs}
 108:C:/Workspace/FW_Inertia/branch_indesit/ProductModules/PM_EnergyMeterSw\PM_EnergyMeterSwTable.c **** */
 109:C:/Workspace/FW_Inertia/branch_indesit/ProductModules/PM_EnergyMeterSw\PM_EnergyMeterSwTable.c **** STATIC eEMS_Err TableCalibDoppia (const stTable_t* psTable, uint16_t ui16Yx, uint16_t ui16Vin,
 110:C:/Workspace/FW_Inertia/branch_indesit/ProductModules/PM_EnergyMeterSw\PM_EnergyMeterSwTable.c ****                                   const stTableSurfaceY_t* psSurfaceY, uint16_t* pui16Power);
 111:C:/Workspace/FW_Inertia/branch_indesit/ProductModules/PM_EnergyMeterSw\PM_EnergyMeterSwTable.c **** 
 112:C:/Workspace/FW_Inertia/branch_indesit/ProductModules/PM_EnergyMeterSw\PM_EnergyMeterSwTable.c **** 
 113:C:/Workspace/FW_Inertia/branch_indesit/ProductModules/PM_EnergyMeterSw\PM_EnergyMeterSwTable.c **** /**
 114:C:/Workspace/FW_Inertia/branch_indesit/ProductModules/PM_EnergyMeterSw\PM_EnergyMeterSwTable.c ****   This function Init/Reset a Y curve
 115:C:/Workspace/FW_Inertia/branch_indesit/ProductModules/PM_EnergyMeterSw\PM_EnergyMeterSwTable.c **** 
 116:C:/Workspace/FW_Inertia/branch_indesit/ProductModules/PM_EnergyMeterSw\PM_EnergyMeterSwTable.c **** \param  [in]      none
 117:C:/Workspace/FW_Inertia/branch_indesit/ProductModules/PM_EnergyMeterSw\PM_EnergyMeterSwTable.c **** \param  [out]     stTableCurveY_t*  psCurveY    [pointer to Y curve]
 118:C:/Workspace/FW_Inertia/branch_indesit/ProductModules/PM_EnergyMeterSw\PM_EnergyMeterSwTable.c **** \param  [in,out]  none
 119:C:/Workspace/FW_Inertia/branch_indesit/ProductModules/PM_EnergyMeterSw\PM_EnergyMeterSwTable.c **** 
 120:C:/Workspace/FW_Inertia/branch_indesit/ProductModules/PM_EnergyMeterSw\PM_EnergyMeterSwTable.c **** \attention \b
 121:C:/Workspace/FW_Inertia/branch_indesit/ProductModules/PM_EnergyMeterSw\PM_EnergyMeterSwTable.c **** 
 122:C:/Workspace/FW_Inertia/branch_indesit/ProductModules/PM_EnergyMeterSw\PM_EnergyMeterSwTable.c **** \return   eEMS_Err - error code
 123:C:/Workspace/FW_Inertia/branch_indesit/ProductModules/PM_EnergyMeterSw\PM_EnergyMeterSwTable.c **** 
 124:C:/Workspace/FW_Inertia/branch_indesit/ProductModules/PM_EnergyMeterSw\PM_EnergyMeterSwTable.c **** \retval   [none]
 125:C:/Workspace/FW_Inertia/branch_indesit/ProductModules/PM_EnergyMeterSw\PM_EnergyMeterSwTable.c **** 
 126:C:/Workspace/FW_Inertia/branch_indesit/ProductModules/PM_EnergyMeterSw\PM_EnergyMeterSwTable.c **** \warning  [none]
 127:C:/Workspace/FW_Inertia/branch_indesit/ProductModules/PM_EnergyMeterSw\PM_EnergyMeterSwTable.c **** 
 128:C:/Workspace/FW_Inertia/branch_indesit/ProductModules/PM_EnergyMeterSw\PM_EnergyMeterSwTable.c **** \author   Intecs
 129:C:/Workspace/FW_Inertia/branch_indesit/ProductModules/PM_EnergyMeterSw\PM_EnergyMeterSwTable.c **** \date     08-09-2011
 130:C:/Workspace/FW_Inertia/branch_indesit/ProductModules/PM_EnergyMeterSw\PM_EnergyMeterSwTable.c **** \version  1.0.0
 131:C:/Workspace/FW_Inertia/branch_indesit/ProductModules/PM_EnergyMeterSw\PM_EnergyMeterSwTable.c **** 
 132:C:/Workspace/FW_Inertia/branch_indesit/ProductModules/PM_EnergyMeterSw\PM_EnergyMeterSwTable.c **** \note   \par \b Nota 1:
 133:C:/Workspace/FW_Inertia/branch_indesit/ProductModules/PM_EnergyMeterSw\PM_EnergyMeterSwTable.c ****       documentation by ${Intecs}
 134:C:/Workspace/FW_Inertia/branch_indesit/ProductModules/PM_EnergyMeterSw\PM_EnergyMeterSwTable.c **** */
 135:C:/Workspace/FW_Inertia/branch_indesit/ProductModules/PM_EnergyMeterSw\PM_EnergyMeterSwTable.c **** STATIC void CurveInit (stTableCurveY_t* psCurveY);
 136:C:/Workspace/FW_Inertia/branch_indesit/ProductModules/PM_EnergyMeterSw\PM_EnergyMeterSwTable.c **** 
 137:C:/Workspace/FW_Inertia/branch_indesit/ProductModules/PM_EnergyMeterSw\PM_EnergyMeterSwTable.c **** 
 138:C:/Workspace/FW_Inertia/branch_indesit/ProductModules/PM_EnergyMeterSw\PM_EnergyMeterSwTable.c **** STATIC void LineInit (stCurveYLine_t* psYLine);
 139:C:/Workspace/FW_Inertia/branch_indesit/ProductModules/PM_EnergyMeterSw\PM_EnergyMeterSwTable.c **** 
 140:C:/Workspace/FW_Inertia/branch_indesit/ProductModules/PM_EnergyMeterSw\PM_EnergyMeterSwTable.c **** STATIC void PointInit (stCurveYPoint_t* psYPoint);
 141:C:/Workspace/FW_Inertia/branch_indesit/ProductModules/PM_EnergyMeterSw\PM_EnergyMeterSwTable.c **** 
 142:C:/Workspace/FW_Inertia/branch_indesit/ProductModules/PM_EnergyMeterSw\PM_EnergyMeterSwTable.c **** STATIC void PointSet (uint16_t ui16V, uint16_t ui16Pw,
 143:C:/Workspace/FW_Inertia/branch_indesit/ProductModules/PM_EnergyMeterSw\PM_EnergyMeterSwTable.c ****                       stCurveYPoint_t* psYPoint);
 144:C:/Workspace/FW_Inertia/branch_indesit/ProductModules/PM_EnergyMeterSw\PM_EnergyMeterSwTable.c **** 
 145:C:/Workspace/FW_Inertia/branch_indesit/ProductModules/PM_EnergyMeterSw\PM_EnergyMeterSwTable.c **** 
 146:C:/Workspace/FW_Inertia/branch_indesit/ProductModules/PM_EnergyMeterSw\PM_EnergyMeterSwTable.c **** STATIC eEMS_Err TableCalibDoppia_Punti (uint16_t ui16Yx,
 147:C:/Workspace/FW_Inertia/branch_indesit/ProductModules/PM_EnergyMeterSw\PM_EnergyMeterSwTable.c ****                                         uint16_t ui16Y1, uint16_t ui16P1,
 148:C:/Workspace/FW_Inertia/branch_indesit/ProductModules/PM_EnergyMeterSw\PM_EnergyMeterSwTable.c ****                                         uint16_t ui16Y2, uint16_t ui16P2,
 149:C:/Workspace/FW_Inertia/branch_indesit/ProductModules/PM_EnergyMeterSw\PM_EnergyMeterSwTable.c ****                                         uint16_t* pui16Power);
 150:C:/Workspace/FW_Inertia/branch_indesit/ProductModules/PM_EnergyMeterSw\PM_EnergyMeterSwTable.c **** 
 151:C:/Workspace/FW_Inertia/branch_indesit/ProductModules/PM_EnergyMeterSw\PM_EnergyMeterSwTable.c **** STATIC eEMS_Err TableCalibDoppia_PuntoRetta (uint16_t ui16Yx, uint16_t ui16Vin,
 152:C:/Workspace/FW_Inertia/branch_indesit/ProductModules/PM_EnergyMeterSw\PM_EnergyMeterSwTable.c ****                                              uint16_t ui16Y1, uint16_t ui16P1,
 153:C:/Workspace/FW_Inertia/branch_indesit/ProductModules/PM_EnergyMeterSw\PM_EnergyMeterSwTable.c ****                                              uint16_t ui16Y2, const stCurveYLine_t* psY2Line,
 154:C:/Workspace/FW_Inertia/branch_indesit/ProductModules/PM_EnergyMeterSw\PM_EnergyMeterSwTable.c ****                                              uint16_t* pui16Power);
 155:C:/Workspace/FW_Inertia/branch_indesit/ProductModules/PM_EnergyMeterSw\PM_EnergyMeterSwTable.c **** 
 156:C:/Workspace/FW_Inertia/branch_indesit/ProductModules/PM_EnergyMeterSw\PM_EnergyMeterSwTable.c **** STATIC eEMS_Err TableCalibDoppia_Rette (uint16_t ui16Yx, uint16_t ui16Vin,
 157:C:/Workspace/FW_Inertia/branch_indesit/ProductModules/PM_EnergyMeterSw\PM_EnergyMeterSwTable.c ****                                         uint16_t ui16Y1, const stCurveYLine_t* psY1Line,
 158:C:/Workspace/FW_Inertia/branch_indesit/ProductModules/PM_EnergyMeterSw\PM_EnergyMeterSwTable.c ****                                         uint16_t ui16Y2, const stCurveYLine_t* psY2Line,
 159:C:/Workspace/FW_Inertia/branch_indesit/ProductModules/PM_EnergyMeterSw\PM_EnergyMeterSwTable.c ****                                         uint16_t* pui16Power);
 160:C:/Workspace/FW_Inertia/branch_indesit/ProductModules/PM_EnergyMeterSw\PM_EnergyMeterSwTable.c **** 
 161:C:/Workspace/FW_Inertia/branch_indesit/ProductModules/PM_EnergyMeterSw\PM_EnergyMeterSwTable.c **** STATIC eEMS_Err CalcoloPuntoSuRetta (uint16_t ui16X,
 162:C:/Workspace/FW_Inertia/branch_indesit/ProductModules/PM_EnergyMeterSw\PM_EnergyMeterSwTable.c ****                                      uint16_t ui16X1, uint16_t ui16Z1,
 163:C:/Workspace/FW_Inertia/branch_indesit/ProductModules/PM_EnergyMeterSw\PM_EnergyMeterSwTable.c ****                                      uint16_t ui16X2, uint16_t ui16Z2,
 164:C:/Workspace/FW_Inertia/branch_indesit/ProductModules/PM_EnergyMeterSw\PM_EnergyMeterSwTable.c ****                                      uint16_t* pui16Z);
 165:C:/Workspace/FW_Inertia/branch_indesit/ProductModules/PM_EnergyMeterSw\PM_EnergyMeterSwTable.c **** 
 166:C:/Workspace/FW_Inertia/branch_indesit/ProductModules/PM_EnergyMeterSw\PM_EnergyMeterSwTable.c **** STATIC void CurveSet (uint16_t ui16Y, const uint8_t* pui8Curves, uint8_t ui8CurveNItems,
 167:C:/Workspace/FW_Inertia/branch_indesit/ProductModules/PM_EnergyMeterSw\PM_EnergyMeterSwTable.c ****                       stTableCurveY_t* psCurveY);
 168:C:/Workspace/FW_Inertia/branch_indesit/ProductModules/PM_EnergyMeterSw\PM_EnergyMeterSwTable.c **** 
 169:C:/Workspace/FW_Inertia/branch_indesit/ProductModules/PM_EnergyMeterSw\PM_EnergyMeterSwTable.c **** 
 170:C:/Workspace/FW_Inertia/branch_indesit/ProductModules/PM_EnergyMeterSw\PM_EnergyMeterSwTable.c **** STATIC eEMS_Err CurveYFindPoints (const stTable_t* psTable, const stTableCurveY_t* psCurveY,
 171:C:/Workspace/FW_Inertia/branch_indesit/ProductModules/PM_EnergyMeterSw\PM_EnergyMeterSwTable.c ****                                   uint16_t ui16Vin, stCurveYLine_t* psYLine);
 172:C:/Workspace/FW_Inertia/branch_indesit/ProductModules/PM_EnergyMeterSw\PM_EnergyMeterSwTable.c **** 
 173:C:/Workspace/FW_Inertia/branch_indesit/ProductModules/PM_EnergyMeterSw\PM_EnergyMeterSwTable.c **** 
 174:C:/Workspace/FW_Inertia/branch_indesit/ProductModules/PM_EnergyMeterSw\PM_EnergyMeterSwTable.c **** 
 175:C:/Workspace/FW_Inertia/branch_indesit/ProductModules/PM_EnergyMeterSw\PM_EnergyMeterSwTable.c **** /* ****************** */
 176:C:/Workspace/FW_Inertia/branch_indesit/ProductModules/PM_EnergyMeterSw\PM_EnergyMeterSwTable.c **** /* Exported functions */
 177:C:/Workspace/FW_Inertia/branch_indesit/ProductModules/PM_EnergyMeterSw\PM_EnergyMeterSwTable.c **** /* ****************** */
 178:C:/Workspace/FW_Inertia/branch_indesit/ProductModules/PM_EnergyMeterSw\PM_EnergyMeterSwTable.c **** 
 179:C:/Workspace/FW_Inertia/branch_indesit/ProductModules/PM_EnergyMeterSw\PM_EnergyMeterSwTable.c **** 
 180:C:/Workspace/FW_Inertia/branch_indesit/ProductModules/PM_EnergyMeterSw\PM_EnergyMeterSwTable.c **** /*---------------------------------------------
 181:C:/Workspace/FW_Inertia/branch_indesit/ProductModules/PM_EnergyMeterSw\PM_EnergyMeterSwTable.c ****  This function init a Table
 182:C:/Workspace/FW_Inertia/branch_indesit/ProductModules/PM_EnergyMeterSw\PM_EnergyMeterSwTable.c ****  ----------------------------------------------*/
 183:C:/Workspace/FW_Inertia/branch_indesit/ProductModules/PM_EnergyMeterSw\PM_EnergyMeterSwTable.c **** eEMS_Err TableInit (const uint8_t* pui8Table, uint8_t ui8TableWLen, stTable_t* psTable)
 184:C:/Workspace/FW_Inertia/branch_indesit/ProductModules/PM_EnergyMeterSw\PM_EnergyMeterSwTable.c **** {
  10                             		.loc 1 184 0
  11                             	.LVL0:
 185:C:/Workspace/FW_Inertia/branch_indesit/ProductModules/PM_EnergyMeterSw\PM_EnergyMeterSwTable.c **** 
 186:C:/Workspace/FW_Inertia/branch_indesit/ProductModules/PM_EnergyMeterSw\PM_EnergyMeterSwTable.c **** 
 187:C:/Workspace/FW_Inertia/branch_indesit/ProductModules/PM_EnergyMeterSw\PM_EnergyMeterSwTable.c **** #if CHECK_TABLE
 188:C:/Workspace/FW_Inertia/branch_indesit/ProductModules/PM_EnergyMeterSw\PM_EnergyMeterSwTable.c ****   if ((pui8Table == NULL) || (ui8TableWLen < EM_DATA_TABLE_HEADER_WLEN) || (psTable == NULL))
  12                             		.loc 1 188 0
  13 0000 61 01                   		cmp	#0, r1
  14 0002 20 2F                   		beq	.L7
  15                             		.loc 1 188 0 is_stmt 0 discriminator 1
  16 0004 5B 2E                   		movu.B	r2, r14
  17 0006 61 0E                   		cmp	#0, r14
  18 0008 20 29                   		beq	.L7
  19 000a 61 03                   		cmp	#0, r3
  20 000c 20 25                   		beq	.L7
 189:C:/Workspace/FW_Inertia/branch_indesit/ProductModules/PM_EnergyMeterSw\PM_EnergyMeterSwTable.c ****   {
 190:C:/Workspace/FW_Inertia/branch_indesit/ProductModules/PM_EnergyMeterSw\PM_EnergyMeterSwTable.c ****     return EMS_E_INVALID_VALUE;
 191:C:/Workspace/FW_Inertia/branch_indesit/ProductModules/PM_EnergyMeterSw\PM_EnergyMeterSwTable.c ****   }
 192:C:/Workspace/FW_Inertia/branch_indesit/ProductModules/PM_EnergyMeterSw\PM_EnergyMeterSwTable.c **** #endif
 193:C:/Workspace/FW_Inertia/branch_indesit/ProductModules/PM_EnergyMeterSw\PM_EnergyMeterSwTable.c **** 
 194:C:/Workspace/FW_Inertia/branch_indesit/ProductModules/PM_EnergyMeterSw\PM_EnergyMeterSwTable.c ****   /* parse N curves */
 195:C:/Workspace/FW_Inertia/branch_indesit/ProductModules/PM_EnergyMeterSw\PM_EnergyMeterSwTable.c ****   psTable->ui8NCurves = pui8Table[EM_DATA_TABLE_NUM_TABLES_OFFSET];
  21                             		.loc 1 195 0 is_stmt 1
  22 000e 58 1E                   		movu.B	[r1], r14
  23 0010 C3 3E                   		mov.B	r14, [r3]
  24                             	.LVL1:
 196:C:/Workspace/FW_Inertia/branch_indesit/ProductModules/PM_EnergyMeterSw\PM_EnergyMeterSwTable.c **** 
 197:C:/Workspace/FW_Inertia/branch_indesit/ProductModules/PM_EnergyMeterSw\PM_EnergyMeterSwTable.c ****   ui8TableWLen -= EM_DATA_TABLE_HEADER_WLEN;
 198:C:/Workspace/FW_Inertia/branch_indesit/ProductModules/PM_EnergyMeterSw\PM_EnergyMeterSwTable.c **** 
 199:C:/Workspace/FW_Inertia/branch_indesit/ProductModules/PM_EnergyMeterSw\PM_EnergyMeterSwTable.c ****   /*
 200:C:/Workspace/FW_Inertia/branch_indesit/ProductModules/PM_EnergyMeterSw\PM_EnergyMeterSwTable.c ****    * Imposta gli estremi delle curve
 201:C:/Workspace/FW_Inertia/branch_indesit/ProductModules/PM_EnergyMeterSw\PM_EnergyMeterSwTable.c ****    */
 202:C:/Workspace/FW_Inertia/branch_indesit/ProductModules/PM_EnergyMeterSw\PM_EnergyMeterSwTable.c **** 
 203:C:/Workspace/FW_Inertia/branch_indesit/ProductModules/PM_EnergyMeterSw\PM_EnergyMeterSwTable.c ****   if ((psTable->ui8NCurves == 0) || (ui8TableWLen == 0))
  25                             		.loc 1 203 0
  26 0012 61 0E                   		cmp	#0, r14
  27 0014 12                      		beq	.L3
 197:C:/Workspace/FW_Inertia/branch_indesit/ProductModules/PM_EnergyMeterSw\PM_EnergyMeterSwTable.c ****   ui8TableWLen -= EM_DATA_TABLE_HEADER_WLEN;
  28                             		.loc 1 197 0 discriminator 1
  29 0015 60 12                   		sub	#1, r2
  30                             	.LVL2:
  31                             		.loc 1 203 0 discriminator 1
  32 0017 5B 2E                   		movu.B	r2, r14
  33 0019 61 0E                   		cmp	#0, r14
  34 001b 21 0D                   		bne	.L4
  35 001d 03                      		.balign 2,3,4
  36                             	.L3:
 204:C:/Workspace/FW_Inertia/branch_indesit/ProductModules/PM_EnergyMeterSw\PM_EnergyMeterSwTable.c ****   {
 205:C:/Workspace/FW_Inertia/branch_indesit/ProductModules/PM_EnergyMeterSw\PM_EnergyMeterSwTable.c ****     psTable->ui8NCurves     = 0;
  37                             		.loc 1 205 0
  38 001e 3C 30 00                		mov.B	#0, [r3]
 206:C:/Workspace/FW_Inertia/branch_indesit/ProductModules/PM_EnergyMeterSw\PM_EnergyMeterSwTable.c ****     /*lint -epp*/
 207:C:/Workspace/FW_Inertia/branch_indesit/ProductModules/PM_EnergyMeterSw\PM_EnergyMeterSwTable.c ****     psTable->pui8Curves     = NULL;
  39                             		.loc 1 207 0
  40 0021 3E 31 00                		mov.L	#0, 4[r3]
 208:C:/Workspace/FW_Inertia/branch_indesit/ProductModules/PM_EnergyMeterSw\PM_EnergyMeterSwTable.c ****     /*lint +epp*/
 209:C:/Workspace/FW_Inertia/branch_indesit/ProductModules/PM_EnergyMeterSw\PM_EnergyMeterSwTable.c ****     psTable->ui8CurvesWLen  = 0;
  41                             		.loc 1 209 0
  42 0024 3C 38 00                		mov.B	#0, 8[r3]
  43 0027 0F                      		bra	.L11
  44                             	.L4:
 210:C:/Workspace/FW_Inertia/branch_indesit/ProductModules/PM_EnergyMeterSw\PM_EnergyMeterSwTable.c ****   }
 211:C:/Workspace/FW_Inertia/branch_indesit/ProductModules/PM_EnergyMeterSw\PM_EnergyMeterSwTable.c ****   else
 212:C:/Workspace/FW_Inertia/branch_indesit/ProductModules/PM_EnergyMeterSw\PM_EnergyMeterSwTable.c ****   { /* (psTable->ui8NCurves > 0) && (ui8TableWLen > 0) */
 213:C:/Workspace/FW_Inertia/branch_indesit/ProductModules/PM_EnergyMeterSw\PM_EnergyMeterSwTable.c ****     psTable->pui8Curves     = (uint8_t*)&pui8Table[2 * EM_DATA_TABLE_HEADER_WLEN];
  45                             		.loc 1 213 0
  46 0028 62 21                   		add	#2, r1
  47                             	.LVL3:
  48 002a A0 39                   		mov.L	r1, 4[r3]
 214:C:/Workspace/FW_Inertia/branch_indesit/ProductModules/PM_EnergyMeterSw\PM_EnergyMeterSwTable.c ****     psTable->ui8CurvesWLen  = ui8TableWLen;
  49                             		.loc 1 214 0
  50 002c 82 32                   		mov.B	r2, 8[r3]
  51                             	.LVL4:
  52                             		.balign 2,3,1
  53                             	.L11:
 215:C:/Workspace/FW_Inertia/branch_indesit/ProductModules/PM_EnergyMeterSw\PM_EnergyMeterSwTable.c **** 
 216:C:/Workspace/FW_Inertia/branch_indesit/ProductModules/PM_EnergyMeterSw\PM_EnergyMeterSwTable.c **** 
 217:C:/Workspace/FW_Inertia/branch_indesit/ProductModules/PM_EnergyMeterSw\PM_EnergyMeterSwTable.c ****   }
 218:C:/Workspace/FW_Inertia/branch_indesit/ProductModules/PM_EnergyMeterSw\PM_EnergyMeterSwTable.c **** 
 219:C:/Workspace/FW_Inertia/branch_indesit/ProductModules/PM_EnergyMeterSw\PM_EnergyMeterSwTable.c ****   return EMS_E_OK;
  54                             		.loc 1 219 0
  55 002e 66 01                   		mov.L	#0, r1
  56 0030 02                      		rts
  57                             	.LVL5:
  58                             	.L7:
 190:C:/Workspace/FW_Inertia/branch_indesit/ProductModules/PM_EnergyMeterSw\PM_EnergyMeterSwTable.c ****     return EMS_E_INVALID_VALUE;
  59                             		.loc 1 190 0
  60 0031 66 31                   		mov.L	#3, r1
  61                             	.LVL6:
 220:C:/Workspace/FW_Inertia/branch_indesit/ProductModules/PM_EnergyMeterSw\PM_EnergyMeterSwTable.c **** }
  62                             		.loc 1 220 0
  63 0033 02                      		rts
  64                             	.LFE0:
  66                             		.section	.text.CurveInit,"ax",@progbits
  67                             		.global	_CurveInit
  69                             	_CurveInit:
  70                             	.LFB2:
 221:C:/Workspace/FW_Inertia/branch_indesit/ProductModules/PM_EnergyMeterSw\PM_EnergyMeterSwTable.c **** 
 222:C:/Workspace/FW_Inertia/branch_indesit/ProductModules/PM_EnergyMeterSw\PM_EnergyMeterSwTable.c **** 
 223:C:/Workspace/FW_Inertia/branch_indesit/ProductModules/PM_EnergyMeterSw\PM_EnergyMeterSwTable.c **** /*---------------------------------------------
 224:C:/Workspace/FW_Inertia/branch_indesit/ProductModules/PM_EnergyMeterSw\PM_EnergyMeterSwTable.c ****  This function calculates the power consumption
 225:C:/Workspace/FW_Inertia/branch_indesit/ProductModules/PM_EnergyMeterSw\PM_EnergyMeterSwTable.c ****  with Tables.
 226:C:/Workspace/FW_Inertia/branch_indesit/ProductModules/PM_EnergyMeterSw\PM_EnergyMeterSwTable.c ****  ----------------------------------------------*/
 227:C:/Workspace/FW_Inertia/branch_indesit/ProductModules/PM_EnergyMeterSw\PM_EnergyMeterSwTable.c **** eEMS_Err TablePower (const stTable_t* psTable, uint16_t ui16Yx, uint16_t ui16Vin, uint16_t* pui16Po
 228:C:/Workspace/FW_Inertia/branch_indesit/ProductModules/PM_EnergyMeterSw\PM_EnergyMeterSwTable.c **** {
 229:C:/Workspace/FW_Inertia/branch_indesit/ProductModules/PM_EnergyMeterSw\PM_EnergyMeterSwTable.c ****   stTableSurfaceY_t sSurface;
 230:C:/Workspace/FW_Inertia/branch_indesit/ProductModules/PM_EnergyMeterSw\PM_EnergyMeterSwTable.c ****   uint8_t ui8Result;
 231:C:/Workspace/FW_Inertia/branch_indesit/ProductModules/PM_EnergyMeterSw\PM_EnergyMeterSwTable.c **** 
 232:C:/Workspace/FW_Inertia/branch_indesit/ProductModules/PM_EnergyMeterSw\PM_EnergyMeterSwTable.c **** 
 233:C:/Workspace/FW_Inertia/branch_indesit/ProductModules/PM_EnergyMeterSw\PM_EnergyMeterSwTable.c **** #if CHECK_TABLE
 234:C:/Workspace/FW_Inertia/branch_indesit/ProductModules/PM_EnergyMeterSw\PM_EnergyMeterSwTable.c ****   if ((psTable == NULL) || (pui16Power == NULL))
 235:C:/Workspace/FW_Inertia/branch_indesit/ProductModules/PM_EnergyMeterSw\PM_EnergyMeterSwTable.c ****   {
 236:C:/Workspace/FW_Inertia/branch_indesit/ProductModules/PM_EnergyMeterSw\PM_EnergyMeterSwTable.c ****     return EMS_E_INVALID_VALUE;
 237:C:/Workspace/FW_Inertia/branch_indesit/ProductModules/PM_EnergyMeterSw\PM_EnergyMeterSwTable.c ****   }
 238:C:/Workspace/FW_Inertia/branch_indesit/ProductModules/PM_EnergyMeterSw\PM_EnergyMeterSwTable.c **** #endif
 239:C:/Workspace/FW_Inertia/branch_indesit/ProductModules/PM_EnergyMeterSw\PM_EnergyMeterSwTable.c **** 
 240:C:/Workspace/FW_Inertia/branch_indesit/ProductModules/PM_EnergyMeterSw\PM_EnergyMeterSwTable.c ****  #if TABLE_APPROX_VIN
 241:C:/Workspace/FW_Inertia/branch_indesit/ProductModules/PM_EnergyMeterSw\PM_EnergyMeterSwTable.c ****   ui16Vin >>= 8;
 242:C:/Workspace/FW_Inertia/branch_indesit/ProductModules/PM_EnergyMeterSw\PM_EnergyMeterSwTable.c ****  #endif
 243:C:/Workspace/FW_Inertia/branch_indesit/ProductModules/PM_EnergyMeterSw\PM_EnergyMeterSwTable.c **** 
 244:C:/Workspace/FW_Inertia/branch_indesit/ProductModules/PM_EnergyMeterSw\PM_EnergyMeterSwTable.c ****   /* init curves */
 245:C:/Workspace/FW_Inertia/branch_indesit/ProductModules/PM_EnergyMeterSw\PM_EnergyMeterSwTable.c ****   CurveInit(&sSurface.sCurveY1);
 246:C:/Workspace/FW_Inertia/branch_indesit/ProductModules/PM_EnergyMeterSw\PM_EnergyMeterSwTable.c ****   CurveInit(&sSurface.sCurveY2);
 247:C:/Workspace/FW_Inertia/branch_indesit/ProductModules/PM_EnergyMeterSw\PM_EnergyMeterSwTable.c **** 
 248:C:/Workspace/FW_Inertia/branch_indesit/ProductModules/PM_EnergyMeterSw\PM_EnergyMeterSwTable.c ****   /* cerca le curve che includono Yx */
 249:C:/Workspace/FW_Inertia/branch_indesit/ProductModules/PM_EnergyMeterSw\PM_EnergyMeterSwTable.c ****   ui8Result = TableFindYCurves(psTable, ui16Yx, &sSurface);
 250:C:/Workspace/FW_Inertia/branch_indesit/ProductModules/PM_EnergyMeterSw\PM_EnergyMeterSwTable.c ****   if ((ui8Result != EMS_E_OK) || (sSurface.sCurveY1.ui8Valid == 0))
 251:C:/Workspace/FW_Inertia/branch_indesit/ProductModules/PM_EnergyMeterSw\PM_EnergyMeterSwTable.c ****   {
 252:C:/Workspace/FW_Inertia/branch_indesit/ProductModules/PM_EnergyMeterSw\PM_EnergyMeterSwTable.c ****     return EMS_E_INVALID_VALUE;
 253:C:/Workspace/FW_Inertia/branch_indesit/ProductModules/PM_EnergyMeterSw\PM_EnergyMeterSwTable.c ****   }
 254:C:/Workspace/FW_Inertia/branch_indesit/ProductModules/PM_EnergyMeterSw\PM_EnergyMeterSwTable.c **** 
 255:C:/Workspace/FW_Inertia/branch_indesit/ProductModules/PM_EnergyMeterSw\PM_EnergyMeterSwTable.c ****   /* curva Y1 valida */
 256:C:/Workspace/FW_Inertia/branch_indesit/ProductModules/PM_EnergyMeterSw\PM_EnergyMeterSwTable.c **** 
 257:C:/Workspace/FW_Inertia/branch_indesit/ProductModules/PM_EnergyMeterSw\PM_EnergyMeterSwTable.c ****   /* effettua le calibrazioni */
 258:C:/Workspace/FW_Inertia/branch_indesit/ProductModules/PM_EnergyMeterSw\PM_EnergyMeterSwTable.c ****   if (sSurface.sCurveY2.ui8Valid == 0)
 259:C:/Workspace/FW_Inertia/branch_indesit/ProductModules/PM_EnergyMeterSw\PM_EnergyMeterSwTable.c ****   { /* curva Y2 non valida: calibrazione singola con Vin e curva Y1 */
 260:C:/Workspace/FW_Inertia/branch_indesit/ProductModules/PM_EnergyMeterSw\PM_EnergyMeterSwTable.c ****     return TableCalibSingola(psTable, ui16Vin, &sSurface.sCurveY1, pui16Power);
 261:C:/Workspace/FW_Inertia/branch_indesit/ProductModules/PM_EnergyMeterSw\PM_EnergyMeterSwTable.c ****   }
 262:C:/Workspace/FW_Inertia/branch_indesit/ProductModules/PM_EnergyMeterSw\PM_EnergyMeterSwTable.c ****   else
 263:C:/Workspace/FW_Inertia/branch_indesit/ProductModules/PM_EnergyMeterSw\PM_EnergyMeterSwTable.c ****   { /* curva Y2 valida: calibrazione doppia con Vin, Yx e le curve Y1 e Y2 */
 264:C:/Workspace/FW_Inertia/branch_indesit/ProductModules/PM_EnergyMeterSw\PM_EnergyMeterSwTable.c ****     return TableCalibDoppia(psTable, ui16Yx, ui16Vin, &sSurface, pui16Power);
 265:C:/Workspace/FW_Inertia/branch_indesit/ProductModules/PM_EnergyMeterSw\PM_EnergyMeterSwTable.c ****   }
 266:C:/Workspace/FW_Inertia/branch_indesit/ProductModules/PM_EnergyMeterSw\PM_EnergyMeterSwTable.c **** }
 267:C:/Workspace/FW_Inertia/branch_indesit/ProductModules/PM_EnergyMeterSw\PM_EnergyMeterSwTable.c **** 
 268:C:/Workspace/FW_Inertia/branch_indesit/ProductModules/PM_EnergyMeterSw\PM_EnergyMeterSwTable.c **** 
 269:C:/Workspace/FW_Inertia/branch_indesit/ProductModules/PM_EnergyMeterSw\PM_EnergyMeterSwTable.c **** /* ****************** */
 270:C:/Workspace/FW_Inertia/branch_indesit/ProductModules/PM_EnergyMeterSw\PM_EnergyMeterSwTable.c **** /* Static functions */
 271:C:/Workspace/FW_Inertia/branch_indesit/ProductModules/PM_EnergyMeterSw\PM_EnergyMeterSwTable.c **** /* ****************** */
 272:C:/Workspace/FW_Inertia/branch_indesit/ProductModules/PM_EnergyMeterSw\PM_EnergyMeterSwTable.c **** 
 273:C:/Workspace/FW_Inertia/branch_indesit/ProductModules/PM_EnergyMeterSw\PM_EnergyMeterSwTable.c **** 
 274:C:/Workspace/FW_Inertia/branch_indesit/ProductModules/PM_EnergyMeterSw\PM_EnergyMeterSwTable.c **** /*------------------------------------
 275:C:/Workspace/FW_Inertia/branch_indesit/ProductModules/PM_EnergyMeterSw\PM_EnergyMeterSwTable.c ****  Init/Reset a Y curve.
 276:C:/Workspace/FW_Inertia/branch_indesit/ProductModules/PM_EnergyMeterSw\PM_EnergyMeterSwTable.c ****  -------------------------------------*/
 277:C:/Workspace/FW_Inertia/branch_indesit/ProductModules/PM_EnergyMeterSw\PM_EnergyMeterSwTable.c **** void CurveInit (stTableCurveY_t* psCurveY)
 278:C:/Workspace/FW_Inertia/branch_indesit/ProductModules/PM_EnergyMeterSw\PM_EnergyMeterSwTable.c **** {
  71                             		.loc 1 278 0
  72                             	.LVL7:
 279:C:/Workspace/FW_Inertia/branch_indesit/ProductModules/PM_EnergyMeterSw\PM_EnergyMeterSwTable.c **** #if CHECK_TABLE
 280:C:/Workspace/FW_Inertia/branch_indesit/ProductModules/PM_EnergyMeterSw\PM_EnergyMeterSwTable.c ****   if (psCurveY == NULL)
  73                             		.loc 1 280 0
  74 0000 61 01                   		cmp	#0, r1
  75 0002 17                      		beq	.L12
 281:C:/Workspace/FW_Inertia/branch_indesit/ProductModules/PM_EnergyMeterSw\PM_EnergyMeterSwTable.c ****   {
 282:C:/Workspace/FW_Inertia/branch_indesit/ProductModules/PM_EnergyMeterSw\PM_EnergyMeterSwTable.c ****     return;
 283:C:/Workspace/FW_Inertia/branch_indesit/ProductModules/PM_EnergyMeterSw\PM_EnergyMeterSwTable.c ****   }
 284:C:/Workspace/FW_Inertia/branch_indesit/ProductModules/PM_EnergyMeterSw\PM_EnergyMeterSwTable.c **** #endif
 285:C:/Workspace/FW_Inertia/branch_indesit/ProductModules/PM_EnergyMeterSw\PM_EnergyMeterSwTable.c **** 
 286:C:/Workspace/FW_Inertia/branch_indesit/ProductModules/PM_EnergyMeterSw\PM_EnergyMeterSwTable.c ****   memset(psCurveY, 0, sizeof(stTableCurveY_t));
  76                             		.loc 1 286 0
  77 0003 66 C3                   		mov.L	#12, r3
  78 0005 66 02                   		mov	#0, r2
  79 0007 7F 88                   		sstr.b
  80                             	.LVL8:
  81                             	.L12:
  82 0009 02                      		rts
  83                             	.LFE2:
  85                             		.section	.text.CurveSet,"ax",@progbits
  86                             		.global	_CurveSet
  88                             	_CurveSet:
  89                             	.LFB3:
 287:C:/Workspace/FW_Inertia/branch_indesit/ProductModules/PM_EnergyMeterSw\PM_EnergyMeterSwTable.c **** }
 288:C:/Workspace/FW_Inertia/branch_indesit/ProductModules/PM_EnergyMeterSw\PM_EnergyMeterSwTable.c **** 
 289:C:/Workspace/FW_Inertia/branch_indesit/ProductModules/PM_EnergyMeterSw\PM_EnergyMeterSwTable.c **** 
 290:C:/Workspace/FW_Inertia/branch_indesit/ProductModules/PM_EnergyMeterSw\PM_EnergyMeterSwTable.c **** /**
 291:C:/Workspace/FW_Inertia/branch_indesit/ProductModules/PM_EnergyMeterSw\PM_EnergyMeterSwTable.c ****   This function set a Y curve
 292:C:/Workspace/FW_Inertia/branch_indesit/ProductModules/PM_EnergyMeterSw\PM_EnergyMeterSwTable.c **** 
 293:C:/Workspace/FW_Inertia/branch_indesit/ProductModules/PM_EnergyMeterSw\PM_EnergyMeterSwTable.c **** \param  [in]      uint16_t          ui16Y         [value of Y]
 294:C:/Workspace/FW_Inertia/branch_indesit/ProductModules/PM_EnergyMeterSw\PM_EnergyMeterSwTable.c **** \param  [in]      uint8_t*          pui8Curves    [pointer to current Y curve data area]
 295:C:/Workspace/FW_Inertia/branch_indesit/ProductModules/PM_EnergyMeterSw\PM_EnergyMeterSwTable.c **** \param  [in]      uint8_t           ui8CurveBytes [size of current Y curve data area]
 296:C:/Workspace/FW_Inertia/branch_indesit/ProductModules/PM_EnergyMeterSw\PM_EnergyMeterSwTable.c **** \param  [out]     stTableCurveY_t*  psCurveY      [pointer to Y curve]
 297:C:/Workspace/FW_Inertia/branch_indesit/ProductModules/PM_EnergyMeterSw\PM_EnergyMeterSwTable.c **** \param  [in,out]  none
 298:C:/Workspace/FW_Inertia/branch_indesit/ProductModules/PM_EnergyMeterSw\PM_EnergyMeterSwTable.c **** 
 299:C:/Workspace/FW_Inertia/branch_indesit/ProductModules/PM_EnergyMeterSw\PM_EnergyMeterSwTable.c **** \attention \b
 300:C:/Workspace/FW_Inertia/branch_indesit/ProductModules/PM_EnergyMeterSw\PM_EnergyMeterSwTable.c **** 
 301:C:/Workspace/FW_Inertia/branch_indesit/ProductModules/PM_EnergyMeterSw\PM_EnergyMeterSwTable.c **** \return   eEMS_Err - error code
 302:C:/Workspace/FW_Inertia/branch_indesit/ProductModules/PM_EnergyMeterSw\PM_EnergyMeterSwTable.c **** 
 303:C:/Workspace/FW_Inertia/branch_indesit/ProductModules/PM_EnergyMeterSw\PM_EnergyMeterSwTable.c **** \retval   [none]
 304:C:/Workspace/FW_Inertia/branch_indesit/ProductModules/PM_EnergyMeterSw\PM_EnergyMeterSwTable.c **** 
 305:C:/Workspace/FW_Inertia/branch_indesit/ProductModules/PM_EnergyMeterSw\PM_EnergyMeterSwTable.c **** \warning  [none]
 306:C:/Workspace/FW_Inertia/branch_indesit/ProductModules/PM_EnergyMeterSw\PM_EnergyMeterSwTable.c **** 
 307:C:/Workspace/FW_Inertia/branch_indesit/ProductModules/PM_EnergyMeterSw\PM_EnergyMeterSwTable.c **** \author   Intecs
 308:C:/Workspace/FW_Inertia/branch_indesit/ProductModules/PM_EnergyMeterSw\PM_EnergyMeterSwTable.c **** \date     08-09-2011
 309:C:/Workspace/FW_Inertia/branch_indesit/ProductModules/PM_EnergyMeterSw\PM_EnergyMeterSwTable.c **** \version  1.0.0
 310:C:/Workspace/FW_Inertia/branch_indesit/ProductModules/PM_EnergyMeterSw\PM_EnergyMeterSwTable.c **** 
 311:C:/Workspace/FW_Inertia/branch_indesit/ProductModules/PM_EnergyMeterSw\PM_EnergyMeterSwTable.c **** \note   \par \b Nota 1:
 312:C:/Workspace/FW_Inertia/branch_indesit/ProductModules/PM_EnergyMeterSw\PM_EnergyMeterSwTable.c ****       documentation by ${Intecs}
 313:C:/Workspace/FW_Inertia/branch_indesit/ProductModules/PM_EnergyMeterSw\PM_EnergyMeterSwTable.c **** */
 314:C:/Workspace/FW_Inertia/branch_indesit/ProductModules/PM_EnergyMeterSw\PM_EnergyMeterSwTable.c **** STATIC void CurveSet (uint16_t ui16Y, const uint8_t* pui8Curves, uint8_t ui8CurveNItems,
 315:C:/Workspace/FW_Inertia/branch_indesit/ProductModules/PM_EnergyMeterSw\PM_EnergyMeterSwTable.c ****                       stTableCurveY_t* psCurveY)
 316:C:/Workspace/FW_Inertia/branch_indesit/ProductModules/PM_EnergyMeterSw\PM_EnergyMeterSwTable.c **** {
  90                             		.loc 1 316 0
  91                             	.LVL9:
 317:C:/Workspace/FW_Inertia/branch_indesit/ProductModules/PM_EnergyMeterSw\PM_EnergyMeterSwTable.c **** #if CHECK_TABLE
 318:C:/Workspace/FW_Inertia/branch_indesit/ProductModules/PM_EnergyMeterSw\PM_EnergyMeterSwTable.c ****   if ((psCurveY == NULL) || (pui8Curves == NULL))
  92                             		.loc 1 318 0
  93 0000 61 04                   		cmp	#0, r4
  94 0002 20 18                   		beq	.L17
  95                             		.loc 1 318 0 is_stmt 0 discriminator 1
  96 0004 61 02                   		cmp	#0, r2
  97 0006 20 14                   		beq	.L17
 319:C:/Workspace/FW_Inertia/branch_indesit/ProductModules/PM_EnergyMeterSw\PM_EnergyMeterSwTable.c ****   {
 320:C:/Workspace/FW_Inertia/branch_indesit/ProductModules/PM_EnergyMeterSw\PM_EnergyMeterSwTable.c ****     return;
 321:C:/Workspace/FW_Inertia/branch_indesit/ProductModules/PM_EnergyMeterSw\PM_EnergyMeterSwTable.c ****   }
 322:C:/Workspace/FW_Inertia/branch_indesit/ProductModules/PM_EnergyMeterSw\PM_EnergyMeterSwTable.c **** #endif
 323:C:/Workspace/FW_Inertia/branch_indesit/ProductModules/PM_EnergyMeterSw\PM_EnergyMeterSwTable.c **** 
 324:C:/Workspace/FW_Inertia/branch_indesit/ProductModules/PM_EnergyMeterSw\PM_EnergyMeterSwTable.c ****   psCurveY->ui8Valid   = 1;
  98                             		.loc 1 324 0 is_stmt 1
  99 0008 3C 40 01                		mov.B	#1, [r4]
 325:C:/Workspace/FW_Inertia/branch_indesit/ProductModules/PM_EnergyMeterSw\PM_EnergyMeterSwTable.c ****   psCurveY->ui16Yvalue = ui16Y;
 100                             		.loc 1 325 0
 101 000b 90 49                   		mov.W	r1, 2[r4]
 326:C:/Workspace/FW_Inertia/branch_indesit/ProductModules/PM_EnergyMeterSw\PM_EnergyMeterSwTable.c ****   psCurveY->ui8NItems  = ui8CurveNItems;
 102                             		.loc 1 326 0
 103 000d 81 43                   		mov.B	r3, 4[r4]
 327:C:/Workspace/FW_Inertia/branch_indesit/ProductModules/PM_EnergyMeterSw\PM_EnergyMeterSwTable.c ****   /*lint -epp*/
 328:C:/Workspace/FW_Inertia/branch_indesit/ProductModules/PM_EnergyMeterSw\PM_EnergyMeterSwTable.c ****   psCurveY->pui8Item   = ((psCurveY->ui8NItems > 0) ? ((uint8_t*)pui8Curves + 2) : NULL);
 104                             		.loc 1 328 0
 105 000f 5B 33                   		movu.B	r3, r3
 106                             	.LVL10:
 107 0011 61 03                   		cmp	#0, r3
 108 0013 15                      		beq	.L19
 109                             		.loc 1 328 0 is_stmt 0 discriminator 1
 110 0014 71 23 02                		add	#2, r2, r3
 111 0017 03                      		.balign 2,3,5
 112                             	.L19:
 113                             		.loc 1 328 0 discriminator 3
 114 0018 A0 C3                   		mov.L	r3, 8[r4]
 115                             	.LVL11:
 116                             	.L17:
 117 001a 02                      		rts
 118                             	.LFE3:
 120 001b 03                      		.section	.text.TableFindYCurves,"ax",@progbits
 121                             		.global	_TableFindYCurves
 123                             	_TableFindYCurves:
 124                             	.LFB4:
 329:C:/Workspace/FW_Inertia/branch_indesit/ProductModules/PM_EnergyMeterSw\PM_EnergyMeterSwTable.c ****   /*lint -epp*/
 330:C:/Workspace/FW_Inertia/branch_indesit/ProductModules/PM_EnergyMeterSw\PM_EnergyMeterSwTable.c **** }
 331:C:/Workspace/FW_Inertia/branch_indesit/ProductModules/PM_EnergyMeterSw\PM_EnergyMeterSwTable.c **** 
 332:C:/Workspace/FW_Inertia/branch_indesit/ProductModules/PM_EnergyMeterSw\PM_EnergyMeterSwTable.c **** 
 333:C:/Workspace/FW_Inertia/branch_indesit/ProductModules/PM_EnergyMeterSw\PM_EnergyMeterSwTable.c **** /*--------------------------------------
 334:C:/Workspace/FW_Inertia/branch_indesit/ProductModules/PM_EnergyMeterSw\PM_EnergyMeterSwTable.c ****  Find, in the table, the Y (Temperature)
 335:C:/Workspace/FW_Inertia/branch_indesit/ProductModules/PM_EnergyMeterSw\PM_EnergyMeterSwTable.c ****  curves including the Yx value.
 336:C:/Workspace/FW_Inertia/branch_indesit/ProductModules/PM_EnergyMeterSw\PM_EnergyMeterSwTable.c ****  -------------------------------------*/
 337:C:/Workspace/FW_Inertia/branch_indesit/ProductModules/PM_EnergyMeterSw\PM_EnergyMeterSwTable.c **** eEMS_Err TableFindYCurves (const stTable_t* psTable, uint16_t ui16Yx, stTableSurfaceY_t* psSurfaceY
 338:C:/Workspace/FW_Inertia/branch_indesit/ProductModules/PM_EnergyMeterSw\PM_EnergyMeterSwTable.c **** {
 125                             		.loc 1 338 0 is_stmt 1
 126                             	.LVL12:
 127 0000 6E 6D                   		pushm	r6-r13
 128                             	.LCFI0:
 129 0002 60 40                   		sub	#4, r0
 130                             	.LCFI1:
 339:C:/Workspace/FW_Inertia/branch_indesit/ProductModules/PM_EnergyMeterSw\PM_EnergyMeterSwTable.c ****   uint16_t ui16CurvesLen;     /* dimensione (byte) corrente dell'area dati contenente le curve */
 340:C:/Workspace/FW_Inertia/branch_indesit/ProductModules/PM_EnergyMeterSw\PM_EnergyMeterSwTable.c ****   uint8_t ui8CurveIdx;        /* indice della curva corrente */
 341:C:/Workspace/FW_Inertia/branch_indesit/ProductModules/PM_EnergyMeterSw\PM_EnergyMeterSwTable.c ****   const uint8_t* pui8Curves;  /* puntatore all'area dati della curva corrente */
 342:C:/Workspace/FW_Inertia/branch_indesit/ProductModules/PM_EnergyMeterSw\PM_EnergyMeterSwTable.c ****   uint8_t ui8CurveNItems;     /* numero di elementi nella curva corrente */
 343:C:/Workspace/FW_Inertia/branch_indesit/ProductModules/PM_EnergyMeterSw\PM_EnergyMeterSwTable.c ****   uint8_t ui8CurveBytes;      /* dimensione dell'area dati contenente gli elementi Y e (P,V)i della
 344:C:/Workspace/FW_Inertia/branch_indesit/ProductModules/PM_EnergyMeterSw\PM_EnergyMeterSwTable.c ****   uint16_t ui16CurrentY;      /* valore di Y per la curva corrente "Curva in funzione del dato dk" 
 345:C:/Workspace/FW_Inertia/branch_indesit/ProductModules/PM_EnergyMeterSw\PM_EnergyMeterSwTable.c **** 
 346:C:/Workspace/FW_Inertia/branch_indesit/ProductModules/PM_EnergyMeterSw\PM_EnergyMeterSwTable.c **** #if CHECK_TABLE
 347:C:/Workspace/FW_Inertia/branch_indesit/ProductModules/PM_EnergyMeterSw\PM_EnergyMeterSwTable.c ****   if ((psTable == NULL) || (psSurfaceY == NULL))
 131                             		.loc 1 347 0
 132 0004 71 1B 00                		add	#0, r1, r11
 133 0007 1E                      		bne	.L28
 134                             	.LVL13:
 135                             		.balign 2,3,1
 136                             	.L30:
 348:C:/Workspace/FW_Inertia/branch_indesit/ProductModules/PM_EnergyMeterSw\PM_EnergyMeterSwTable.c ****   {
 349:C:/Workspace/FW_Inertia/branch_indesit/ProductModules/PM_EnergyMeterSw\PM_EnergyMeterSwTable.c ****     return EMS_E_INVALID_VALUE;
 137                             		.loc 1 349 0
 138 0008 66 31                   		mov.L	#3, r1
 139 000a 38 82 00                		bra	.L29
 140                             	.LVL14:
 141                             	.L28:
 347:C:/Workspace/FW_Inertia/branch_indesit/ProductModules/PM_EnergyMeterSw\PM_EnergyMeterSwTable.c ****   if ((psTable == NULL) || (psSurfaceY == NULL))
 142                             		.loc 1 347 0 discriminator 1
 143 000d 71 37 00                		add	#0, r3, r7
 144 0010 20 F8                   		beq	.L30
 350:C:/Workspace/FW_Inertia/branch_indesit/ProductModules/PM_EnergyMeterSw\PM_EnergyMeterSwTable.c ****   }
 351:C:/Workspace/FW_Inertia/branch_indesit/ProductModules/PM_EnergyMeterSw\PM_EnergyMeterSwTable.c **** #endif
 352:C:/Workspace/FW_Inertia/branch_indesit/ProductModules/PM_EnergyMeterSw\PM_EnergyMeterSwTable.c **** 
 353:C:/Workspace/FW_Inertia/branch_indesit/ProductModules/PM_EnergyMeterSw\PM_EnergyMeterSwTable.c ****   /* Recupera il puntatore alle curve */
 354:C:/Workspace/FW_Inertia/branch_indesit/ProductModules/PM_EnergyMeterSw\PM_EnergyMeterSwTable.c ****   pui8Curves = psTable->pui8Curves;
 145                             		.loc 1 354 0
 146 0012 ED BE 01                		mov.L	4[r11], r14
 147                             	.LVL15:
 355:C:/Workspace/FW_Inertia/branch_indesit/ProductModules/PM_EnergyMeterSw\PM_EnergyMeterSwTable.c **** #if CHECK_TABLE
 356:C:/Workspace/FW_Inertia/branch_indesit/ProductModules/PM_EnergyMeterSw\PM_EnergyMeterSwTable.c ****   if (pui8Curves == NULL)
 148                             		.loc 1 356 0
 149 0015 61 0E                   		cmp	#0, r14
 150 0017 20 F1                   		beq	.L30
 151 0019 DF 28                   		mov.W	r2, r8
 357:C:/Workspace/FW_Inertia/branch_indesit/ProductModules/PM_EnergyMeterSw\PM_EnergyMeterSwTable.c ****   {
 358:C:/Workspace/FW_Inertia/branch_indesit/ProductModules/PM_EnergyMeterSw\PM_EnergyMeterSwTable.c ****     return EMS_E_INVALID_VALUE;
 359:C:/Workspace/FW_Inertia/branch_indesit/ProductModules/PM_EnergyMeterSw\PM_EnergyMeterSwTable.c ****   }
 360:C:/Workspace/FW_Inertia/branch_indesit/ProductModules/PM_EnergyMeterSw\PM_EnergyMeterSwTable.c **** #endif
 361:C:/Workspace/FW_Inertia/branch_indesit/ProductModules/PM_EnergyMeterSw\PM_EnergyMeterSwTable.c **** 
 362:C:/Workspace/FW_Inertia/branch_indesit/ProductModules/PM_EnergyMeterSw\PM_EnergyMeterSwTable.c ****   /* Recupera la dimensione totale dell'area contenente le curve */
 363:C:/Workspace/FW_Inertia/branch_indesit/ProductModules/PM_EnergyMeterSw\PM_EnergyMeterSwTable.c ****   ui16CurvesLen = 2 * ((uint16_t)(psTable->ui8CurvesWLen));
 152                             		.loc 1 363 0
 153 001b 59 B5 08                		movu.B	8[r11], r5
 154 001e 4B 55                   		add	r5, r5
 155                             	.LVL16:
 364:C:/Workspace/FW_Inertia/branch_indesit/ProductModules/PM_EnergyMeterSw\PM_EnergyMeterSwTable.c **** 
 365:C:/Workspace/FW_Inertia/branch_indesit/ProductModules/PM_EnergyMeterSw\PM_EnergyMeterSwTable.c ****   /* ciclo su tutte le curve: si suppone che le curve siano memorizzate per valori di Y crescenti. 
 366:C:/Workspace/FW_Inertia/branch_indesit/ProductModules/PM_EnergyMeterSw\PM_EnergyMeterSwTable.c ****   for (ui8CurveIdx = 0; ((ui16CurvesLen > 0) && (ui8CurveIdx < psTable->ui8NCurves)); ++ui8CurveIdx
 156                             		.loc 1 366 0
 157 0020 66 0D                   		mov	#0, r13
 367:C:/Workspace/FW_Inertia/branch_indesit/ProductModules/PM_EnergyMeterSw\PM_EnergyMeterSwTable.c ****   {
 368:C:/Workspace/FW_Inertia/branch_indesit/ProductModules/PM_EnergyMeterSw\PM_EnergyMeterSwTable.c ****     /* recupera il numero di elementi della curva corrente "N = num elementi tabella dk". */
 369:C:/Workspace/FW_Inertia/branch_indesit/ProductModules/PM_EnergyMeterSw\PM_EnergyMeterSwTable.c ****     ui8CurveNItems = pui8Curves[EM_DATA_TABLE_NUM_ITEMS_OFFSET];
 370:C:/Workspace/FW_Inertia/branch_indesit/ProductModules/PM_EnergyMeterSw\PM_EnergyMeterSwTable.c **** 
 371:C:/Workspace/FW_Inertia/branch_indesit/ProductModules/PM_EnergyMeterSw\PM_EnergyMeterSwTable.c ****     /* pui8Curves punta a Y */
 372:C:/Workspace/FW_Inertia/branch_indesit/ProductModules/PM_EnergyMeterSw\PM_EnergyMeterSwTable.c ****     pui8Curves += EM_DATA_TABLE_CURVE_MIN_LEN;
 373:C:/Workspace/FW_Inertia/branch_indesit/ProductModules/PM_EnergyMeterSw\PM_EnergyMeterSwTable.c **** 
 374:C:/Workspace/FW_Inertia/branch_indesit/ProductModules/PM_EnergyMeterSw\PM_EnergyMeterSwTable.c ****     ui16CurvesLen -= EM_DATA_TABLE_CURVE_MIN_LEN;
 375:C:/Workspace/FW_Inertia/branch_indesit/ProductModules/PM_EnergyMeterSw\PM_EnergyMeterSwTable.c **** 
 376:C:/Workspace/FW_Inertia/branch_indesit/ProductModules/PM_EnergyMeterSw\PM_EnergyMeterSwTable.c ****     /* calcola la dimensione (bytes) dell'area contenente gli elementi Y e (P,V)i della curva.
 377:C:/Workspace/FW_Inertia/branch_indesit/ProductModules/PM_EnergyMeterSw\PM_EnergyMeterSwTable.c ****      * Una curva  composta da 1 word per il valore di Y, N word per i valori di potenza,
 378:C:/Workspace/FW_Inertia/branch_indesit/ProductModules/PM_EnergyMeterSw\PM_EnergyMeterSwTable.c ****      * N byte per i valori di tensione (+ un evetuale byte unused se N  dispari). */
 379:C:/Workspace/FW_Inertia/branch_indesit/ProductModules/PM_EnergyMeterSw\PM_EnergyMeterSwTable.c ****     ui8CurveBytes = 2 + (3 * ui8CurveNItems) + (ui8CurveNItems % 2);
 380:C:/Workspace/FW_Inertia/branch_indesit/ProductModules/PM_EnergyMeterSw\PM_EnergyMeterSwTable.c **** 
 381:C:/Workspace/FW_Inertia/branch_indesit/ProductModules/PM_EnergyMeterSw\PM_EnergyMeterSwTable.c **** #if CHECK_TABLE
 382:C:/Workspace/FW_Inertia/branch_indesit/ProductModules/PM_EnergyMeterSw\PM_EnergyMeterSwTable.c ****     /*
 383:C:/Workspace/FW_Inertia/branch_indesit/ProductModules/PM_EnergyMeterSw\PM_EnergyMeterSwTable.c ****      * Verifica la dimensione dell'area contenente la curva corrente:
 384:C:/Workspace/FW_Inertia/branch_indesit/ProductModules/PM_EnergyMeterSw\PM_EnergyMeterSwTable.c ****      * - non deve essere superiore alla dimensione corrente dell'area contenente le curve
 385:C:/Workspace/FW_Inertia/branch_indesit/ProductModules/PM_EnergyMeterSw\PM_EnergyMeterSwTable.c ****      * - deve essere multiplo di 2
 386:C:/Workspace/FW_Inertia/branch_indesit/ProductModules/PM_EnergyMeterSw\PM_EnergyMeterSwTable.c ****      */
 387:C:/Workspace/FW_Inertia/branch_indesit/ProductModules/PM_EnergyMeterSw\PM_EnergyMeterSwTable.c ****     if ((ui8CurveBytes > ui16CurvesLen) || ((ui8CurveBytes % 2) != 0))
 388:C:/Workspace/FW_Inertia/branch_indesit/ProductModules/PM_EnergyMeterSw\PM_EnergyMeterSwTable.c ****     {
 389:C:/Workspace/FW_Inertia/branch_indesit/ProductModules/PM_EnergyMeterSw\PM_EnergyMeterSwTable.c ****       return EMS_E_INVALID_VALUE;
 390:C:/Workspace/FW_Inertia/branch_indesit/ProductModules/PM_EnergyMeterSw\PM_EnergyMeterSwTable.c ****     }
 391:C:/Workspace/FW_Inertia/branch_indesit/ProductModules/PM_EnergyMeterSw\PM_EnergyMeterSwTable.c **** #endif
 392:C:/Workspace/FW_Inertia/branch_indesit/ProductModules/PM_EnergyMeterSw\PM_EnergyMeterSwTable.c **** 
 393:C:/Workspace/FW_Inertia/branch_indesit/ProductModules/PM_EnergyMeterSw\PM_EnergyMeterSwTable.c ****     /* Recupera il valore di Y per la curva corrente */
 394:C:/Workspace/FW_Inertia/branch_indesit/ProductModules/PM_EnergyMeterSw\PM_EnergyMeterSwTable.c ****     ui16CurrentY = *((uint16_t *)pui8Curves);
 395:C:/Workspace/FW_Inertia/branch_indesit/ProductModules/PM_EnergyMeterSw\PM_EnergyMeterSwTable.c **** 
 396:C:/Workspace/FW_Inertia/branch_indesit/ProductModules/PM_EnergyMeterSw\PM_EnergyMeterSwTable.c ****     /*
 397:C:/Workspace/FW_Inertia/branch_indesit/ProductModules/PM_EnergyMeterSw\PM_EnergyMeterSwTable.c ****      * Confronta Yx con il valore di Y della curva corrente
 398:C:/Workspace/FW_Inertia/branch_indesit/ProductModules/PM_EnergyMeterSw\PM_EnergyMeterSwTable.c ****      */
 399:C:/Workspace/FW_Inertia/branch_indesit/ProductModules/PM_EnergyMeterSw\PM_EnergyMeterSwTable.c **** 
 400:C:/Workspace/FW_Inertia/branch_indesit/ProductModules/PM_EnergyMeterSw\PM_EnergyMeterSwTable.c ****     if (ui16Yx == ui16CurrentY)
 158                             		.loc 1 400 0
 159 0022 5F 26                   		movu.W	r2, r6
 366:C:/Workspace/FW_Inertia/branch_indesit/ProductModules/PM_EnergyMeterSw\PM_EnergyMeterSwTable.c ****   for (ui8CurveIdx = 0; ((ui16CurvesLen > 0) && (ui8CurveIdx < psTable->ui8NCurves)); ++ui8CurveIdx
 160                             		.loc 1 366 0
 161 0024 2E 5A                   		bra	.L31
 162                             	.LVL17:
 163                             	.L35:
 369:C:/Workspace/FW_Inertia/branch_indesit/ProductModules/PM_EnergyMeterSw\PM_EnergyMeterSwTable.c ****     ui8CurveNItems = pui8Curves[EM_DATA_TABLE_NUM_ITEMS_OFFSET];
 164                             		.loc 1 369 0
 165 0026 CC E3                   		mov.B	[r14], r3
 166                             	.LVL18:
 372:C:/Workspace/FW_Inertia/branch_indesit/ProductModules/PM_EnergyMeterSw\PM_EnergyMeterSwTable.c ****     pui8Curves += EM_DATA_TABLE_CURVE_MIN_LEN;
 167                             		.loc 1 372 0
 168 0028 71 EA 02                		add	#2, r14, r10
 169                             	.LVL19:
 374:C:/Workspace/FW_Inertia/branch_indesit/ProductModules/PM_EnergyMeterSw\PM_EnergyMeterSwTable.c ****     ui16CurvesLen -= EM_DATA_TABLE_CURVE_MIN_LEN;
 170                             		.loc 1 374 0
 171 002b 60 25                   		sub	#2, r5
 172                             	.LVL20:
 379:C:/Workspace/FW_Inertia/branch_indesit/ProductModules/PM_EnergyMeterSw\PM_EnergyMeterSwTable.c ****     ui8CurveBytes = 2 + (3 * ui8CurveNItems) + (ui8CurveNItems % 2);
 173                             		.loc 1 379 0
 174 002d EF 31                   		mov.L	r3, r1
 175 002f 63 31                   		mul	#3, r1
 176 0031 EF 3C                   		mov.L	r3, r12
 177 0033 64 1C                   		and #1, r12
 178 0035 4B 1C                   		add	r1, r12
 179 0037 62 2C                   		add	#2, r12
 180                             	.LVL21:
 387:C:/Workspace/FW_Inertia/branch_indesit/ProductModules/PM_EnergyMeterSw\PM_EnergyMeterSwTable.c ****     if ((ui8CurveBytes > ui16CurvesLen) || ((ui8CurveBytes % 2) != 0))
 181                             		.loc 1 387 0
 182 0039 5B C9                   		movu.B	r12, r9
 183 003b 5F 54                   		movu.W	r5, r4
 184 003d 47 49                   		cmp	r4, r9
 185 003f 24 C9                   		bgtu	.L30
 387:C:/Workspace/FW_Inertia/branch_indesit/ProductModules/PM_EnergyMeterSw\PM_EnergyMeterSwTable.c ****     if ((ui8CurveBytes > ui16CurvesLen) || ((ui8CurveBytes % 2) != 0))
 186                             		.loc 1 387 0 is_stmt 0 discriminator 1
 187 0041 64 1C                   		and	#1, r12
 188                             	.LVL22:
 189 0043 21 C5                   		bne	.L30
 394:C:/Workspace/FW_Inertia/branch_indesit/ProductModules/PM_EnergyMeterSw\PM_EnergyMeterSwTable.c ****     ui16CurrentY = *((uint16_t *)pui8Curves);
 190                             		.loc 1 394 0 is_stmt 1
 191 0045 DD E1 01                		mov.W	2[r14], r1
 192                             	.LVL23:
 193                             		.loc 1 400 0
 194 0048 5F 1E                   		movu.W	r1, r14
 195 004a 47 E6                   		cmp	r14, r6
 196 004c 1F                      		bne	.L32
 401:C:/Workspace/FW_Inertia/branch_indesit/ProductModules/PM_EnergyMeterSw\PM_EnergyMeterSwTable.c ****     {
 402:C:/Workspace/FW_Inertia/branch_indesit/ProductModules/PM_EnergyMeterSw\PM_EnergyMeterSwTable.c ****       /* Trovato il valore esatto: imposta la curva Y1 ed esci */
 403:C:/Workspace/FW_Inertia/branch_indesit/ProductModules/PM_EnergyMeterSw\PM_EnergyMeterSwTable.c ****       CurveSet(ui16Yx, pui8Curves, ui8CurveNItems, &(psSurfaceY->sCurveY1));
 197                             		.loc 1 403 0
 198 004d DF 81                   		mov.W	r8, r1
 199                             	.LVL24:
 200 004f EF A2                   		mov.L	r10, r2
 201 0051 2E 15                   		bra	.L34
 202                             	.LVL25:
 203                             	.L32:
 404:C:/Workspace/FW_Inertia/branch_indesit/ProductModules/PM_EnergyMeterSw\PM_EnergyMeterSwTable.c **** 
 405:C:/Workspace/FW_Inertia/branch_indesit/ProductModules/PM_EnergyMeterSw\PM_EnergyMeterSwTable.c ****       break;
 406:C:/Workspace/FW_Inertia/branch_indesit/ProductModules/PM_EnergyMeterSw\PM_EnergyMeterSwTable.c ****     }
 407:C:/Workspace/FW_Inertia/branch_indesit/ProductModules/PM_EnergyMeterSw\PM_EnergyMeterSwTable.c **** 
 408:C:/Workspace/FW_Inertia/branch_indesit/ProductModules/PM_EnergyMeterSw\PM_EnergyMeterSwTable.c ****     if (ui16Yx < ui16CurrentY)
 204                             		.loc 1 408 0
 205 0053 22 17                   		bgeu	.L33
 409:C:/Workspace/FW_Inertia/branch_indesit/ProductModules/PM_EnergyMeterSw\PM_EnergyMeterSwTable.c ****     {
 410:C:/Workspace/FW_Inertia/branch_indesit/ProductModules/PM_EnergyMeterSw\PM_EnergyMeterSwTable.c ****       /* Il valore Yx  inferiore al valore di Y della curva corrente: fa le opportune impostazio
 411:C:/Workspace/FW_Inertia/branch_indesit/ProductModules/PM_EnergyMeterSw\PM_EnergyMeterSwTable.c **** 
 412:C:/Workspace/FW_Inertia/branch_indesit/ProductModules/PM_EnergyMeterSw\PM_EnergyMeterSwTable.c ****       if (psSurfaceY->sCurveY1.ui8Valid == 1)
 206                             		.loc 1 412 0
 207 0055 58 7B                   		movu.B	[r7], r11
 208                             	.LVL26:
 413:C:/Workspace/FW_Inertia/branch_indesit/ProductModules/PM_EnergyMeterSw\PM_EnergyMeterSwTable.c ****       {
 414:C:/Workspace/FW_Inertia/branch_indesit/ProductModules/PM_EnergyMeterSw\PM_EnergyMeterSwTable.c ****         /* E' gia' stata impostata la curva Y1: imposta la curva Y2 */
 415:C:/Workspace/FW_Inertia/branch_indesit/ProductModules/PM_EnergyMeterSw\PM_EnergyMeterSwTable.c ****         CurveSet(ui16CurrentY, pui8Curves, ui8CurveNItems, &(psSurfaceY->sCurveY2));
 209                             		.loc 1 415 0
 210 0057 EF A2                   		mov.L	r10, r2
 412:C:/Workspace/FW_Inertia/branch_indesit/ProductModules/PM_EnergyMeterSw\PM_EnergyMeterSwTable.c ****       if (psSurfaceY->sCurveY1.ui8Valid == 1)
 211                             		.loc 1 412 0
 212 0059 61 1B                   		cmp	#1, r11
 213 005b 21 0B                   		bne	.L34
 214                             	.LVL27:
 215                             		.loc 1 415 0
 216 005d 71 74 0C                		add	#12, r7, r4
 217                             	.LVL28:
 218                             		.balign 2,3,3
 219                             	.L45:
 220 0060 05 00 00 00             		bsr	_CurveSet
 221                             	.LVL29:
 222 0064 2E 26                   		bra	.L44
 223                             	.LVL30:
 224                             	.L34:
 416:C:/Workspace/FW_Inertia/branch_indesit/ProductModules/PM_EnergyMeterSw\PM_EnergyMeterSwTable.c ****       }
 417:C:/Workspace/FW_Inertia/branch_indesit/ProductModules/PM_EnergyMeterSw\PM_EnergyMeterSwTable.c ****       else
 418:C:/Workspace/FW_Inertia/branch_indesit/ProductModules/PM_EnergyMeterSw\PM_EnergyMeterSwTable.c ****       {
 419:C:/Workspace/FW_Inertia/branch_indesit/ProductModules/PM_EnergyMeterSw\PM_EnergyMeterSwTable.c ****         /* Non e' stata ancora impostata la curva Y1: impostala */
 420:C:/Workspace/FW_Inertia/branch_indesit/ProductModules/PM_EnergyMeterSw\PM_EnergyMeterSwTable.c ****         CurveSet(ui16CurrentY, pui8Curves, ui8CurveNItems, &(psSurfaceY->sCurveY1));
 225                             		.loc 1 420 0
 226 0066 EF 74                   		mov.L	r7, r4
 227 0068 2E F8                   		bra	.L45
 228                             	.LVL31:
 229                             	.L33:
 421:C:/Workspace/FW_Inertia/branch_indesit/ProductModules/PM_EnergyMeterSw\PM_EnergyMeterSwTable.c ****       }
 422:C:/Workspace/FW_Inertia/branch_indesit/ProductModules/PM_EnergyMeterSw\PM_EnergyMeterSwTable.c **** 
 423:C:/Workspace/FW_Inertia/branch_indesit/ProductModules/PM_EnergyMeterSw\PM_EnergyMeterSwTable.c ****       break;
 424:C:/Workspace/FW_Inertia/branch_indesit/ProductModules/PM_EnergyMeterSw\PM_EnergyMeterSwTable.c ****     }
 425:C:/Workspace/FW_Inertia/branch_indesit/ProductModules/PM_EnergyMeterSw\PM_EnergyMeterSwTable.c **** 
 426:C:/Workspace/FW_Inertia/branch_indesit/ProductModules/PM_EnergyMeterSw\PM_EnergyMeterSwTable.c ****     /* ui16Yx > ui16CurrentY */
 427:C:/Workspace/FW_Inertia/branch_indesit/ProductModules/PM_EnergyMeterSw\PM_EnergyMeterSwTable.c **** 
 428:C:/Workspace/FW_Inertia/branch_indesit/ProductModules/PM_EnergyMeterSw\PM_EnergyMeterSwTable.c ****     /* Il valore Yx  superiore al valore di Y della curva corrente: imposta la curva Y1 */
 429:C:/Workspace/FW_Inertia/branch_indesit/ProductModules/PM_EnergyMeterSw\PM_EnergyMeterSwTable.c ****     CurveSet(ui16CurrentY, pui8Curves, ui8CurveNItems, &(psSurfaceY->sCurveY1));
 230                             		.loc 1 429 0
 231 006a EF A2                   		mov.L	r10, r2
 232 006c EF 74                   		mov.L	r7, r4
 233 006e E3 05                   		mov.L	r5, [r0]
 234 0070 05 00 00 00             		bsr	_CurveSet
 235                             	.LVL32:
 430:C:/Workspace/FW_Inertia/branch_indesit/ProductModules/PM_EnergyMeterSw\PM_EnergyMeterSwTable.c **** 
 431:C:/Workspace/FW_Inertia/branch_indesit/ProductModules/PM_EnergyMeterSw\PM_EnergyMeterSwTable.c ****     /* Aggiorna gli estremi della curva successiva */
 432:C:/Workspace/FW_Inertia/branch_indesit/ProductModules/PM_EnergyMeterSw\PM_EnergyMeterSwTable.c ****     pui8Curves += ui8CurveBytes;
 236                             		.loc 1 432 0
 237 0074 FF 2E 9A                		add	r9, r10, r14
 238                             	.LVL33:
 433:C:/Workspace/FW_Inertia/branch_indesit/ProductModules/PM_EnergyMeterSw\PM_EnergyMeterSwTable.c ****     ui16CurvesLen -= (uint16_t)ui8CurveBytes;
 239                             		.loc 1 433 0
 240 0077 EC 05                   		mov.L	[r0], r5
 241 0079 43 95                   		sub	r9, r5
 242                             	.LVL34:
 366:C:/Workspace/FW_Inertia/branch_indesit/ProductModules/PM_EnergyMeterSw\PM_EnergyMeterSwTable.c ****   for (ui8CurveIdx = 0; ((ui16CurvesLen > 0) && (ui8CurveIdx < psTable->ui8NCurves)); ++ui8CurveIdx
 243                             		.loc 1 366 0
 244 007b 62 1D                   		add	#1, r13
 245                             	.LVL35:
 246 007d 03                      		.balign 2,3,1
 247                             	.L31:
 366:C:/Workspace/FW_Inertia/branch_indesit/ProductModules/PM_EnergyMeterSw\PM_EnergyMeterSwTable.c ****   for (ui8CurveIdx = 0; ((ui16CurvesLen > 0) && (ui8CurveIdx < psTable->ui8NCurves)); ++ui8CurveIdx
 248                             		.loc 1 366 0 is_stmt 0 discriminator 1
 249 007e 5F 51                   		movu.W	r5, r1
 250 0080 61 01                   		cmp	#0, r1
 251 0082 12                      		beq	.L29
 366:C:/Workspace/FW_Inertia/branch_indesit/ProductModules/PM_EnergyMeterSw\PM_EnergyMeterSwTable.c ****   for (ui8CurveIdx = 0; ((ui16CurvesLen > 0) && (ui8CurveIdx < psTable->ui8NCurves)); ++ui8CurveIdx
 252                             		.loc 1 366 0 discriminator 2
 253 0083 5B DC                   		movu.B	r13, r12
 254 0085 44 BC                   		cmp	[r11].UB, r12
 255 0087 23 9F                   		bltu	.L35
 256                             	.LVL36:
 257 0089 03                      		.balign 2,3,1
 258                             	.L44:
 434:C:/Workspace/FW_Inertia/branch_indesit/ProductModules/PM_EnergyMeterSw\PM_EnergyMeterSwTable.c ****   }
 435:C:/Workspace/FW_Inertia/branch_indesit/ProductModules/PM_EnergyMeterSw\PM_EnergyMeterSwTable.c **** 
 436:C:/Workspace/FW_Inertia/branch_indesit/ProductModules/PM_EnergyMeterSw\PM_EnergyMeterSwTable.c ****   return EMS_E_OK;
 259                             		.loc 1 436 0 is_stmt 1
 260 008a 66 01                   		mov.L	#0, r1
 261                             	.LVL37:
 262                             		.balign 2,3,2
 263                             	.L29:
 437:C:/Workspace/FW_Inertia/branch_indesit/ProductModules/PM_EnergyMeterSw\PM_EnergyMeterSwTable.c **** }
 264                             		.loc 1 437 0
 265 008c 3F 6D 09                		rtsd	#36, r6-r13
 266                             	.LFE4:
 268 008f 03                      		.section	.text.PointInit,"ax",@progbits
 269                             		.global	_PointInit
 271                             	_PointInit:
 272                             	.LFB5:
 438:C:/Workspace/FW_Inertia/branch_indesit/ProductModules/PM_EnergyMeterSw\PM_EnergyMeterSwTable.c **** 
 439:C:/Workspace/FW_Inertia/branch_indesit/ProductModules/PM_EnergyMeterSw\PM_EnergyMeterSwTable.c **** 
 440:C:/Workspace/FW_Inertia/branch_indesit/ProductModules/PM_EnergyMeterSw\PM_EnergyMeterSwTable.c **** /**
 441:C:/Workspace/FW_Inertia/branch_indesit/ProductModules/PM_EnergyMeterSw\PM_EnergyMeterSwTable.c ****   This function Init/Reset a Y point
 442:C:/Workspace/FW_Inertia/branch_indesit/ProductModules/PM_EnergyMeterSw\PM_EnergyMeterSwTable.c **** 
 443:C:/Workspace/FW_Inertia/branch_indesit/ProductModules/PM_EnergyMeterSw\PM_EnergyMeterSwTable.c **** \param  [in]      none
 444:C:/Workspace/FW_Inertia/branch_indesit/ProductModules/PM_EnergyMeterSw\PM_EnergyMeterSwTable.c **** \param  [out]     stCurveYPoint_t* psYPoint   [pointer to Y point]
 445:C:/Workspace/FW_Inertia/branch_indesit/ProductModules/PM_EnergyMeterSw\PM_EnergyMeterSwTable.c **** \param  [in,out]  none
 446:C:/Workspace/FW_Inertia/branch_indesit/ProductModules/PM_EnergyMeterSw\PM_EnergyMeterSwTable.c **** 
 447:C:/Workspace/FW_Inertia/branch_indesit/ProductModules/PM_EnergyMeterSw\PM_EnergyMeterSwTable.c **** \attention \b
 448:C:/Workspace/FW_Inertia/branch_indesit/ProductModules/PM_EnergyMeterSw\PM_EnergyMeterSwTable.c **** 
 449:C:/Workspace/FW_Inertia/branch_indesit/ProductModules/PM_EnergyMeterSw\PM_EnergyMeterSwTable.c **** \return   eEMS_Err - error code
 450:C:/Workspace/FW_Inertia/branch_indesit/ProductModules/PM_EnergyMeterSw\PM_EnergyMeterSwTable.c **** 
 451:C:/Workspace/FW_Inertia/branch_indesit/ProductModules/PM_EnergyMeterSw\PM_EnergyMeterSwTable.c **** \retval   [none]
 452:C:/Workspace/FW_Inertia/branch_indesit/ProductModules/PM_EnergyMeterSw\PM_EnergyMeterSwTable.c **** 
 453:C:/Workspace/FW_Inertia/branch_indesit/ProductModules/PM_EnergyMeterSw\PM_EnergyMeterSwTable.c **** \warning  [none]
 454:C:/Workspace/FW_Inertia/branch_indesit/ProductModules/PM_EnergyMeterSw\PM_EnergyMeterSwTable.c **** 
 455:C:/Workspace/FW_Inertia/branch_indesit/ProductModules/PM_EnergyMeterSw\PM_EnergyMeterSwTable.c **** \author   Intecs
 456:C:/Workspace/FW_Inertia/branch_indesit/ProductModules/PM_EnergyMeterSw\PM_EnergyMeterSwTable.c **** \date     08-09-2011
 457:C:/Workspace/FW_Inertia/branch_indesit/ProductModules/PM_EnergyMeterSw\PM_EnergyMeterSwTable.c **** \version  1.0.0
 458:C:/Workspace/FW_Inertia/branch_indesit/ProductModules/PM_EnergyMeterSw\PM_EnergyMeterSwTable.c **** 
 459:C:/Workspace/FW_Inertia/branch_indesit/ProductModules/PM_EnergyMeterSw\PM_EnergyMeterSwTable.c **** \bug    [none]
 460:C:/Workspace/FW_Inertia/branch_indesit/ProductModules/PM_EnergyMeterSw\PM_EnergyMeterSwTable.c **** 
 461:C:/Workspace/FW_Inertia/branch_indesit/ProductModules/PM_EnergyMeterSw\PM_EnergyMeterSwTable.c **** \note   \par \b Nota 1:
 462:C:/Workspace/FW_Inertia/branch_indesit/ProductModules/PM_EnergyMeterSw\PM_EnergyMeterSwTable.c ****       documentation by ${Intecs}
 463:C:/Workspace/FW_Inertia/branch_indesit/ProductModules/PM_EnergyMeterSw\PM_EnergyMeterSwTable.c **** */
 464:C:/Workspace/FW_Inertia/branch_indesit/ProductModules/PM_EnergyMeterSw\PM_EnergyMeterSwTable.c **** STATIC void PointInit (stCurveYPoint_t* psYPoint)
 465:C:/Workspace/FW_Inertia/branch_indesit/ProductModules/PM_EnergyMeterSw\PM_EnergyMeterSwTable.c **** {
 273                             		.loc 1 465 0
 274                             	.LVL38:
 466:C:/Workspace/FW_Inertia/branch_indesit/ProductModules/PM_EnergyMeterSw\PM_EnergyMeterSwTable.c **** #if CHECK_TABLE
 467:C:/Workspace/FW_Inertia/branch_indesit/ProductModules/PM_EnergyMeterSw\PM_EnergyMeterSwTable.c ****   if (psYPoint == NULL)
 275                             		.loc 1 467 0
 276 0000 61 01                   		cmp	#0, r1
 277 0002 17                      		beq	.L46
 468:C:/Workspace/FW_Inertia/branch_indesit/ProductModules/PM_EnergyMeterSw\PM_EnergyMeterSwTable.c ****   {
 469:C:/Workspace/FW_Inertia/branch_indesit/ProductModules/PM_EnergyMeterSw\PM_EnergyMeterSwTable.c ****     return;
 470:C:/Workspace/FW_Inertia/branch_indesit/ProductModules/PM_EnergyMeterSw\PM_EnergyMeterSwTable.c ****   }
 471:C:/Workspace/FW_Inertia/branch_indesit/ProductModules/PM_EnergyMeterSw\PM_EnergyMeterSwTable.c **** #endif
 472:C:/Workspace/FW_Inertia/branch_indesit/ProductModules/PM_EnergyMeterSw\PM_EnergyMeterSwTable.c **** 
 473:C:/Workspace/FW_Inertia/branch_indesit/ProductModules/PM_EnergyMeterSw\PM_EnergyMeterSwTable.c ****   memset(psYPoint, 0, sizeof(stCurveYPoint_t));
 278                             		.loc 1 473 0
 279 0003 66 63                   		mov.L	#6, r3
 280 0005 66 02                   		mov	#0, r2
 281 0007 7F 88                   		sstr.b
 282                             	.LVL39:
 283                             	.L46:
 284 0009 02                      		rts
 285                             	.LFE5:
 287                             		.section	.text.PointSet,"ax",@progbits
 288                             		.global	_PointSet
 290                             	_PointSet:
 291                             	.LFB6:
 474:C:/Workspace/FW_Inertia/branch_indesit/ProductModules/PM_EnergyMeterSw\PM_EnergyMeterSwTable.c **** }
 475:C:/Workspace/FW_Inertia/branch_indesit/ProductModules/PM_EnergyMeterSw\PM_EnergyMeterSwTable.c **** 
 476:C:/Workspace/FW_Inertia/branch_indesit/ProductModules/PM_EnergyMeterSw\PM_EnergyMeterSwTable.c **** 
 477:C:/Workspace/FW_Inertia/branch_indesit/ProductModules/PM_EnergyMeterSw\PM_EnergyMeterSwTable.c **** /**
 478:C:/Workspace/FW_Inertia/branch_indesit/ProductModules/PM_EnergyMeterSw\PM_EnergyMeterSwTable.c ****   This function set a Y point
 479:C:/Workspace/FW_Inertia/branch_indesit/ProductModules/PM_EnergyMeterSw\PM_EnergyMeterSwTable.c **** 
 480:C:/Workspace/FW_Inertia/branch_indesit/ProductModules/PM_EnergyMeterSw\PM_EnergyMeterSwTable.c **** \param  [in]      uint16_t          ui16V      [value of V]
 481:C:/Workspace/FW_Inertia/branch_indesit/ProductModules/PM_EnergyMeterSw\PM_EnergyMeterSwTable.c **** \param  [in]      uint16_t          ui16Pw     [value of P]
 482:C:/Workspace/FW_Inertia/branch_indesit/ProductModules/PM_EnergyMeterSw\PM_EnergyMeterSwTable.c **** \param  [out]     stCurveYPoint_t*  psYPoint   [pointer to Y point]
 483:C:/Workspace/FW_Inertia/branch_indesit/ProductModules/PM_EnergyMeterSw\PM_EnergyMeterSwTable.c **** \param  [in,out]  none
 484:C:/Workspace/FW_Inertia/branch_indesit/ProductModules/PM_EnergyMeterSw\PM_EnergyMeterSwTable.c **** 
 485:C:/Workspace/FW_Inertia/branch_indesit/ProductModules/PM_EnergyMeterSw\PM_EnergyMeterSwTable.c **** \attention \b
 486:C:/Workspace/FW_Inertia/branch_indesit/ProductModules/PM_EnergyMeterSw\PM_EnergyMeterSwTable.c **** 
 487:C:/Workspace/FW_Inertia/branch_indesit/ProductModules/PM_EnergyMeterSw\PM_EnergyMeterSwTable.c **** \return   eEMS_Err - error code
 488:C:/Workspace/FW_Inertia/branch_indesit/ProductModules/PM_EnergyMeterSw\PM_EnergyMeterSwTable.c **** 
 489:C:/Workspace/FW_Inertia/branch_indesit/ProductModules/PM_EnergyMeterSw\PM_EnergyMeterSwTable.c **** \retval   [none]
 490:C:/Workspace/FW_Inertia/branch_indesit/ProductModules/PM_EnergyMeterSw\PM_EnergyMeterSwTable.c **** 
 491:C:/Workspace/FW_Inertia/branch_indesit/ProductModules/PM_EnergyMeterSw\PM_EnergyMeterSwTable.c **** \warning  [none]
 492:C:/Workspace/FW_Inertia/branch_indesit/ProductModules/PM_EnergyMeterSw\PM_EnergyMeterSwTable.c **** 
 493:C:/Workspace/FW_Inertia/branch_indesit/ProductModules/PM_EnergyMeterSw\PM_EnergyMeterSwTable.c **** \author   Intecs
 494:C:/Workspace/FW_Inertia/branch_indesit/ProductModules/PM_EnergyMeterSw\PM_EnergyMeterSwTable.c **** \date     08-09-2011
 495:C:/Workspace/FW_Inertia/branch_indesit/ProductModules/PM_EnergyMeterSw\PM_EnergyMeterSwTable.c **** \version  1.0.0
 496:C:/Workspace/FW_Inertia/branch_indesit/ProductModules/PM_EnergyMeterSw\PM_EnergyMeterSwTable.c **** 
 497:C:/Workspace/FW_Inertia/branch_indesit/ProductModules/PM_EnergyMeterSw\PM_EnergyMeterSwTable.c **** \bug    [none]
 498:C:/Workspace/FW_Inertia/branch_indesit/ProductModules/PM_EnergyMeterSw\PM_EnergyMeterSwTable.c **** 
 499:C:/Workspace/FW_Inertia/branch_indesit/ProductModules/PM_EnergyMeterSw\PM_EnergyMeterSwTable.c **** 
 500:C:/Workspace/FW_Inertia/branch_indesit/ProductModules/PM_EnergyMeterSw\PM_EnergyMeterSwTable.c **** 
 501:C:/Workspace/FW_Inertia/branch_indesit/ProductModules/PM_EnergyMeterSw\PM_EnergyMeterSwTable.c **** \note   \par \b Nota 1:
 502:C:/Workspace/FW_Inertia/branch_indesit/ProductModules/PM_EnergyMeterSw\PM_EnergyMeterSwTable.c ****       documentation by ${Intecs}
 503:C:/Workspace/FW_Inertia/branch_indesit/ProductModules/PM_EnergyMeterSw\PM_EnergyMeterSwTable.c **** */
 504:C:/Workspace/FW_Inertia/branch_indesit/ProductModules/PM_EnergyMeterSw\PM_EnergyMeterSwTable.c **** STATIC void PointSet (uint16_t ui16V, uint16_t ui16Pw,
 505:C:/Workspace/FW_Inertia/branch_indesit/ProductModules/PM_EnergyMeterSw\PM_EnergyMeterSwTable.c ****                       stCurveYPoint_t* psYPoint)
 506:C:/Workspace/FW_Inertia/branch_indesit/ProductModules/PM_EnergyMeterSw\PM_EnergyMeterSwTable.c **** {
 292                             		.loc 1 506 0
 293                             	.LVL40:
 507:C:/Workspace/FW_Inertia/branch_indesit/ProductModules/PM_EnergyMeterSw\PM_EnergyMeterSwTable.c **** #if CHECK_TABLE
 508:C:/Workspace/FW_Inertia/branch_indesit/ProductModules/PM_EnergyMeterSw\PM_EnergyMeterSwTable.c ****   if (psYPoint == NULL)
 294                             		.loc 1 508 0
 295 0000 61 03                   		cmp	#0, r3
 296 0002 10                      		beq	.L51
 509:C:/Workspace/FW_Inertia/branch_indesit/ProductModules/PM_EnergyMeterSw\PM_EnergyMeterSwTable.c ****   {
 510:C:/Workspace/FW_Inertia/branch_indesit/ProductModules/PM_EnergyMeterSw\PM_EnergyMeterSwTable.c ****     return;
 511:C:/Workspace/FW_Inertia/branch_indesit/ProductModules/PM_EnergyMeterSw\PM_EnergyMeterSwTable.c ****   }
 512:C:/Workspace/FW_Inertia/branch_indesit/ProductModules/PM_EnergyMeterSw\PM_EnergyMeterSwTable.c **** #endif
 513:C:/Workspace/FW_Inertia/branch_indesit/ProductModules/PM_EnergyMeterSw\PM_EnergyMeterSwTable.c **** 
 514:C:/Workspace/FW_Inertia/branch_indesit/ProductModules/PM_EnergyMeterSw\PM_EnergyMeterSwTable.c ****   psYPoint->ui8Valid  = 1;
 297                             		.loc 1 514 0
 298 0003 3C 30 01                		mov.B	#1, [r3]
 515:C:/Workspace/FW_Inertia/branch_indesit/ProductModules/PM_EnergyMeterSw\PM_EnergyMeterSwTable.c ****   psYPoint->ui16V     = ui16V;
 299                             		.loc 1 515 0
 300 0006 90 39                   		mov.W	r1, 2[r3]
 516:C:/Workspace/FW_Inertia/branch_indesit/ProductModules/PM_EnergyMeterSw\PM_EnergyMeterSwTable.c ****   psYPoint->ui16Pw    = ui16Pw;
 301                             		.loc 1 516 0
 302 0008 90 B2                   		mov.W	r2, 4[r3]
 303                             	.L51:
 304 000a 02                      		rts
 305                             	.LFE6:
 307                             		.section	.text.LineInit,"ax",@progbits
 308                             		.global	_LineInit
 310                             	_LineInit:
 311                             	.LFB7:
 517:C:/Workspace/FW_Inertia/branch_indesit/ProductModules/PM_EnergyMeterSw\PM_EnergyMeterSwTable.c **** }
 518:C:/Workspace/FW_Inertia/branch_indesit/ProductModules/PM_EnergyMeterSw\PM_EnergyMeterSwTable.c **** 
 519:C:/Workspace/FW_Inertia/branch_indesit/ProductModules/PM_EnergyMeterSw\PM_EnergyMeterSwTable.c **** 
 520:C:/Workspace/FW_Inertia/branch_indesit/ProductModules/PM_EnergyMeterSw\PM_EnergyMeterSwTable.c **** /**
 521:C:/Workspace/FW_Inertia/branch_indesit/ProductModules/PM_EnergyMeterSw\PM_EnergyMeterSwTable.c ****   This function Init/Reset a Y line
 522:C:/Workspace/FW_Inertia/branch_indesit/ProductModules/PM_EnergyMeterSw\PM_EnergyMeterSwTable.c **** 
 523:C:/Workspace/FW_Inertia/branch_indesit/ProductModules/PM_EnergyMeterSw\PM_EnergyMeterSwTable.c **** \param  [in]      none
 524:C:/Workspace/FW_Inertia/branch_indesit/ProductModules/PM_EnergyMeterSw\PM_EnergyMeterSwTable.c **** \param  [out]     stCurveYLine_t* psYLine   [pointer to Y line]
 525:C:/Workspace/FW_Inertia/branch_indesit/ProductModules/PM_EnergyMeterSw\PM_EnergyMeterSwTable.c **** \param  [in,out]  none
 526:C:/Workspace/FW_Inertia/branch_indesit/ProductModules/PM_EnergyMeterSw\PM_EnergyMeterSwTable.c **** 
 527:C:/Workspace/FW_Inertia/branch_indesit/ProductModules/PM_EnergyMeterSw\PM_EnergyMeterSwTable.c **** \attention \b
 528:C:/Workspace/FW_Inertia/branch_indesit/ProductModules/PM_EnergyMeterSw\PM_EnergyMeterSwTable.c **** 
 529:C:/Workspace/FW_Inertia/branch_indesit/ProductModules/PM_EnergyMeterSw\PM_EnergyMeterSwTable.c **** \return   eEMS_Err - error code
 530:C:/Workspace/FW_Inertia/branch_indesit/ProductModules/PM_EnergyMeterSw\PM_EnergyMeterSwTable.c **** 
 531:C:/Workspace/FW_Inertia/branch_indesit/ProductModules/PM_EnergyMeterSw\PM_EnergyMeterSwTable.c **** \retval   [none]
 532:C:/Workspace/FW_Inertia/branch_indesit/ProductModules/PM_EnergyMeterSw\PM_EnergyMeterSwTable.c **** 
 533:C:/Workspace/FW_Inertia/branch_indesit/ProductModules/PM_EnergyMeterSw\PM_EnergyMeterSwTable.c **** \warning  [none]
 534:C:/Workspace/FW_Inertia/branch_indesit/ProductModules/PM_EnergyMeterSw\PM_EnergyMeterSwTable.c **** 
 535:C:/Workspace/FW_Inertia/branch_indesit/ProductModules/PM_EnergyMeterSw\PM_EnergyMeterSwTable.c **** \author   Intecs
 536:C:/Workspace/FW_Inertia/branch_indesit/ProductModules/PM_EnergyMeterSw\PM_EnergyMeterSwTable.c **** \date     08-09-2011
 537:C:/Workspace/FW_Inertia/branch_indesit/ProductModules/PM_EnergyMeterSw\PM_EnergyMeterSwTable.c **** \version  1.0.0
 538:C:/Workspace/FW_Inertia/branch_indesit/ProductModules/PM_EnergyMeterSw\PM_EnergyMeterSwTable.c **** 
 539:C:/Workspace/FW_Inertia/branch_indesit/ProductModules/PM_EnergyMeterSw\PM_EnergyMeterSwTable.c **** \bug    [none]
 540:C:/Workspace/FW_Inertia/branch_indesit/ProductModules/PM_EnergyMeterSw\PM_EnergyMeterSwTable.c **** 
 541:C:/Workspace/FW_Inertia/branch_indesit/ProductModules/PM_EnergyMeterSw\PM_EnergyMeterSwTable.c **** 
 542:C:/Workspace/FW_Inertia/branch_indesit/ProductModules/PM_EnergyMeterSw\PM_EnergyMeterSwTable.c **** 
 543:C:/Workspace/FW_Inertia/branch_indesit/ProductModules/PM_EnergyMeterSw\PM_EnergyMeterSwTable.c **** \note   \par \b Nota 1:
 544:C:/Workspace/FW_Inertia/branch_indesit/ProductModules/PM_EnergyMeterSw\PM_EnergyMeterSwTable.c ****       documentation by ${Intecs}
 545:C:/Workspace/FW_Inertia/branch_indesit/ProductModules/PM_EnergyMeterSw\PM_EnergyMeterSwTable.c **** */
 546:C:/Workspace/FW_Inertia/branch_indesit/ProductModules/PM_EnergyMeterSw\PM_EnergyMeterSwTable.c **** STATIC void LineInit (stCurveYLine_t* psYLine)
 547:C:/Workspace/FW_Inertia/branch_indesit/ProductModules/PM_EnergyMeterSw\PM_EnergyMeterSwTable.c **** {
 312                             		.loc 1 547 0
 313 0000 7E A7                   		push.l	r7
 314                             	.LCFI2:
 548:C:/Workspace/FW_Inertia/branch_indesit/ProductModules/PM_EnergyMeterSw\PM_EnergyMeterSwTable.c **** #if CHECK_TABLE
 549:C:/Workspace/FW_Inertia/branch_indesit/ProductModules/PM_EnergyMeterSw\PM_EnergyMeterSwTable.c ****   if (psYLine == NULL)
 315                             		.loc 1 549 0
 316 0002 71 17 00                		add	#0, r1, r7
 317 0005 20 0F                   		beq	.L56
 550:C:/Workspace/FW_Inertia/branch_indesit/ProductModules/PM_EnergyMeterSw\PM_EnergyMeterSwTable.c ****   {
 551:C:/Workspace/FW_Inertia/branch_indesit/ProductModules/PM_EnergyMeterSw\PM_EnergyMeterSwTable.c ****     return;
 552:C:/Workspace/FW_Inertia/branch_indesit/ProductModules/PM_EnergyMeterSw\PM_EnergyMeterSwTable.c ****   }
 553:C:/Workspace/FW_Inertia/branch_indesit/ProductModules/PM_EnergyMeterSw\PM_EnergyMeterSwTable.c **** #endif
 554:C:/Workspace/FW_Inertia/branch_indesit/ProductModules/PM_EnergyMeterSw\PM_EnergyMeterSwTable.c **** 
 555:C:/Workspace/FW_Inertia/branch_indesit/ProductModules/PM_EnergyMeterSw\PM_EnergyMeterSwTable.c ****   /* init points */
 556:C:/Workspace/FW_Inertia/branch_indesit/ProductModules/PM_EnergyMeterSw\PM_EnergyMeterSwTable.c ****   PointInit(&(psYLine->sPoint1));
 318                             		.loc 1 556 0
 319 0007 05 00 00 00             		bsr	_PointInit
 557:C:/Workspace/FW_Inertia/branch_indesit/ProductModules/PM_EnergyMeterSw\PM_EnergyMeterSwTable.c ****   PointInit(&(psYLine->sPoint2));
 320                             		.loc 1 557 0
 321 000b 71 71 06                		add	#6, r7, r1
 558:C:/Workspace/FW_Inertia/branch_indesit/ProductModules/PM_EnergyMeterSw\PM_EnergyMeterSwTable.c **** }
 322                             		.loc 1 558 0
 323 000e 7E B7                   		pop	r7
 557:C:/Workspace/FW_Inertia/branch_indesit/ProductModules/PM_EnergyMeterSw\PM_EnergyMeterSwTable.c ****   PointInit(&(psYLine->sPoint2));
 324                             		.loc 1 557 0
 325 0010 04 00 00 00             		bra	_PointInit
 326                             	.L56:
 327                             		.loc 1 558 0
 328 0014 3F 77 01                		rtsd	#4, r7-r7
 329                             	.LFE7:
 331                             		.section	.text.CurveYFindPoints,"ax",@progbits
 332                             		.global	_CurveYFindPoints
 334                             	_CurveYFindPoints:
 335                             	.LFB8:
 559:C:/Workspace/FW_Inertia/branch_indesit/ProductModules/PM_EnergyMeterSw\PM_EnergyMeterSwTable.c **** 
 560:C:/Workspace/FW_Inertia/branch_indesit/ProductModules/PM_EnergyMeterSw\PM_EnergyMeterSwTable.c **** 
 561:C:/Workspace/FW_Inertia/branch_indesit/ProductModules/PM_EnergyMeterSw\PM_EnergyMeterSwTable.c **** /**
 562:C:/Workspace/FW_Inertia/branch_indesit/ProductModules/PM_EnergyMeterSw\PM_EnergyMeterSwTable.c ****   This function find, in the Y (Temperature) curve, the line including the Vin value
 563:C:/Workspace/FW_Inertia/branch_indesit/ProductModules/PM_EnergyMeterSw\PM_EnergyMeterSwTable.c **** 
 564:C:/Workspace/FW_Inertia/branch_indesit/ProductModules/PM_EnergyMeterSw\PM_EnergyMeterSwTable.c **** \param  [in]      stTable_t*        psTable   [pointer to data table struct]
 565:C:/Workspace/FW_Inertia/branch_indesit/ProductModules/PM_EnergyMeterSw\PM_EnergyMeterSwTable.c **** \param  [in]      stTableCurveY_t*  psCurveY  [pointer to Y curve]
 566:C:/Workspace/FW_Inertia/branch_indesit/ProductModules/PM_EnergyMeterSw\PM_EnergyMeterSwTable.c **** \param  [in]      uint16_t          ui16Vin   [the value of Vin]
 567:C:/Workspace/FW_Inertia/branch_indesit/ProductModules/PM_EnergyMeterSw\PM_EnergyMeterSwTable.c **** \param  [out]     stCurveYLine_t*   psYLine   [pointer to Y line]
 568:C:/Workspace/FW_Inertia/branch_indesit/ProductModules/PM_EnergyMeterSw\PM_EnergyMeterSwTable.c **** \param  [in,out]  none
 569:C:/Workspace/FW_Inertia/branch_indesit/ProductModules/PM_EnergyMeterSw\PM_EnergyMeterSwTable.c **** 
 570:C:/Workspace/FW_Inertia/branch_indesit/ProductModules/PM_EnergyMeterSw\PM_EnergyMeterSwTable.c **** \attention \b
 571:C:/Workspace/FW_Inertia/branch_indesit/ProductModules/PM_EnergyMeterSw\PM_EnergyMeterSwTable.c **** 
 572:C:/Workspace/FW_Inertia/branch_indesit/ProductModules/PM_EnergyMeterSw\PM_EnergyMeterSwTable.c **** \return   eEMS_Err - error code
 573:C:/Workspace/FW_Inertia/branch_indesit/ProductModules/PM_EnergyMeterSw\PM_EnergyMeterSwTable.c **** 
 574:C:/Workspace/FW_Inertia/branch_indesit/ProductModules/PM_EnergyMeterSw\PM_EnergyMeterSwTable.c **** \retval   [none]
 575:C:/Workspace/FW_Inertia/branch_indesit/ProductModules/PM_EnergyMeterSw\PM_EnergyMeterSwTable.c **** 
 576:C:/Workspace/FW_Inertia/branch_indesit/ProductModules/PM_EnergyMeterSw\PM_EnergyMeterSwTable.c **** \warning  [none]
 577:C:/Workspace/FW_Inertia/branch_indesit/ProductModules/PM_EnergyMeterSw\PM_EnergyMeterSwTable.c **** 
 578:C:/Workspace/FW_Inertia/branch_indesit/ProductModules/PM_EnergyMeterSw\PM_EnergyMeterSwTable.c **** \author   Intecs
 579:C:/Workspace/FW_Inertia/branch_indesit/ProductModules/PM_EnergyMeterSw\PM_EnergyMeterSwTable.c **** \date     08-09-2011
 580:C:/Workspace/FW_Inertia/branch_indesit/ProductModules/PM_EnergyMeterSw\PM_EnergyMeterSwTable.c **** \version  1.0.0
 581:C:/Workspace/FW_Inertia/branch_indesit/ProductModules/PM_EnergyMeterSw\PM_EnergyMeterSwTable.c **** 
 582:C:/Workspace/FW_Inertia/branch_indesit/ProductModules/PM_EnergyMeterSw\PM_EnergyMeterSwTable.c **** \bug    [none]
 583:C:/Workspace/FW_Inertia/branch_indesit/ProductModules/PM_EnergyMeterSw\PM_EnergyMeterSwTable.c **** 
 584:C:/Workspace/FW_Inertia/branch_indesit/ProductModules/PM_EnergyMeterSw\PM_EnergyMeterSwTable.c **** 
 585:C:/Workspace/FW_Inertia/branch_indesit/ProductModules/PM_EnergyMeterSw\PM_EnergyMeterSwTable.c **** 
 586:C:/Workspace/FW_Inertia/branch_indesit/ProductModules/PM_EnergyMeterSw\PM_EnergyMeterSwTable.c **** \note   \par \b Nota 1:
 587:C:/Workspace/FW_Inertia/branch_indesit/ProductModules/PM_EnergyMeterSw\PM_EnergyMeterSwTable.c ****       documentation by ${Intecs}
 588:C:/Workspace/FW_Inertia/branch_indesit/ProductModules/PM_EnergyMeterSw\PM_EnergyMeterSwTable.c **** */
 589:C:/Workspace/FW_Inertia/branch_indesit/ProductModules/PM_EnergyMeterSw\PM_EnergyMeterSwTable.c **** STATIC eEMS_Err CurveYFindPoints (const stTable_t* psTable, const stTableCurveY_t* psCurveY,
 590:C:/Workspace/FW_Inertia/branch_indesit/ProductModules/PM_EnergyMeterSw\PM_EnergyMeterSwTable.c ****                                   uint16_t ui16Vin, stCurveYLine_t* psYLine)
 591:C:/Workspace/FW_Inertia/branch_indesit/ProductModules/PM_EnergyMeterSw\PM_EnergyMeterSwTable.c **** {
 336                             		.loc 1 591 0
 592:C:/Workspace/FW_Inertia/branch_indesit/ProductModules/PM_EnergyMeterSw\PM_EnergyMeterSwTable.c ****   uint16_t* pui16PwItem;    /* punta al primo campione P della curva (nel file di setting) */
 593:C:/Workspace/FW_Inertia/branch_indesit/ProductModules/PM_EnergyMeterSw\PM_EnergyMeterSwTable.c ****   uint8_t*  pui8VItem;      /* punta al primo campione V della curva (nel file di setting) */
 594:C:/Workspace/FW_Inertia/branch_indesit/ProductModules/PM_EnergyMeterSw\PM_EnergyMeterSwTable.c ****   uint8_t   ui8ItemIdx;     /* indice del campione corrente nella curva */
 595:C:/Workspace/FW_Inertia/branch_indesit/ProductModules/PM_EnergyMeterSw\PM_EnergyMeterSwTable.c ****   uint16_t  ui16CurrentV;   /* valore di V per la curva corrente */
 596:C:/Workspace/FW_Inertia/branch_indesit/ProductModules/PM_EnergyMeterSw\PM_EnergyMeterSwTable.c ****   uint16_t  ui16CurrentPw;  /* valore di P per la V corrente */
 597:C:/Workspace/FW_Inertia/branch_indesit/ProductModules/PM_EnergyMeterSw\PM_EnergyMeterSwTable.c **** 
 598:C:/Workspace/FW_Inertia/branch_indesit/ProductModules/PM_EnergyMeterSw\PM_EnergyMeterSwTable.c **** 
 599:C:/Workspace/FW_Inertia/branch_indesit/ProductModules/PM_EnergyMeterSw\PM_EnergyMeterSwTable.c **** #if CHECK_TABLE
 600:C:/Workspace/FW_Inertia/branch_indesit/ProductModules/PM_EnergyMeterSw\PM_EnergyMeterSwTable.c ****   if ((psTable == NULL) || (psCurveY == NULL) || (psYLine == NULL))
 337                             		.loc 1 600 0
 338 0000 61 01                   		cmp	#0, r1
 339 0002 20 6B                   		beq	.L69
 340                             		.loc 1 600 0 discriminator 1
 341 0004 61 02                   		cmp	#0, r2
 342 0006 20 67                   		beq	.L69
 343 0008 61 04                   		cmp	#0, r4
 344 000a 20 63                   		beq	.L69
 591:C:/Workspace/FW_Inertia/branch_indesit/ProductModules/PM_EnergyMeterSw\PM_EnergyMeterSwTable.c **** {
 345                             		.loc 1 591 0
 346 000c 6E 7B                   		pushm	r7-r11
 347                             	.LCFI3:
 601:C:/Workspace/FW_Inertia/branch_indesit/ProductModules/PM_EnergyMeterSw\PM_EnergyMeterSwTable.c ****   {
 602:C:/Workspace/FW_Inertia/branch_indesit/ProductModules/PM_EnergyMeterSw\PM_EnergyMeterSwTable.c ****     return EMS_E_INVALID_VALUE;
 603:C:/Workspace/FW_Inertia/branch_indesit/ProductModules/PM_EnergyMeterSw\PM_EnergyMeterSwTable.c ****   }
 604:C:/Workspace/FW_Inertia/branch_indesit/ProductModules/PM_EnergyMeterSw\PM_EnergyMeterSwTable.c **** 
 605:C:/Workspace/FW_Inertia/branch_indesit/ProductModules/PM_EnergyMeterSw\PM_EnergyMeterSwTable.c ****   if (psCurveY->ui8Valid == 0)
 348                             		.loc 1 605 0
 349 000e 58 27                   		movu.B	[r2], r7
 350 0010 61 07                   		cmp	#0, r7
 351 0012 20 5E                   		beq	.L70
 352                             	.LBB34:
 353                             	.LBB35:
 606:C:/Workspace/FW_Inertia/branch_indesit/ProductModules/PM_EnergyMeterSw\PM_EnergyMeterSwTable.c ****   {
 607:C:/Workspace/FW_Inertia/branch_indesit/ProductModules/PM_EnergyMeterSw\PM_EnergyMeterSwTable.c ****     return EMS_E_INVALID_VALUE;
 608:C:/Workspace/FW_Inertia/branch_indesit/ProductModules/PM_EnergyMeterSw\PM_EnergyMeterSwTable.c ****   }
 609:C:/Workspace/FW_Inertia/branch_indesit/ProductModules/PM_EnergyMeterSw\PM_EnergyMeterSwTable.c **** 
 610:C:/Workspace/FW_Inertia/branch_indesit/ProductModules/PM_EnergyMeterSw\PM_EnergyMeterSwTable.c ****   if (psCurveY->pui8Item == NULL)
 354                             		.loc 1 610 0
 355 0014 ED 2F 02                		mov.L	8[r2], r15
 356 0017 61 0F                   		cmp	#0, r15
 357 0019 20 57                   		beq	.L70
 611:C:/Workspace/FW_Inertia/branch_indesit/ProductModules/PM_EnergyMeterSw\PM_EnergyMeterSwTable.c ****   {
 612:C:/Workspace/FW_Inertia/branch_indesit/ProductModules/PM_EnergyMeterSw\PM_EnergyMeterSwTable.c ****     return EMS_E_INVALID_VALUE;
 613:C:/Workspace/FW_Inertia/branch_indesit/ProductModules/PM_EnergyMeterSw\PM_EnergyMeterSwTable.c ****   }
 614:C:/Workspace/FW_Inertia/branch_indesit/ProductModules/PM_EnergyMeterSw\PM_EnergyMeterSwTable.c **** #endif
 615:C:/Workspace/FW_Inertia/branch_indesit/ProductModules/PM_EnergyMeterSw\PM_EnergyMeterSwTable.c **** 
 616:C:/Workspace/FW_Inertia/branch_indesit/ProductModules/PM_EnergyMeterSw\PM_EnergyMeterSwTable.c **** 
 617:C:/Workspace/FW_Inertia/branch_indesit/ProductModules/PM_EnergyMeterSw\PM_EnergyMeterSwTable.c ****   /* Imposta i puntatori ai campioni della curva */
 618:C:/Workspace/FW_Inertia/branch_indesit/ProductModules/PM_EnergyMeterSw\PM_EnergyMeterSwTable.c ****   pui16PwItem = (uint16_t*)(psCurveY->pui8Item);
 619:C:/Workspace/FW_Inertia/branch_indesit/ProductModules/PM_EnergyMeterSw\PM_EnergyMeterSwTable.c ****   pui8VItem = (uint8_t*)(&(pui16PwItem[psCurveY->ui8NItems]));
 358                             		.loc 1 619 0
 359 001b B1 27                   		movu.B	4[r2], r7
 360 001d 4B 77                   		add	r7, r7
 361 001f FF 2B 7F                		add	r7, r15, r11
 620:C:/Workspace/FW_Inertia/branch_indesit/ProductModules/PM_EnergyMeterSw\PM_EnergyMeterSwTable.c **** 
 621:C:/Workspace/FW_Inertia/branch_indesit/ProductModules/PM_EnergyMeterSw\PM_EnergyMeterSwTable.c ****   /*
 622:C:/Workspace/FW_Inertia/branch_indesit/ProductModules/PM_EnergyMeterSw\PM_EnergyMeterSwTable.c ****    * ciclo su tutti i campioni: si suppone che i campioni siano memorizzati per valori di V crescen
 623:C:/Workspace/FW_Inertia/branch_indesit/ProductModules/PM_EnergyMeterSw\PM_EnergyMeterSwTable.c ****   for (ui8ItemIdx = 0; ui8ItemIdx < psCurveY->ui8NItems; ++ui8ItemIdx)
 362                             		.loc 1 623 0
 363 0022 66 05                   		mov	#0, r5
 624:C:/Workspace/FW_Inertia/branch_indesit/ProductModules/PM_EnergyMeterSw\PM_EnergyMeterSwTable.c ****   {
 625:C:/Workspace/FW_Inertia/branch_indesit/ProductModules/PM_EnergyMeterSw\PM_EnergyMeterSwTable.c ****     /* Recupera la potenza per il campione corrente */
 626:C:/Workspace/FW_Inertia/branch_indesit/ProductModules/PM_EnergyMeterSw\PM_EnergyMeterSwTable.c ****     ui16CurrentPw = pui16PwItem[ui8ItemIdx];
 627:C:/Workspace/FW_Inertia/branch_indesit/ProductModules/PM_EnergyMeterSw\PM_EnergyMeterSwTable.c **** 
 628:C:/Workspace/FW_Inertia/branch_indesit/ProductModules/PM_EnergyMeterSw\PM_EnergyMeterSwTable.c ****     /* Recupera la tensione per il campione corrente */
 629:C:/Workspace/FW_Inertia/branch_indesit/ProductModules/PM_EnergyMeterSw\PM_EnergyMeterSwTable.c ****    #if TABLE_APPROX_VIN
 630:C:/Workspace/FW_Inertia/branch_indesit/ProductModules/PM_EnergyMeterSw\PM_EnergyMeterSwTable.c ****     /* ui16Vin  espressa su 8 bit */
 631:C:/Workspace/FW_Inertia/branch_indesit/ProductModules/PM_EnergyMeterSw\PM_EnergyMeterSwTable.c ****     ui16CurrentV = (uint16_t)(pui8VItem[ui8ItemIdx]);
 632:C:/Workspace/FW_Inertia/branch_indesit/ProductModules/PM_EnergyMeterSw\PM_EnergyMeterSwTable.c ****    #else
 633:C:/Workspace/FW_Inertia/branch_indesit/ProductModules/PM_EnergyMeterSw\PM_EnergyMeterSwTable.c ****     /* ui16Vin  espressa su 16 bit mentre il valore di V  espresso su 8 bit, moltiplico quest
 634:C:/Workspace/FW_Inertia/branch_indesit/ProductModules/PM_EnergyMeterSw\PM_EnergyMeterSwTable.c ****     ui16CurrentV = ((uint16_t)(pui8VItem[ui8ItemIdx])) << 8;
 635:C:/Workspace/FW_Inertia/branch_indesit/ProductModules/PM_EnergyMeterSw\PM_EnergyMeterSwTable.c ****    #endif
 636:C:/Workspace/FW_Inertia/branch_indesit/ProductModules/PM_EnergyMeterSw\PM_EnergyMeterSwTable.c **** 
 637:C:/Workspace/FW_Inertia/branch_indesit/ProductModules/PM_EnergyMeterSw\PM_EnergyMeterSwTable.c **** 
 638:C:/Workspace/FW_Inertia/branch_indesit/ProductModules/PM_EnergyMeterSw\PM_EnergyMeterSwTable.c **** 
 639:C:/Workspace/FW_Inertia/branch_indesit/ProductModules/PM_EnergyMeterSw\PM_EnergyMeterSwTable.c **** 
 640:C:/Workspace/FW_Inertia/branch_indesit/ProductModules/PM_EnergyMeterSw\PM_EnergyMeterSwTable.c ****     /*
 641:C:/Workspace/FW_Inertia/branch_indesit/ProductModules/PM_EnergyMeterSw\PM_EnergyMeterSwTable.c ****      * Confronta Vin con il valore di V corrente
 642:C:/Workspace/FW_Inertia/branch_indesit/ProductModules/PM_EnergyMeterSw\PM_EnergyMeterSwTable.c ****      */
 643:C:/Workspace/FW_Inertia/branch_indesit/ProductModules/PM_EnergyMeterSw\PM_EnergyMeterSwTable.c **** 
 644:C:/Workspace/FW_Inertia/branch_indesit/ProductModules/PM_EnergyMeterSw\PM_EnergyMeterSwTable.c ****     if (ui16Vin == ui16CurrentV)
 364                             		.loc 1 644 0
 365 0024 5F 37                   		movu.W	r3, r7
 366 0026 2E 3E                   		bra	.L62
 367                             	.L66:
 626:C:/Workspace/FW_Inertia/branch_indesit/ProductModules/PM_EnergyMeterSw\PM_EnergyMeterSwTable.c ****     ui16CurrentPw = pui16PwItem[ui8ItemIdx];
 368                             		.loc 1 626 0
 369 0028 FF 2A EE                		add	r14, r14, r10
 370 002b 4B FA                   		add	r15, r10
 371 002d DC A1                   		mov.W	[r10], r1
 631:C:/Workspace/FW_Inertia/branch_indesit/ProductModules/PM_EnergyMeterSw\PM_EnergyMeterSwTable.c ****     ui16CurrentV = (uint16_t)(pui8VItem[ui8ItemIdx]);
 372                             		.loc 1 631 0
 373 002f FE CE BE                		movu.B	[r14,r11], r14
 374                             		.loc 1 644 0
 375 0032 47 E7                   		cmp	r14, r7
 376 0034 18                      		bne	.L63
 377                             	.LBB36:
 378                             	.LBB37:
 514:C:/Workspace/FW_Inertia/branch_indesit/ProductModules/PM_EnergyMeterSw\PM_EnergyMeterSwTable.c ****   psYPoint->ui8Valid  = 1;
 379                             		.loc 1 514 0
 380 0035 3C 40 01                		mov.B	#1, [r4]
 515:C:/Workspace/FW_Inertia/branch_indesit/ProductModules/PM_EnergyMeterSw\PM_EnergyMeterSwTable.c ****   psYPoint->ui16V     = ui16V;
 381                             		.loc 1 515 0
 382 0038 90 4B                   		mov.W	r3, 2[r4]
 383 003a 2E 1C                   		bra	.L76
 384                             	.L63:
 385                             	.LBE37:
 386                             	.LBE36:
 645:C:/Workspace/FW_Inertia/branch_indesit/ProductModules/PM_EnergyMeterSw\PM_EnergyMeterSwTable.c ****     {
 646:C:/Workspace/FW_Inertia/branch_indesit/ProductModules/PM_EnergyMeterSw\PM_EnergyMeterSwTable.c ****       /* Trovato il valore esatto: imposta il punto P1 della retta ed esci */
 647:C:/Workspace/FW_Inertia/branch_indesit/ProductModules/PM_EnergyMeterSw\PM_EnergyMeterSwTable.c ****       PointSet(ui16Vin, ui16CurrentPw, &(psYLine->sPoint1));
 648:C:/Workspace/FW_Inertia/branch_indesit/ProductModules/PM_EnergyMeterSw\PM_EnergyMeterSwTable.c **** 
 649:C:/Workspace/FW_Inertia/branch_indesit/ProductModules/PM_EnergyMeterSw\PM_EnergyMeterSwTable.c **** 
 650:C:/Workspace/FW_Inertia/branch_indesit/ProductModules/PM_EnergyMeterSw\PM_EnergyMeterSwTable.c **** 
 651:C:/Workspace/FW_Inertia/branch_indesit/ProductModules/PM_EnergyMeterSw\PM_EnergyMeterSwTable.c ****       break;
 652:C:/Workspace/FW_Inertia/branch_indesit/ProductModules/PM_EnergyMeterSw\PM_EnergyMeterSwTable.c ****     }
 653:C:/Workspace/FW_Inertia/branch_indesit/ProductModules/PM_EnergyMeterSw\PM_EnergyMeterSwTable.c **** 
 654:C:/Workspace/FW_Inertia/branch_indesit/ProductModules/PM_EnergyMeterSw\PM_EnergyMeterSwTable.c ****     if (ui16Vin < ui16CurrentV)
 387                             		.loc 1 654 0
 388 003c 22 1E                   		bgeu	.L64
 655:C:/Workspace/FW_Inertia/branch_indesit/ProductModules/PM_EnergyMeterSw\PM_EnergyMeterSwTable.c ****     {
 656:C:/Workspace/FW_Inertia/branch_indesit/ProductModules/PM_EnergyMeterSw\PM_EnergyMeterSwTable.c ****       /* Il valore Vin  inferiore al valore di V corrente: fa le opportune impostazioni ed esci 
 657:C:/Workspace/FW_Inertia/branch_indesit/ProductModules/PM_EnergyMeterSw\PM_EnergyMeterSwTable.c **** 
 658:C:/Workspace/FW_Inertia/branch_indesit/ProductModules/PM_EnergyMeterSw\PM_EnergyMeterSwTable.c ****       if (psYLine->sPoint1.ui8Valid == 1)
 389                             		.loc 1 658 0
 390 003e 58 43                   		movu.B	[r4], r3
 391 0040 61 13                   		cmp	#1, r3
 392 0042 21 0E                   		bne	.L65
 393                             	.LBB38:
 394                             	.LBB39:
 514:C:/Workspace/FW_Inertia/branch_indesit/ProductModules/PM_EnergyMeterSw\PM_EnergyMeterSwTable.c ****   psYPoint->ui8Valid  = 1;
 395                             		.loc 1 514 0
 396 0044 81 C3                   		mov.B	r3, 6[r4]
 515:C:/Workspace/FW_Inertia/branch_indesit/ProductModules/PM_EnergyMeterSw\PM_EnergyMeterSwTable.c ****   psYPoint->ui16V     = ui16V;
 397                             		.loc 1 515 0
 398 0046 D7 4E 04                		mov.W	r14, 8[r4]
 516:C:/Workspace/FW_Inertia/branch_indesit/ProductModules/PM_EnergyMeterSw\PM_EnergyMeterSwTable.c ****   psYPoint->ui16Pw    = ui16Pw;
 399                             		.loc 1 516 0
 400 0049 91 49                   		mov.W	r1, 10[r4]
 401 004b 03                      		.balign 2,3,1
 402                             	.L75:
 659:C:/Workspace/FW_Inertia/branch_indesit/ProductModules/PM_EnergyMeterSw\PM_EnergyMeterSwTable.c ****       {
 660:C:/Workspace/FW_Inertia/branch_indesit/ProductModules/PM_EnergyMeterSw\PM_EnergyMeterSwTable.c ****         /* E' gia' stato impostato il punto P1 della retta: imposta il punto P2 */
 661:C:/Workspace/FW_Inertia/branch_indesit/ProductModules/PM_EnergyMeterSw\PM_EnergyMeterSwTable.c ****         PointSet(ui16CurrentV, ui16CurrentPw, &(psYLine->sPoint2));
 662:C:/Workspace/FW_Inertia/branch_indesit/ProductModules/PM_EnergyMeterSw\PM_EnergyMeterSwTable.c **** 
 663:C:/Workspace/FW_Inertia/branch_indesit/ProductModules/PM_EnergyMeterSw\PM_EnergyMeterSwTable.c **** 
 664:C:/Workspace/FW_Inertia/branch_indesit/ProductModules/PM_EnergyMeterSw\PM_EnergyMeterSwTable.c ****       }
 665:C:/Workspace/FW_Inertia/branch_indesit/ProductModules/PM_EnergyMeterSw\PM_EnergyMeterSwTable.c ****       else
 666:C:/Workspace/FW_Inertia/branch_indesit/ProductModules/PM_EnergyMeterSw\PM_EnergyMeterSwTable.c ****       {
 667:C:/Workspace/FW_Inertia/branch_indesit/ProductModules/PM_EnergyMeterSw\PM_EnergyMeterSwTable.c ****         /* Non e' stata ancora impostato il punto P1 della retta: impostalo */
 668:C:/Workspace/FW_Inertia/branch_indesit/ProductModules/PM_EnergyMeterSw\PM_EnergyMeterSwTable.c ****         PointSet(ui16CurrentV, ui16CurrentPw, &(psYLine->sPoint1));
 669:C:/Workspace/FW_Inertia/branch_indesit/ProductModules/PM_EnergyMeterSw\PM_EnergyMeterSwTable.c **** 
 670:C:/Workspace/FW_Inertia/branch_indesit/ProductModules/PM_EnergyMeterSw\PM_EnergyMeterSwTable.c **** 
 671:C:/Workspace/FW_Inertia/branch_indesit/ProductModules/PM_EnergyMeterSw\PM_EnergyMeterSwTable.c ****       }
 672:C:/Workspace/FW_Inertia/branch_indesit/ProductModules/PM_EnergyMeterSw\PM_EnergyMeterSwTable.c **** 
 673:C:/Workspace/FW_Inertia/branch_indesit/ProductModules/PM_EnergyMeterSw\PM_EnergyMeterSwTable.c ****       break;
 674:C:/Workspace/FW_Inertia/branch_indesit/ProductModules/PM_EnergyMeterSw\PM_EnergyMeterSwTable.c ****     }
 675:C:/Workspace/FW_Inertia/branch_indesit/ProductModules/PM_EnergyMeterSw\PM_EnergyMeterSwTable.c **** 
 676:C:/Workspace/FW_Inertia/branch_indesit/ProductModules/PM_EnergyMeterSw\PM_EnergyMeterSwTable.c ****     /* ui16Vin > ui16CurrentV */
 677:C:/Workspace/FW_Inertia/branch_indesit/ProductModules/PM_EnergyMeterSw\PM_EnergyMeterSwTable.c **** 
 678:C:/Workspace/FW_Inertia/branch_indesit/ProductModules/PM_EnergyMeterSw\PM_EnergyMeterSwTable.c ****     /* Il valore Vin  superiore al valore di V corrente: imposta il punto P1 */
 679:C:/Workspace/FW_Inertia/branch_indesit/ProductModules/PM_EnergyMeterSw\PM_EnergyMeterSwTable.c ****     PointSet(ui16CurrentV, ui16CurrentPw, &(psYLine->sPoint1));
 680:C:/Workspace/FW_Inertia/branch_indesit/ProductModules/PM_EnergyMeterSw\PM_EnergyMeterSwTable.c **** 
 681:C:/Workspace/FW_Inertia/branch_indesit/ProductModules/PM_EnergyMeterSw\PM_EnergyMeterSwTable.c **** 
 682:C:/Workspace/FW_Inertia/branch_indesit/ProductModules/PM_EnergyMeterSw\PM_EnergyMeterSwTable.c ****     /* confronta il campione successivo */
 683:C:/Workspace/FW_Inertia/branch_indesit/ProductModules/PM_EnergyMeterSw\PM_EnergyMeterSwTable.c ****   }
 684:C:/Workspace/FW_Inertia/branch_indesit/ProductModules/PM_EnergyMeterSw\PM_EnergyMeterSwTable.c **** 
 685:C:/Workspace/FW_Inertia/branch_indesit/ProductModules/PM_EnergyMeterSw\PM_EnergyMeterSwTable.c ****   return EMS_E_OK;
 403                             		.loc 1 685 0
 404 004c 66 01                   		mov.L	#0, r1
 405 004e 2E 24                   		bra	.L60
 406                             	.L65:
 407                             	.LBE39:
 408                             	.LBE38:
 409                             	.LBB40:
 410                             	.LBB41:
 514:C:/Workspace/FW_Inertia/branch_indesit/ProductModules/PM_EnergyMeterSw\PM_EnergyMeterSwTable.c ****   psYPoint->ui8Valid  = 1;
 411                             		.loc 1 514 0
 412 0050 3C 40 01                		mov.B	#1, [r4]
 515:C:/Workspace/FW_Inertia/branch_indesit/ProductModules/PM_EnergyMeterSw\PM_EnergyMeterSwTable.c ****   psYPoint->ui16V     = ui16V;
 413                             		.loc 1 515 0
 414 0053 D7 4E 01                		mov.W	r14, 2[r4]
 415                             		.balign 2,3,5
 416                             	.L76:
 516:C:/Workspace/FW_Inertia/branch_indesit/ProductModules/PM_EnergyMeterSw\PM_EnergyMeterSwTable.c ****   psYPoint->ui16Pw    = ui16Pw;
 417                             		.loc 1 516 0
 418 0056 90 C1                   		mov.W	r1, 4[r4]
 419 0058 2E F4                   		bra	.L75
 420                             	.L64:
 421                             	.LBE41:
 422                             	.LBE40:
 423                             	.LBB42:
 424                             	.LBB43:
 514:C:/Workspace/FW_Inertia/branch_indesit/ProductModules/PM_EnergyMeterSw\PM_EnergyMeterSwTable.c ****   psYPoint->ui8Valid  = 1;
 425                             		.loc 1 514 0
 426 005a 3C 40 01                		mov.B	#1, [r4]
 515:C:/Workspace/FW_Inertia/branch_indesit/ProductModules/PM_EnergyMeterSw\PM_EnergyMeterSwTable.c ****   psYPoint->ui16V     = ui16V;
 427                             		.loc 1 515 0
 428 005d D7 4E 01                		mov.W	r14, 2[r4]
 516:C:/Workspace/FW_Inertia/branch_indesit/ProductModules/PM_EnergyMeterSw\PM_EnergyMeterSwTable.c ****   psYPoint->ui16Pw    = ui16Pw;
 429                             		.loc 1 516 0
 430 0060 90 C1                   		mov.W	r1, 4[r4]
 431                             	.LBE43:
 432                             	.LBE42:
 623:C:/Workspace/FW_Inertia/branch_indesit/ProductModules/PM_EnergyMeterSw\PM_EnergyMeterSwTable.c ****   for (ui8ItemIdx = 0; ui8ItemIdx < psCurveY->ui8NItems; ++ui8ItemIdx)
 433                             		.loc 1 623 0
 434 0062 62 15                   		add	#1, r5
 435                             		.balign 2,3,1
 436                             	.L62:
 437 0064 5B 5E                   		movu.B	r5, r14
 438 0066 45 2E 04                		cmp	4[r2].UB, r14
 439 0069 23 BF                   		bltu	.L66
 440 006b 2E E1                   		bra	.L75
 441                             	.L69:
 442                             	.LCFI4:
 443                             	.LBE35:
 444                             	.LBE34:
 602:C:/Workspace/FW_Inertia/branch_indesit/ProductModules/PM_EnergyMeterSw\PM_EnergyMeterSwTable.c ****     return EMS_E_INVALID_VALUE;
 445                             		.loc 1 602 0
 446 006d 66 31                   		mov.L	#3, r1
 447 006f 02                      		rts
 448                             	.L70:
 449                             	.LCFI5:
 450 0070 66 31                   		mov.L	#3, r1
 451                             		.balign 2,3,2
 452                             	.L60:
 686:C:/Workspace/FW_Inertia/branch_indesit/ProductModules/PM_EnergyMeterSw\PM_EnergyMeterSwTable.c **** }
 453                             		.loc 1 686 0
 454 0072 3F 7B 05                		rtsd	#20, r7-r11
 455                             	.LFE8:
 457 0075 03                      		.section	.text.CalcoloPuntoSuRetta,"ax",@progbits
 458                             		.global	_CalcoloPuntoSuRetta
 460                             	_CalcoloPuntoSuRetta:
 461                             	.LFB9:
 687:C:/Workspace/FW_Inertia/branch_indesit/ProductModules/PM_EnergyMeterSw\PM_EnergyMeterSwTable.c **** 
 688:C:/Workspace/FW_Inertia/branch_indesit/ProductModules/PM_EnergyMeterSw\PM_EnergyMeterSwTable.c **** 
 689:C:/Workspace/FW_Inertia/branch_indesit/ProductModules/PM_EnergyMeterSw\PM_EnergyMeterSwTable.c **** /**
 690:C:/Workspace/FW_Inertia/branch_indesit/ProductModules/PM_EnergyMeterSw\PM_EnergyMeterSwTable.c ****   This function computes the value of Z for a line, based on X, one point (X1,Z) and one point (X2,
 691:C:/Workspace/FW_Inertia/branch_indesit/ProductModules/PM_EnergyMeterSw\PM_EnergyMeterSwTable.c ****                                           (where X1 < X < X2)
 692:C:/Workspace/FW_Inertia/branch_indesit/ProductModules/PM_EnergyMeterSw\PM_EnergyMeterSwTable.c **** 
 693:C:/Workspace/FW_Inertia/branch_indesit/ProductModules/PM_EnergyMeterSw\PM_EnergyMeterSwTable.c **** \param  [in]      uint16_t    ui16X
 694:C:/Workspace/FW_Inertia/branch_indesit/ProductModules/PM_EnergyMeterSw\PM_EnergyMeterSwTable.c **** \param  [in]      uint16_t    ui16X1
 695:C:/Workspace/FW_Inertia/branch_indesit/ProductModules/PM_EnergyMeterSw\PM_EnergyMeterSwTable.c **** \param  [in]      uint16_t    ui16Z1
 696:C:/Workspace/FW_Inertia/branch_indesit/ProductModules/PM_EnergyMeterSw\PM_EnergyMeterSwTable.c **** \param  [in]      uint16_t    ui16X2
 697:C:/Workspace/FW_Inertia/branch_indesit/ProductModules/PM_EnergyMeterSw\PM_EnergyMeterSwTable.c **** \param  [in]      uint16_t    ui16Z2
 698:C:/Workspace/FW_Inertia/branch_indesit/ProductModules/PM_EnergyMeterSw\PM_EnergyMeterSwTable.c **** \param  [out]     uint16_t*   pui16Z
 699:C:/Workspace/FW_Inertia/branch_indesit/ProductModules/PM_EnergyMeterSw\PM_EnergyMeterSwTable.c **** \param  [in,out]  none
 700:C:/Workspace/FW_Inertia/branch_indesit/ProductModules/PM_EnergyMeterSw\PM_EnergyMeterSwTable.c **** 
 701:C:/Workspace/FW_Inertia/branch_indesit/ProductModules/PM_EnergyMeterSw\PM_EnergyMeterSwTable.c **** \attention \b
 702:C:/Workspace/FW_Inertia/branch_indesit/ProductModules/PM_EnergyMeterSw\PM_EnergyMeterSwTable.c **** 
 703:C:/Workspace/FW_Inertia/branch_indesit/ProductModules/PM_EnergyMeterSw\PM_EnergyMeterSwTable.c **** \return   eEMS_Err - error code
 704:C:/Workspace/FW_Inertia/branch_indesit/ProductModules/PM_EnergyMeterSw\PM_EnergyMeterSwTable.c **** 
 705:C:/Workspace/FW_Inertia/branch_indesit/ProductModules/PM_EnergyMeterSw\PM_EnergyMeterSwTable.c **** \retval   [none]
 706:C:/Workspace/FW_Inertia/branch_indesit/ProductModules/PM_EnergyMeterSw\PM_EnergyMeterSwTable.c **** 
 707:C:/Workspace/FW_Inertia/branch_indesit/ProductModules/PM_EnergyMeterSw\PM_EnergyMeterSwTable.c **** \warning  [none]
 708:C:/Workspace/FW_Inertia/branch_indesit/ProductModules/PM_EnergyMeterSw\PM_EnergyMeterSwTable.c **** 
 709:C:/Workspace/FW_Inertia/branch_indesit/ProductModules/PM_EnergyMeterSw\PM_EnergyMeterSwTable.c **** \author   Intecs
 710:C:/Workspace/FW_Inertia/branch_indesit/ProductModules/PM_EnergyMeterSw\PM_EnergyMeterSwTable.c **** \date     08-09-2011
 711:C:/Workspace/FW_Inertia/branch_indesit/ProductModules/PM_EnergyMeterSw\PM_EnergyMeterSwTable.c **** \version  1.0.0
 712:C:/Workspace/FW_Inertia/branch_indesit/ProductModules/PM_EnergyMeterSw\PM_EnergyMeterSwTable.c **** 
 713:C:/Workspace/FW_Inertia/branch_indesit/ProductModules/PM_EnergyMeterSw\PM_EnergyMeterSwTable.c **** \bug    [none]
 714:C:/Workspace/FW_Inertia/branch_indesit/ProductModules/PM_EnergyMeterSw\PM_EnergyMeterSwTable.c **** 
 715:C:/Workspace/FW_Inertia/branch_indesit/ProductModules/PM_EnergyMeterSw\PM_EnergyMeterSwTable.c **** 
 716:C:/Workspace/FW_Inertia/branch_indesit/ProductModules/PM_EnergyMeterSw\PM_EnergyMeterSwTable.c **** 
 717:C:/Workspace/FW_Inertia/branch_indesit/ProductModules/PM_EnergyMeterSw\PM_EnergyMeterSwTable.c **** \note   \par \b Nota 1:
 718:C:/Workspace/FW_Inertia/branch_indesit/ProductModules/PM_EnergyMeterSw\PM_EnergyMeterSwTable.c ****       documentation by ${Intecs}
 719:C:/Workspace/FW_Inertia/branch_indesit/ProductModules/PM_EnergyMeterSw\PM_EnergyMeterSwTable.c **** */
 720:C:/Workspace/FW_Inertia/branch_indesit/ProductModules/PM_EnergyMeterSw\PM_EnergyMeterSwTable.c **** STATIC eEMS_Err CalcoloPuntoSuRetta (uint16_t ui16X,
 721:C:/Workspace/FW_Inertia/branch_indesit/ProductModules/PM_EnergyMeterSw\PM_EnergyMeterSwTable.c ****                                      uint16_t ui16X1, uint16_t ui16Z1,
 722:C:/Workspace/FW_Inertia/branch_indesit/ProductModules/PM_EnergyMeterSw\PM_EnergyMeterSwTable.c ****                                      uint16_t ui16X2, uint16_t ui16Z2,
 723:C:/Workspace/FW_Inertia/branch_indesit/ProductModules/PM_EnergyMeterSw\PM_EnergyMeterSwTable.c ****                                      uint16_t* pui16Z)
 724:C:/Workspace/FW_Inertia/branch_indesit/ProductModules/PM_EnergyMeterSw\PM_EnergyMeterSwTable.c **** {
 462                             		.loc 1 724 0
 463                             	.LVL41:
 464 0000 7E A7                   		push.l	r7
 465                             	.LCFI6:
 466 0002 60 80                   		sub	#8, r0
 467                             	.LCFI7:
 468 0004 75 47 10                		mov.L	#16, r7
 469 0007 4B 07                   		add	r0, r7
 470 0009 DC 7F                   		mov.W	[r7], r15
 471 000b ED 7E 01                		mov.L	4[r7], r14
 725:C:/Workspace/FW_Inertia/branch_indesit/ProductModules/PM_EnergyMeterSw\PM_EnergyMeterSwTable.c ****   int32_t i32Z;
 726:C:/Workspace/FW_Inertia/branch_indesit/ProductModules/PM_EnergyMeterSw\PM_EnergyMeterSwTable.c **** 
 727:C:/Workspace/FW_Inertia/branch_indesit/ProductModules/PM_EnergyMeterSw\PM_EnergyMeterSwTable.c **** 
 728:C:/Workspace/FW_Inertia/branch_indesit/ProductModules/PM_EnergyMeterSw\PM_EnergyMeterSwTable.c **** #if CHECK_TABLE
 729:C:/Workspace/FW_Inertia/branch_indesit/ProductModules/PM_EnergyMeterSw\PM_EnergyMeterSwTable.c ****   if (pui16Z == NULL)
 472                             		.loc 1 729 0
 473 000e 61 0E                   		cmp	#0, r14
 474 0010 20 2F                   		beq	.L82
 730:C:/Workspace/FW_Inertia/branch_indesit/ProductModules/PM_EnergyMeterSw\PM_EnergyMeterSwTable.c ****   {
 731:C:/Workspace/FW_Inertia/branch_indesit/ProductModules/PM_EnergyMeterSw\PM_EnergyMeterSwTable.c ****     return EMS_E_INVALID_VALUE;
 732:C:/Workspace/FW_Inertia/branch_indesit/ProductModules/PM_EnergyMeterSw\PM_EnergyMeterSwTable.c ****   }
 733:C:/Workspace/FW_Inertia/branch_indesit/ProductModules/PM_EnergyMeterSw\PM_EnergyMeterSwTable.c **** 
 734:C:/Workspace/FW_Inertia/branch_indesit/ProductModules/PM_EnergyMeterSw\PM_EnergyMeterSwTable.c ****   /* Verifica che i valori di X, X1 e X2 siano validi */
 735:C:/Workspace/FW_Inertia/branch_indesit/ProductModules/PM_EnergyMeterSw\PM_EnergyMeterSwTable.c ****   if ((ui16X <= ui16X1) || (ui16X >= ui16X2))
 475                             		.loc 1 735 0
 476 0012 5F 11                   		movu.W	r1, r1
 477 0014 5F 22                   		movu.W	r2, r2
 478 0016 47 21                   		cmp	r2, r1
 479 0018 25 27                   		bleu	.L82
 480                             		.loc 1 735 0 is_stmt 0 discriminator 1
 481 001a 5F 44                   		movu.W	r4, r4
 482 001c 47 41                   		cmp	r4, r1
 483 001e 22 21                   		bgeu	.L82
 484                             	.LVL42:
 485                             	.LBB46:
 486                             	.LBB47:
 736:C:/Workspace/FW_Inertia/branch_indesit/ProductModules/PM_EnergyMeterSw\PM_EnergyMeterSwTable.c ****   {
 737:C:/Workspace/FW_Inertia/branch_indesit/ProductModules/PM_EnergyMeterSw\PM_EnergyMeterSwTable.c ****     return EMS_E_INVALID_VALUE;
 738:C:/Workspace/FW_Inertia/branch_indesit/ProductModules/PM_EnergyMeterSw\PM_EnergyMeterSwTable.c ****   }
 739:C:/Workspace/FW_Inertia/branch_indesit/ProductModules/PM_EnergyMeterSw\PM_EnergyMeterSwTable.c **** #endif
 740:C:/Workspace/FW_Inertia/branch_indesit/ProductModules/PM_EnergyMeterSw\PM_EnergyMeterSwTable.c **** 
 741:C:/Workspace/FW_Inertia/branch_indesit/ProductModules/PM_EnergyMeterSw\PM_EnergyMeterSwTable.c ****   /* X1 < X < X2 */
 742:C:/Workspace/FW_Inertia/branch_indesit/ProductModules/PM_EnergyMeterSw\PM_EnergyMeterSwTable.c **** 
 743:C:/Workspace/FW_Inertia/branch_indesit/ProductModules/PM_EnergyMeterSw\PM_EnergyMeterSwTable.c ****   if (ui16Z1 == ui16Z2)
 487                             		.loc 1 743 0 is_stmt 1
 488 0020 5F 35                   		movu.W	r3, r5
 489 0022 5F F7                   		movu.W	r15, r7
 490 0024 47 75                   		cmp	r7, r5
 491 0026 1D                      		bne	.L79
 744:C:/Workspace/FW_Inertia/branch_indesit/ProductModules/PM_EnergyMeterSw\PM_EnergyMeterSwTable.c ****   {
 745:C:/Workspace/FW_Inertia/branch_indesit/ProductModules/PM_EnergyMeterSw\PM_EnergyMeterSwTable.c ****     /*  una retta a Z costante */
 746:C:/Workspace/FW_Inertia/branch_indesit/ProductModules/PM_EnergyMeterSw\PM_EnergyMeterSwTable.c ****     *pui16Z = ui16Z1;
 492                             		.loc 1 746 0
 493 0027 D3 E3                   		mov.W	r3, [r14]
 494 0029 2E 13                   		bra	.L84
 495                             	.L79:
 747:C:/Workspace/FW_Inertia/branch_indesit/ProductModules/PM_EnergyMeterSw\PM_EnergyMeterSwTable.c **** 
 748:C:/Workspace/FW_Inertia/branch_indesit/ProductModules/PM_EnergyMeterSw\PM_EnergyMeterSwTable.c ****     /* Z == Z1 == Z2 */
 749:C:/Workspace/FW_Inertia/branch_indesit/ProductModules/PM_EnergyMeterSw\PM_EnergyMeterSwTable.c ****   }
 750:C:/Workspace/FW_Inertia/branch_indesit/ProductModules/PM_EnergyMeterSw\PM_EnergyMeterSwTable.c ****   else
 751:C:/Workspace/FW_Inertia/branch_indesit/ProductModules/PM_EnergyMeterSw\PM_EnergyMeterSwTable.c ****   {
 752:C:/Workspace/FW_Inertia/branch_indesit/ProductModules/PM_EnergyMeterSw\PM_EnergyMeterSwTable.c ****     /* Z1 != Z2 */
 753:C:/Workspace/FW_Inertia/branch_indesit/ProductModules/PM_EnergyMeterSw\PM_EnergyMeterSwTable.c **** #if 0
 754:C:/Workspace/FW_Inertia/branch_indesit/ProductModules/PM_EnergyMeterSw\PM_EnergyMeterSwTable.c ****     *pui16Z = ui16Z1 + ((ui16Z2 - ui16Z1) * (ui16X - ui16X1) / (ui16X2 - ui16X1));
 755:C:/Workspace/FW_Inertia/branch_indesit/ProductModules/PM_EnergyMeterSw\PM_EnergyMeterSwTable.c **** #else
 756:C:/Workspace/FW_Inertia/branch_indesit/ProductModules/PM_EnergyMeterSw\PM_EnergyMeterSwTable.c ****     i32Z     = (int32_t)ui16Z2 - (int32_t)ui16Z1;
 496                             		.loc 1 756 0
 497 002b FF 03 57                		sub	r5, r7, r3
 498                             	.LVL43:
 757:C:/Workspace/FW_Inertia/branch_indesit/ProductModules/PM_EnergyMeterSw\PM_EnergyMeterSwTable.c ****     i32Z    *= (int32_t)ui16X  - (int32_t)ui16X1;
 499                             		.loc 1 757 0
 500 002e 43 21                   		sub	r2, r1
 501                             	.LVL44:
 502 0030 4F 13                   		mul	r1, r3
 503                             	.LVL45:
 758:C:/Workspace/FW_Inertia/branch_indesit/ProductModules/PM_EnergyMeterSw\PM_EnergyMeterSwTable.c ****     i32Z    /= (int32_t)ui16X2 - (int32_t)ui16X1;
 504                             		.loc 1 758 0
 505 0032 FF 02 24                		sub	r2, r4, r2
 506                             	.LVL46:
 507 0035 FC 23 23                		div	r2, r3
 508                             	.LVL47:
 759:C:/Workspace/FW_Inertia/branch_indesit/ProductModules/PM_EnergyMeterSw\PM_EnergyMeterSwTable.c ****     i32Z    += (int32_t)ui16Z1;
 509                             		.loc 1 759 0
 510 0038 4B 35                   		add	r3, r5
 511                             	.LVL48:
 760:C:/Workspace/FW_Inertia/branch_indesit/ProductModules/PM_EnergyMeterSw\PM_EnergyMeterSwTable.c ****     *pui16Z  = (uint16_t)i32Z;
 512                             		.loc 1 760 0
 513 003a D3 E5                   		mov.W	r5, [r14]
 514                             	.LVL49:
 515                             		.balign 2,3,1
 516                             	.L84:
 517 003c 66 01                   		mov.L	#0, r1
 518 003e 0C                      		bra	.L78
 519                             	.LVL50:
 520                             	.L82:
 521                             	.LBE47:
 522                             	.LBE46:
 731:C:/Workspace/FW_Inertia/branch_indesit/ProductModules/PM_EnergyMeterSw\PM_EnergyMeterSwTable.c ****     return EMS_E_INVALID_VALUE;
 523                             		.loc 1 731 0
 524 003f 66 31                   		mov.L	#3, r1
 525                             	.LVL51:
 526 0041 03                      		.balign 2,3,2
 527                             	.L78:
 761:C:/Workspace/FW_Inertia/branch_indesit/ProductModules/PM_EnergyMeterSw\PM_EnergyMeterSwTable.c **** 
 762:C:/Workspace/FW_Inertia/branch_indesit/ProductModules/PM_EnergyMeterSw\PM_EnergyMeterSwTable.c ****     /* min(Z1,Z2) < Z < max(Z1,Z2) */
 763:C:/Workspace/FW_Inertia/branch_indesit/ProductModules/PM_EnergyMeterSw\PM_EnergyMeterSwTable.c **** #endif
 764:C:/Workspace/FW_Inertia/branch_indesit/ProductModules/PM_EnergyMeterSw\PM_EnergyMeterSwTable.c **** 
 765:C:/Workspace/FW_Inertia/branch_indesit/ProductModules/PM_EnergyMeterSw\PM_EnergyMeterSwTable.c **** 
 766:C:/Workspace/FW_Inertia/branch_indesit/ProductModules/PM_EnergyMeterSw\PM_EnergyMeterSwTable.c ****   }
 767:C:/Workspace/FW_Inertia/branch_indesit/ProductModules/PM_EnergyMeterSw\PM_EnergyMeterSwTable.c **** 
 768:C:/Workspace/FW_Inertia/branch_indesit/ProductModules/PM_EnergyMeterSw\PM_EnergyMeterSwTable.c ****   return EMS_E_OK;
 769:C:/Workspace/FW_Inertia/branch_indesit/ProductModules/PM_EnergyMeterSw\PM_EnergyMeterSwTable.c **** }
 528                             		.loc 1 769 0
 529 0042 3F 77 03                		rtsd	#12, r7-r7
 530                             	.LFE9:
 532 0045 03                      		.section	.text.TableCalibSingola,"ax",@progbits
 533                             		.global	_TableCalibSingola
 535                             	_TableCalibSingola:
 536                             	.LFB10:
 770:C:/Workspace/FW_Inertia/branch_indesit/ProductModules/PM_EnergyMeterSw\PM_EnergyMeterSwTable.c **** 
 771:C:/Workspace/FW_Inertia/branch_indesit/ProductModules/PM_EnergyMeterSw\PM_EnergyMeterSwTable.c **** 
 772:C:/Workspace/FW_Inertia/branch_indesit/ProductModules/PM_EnergyMeterSw\PM_EnergyMeterSwTable.c **** /*------------------------------------
 773:C:/Workspace/FW_Inertia/branch_indesit/ProductModules/PM_EnergyMeterSw\PM_EnergyMeterSwTable.c ****  computes the power based on Vin and
 774:C:/Workspace/FW_Inertia/branch_indesit/ProductModules/PM_EnergyMeterSw\PM_EnergyMeterSwTable.c ****  a Y curve
 775:C:/Workspace/FW_Inertia/branch_indesit/ProductModules/PM_EnergyMeterSw\PM_EnergyMeterSwTable.c ****  -------------------------------------*/
 776:C:/Workspace/FW_Inertia/branch_indesit/ProductModules/PM_EnergyMeterSw\PM_EnergyMeterSwTable.c **** eEMS_Err TableCalibSingola (const stTable_t* psTable, uint16_t ui16Vin,
 777:C:/Workspace/FW_Inertia/branch_indesit/ProductModules/PM_EnergyMeterSw\PM_EnergyMeterSwTable.c ****                             const stTableCurveY_t* psCurveY, uint16_t* pui16Power)
 778:C:/Workspace/FW_Inertia/branch_indesit/ProductModules/PM_EnergyMeterSw\PM_EnergyMeterSwTable.c **** {
 537                             		.loc 1 778 0
 538                             	.LVL52:
 539 0000 6E 7C                   		pushm	r7-r12
 540                             	.LCFI8:
 541 0002 71 00 EC                		add	#-20, r0
 542                             	.LCFI9:
 779:C:/Workspace/FW_Inertia/branch_indesit/ProductModules/PM_EnergyMeterSw\PM_EnergyMeterSwTable.c ****   stCurveYLine_t sLineY; /* retta su Y */
 780:C:/Workspace/FW_Inertia/branch_indesit/ProductModules/PM_EnergyMeterSw\PM_EnergyMeterSwTable.c ****   uint8_t aui8Result;
 781:C:/Workspace/FW_Inertia/branch_indesit/ProductModules/PM_EnergyMeterSw\PM_EnergyMeterSwTable.c **** 
 782:C:/Workspace/FW_Inertia/branch_indesit/ProductModules/PM_EnergyMeterSw\PM_EnergyMeterSwTable.c **** 
 783:C:/Workspace/FW_Inertia/branch_indesit/ProductModules/PM_EnergyMeterSw\PM_EnergyMeterSwTable.c **** #if CHECK_TABLE
 784:C:/Workspace/FW_Inertia/branch_indesit/ProductModules/PM_EnergyMeterSw\PM_EnergyMeterSwTable.c ****   if (pui16Power == NULL)
 543                             		.loc 1 784 0
 544 0005 71 47 00                		add	#0, r4, r7
 545 0008 1E                      		bne	.L86
 546                             	.LVL53:
 547 0009 03                      		.balign 2,3,1
 548                             	.L88:
 785:C:/Workspace/FW_Inertia/branch_indesit/ProductModules/PM_EnergyMeterSw\PM_EnergyMeterSwTable.c ****   {
 786:C:/Workspace/FW_Inertia/branch_indesit/ProductModules/PM_EnergyMeterSw\PM_EnergyMeterSwTable.c ****     return EMS_E_INVALID_VALUE;
 549                             		.loc 1 786 0
 550 000a 66 31                   		mov.L	#3, r1
 551 000c 2E 46                   		bra	.L87
 552                             	.LVL54:
 553                             	.L86:
 554 000e EF 1B                   		mov.L	r1, r11
 555 0010 DF 2A                   		mov.W	r2, r10
 556 0012 EF 3C                   		mov.L	r3, r12
 787:C:/Workspace/FW_Inertia/branch_indesit/ProductModules/PM_EnergyMeterSw\PM_EnergyMeterSwTable.c ****   }
 788:C:/Workspace/FW_Inertia/branch_indesit/ProductModules/PM_EnergyMeterSw\PM_EnergyMeterSwTable.c **** #endif
 789:C:/Workspace/FW_Inertia/branch_indesit/ProductModules/PM_EnergyMeterSw\PM_EnergyMeterSwTable.c **** 
 790:C:/Workspace/FW_Inertia/branch_indesit/ProductModules/PM_EnergyMeterSw\PM_EnergyMeterSwTable.c ****   /* init lines*/
 791:C:/Workspace/FW_Inertia/branch_indesit/ProductModules/PM_EnergyMeterSw\PM_EnergyMeterSwTable.c ****   LineInit(&sLineY);
 557                             		.loc 1 791 0
 558 0014 66 81                   		mov.L	#8, r1
 559                             	.LVL55:
 560 0016 4B 01                   		add	r0, r1
 561 0018 05 00 00 00             		bsr	_LineInit
 562                             	.LVL56:
 792:C:/Workspace/FW_Inertia/branch_indesit/ProductModules/PM_EnergyMeterSw\PM_EnergyMeterSwTable.c **** 
 793:C:/Workspace/FW_Inertia/branch_indesit/ProductModules/PM_EnergyMeterSw\PM_EnergyMeterSwTable.c ****   /* cerca sulla curva Y la retta che include Vin */
 794:C:/Workspace/FW_Inertia/branch_indesit/ProductModules/PM_EnergyMeterSw\PM_EnergyMeterSwTable.c ****   aui8Result = CurveYFindPoints(psTable, psCurveY, ui16Vin, &sLineY);
 563                             		.loc 1 794 0
 564 001c EF B1                   		mov.L	r11, r1
 565 001e EF C2                   		mov.L	r12, r2
 566 0020 DF A3                   		mov.W	r10, r3
 567 0022 66 84                   		mov.L	#8, r4
 568 0024 4B 04                   		add	r0, r4
 569 0026 05 00 00 00             		bsr	_CurveYFindPoints
 570                             	.LVL57:
 795:C:/Workspace/FW_Inertia/branch_indesit/ProductModules/PM_EnergyMeterSw\PM_EnergyMeterSwTable.c ****   if ((aui8Result != EMS_E_OK) || (sLineY.sPoint1.ui8Valid == 0))
 571                             		.loc 1 795 0
 572 002a 76 21 FF 00             		and #0xff, r1
 573                             	.LVL58:
 574 002e 21 DC                   		bne	.L88
 575                             		.loc 1 795 0 is_stmt 0 discriminator 1
 576 0030 59 0B 08                		movu.B	8[r0], r11
 577                             	.LVL59:
 578 0033 61 0B                   		cmp	#0, r11
 579 0035 20 D5                   		beq	.L88
 796:C:/Workspace/FW_Inertia/branch_indesit/ProductModules/PM_EnergyMeterSw\PM_EnergyMeterSwTable.c ****   {
 797:C:/Workspace/FW_Inertia/branch_indesit/ProductModules/PM_EnergyMeterSw\PM_EnergyMeterSwTable.c ****     return EMS_E_INVALID_VALUE;
 798:C:/Workspace/FW_Inertia/branch_indesit/ProductModules/PM_EnergyMeterSw\PM_EnergyMeterSwTable.c ****   }
 799:C:/Workspace/FW_Inertia/branch_indesit/ProductModules/PM_EnergyMeterSw\PM_EnergyMeterSwTable.c **** 
 800:C:/Workspace/FW_Inertia/branch_indesit/ProductModules/PM_EnergyMeterSw\PM_EnergyMeterSwTable.c ****   /* trovato almeno un punto sulla curva Y */
 801:C:/Workspace/FW_Inertia/branch_indesit/ProductModules/PM_EnergyMeterSw\PM_EnergyMeterSwTable.c **** 
 802:C:/Workspace/FW_Inertia/branch_indesit/ProductModules/PM_EnergyMeterSw\PM_EnergyMeterSwTable.c ****   if (sLineY.sPoint2.ui8Valid == 0)
 580                             		.loc 1 802 0 is_stmt 1
 581 0037 B3 81                   		movu.B	14[r0], r1
 582 0039 99 83                   		mov.W	12[r0], r3
 583 003b 61 01                   		cmp	#0, r1
 584 003d 1D                      		bne	.L89
 803:C:/Workspace/FW_Inertia/branch_indesit/ProductModules/PM_EnergyMeterSw\PM_EnergyMeterSwTable.c ****   {
 804:C:/Workspace/FW_Inertia/branch_indesit/ProductModules/PM_EnergyMeterSw\PM_EnergyMeterSwTable.c ****     /* trovato un punto sulla curva Y */
 805:C:/Workspace/FW_Inertia/branch_indesit/ProductModules/PM_EnergyMeterSw\PM_EnergyMeterSwTable.c ****     *pui16Power = sLineY.sPoint1.ui16Pw;
 585                             		.loc 1 805 0
 586 003e D3 73                   		mov.W	r3, [r7]
 587 0040 2E 12                   		bra	.L87
 588                             	.L89:
 806:C:/Workspace/FW_Inertia/branch_indesit/ProductModules/PM_EnergyMeterSw\PM_EnergyMeterSwTable.c **** 
 807:C:/Workspace/FW_Inertia/branch_indesit/ProductModules/PM_EnergyMeterSw\PM_EnergyMeterSwTable.c ****     return EMS_E_OK;
 808:C:/Workspace/FW_Inertia/branch_indesit/ProductModules/PM_EnergyMeterSw\PM_EnergyMeterSwTable.c ****   }
 809:C:/Workspace/FW_Inertia/branch_indesit/ProductModules/PM_EnergyMeterSw\PM_EnergyMeterSwTable.c ****   else
 810:C:/Workspace/FW_Inertia/branch_indesit/ProductModules/PM_EnergyMeterSw\PM_EnergyMeterSwTable.c ****   {
 811:C:/Workspace/FW_Inertia/branch_indesit/ProductModules/PM_EnergyMeterSw\PM_EnergyMeterSwTable.c ****     /* trovata una retta sulla curva Y */
 812:C:/Workspace/FW_Inertia/branch_indesit/ProductModules/PM_EnergyMeterSw\PM_EnergyMeterSwTable.c ****     return CalcoloPuntoSuRetta(ui16Vin,
 589                             		.loc 1 812 0
 590 0042 D1 00 09                		mov.W	18[r0], [r0]
 591 0045 A0 0F                   		mov.L	r7, 4[r0]
 592 0047 DF A1                   		mov.W	r10, r1
 593 0049 99 0A                   		mov.W	10[r0], r2
 594 004b 9A 04                   		mov.W	16[r0], r4
 595 004d 05 00 00 00             		bsr	_CalcoloPuntoSuRetta
 596                             	.LVL60:
 597 0051 03                      		.balign 2,3,2
 598                             	.L87:
 813:C:/Workspace/FW_Inertia/branch_indesit/ProductModules/PM_EnergyMeterSw\PM_EnergyMeterSwTable.c ****                                sLineY.sPoint1.ui16V, sLineY.sPoint1.ui16Pw,
 814:C:/Workspace/FW_Inertia/branch_indesit/ProductModules/PM_EnergyMeterSw\PM_EnergyMeterSwTable.c ****                                sLineY.sPoint2.ui16V, sLineY.sPoint2.ui16Pw,
 815:C:/Workspace/FW_Inertia/branch_indesit/ProductModules/PM_EnergyMeterSw\PM_EnergyMeterSwTable.c ****                                pui16Power);
 816:C:/Workspace/FW_Inertia/branch_indesit/ProductModules/PM_EnergyMeterSw\PM_EnergyMeterSwTable.c ****   }
 817:C:/Workspace/FW_Inertia/branch_indesit/ProductModules/PM_EnergyMeterSw\PM_EnergyMeterSwTable.c **** }
 599                             		.loc 1 817 0
 600 0052 3F 7C 0B                		rtsd	#44, r7-r12
 601                             	.LFE10:
 603 0055 03                      		.section	.text.TableCalibDoppia_Punti,"ax",@progbits
 604                             		.global	_TableCalibDoppia_Punti
 606                             	_TableCalibDoppia_Punti:
 607                             	.LFB11:
 818:C:/Workspace/FW_Inertia/branch_indesit/ProductModules/PM_EnergyMeterSw\PM_EnergyMeterSwTable.c **** 
 819:C:/Workspace/FW_Inertia/branch_indesit/ProductModules/PM_EnergyMeterSw\PM_EnergyMeterSwTable.c **** 
 820:C:/Workspace/FW_Inertia/branch_indesit/ProductModules/PM_EnergyMeterSw\PM_EnergyMeterSwTable.c **** /**
 821:C:/Workspace/FW_Inertia/branch_indesit/ProductModules/PM_EnergyMeterSw\PM_EnergyMeterSwTable.c ****   This function computes the power based on Yx, one power (P1) on the curve Y1 and one power (P1) o
 822:C:/Workspace/FW_Inertia/branch_indesit/ProductModules/PM_EnergyMeterSw\PM_EnergyMeterSwTable.c **** 
 823:C:/Workspace/FW_Inertia/branch_indesit/ProductModules/PM_EnergyMeterSw\PM_EnergyMeterSwTable.c **** \param  [in]      uint16_t    ui16Yx      [the value of Yx]
 824:C:/Workspace/FW_Inertia/branch_indesit/ProductModules/PM_EnergyMeterSw\PM_EnergyMeterSwTable.c **** \param  [in]      uint16_t    ui16Y1      [the value of Y1]
 825:C:/Workspace/FW_Inertia/branch_indesit/ProductModules/PM_EnergyMeterSw\PM_EnergyMeterSwTable.c **** \param  [in]      uint16_t    ui16P1      [the value of power on Y1]
 826:C:/Workspace/FW_Inertia/branch_indesit/ProductModules/PM_EnergyMeterSw\PM_EnergyMeterSwTable.c **** \param  [in]      uint16_t    ui16Y2      [the value of Y2]
 827:C:/Workspace/FW_Inertia/branch_indesit/ProductModules/PM_EnergyMeterSw\PM_EnergyMeterSwTable.c **** \param  [in]      uint16_t    ui16P2      [the value of power on Y2]
 828:C:/Workspace/FW_Inertia/branch_indesit/ProductModules/PM_EnergyMeterSw\PM_EnergyMeterSwTable.c **** \param  [out]     uint16_t*   pui16Power  [pointer to the power calculated]
 829:C:/Workspace/FW_Inertia/branch_indesit/ProductModules/PM_EnergyMeterSw\PM_EnergyMeterSwTable.c **** \param  [in,out]  none
 830:C:/Workspace/FW_Inertia/branch_indesit/ProductModules/PM_EnergyMeterSw\PM_EnergyMeterSwTable.c **** 
 831:C:/Workspace/FW_Inertia/branch_indesit/ProductModules/PM_EnergyMeterSw\PM_EnergyMeterSwTable.c **** \attention \b
 832:C:/Workspace/FW_Inertia/branch_indesit/ProductModules/PM_EnergyMeterSw\PM_EnergyMeterSwTable.c **** 
 833:C:/Workspace/FW_Inertia/branch_indesit/ProductModules/PM_EnergyMeterSw\PM_EnergyMeterSwTable.c **** \return   eEMS_Err - error code
 834:C:/Workspace/FW_Inertia/branch_indesit/ProductModules/PM_EnergyMeterSw\PM_EnergyMeterSwTable.c **** 
 835:C:/Workspace/FW_Inertia/branch_indesit/ProductModules/PM_EnergyMeterSw\PM_EnergyMeterSwTable.c **** \retval   [none]
 836:C:/Workspace/FW_Inertia/branch_indesit/ProductModules/PM_EnergyMeterSw\PM_EnergyMeterSwTable.c **** 
 837:C:/Workspace/FW_Inertia/branch_indesit/ProductModules/PM_EnergyMeterSw\PM_EnergyMeterSwTable.c **** \warning  [none]
 838:C:/Workspace/FW_Inertia/branch_indesit/ProductModules/PM_EnergyMeterSw\PM_EnergyMeterSwTable.c **** 
 839:C:/Workspace/FW_Inertia/branch_indesit/ProductModules/PM_EnergyMeterSw\PM_EnergyMeterSwTable.c **** \author   Intecs
 840:C:/Workspace/FW_Inertia/branch_indesit/ProductModules/PM_EnergyMeterSw\PM_EnergyMeterSwTable.c **** \date     08-09-2011
 841:C:/Workspace/FW_Inertia/branch_indesit/ProductModules/PM_EnergyMeterSw\PM_EnergyMeterSwTable.c **** \version  1.0.0
 842:C:/Workspace/FW_Inertia/branch_indesit/ProductModules/PM_EnergyMeterSw\PM_EnergyMeterSwTable.c **** 
 843:C:/Workspace/FW_Inertia/branch_indesit/ProductModules/PM_EnergyMeterSw\PM_EnergyMeterSwTable.c **** \bug    [none]
 844:C:/Workspace/FW_Inertia/branch_indesit/ProductModules/PM_EnergyMeterSw\PM_EnergyMeterSwTable.c **** 
 845:C:/Workspace/FW_Inertia/branch_indesit/ProductModules/PM_EnergyMeterSw\PM_EnergyMeterSwTable.c **** 
 846:C:/Workspace/FW_Inertia/branch_indesit/ProductModules/PM_EnergyMeterSw\PM_EnergyMeterSwTable.c **** 
 847:C:/Workspace/FW_Inertia/branch_indesit/ProductModules/PM_EnergyMeterSw\PM_EnergyMeterSwTable.c **** \note   \par \b Nota 1:
 848:C:/Workspace/FW_Inertia/branch_indesit/ProductModules/PM_EnergyMeterSw\PM_EnergyMeterSwTable.c ****       documentation by ${Intecs}
 849:C:/Workspace/FW_Inertia/branch_indesit/ProductModules/PM_EnergyMeterSw\PM_EnergyMeterSwTable.c **** */
 850:C:/Workspace/FW_Inertia/branch_indesit/ProductModules/PM_EnergyMeterSw\PM_EnergyMeterSwTable.c **** STATIC eEMS_Err TableCalibDoppia_Punti (uint16_t ui16Yx,
 851:C:/Workspace/FW_Inertia/branch_indesit/ProductModules/PM_EnergyMeterSw\PM_EnergyMeterSwTable.c ****                                         uint16_t ui16Y1, uint16_t ui16P1,
 852:C:/Workspace/FW_Inertia/branch_indesit/ProductModules/PM_EnergyMeterSw\PM_EnergyMeterSwTable.c ****                                         uint16_t ui16Y2, uint16_t ui16P2,
 853:C:/Workspace/FW_Inertia/branch_indesit/ProductModules/PM_EnergyMeterSw\PM_EnergyMeterSwTable.c ****                                         uint16_t* pui16Power)
 854:C:/Workspace/FW_Inertia/branch_indesit/ProductModules/PM_EnergyMeterSw\PM_EnergyMeterSwTable.c **** {
 608                             		.loc 1 854 0
 609                             	.LVL61:
 610 0000 7E A7                   		push.l	r7
 611                             	.LCFI10:
 612 0002 60 80                   		sub	#8, r0
 613                             	.LCFI11:
 855:C:/Workspace/FW_Inertia/branch_indesit/ProductModules/PM_EnergyMeterSw\PM_EnergyMeterSwTable.c **** 
 856:C:/Workspace/FW_Inertia/branch_indesit/ProductModules/PM_EnergyMeterSw\PM_EnergyMeterSwTable.c **** 
 857:C:/Workspace/FW_Inertia/branch_indesit/ProductModules/PM_EnergyMeterSw\PM_EnergyMeterSwTable.c ****   return CalcoloPuntoSuRetta(ui16Yx,
 858:C:/Workspace/FW_Inertia/branch_indesit/ProductModules/PM_EnergyMeterSw\PM_EnergyMeterSwTable.c ****                              ui16Y1, ui16P1,
 859:C:/Workspace/FW_Inertia/branch_indesit/ProductModules/PM_EnergyMeterSw\PM_EnergyMeterSwTable.c ****                              ui16Y2, ui16P2,
 860:C:/Workspace/FW_Inertia/branch_indesit/ProductModules/PM_EnergyMeterSw\PM_EnergyMeterSwTable.c ****                              pui16Power);
 861:C:/Workspace/FW_Inertia/branch_indesit/ProductModules/PM_EnergyMeterSw\PM_EnergyMeterSwTable.c **** }
 614                             		.loc 1 861 0
 615 0004 62 80                   		add	#8, r0
 616 0006 7E B7                   		pop	r7
 857:C:/Workspace/FW_Inertia/branch_indesit/ProductModules/PM_EnergyMeterSw\PM_EnergyMeterSwTable.c ****   return CalcoloPuntoSuRetta(ui16Yx,
 617                             		.loc 1 857 0
 618 0008 04 00 00 00             		bra	_CalcoloPuntoSuRetta
 619                             	.LVL62:
 620                             	.LFE11:
 622                             		.section	.text.TableCalibDoppia_PuntoRetta,"ax",@progbits
 623                             		.global	_TableCalibDoppia_PuntoRetta
 625                             	_TableCalibDoppia_PuntoRetta:
 626                             	.LFB12:
 862:C:/Workspace/FW_Inertia/branch_indesit/ProductModules/PM_EnergyMeterSw\PM_EnergyMeterSwTable.c **** 
 863:C:/Workspace/FW_Inertia/branch_indesit/ProductModules/PM_EnergyMeterSw\PM_EnergyMeterSwTable.c **** 
 864:C:/Workspace/FW_Inertia/branch_indesit/ProductModules/PM_EnergyMeterSw\PM_EnergyMeterSwTable.c **** /**
 865:C:/Workspace/FW_Inertia/branch_indesit/ProductModules/PM_EnergyMeterSw\PM_EnergyMeterSwTable.c ****   This function computes the power based on Yx, Vin, one power (P1) on the curve Y1 and one line on
 866:C:/Workspace/FW_Inertia/branch_indesit/ProductModules/PM_EnergyMeterSw\PM_EnergyMeterSwTable.c **** 
 867:C:/Workspace/FW_Inertia/branch_indesit/ProductModules/PM_EnergyMeterSw\PM_EnergyMeterSwTable.c **** \param  [in]      uint16_t          ui16Yx      [the value of Yx]
 868:C:/Workspace/FW_Inertia/branch_indesit/ProductModules/PM_EnergyMeterSw\PM_EnergyMeterSwTable.c **** \param  [in]      uint16_t          ui16Vin     [the value of Vin]
 869:C:/Workspace/FW_Inertia/branch_indesit/ProductModules/PM_EnergyMeterSw\PM_EnergyMeterSwTable.c **** \param  [in]      uint16_t          ui16Y1      [the value of Y1]
 870:C:/Workspace/FW_Inertia/branch_indesit/ProductModules/PM_EnergyMeterSw\PM_EnergyMeterSwTable.c **** \param  [in]      uint16_t          ui16P1      [the value of power on Y1]
 871:C:/Workspace/FW_Inertia/branch_indesit/ProductModules/PM_EnergyMeterSw\PM_EnergyMeterSwTable.c **** \param  [in]      uint16_t          ui16Y2      [the value of Y2]
 872:C:/Workspace/FW_Inertia/branch_indesit/ProductModules/PM_EnergyMeterSw\PM_EnergyMeterSwTable.c **** \param  [out]     stCurveYLine_t*   psYL2ine    [pointer to Y2 line]
 873:C:/Workspace/FW_Inertia/branch_indesit/ProductModules/PM_EnergyMeterSw\PM_EnergyMeterSwTable.c **** \param  [out]     uint16_t*         pui16Power  [pointer to the power calculated]
 874:C:/Workspace/FW_Inertia/branch_indesit/ProductModules/PM_EnergyMeterSw\PM_EnergyMeterSwTable.c **** \param  [in,out]  none
 875:C:/Workspace/FW_Inertia/branch_indesit/ProductModules/PM_EnergyMeterSw\PM_EnergyMeterSwTable.c **** 
 876:C:/Workspace/FW_Inertia/branch_indesit/ProductModules/PM_EnergyMeterSw\PM_EnergyMeterSwTable.c **** \attention \b
 877:C:/Workspace/FW_Inertia/branch_indesit/ProductModules/PM_EnergyMeterSw\PM_EnergyMeterSwTable.c **** 
 878:C:/Workspace/FW_Inertia/branch_indesit/ProductModules/PM_EnergyMeterSw\PM_EnergyMeterSwTable.c **** \return   eEMS_Err - error code
 879:C:/Workspace/FW_Inertia/branch_indesit/ProductModules/PM_EnergyMeterSw\PM_EnergyMeterSwTable.c **** 
 880:C:/Workspace/FW_Inertia/branch_indesit/ProductModules/PM_EnergyMeterSw\PM_EnergyMeterSwTable.c **** \retval   [none]
 881:C:/Workspace/FW_Inertia/branch_indesit/ProductModules/PM_EnergyMeterSw\PM_EnergyMeterSwTable.c **** 
 882:C:/Workspace/FW_Inertia/branch_indesit/ProductModules/PM_EnergyMeterSw\PM_EnergyMeterSwTable.c **** \warning  [none]
 883:C:/Workspace/FW_Inertia/branch_indesit/ProductModules/PM_EnergyMeterSw\PM_EnergyMeterSwTable.c **** 
 884:C:/Workspace/FW_Inertia/branch_indesit/ProductModules/PM_EnergyMeterSw\PM_EnergyMeterSwTable.c **** \author   Intecs
 885:C:/Workspace/FW_Inertia/branch_indesit/ProductModules/PM_EnergyMeterSw\PM_EnergyMeterSwTable.c **** \date     08-09-2011
 886:C:/Workspace/FW_Inertia/branch_indesit/ProductModules/PM_EnergyMeterSw\PM_EnergyMeterSwTable.c **** \version  1.0.0
 887:C:/Workspace/FW_Inertia/branch_indesit/ProductModules/PM_EnergyMeterSw\PM_EnergyMeterSwTable.c **** 
 888:C:/Workspace/FW_Inertia/branch_indesit/ProductModules/PM_EnergyMeterSw\PM_EnergyMeterSwTable.c **** \note   \par \b Nota 1:
 889:C:/Workspace/FW_Inertia/branch_indesit/ProductModules/PM_EnergyMeterSw\PM_EnergyMeterSwTable.c ****       documentation by ${Intecs}
 890:C:/Workspace/FW_Inertia/branch_indesit/ProductModules/PM_EnergyMeterSw\PM_EnergyMeterSwTable.c **** */
 891:C:/Workspace/FW_Inertia/branch_indesit/ProductModules/PM_EnergyMeterSw\PM_EnergyMeterSwTable.c **** STATIC eEMS_Err TableCalibDoppia_PuntoRetta (uint16_t ui16Yx, uint16_t ui16Vin,
 892:C:/Workspace/FW_Inertia/branch_indesit/ProductModules/PM_EnergyMeterSw\PM_EnergyMeterSwTable.c ****                                              uint16_t ui16Y1, uint16_t ui16P1,
 893:C:/Workspace/FW_Inertia/branch_indesit/ProductModules/PM_EnergyMeterSw\PM_EnergyMeterSwTable.c ****                                              uint16_t ui16Y2, const stCurveYLine_t* psY2Line,
 894:C:/Workspace/FW_Inertia/branch_indesit/ProductModules/PM_EnergyMeterSw\PM_EnergyMeterSwTable.c ****                                              uint16_t* pui16Power)
 895:C:/Workspace/FW_Inertia/branch_indesit/ProductModules/PM_EnergyMeterSw\PM_EnergyMeterSwTable.c **** {
 627                             		.loc 1 895 0
 628                             	.LVL63:
 629 0000 6E 7D                   		pushm	r7-r13
 630                             	.LCFI12:
 631 0002 71 00 E8                		add	#-24, r0
 632                             	.LCFI13:
 633 0005 75 47 38                		mov.L	#56, r7
 634 0008 4B 07                   		add	r0, r7
 635 000a DC 7A                   		mov.W	[r7], r10
 636 000c ED 7E 01                		mov.L	4[r7], r14
 637 000f A8 F7                   		mov.L	8[r7], r7
 896:C:/Workspace/FW_Inertia/branch_indesit/ProductModules/PM_EnergyMeterSw\PM_EnergyMeterSwTable.c ****   uint16_t ui16P2x;   /* punto sulla retta Y2 */
 897:C:/Workspace/FW_Inertia/branch_indesit/ProductModules/PM_EnergyMeterSw\PM_EnergyMeterSwTable.c **** 
 898:C:/Workspace/FW_Inertia/branch_indesit/ProductModules/PM_EnergyMeterSw\PM_EnergyMeterSwTable.c **** 
 899:C:/Workspace/FW_Inertia/branch_indesit/ProductModules/PM_EnergyMeterSw\PM_EnergyMeterSwTable.c **** 
 900:C:/Workspace/FW_Inertia/branch_indesit/ProductModules/PM_EnergyMeterSw\PM_EnergyMeterSwTable.c **** #if CHECK_TABLE
 901:C:/Workspace/FW_Inertia/branch_indesit/ProductModules/PM_EnergyMeterSw\PM_EnergyMeterSwTable.c ****   if (psY2Line == NULL)
 638                             		.loc 1 901 0
 639 0011 61 0E                   		cmp	#0, r14
 640 0013 20 44                   		beq	.L101
 641 0015 DF 4B                   		mov.W	r4, r11
 902:C:/Workspace/FW_Inertia/branch_indesit/ProductModules/PM_EnergyMeterSw\PM_EnergyMeterSwTable.c ****   {
 903:C:/Workspace/FW_Inertia/branch_indesit/ProductModules/PM_EnergyMeterSw\PM_EnergyMeterSwTable.c ****     return EMS_E_INVALID_VALUE;
 904:C:/Workspace/FW_Inertia/branch_indesit/ProductModules/PM_EnergyMeterSw\PM_EnergyMeterSwTable.c ****   }
 905:C:/Workspace/FW_Inertia/branch_indesit/ProductModules/PM_EnergyMeterSw\PM_EnergyMeterSwTable.c **** 
 906:C:/Workspace/FW_Inertia/branch_indesit/ProductModules/PM_EnergyMeterSw\PM_EnergyMeterSwTable.c ****   if ((psY2Line->sPoint1.ui8Valid == 0) || (psY2Line->sPoint2.ui8Valid == 0))
 642                             		.loc 1 906 0
 643 0017 58 E4                   		movu.B	[r14], r4
 644                             	.LVL64:
 645 0019 61 04                   		cmp	#0, r4
 646 001b 20 3C                   		beq	.L101
 647                             		.loc 1 906 0 is_stmt 0 discriminator 1
 648 001d 59 E4 06                		movu.B	6[r14], r4
 649 0020 61 04                   		cmp	#0, r4
 650 0022 20 35                   		beq	.L101
 651 0024 DF 1D                   		mov.W	r1, r13
 652 0026 DF 21                   		mov.W	r2, r1
 653                             	.LVL65:
 654 0028 DF 3C                   		mov.W	r3, r12
 655                             	.LVL66:
 656                             	.LBB52:
 657                             	.LBB53:
 907:C:/Workspace/FW_Inertia/branch_indesit/ProductModules/PM_EnergyMeterSw\PM_EnergyMeterSwTable.c ****   {
 908:C:/Workspace/FW_Inertia/branch_indesit/ProductModules/PM_EnergyMeterSw\PM_EnergyMeterSwTable.c ****     return EMS_E_INVALID_VALUE;
 909:C:/Workspace/FW_Inertia/branch_indesit/ProductModules/PM_EnergyMeterSw\PM_EnergyMeterSwTable.c ****   }
 910:C:/Workspace/FW_Inertia/branch_indesit/ProductModules/PM_EnergyMeterSw\PM_EnergyMeterSwTable.c **** #endif
 911:C:/Workspace/FW_Inertia/branch_indesit/ProductModules/PM_EnergyMeterSw\PM_EnergyMeterSwTable.c **** 
 912:C:/Workspace/FW_Inertia/branch_indesit/ProductModules/PM_EnergyMeterSw\PM_EnergyMeterSwTable.c ****   /* calcola il valore di potenza Px2, sulla retta Y2, corrispondente a Vin */
 913:C:/Workspace/FW_Inertia/branch_indesit/ProductModules/PM_EnergyMeterSw\PM_EnergyMeterSwTable.c ****   if (EMS_E_OK != CalcoloPuntoSuRetta(ui16Vin,
 658                             		.loc 1 913 0 is_stmt 1
 659 002a DD E2 01                		mov.W	2[r14], r2
 660                             	.LVL67:
 661 002d DD E3 02                		mov.W	4[r14], r3
 662                             	.LVL68:
 663 0030 DD E4 04                		mov.W	8[r14], r4
 664 0033 D1 E0 05                		mov.W	10[r14], [r0]
 665 0036 66 8E                   		mov.L	#8, r14
 666                             	.LVL69:
 667 0038 4B 0E                   		add	r0, r14
 668 003a E7 0E 01                		mov.L	r14, 4[r0]
 669 003d 05 00 00 00             		bsr	_CalcoloPuntoSuRetta
 670                             	.LVL70:
 671 0041 61 01                   		cmp	#0, r1
 672 0043 21 14                   		bne	.L101
 673                             	.LVL71:
 674                             	.LBB54:
 675                             	.LBB55:
 857:C:/Workspace/FW_Inertia/branch_indesit/ProductModules/PM_EnergyMeterSw\PM_EnergyMeterSwTable.c ****   return CalcoloPuntoSuRetta(ui16Yx,
 676                             		.loc 1 857 0
 677 0045 D1 00 04                		mov.W	8[r0], [r0]
 678 0048 A0 0F                   		mov.L	r7, 4[r0]
 679 004a DF D1                   		mov.W	r13, r1
 680 004c DF C2                   		mov.W	r12, r2
 681 004e DF B3                   		mov.W	r11, r3
 682 0050 DF A4                   		mov.W	r10, r4
 683 0052 05 00 00 00             		bsr	_CalcoloPuntoSuRetta
 684                             	.LVL72:
 685 0056 0C                      		bra	.L97
 686                             	.LVL73:
 687                             	.L101:
 688                             	.LBE55:
 689                             	.LBE54:
 690                             	.LBE53:
 691                             	.LBE52:
 903:C:/Workspace/FW_Inertia/branch_indesit/ProductModules/PM_EnergyMeterSw\PM_EnergyMeterSwTable.c ****     return EMS_E_INVALID_VALUE;
 692                             		.loc 1 903 0
 693 0057 66 31                   		mov.L	#3, r1
 694                             	.LVL74:
 695 0059 03                      		.balign 2,3,2
 696                             	.L97:
 914:C:/Workspace/FW_Inertia/branch_indesit/ProductModules/PM_EnergyMeterSw\PM_EnergyMeterSwTable.c ****                                       psY2Line->sPoint1.ui16V, psY2Line->sPoint1.ui16Pw,
 915:C:/Workspace/FW_Inertia/branch_indesit/ProductModules/PM_EnergyMeterSw\PM_EnergyMeterSwTable.c ****                                       psY2Line->sPoint2.ui16V, psY2Line->sPoint2.ui16Pw,
 916:C:/Workspace/FW_Inertia/branch_indesit/ProductModules/PM_EnergyMeterSw\PM_EnergyMeterSwTable.c ****                                       &ui16P2x))
 917:C:/Workspace/FW_Inertia/branch_indesit/ProductModules/PM_EnergyMeterSw\PM_EnergyMeterSwTable.c ****   {
 918:C:/Workspace/FW_Inertia/branch_indesit/ProductModules/PM_EnergyMeterSw\PM_EnergyMeterSwTable.c ****     return EMS_E_INVALID_VALUE;
 919:C:/Workspace/FW_Inertia/branch_indesit/ProductModules/PM_EnergyMeterSw\PM_EnergyMeterSwTable.c ****   }
 920:C:/Workspace/FW_Inertia/branch_indesit/ProductModules/PM_EnergyMeterSw\PM_EnergyMeterSwTable.c **** 
 921:C:/Workspace/FW_Inertia/branch_indesit/ProductModules/PM_EnergyMeterSw\PM_EnergyMeterSwTable.c ****   /* calcola il valore di potenza basato su Yx e sui punti (Y1,P1) e (Y2,P2x) */
 922:C:/Workspace/FW_Inertia/branch_indesit/ProductModules/PM_EnergyMeterSw\PM_EnergyMeterSwTable.c ****   return TableCalibDoppia_Punti(ui16Yx,
 923:C:/Workspace/FW_Inertia/branch_indesit/ProductModules/PM_EnergyMeterSw\PM_EnergyMeterSwTable.c ****                                 ui16Y1, ui16P1,
 924:C:/Workspace/FW_Inertia/branch_indesit/ProductModules/PM_EnergyMeterSw\PM_EnergyMeterSwTable.c ****                                 ui16Y2, ui16P2x,
 925:C:/Workspace/FW_Inertia/branch_indesit/ProductModules/PM_EnergyMeterSw\PM_EnergyMeterSwTable.c ****                                 pui16Power);
 926:C:/Workspace/FW_Inertia/branch_indesit/ProductModules/PM_EnergyMeterSw\PM_EnergyMeterSwTable.c **** }
 697                             		.loc 1 926 0
 698 005a 3F 7D 0D                		rtsd	#52, r7-r13
 699                             	.LFE12:
 701 005d 03                      		.section	.text.TableCalibDoppia_Rette,"ax",@progbits
 702                             		.global	_TableCalibDoppia_Rette
 704                             	_TableCalibDoppia_Rette:
 705                             	.LFB13:
 927:C:/Workspace/FW_Inertia/branch_indesit/ProductModules/PM_EnergyMeterSw\PM_EnergyMeterSwTable.c **** 
 928:C:/Workspace/FW_Inertia/branch_indesit/ProductModules/PM_EnergyMeterSw\PM_EnergyMeterSwTable.c **** 
 929:C:/Workspace/FW_Inertia/branch_indesit/ProductModules/PM_EnergyMeterSw\PM_EnergyMeterSwTable.c **** /**
 930:C:/Workspace/FW_Inertia/branch_indesit/ProductModules/PM_EnergyMeterSw\PM_EnergyMeterSwTable.c ****   This function computes the power based on Yx, Vin, one line on the curve Y1 and one line on the c
 931:C:/Workspace/FW_Inertia/branch_indesit/ProductModules/PM_EnergyMeterSw\PM_EnergyMeterSwTable.c **** 
 932:C:/Workspace/FW_Inertia/branch_indesit/ProductModules/PM_EnergyMeterSw\PM_EnergyMeterSwTable.c **** \param  [in]      uint16_t          ui16Yx      [the value of Yx]
 933:C:/Workspace/FW_Inertia/branch_indesit/ProductModules/PM_EnergyMeterSw\PM_EnergyMeterSwTable.c **** \param  [in]      uint16_t          ui16Vin     [the value of Vin]
 934:C:/Workspace/FW_Inertia/branch_indesit/ProductModules/PM_EnergyMeterSw\PM_EnergyMeterSwTable.c **** \param  [in]      uint16_t          ui16Y1      [the value of Y1]
 935:C:/Workspace/FW_Inertia/branch_indesit/ProductModules/PM_EnergyMeterSw\PM_EnergyMeterSwTable.c **** \param  [out]     stCurveYLine_t*   psYL1ine    [pointer to Y1 line]
 936:C:/Workspace/FW_Inertia/branch_indesit/ProductModules/PM_EnergyMeterSw\PM_EnergyMeterSwTable.c **** \param  [in]      uint16_t          ui16Y2      [the value of Y2]
 937:C:/Workspace/FW_Inertia/branch_indesit/ProductModules/PM_EnergyMeterSw\PM_EnergyMeterSwTable.c **** \param  [out]     stCurveYLine_t*   psYL2ine    [pointer to Y2 line]
 938:C:/Workspace/FW_Inertia/branch_indesit/ProductModules/PM_EnergyMeterSw\PM_EnergyMeterSwTable.c **** \param  [out]     uint16_t*         pui16Power  [pointer to the power calculated]
 939:C:/Workspace/FW_Inertia/branch_indesit/ProductModules/PM_EnergyMeterSw\PM_EnergyMeterSwTable.c **** \param  [in,out]  none
 940:C:/Workspace/FW_Inertia/branch_indesit/ProductModules/PM_EnergyMeterSw\PM_EnergyMeterSwTable.c **** 
 941:C:/Workspace/FW_Inertia/branch_indesit/ProductModules/PM_EnergyMeterSw\PM_EnergyMeterSwTable.c **** \attention \b
 942:C:/Workspace/FW_Inertia/branch_indesit/ProductModules/PM_EnergyMeterSw\PM_EnergyMeterSwTable.c **** 
 943:C:/Workspace/FW_Inertia/branch_indesit/ProductModules/PM_EnergyMeterSw\PM_EnergyMeterSwTable.c **** \return   eEMS_Err - error code
 944:C:/Workspace/FW_Inertia/branch_indesit/ProductModules/PM_EnergyMeterSw\PM_EnergyMeterSwTable.c **** 
 945:C:/Workspace/FW_Inertia/branch_indesit/ProductModules/PM_EnergyMeterSw\PM_EnergyMeterSwTable.c **** \retval   [none]
 946:C:/Workspace/FW_Inertia/branch_indesit/ProductModules/PM_EnergyMeterSw\PM_EnergyMeterSwTable.c **** 
 947:C:/Workspace/FW_Inertia/branch_indesit/ProductModules/PM_EnergyMeterSw\PM_EnergyMeterSwTable.c **** \warning  [none]
 948:C:/Workspace/FW_Inertia/branch_indesit/ProductModules/PM_EnergyMeterSw\PM_EnergyMeterSwTable.c **** 
 949:C:/Workspace/FW_Inertia/branch_indesit/ProductModules/PM_EnergyMeterSw\PM_EnergyMeterSwTable.c **** \author   Intecs
 950:C:/Workspace/FW_Inertia/branch_indesit/ProductModules/PM_EnergyMeterSw\PM_EnergyMeterSwTable.c **** \date     08-09-2011
 951:C:/Workspace/FW_Inertia/branch_indesit/ProductModules/PM_EnergyMeterSw\PM_EnergyMeterSwTable.c **** \version  1.0.0
 952:C:/Workspace/FW_Inertia/branch_indesit/ProductModules/PM_EnergyMeterSw\PM_EnergyMeterSwTable.c **** 
 953:C:/Workspace/FW_Inertia/branch_indesit/ProductModules/PM_EnergyMeterSw\PM_EnergyMeterSwTable.c **** \bug    [none]
 954:C:/Workspace/FW_Inertia/branch_indesit/ProductModules/PM_EnergyMeterSw\PM_EnergyMeterSwTable.c **** 
 955:C:/Workspace/FW_Inertia/branch_indesit/ProductModules/PM_EnergyMeterSw\PM_EnergyMeterSwTable.c **** \note   \par \b Nota 1:
 956:C:/Workspace/FW_Inertia/branch_indesit/ProductModules/PM_EnergyMeterSw\PM_EnergyMeterSwTable.c ****       documentation by ${Intecs}
 957:C:/Workspace/FW_Inertia/branch_indesit/ProductModules/PM_EnergyMeterSw\PM_EnergyMeterSwTable.c **** */
 958:C:/Workspace/FW_Inertia/branch_indesit/ProductModules/PM_EnergyMeterSw\PM_EnergyMeterSwTable.c **** STATIC eEMS_Err TableCalibDoppia_Rette (uint16_t ui16Yx, uint16_t ui16Vin,
 959:C:/Workspace/FW_Inertia/branch_indesit/ProductModules/PM_EnergyMeterSw\PM_EnergyMeterSwTable.c ****                                         uint16_t ui16Y1, const stCurveYLine_t* psY1Line,
 960:C:/Workspace/FW_Inertia/branch_indesit/ProductModules/PM_EnergyMeterSw\PM_EnergyMeterSwTable.c ****                                         uint16_t ui16Y2, const stCurveYLine_t* psY2Line,
 961:C:/Workspace/FW_Inertia/branch_indesit/ProductModules/PM_EnergyMeterSw\PM_EnergyMeterSwTable.c ****                                         uint16_t* pui16Power)
 962:C:/Workspace/FW_Inertia/branch_indesit/ProductModules/PM_EnergyMeterSw\PM_EnergyMeterSwTable.c **** {
 706                             		.loc 1 962 0
 707                             	.LVL75:
 708 0000 6E 7D                   		pushm	r7-r13
 709                             	.LCFI14:
 710 0002 71 00 E4                		add	#-28, r0
 711                             	.LCFI15:
 712 0005 75 47 3C                		mov.L	#60, r7
 713 0008 4B 07                   		add	r0, r7
 714 000a EF 4E                   		mov.L	r4, r14
 715 000c DC 79                   		mov.W	[r7], r9
 716 000e ED 7D 01                		mov.L	4[r7], r13
 717 0011 A8 F7                   		mov.L	8[r7], r7
 963:C:/Workspace/FW_Inertia/branch_indesit/ProductModules/PM_EnergyMeterSw\PM_EnergyMeterSwTable.c ****   uint16_t ui16P1x;   /* punto sulla retta Y1 */
 964:C:/Workspace/FW_Inertia/branch_indesit/ProductModules/PM_EnergyMeterSw\PM_EnergyMeterSwTable.c **** 
 965:C:/Workspace/FW_Inertia/branch_indesit/ProductModules/PM_EnergyMeterSw\PM_EnergyMeterSwTable.c **** 
 966:C:/Workspace/FW_Inertia/branch_indesit/ProductModules/PM_EnergyMeterSw\PM_EnergyMeterSwTable.c **** 
 967:C:/Workspace/FW_Inertia/branch_indesit/ProductModules/PM_EnergyMeterSw\PM_EnergyMeterSwTable.c **** #if CHECK_TABLE
 968:C:/Workspace/FW_Inertia/branch_indesit/ProductModules/PM_EnergyMeterSw\PM_EnergyMeterSwTable.c ****   if (psY1Line == NULL)
 718                             		.loc 1 968 0
 719 0013 61 04                   		cmp	#0, r4
 720 0015 1D                      		bne	.L105
 721                             	.LVL76:
 722                             		.balign 2,3,1
 723                             	.L107:
 969:C:/Workspace/FW_Inertia/branch_indesit/ProductModules/PM_EnergyMeterSw\PM_EnergyMeterSwTable.c ****   {
 970:C:/Workspace/FW_Inertia/branch_indesit/ProductModules/PM_EnergyMeterSw\PM_EnergyMeterSwTable.c ****     return EMS_E_INVALID_VALUE;
 724                             		.loc 1 970 0
 725 0016 66 31                   		mov.L	#3, r1
 726 0018 2E 46                   		bra	.L106
 727                             	.LVL77:
 728                             	.L105:
 971:C:/Workspace/FW_Inertia/branch_indesit/ProductModules/PM_EnergyMeterSw\PM_EnergyMeterSwTable.c ****   }
 972:C:/Workspace/FW_Inertia/branch_indesit/ProductModules/PM_EnergyMeterSw\PM_EnergyMeterSwTable.c **** 
 973:C:/Workspace/FW_Inertia/branch_indesit/ProductModules/PM_EnergyMeterSw\PM_EnergyMeterSwTable.c ****   if ((psY1Line->sPoint1.ui8Valid == 0) || (psY1Line->sPoint2.ui8Valid == 0))
 729                             		.loc 1 973 0
 730 001a 58 44                   		movu.B	[r4], r4
 731                             	.LVL78:
 732 001c 61 04                   		cmp	#0, r4
 733 001e 20 F8                   		beq	.L107
 734                             		.loc 1 973 0 is_stmt 0 discriminator 1
 735 0020 59 E4 06                		movu.B	6[r14], r4
 736 0023 61 04                   		cmp	#0, r4
 737 0025 20 F1                   		beq	.L107
 738 0027 DF 1C                   		mov.W	r1, r12
 739 0029 DF 2A                   		mov.W	r2, r10
 740 002b DF 3B                   		mov.W	r3, r11
 974:C:/Workspace/FW_Inertia/branch_indesit/ProductModules/PM_EnergyMeterSw\PM_EnergyMeterSwTable.c ****   {
 975:C:/Workspace/FW_Inertia/branch_indesit/ProductModules/PM_EnergyMeterSw\PM_EnergyMeterSwTable.c ****     return EMS_E_INVALID_VALUE;
 976:C:/Workspace/FW_Inertia/branch_indesit/ProductModules/PM_EnergyMeterSw\PM_EnergyMeterSwTable.c ****   }
 977:C:/Workspace/FW_Inertia/branch_indesit/ProductModules/PM_EnergyMeterSw\PM_EnergyMeterSwTable.c **** #endif
 978:C:/Workspace/FW_Inertia/branch_indesit/ProductModules/PM_EnergyMeterSw\PM_EnergyMeterSwTable.c **** 
 979:C:/Workspace/FW_Inertia/branch_indesit/ProductModules/PM_EnergyMeterSw\PM_EnergyMeterSwTable.c ****   /* calcola il valore di potenza P1x, sulla retta Y1, corrispondente a Vin */
 980:C:/Workspace/FW_Inertia/branch_indesit/ProductModules/PM_EnergyMeterSw\PM_EnergyMeterSwTable.c ****   if (EMS_E_OK != CalcoloPuntoSuRetta(ui16Vin,
 741                             		.loc 1 980 0 is_stmt 1
 742 002d DD E2 01                		mov.W	2[r14], r2
 743                             	.LVL79:
 744 0030 DD E3 02                		mov.W	4[r14], r3
 745                             	.LVL80:
 746 0033 DD E4 04                		mov.W	8[r14], r4
 747 0036 D1 E0 05                		mov.W	10[r14], [r0]
 748 0039 66 CE                   		mov.L	#12, r14
 749                             	.LVL81:
 750 003b 4B 0E                   		add	r0, r14
 751 003d E7 0E 01                		mov.L	r14, 4[r0]
 752 0040 DF A1                   		mov.W	r10, r1
 753                             	.LVL82:
 754 0042 05 00 00 00             		bsr	_CalcoloPuntoSuRetta
 755                             	.LVL83:
 756 0046 61 01                   		cmp	#0, r1
 757 0048 21 CE                   		bne	.L107
 981:C:/Workspace/FW_Inertia/branch_indesit/ProductModules/PM_EnergyMeterSw\PM_EnergyMeterSwTable.c ****                                       psY1Line->sPoint1.ui16V, psY1Line->sPoint1.ui16Pw,
 982:C:/Workspace/FW_Inertia/branch_indesit/ProductModules/PM_EnergyMeterSw\PM_EnergyMeterSwTable.c ****                                       psY1Line->sPoint2.ui16V, psY1Line->sPoint2.ui16Pw,
 983:C:/Workspace/FW_Inertia/branch_indesit/ProductModules/PM_EnergyMeterSw\PM_EnergyMeterSwTable.c ****                                       &ui16P1x))
 984:C:/Workspace/FW_Inertia/branch_indesit/ProductModules/PM_EnergyMeterSw\PM_EnergyMeterSwTable.c ****   {
 985:C:/Workspace/FW_Inertia/branch_indesit/ProductModules/PM_EnergyMeterSw\PM_EnergyMeterSwTable.c ****     return EMS_E_INVALID_VALUE;
 986:C:/Workspace/FW_Inertia/branch_indesit/ProductModules/PM_EnergyMeterSw\PM_EnergyMeterSwTable.c ****   }
 987:C:/Workspace/FW_Inertia/branch_indesit/ProductModules/PM_EnergyMeterSw\PM_EnergyMeterSwTable.c **** 
 988:C:/Workspace/FW_Inertia/branch_indesit/ProductModules/PM_EnergyMeterSw\PM_EnergyMeterSwTable.c ****   /* calcola il valore di potenza basato su Yx, Vin sul punto (Y1,P1) e sulla retta Y2 */
 989:C:/Workspace/FW_Inertia/branch_indesit/ProductModules/PM_EnergyMeterSw\PM_EnergyMeterSwTable.c ****   return TableCalibDoppia_PuntoRetta(ui16Yx, ui16Vin,
 758                             		.loc 1 989 0
 759 004a D3 09                   		mov.W	r9, [r0]
 760 004c E7 0D 01                		mov.L	r13, 4[r0]
 761 004f A0 87                   		mov.L	r7, 8[r0]
 762 0051 DF C1                   		mov.W	r12, r1
 763 0053 DF A2                   		mov.W	r10, r2
 764 0055 DF B3                   		mov.W	r11, r3
 765                             	.LVL84:
 766 0057 99 84                   		mov.W	12[r0], r4
 767 0059 05 00 00 00             		bsr	_TableCalibDoppia_PuntoRetta
 768                             	.LVL85:
 769 005d 03                      		.balign 2,3,2
 770                             	.L106:
 990:C:/Workspace/FW_Inertia/branch_indesit/ProductModules/PM_EnergyMeterSw\PM_EnergyMeterSwTable.c ****                                      ui16Y1, ui16P1x,
 991:C:/Workspace/FW_Inertia/branch_indesit/ProductModules/PM_EnergyMeterSw\PM_EnergyMeterSwTable.c ****                                      ui16Y2, psY2Line,
 992:C:/Workspace/FW_Inertia/branch_indesit/ProductModules/PM_EnergyMeterSw\PM_EnergyMeterSwTable.c ****                                      pui16Power);
 993:C:/Workspace/FW_Inertia/branch_indesit/ProductModules/PM_EnergyMeterSw\PM_EnergyMeterSwTable.c **** }
 771                             		.loc 1 993 0
 772 005e 3F 7D 0E                		rtsd	#56, r7-r13
 773                             	.LFE13:
 775 0061 03                      		.section	.text.TableCalibDoppia,"ax",@progbits
 776                             		.global	_TableCalibDoppia
 778                             	_TableCalibDoppia:
 779                             	.LFB14:
 994:C:/Workspace/FW_Inertia/branch_indesit/ProductModules/PM_EnergyMeterSw\PM_EnergyMeterSwTable.c **** 
 995:C:/Workspace/FW_Inertia/branch_indesit/ProductModules/PM_EnergyMeterSw\PM_EnergyMeterSwTable.c **** 
 996:C:/Workspace/FW_Inertia/branch_indesit/ProductModules/PM_EnergyMeterSw\PM_EnergyMeterSwTable.c **** /*--------------------------------------
 997:C:/Workspace/FW_Inertia/branch_indesit/ProductModules/PM_EnergyMeterSw\PM_EnergyMeterSwTable.c ****  Computes the power based on Yx, Vin
 998:C:/Workspace/FW_Inertia/branch_indesit/ProductModules/PM_EnergyMeterSw\PM_EnergyMeterSwTable.c ****  and the curves Y1 and Y2.
 999:C:/Workspace/FW_Inertia/branch_indesit/ProductModules/PM_EnergyMeterSw\PM_EnergyMeterSwTable.c ****  -------------------------------------*/
1000:C:/Workspace/FW_Inertia/branch_indesit/ProductModules/PM_EnergyMeterSw\PM_EnergyMeterSwTable.c **** eEMS_Err TableCalibDoppia (const stTable_t* psTable, uint16_t ui16Yx, uint16_t ui16Vin,
1001:C:/Workspace/FW_Inertia/branch_indesit/ProductModules/PM_EnergyMeterSw\PM_EnergyMeterSwTable.c ****                            const stTableSurfaceY_t* psSurfaceY, uint16_t* pui16Power)
1002:C:/Workspace/FW_Inertia/branch_indesit/ProductModules/PM_EnergyMeterSw\PM_EnergyMeterSwTable.c **** {
 780                             		.loc 1 1002 0
 781                             	.LVL86:
 782 0000 6E 7D                   		pushm	r7-r13
 783                             	.LCFI16:
 784 0002 71 00 D8                		add	#-40, r0
 785                             	.LCFI17:
 786 0005 EF 4A                   		mov.L	r4, r10
 787 0007 ED 0D 12                		mov.L	72[r0], r13
1003:C:/Workspace/FW_Inertia/branch_indesit/ProductModules/PM_EnergyMeterSw\PM_EnergyMeterSwTable.c ****   stCurveYLine_t sLineY1; /* retta su Y1 */
1004:C:/Workspace/FW_Inertia/branch_indesit/ProductModules/PM_EnergyMeterSw\PM_EnergyMeterSwTable.c ****   stCurveYLine_t sLineY2; /* retta su Y2 */
1005:C:/Workspace/FW_Inertia/branch_indesit/ProductModules/PM_EnergyMeterSw\PM_EnergyMeterSwTable.c ****   uint8_t aui8Result[2];
1006:C:/Workspace/FW_Inertia/branch_indesit/ProductModules/PM_EnergyMeterSw\PM_EnergyMeterSwTable.c **** 
1007:C:/Workspace/FW_Inertia/branch_indesit/ProductModules/PM_EnergyMeterSw\PM_EnergyMeterSwTable.c **** 
1008:C:/Workspace/FW_Inertia/branch_indesit/ProductModules/PM_EnergyMeterSw\PM_EnergyMeterSwTable.c **** #if CHECK_TABLE
1009:C:/Workspace/FW_Inertia/branch_indesit/ProductModules/PM_EnergyMeterSw\PM_EnergyMeterSwTable.c ****   if (psSurfaceY == NULL)
 788                             		.loc 1 1009 0
 789 000a 61 04                   		cmp	#0, r4
 790 000c 1F                      		bne	.L116
 791                             	.LVL87:
 792 000d 03                      		.balign 2,3,1
 793                             	.L118:
1010:C:/Workspace/FW_Inertia/branch_indesit/ProductModules/PM_EnergyMeterSw\PM_EnergyMeterSwTable.c ****   {
1011:C:/Workspace/FW_Inertia/branch_indesit/ProductModules/PM_EnergyMeterSw\PM_EnergyMeterSwTable.c ****     return EMS_E_INVALID_VALUE;
 794                             		.loc 1 1011 0
 795 000e 66 31                   		mov.L	#3, r1
 796 0010 38 BA 00                		bra	.L117
 797                             	.LVL88:
 798                             	.L116:
 799 0013 EF 19                   		mov.L	r1, r9
 800 0015 DF 2C                   		mov.W	r2, r12
 801 0017 DF 37                   		mov.W	r3, r7
1012:C:/Workspace/FW_Inertia/branch_indesit/ProductModules/PM_EnergyMeterSw\PM_EnergyMeterSwTable.c ****   }
1013:C:/Workspace/FW_Inertia/branch_indesit/ProductModules/PM_EnergyMeterSw\PM_EnergyMeterSwTable.c **** #endif
1014:C:/Workspace/FW_Inertia/branch_indesit/ProductModules/PM_EnergyMeterSw\PM_EnergyMeterSwTable.c **** 
1015:C:/Workspace/FW_Inertia/branch_indesit/ProductModules/PM_EnergyMeterSw\PM_EnergyMeterSwTable.c ****   /* Y1 < Yx < Y2 */
1016:C:/Workspace/FW_Inertia/branch_indesit/ProductModules/PM_EnergyMeterSw\PM_EnergyMeterSwTable.c **** 
1017:C:/Workspace/FW_Inertia/branch_indesit/ProductModules/PM_EnergyMeterSw\PM_EnergyMeterSwTable.c ****   /* init lines */
1018:C:/Workspace/FW_Inertia/branch_indesit/ProductModules/PM_EnergyMeterSw\PM_EnergyMeterSwTable.c ****   LineInit(&sLineY1);
 802                             		.loc 1 1018 0
 803 0019 71 0B 18                		add	#24, r0, r11
 804 001c EF B1                   		mov.L	r11, r1
 805                             	.LVL89:
 806 001e 05 00 00 00             		bsr	_LineInit
 807                             	.LVL90:
1019:C:/Workspace/FW_Inertia/branch_indesit/ProductModules/PM_EnergyMeterSw\PM_EnergyMeterSwTable.c ****   LineInit(&sLineY2);
 808                             		.loc 1 1019 0
 809 0022 66 C1                   		mov.L	#12, r1
 810 0024 4B 01                   		add	r0, r1
 811 0026 05 00 00 00             		bsr	_LineInit
 812                             	.LVL91:
1020:C:/Workspace/FW_Inertia/branch_indesit/ProductModules/PM_EnergyMeterSw\PM_EnergyMeterSwTable.c **** 
1021:C:/Workspace/FW_Inertia/branch_indesit/ProductModules/PM_EnergyMeterSw\PM_EnergyMeterSwTable.c ****   /* cerca sulla curva Y1 la retta che include Vin */
1022:C:/Workspace/FW_Inertia/branch_indesit/ProductModules/PM_EnergyMeterSw\PM_EnergyMeterSwTable.c ****   aui8Result[0] = CurveYFindPoints(psTable, &(psSurfaceY->sCurveY1), ui16Vin, &sLineY1);
 813                             		.loc 1 1022 0
 814 002a EF 91                   		mov.L	r9, r1
 815 002c EF A2                   		mov.L	r10, r2
 816 002e DF 73                   		mov.W	r7, r3
 817 0030 EF B4                   		mov.L	r11, r4
 818 0032 05 00 00 00             		bsr	_CurveYFindPoints
 819                             	.LVL92:
1023:C:/Workspace/FW_Inertia/branch_indesit/ProductModules/PM_EnergyMeterSw\PM_EnergyMeterSwTable.c ****   if ((aui8Result[0] != EMS_E_OK) || (sLineY1.sPoint1.ui8Valid == 0))
 820                             		.loc 1 1023 0
 821 0036 76 21 FF 00             		and #0xff, r1
 822                             	.LVL93:
 823 003a 21 D4                   		bne	.L118
 824                             		.loc 1 1023 0 is_stmt 0 discriminator 1
 825 003c 59 0E 18                		movu.B	24[r0], r14
 826 003f 61 0E                   		cmp	#0, r14
 827 0041 20 CD                   		beq	.L118
1024:C:/Workspace/FW_Inertia/branch_indesit/ProductModules/PM_EnergyMeterSw\PM_EnergyMeterSwTable.c ****   {
1025:C:/Workspace/FW_Inertia/branch_indesit/ProductModules/PM_EnergyMeterSw\PM_EnergyMeterSwTable.c ****     return EMS_E_INVALID_VALUE;
1026:C:/Workspace/FW_Inertia/branch_indesit/ProductModules/PM_EnergyMeterSw\PM_EnergyMeterSwTable.c ****   }
1027:C:/Workspace/FW_Inertia/branch_indesit/ProductModules/PM_EnergyMeterSw\PM_EnergyMeterSwTable.c **** 
1028:C:/Workspace/FW_Inertia/branch_indesit/ProductModules/PM_EnergyMeterSw\PM_EnergyMeterSwTable.c ****   /* cerca sulla curva Y2 la retta che include Vin */
1029:C:/Workspace/FW_Inertia/branch_indesit/ProductModules/PM_EnergyMeterSw\PM_EnergyMeterSwTable.c ****   aui8Result[1] = CurveYFindPoints(psTable, &(psSurfaceY->sCurveY2), ui16Vin, &sLineY2);
 828                             		.loc 1 1029 0 is_stmt 1
 829 0043 EF 91                   		mov.L	r9, r1
 830 0045 71 A2 0C                		add	#12, r10, r2
 831 0048 DF 73                   		mov.W	r7, r3
 832 004a 66 C4                   		mov.L	#12, r4
 833 004c 4B 04                   		add	r0, r4
 834 004e 05 00 00 00             		bsr	_CurveYFindPoints
 835                             	.LVL94:
1030:C:/Workspace/FW_Inertia/branch_indesit/ProductModules/PM_EnergyMeterSw\PM_EnergyMeterSwTable.c ****   if ((aui8Result[1] != EMS_E_OK) || (sLineY2.sPoint1.ui8Valid == 0))
 836                             		.loc 1 1030 0
 837 0052 76 21 FF 00             		and #0xff, r1
 838                             	.LVL95:
 839 0056 21 B8                   		bne	.L118
 840                             		.loc 1 1030 0 is_stmt 0 discriminator 1
 841 0058 59 0E 0C                		movu.B	12[r0], r14
 842 005b 61 0E                   		cmp	#0, r14
 843 005d 20 B1                   		beq	.L118
1031:C:/Workspace/FW_Inertia/branch_indesit/ProductModules/PM_EnergyMeterSw\PM_EnergyMeterSwTable.c ****   {
1032:C:/Workspace/FW_Inertia/branch_indesit/ProductModules/PM_EnergyMeterSw\PM_EnergyMeterSwTable.c ****     return EMS_E_INVALID_VALUE;
1033:C:/Workspace/FW_Inertia/branch_indesit/ProductModules/PM_EnergyMeterSw\PM_EnergyMeterSwTable.c ****   }
1034:C:/Workspace/FW_Inertia/branch_indesit/ProductModules/PM_EnergyMeterSw\PM_EnergyMeterSwTable.c **** 
1035:C:/Workspace/FW_Inertia/branch_indesit/ProductModules/PM_EnergyMeterSw\PM_EnergyMeterSwTable.c ****   /* trovato almeno un valore su Y1 (sLineY1.sPoint1) e un valore su Y2 (sLineY2.sPoint1) */
1036:C:/Workspace/FW_Inertia/branch_indesit/ProductModules/PM_EnergyMeterSw\PM_EnergyMeterSwTable.c **** 
1037:C:/Workspace/FW_Inertia/branch_indesit/ProductModules/PM_EnergyMeterSw\PM_EnergyMeterSwTable.c ****   if ((sLineY1.sPoint2.ui8Valid == 0) && (sLineY2.sPoint2.ui8Valid == 0))
 844                             		.loc 1 1037 0 is_stmt 1
 845 005f B7 84                   		movu.B	30[r0], r4
 846 0061 59 0E 12                		movu.B	18[r0], r14
 847 0064 DD A3 01                		mov.W	2[r10], r3
 848 0067 DD AA 07                		mov.W	14[r10], r10
 849                             	.LVL96:
 850 006a 61 04                   		cmp	#0, r4
 851 006c 21 1C                   		bne	.L119
 852 006e 9B 84                   		mov.W	28[r0], r4
 853                             		.loc 1 1037 0 is_stmt 0 discriminator 1
 854 0070 61 0E                   		cmp	#0, r14
 855 0072 21 2C                   		bne	.L120
 856                             	.LVL97:
 857                             	.LBB56:
 858                             	.LBB57:
 857:C:/Workspace/FW_Inertia/branch_indesit/ProductModules/PM_EnergyMeterSw\PM_EnergyMeterSwTable.c ****   return CalcoloPuntoSuRetta(ui16Yx,
 859                             		.loc 1 857 0 is_stmt 1
 860 0074 D1 00 08                		mov.W	16[r0], [r0]
 861 0077 E7 0D 01                		mov.L	r13, 4[r0]
 862 007a DF C1                   		mov.W	r12, r1
 863 007c DF 32                   		mov.W	r3, r2
 864 007e DF 43                   		mov.W	r4, r3
 865 0080 DF A4                   		mov.W	r10, r4
 866 0082 05 00 00 00             		bsr	_CalcoloPuntoSuRetta
 867                             	.LVL98:
 868 0086 2E 44                   		bra	.L117
 869                             	.LVL99:
 870                             	.L119:
 871                             	.LBE57:
 872                             	.LBE56:
1038:C:/Workspace/FW_Inertia/branch_indesit/ProductModules/PM_EnergyMeterSw\PM_EnergyMeterSwTable.c ****   {
1039:C:/Workspace/FW_Inertia/branch_indesit/ProductModules/PM_EnergyMeterSw\PM_EnergyMeterSwTable.c ****     /* trovato un solo valore su Y1 e un solo valore su Y2 */
1040:C:/Workspace/FW_Inertia/branch_indesit/ProductModules/PM_EnergyMeterSw\PM_EnergyMeterSwTable.c ****     return TableCalibDoppia_Punti(ui16Yx,
1041:C:/Workspace/FW_Inertia/branch_indesit/ProductModules/PM_EnergyMeterSw\PM_EnergyMeterSwTable.c ****                                   psSurfaceY->sCurveY1.ui16Yvalue, sLineY1.sPoint1.ui16Pw,
1042:C:/Workspace/FW_Inertia/branch_indesit/ProductModules/PM_EnergyMeterSw\PM_EnergyMeterSwTable.c ****                                   psSurfaceY->sCurveY2.ui16Yvalue, sLineY2.sPoint1.ui16Pw,
1043:C:/Workspace/FW_Inertia/branch_indesit/ProductModules/PM_EnergyMeterSw\PM_EnergyMeterSwTable.c ****                                   pui16Power);
1044:C:/Workspace/FW_Inertia/branch_indesit/ProductModules/PM_EnergyMeterSw\PM_EnergyMeterSwTable.c ****   }
1045:C:/Workspace/FW_Inertia/branch_indesit/ProductModules/PM_EnergyMeterSw\PM_EnergyMeterSwTable.c ****   else if ((sLineY1.sPoint2.ui8Valid != 0) && (sLineY2.sPoint2.ui8Valid == 0))
 873                             		.loc 1 1045 0 discriminator 1
 874 0088 61 0E                   		cmp	#0, r14
 875 008a 21 2A                   		bne	.L121
1046:C:/Workspace/FW_Inertia/branch_indesit/ProductModules/PM_EnergyMeterSw\PM_EnergyMeterSwTable.c ****   {
1047:C:/Workspace/FW_Inertia/branch_indesit/ProductModules/PM_EnergyMeterSw\PM_EnergyMeterSwTable.c ****     /* trovati due valori su Y1 e un solo valore su Y2 */
1048:C:/Workspace/FW_Inertia/branch_indesit/ProductModules/PM_EnergyMeterSw\PM_EnergyMeterSwTable.c ****     return TableCalibDoppia_PuntoRetta(ui16Yx, ui16Vin,
 876                             		.loc 1 1048 0
 877 008c D3 03                   		mov.W	r3, [r0]
 878 008e E7 0B 01                		mov.L	r11, 4[r0]
 879 0091 E7 0D 02                		mov.L	r13, 8[r0]
 880 0094 DF C1                   		mov.W	r12, r1
 881 0096 DF 72                   		mov.W	r7, r2
 882 0098 DF A3                   		mov.W	r10, r3
 883 009a 9A 04                   		mov.W	16[r0], r4
 884 009c 2E 12                   		bra	.L129
 885                             	.L120:
1049:C:/Workspace/FW_Inertia/branch_indesit/ProductModules/PM_EnergyMeterSw\PM_EnergyMeterSwTable.c ****                                        psSurfaceY->sCurveY2.ui16Yvalue, sLineY2.sPoint1.ui16Pw,
1050:C:/Workspace/FW_Inertia/branch_indesit/ProductModules/PM_EnergyMeterSw\PM_EnergyMeterSwTable.c ****                                        psSurfaceY->sCurveY1.ui16Yvalue, &sLineY1,
1051:C:/Workspace/FW_Inertia/branch_indesit/ProductModules/PM_EnergyMeterSw\PM_EnergyMeterSwTable.c ****                                        pui16Power);
1052:C:/Workspace/FW_Inertia/branch_indesit/ProductModules/PM_EnergyMeterSw\PM_EnergyMeterSwTable.c ****   }
1053:C:/Workspace/FW_Inertia/branch_indesit/ProductModules/PM_EnergyMeterSw\PM_EnergyMeterSwTable.c ****   else if ((sLineY1.sPoint2.ui8Valid == 0) && (sLineY2.sPoint2.ui8Valid != 0))
1054:C:/Workspace/FW_Inertia/branch_indesit/ProductModules/PM_EnergyMeterSw\PM_EnergyMeterSwTable.c ****   {
1055:C:/Workspace/FW_Inertia/branch_indesit/ProductModules/PM_EnergyMeterSw\PM_EnergyMeterSwTable.c ****     /* trovato un solo valore su Y1 e due valori su Y2 */
1056:C:/Workspace/FW_Inertia/branch_indesit/ProductModules/PM_EnergyMeterSw\PM_EnergyMeterSwTable.c ****     return TableCalibDoppia_PuntoRetta(ui16Yx, ui16Vin,
 886                             		.loc 1 1056 0 discriminator 1
 887 009e D3 0A                   		mov.W	r10, [r0]
 888 00a0 66 CA                   		mov.L	#12, r10
 889 00a2 4B 0A                   		add	r0, r10
 890 00a4 E7 0A 01                		mov.L	r10, 4[r0]
 891 00a7 E7 0D 02                		mov.L	r13, 8[r0]
 892 00aa DF C1                   		mov.W	r12, r1
 893 00ac DF 72                   		mov.W	r7, r2
 894                             	.LVL100:
 895                             		.balign 2,3,3
 896                             	.L129:
 897 00ae 05 00 00 00             		bsr	_TableCalibDoppia_PuntoRetta
 898                             	.LVL101:
 899 00b2 2E 18                   		bra	.L117
 900                             	.L121:
1057:C:/Workspace/FW_Inertia/branch_indesit/ProductModules/PM_EnergyMeterSw\PM_EnergyMeterSwTable.c ****                                        psSurfaceY->sCurveY1.ui16Yvalue, sLineY1.sPoint1.ui16Pw,
1058:C:/Workspace/FW_Inertia/branch_indesit/ProductModules/PM_EnergyMeterSw\PM_EnergyMeterSwTable.c ****                                        psSurfaceY->sCurveY2.ui16Yvalue, &sLineY2,
1059:C:/Workspace/FW_Inertia/branch_indesit/ProductModules/PM_EnergyMeterSw\PM_EnergyMeterSwTable.c ****                                        pui16Power);
1060:C:/Workspace/FW_Inertia/branch_indesit/ProductModules/PM_EnergyMeterSw\PM_EnergyMeterSwTable.c ****   }
1061:C:/Workspace/FW_Inertia/branch_indesit/ProductModules/PM_EnergyMeterSw\PM_EnergyMeterSwTable.c ****   else /* if ((sLineY1.sPoint2.ui8Valid != 0) && (sLineY2.sPoint2.ui8Valid != 0)) */
1062:C:/Workspace/FW_Inertia/branch_indesit/ProductModules/PM_EnergyMeterSw\PM_EnergyMeterSwTable.c ****   {
1063:C:/Workspace/FW_Inertia/branch_indesit/ProductModules/PM_EnergyMeterSw\PM_EnergyMeterSwTable.c ****     /* trovati due valori su Y1 e due valori su Y2 */
1064:C:/Workspace/FW_Inertia/branch_indesit/ProductModules/PM_EnergyMeterSw\PM_EnergyMeterSwTable.c ****     return TableCalibDoppia_Rette(ui16Yx, ui16Vin,
 901                             		.loc 1 1064 0
 902 00b4 D3 0A                   		mov.W	r10, [r0]
 903 00b6 66 CA                   		mov.L	#12, r10
 904 00b8 4B 0A                   		add	r0, r10
 905 00ba E7 0A 01                		mov.L	r10, 4[r0]
 906 00bd E7 0D 02                		mov.L	r13, 8[r0]
 907 00c0 DF C1                   		mov.W	r12, r1
 908 00c2 DF 72                   		mov.W	r7, r2
 909 00c4 EF B4                   		mov.L	r11, r4
 910 00c6 05 00 00 00             		bsr	_TableCalibDoppia_Rette
 911                             	.LVL102:
 912                             		.balign 2,3,2
 913                             	.L117:
1065:C:/Workspace/FW_Inertia/branch_indesit/ProductModules/PM_EnergyMeterSw\PM_EnergyMeterSwTable.c ****                                   psSurfaceY->sCurveY1.ui16Yvalue, &sLineY1,
1066:C:/Workspace/FW_Inertia/branch_indesit/ProductModules/PM_EnergyMeterSw\PM_EnergyMeterSwTable.c ****                                   psSurfaceY->sCurveY2.ui16Yvalue, &sLineY2,
1067:C:/Workspace/FW_Inertia/branch_indesit/ProductModules/PM_EnergyMeterSw\PM_EnergyMeterSwTable.c ****                                   pui16Power);
1068:C:/Workspace/FW_Inertia/branch_indesit/ProductModules/PM_EnergyMeterSw\PM_EnergyMeterSwTable.c ****   }
1069:C:/Workspace/FW_Inertia/branch_indesit/ProductModules/PM_EnergyMeterSw\PM_EnergyMeterSwTable.c **** }
 914                             		.loc 1 1069 0
 915 00ca 3F 7D 11                		rtsd	#68, r7-r13
 916                             	.LFE14:
 918 00cd 03                      		.section	.text.TablePower,"ax",@progbits
 919                             		.global	_TablePower
 921                             	_TablePower:
 922                             	.LFB1:
 228:C:/Workspace/FW_Inertia/branch_indesit/ProductModules/PM_EnergyMeterSw\PM_EnergyMeterSwTable.c **** {
 923                             		.loc 1 228 0
 924                             	.LVL103:
 925 0000 6E 7B                   		pushm	r7-r11
 926                             	.LCFI18:
 927 0002 71 00 E0                		add	#-32, r0
 928                             	.LCFI19:
 234:C:/Workspace/FW_Inertia/branch_indesit/ProductModules/PM_EnergyMeterSw\PM_EnergyMeterSwTable.c ****   if ((psTable == NULL) || (pui16Power == NULL))
 929                             		.loc 1 234 0
 930 0005 71 17 00                		add	#0, r1, r7
 931 0008 1E                      		bne	.L131
 932                             	.LVL104:
 933 0009 03                      		.balign 2,3,1
 934                             	.L133:
 236:C:/Workspace/FW_Inertia/branch_indesit/ProductModules/PM_EnergyMeterSw\PM_EnergyMeterSwTable.c ****     return EMS_E_INVALID_VALUE;
 935                             		.loc 1 236 0
 936 000a 66 31                   		mov.L	#3, r1
 937 000c 2E 5E                   		bra	.L132
 938                             	.LVL105:
 939                             	.L131:
 234:C:/Workspace/FW_Inertia/branch_indesit/ProductModules/PM_EnergyMeterSw\PM_EnergyMeterSwTable.c ****   if ((psTable == NULL) || (pui16Power == NULL))
 940                             		.loc 1 234 0 discriminator 1
 941 000e 61 04                   		cmp	#0, r4
 942 0010 20 FA                   		beq	.L133
 943 0012 DF 2A                   		mov.W	r2, r10
 944 0014 DF 3B                   		mov.W	r3, r11
 945                             	.LVL106:
 245:C:/Workspace/FW_Inertia/branch_indesit/ProductModules/PM_EnergyMeterSw\PM_EnergyMeterSwTable.c ****   CurveInit(&sSurface.sCurveY1);
 946                             		.loc 1 245 0
 947 0016 66 41                   		mov.L	#4, r1
 948                             	.LVL107:
 949 0018 4B 01                   		add	r0, r1
 950 001a A1 8C                   		mov.L	r4, 28[r0]
 951 001c 05 00 00 00             		bsr	_CurveInit
 952                             	.LVL108:
 246:C:/Workspace/FW_Inertia/branch_indesit/ProductModules/PM_EnergyMeterSw\PM_EnergyMeterSwTable.c ****   CurveInit(&sSurface.sCurveY2);
 953                             		.loc 1 246 0
 954 0020 71 01 10                		add	#16, r0, r1
 955 0023 05 00 00 00             		bsr	_CurveInit
 956                             	.LVL109:
 249:C:/Workspace/FW_Inertia/branch_indesit/ProductModules/PM_EnergyMeterSw\PM_EnergyMeterSwTable.c ****   ui8Result = TableFindYCurves(psTable, ui16Yx, &sSurface);
 957                             		.loc 1 249 0
 958 0027 EF 71                   		mov.L	r7, r1
 959 0029 DF A2                   		mov.W	r10, r2
 960 002b 66 43                   		mov.L	#4, r3
 961 002d 4B 03                   		add	r0, r3
 962 002f 05 00 00 00             		bsr	_TableFindYCurves
 963                             	.LVL110:
 250:C:/Workspace/FW_Inertia/branch_indesit/ProductModules/PM_EnergyMeterSw\PM_EnergyMeterSwTable.c ****   if ((ui8Result != EMS_E_OK) || (sSurface.sCurveY1.ui8Valid == 0))
 964                             		.loc 1 250 0
 965 0033 5B 11                   		movu.B	r1, r1
 966 0035 A9 8C                   		mov.L	28[r0], r4
 967 0037 61 01                   		cmp	#0, r1
 968 0039 21 D1                   		bne	.L133
 250:C:/Workspace/FW_Inertia/branch_indesit/ProductModules/PM_EnergyMeterSw\PM_EnergyMeterSwTable.c ****   if ((ui8Result != EMS_E_OK) || (sSurface.sCurveY1.ui8Valid == 0))
 969                             		.loc 1 250 0 is_stmt 0 discriminator 1
 970 003b 59 0E 04                		movu.B	4[r0], r14
 971 003e 61 0E                   		cmp	#0, r14
 972 0040 20 CA                   		beq	.L133
 241:C:/Workspace/FW_Inertia/branch_indesit/ProductModules/PM_EnergyMeterSw\PM_EnergyMeterSwTable.c ****   ui16Vin >>= 8;
 973                             		.loc 1 241 0 is_stmt 1
 974 0042 5F B3                   		movu.W	r11, r3
 975 0044 68 83                   		shlr	#8, r3
 258:C:/Workspace/FW_Inertia/branch_indesit/ProductModules/PM_EnergyMeterSw\PM_EnergyMeterSwTable.c ****   if (sSurface.sCurveY2.ui8Valid == 0)
 976                             		.loc 1 258 0
 977 0046 59 0B 10                		movu.B	16[r0], r11
 978                             	.LVL111:
 979 0049 61 0B                   		cmp	#0, r11
 980 004b 21 10                   		bne	.L134
 260:C:/Workspace/FW_Inertia/branch_indesit/ProductModules/PM_EnergyMeterSw\PM_EnergyMeterSwTable.c ****     return TableCalibSingola(psTable, ui16Vin, &sSurface.sCurveY1, pui16Power);
 981                             		.loc 1 260 0
 982 004d EF 71                   		mov.L	r7, r1
 983                             	.LVL112:
 984 004f DF 32                   		mov.W	r3, r2
 985 0051 66 43                   		mov.L	#4, r3
 986 0053 4B 03                   		add	r0, r3
 987 0055 05 00 00 00             		bsr	_TableCalibSingola
 988                             	.LVL113:
 989 0059 2E 11                   		bra	.L132
 990                             	.LVL114:
 991                             	.L134:
 264:C:/Workspace/FW_Inertia/branch_indesit/ProductModules/PM_EnergyMeterSw\PM_EnergyMeterSwTable.c ****     return TableCalibDoppia(psTable, ui16Yx, ui16Vin, &sSurface, pui16Power);
 992                             		.loc 1 264 0
 993 005b E3 04                   		mov.L	r4, [r0]
 994 005d EF 71                   		mov.L	r7, r1
 995                             	.LVL115:
 996 005f DF A2                   		mov.W	r10, r2
 997 0061 66 44                   		mov.L	#4, r4
 998 0063 4B 04                   		add	r0, r4
 999 0065 05 00 00 00             		bsr	_TableCalibDoppia
 1000                             	.LVL116:
 1001 0069 03                      		.balign 2,3,2
 1002                             	.L132:
 266:C:/Workspace/FW_Inertia/branch_indesit/ProductModules/PM_EnergyMeterSw\PM_EnergyMeterSwTable.c **** }
 1003                             		.loc 1 266 0
 1004 006a 3F 7B 0D                		rtsd	#52, r7-r11
 1005                             	.LFE1:
 1336                             	.Letext0:
 1337                             		.file 2 "C:\\Workspace\\FW_Inertia\\branch_indesit\\HAL\\HAL_General/StandardTypes.h"
 1338                             		.file 3 "C:/Workspace/FW_Inertia/branch_indesit/ProductModules/PM_EnergyMeterSw/PM_EnergyMeterSwEx
 1339                             		.file 4 "C:/Workspace/FW_Inertia/branch_indesit/ProductModules/PM_EnergyMeterSw/PM_EnergyMeterSwTa
 1340                             		.file 5 "C:/Workspace/FW_Inertia/branch_indesit/ProductModules/PM_EnergyMeterSw/PM_EnergyMeterSwTa
DEFINED SYMBOLS
                            *ABS*:00000000 PM_EnergyMeterSwTable.c
C:\Users\Andrea\AppData\Local\Temp\ccWupC4t.s:7      .text.TableInit:00000000 _TableInit
C:\Users\Andrea\AppData\Local\Temp\ccWupC4t.s:13     .text.TableInit:00000000 L0
C:\Users\Andrea\AppData\Local\Temp\ccWupC4t.s:69     .text.CurveInit:00000000 _CurveInit
C:\Users\Andrea\AppData\Local\Temp\ccWupC4t.s:74     .text.CurveInit:00000000 L0
C:\Users\Andrea\AppData\Local\Temp\ccWupC4t.s:88     .text.CurveSet:00000000 _CurveSet
C:\Users\Andrea\AppData\Local\Temp\ccWupC4t.s:93     .text.CurveSet:00000000 L0
C:\Users\Andrea\AppData\Local\Temp\ccWupC4t.s:123    .text.TableFindYCurves:00000000 _TableFindYCurves
C:\Users\Andrea\AppData\Local\Temp\ccWupC4t.s:127    .text.TableFindYCurves:00000000 L0
C:\Users\Andrea\AppData\Local\Temp\ccWupC4t.s:271    .text.PointInit:00000000 _PointInit
C:\Users\Andrea\AppData\Local\Temp\ccWupC4t.s:276    .text.PointInit:00000000 L0
C:\Users\Andrea\AppData\Local\Temp\ccWupC4t.s:290    .text.PointSet:00000000 _PointSet
C:\Users\Andrea\AppData\Local\Temp\ccWupC4t.s:295    .text.PointSet:00000000 L0
C:\Users\Andrea\AppData\Local\Temp\ccWupC4t.s:310    .text.LineInit:00000000 _LineInit
C:\Users\Andrea\AppData\Local\Temp\ccWupC4t.s:313    .text.LineInit:00000000 L0
C:\Users\Andrea\AppData\Local\Temp\ccWupC4t.s:334    .text.CurveYFindPoints:00000000 _CurveYFindPoints
C:\Users\Andrea\AppData\Local\Temp\ccWupC4t.s:338    .text.CurveYFindPoints:00000000 L0
C:\Users\Andrea\AppData\Local\Temp\ccWupC4t.s:460    .text.CalcoloPuntoSuRetta:00000000 _CalcoloPuntoSuRetta
C:\Users\Andrea\AppData\Local\Temp\ccWupC4t.s:464    .text.CalcoloPuntoSuRetta:00000000 L0
C:\Users\Andrea\AppData\Local\Temp\ccWupC4t.s:535    .text.TableCalibSingola:00000000 _TableCalibSingola
C:\Users\Andrea\AppData\Local\Temp\ccWupC4t.s:539    .text.TableCalibSingola:00000000 L0
C:\Users\Andrea\AppData\Local\Temp\ccWupC4t.s:606    .text.TableCalibDoppia_Punti:00000000 _TableCalibDoppia_Punti
C:\Users\Andrea\AppData\Local\Temp\ccWupC4t.s:610    .text.TableCalibDoppia_Punti:00000000 L0
C:\Users\Andrea\AppData\Local\Temp\ccWupC4t.s:625    .text.TableCalibDoppia_PuntoRetta:00000000 _TableCalibDoppia_PuntoRetta
C:\Users\Andrea\AppData\Local\Temp\ccWupC4t.s:629    .text.TableCalibDoppia_PuntoRetta:00000000 L0
C:\Users\Andrea\AppData\Local\Temp\ccWupC4t.s:704    .text.TableCalibDoppia_Rette:00000000 _TableCalibDoppia_Rette
C:\Users\Andrea\AppData\Local\Temp\ccWupC4t.s:708    .text.TableCalibDoppia_Rette:00000000 L0
C:\Users\Andrea\AppData\Local\Temp\ccWupC4t.s:778    .text.TableCalibDoppia:00000000 _TableCalibDoppia
C:\Users\Andrea\AppData\Local\Temp\ccWupC4t.s:782    .text.TableCalibDoppia:00000000 L0
C:\Users\Andrea\AppData\Local\Temp\ccWupC4t.s:921    .text.TablePower:00000000 _TablePower
C:\Users\Andrea\AppData\Local\Temp\ccWupC4t.s:925    .text.TablePower:00000000 L0
C:\Users\Andrea\AppData\Local\Temp\ccWupC4t.s:1008   .debug_frame:00000000 .Lframe0
C:\Users\Andrea\AppData\Local\Temp\ccWupC4t.s:8      .text.TableInit:00000000 .LFB0
C:\Users\Andrea\AppData\Local\Temp\ccWupC4t.s:70     .text.CurveInit:00000000 .LFB2
C:\Users\Andrea\AppData\Local\Temp\ccWupC4t.s:89     .text.CurveSet:00000000 .LFB3
C:\Users\Andrea\AppData\Local\Temp\ccWupC4t.s:124    .text.TableFindYCurves:00000000 .LFB4
C:\Users\Andrea\AppData\Local\Temp\ccWupC4t.s:272    .text.PointInit:00000000 .LFB5
C:\Users\Andrea\AppData\Local\Temp\ccWupC4t.s:291    .text.PointSet:00000000 .LFB6
C:\Users\Andrea\AppData\Local\Temp\ccWupC4t.s:311    .text.LineInit:00000000 .LFB7
C:\Users\Andrea\AppData\Local\Temp\ccWupC4t.s:335    .text.CurveYFindPoints:00000000 .LFB8
C:\Users\Andrea\AppData\Local\Temp\ccWupC4t.s:461    .text.CalcoloPuntoSuRetta:00000000 .LFB9
C:\Users\Andrea\AppData\Local\Temp\ccWupC4t.s:536    .text.TableCalibSingola:00000000 .LFB10
C:\Users\Andrea\AppData\Local\Temp\ccWupC4t.s:607    .text.TableCalibDoppia_Punti:00000000 .LFB11
C:\Users\Andrea\AppData\Local\Temp\ccWupC4t.s:626    .text.TableCalibDoppia_PuntoRetta:00000000 .LFB12
C:\Users\Andrea\AppData\Local\Temp\ccWupC4t.s:705    .text.TableCalibDoppia_Rette:00000000 .LFB13
C:\Users\Andrea\AppData\Local\Temp\ccWupC4t.s:779    .text.TableCalibDoppia:00000000 .LFB14
C:\Users\Andrea\AppData\Local\Temp\ccWupC4t.s:922    .text.TablePower:00000000 .LFB1
C:\Users\Andrea\AppData\Local\Temp\ccWupC4t.s:3131   .debug_abbrev:00000000 .Ldebug_abbrev0
C:\Users\Andrea\AppData\Local\Temp\ccWupC4t.s:5250   .debug_str:00000015 .LASF92
C:\Users\Andrea\AppData\Local\Temp\ccWupC4t.s:5416   .debug_str:000003ed .LASF93
C:\Users\Andrea\AppData\Local\Temp\ccWupC4t.s:5210   .debug_ranges:00000000 .Ldebug_ranges0
C:\Users\Andrea\AppData\Local\Temp\ccWupC4t.s:5244   .debug_line:00000000 .Ldebug_line0
C:\Users\Andrea\AppData\Local\Temp\ccWupC4t.s:5262   .debug_str:00000087 .LASF0
C:\Users\Andrea\AppData\Local\Temp\ccWupC4t.s:5360   .debug_str:000002b4 .LASF3
C:\Users\Andrea\AppData\Local\Temp\ccWupC4t.s:5368   .debug_str:000002da .LASF1
C:\Users\Andrea\AppData\Local\Temp\ccWupC4t.s:5386   .debug_str:00000352 .LASF2
C:\Users\Andrea\AppData\Local\Temp\ccWupC4t.s:5376   .debug_str:0000030e .LASF4
C:\Users\Andrea\AppData\Local\Temp\ccWupC4t.s:5316   .debug_str:000001b0 .LASF5
C:\Users\Andrea\AppData\Local\Temp\ccWupC4t.s:5354   .debug_str:00000274 .LASF6
C:\Users\Andrea\AppData\Local\Temp\ccWupC4t.s:5308   .debug_str:00000189 .LASF7
C:\Users\Andrea\AppData\Local\Temp\ccWupC4t.s:5284   .debug_str:000000f4 .LASF8
C:\Users\Andrea\AppData\Local\Temp\ccWupC4t.s:5342   .debug_str:00000237 .LASF9
C:\Users\Andrea\AppData\Local\Temp\ccWupC4t.s:5352   .debug_str:00000268 .LASF10
C:\Users\Andrea\AppData\Local\Temp\ccWupC4t.s:5358   .debug_str:000002a7 .LASF11
C:\Users\Andrea\AppData\Local\Temp\ccWupC4t.s:5264   .debug_str:00000091 .LASF12
C:\Users\Andrea\AppData\Local\Temp\ccWupC4t.s:5428   .debug_str:0000047c .LASF13
C:\Users\Andrea\AppData\Local\Temp\ccWupC4t.s:5322   .debug_str:000001d1 .LASF14
C:\Users\Andrea\AppData\Local\Temp\ccWupC4t.s:5410   .debug_str:000003cc .LASF15
C:\Users\Andrea\AppData\Local\Temp\ccWupC4t.s:5286   .debug_str:000000fc .LASF16
C:\Users\Andrea\AppData\Local\Temp\ccWupC4t.s:5328   .debug_str:000001f5 .LASF17
C:\Users\Andrea\AppData\Local\Temp\ccWupC4t.s:5420   .debug_str:00000457 .LASF18
C:\Users\Andrea\AppData\Local\Temp\ccWupC4t.s:5392   .debug_str:0000037b .LASF19
C:\Users\Andrea\AppData\Local\Temp\ccWupC4t.s:5370   .debug_str:000002ed .LASF20
C:\Users\Andrea\AppData\Local\Temp\ccWupC4t.s:5248   .debug_str:0000000b .LASF21
C:\Users\Andrea\AppData\Local\Temp\ccWupC4t.s:5372   .debug_str:000002fb .LASF22
C:\Users\Andrea\AppData\Local\Temp\ccWupC4t.s:5278   .debug_str:000000d7 .LASF23
C:\Users\Andrea\AppData\Local\Temp\ccWupC4t.s:5378   .debug_str:00000316 .LASF24
C:\Users\Andrea\AppData\Local\Temp\ccWupC4t.s:5366   .debug_str:000002d0 .LASF25
C:\Users\Andrea\AppData\Local\Temp\ccWupC4t.s:5336   .debug_str:00000214 .LASF26
C:\Users\Andrea\AppData\Local\Temp\ccWupC4t.s:5298   .debug_str:00000141 .LASF27
C:\Users\Andrea\AppData\Local\Temp\ccWupC4t.s:5294   .debug_str:00000127 .LASF28
C:\Users\Andrea\AppData\Local\Temp\ccWupC4t.s:5260   .debug_str:0000007e .LASF29
C:\Users\Andrea\AppData\Local\Temp\ccWupC4t.s:5306   .debug_str:00000177 .LASF30
C:\Users\Andrea\AppData\Local\Temp\ccWupC4t.s:5408   .debug_str:000003c6 .LASF31
C:\Users\Andrea\AppData\Local\Temp\ccWupC4t.s:5270   .debug_str:000000ac .LASF32
C:\Users\Andrea\AppData\Local\Temp\ccWupC4t.s:5256   .debug_str:00000057 .LASF33
C:\Users\Andrea\AppData\Local\Temp\ccWupC4t.s:5274   .debug_str:000000c4 .LASF34
C:\Users\Andrea\AppData\Local\Temp\ccWupC4t.s:5330   .debug_str:000001fe .LASF35
C:\Users\Andrea\AppData\Local\Temp\ccWupC4t.s:5390   .debug_str:0000036c .LASF36
C:\Users\Andrea\AppData\Local\Temp\ccWupC4t.s:5268   .debug_str:000000a3 .LASF94
C:\Users\Andrea\AppData\Local\Temp\ccWupC4t.s:5422   .debug_str:00000462 .LASF37
C:\Users\Andrea\AppData\Local\Temp\ccWupC4t.s:5436   .debug_str:0000049d .LASF47
C:\Users\Andrea\AppData\Local\Temp\ccWupC4t.s:5338   .debug_str:0000021d .LASF38
C:\Users\Andrea\AppData\Local\Temp\ccWupC4t.s:5310   .debug_str:00000197 .LASF39
C:\Users\Andrea\AppData\Local\Temp\ccWupC4t.s:5426   .debug_str:00000474 .LASF40
C:\Users\Andrea\AppData\Local\Temp\ccWupC4t.s:5346   .debug_str:00000252 .LASF41
C:\Users\Andrea\AppData\Local\Temp\ccWupC4t.s:5396   .debug_str:00000391 .LASF42
C:\Users\Andrea\AppData\Local\Temp\ccWupC4t.s:5434   .debug_str:00000493 .LASF43
C:\Users\Andrea\AppData\Local\Temp\ccWupC4t.s:5418   .debug_str:0000044c .LASF44
C:\Users\Andrea\AppData\Local\Temp\ccWupC4t.s:5380   .debug_str:00000321 .LASF45
C:\Users\Andrea\AppData\Local\Temp\ccWupC4t.s:5302   .debug_str:00000160 .LASF46
C:\Users\Andrea\AppData\Local\Temp\ccWupC4t.s:5254   .debug_str:00000043 .LASF48
C:\Users\Andrea\AppData\Local\Temp\ccWupC4t.s:5398   .debug_str:0000039d .LASF49
C:\Users\Andrea\AppData\Local\Temp\ccWupC4t.s:5430   .debug_str:00000485 .LASF50
C:\Users\Andrea\AppData\Local\Temp\ccWupC4t.s:5348   .debug_str:0000025a .LASF51
C:\Users\Andrea\AppData\Local\Temp\ccWupC4t.s:5432   .debug_str:0000048c .LASF52
C:\Users\Andrea\AppData\Local\Temp\ccWupC4t.s:5350   .debug_str:00000261 .LASF53
C:\Users\Andrea\AppData\Local\Temp\ccWupC4t.s:5414   .debug_str:000003e6 .LASF54
C:\Users\Andrea\AppData\Local\Temp\ccWupC4t.s:5334   .debug_str:0000020f .LASF55
C:\Users\Andrea\AppData\Local\Temp\ccWupC4t.s:5384   .debug_str:0000033b .LASF56
C:\Users\Andrea\AppData\Local\Temp\ccWupC4t.s:5324   .debug_str:000001e4 .LASF57
C:\Users\Andrea\AppData\Local\Temp\ccWupC4t.s:5288   .debug_str:00000110 .LASF58
C:\Users\Andrea\AppData\Local\Temp\ccWupC4t.s:5402   .debug_str:000003ae .LASF59
C:\Users\Andrea\AppData\Local\Temp\ccWupC4t.s:5290   .debug_str:00000117 .LASF60
C:\Users\Andrea\AppData\Local\Temp\ccWupC4t.s:5404   .debug_str:000003b5 .LASF61
C:\Users\Andrea\AppData\Local\Temp\ccWupC4t.s:5276   .debug_str:000000cc .LASF62
C:\Users\Andrea\AppData\Local\Temp\ccWupC4t.s:5356   .debug_str:0000028b .LASF63
C:\Users\Andrea\AppData\Local\Temp\ccWupC4t.s:5304   .debug_str:0000016e .LASF64
C:\Users\Andrea\AppData\Local\Temp\ccWupC4t.s:5252   .debug_str:0000003b .LASF65
C:\Users\Andrea\AppData\Local\Temp\ccWupC4t.s:5406   .debug_str:000003bc .LASF72
C:\Users\Andrea\AppData\Local\Temp\ccWupC4t.s:64     .text.TableInit:00000034 .LFE0
C:\Users\Andrea\AppData\Local\Temp\ccWupC4t.s:5326   .debug_str:000001eb .LASF66
C:\Users\Andrea\AppData\Local\Temp\ccWupC4t.s:3760   .debug_loc:00000000 .LLST0
C:\Users\Andrea\AppData\Local\Temp\ccWupC4t.s:5344   .debug_str:00000245 .LASF67
C:\Users\Andrea\AppData\Local\Temp\ccWupC4t.s:3791   .debug_loc:00000047 .LLST1
C:\Users\Andrea\AppData\Local\Temp\ccWupC4t.s:5320   .debug_str:000001c7 .LASF68
C:\Users\Andrea\AppData\Local\Temp\ccWupC4t.s:83     .text.CurveInit:0000000a .LFE2
C:\Users\Andrea\AppData\Local\Temp\ccWupC4t.s:3817   .debug_loc:00000082 .LLST2
C:\Users\Andrea\AppData\Local\Temp\ccWupC4t.s:5292   .debug_str:0000011e .LASF69
C:\Users\Andrea\AppData\Local\Temp\ccWupC4t.s:118    .text.CurveSet:0000001b .LFE3
C:\Users\Andrea\AppData\Local\Temp\ccWupC4t.s:5412   .debug_str:000003e0 .LASF70
C:\Users\Andrea\AppData\Local\Temp\ccWupC4t.s:5300   .debug_str:00000151 .LASF71
C:\Users\Andrea\AppData\Local\Temp\ccWupC4t.s:3831   .debug_loc:000000a3 .LLST3
C:\Users\Andrea\AppData\Local\Temp\ccWupC4t.s:5296   .debug_str:00000130 .LASF73
C:\Users\Andrea\AppData\Local\Temp\ccWupC4t.s:266    .text.TableFindYCurves:0000008f .LFE4
C:\Users\Andrea\AppData\Local\Temp\ccWupC4t.s:3850   .debug_loc:000000d0 .LLST4
C:\Users\Andrea\AppData\Local\Temp\ccWupC4t.s:3868   .debug_loc:000000fc .LLST5
C:\Users\Andrea\AppData\Local\Temp\ccWupC4t.s:3894   .debug_loc:0000013e .LLST6
C:\Users\Andrea\AppData\Local\Temp\ccWupC4t.s:5400   .debug_str:000003a3 .LASF74
C:\Users\Andrea\AppData\Local\Temp\ccWupC4t.s:3923   .debug_loc:00000183 .LLST7
C:\Users\Andrea\AppData\Local\Temp\ccWupC4t.s:5318   .debug_str:000001b9 .LASF75
C:\Users\Andrea\AppData\Local\Temp\ccWupC4t.s:3952   .debug_loc:000001c8 .LLST8
C:\Users\Andrea\AppData\Local\Temp\ccWupC4t.s:5364   .debug_str:000002c4 .LASF76
C:\Users\Andrea\AppData\Local\Temp\ccWupC4t.s:3967   .debug_loc:000001f1 .LLST9
C:\Users\Andrea\AppData\Local\Temp\ccWupC4t.s:3979   .debug_loc:00000210 .LLST10
C:\Users\Andrea\AppData\Local\Temp\ccWupC4t.s:4010   .debug_loc:00000265 .LLST11
C:\Users\Andrea\AppData\Local\Temp\ccWupC4t.s:5374   .debug_str:00000300 .LASF77
C:\Users\Andrea\AppData\Local\Temp\ccWupC4t.s:4021   .debug_loc:00000283 .LLST12
C:\Users\Andrea\AppData\Local\Temp\ccWupC4t.s:5382   .debug_str:0000032e .LASF78
C:\Users\Andrea\AppData\Local\Temp\ccWupC4t.s:4071   .debug_loc:000002d6 .LLST13
C:\Users\Andrea\AppData\Local\Temp\ccWupC4t.s:221    .text.TableFindYCurves:00000064 .LVL29
C:\Users\Andrea\AppData\Local\Temp\ccWupC4t.s:235    .text.TableFindYCurves:00000074 .LVL32
C:\Users\Andrea\AppData\Local\Temp\ccWupC4t.s:5282   .debug_str:000000ea .LASF79
C:\Users\Andrea\AppData\Local\Temp\ccWupC4t.s:285    .text.PointInit:0000000a .LFE5
C:\Users\Andrea\AppData\Local\Temp\ccWupC4t.s:4098   .debug_loc:00000320 .LLST14
C:\Users\Andrea\AppData\Local\Temp\ccWupC4t.s:305    .text.PointSet:0000000b .LFE6
C:\Users\Andrea\AppData\Local\Temp\ccWupC4t.s:5266   .debug_str:0000009a .LASF95
C:\Users\Andrea\AppData\Local\Temp\ccWupC4t.s:329    .text.LineInit:00000017 .LFE7
C:\Users\Andrea\AppData\Local\Temp\ccWupC4t.s:4112   .debug_loc:00000341 .LLST15
C:\Users\Andrea\AppData\Local\Temp\ccWupC4t.s:455    .text.CurveYFindPoints:00000075 .LFE8
C:\Users\Andrea\AppData\Local\Temp\ccWupC4t.s:4125   .debug_loc:00000361 .LLST16
C:\Users\Andrea\AppData\Local\Temp\ccWupC4t.s:352    .text.CurveYFindPoints:00000014 .LBB34
C:\Users\Andrea\AppData\Local\Temp\ccWupC4t.s:444    .text.CurveYFindPoints:0000006d .LBE34
C:\Users\Andrea\AppData\Local\Temp\ccWupC4t.s:353    .text.CurveYFindPoints:00000014 .LBB35
C:\Users\Andrea\AppData\Local\Temp\ccWupC4t.s:443    .text.CurveYFindPoints:0000006d .LBE35
C:\Users\Andrea\AppData\Local\Temp\ccWupC4t.s:377    .text.CurveYFindPoints:00000035 .LBB36
C:\Users\Andrea\AppData\Local\Temp\ccWupC4t.s:386    .text.CurveYFindPoints:0000003c .LBE36
C:\Users\Andrea\AppData\Local\Temp\ccWupC4t.s:393    .text.CurveYFindPoints:00000044 .LBB38
C:\Users\Andrea\AppData\Local\Temp\ccWupC4t.s:408    .text.CurveYFindPoints:00000050 .LBE38
C:\Users\Andrea\AppData\Local\Temp\ccWupC4t.s:409    .text.CurveYFindPoints:00000050 .LBB40
C:\Users\Andrea\AppData\Local\Temp\ccWupC4t.s:422    .text.CurveYFindPoints:0000005a .LBE40
C:\Users\Andrea\AppData\Local\Temp\ccWupC4t.s:423    .text.CurveYFindPoints:0000005a .LBB42
C:\Users\Andrea\AppData\Local\Temp\ccWupC4t.s:432    .text.CurveYFindPoints:00000062 .LBE42
C:\Users\Andrea\AppData\Local\Temp\ccWupC4t.s:530    .text.CalcoloPuntoSuRetta:00000045 .LFE9
C:\Users\Andrea\AppData\Local\Temp\ccWupC4t.s:4148   .debug_loc:00000399 .LLST17
C:\Users\Andrea\AppData\Local\Temp\ccWupC4t.s:4166   .debug_loc:000003c5 .LLST18
C:\Users\Andrea\AppData\Local\Temp\ccWupC4t.s:4180   .debug_loc:000003e6 .LLST19
C:\Users\Andrea\AppData\Local\Temp\ccWupC4t.s:4194   .debug_loc:00000407 .LLST20
C:\Users\Andrea\AppData\Local\Temp\ccWupC4t.s:4223   .debug_loc:0000044c .LLST21
C:\Users\Andrea\AppData\Local\Temp\ccWupC4t.s:485    .text.CalcoloPuntoSuRetta:00000020 .LBB46
C:\Users\Andrea\AppData\Local\Temp\ccWupC4t.s:522    .text.CalcoloPuntoSuRetta:0000003f .LBE46
C:\Users\Andrea\AppData\Local\Temp\ccWupC4t.s:4237   .debug_loc:0000046d .LLST22
C:\Users\Andrea\AppData\Local\Temp\ccWupC4t.s:4244   .debug_loc:00000480 .LLST23
C:\Users\Andrea\AppData\Local\Temp\ccWupC4t.s:4251   .debug_loc:00000493 .LLST24
C:\Users\Andrea\AppData\Local\Temp\ccWupC4t.s:486    .text.CalcoloPuntoSuRetta:00000020 .LBB47
C:\Users\Andrea\AppData\Local\Temp\ccWupC4t.s:521    .text.CalcoloPuntoSuRetta:0000003f .LBE47
C:\Users\Andrea\AppData\Local\Temp\ccWupC4t.s:4269   .debug_loc:000004bf .LLST25
C:\Users\Andrea\AppData\Local\Temp\ccWupC4t.s:5340   .debug_str:00000225 .LASF80
C:\Users\Andrea\AppData\Local\Temp\ccWupC4t.s:601    .text.TableCalibSingola:00000055 .LFE10
C:\Users\Andrea\AppData\Local\Temp\ccWupC4t.s:4289   .debug_loc:000004ed .LLST26
C:\Users\Andrea\AppData\Local\Temp\ccWupC4t.s:4307   .debug_loc:00000519 .LLST27
C:\Users\Andrea\AppData\Local\Temp\ccWupC4t.s:4336   .debug_loc:0000055e .LLST28
C:\Users\Andrea\AppData\Local\Temp\ccWupC4t.s:4365   .debug_loc:000005a3 .LLST29
C:\Users\Andrea\AppData\Local\Temp\ccWupC4t.s:4394   .debug_loc:000005e8 .LLST30
C:\Users\Andrea\AppData\Local\Temp\ccWupC4t.s:5362   .debug_str:000002bd .LASF81
C:\Users\Andrea\AppData\Local\Temp\ccWupC4t.s:5394   .debug_str:00000386 .LASF82
C:\Users\Andrea\AppData\Local\Temp\ccWupC4t.s:4413   .debug_loc:0000061c .LLST31
C:\Users\Andrea\AppData\Local\Temp\ccWupC4t.s:562    .text.TableCalibSingola:0000001c .LVL56
C:\Users\Andrea\AppData\Local\Temp\ccWupC4t.s:570    .text.TableCalibSingola:0000002a .LVL57
C:\Users\Andrea\AppData\Local\Temp\ccWupC4t.s:596    .text.TableCalibSingola:00000051 .LVL60
C:\Users\Andrea\AppData\Local\Temp\ccWupC4t.s:620    .text.TableCalibDoppia_Punti:0000000c .LFE11
C:\Users\Andrea\AppData\Local\Temp\ccWupC4t.s:4420   .debug_loc:0000062f .LLST32
C:\Users\Andrea\AppData\Local\Temp\ccWupC4t.s:4438   .debug_loc:0000065b .LLST33
C:\Users\Andrea\AppData\Local\Temp\ccWupC4t.s:4452   .debug_loc:0000067c .LLST34
C:\Users\Andrea\AppData\Local\Temp\ccWupC4t.s:4466   .debug_loc:0000069d .LLST35
C:\Users\Andrea\AppData\Local\Temp\ccWupC4t.s:4480   .debug_loc:000006be .LLST36
C:\Users\Andrea\AppData\Local\Temp\ccWupC4t.s:619    .text.TableCalibDoppia_Punti:0000000c .LVL62
C:\Users\Andrea\AppData\Local\Temp\ccWupC4t.s:699    .text.TableCalibDoppia_PuntoRetta:0000005d .LFE12
C:\Users\Andrea\AppData\Local\Temp\ccWupC4t.s:4494   .debug_loc:000006df .LLST37
C:\Users\Andrea\AppData\Local\Temp\ccWupC4t.s:4512   .debug_loc:0000070b .LLST38
C:\Users\Andrea\AppData\Local\Temp\ccWupC4t.s:4530   .debug_loc:00000737 .LLST39
C:\Users\Andrea\AppData\Local\Temp\ccWupC4t.s:4548   .debug_loc:00000763 .LLST40
C:\Users\Andrea\AppData\Local\Temp\ccWupC4t.s:4566   .debug_loc:0000078f .LLST41
C:\Users\Andrea\AppData\Local\Temp\ccWupC4t.s:656    .text.TableCalibDoppia_PuntoRetta:0000002a .LBB52
C:\Users\Andrea\AppData\Local\Temp\ccWupC4t.s:691    .text.TableCalibDoppia_PuntoRetta:00000057 .LBE52
C:\Users\Andrea\AppData\Local\Temp\ccWupC4t.s:4584   .debug_loc:000007bb .LLST42
C:\Users\Andrea\AppData\Local\Temp\ccWupC4t.s:4591   .debug_loc:000007ce .LLST43
C:\Users\Andrea\AppData\Local\Temp\ccWupC4t.s:4603   .debug_loc:000007ed .LLST44
C:\Users\Andrea\AppData\Local\Temp\ccWupC4t.s:4610   .debug_loc:00000800 .LLST45
C:\Users\Andrea\AppData\Local\Temp\ccWupC4t.s:4617   .debug_loc:00000813 .LLST46
C:\Users\Andrea\AppData\Local\Temp\ccWupC4t.s:4628   .debug_loc:00000831 .LLST47
C:\Users\Andrea\AppData\Local\Temp\ccWupC4t.s:4646   .debug_loc:0000085d .LLST48
C:\Users\Andrea\AppData\Local\Temp\ccWupC4t.s:657    .text.TableCalibDoppia_PuntoRetta:0000002a .LBB53
C:\Users\Andrea\AppData\Local\Temp\ccWupC4t.s:690    .text.TableCalibDoppia_PuntoRetta:00000057 .LBE53
C:\Users\Andrea\AppData\Local\Temp\ccWupC4t.s:4653   .debug_loc:00000870 .LLST49
C:\Users\Andrea\AppData\Local\Temp\ccWupC4t.s:674    .text.TableCalibDoppia_PuntoRetta:00000045 .LBB54
C:\Users\Andrea\AppData\Local\Temp\ccWupC4t.s:689    .text.TableCalibDoppia_PuntoRetta:00000057 .LBE54
C:\Users\Andrea\AppData\Local\Temp\ccWupC4t.s:4666   .debug_loc:00000890 .LLST50
C:\Users\Andrea\AppData\Local\Temp\ccWupC4t.s:4673   .debug_loc:000008a3 .LLST51
C:\Users\Andrea\AppData\Local\Temp\ccWupC4t.s:4681   .debug_loc:000008b7 .LLST52
C:\Users\Andrea\AppData\Local\Temp\ccWupC4t.s:4688   .debug_loc:000008ca .LLST53
C:\Users\Andrea\AppData\Local\Temp\ccWupC4t.s:4695   .debug_loc:000008dd .LLST54
C:\Users\Andrea\AppData\Local\Temp\ccWupC4t.s:4702   .debug_loc:000008f0 .LLST55
C:\Users\Andrea\AppData\Local\Temp\ccWupC4t.s:684    .text.TableCalibDoppia_PuntoRetta:00000056 .LVL72
C:\Users\Andrea\AppData\Local\Temp\ccWupC4t.s:670    .text.TableCalibDoppia_PuntoRetta:00000041 .LVL70
C:\Users\Andrea\AppData\Local\Temp\ccWupC4t.s:5258   .debug_str:00000067 .LASF83
C:\Users\Andrea\AppData\Local\Temp\ccWupC4t.s:773    .text.TableCalibDoppia_Rette:00000061 .LFE13
C:\Users\Andrea\AppData\Local\Temp\ccWupC4t.s:4709   .debug_loc:00000903 .LLST56
C:\Users\Andrea\AppData\Local\Temp\ccWupC4t.s:4727   .debug_loc:0000092f .LLST57
C:\Users\Andrea\AppData\Local\Temp\ccWupC4t.s:4756   .debug_loc:00000974 .LLST58
C:\Users\Andrea\AppData\Local\Temp\ccWupC4t.s:4785   .debug_loc:000009b9 .LLST59
C:\Users\Andrea\AppData\Local\Temp\ccWupC4t.s:5424   .debug_str:0000046b .LASF84
C:\Users\Andrea\AppData\Local\Temp\ccWupC4t.s:4814   .debug_loc:000009fe .LLST60
C:\Users\Andrea\AppData\Local\Temp\ccWupC4t.s:5388   .debug_str:00000364 .LASF85
C:\Users\Andrea\AppData\Local\Temp\ccWupC4t.s:755    .text.TableCalibDoppia_Rette:00000046 .LVL83
C:\Users\Andrea\AppData\Local\Temp\ccWupC4t.s:768    .text.TableCalibDoppia_Rette:0000005d .LVL85
C:\Users\Andrea\AppData\Local\Temp\ccWupC4t.s:5272   .debug_str:000000b3 .LASF86
C:\Users\Andrea\AppData\Local\Temp\ccWupC4t.s:916    .text.TableCalibDoppia:000000cd .LFE14
C:\Users\Andrea\AppData\Local\Temp\ccWupC4t.s:4843   .debug_loc:00000a43 .LLST61
C:\Users\Andrea\AppData\Local\Temp\ccWupC4t.s:4861   .debug_loc:00000a70 .LLST62
C:\Users\Andrea\AppData\Local\Temp\ccWupC4t.s:4890   .debug_loc:00000ab5 .LLST63
C:\Users\Andrea\AppData\Local\Temp\ccWupC4t.s:4927   .debug_loc:00000b10 .LLST64
C:\Users\Andrea\AppData\Local\Temp\ccWupC4t.s:4964   .debug_loc:00000b6b .LLST65
C:\Users\Andrea\AppData\Local\Temp\ccWupC4t.s:5312   .debug_str:000001a0 .LASF87
C:\Users\Andrea\AppData\Local\Temp\ccWupC4t.s:5314   .debug_str:000001a8 .LASF88
C:\Users\Andrea\AppData\Local\Temp\ccWupC4t.s:4990   .debug_loc:00000bad .LLST66
C:\Users\Andrea\AppData\Local\Temp\ccWupC4t.s:857    .text.TableCalibDoppia:00000074 .LBB56
C:\Users\Andrea\AppData\Local\Temp\ccWupC4t.s:872    .text.TableCalibDoppia:00000088 .LBE56
C:\Users\Andrea\AppData\Local\Temp\ccWupC4t.s:5009   .debug_loc:00000bd3 .LLST67
C:\Users\Andrea\AppData\Local\Temp\ccWupC4t.s:5016   .debug_loc:00000be6 .LLST68
C:\Users\Andrea\AppData\Local\Temp\ccWupC4t.s:5024   .debug_loc:00000bfa .LLST69
C:\Users\Andrea\AppData\Local\Temp\ccWupC4t.s:5032   .debug_loc:00000c0e .LLST70
C:\Users\Andrea\AppData\Local\Temp\ccWupC4t.s:867    .text.TableCalibDoppia:00000086 .LVL98
C:\Users\Andrea\AppData\Local\Temp\ccWupC4t.s:807    .text.TableCalibDoppia:00000022 .LVL90
C:\Users\Andrea\AppData\Local\Temp\ccWupC4t.s:812    .text.TableCalibDoppia:0000002a .LVL91
C:\Users\Andrea\AppData\Local\Temp\ccWupC4t.s:819    .text.TableCalibDoppia:00000036 .LVL92
C:\Users\Andrea\AppData\Local\Temp\ccWupC4t.s:835    .text.TableCalibDoppia:00000052 .LVL94
C:\Users\Andrea\AppData\Local\Temp\ccWupC4t.s:898    .text.TableCalibDoppia:000000b2 .LVL101
C:\Users\Andrea\AppData\Local\Temp\ccWupC4t.s:911    .text.TableCalibDoppia:000000ca .LVL102
C:\Users\Andrea\AppData\Local\Temp\ccWupC4t.s:5246   .debug_str:00000000 .LASF89
C:\Users\Andrea\AppData\Local\Temp\ccWupC4t.s:1005   .text.TablePower:0000006d .LFE1
C:\Users\Andrea\AppData\Local\Temp\ccWupC4t.s:5039   .debug_loc:00000c21 .LLST71
C:\Users\Andrea\AppData\Local\Temp\ccWupC4t.s:5057   .debug_loc:00000c4d .LLST72
C:\Users\Andrea\AppData\Local\Temp\ccWupC4t.s:5076   .debug_loc:00000c81 .LLST73
C:\Users\Andrea\AppData\Local\Temp\ccWupC4t.s:5105   .debug_loc:00000cc6 .LLST74
C:\Users\Andrea\AppData\Local\Temp\ccWupC4t.s:5133   .debug_loc:00000d03 .LLST75
C:\Users\Andrea\AppData\Local\Temp\ccWupC4t.s:5332   .debug_str:00000206 .LASF90
C:\Users\Andrea\AppData\Local\Temp\ccWupC4t.s:5280   .debug_str:000000e0 .LASF91
C:\Users\Andrea\AppData\Local\Temp\ccWupC4t.s:5158   .debug_loc:00000d3d .LLST76
C:\Users\Andrea\AppData\Local\Temp\ccWupC4t.s:952    .text.TablePower:00000020 .LVL108
C:\Users\Andrea\AppData\Local\Temp\ccWupC4t.s:956    .text.TablePower:00000027 .LVL109
C:\Users\Andrea\AppData\Local\Temp\ccWupC4t.s:963    .text.TablePower:00000033 .LVL110
C:\Users\Andrea\AppData\Local\Temp\ccWupC4t.s:988    .text.TablePower:00000059 .LVL113
C:\Users\Andrea\AppData\Local\Temp\ccWupC4t.s:1000   .text.TablePower:00000069 .LVL116
C:\Users\Andrea\AppData\Local\Temp\ccWupC4t.s:11     .text.TableInit:00000000 .LVL0
C:\Users\Andrea\AppData\Local\Temp\ccWupC4t.s:47     .text.TableInit:0000002a .LVL3
C:\Users\Andrea\AppData\Local\Temp\ccWupC4t.s:51     .text.TableInit:0000002e .LVL4
C:\Users\Andrea\AppData\Local\Temp\ccWupC4t.s:57     .text.TableInit:00000031 .LVL5
C:\Users\Andrea\AppData\Local\Temp\ccWupC4t.s:61     .text.TableInit:00000033 .LVL6
C:\Users\Andrea\AppData\Local\Temp\ccWupC4t.s:24     .text.TableInit:00000012 .LVL1
C:\Users\Andrea\AppData\Local\Temp\ccWupC4t.s:30     .text.TableInit:00000017 .LVL2
C:\Users\Andrea\AppData\Local\Temp\ccWupC4t.s:72     .text.CurveInit:00000000 .LVL7
C:\Users\Andrea\AppData\Local\Temp\ccWupC4t.s:80     .text.CurveInit:00000009 .LVL8
C:\Users\Andrea\AppData\Local\Temp\ccWupC4t.s:91     .text.CurveSet:00000000 .LVL9
C:\Users\Andrea\AppData\Local\Temp\ccWupC4t.s:106    .text.CurveSet:00000011 .LVL10
C:\Users\Andrea\AppData\Local\Temp\ccWupC4t.s:115    .text.CurveSet:0000001a .LVL11
C:\Users\Andrea\AppData\Local\Temp\ccWupC4t.s:128    .text.TableFindYCurves:00000002 .LCFI0
C:\Users\Andrea\AppData\Local\Temp\ccWupC4t.s:130    .text.TableFindYCurves:00000004 .LCFI1
C:\Users\Andrea\AppData\Local\Temp\ccWupC4t.s:126    .text.TableFindYCurves:00000000 .LVL12
C:\Users\Andrea\AppData\Local\Temp\ccWupC4t.s:134    .text.TableFindYCurves:00000008 .LVL13
C:\Users\Andrea\AppData\Local\Temp\ccWupC4t.s:140    .text.TableFindYCurves:0000000d .LVL14
C:\Users\Andrea\AppData\Local\Temp\ccWupC4t.s:162    .text.TableFindYCurves:00000026 .LVL17
C:\Users\Andrea\AppData\Local\Temp\ccWupC4t.s:208    .text.TableFindYCurves:00000057 .LVL26
C:\Users\Andrea\AppData\Local\Temp\ccWupC4t.s:261    .text.TableFindYCurves:0000008c .LVL37
C:\Users\Andrea\AppData\Local\Temp\ccWupC4t.s:155    .text.TableFindYCurves:00000020 .LVL16
C:\Users\Andrea\AppData\Local\Temp\ccWupC4t.s:223    .text.TableFindYCurves:00000066 .LVL30
C:\Users\Andrea\AppData\Local\Temp\ccWupC4t.s:242    .text.TableFindYCurves:0000007b .LVL34
C:\Users\Andrea\AppData\Local\Temp\ccWupC4t.s:256    .text.TableFindYCurves:00000089 .LVL36
C:\Users\Andrea\AppData\Local\Temp\ccWupC4t.s:147    .text.TableFindYCurves:00000015 .LVL15
C:\Users\Andrea\AppData\Local\Temp\ccWupC4t.s:169    .text.TableFindYCurves:0000002b .LVL19
C:\Users\Andrea\AppData\Local\Temp\ccWupC4t.s:214    .text.TableFindYCurves:0000005d .LVL27
C:\Users\Andrea\AppData\Local\Temp\ccWupC4t.s:228    .text.TableFindYCurves:0000006a .LVL31
C:\Users\Andrea\AppData\Local\Temp\ccWupC4t.s:238    .text.TableFindYCurves:00000077 .LVL33
C:\Users\Andrea\AppData\Local\Temp\ccWupC4t.s:166    .text.TableFindYCurves:00000028 .LVL18
C:\Users\Andrea\AppData\Local\Temp\ccWupC4t.s:180    .text.TableFindYCurves:00000039 .LVL21
C:\Users\Andrea\AppData\Local\Temp\ccWupC4t.s:188    .text.TableFindYCurves:00000043 .LVL22
C:\Users\Andrea\AppData\Local\Temp\ccWupC4t.s:192    .text.TableFindYCurves:00000048 .LVL23
C:\Users\Andrea\AppData\Local\Temp\ccWupC4t.s:199    .text.TableFindYCurves:0000004f .LVL24
C:\Users\Andrea\AppData\Local\Temp\ccWupC4t.s:202    .text.TableFindYCurves:00000053 .LVL25
C:\Users\Andrea\AppData\Local\Temp\ccWupC4t.s:217    .text.TableFindYCurves:00000060 .LVL28
C:\Users\Andrea\AppData\Local\Temp\ccWupC4t.s:274    .text.PointInit:00000000 .LVL38
C:\Users\Andrea\AppData\Local\Temp\ccWupC4t.s:282    .text.PointInit:00000009 .LVL39
C:\Users\Andrea\AppData\Local\Temp\ccWupC4t.s:314    .text.LineInit:00000002 .LCFI2
C:\Users\Andrea\AppData\Local\Temp\ccWupC4t.s:347    .text.CurveYFindPoints:0000000e .LCFI3
C:\Users\Andrea\AppData\Local\Temp\ccWupC4t.s:442    .text.CurveYFindPoints:0000006d .LCFI4
C:\Users\Andrea\AppData\Local\Temp\ccWupC4t.s:449    .text.CurveYFindPoints:00000070 .LCFI5
C:\Users\Andrea\AppData\Local\Temp\ccWupC4t.s:465    .text.CalcoloPuntoSuRetta:00000002 .LCFI6
C:\Users\Andrea\AppData\Local\Temp\ccWupC4t.s:467    .text.CalcoloPuntoSuRetta:00000004 .LCFI7
C:\Users\Andrea\AppData\Local\Temp\ccWupC4t.s:463    .text.CalcoloPuntoSuRetta:00000000 .LVL41
C:\Users\Andrea\AppData\Local\Temp\ccWupC4t.s:501    .text.CalcoloPuntoSuRetta:00000030 .LVL44
C:\Users\Andrea\AppData\Local\Temp\ccWupC4t.s:506    .text.CalcoloPuntoSuRetta:00000035 .LVL46
C:\Users\Andrea\AppData\Local\Temp\ccWupC4t.s:498    .text.CalcoloPuntoSuRetta:0000002e .LVL43
C:\Users\Andrea\AppData\Local\Temp\ccWupC4t.s:511    .text.CalcoloPuntoSuRetta:0000003a .LVL48
C:\Users\Andrea\AppData\Local\Temp\ccWupC4t.s:519    .text.CalcoloPuntoSuRetta:0000003f .LVL50
C:\Users\Andrea\AppData\Local\Temp\ccWupC4t.s:525    .text.CalcoloPuntoSuRetta:00000041 .LVL51
C:\Users\Andrea\AppData\Local\Temp\ccWupC4t.s:484    .text.CalcoloPuntoSuRetta:00000020 .LVL42
C:\Users\Andrea\AppData\Local\Temp\ccWupC4t.s:508    .text.CalcoloPuntoSuRetta:00000038 .LVL47
C:\Users\Andrea\AppData\Local\Temp\ccWupC4t.s:514    .text.CalcoloPuntoSuRetta:0000003c .LVL49
C:\Users\Andrea\AppData\Local\Temp\ccWupC4t.s:540    .text.TableCalibSingola:00000002 .LCFI8
C:\Users\Andrea\AppData\Local\Temp\ccWupC4t.s:542    .text.TableCalibSingola:00000005 .LCFI9
C:\Users\Andrea\AppData\Local\Temp\ccWupC4t.s:538    .text.TableCalibSingola:00000000 .LVL52
C:\Users\Andrea\AppData\Local\Temp\ccWupC4t.s:546    .text.TableCalibSingola:00000009 .LVL53
C:\Users\Andrea\AppData\Local\Temp\ccWupC4t.s:552    .text.TableCalibSingola:0000000e .LVL54
C:\Users\Andrea\AppData\Local\Temp\ccWupC4t.s:559    .text.TableCalibSingola:00000016 .LVL55
C:\Users\Andrea\AppData\Local\Temp\ccWupC4t.s:577    .text.TableCalibSingola:00000033 .LVL59
C:\Users\Andrea\AppData\Local\Temp\ccWupC4t.s:573    .text.TableCalibSingola:0000002e .LVL58
C:\Users\Andrea\AppData\Local\Temp\ccWupC4t.s:611    .text.TableCalibDoppia_Punti:00000002 .LCFI10
C:\Users\Andrea\AppData\Local\Temp\ccWupC4t.s:613    .text.TableCalibDoppia_Punti:00000004 .LCFI11
C:\Users\Andrea\AppData\Local\Temp\ccWupC4t.s:609    .text.TableCalibDoppia_Punti:00000000 .LVL61
C:\Users\Andrea\AppData\Local\Temp\ccWupC4t.s:630    .text.TableCalibDoppia_PuntoRetta:00000002 .LCFI12
C:\Users\Andrea\AppData\Local\Temp\ccWupC4t.s:632    .text.TableCalibDoppia_PuntoRetta:00000005 .LCFI13
C:\Users\Andrea\AppData\Local\Temp\ccWupC4t.s:628    .text.TableCalibDoppia_PuntoRetta:00000000 .LVL63
C:\Users\Andrea\AppData\Local\Temp\ccWupC4t.s:653    .text.TableCalibDoppia_PuntoRetta:00000028 .LVL65
C:\Users\Andrea\AppData\Local\Temp\ccWupC4t.s:686    .text.TableCalibDoppia_PuntoRetta:00000057 .LVL73
C:\Users\Andrea\AppData\Local\Temp\ccWupC4t.s:660    .text.TableCalibDoppia_PuntoRetta:0000002d .LVL67
C:\Users\Andrea\AppData\Local\Temp\ccWupC4t.s:662    .text.TableCalibDoppia_PuntoRetta:00000030 .LVL68
C:\Users\Andrea\AppData\Local\Temp\ccWupC4t.s:644    .text.TableCalibDoppia_PuntoRetta:00000019 .LVL64
C:\Users\Andrea\AppData\Local\Temp\ccWupC4t.s:655    .text.TableCalibDoppia_PuntoRetta:0000002a .LVL66
C:\Users\Andrea\AppData\Local\Temp\ccWupC4t.s:666    .text.TableCalibDoppia_PuntoRetta:00000038 .LVL69
C:\Users\Andrea\AppData\Local\Temp\ccWupC4t.s:673    .text.TableCalibDoppia_PuntoRetta:00000045 .LVL71
C:\Users\Andrea\AppData\Local\Temp\ccWupC4t.s:694    .text.TableCalibDoppia_PuntoRetta:00000059 .LVL74
C:\Users\Andrea\AppData\Local\Temp\ccWupC4t.s:709    .text.TableCalibDoppia_Rette:00000002 .LCFI14
C:\Users\Andrea\AppData\Local\Temp\ccWupC4t.s:711    .text.TableCalibDoppia_Rette:00000005 .LCFI15
C:\Users\Andrea\AppData\Local\Temp\ccWupC4t.s:707    .text.TableCalibDoppia_Rette:00000000 .LVL75
C:\Users\Andrea\AppData\Local\Temp\ccWupC4t.s:721    .text.TableCalibDoppia_Rette:00000016 .LVL76
C:\Users\Andrea\AppData\Local\Temp\ccWupC4t.s:727    .text.TableCalibDoppia_Rette:0000001a .LVL77
C:\Users\Andrea\AppData\Local\Temp\ccWupC4t.s:753    .text.TableCalibDoppia_Rette:00000042 .LVL82
C:\Users\Andrea\AppData\Local\Temp\ccWupC4t.s:743    .text.TableCalibDoppia_Rette:00000030 .LVL79
C:\Users\Andrea\AppData\Local\Temp\ccWupC4t.s:745    .text.TableCalibDoppia_Rette:00000033 .LVL80
C:\Users\Andrea\AppData\Local\Temp\ccWupC4t.s:731    .text.TableCalibDoppia_Rette:0000001c .LVL78
C:\Users\Andrea\AppData\Local\Temp\ccWupC4t.s:749    .text.TableCalibDoppia_Rette:0000003b .LVL81
C:\Users\Andrea\AppData\Local\Temp\ccWupC4t.s:783    .text.TableCalibDoppia:00000002 .LCFI16
C:\Users\Andrea\AppData\Local\Temp\ccWupC4t.s:785    .text.TableCalibDoppia:00000005 .LCFI17
C:\Users\Andrea\AppData\Local\Temp\ccWupC4t.s:781    .text.TableCalibDoppia:00000000 .LVL86
C:\Users\Andrea\AppData\Local\Temp\ccWupC4t.s:791    .text.TableCalibDoppia:0000000d .LVL87
C:\Users\Andrea\AppData\Local\Temp\ccWupC4t.s:797    .text.TableCalibDoppia:00000013 .LVL88
C:\Users\Andrea\AppData\Local\Temp\ccWupC4t.s:805    .text.TableCalibDoppia:0000001e .LVL89
C:\Users\Andrea\AppData\Local\Temp\ccWupC4t.s:894    .text.TableCalibDoppia:000000ae .LVL100
C:\Users\Andrea\AppData\Local\Temp\ccWupC4t.s:849    .text.TableCalibDoppia:0000006a .LVL96
C:\Users\Andrea\AppData\Local\Temp\ccWupC4t.s:822    .text.TableCalibDoppia:0000003a .LVL93
C:\Users\Andrea\AppData\Local\Temp\ccWupC4t.s:838    .text.TableCalibDoppia:00000056 .LVL95
C:\Users\Andrea\AppData\Local\Temp\ccWupC4t.s:856    .text.TableCalibDoppia:00000074 .LVL97
C:\Users\Andrea\AppData\Local\Temp\ccWupC4t.s:869    .text.TableCalibDoppia:00000088 .LVL99
C:\Users\Andrea\AppData\Local\Temp\ccWupC4t.s:926    .text.TablePower:00000002 .LCFI18
C:\Users\Andrea\AppData\Local\Temp\ccWupC4t.s:928    .text.TablePower:00000005 .LCFI19
C:\Users\Andrea\AppData\Local\Temp\ccWupC4t.s:924    .text.TablePower:00000000 .LVL103
C:\Users\Andrea\AppData\Local\Temp\ccWupC4t.s:932    .text.TablePower:00000009 .LVL104
C:\Users\Andrea\AppData\Local\Temp\ccWupC4t.s:938    .text.TablePower:0000000e .LVL105
C:\Users\Andrea\AppData\Local\Temp\ccWupC4t.s:948    .text.TablePower:00000018 .LVL107
C:\Users\Andrea\AppData\Local\Temp\ccWupC4t.s:945    .text.TablePower:00000016 .LVL106
C:\Users\Andrea\AppData\Local\Temp\ccWupC4t.s:978    .text.TablePower:00000049 .LVL111
C:\Users\Andrea\AppData\Local\Temp\ccWupC4t.s:983    .text.TablePower:0000004f .LVL112
C:\Users\Andrea\AppData\Local\Temp\ccWupC4t.s:990    .text.TablePower:0000005b .LVL114
C:\Users\Andrea\AppData\Local\Temp\ccWupC4t.s:995    .text.TablePower:0000005f .LVL115
C:\Users\Andrea\AppData\Local\Temp\ccWupC4t.s:1342   .debug_info:00000000 .Ldebug_info0

NO UNDEFINED SYMBOLS
