   1                             		.file	"PM_SWalarms.c"
   2                             		.section P,"ax"
   3                             	.Ltext0:
   4                             		.section	.text.PM_SWalarmsConvNsecInTicks,"ax",@progbits
   5                             		.global	_PM_SWalarmsConvNsecInTicks
   7                             	_PM_SWalarmsConvNsecInTicks:
   8                             	.LFB0:
   9                             		.file 1 "C:/Workspace/FW_Inertia/branch_indesit/ProductModules/PM_SWalarms/PM_SWalarms.c"
   1:C:/Workspace/FW_Inertia/branch_indesit/ProductModules/PM_SWalarms\PM_SWalarms.c **** /*
   2:C:/Workspace/FW_Inertia/branch_indesit/ProductModules/PM_SWalarms\PM_SWalarms.c **** Copyright (c) 2004-2005, Indesit Company, I.D.D..
   3:C:/Workspace/FW_Inertia/branch_indesit/ProductModules/PM_SWalarms\PM_SWalarms.c **** Tutti i diritti sono riservati. All rights reserved.
   4:C:/Workspace/FW_Inertia/branch_indesit/ProductModules/PM_SWalarms\PM_SWalarms.c **** */
   5:C:/Workspace/FW_Inertia/branch_indesit/ProductModules/PM_SWalarms\PM_SWalarms.c **** 
   6:C:/Workspace/FW_Inertia/branch_indesit/ProductModules/PM_SWalarms\PM_SWalarms.c **** /**
   7:C:/Workspace/FW_Inertia/branch_indesit/ProductModules/PM_SWalarms\PM_SWalarms.c **** \n
   8:C:/Workspace/FW_Inertia/branch_indesit/ProductModules/PM_SWalarms\PM_SWalarms.c **** \par		PM_SWalarms.c
   9:C:/Workspace/FW_Inertia/branch_indesit/ProductModules/PM_SWalarms\PM_SWalarms.c **** \n			Implementation of all functions necessary to achieve the aim.
  10:C:/Workspace/FW_Inertia/branch_indesit/ProductModules/PM_SWalarms\PM_SWalarms.c **** \n
  11:C:/Workspace/FW_Inertia/branch_indesit/ProductModules/PM_SWalarms\PM_SWalarms.c **** \file		PM_SWalarms.c
  12:C:/Workspace/FW_Inertia/branch_indesit/ProductModules/PM_SWalarms\PM_SWalarms.c **** \ingroup	PM_SwAlarms
  13:C:/Workspace/FW_Inertia/branch_indesit/ProductModules/PM_SWalarms\PM_SWalarms.c **** \date		Feb 15, 2011
  14:C:/Workspace/FW_Inertia/branch_indesit/ProductModules/PM_SWalarms\PM_SWalarms.c **** \version	01.00.00
  15:C:/Workspace/FW_Inertia/branch_indesit/ProductModules/PM_SWalarms\PM_SWalarms.c **** \author		stefano.ughi
  16:C:/Workspace/FW_Inertia/branch_indesit/ProductModules/PM_SWalarms\PM_SWalarms.c **** \n
  17:C:/Workspace/FW_Inertia/branch_indesit/ProductModules/PM_SWalarms\PM_SWalarms.c **** \n
  18:C:/Workspace/FW_Inertia/branch_indesit/ProductModules/PM_SWalarms\PM_SWalarms.c **** \par	History:
  19:C:/Workspace/FW_Inertia/branch_indesit/ProductModules/PM_SWalarms\PM_SWalarms.c **** \n
  20:C:/Workspace/FW_Inertia/branch_indesit/ProductModules/PM_SWalarms\PM_SWalarms.c **** \n 		01.00.00
  21:C:/Workspace/FW_Inertia/branch_indesit/ProductModules/PM_SWalarms\PM_SWalarms.c **** \n		Feb 15, 2011
  22:C:/Workspace/FW_Inertia/branch_indesit/ProductModules/PM_SWalarms\PM_SWalarms.c **** \n		stefano.ughi
  23:C:/Workspace/FW_Inertia/branch_indesit/ProductModules/PM_SWalarms\PM_SWalarms.c **** \n		changes
  24:C:/Workspace/FW_Inertia/branch_indesit/ProductModules/PM_SWalarms\PM_SWalarms.c **** \n 			Creation
  25:C:/Workspace/FW_Inertia/branch_indesit/ProductModules/PM_SWalarms\PM_SWalarms.c **** \n
  26:C:/Workspace/FW_Inertia/branch_indesit/ProductModules/PM_SWalarms\PM_SWalarms.c **** \n
  27:C:/Workspace/FW_Inertia/branch_indesit/ProductModules/PM_SWalarms\PM_SWalarms.c **** */
  28:C:/Workspace/FW_Inertia/branch_indesit/ProductModules/PM_SWalarms\PM_SWalarms.c **** #define MODULE_BODY_SWALARMS
  29:C:/Workspace/FW_Inertia/branch_indesit/ProductModules/PM_SWalarms\PM_SWalarms.c **** /* ******** */
  30:C:/Workspace/FW_Inertia/branch_indesit/ProductModules/PM_SWalarms\PM_SWalarms.c **** /* Includes */
  31:C:/Workspace/FW_Inertia/branch_indesit/ProductModules/PM_SWalarms\PM_SWalarms.c **** /* ******** */
  32:C:/Workspace/FW_Inertia/branch_indesit/ProductModules/PM_SWalarms\PM_SWalarms.c **** #include "Config.h"
  33:C:/Workspace/FW_Inertia/branch_indesit/ProductModules/PM_SWalarms\PM_SWalarms.c **** #include "PM_SWalarms.h"
  34:C:/Workspace/FW_Inertia/branch_indesit/ProductModules/PM_SWalarms\PM_SWalarms.c **** #include "LIB_Error.h"
  35:C:/Workspace/FW_Inertia/branch_indesit/ProductModules/PM_SWalarms\PM_SWalarms.c **** /* ****************** */
  36:C:/Workspace/FW_Inertia/branch_indesit/ProductModules/PM_SWalarms\PM_SWalarms.c **** /* Defines and Macros */
  37:C:/Workspace/FW_Inertia/branch_indesit/ProductModules/PM_SWalarms\PM_SWalarms.c **** /* ****************** */
  38:C:/Workspace/FW_Inertia/branch_indesit/ProductModules/PM_SWalarms\PM_SWalarms.c **** 
  39:C:/Workspace/FW_Inertia/branch_indesit/ProductModules/PM_SWalarms\PM_SWalarms.c **** 
  40:C:/Workspace/FW_Inertia/branch_indesit/ProductModules/PM_SWalarms\PM_SWalarms.c **** /* *************************** */
  41:C:/Workspace/FW_Inertia/branch_indesit/ProductModules/PM_SWalarms\PM_SWalarms.c **** /* Typedef, Structs and Unions */
  42:C:/Workspace/FW_Inertia/branch_indesit/ProductModules/PM_SWalarms\PM_SWalarms.c **** /* *************************** */
  43:C:/Workspace/FW_Inertia/branch_indesit/ProductModules/PM_SWalarms\PM_SWalarms.c **** /** Status's flags */
  44:C:/Workspace/FW_Inertia/branch_indesit/ProductModules/PM_SWalarms\PM_SWalarms.c **** typedef struct SWalarmsFlagsTag
  45:C:/Workspace/FW_Inertia/branch_indesit/ProductModules/PM_SWalarms\PM_SWalarms.c **** {
  46:C:/Workspace/FW_Inertia/branch_indesit/ProductModules/PM_SWalarms\PM_SWalarms.c **** 	/** If TRUE Alarm will expire before timer's overflow */
  47:C:/Workspace/FW_Inertia/branch_indesit/ProductModules/PM_SWalarms\PM_SWalarms.c **** 	bool_t ToutBeforeTimerOvfl:1;
  48:C:/Workspace/FW_Inertia/branch_indesit/ProductModules/PM_SWalarms\PM_SWalarms.c **** 	/** If TRUE Alarm is active */
  49:C:/Workspace/FW_Inertia/branch_indesit/ProductModules/PM_SWalarms\PM_SWalarms.c **** 	bool_t AlarmActive:1;
  50:C:/Workspace/FW_Inertia/branch_indesit/ProductModules/PM_SWalarms\PM_SWalarms.c **** 	/** If TRUE Alarm is expired */
  51:C:/Workspace/FW_Inertia/branch_indesit/ProductModules/PM_SWalarms\PM_SWalarms.c **** 	bool_t AlarmExpired:1;
  52:C:/Workspace/FW_Inertia/branch_indesit/ProductModules/PM_SWalarms\PM_SWalarms.c **** 	bool_t Free:5;
  53:C:/Workspace/FW_Inertia/branch_indesit/ProductModules/PM_SWalarms\PM_SWalarms.c **** } SWalarmsFlags_t;
  54:C:/Workspace/FW_Inertia/branch_indesit/ProductModules/PM_SWalarms\PM_SWalarms.c **** /** Software alarm config. */
  55:C:/Workspace/FW_Inertia/branch_indesit/ProductModules/PM_SWalarms\PM_SWalarms.c **** typedef struct SWalarmsTag
  56:C:/Workspace/FW_Inertia/branch_indesit/ProductModules/PM_SWalarms\PM_SWalarms.c **** {
  57:C:/Workspace/FW_Inertia/branch_indesit/ProductModules/PM_SWalarms\PM_SWalarms.c **** 	/** Time when you call PM_SWalarmsSet() [ticks]*/
  58:C:/Workspace/FW_Inertia/branch_indesit/ProductModules/PM_SWalarms\PM_SWalarms.c **** 	IO_HwTimerType Tstart;
  59:C:/Workspace/FW_Inertia/branch_indesit/ProductModules/PM_SWalarms\PM_SWalarms.c **** 	/** Timeout [ticks] */
  60:C:/Workspace/FW_Inertia/branch_indesit/ProductModules/PM_SWalarms\PM_SWalarms.c **** 	IO_HwTimerType Tout;
  61:C:/Workspace/FW_Inertia/branch_indesit/ProductModules/PM_SWalarms\PM_SWalarms.c **** 	/** Flags */
  62:C:/Workspace/FW_Inertia/branch_indesit/ProductModules/PM_SWalarms\PM_SWalarms.c **** 	SWalarmsFlags_t Flags;
  63:C:/Workspace/FW_Inertia/branch_indesit/ProductModules/PM_SWalarms\PM_SWalarms.c **** } SWalarms_t;
  64:C:/Workspace/FW_Inertia/branch_indesit/ProductModules/PM_SWalarms\PM_SWalarms.c **** 
  65:C:/Workspace/FW_Inertia/branch_indesit/ProductModules/PM_SWalarms\PM_SWalarms.c **** 
  66:C:/Workspace/FW_Inertia/branch_indesit/ProductModules/PM_SWalarms\PM_SWalarms.c **** /* ********* */
  67:C:/Workspace/FW_Inertia/branch_indesit/ProductModules/PM_SWalarms\PM_SWalarms.c **** /* Variables */
  68:C:/Workspace/FW_Inertia/branch_indesit/ProductModules/PM_SWalarms\PM_SWalarms.c **** /* ********* */
  69:C:/Workspace/FW_Inertia/branch_indesit/ProductModules/PM_SWalarms\PM_SWalarms.c **** 
  70:C:/Workspace/FW_Inertia/branch_indesit/ProductModules/PM_SWalarms\PM_SWalarms.c **** /* Global */
  71:C:/Workspace/FW_Inertia/branch_indesit/ProductModules/PM_SWalarms\PM_SWalarms.c **** 
  72:C:/Workspace/FW_Inertia/branch_indesit/ProductModules/PM_SWalarms\PM_SWalarms.c **** /* Static */
  73:C:/Workspace/FW_Inertia/branch_indesit/ProductModules/PM_SWalarms\PM_SWalarms.c **** /** Vars to manage software alarms */
  74:C:/Workspace/FW_Inertia/branch_indesit/ProductModules/PM_SWalarms\PM_SWalarms.c **** static SWalarms_t SWalarms[NUM_SW_ALARMS];
  75:C:/Workspace/FW_Inertia/branch_indesit/ProductModules/PM_SWalarms\PM_SWalarms.c **** 
  76:C:/Workspace/FW_Inertia/branch_indesit/ProductModules/PM_SWalarms\PM_SWalarms.c **** /* ******************* */
  77:C:/Workspace/FW_Inertia/branch_indesit/ProductModules/PM_SWalarms\PM_SWalarms.c **** /* Functions Prototype */
  78:C:/Workspace/FW_Inertia/branch_indesit/ProductModules/PM_SWalarms\PM_SWalarms.c **** /* ******************* */
  79:C:/Workspace/FW_Inertia/branch_indesit/ProductModules/PM_SWalarms\PM_SWalarms.c **** 
  80:C:/Workspace/FW_Inertia/branch_indesit/ProductModules/PM_SWalarms\PM_SWalarms.c **** /* Exported function */
  81:C:/Workspace/FW_Inertia/branch_indesit/ProductModules/PM_SWalarms\PM_SWalarms.c **** 
  82:C:/Workspace/FW_Inertia/branch_indesit/ProductModules/PM_SWalarms\PM_SWalarms.c **** /* Local Function */
  83:C:/Workspace/FW_Inertia/branch_indesit/ProductModules/PM_SWalarms\PM_SWalarms.c **** 
  84:C:/Workspace/FW_Inertia/branch_indesit/ProductModules/PM_SWalarms\PM_SWalarms.c **** /* *************** */
  85:C:/Workspace/FW_Inertia/branch_indesit/ProductModules/PM_SWalarms\PM_SWalarms.c **** /* Function Bodies */
  86:C:/Workspace/FW_Inertia/branch_indesit/ProductModules/PM_SWalarms\PM_SWalarms.c **** /* *************** */
  87:C:/Workspace/FW_Inertia/branch_indesit/ProductModules/PM_SWalarms\PM_SWalarms.c **** 
  88:C:/Workspace/FW_Inertia/branch_indesit/ProductModules/PM_SWalarms\PM_SWalarms.c **** /* Exported function */
  89:C:/Workspace/FW_Inertia/branch_indesit/ProductModules/PM_SWalarms\PM_SWalarms.c **** /**
  90:C:/Workspace/FW_Inertia/branch_indesit/ProductModules/PM_SWalarms\PM_SWalarms.c **** Converts a time, expressed in nSec, in ticks
  91:C:/Workspace/FW_Inertia/branch_indesit/ProductModules/PM_SWalarms\PM_SWalarms.c **** 
  92:C:/Workspace/FW_Inertia/branch_indesit/ProductModules/PM_SWalarms\PM_SWalarms.c **** \param  [in]		timeNsec time in nSec
  93:C:/Workspace/FW_Inertia/branch_indesit/ProductModules/PM_SWalarms\PM_SWalarms.c **** 
  94:C:/Workspace/FW_Inertia/branch_indesit/ProductModules/PM_SWalarms\PM_SWalarms.c **** \return 	IO_HwTimerType
  95:C:/Workspace/FW_Inertia/branch_indesit/ProductModules/PM_SWalarms\PM_SWalarms.c **** 
  96:C:/Workspace/FW_Inertia/branch_indesit/ProductModules/PM_SWalarms\PM_SWalarms.c **** \retval		time in ticks
  97:C:/Workspace/FW_Inertia/branch_indesit/ProductModules/PM_SWalarms\PM_SWalarms.c **** 
  98:C:/Workspace/FW_Inertia/branch_indesit/ProductModules/PM_SWalarms\PM_SWalarms.c **** \author 	stefano.ughi
  99:C:/Workspace/FW_Inertia/branch_indesit/ProductModules/PM_SWalarms\PM_SWalarms.c **** \date		Feb 15, 2011
 100:C:/Workspace/FW_Inertia/branch_indesit/ProductModules/PM_SWalarms\PM_SWalarms.c **** \version	1.0.0
 101:C:/Workspace/FW_Inertia/branch_indesit/ProductModules/PM_SWalarms\PM_SWalarms.c **** 
 102:C:/Workspace/FW_Inertia/branch_indesit/ProductModules/PM_SWalarms\PM_SWalarms.c **** 
 103:C:/Workspace/FW_Inertia/branch_indesit/ProductModules/PM_SWalarms\PM_SWalarms.c **** \note		\par \b Note 1:
 104:C:/Workspace/FW_Inertia/branch_indesit/ProductModules/PM_SWalarms\PM_SWalarms.c **** 			documentation by stefano.ughi
 105:C:/Workspace/FW_Inertia/branch_indesit/ProductModules/PM_SWalarms\PM_SWalarms.c **** 
 106:C:/Workspace/FW_Inertia/branch_indesit/ProductModules/PM_SWalarms\PM_SWalarms.c **** */
 107:C:/Workspace/FW_Inertia/branch_indesit/ProductModules/PM_SWalarms\PM_SWalarms.c **** IO_HwTimerType PM_SWalarmsConvNsecInTicks(IO_TimingValueType timeNsec)
 108:C:/Workspace/FW_Inertia/branch_indesit/ProductModules/PM_SWalarms\PM_SWalarms.c **** {
  10                             		.loc 1 108 0
  11                             	.LVL0:
  12 0000 7E A7                   		push.l	r7
  13                             	.LCFI0:
  14 0002 EF 17                   		mov.L	r1, r7
 109:C:/Workspace/FW_Inertia/branch_indesit/ProductModules/PM_SWalarms\PM_SWalarms.c **** 	IO_TickResType tickResNSec;
 110:C:/Workspace/FW_Inertia/branch_indesit/ProductModules/PM_SWalarms\PM_SWalarms.c **** 	tickResNSec = OCHWCNTR_GetTickResolution(SW_ALARMS_HW_TMR_ID);
  15                             		.loc 1 110 0
  16 0004 66 01                   		mov	#0, r1
  17                             	.LVL1:
  18 0006 05 00 00 00             		bsr	_OCHWCNTR_GetTickResolution
  19                             	.LVL2:
 111:C:/Workspace/FW_Inertia/branch_indesit/ProductModules/PM_SWalarms\PM_SWalarms.c **** 	return (IO_HwTimerType)(timeNsec/tickResNSec);
  20                             		.loc 1 111 0
  21 000a 5F 11                   		movu.W	r1, r1
  22 000c FC 27 17                		divu	r1, r7
  23                             	.LVL3:
 112:C:/Workspace/FW_Inertia/branch_indesit/ProductModules/PM_SWalarms\PM_SWalarms.c **** }
  24                             		.loc 1 112 0
  25 000f 5F 71                   		movu.W	r7, r1
  26                             	.LVL4:
  27 0011 3F 77 01                		rtsd	#4, r7-r7
  28                             	.LFE0:
  30                             		.section	.text.PM_SWalarmsSet,"ax",@progbits
  31                             		.global	_PM_SWalarmsSet
  33                             	_PM_SWalarmsSet:
  34                             	.LFB1:
 113:C:/Workspace/FW_Inertia/branch_indesit/ProductModules/PM_SWalarms\PM_SWalarms.c **** 
 114:C:/Workspace/FW_Inertia/branch_indesit/ProductModules/PM_SWalarms\PM_SWalarms.c **** /**
 115:C:/Workspace/FW_Inertia/branch_indesit/ProductModules/PM_SWalarms\PM_SWalarms.c **** \n Sets a software alarm.
 116:C:/Workspace/FW_Inertia/branch_indesit/ProductModules/PM_SWalarms\PM_SWalarms.c **** 
 117:C:/Workspace/FW_Inertia/branch_indesit/ProductModules/PM_SWalarms\PM_SWalarms.c **** \param  [in]		swAlarmId alarm Id.
 118:C:/Workspace/FW_Inertia/branch_indesit/ProductModules/PM_SWalarms\PM_SWalarms.c **** \param  [in]		alarm timeout in ticks
 119:C:/Workspace/FW_Inertia/branch_indesit/ProductModules/PM_SWalarms\PM_SWalarms.c **** 
 120:C:/Workspace/FW_Inertia/branch_indesit/ProductModules/PM_SWalarms\PM_SWalarms.c **** 
 121:C:/Workspace/FW_Inertia/branch_indesit/ProductModules/PM_SWalarms\PM_SWalarms.c **** \author 	stefano.ughi
 122:C:/Workspace/FW_Inertia/branch_indesit/ProductModules/PM_SWalarms\PM_SWalarms.c **** \date		Feb 16, 2011
 123:C:/Workspace/FW_Inertia/branch_indesit/ProductModules/PM_SWalarms\PM_SWalarms.c **** \version	1.0.0
 124:C:/Workspace/FW_Inertia/branch_indesit/ProductModules/PM_SWalarms\PM_SWalarms.c **** 
 125:C:/Workspace/FW_Inertia/branch_indesit/ProductModules/PM_SWalarms\PM_SWalarms.c **** 
 126:C:/Workspace/FW_Inertia/branch_indesit/ProductModules/PM_SWalarms\PM_SWalarms.c **** \note		\par \b Note 1:
 127:C:/Workspace/FW_Inertia/branch_indesit/ProductModules/PM_SWalarms\PM_SWalarms.c **** 			documentation by stefano.ughi
 128:C:/Workspace/FW_Inertia/branch_indesit/ProductModules/PM_SWalarms\PM_SWalarms.c **** 
 129:C:/Workspace/FW_Inertia/branch_indesit/ProductModules/PM_SWalarms\PM_SWalarms.c **** */
 130:C:/Workspace/FW_Inertia/branch_indesit/ProductModules/PM_SWalarms\PM_SWalarms.c **** void PM_SWalarmsSet( SW_AlarmType swAlarmId, IO_HwTimerType alarm)
 131:C:/Workspace/FW_Inertia/branch_indesit/ProductModules/PM_SWalarms\PM_SWalarms.c **** {
  35                             		.loc 1 131 0
  36                             	.LVL5:
  37 0000 6E 7B                   		pushm	r7-r11
  38                             	.LCFI1:
  39 0002 CF 17                   		mov.B	r1, r7
  40 0004 DF 2B                   		mov.W	r2, r11
 132:C:/Workspace/FW_Inertia/branch_indesit/ProductModules/PM_SWalarms\PM_SWalarms.c ****     Period_ValueType tmpModulus = OCHWCNTR_GetTimerModulus(SW_ALARMS_HW_TMR_ID);
  41                             		.loc 1 132 0
  42 0006 66 01                   		mov	#0, r1
  43                             	.LVL6:
  44 0008 05 00 00 00             		bsr	_OCHWCNTR_GetTimerModulus
  45                             	.LVL7:
  46 000c DF 1A                   		mov.W	r1, r10
  47                             	.LVL8:
 133:C:/Workspace/FW_Inertia/branch_indesit/ProductModules/PM_SWalarms\PM_SWalarms.c **** 
 134:C:/Workspace/FW_Inertia/branch_indesit/ProductModules/PM_SWalarms\PM_SWalarms.c **** 	PLT_ERROR_FATAL_IF(( swAlarmId >= NUM_SW_ALARMS ) || (alarm > tmpModulus), PLT_ERROR_SWAL_INVALID)
  48                             		.loc 1 134 0
  49 000e 5B 77                   		movu.B	r7, r7
  50                             	.LVL9:
  51 0010 61 77                   		cmp	#7, r7
  52 0012 24 0A                   		bgtu	.L4
  53                             		.loc 1 134 0 is_stmt 0 discriminator 2
  54 0014 5F B4                   		movu.W	r11, r4
  55 0016 5F 1E                   		movu.W	r1, r14
  56 0018 47 E4                   		cmp	r14, r4
  57 001a 25 0A                   		bleu	.L5
  58                             		.balign 2,3,2
  59                             	.L4:
  60                             		.loc 1 134 0 discriminator 1
  61 001c 75 41 44                		mov.L	#0x44, r1
  62                             	.LVL10:
  63 001f 05 00 00 00             		bsr	_LIB_Error_Fatal_Handler
  64                             	.LVL11:
  65 0023 03                      		.balign 2,3,1
  66                             	.L5:
 135:C:/Workspace/FW_Inertia/branch_indesit/ProductModules/PM_SWalarms\PM_SWalarms.c **** 
 136:C:/Workspace/FW_Inertia/branch_indesit/ProductModules/PM_SWalarms\PM_SWalarms.c **** 
 137:C:/Workspace/FW_Inertia/branch_indesit/ProductModules/PM_SWalarms\PM_SWalarms.c **** 	SWalarms[swAlarmId].Tstart = OCHWCNTR_GetTicksSync(SW_ALARMS_HW_TMR_ID);
  67                             		.loc 1 137 0 is_stmt 1
  68 0024 66 01                   		mov	#0, r1
  69 0026 05 00 00 00             		bsr	_OCHWCNTR_GetTicksSync
  70                             	.LVL12:
  71 002a FD C3 7E                		shll	#3, r7, r14
  72 002d 70 EE 00 00 00 00       		add	#_SWalarms, r14
  73 0033 D3 E1                   		mov.W	r1, [r14]
 138:C:/Workspace/FW_Inertia/branch_indesit/ProductModules/PM_SWalarms\PM_SWalarms.c **** 	SWalarms[swAlarmId].Tout = (IO_HwTimerType) (((uint32_t) SWalarms[swAlarmId].Tstart + alarm) % tmp
  74                             		.loc 1 138 0
  75 0035 5F BB                   		movu.W	r11, r11
  76 0037 4B 1B                   		add	r1, r11
  77                             	.LVL13:
  78 0039 5F AA                   		movu.W	r10, r10
  79 003b EF B3                   		mov.L	r11, r3
  80 003d FC 27 A3                		divu	r10, r3
  81 0040 4F 3A                   		mul	r3, r10
  82                             	.LVL14:
  83 0042 FF 0A AB                		sub	r10, r11, r10
  84 0045 D7 EA 01                		mov.W	r10, 2[r14]
 139:C:/Workspace/FW_Inertia/branch_indesit/ProductModules/PM_SWalarms\PM_SWalarms.c **** 
 140:C:/Workspace/FW_Inertia/branch_indesit/ProductModules/PM_SWalarms\PM_SWalarms.c **** 	if ( SWalarms[swAlarmId].Tout > SWalarms[swAlarmId].Tstart )
  85                             		.loc 1 140 0
  86 0048 5F AB                   		movu.W	r10, r11
  87 004a CD EA 04                		mov.B	4[r14], r10
  88 004d 47 1B                   		cmp	r1, r11
  89 004f 25 05                   		bleu	.L6
 141:C:/Workspace/FW_Inertia/branch_indesit/ProductModules/PM_SWalarms\PM_SWalarms.c **** 	{
 142:C:/Workspace/FW_Inertia/branch_indesit/ProductModules/PM_SWalarms\PM_SWalarms.c **** 		/* Timeout will expire before timer's overflow */
 143:C:/Workspace/FW_Inertia/branch_indesit/ProductModules/PM_SWalarms\PM_SWalarms.c **** 		SWalarms[swAlarmId].Flags.ToutBeforeTimerOvfl = TRUE;
  90                             		.loc 1 143 0
  91 0051 78 7A                   		bset	#7, r10
  92 0053 0B                      		bra	.L9
  93                             	.L6:
 144:C:/Workspace/FW_Inertia/branch_indesit/ProductModules/PM_SWalarms\PM_SWalarms.c **** 	}
 145:C:/Workspace/FW_Inertia/branch_indesit/ProductModules/PM_SWalarms\PM_SWalarms.c **** 	else
 146:C:/Workspace/FW_Inertia/branch_indesit/ProductModules/PM_SWalarms\PM_SWalarms.c **** 	{
 147:C:/Workspace/FW_Inertia/branch_indesit/ProductModules/PM_SWalarms\PM_SWalarms.c **** 		/* Timeout will expire after timer's overflow */
 148:C:/Workspace/FW_Inertia/branch_indesit/ProductModules/PM_SWalarms\PM_SWalarms.c **** 		SWalarms[swAlarmId].Flags.ToutBeforeTimerOvfl = FALSE;
  94                             		.loc 1 148 0
  95 0054 7A 7A                   		bclr	#7, r10
  96                             		.balign 2,3,5
  97                             	.L9:
  98 0056 C7 EA 04                		mov.B	r10, 4[r14]
 149:C:/Workspace/FW_Inertia/branch_indesit/ProductModules/PM_SWalarms\PM_SWalarms.c **** 	}
 150:C:/Workspace/FW_Inertia/branch_indesit/ProductModules/PM_SWalarms\PM_SWalarms.c **** 	SWalarms[swAlarmId].Flags.AlarmExpired = FALSE;
  99                             		.loc 1 150 0
 100 0059 6C 37                   		shll	#3, r7
 101                             	.LVL15:
 102 005b 70 77 00 00 00 00       		add	#_SWalarms, r7
 103 0061 CD 7A 04                		mov.B	4[r7], r10
 104 0064 7A 5A                   		bclr	#5, r10
 151:C:/Workspace/FW_Inertia/branch_indesit/ProductModules/PM_SWalarms\PM_SWalarms.c **** 	SWalarms[swAlarmId].Flags.AlarmActive = TRUE;
 105                             		.loc 1 151 0
 106 0066 78 6A                   		bset	#6, r10
 107 0068 C7 7A 04                		mov.B	r10, 4[r7]
 152:C:/Workspace/FW_Inertia/branch_indesit/ProductModules/PM_SWalarms\PM_SWalarms.c **** }
 108                             		.loc 1 152 0
 109 006b 3F 7B 05                		rtsd	#20, r7-r11
 110                             	.LFE1:
 112                             		.section	.text.PM_SWalarmsCheck,"ax",@progbits
 113                             		.global	_PM_SWalarmsCheck
 115                             	_PM_SWalarmsCheck:
 116                             	.LFB2:
 153:C:/Workspace/FW_Inertia/branch_indesit/ProductModules/PM_SWalarms\PM_SWalarms.c **** /**
 154:C:/Workspace/FW_Inertia/branch_indesit/ProductModules/PM_SWalarms\PM_SWalarms.c **** Checks if software alarm with swAlarmId is expired.
 155:C:/Workspace/FW_Inertia/branch_indesit/ProductModules/PM_SWalarms\PM_SWalarms.c **** 
 156:C:/Workspace/FW_Inertia/branch_indesit/ProductModules/PM_SWalarms\PM_SWalarms.c **** \param  [in]		swAlarmId alarm Id.
 157:C:/Workspace/FW_Inertia/branch_indesit/ProductModules/PM_SWalarms\PM_SWalarms.c **** 
 158:C:/Workspace/FW_Inertia/branch_indesit/ProductModules/PM_SWalarms\PM_SWalarms.c **** 
 159:C:/Workspace/FW_Inertia/branch_indesit/ProductModules/PM_SWalarms\PM_SWalarms.c **** \author 	stefano.ughi
 160:C:/Workspace/FW_Inertia/branch_indesit/ProductModules/PM_SWalarms\PM_SWalarms.c **** \date		Feb 15, 2011
 161:C:/Workspace/FW_Inertia/branch_indesit/ProductModules/PM_SWalarms\PM_SWalarms.c **** \version	1.0.0
 162:C:/Workspace/FW_Inertia/branch_indesit/ProductModules/PM_SWalarms\PM_SWalarms.c **** 
 163:C:/Workspace/FW_Inertia/branch_indesit/ProductModules/PM_SWalarms\PM_SWalarms.c **** \note		\par \b Note 1:
 164:C:/Workspace/FW_Inertia/branch_indesit/ProductModules/PM_SWalarms\PM_SWalarms.c **** 			documentation by stefano.ughi
 165:C:/Workspace/FW_Inertia/branch_indesit/ProductModules/PM_SWalarms\PM_SWalarms.c **** 
 166:C:/Workspace/FW_Inertia/branch_indesit/ProductModules/PM_SWalarms\PM_SWalarms.c **** */
 167:C:/Workspace/FW_Inertia/branch_indesit/ProductModules/PM_SWalarms\PM_SWalarms.c **** void PM_SWalarmsCheck(SW_AlarmType swAlarmId)
 168:C:/Workspace/FW_Inertia/branch_indesit/ProductModules/PM_SWalarms\PM_SWalarms.c **** {
 117                             		.loc 1 168 0
 118                             	.LVL16:
 119 0000 6E 7A                   		pushm	r7-r10
 120                             	.LCFI2:
 169:C:/Workspace/FW_Inertia/branch_indesit/ProductModules/PM_SWalarms\PM_SWalarms.c **** 	IO_HwTimerType t;
 170:C:/Workspace/FW_Inertia/branch_indesit/ProductModules/PM_SWalarms\PM_SWalarms.c **** 
 171:C:/Workspace/FW_Inertia/branch_indesit/ProductModules/PM_SWalarms\PM_SWalarms.c **** 	PLT_ERROR_FATAL_IF(( swAlarmId >= NUM_SW_ALARMS ), PLT_ERROR_SWAL_INVALID);
 121                             		.loc 1 171 0
 122 0002 5B 1A                   		movu.B	r1, r10
 123 0004 61 7A                   		cmp	#7, r10
 124 0006 25 0A                   		bleu	.L11
 125                             		.loc 1 171 0 is_stmt 0 discriminator 1
 126 0008 75 41 44                		mov.L	#0x44, r1
 127                             	.LVL17:
 128 000b 05 00 00 00             		bsr	_LIB_Error_Fatal_Handler
 129                             	.LVL18:
 130 000f 03                      		.balign 2,3,2
 131                             	.L11:
 172:C:/Workspace/FW_Inertia/branch_indesit/ProductModules/PM_SWalarms\PM_SWalarms.c **** 
 173:C:/Workspace/FW_Inertia/branch_indesit/ProductModules/PM_SWalarms\PM_SWalarms.c **** 	if ( ( TRUE == SWalarms[swAlarmId].Flags.AlarmActive ) &&
 132                             		.loc 1 173 0 is_stmt 1
 133 0010 FD C3 A7                		shll	#3, r10, r7
 134 0013 70 77 00 00 00 00       		add	#_SWalarms, r7
 135 0019 A8 79                   		mov.L	4[r7], r1
 136 001b 7D E1                   		btst #30, r1
 137 001d 20 49                   		beq	.L10
 174:C:/Workspace/FW_Inertia/branch_indesit/ProductModules/PM_SWalarms\PM_SWalarms.c **** 	        ( FALSE == SWalarms[swAlarmId].Flags.AlarmExpired ) )
 138                             		.loc 1 174 0 discriminator 1
 139 001f 69 D1                   		shlr	#29, r1
 173:C:/Workspace/FW_Inertia/branch_indesit/ProductModules/PM_SWalarms\PM_SWalarms.c **** 	if ( ( TRUE == SWalarms[swAlarmId].Flags.AlarmActive ) &&
 140                             		.loc 1 173 0 discriminator 1
 141 0021 64 11                   		and	#1, r1
 142 0023 21 43                   		bne	.L10
 175:C:/Workspace/FW_Inertia/branch_indesit/ProductModules/PM_SWalarms\PM_SWalarms.c **** 	{
 176:C:/Workspace/FW_Inertia/branch_indesit/ProductModules/PM_SWalarms\PM_SWalarms.c **** 		t = OCHWCNTR_GetTicksSync(SW_ALARMS_HW_TMR_ID);
 143                             		.loc 1 176 0
 144 0025 05 00 00 00             		bsr	_OCHWCNTR_GetTicksSync
 145                             	.LVL19:
 177:C:/Workspace/FW_Inertia/branch_indesit/ProductModules/PM_SWalarms\PM_SWalarms.c **** 
 178:C:/Workspace/FW_Inertia/branch_indesit/ProductModules/PM_SWalarms\PM_SWalarms.c **** 		if ( TRUE == SWalarms[swAlarmId].Flags.ToutBeforeTimerOvfl )
 146                             		.loc 1 178 0
 147 0029 A8 7C                   		mov.L	4[r7], r4
 148 002b 5F 11                   		movu.W	r1, r1
 149 002d 61 04                   		cmp	#0, r4
 150 002f 28 21                   		bge	.L15
 179:C:/Workspace/FW_Inertia/branch_indesit/ProductModules/PM_SWalarms\PM_SWalarms.c **** 		{
 180:C:/Workspace/FW_Inertia/branch_indesit/ProductModules/PM_SWalarms\PM_SWalarms.c **** 			if ( (t >= SWalarms[swAlarmId].Tout) || ( t < SWalarms[swAlarmId].Tstart ) )
 151                             		.loc 1 180 0
 152 0031 06 C5 71 01             		cmp	2[r7].UW, r1
 153 0035 22 07                   		bgeu	.L16
 154                             		.loc 1 180 0 is_stmt 0 discriminator 1
 155 0037 06 C4 71                		cmp	[r7].UW, r1
 156 003a 22 2C                   		bgeu	.L10
 157                             		.balign 2,3,1
 158                             	.L16:
 181:C:/Workspace/FW_Inertia/branch_indesit/ProductModules/PM_SWalarms\PM_SWalarms.c **** 			{
 182:C:/Workspace/FW_Inertia/branch_indesit/ProductModules/PM_SWalarms\PM_SWalarms.c **** 				SWalarms[swAlarmId].Flags.AlarmActive = FALSE;
 159                             		.loc 1 182 0 is_stmt 1
 160 003c 6C 3A                   		shll	#3, r10
 161                             	.LVL20:
 162 003e 70 AA 00 00 00 00       		add	#_SWalarms, r10
 163 0044 CD A7 04                		mov.B	4[r10], r7
 164 0047 7A 67                   		bclr	#6, r7
 183:C:/Workspace/FW_Inertia/branch_indesit/ProductModules/PM_SWalarms\PM_SWalarms.c **** 				SWalarms[swAlarmId].Flags.AlarmExpired = TRUE;
 165                             		.loc 1 183 0
 166 0049 78 57                   		bset	#5, r7
 167 004b C7 A7 04                		mov.B	r7, 4[r10]
 168 004e 2E 18                   		bra	.L10
 169                             	.L15:
 184:C:/Workspace/FW_Inertia/branch_indesit/ProductModules/PM_SWalarms\PM_SWalarms.c **** 			}
 185:C:/Workspace/FW_Inertia/branch_indesit/ProductModules/PM_SWalarms\PM_SWalarms.c **** 		}
 186:C:/Workspace/FW_Inertia/branch_indesit/ProductModules/PM_SWalarms\PM_SWalarms.c **** 		else
 187:C:/Workspace/FW_Inertia/branch_indesit/ProductModules/PM_SWalarms\PM_SWalarms.c **** 		{
 188:C:/Workspace/FW_Inertia/branch_indesit/ProductModules/PM_SWalarms\PM_SWalarms.c **** 			/* Timeout after timer's overflow,
 189:C:/Workspace/FW_Inertia/branch_indesit/ProductModules/PM_SWalarms\PM_SWalarms.c **** 			   condition "t < SWalarms[swAlarmId].Tstart" ensures that timer did a turn  */
 190:C:/Workspace/FW_Inertia/branch_indesit/ProductModules/PM_SWalarms\PM_SWalarms.c **** 			if ( ( t < SWalarms[swAlarmId].Tstart ) && ( t >= SWalarms[swAlarmId].Tout ) )
 170                             		.loc 1 190 0
 171 0050 06 C4 71                		cmp	[r7].UW, r1
 172 0053 22 13                   		bgeu	.L10
 173                             		.loc 1 190 0 is_stmt 0 discriminator 1
 174 0055 06 C5 71 01             		cmp	2[r7].UW, r1
 175 0059 23 0D                   		bltu	.L10
 191:C:/Workspace/FW_Inertia/branch_indesit/ProductModules/PM_SWalarms\PM_SWalarms.c **** 			{
 192:C:/Workspace/FW_Inertia/branch_indesit/ProductModules/PM_SWalarms\PM_SWalarms.c **** 				SWalarms[swAlarmId].Flags.AlarmActive = FALSE;
 176                             		.loc 1 192 0 is_stmt 1
 177 005b CD 7A 04                		mov.B	4[r7], r10
 178 005e 7A 6A                   		bclr	#6, r10
 193:C:/Workspace/FW_Inertia/branch_indesit/ProductModules/PM_SWalarms\PM_SWalarms.c **** 				SWalarms[swAlarmId].Flags.AlarmExpired = TRUE;
 179                             		.loc 1 193 0
 180 0060 78 5A                   		bset	#5, r10
 181 0062 C7 7A 04                		mov.B	r10, 4[r7]
 182                             	.LVL21:
 183 0065 03                      		.balign 2,3,2
 184                             	.L10:
 194:C:/Workspace/FW_Inertia/branch_indesit/ProductModules/PM_SWalarms\PM_SWalarms.c **** 			}
 195:C:/Workspace/FW_Inertia/branch_indesit/ProductModules/PM_SWalarms\PM_SWalarms.c **** 		}
 196:C:/Workspace/FW_Inertia/branch_indesit/ProductModules/PM_SWalarms\PM_SWalarms.c **** 	}
 197:C:/Workspace/FW_Inertia/branch_indesit/ProductModules/PM_SWalarms\PM_SWalarms.c **** }
 185                             		.loc 1 197 0
 186 0066 3F 7A 04                		rtsd	#16, r7-r10
 187                             	.LFE2:
 189 0069 03                      		.section	.text.PM_SWalarms_IsAlarmExpired,"ax",@progbits
 190                             		.global	_PM_SWalarms_IsAlarmExpired
 192                             	_PM_SWalarms_IsAlarmExpired:
 193                             	.LFB3:
 198:C:/Workspace/FW_Inertia/branch_indesit/ProductModules/PM_SWalarms\PM_SWalarms.c **** /**
 199:C:/Workspace/FW_Inertia/branch_indesit/ProductModules/PM_SWalarms\PM_SWalarms.c **** Returns the state of alarm with Id swAlarmId.
 200:C:/Workspace/FW_Inertia/branch_indesit/ProductModules/PM_SWalarms\PM_SWalarms.c **** 
 201:C:/Workspace/FW_Inertia/branch_indesit/ProductModules/PM_SWalarms\PM_SWalarms.c **** \param  [in]		swAlarmId alarm id
 202:C:/Workspace/FW_Inertia/branch_indesit/ProductModules/PM_SWalarms\PM_SWalarms.c **** 
 203:C:/Workspace/FW_Inertia/branch_indesit/ProductModules/PM_SWalarms\PM_SWalarms.c **** \author 	stefano.ughi
 204:C:/Workspace/FW_Inertia/branch_indesit/ProductModules/PM_SWalarms\PM_SWalarms.c **** \date		Feb 15, 2011
 205:C:/Workspace/FW_Inertia/branch_indesit/ProductModules/PM_SWalarms\PM_SWalarms.c **** \version	1.0.0
 206:C:/Workspace/FW_Inertia/branch_indesit/ProductModules/PM_SWalarms\PM_SWalarms.c **** 
 207:C:/Workspace/FW_Inertia/branch_indesit/ProductModules/PM_SWalarms\PM_SWalarms.c **** \note		\par \b Note 1:
 208:C:/Workspace/FW_Inertia/branch_indesit/ProductModules/PM_SWalarms\PM_SWalarms.c **** 			documentation by stefano.ughi
 209:C:/Workspace/FW_Inertia/branch_indesit/ProductModules/PM_SWalarms\PM_SWalarms.c **** 
 210:C:/Workspace/FW_Inertia/branch_indesit/ProductModules/PM_SWalarms\PM_SWalarms.c **** */
 211:C:/Workspace/FW_Inertia/branch_indesit/ProductModules/PM_SWalarms\PM_SWalarms.c **** bool_t PM_SWalarms_IsAlarmExpired(SW_AlarmType swAlarmId)
 212:C:/Workspace/FW_Inertia/branch_indesit/ProductModules/PM_SWalarms\PM_SWalarms.c **** {
 194                             		.loc 1 212 0
 195                             	.LVL22:
 196 0000 7E A7                   		push.l	r7
 197                             	.LCFI3:
 213:C:/Workspace/FW_Inertia/branch_indesit/ProductModules/PM_SWalarms\PM_SWalarms.c **** 	PLT_ERROR_FATAL_IF(( swAlarmId >= NUM_SW_ALARMS ), PLT_ERROR_SWAL_INVALID);
 198                             		.loc 1 213 0
 199 0002 5B 17                   		movu.B	r1, r7
 200 0004 61 77                   		cmp	#7, r7
 201 0006 25 0A                   		bleu	.L19
 202                             		.loc 1 213 0 is_stmt 0 discriminator 1
 203 0008 75 41 44                		mov.L	#0x44, r1
 204                             	.LVL23:
 205 000b 05 00 00 00             		bsr	_LIB_Error_Fatal_Handler
 206                             	.LVL24:
 207 000f 03                      		.balign 2,3,1
 208                             	.L19:
 214:C:/Workspace/FW_Inertia/branch_indesit/ProductModules/PM_SWalarms\PM_SWalarms.c **** 	return(SWalarms[swAlarmId].Flags.AlarmExpired);
 209                             		.loc 1 214 0 is_stmt 1
 210 0010 6C 37                   		shll	#3, r7
 211                             	.LVL25:
 212 0012 70 77 00 00 00 00       		add	#_SWalarms, r7
 213 0018 A8 79                   		mov.L	4[r7], r1
 214 001a 69 D1                   		shlr	#29, r1
 215:C:/Workspace/FW_Inertia/branch_indesit/ProductModules/PM_SWalarms\PM_SWalarms.c **** }
 215                             		.loc 1 215 0
 216 001c 64 11                   		and #1, r1
 217 001e 3F 77 01                		rtsd	#4, r7-r7
 218                             	.LFE3:
 220 0021 03                      		.section	.bss.SWalarms,"aw",@nobits
 221                             		.balign 4
 224                             	_SWalarms:
 225 0000 00 00 00 00 00 00 00 00 		.zero	64
 225      00 00 00 00 00 00 00 00 
 225      00 00 00 00 00 00 00 00 
 225      00 00 00 00 00 00 00 00 
 225      00 00 00 00 00 00 00 00 
 314                             	.Letext0:
 315                             		.file 2 "C:\\Workspace\\FW_Inertia\\branch_indesit\\HAL\\HAL_General/StandardTypes.h"
 316                             		.file 3 "C:\\Workspace\\FW_Inertia\\branch_indesit\\HAL\\RN_RX200/RN_RX200_cfg.h"
 317                             		.file 4 "C:\\Workspace\\FW_Inertia\\branch_indesit\\Drivers/IO_driver.h"
 318                             		.file 5 "C:/Workspace/FW_Inertia/branch_indesit/ProductModules/PM_SWalarms/PM_SWalarms.h"
 319                             		.file 6 "C:\\Workspace\\FW_Inertia\\branch_indesit\\PlatformLibrary\\LIB_Error/LIB_Error.h"
 320                             		.file 7 "C:\\Workspace\\FW_Inertia\\branch_indesit\\Drivers\\OCTPM/OCTPM_drv.h"
DEFINED SYMBOLS
                            *ABS*:00000000 PM_SWalarms.c
C:\Users\Andrea\AppData\Local\Temp\cccgL1FM.s:7      .text.PM_SWalarmsConvNsecInTicks:00000000 _PM_SWalarmsConvNsecInTicks
C:\Users\Andrea\AppData\Local\Temp\cccgL1FM.s:12     .text.PM_SWalarmsConvNsecInTicks:00000000 L0
C:\Users\Andrea\AppData\Local\Temp\cccgL1FM.s:33     .text.PM_SWalarmsSet:00000000 _PM_SWalarmsSet
C:\Users\Andrea\AppData\Local\Temp\cccgL1FM.s:37     .text.PM_SWalarmsSet:00000000 L0
C:\Users\Andrea\AppData\Local\Temp\cccgL1FM.s:224    .bss.SWalarms:00000000 _SWalarms
C:\Users\Andrea\AppData\Local\Temp\cccgL1FM.s:115    .text.PM_SWalarmsCheck:00000000 _PM_SWalarmsCheck
C:\Users\Andrea\AppData\Local\Temp\cccgL1FM.s:119    .text.PM_SWalarmsCheck:00000000 L0
C:\Users\Andrea\AppData\Local\Temp\cccgL1FM.s:192    .text.PM_SWalarms_IsAlarmExpired:00000000 _PM_SWalarms_IsAlarmExpired
C:\Users\Andrea\AppData\Local\Temp\cccgL1FM.s:196    .text.PM_SWalarms_IsAlarmExpired:00000000 L0
C:\Users\Andrea\AppData\Local\Temp\cccgL1FM.s:227    .debug_frame:00000000 .Lframe0
C:\Users\Andrea\AppData\Local\Temp\cccgL1FM.s:8      .text.PM_SWalarmsConvNsecInTicks:00000000 .LFB0
C:\Users\Andrea\AppData\Local\Temp\cccgL1FM.s:34     .text.PM_SWalarmsSet:00000000 .LFB1
C:\Users\Andrea\AppData\Local\Temp\cccgL1FM.s:116    .text.PM_SWalarmsCheck:00000000 .LFB2
C:\Users\Andrea\AppData\Local\Temp\cccgL1FM.s:193    .text.PM_SWalarms_IsAlarmExpired:00000000 .LFB3
C:\Users\Andrea\AppData\Local\Temp\cccgL1FM.s:1036   .debug_abbrev:00000000 .Ldebug_abbrev0
C:\Users\Andrea\AppData\Local\Temp\cccgL1FM.s:1696   .debug_str:00000326 .LASF139
C:\Users\Andrea\AppData\Local\Temp\cccgL1FM.s:1750   .debug_str:000005f9 .LASF140
C:\Users\Andrea\AppData\Local\Temp\cccgL1FM.s:1604   .debug_ranges:00000000 .Ldebug_ranges0
C:\Users\Andrea\AppData\Local\Temp\cccgL1FM.s:1616   .debug_line:00000000 .Ldebug_line0
C:\Users\Andrea\AppData\Local\Temp\cccgL1FM.s:1806   .debug_str:0000091b .LASF0
C:\Users\Andrea\AppData\Local\Temp\cccgL1FM.s:1678   .debug_str:0000026d .LASF2
C:\Users\Andrea\AppData\Local\Temp\cccgL1FM.s:1728   .debug_str:000004e7 .LASF1
C:\Users\Andrea\AppData\Local\Temp\cccgL1FM.s:1826   .debug_str:00000a1a .LASF3
C:\Users\Andrea\AppData\Local\Temp\cccgL1FM.s:1722   .debug_str:0000049b .LASF4
C:\Users\Andrea\AppData\Local\Temp\cccgL1FM.s:1638   .debug_str:000000ef .LASF5
C:\Users\Andrea\AppData\Local\Temp\cccgL1FM.s:1644   .debug_str:00000116 .LASF6
C:\Users\Andrea\AppData\Local\Temp\cccgL1FM.s:1652   .debug_str:0000017a .LASF7
C:\Users\Andrea\AppData\Local\Temp\cccgL1FM.s:1868   .debug_str:00000c22 .LASF8
C:\Users\Andrea\AppData\Local\Temp\cccgL1FM.s:1802   .debug_str:000008ef .LASF9
C:\Users\Andrea\AppData\Local\Temp\cccgL1FM.s:1654   .debug_str:00000188 .LASF10
C:\Users\Andrea\AppData\Local\Temp\cccgL1FM.s:1660   .debug_str:000001c2 .LASF11
C:\Users\Andrea\AppData\Local\Temp\cccgL1FM.s:1834   .debug_str:00000a5c .LASF12
C:\Users\Andrea\AppData\Local\Temp\cccgL1FM.s:1764   .debug_str:000006fa .LASF13
C:\Users\Andrea\AppData\Local\Temp\cccgL1FM.s:1828   .debug_str:00000a23 .LASF14
C:\Users\Andrea\AppData\Local\Temp\cccgL1FM.s:1708   .debug_str:000003bf .LASF15
C:\Users\Andrea\AppData\Local\Temp\cccgL1FM.s:1854   .debug_str:00000b6d .LASF16
C:\Users\Andrea\AppData\Local\Temp\cccgL1FM.s:1890   .debug_str:00000d71 .LASF17
C:\Users\Andrea\AppData\Local\Temp\cccgL1FM.s:1720   .debug_str:0000048c .LASF18
C:\Users\Andrea\AppData\Local\Temp\cccgL1FM.s:1886   .debug_str:00000d46 .LASF19
C:\Users\Andrea\AppData\Local\Temp\cccgL1FM.s:1620   .debug_str:00000017 .LASF20
C:\Users\Andrea\AppData\Local\Temp\cccgL1FM.s:1642   .debug_str:00000107 .LASF21
C:\Users\Andrea\AppData\Local\Temp\cccgL1FM.s:1820   .debug_str:000009e0 .LASF22
C:\Users\Andrea\AppData\Local\Temp\cccgL1FM.s:1822   .debug_str:000009f3 .LASF23
C:\Users\Andrea\AppData\Local\Temp\cccgL1FM.s:1630   .debug_str:0000008a .LASF24
C:\Users\Andrea\AppData\Local\Temp\cccgL1FM.s:1632   .debug_str:0000009d .LASF25
C:\Users\Andrea\AppData\Local\Temp\cccgL1FM.s:1872   .debug_str:00000c4a .LASF26
C:\Users\Andrea\AppData\Local\Temp\cccgL1FM.s:1694   .debug_str:00000312 .LASF27
C:\Users\Andrea\AppData\Local\Temp\cccgL1FM.s:1794   .debug_str:00000898 .LASF28
C:\Users\Andrea\AppData\Local\Temp\cccgL1FM.s:1796   .debug_str:000008ad .LASF29
C:\Users\Andrea\AppData\Local\Temp\cccgL1FM.s:1748   .debug_str:000005ca .LASF30
C:\Users\Andrea\AppData\Local\Temp\cccgL1FM.s:1712   .debug_str:000003f5 .LASF31
C:\Users\Andrea\AppData\Local\Temp\cccgL1FM.s:1814   .debug_str:0000096e .LASF32
C:\Users\Andrea\AppData\Local\Temp\cccgL1FM.s:1780   .debug_str:000007b0 .LASF33
C:\Users\Andrea\AppData\Local\Temp\cccgL1FM.s:1852   .debug_str:00000b37 .LASF34
C:\Users\Andrea\AppData\Local\Temp\cccgL1FM.s:1752   .debug_str:00000649 .LASF35
C:\Users\Andrea\AppData\Local\Temp\cccgL1FM.s:1842   .debug_str:00000a8e .LASF36
C:\Users\Andrea\AppData\Local\Temp\cccgL1FM.s:1876   .debug_str:00000c82 .LASF37
C:\Users\Andrea\AppData\Local\Temp\cccgL1FM.s:1816   .debug_str:000009a3 .LASF38
C:\Users\Andrea\AppData\Local\Temp\cccgL1FM.s:1698   .debug_str:0000034c .LASF39
C:\Users\Andrea\AppData\Local\Temp\cccgL1FM.s:1700   .debug_str:00000363 .LASF40
C:\Users\Andrea\AppData\Local\Temp\cccgL1FM.s:1702   .debug_str:0000037a .LASF41
C:\Users\Andrea\AppData\Local\Temp\cccgL1FM.s:1704   .debug_str:00000391 .LASF42
C:\Users\Andrea\AppData\Local\Temp\cccgL1FM.s:1706   .debug_str:000003a8 .LASF43
C:\Users\Andrea\AppData\Local\Temp\cccgL1FM.s:1808   .debug_str:00000925 .LASF44
C:\Users\Andrea\AppData\Local\Temp\cccgL1FM.s:1898   .debug_str:00000dcf .LASF45
C:\Users\Andrea\AppData\Local\Temp\cccgL1FM.s:1618   .debug_str:00000000 .LASF46
C:\Users\Andrea\AppData\Local\Temp\cccgL1FM.s:1762   .debug_str:000006e2 .LASF47
C:\Users\Andrea\AppData\Local\Temp\cccgL1FM.s:1732   .debug_str:00000515 .LASF48
C:\Users\Andrea\AppData\Local\Temp\cccgL1FM.s:1766   .debug_str:00000703 .LASF49
C:\Users\Andrea\AppData\Local\Temp\cccgL1FM.s:1768   .debug_str:0000071b .LASF50
C:\Users\Andrea\AppData\Local\Temp\cccgL1FM.s:1770   .debug_str:00000733 .LASF51
C:\Users\Andrea\AppData\Local\Temp\cccgL1FM.s:1888   .debug_str:00000d59 .LASF52
C:\Users\Andrea\AppData\Local\Temp\cccgL1FM.s:1774   .debug_str:00000765 .LASF53
C:\Users\Andrea\AppData\Local\Temp\cccgL1FM.s:1776   .debug_str:0000077d .LASF54
C:\Users\Andrea\AppData\Local\Temp\cccgL1FM.s:1734   .debug_str:0000052d .LASF55
C:\Users\Andrea\AppData\Local\Temp\cccgL1FM.s:1784   .debug_str:000007fe .LASF56
C:\Users\Andrea\AppData\Local\Temp\cccgL1FM.s:1738   .debug_str:0000054d .LASF57
C:\Users\Andrea\AppData\Local\Temp\cccgL1FM.s:1740   .debug_str:00000566 .LASF58
C:\Users\Andrea\AppData\Local\Temp\cccgL1FM.s:1742   .debug_str:0000057f .LASF59
C:\Users\Andrea\AppData\Local\Temp\cccgL1FM.s:1892   .debug_str:00000d80 .LASF60
C:\Users\Andrea\AppData\Local\Temp\cccgL1FM.s:1744   .debug_str:00000598 .LASF61
C:\Users\Andrea\AppData\Local\Temp\cccgL1FM.s:1746   .debug_str:000005b1 .LASF62
C:\Users\Andrea\AppData\Local\Temp\cccgL1FM.s:1798   .debug_str:000008c2 .LASF63
C:\Users\Andrea\AppData\Local\Temp\cccgL1FM.s:1856   .debug_str:00000b7c .LASF64
C:\Users\Andrea\AppData\Local\Temp\cccgL1FM.s:1884   .debug_str:00000d21 .LASF65
C:\Users\Andrea\AppData\Local\Temp\cccgL1FM.s:1758   .debug_str:000006b2 .LASF66
C:\Users\Andrea\AppData\Local\Temp\cccgL1FM.s:1626   .debug_str:0000005e .LASF67
C:\Users\Andrea\AppData\Local\Temp\cccgL1FM.s:1812   .debug_str:0000095b .LASF68
C:\Users\Andrea\AppData\Local\Temp\cccgL1FM.s:1896   .debug_str:00000dbf .LASF69
C:\Users\Andrea\AppData\Local\Temp\cccgL1FM.s:1640   .debug_str:000000f8 .LASF70
C:\Users\Andrea\AppData\Local\Temp\cccgL1FM.s:1714   .debug_str:00000431 .LASF71
C:\Users\Andrea\AppData\Local\Temp\cccgL1FM.s:1858   .debug_str:00000ba1 .LASF72
C:\Users\Andrea\AppData\Local\Temp\cccgL1FM.s:1718   .debug_str:00000470 .LASF73
C:\Users\Andrea\AppData\Local\Temp\cccgL1FM.s:1690   .debug_str:000002d8 .LASF74
C:\Users\Andrea\AppData\Local\Temp\cccgL1FM.s:1710   .debug_str:000003d0 .LASF75
C:\Users\Andrea\AppData\Local\Temp\cccgL1FM.s:1680   .debug_str:00000276 .LASF76
C:\Users\Andrea\AppData\Local\Temp\cccgL1FM.s:1782   .debug_str:000007e4 .LASF77
C:\Users\Andrea\AppData\Local\Temp\cccgL1FM.s:1726   .debug_str:000004c3 .LASF78
C:\Users\Andrea\AppData\Local\Temp\cccgL1FM.s:1692   .debug_str:000002f2 .LASF79
C:\Users\Andrea\AppData\Local\Temp\cccgL1FM.s:1862   .debug_str:00000bd8 .LASF80
C:\Users\Andrea\AppData\Local\Temp\cccgL1FM.s:1682   .debug_str:00000292 .LASF81
C:\Users\Andrea\AppData\Local\Temp\cccgL1FM.s:1878   .debug_str:00000cb7 .LASF82
C:\Users\Andrea\AppData\Local\Temp\cccgL1FM.s:1874   .debug_str:00000c5d .LASF83
C:\Users\Andrea\AppData\Local\Temp\cccgL1FM.s:1636   .debug_str:000000c9 .LASF84
C:\Users\Andrea\AppData\Local\Temp\cccgL1FM.s:1670   .debug_str:0000021f .LASF85
C:\Users\Andrea\AppData\Local\Temp\cccgL1FM.s:1880   .debug_str:00000ce2 .LASF86
C:\Users\Andrea\AppData\Local\Temp\cccgL1FM.s:1832   .debug_str:00000a3d .LASF87
C:\Users\Andrea\AppData\Local\Temp\cccgL1FM.s:1772   .debug_str:0000074b .LASF88
C:\Users\Andrea\AppData\Local\Temp\cccgL1FM.s:1864   .debug_str:00000bf2 .LASF89
C:\Users\Andrea\AppData\Local\Temp\cccgL1FM.s:1662   .debug_str:000001c9 .LASF90
C:\Users\Andrea\AppData\Local\Temp\cccgL1FM.s:1716   .debug_str:0000044e .LASF91
C:\Users\Andrea\AppData\Local\Temp\cccgL1FM.s:1658   .debug_str:0000019f .LASF92
C:\Users\Andrea\AppData\Local\Temp\cccgL1FM.s:1844   .debug_str:00000ac3 .LASF93
C:\Users\Andrea\AppData\Local\Temp\cccgL1FM.s:1788   .debug_str:00000822 .LASF94
C:\Users\Andrea\AppData\Local\Temp\cccgL1FM.s:1790   .debug_str:00000851 .LASF95
C:\Users\Andrea\AppData\Local\Temp\cccgL1FM.s:1846   .debug_str:00000af2 .LASF96
C:\Users\Andrea\AppData\Local\Temp\cccgL1FM.s:1646   .debug_str:0000012d .LASF97
C:\Users\Andrea\AppData\Local\Temp\cccgL1FM.s:1622   .debug_str:00000024 .LASF98
C:\Users\Andrea\AppData\Local\Temp\cccgL1FM.s:1760   .debug_str:000006c7 .LASF99
C:\Users\Andrea\AppData\Local\Temp\cccgL1FM.s:1870   .debug_str:00000c2a .LASF100
C:\Users\Andrea\AppData\Local\Temp\cccgL1FM.s:1672   .debug_str:00000243 .LASF101
C:\Users\Andrea\AppData\Local\Temp\cccgL1FM.s:1668   .debug_str:00000207 .LASF102
C:\Users\Andrea\AppData\Local\Temp\cccgL1FM.s:1810   .debug_str:0000093c .LASF103
C:\Users\Andrea\AppData\Local\Temp\cccgL1FM.s:1804   .debug_str:000008fd .LASF104
C:\Users\Andrea\AppData\Local\Temp\cccgL1FM.s:1756   .debug_str:00000697 .LASF105
C:\Users\Andrea\AppData\Local\Temp\cccgL1FM.s:1860   .debug_str:00000bbb .LASF106
C:\Users\Andrea\AppData\Local\Temp\cccgL1FM.s:1830   .debug_str:00000a28 .LASF107
C:\Users\Andrea\AppData\Local\Temp\cccgL1FM.s:1866   .debug_str:00000c09 .LASF108
C:\Users\Andrea\AppData\Local\Temp\cccgL1FM.s:1836   .debug_str:00000a69 .LASF109
C:\Users\Andrea\AppData\Local\Temp\cccgL1FM.s:1634   .debug_str:000000b0 .LASF110
C:\Users\Andrea\AppData\Local\Temp\cccgL1FM.s:1778   .debug_str:00000795 .LASF111
C:\Users\Andrea\AppData\Local\Temp\cccgL1FM.s:1684   .debug_str:000002b0 .LASF112
C:\Users\Andrea\AppData\Local\Temp\cccgL1FM.s:1850   .debug_str:00000b2c .LASF113
C:\Users\Andrea\AppData\Local\Temp\cccgL1FM.s:1628   .debug_str:00000079 .LASF119
C:\Users\Andrea\AppData\Local\Temp\cccgL1FM.s:1824   .debug_str:00000a06 .LASF114
C:\Users\Andrea\AppData\Local\Temp\cccgL1FM.s:1666   .debug_str:000001fb .LASF115
C:\Users\Andrea\AppData\Local\Temp\cccgL1FM.s:1800   .debug_str:000008e2 .LASF116
C:\Users\Andrea\AppData\Local\Temp\cccgL1FM.s:1688   .debug_str:000002d3 .LASF117
C:\Users\Andrea\AppData\Local\Temp\cccgL1FM.s:1650   .debug_str:0000016a .LASF118
C:\Users\Andrea\AppData\Local\Temp\cccgL1FM.s:1648   .debug_str:0000015e .LASF120
C:\Users\Andrea\AppData\Local\Temp\cccgL1FM.s:1736   .debug_str:00000546 .LASF121
C:\Users\Andrea\AppData\Local\Temp\cccgL1FM.s:1838   .debug_str:00000a83 .LASF122
C:\Users\Andrea\AppData\Local\Temp\cccgL1FM.s:1840   .debug_str:00000a88 .LASF123
C:\Users\Andrea\AppData\Local\Temp\cccgL1FM.s:1656   .debug_str:00000194 .LASF124
C:\Users\Andrea\AppData\Local\Temp\cccgL1FM.s:1882   .debug_str:00000d06 .LASF132
C:\Users\Andrea\AppData\Local\Temp\cccgL1FM.s:28     .text.PM_SWalarmsConvNsecInTicks:00000014 .LFE0
C:\Users\Andrea\AppData\Local\Temp\cccgL1FM.s:1414   .debug_loc:00000000 .LLST0
C:\Users\Andrea\AppData\Local\Temp\cccgL1FM.s:1686   .debug_str:000002ca .LASF125
C:\Users\Andrea\AppData\Local\Temp\cccgL1FM.s:1427   .debug_loc:00000020 .LLST1
C:\Users\Andrea\AppData\Local\Temp\cccgL1FM.s:1624   .debug_str:00000052 .LASF128
C:\Users\Andrea\AppData\Local\Temp\cccgL1FM.s:1445   .debug_loc:0000004c .LLST2
C:\Users\Andrea\AppData\Local\Temp\cccgL1FM.s:19     .text.PM_SWalarmsConvNsecInTicks:0000000a .LVL2
C:\Users\Andrea\AppData\Local\Temp\cccgL1FM.s:1848   .debug_str:00000b1d .LASF130
C:\Users\Andrea\AppData\Local\Temp\cccgL1FM.s:110    .text.PM_SWalarmsSet:0000006e .LFE1
C:\Users\Andrea\AppData\Local\Temp\cccgL1FM.s:1452   .debug_loc:0000005f .LLST3
C:\Users\Andrea\AppData\Local\Temp\cccgL1FM.s:1676   .debug_str:00000263 .LASF126
C:\Users\Andrea\AppData\Local\Temp\cccgL1FM.s:1465   .debug_loc:0000007f .LLST4
C:\Users\Andrea\AppData\Local\Temp\cccgL1FM.s:1674   .debug_str:0000025d .LASF127
C:\Users\Andrea\AppData\Local\Temp\cccgL1FM.s:1487   .debug_loc:000000b6 .LLST5
C:\Users\Andrea\AppData\Local\Temp\cccgL1FM.s:1786   .debug_str:00000817 .LASF129
C:\Users\Andrea\AppData\Local\Temp\cccgL1FM.s:1505   .debug_loc:000000e2 .LLST6
C:\Users\Andrea\AppData\Local\Temp\cccgL1FM.s:45     .text.PM_SWalarmsSet:0000000c .LVL7
C:\Users\Andrea\AppData\Local\Temp\cccgL1FM.s:64     .text.PM_SWalarmsSet:00000023 .LVL11
C:\Users\Andrea\AppData\Local\Temp\cccgL1FM.s:70     .text.PM_SWalarmsSet:0000002a .LVL12
C:\Users\Andrea\AppData\Local\Temp\cccgL1FM.s:1664   .debug_str:000001ea .LASF131
C:\Users\Andrea\AppData\Local\Temp\cccgL1FM.s:187    .text.PM_SWalarmsCheck:00000069 .LFE2
C:\Users\Andrea\AppData\Local\Temp\cccgL1FM.s:1516   .debug_loc:00000100 .LLST7
C:\Users\Andrea\AppData\Local\Temp\cccgL1FM.s:1529   .debug_loc:00000120 .LLST8
C:\Users\Andrea\AppData\Local\Temp\cccgL1FM.s:1547   .debug_loc:0000014c .LLST9
C:\Users\Andrea\AppData\Local\Temp\cccgL1FM.s:129    .text.PM_SWalarmsCheck:0000000f .LVL18
C:\Users\Andrea\AppData\Local\Temp\cccgL1FM.s:145    .text.PM_SWalarmsCheck:00000029 .LVL19
C:\Users\Andrea\AppData\Local\Temp\cccgL1FM.s:1894   .debug_str:00000da4 .LASF133
C:\Users\Andrea\AppData\Local\Temp\cccgL1FM.s:218    .text.PM_SWalarms_IsAlarmExpired:00000021 .LFE3
C:\Users\Andrea\AppData\Local\Temp\cccgL1FM.s:1554   .debug_loc:0000015f .LLST10
C:\Users\Andrea\AppData\Local\Temp\cccgL1FM.s:1567   .debug_loc:0000017f .LLST11
C:\Users\Andrea\AppData\Local\Temp\cccgL1FM.s:206    .text.PM_SWalarms_IsAlarmExpired:0000000f .LVL24
C:\Users\Andrea\AppData\Local\Temp\cccgL1FM.s:1818   .debug_str:000009d7 .LASF134
C:\Users\Andrea\AppData\Local\Temp\cccgL1FM.s:1730   .debug_str:000004fa .LASF135
C:\Users\Andrea\AppData\Local\Temp\cccgL1FM.s:1792   .debug_str:0000087f .LASF136
C:\Users\Andrea\AppData\Local\Temp\cccgL1FM.s:1754   .debug_str:0000067f .LASF137
C:\Users\Andrea\AppData\Local\Temp\cccgL1FM.s:1724   .debug_str:000004ad .LASF138
C:\Users\Andrea\AppData\Local\Temp\cccgL1FM.s:13     .text.PM_SWalarmsConvNsecInTicks:00000002 .LCFI0
C:\Users\Andrea\AppData\Local\Temp\cccgL1FM.s:11     .text.PM_SWalarmsConvNsecInTicks:00000000 .LVL0
C:\Users\Andrea\AppData\Local\Temp\cccgL1FM.s:17     .text.PM_SWalarmsConvNsecInTicks:00000006 .LVL1
C:\Users\Andrea\AppData\Local\Temp\cccgL1FM.s:23     .text.PM_SWalarmsConvNsecInTicks:0000000f .LVL3
C:\Users\Andrea\AppData\Local\Temp\cccgL1FM.s:26     .text.PM_SWalarmsConvNsecInTicks:00000011 .LVL4
C:\Users\Andrea\AppData\Local\Temp\cccgL1FM.s:38     .text.PM_SWalarmsSet:00000002 .LCFI1
C:\Users\Andrea\AppData\Local\Temp\cccgL1FM.s:36     .text.PM_SWalarmsSet:00000000 .LVL5
C:\Users\Andrea\AppData\Local\Temp\cccgL1FM.s:43     .text.PM_SWalarmsSet:00000008 .LVL6
C:\Users\Andrea\AppData\Local\Temp\cccgL1FM.s:50     .text.PM_SWalarmsSet:00000010 .LVL9
C:\Users\Andrea\AppData\Local\Temp\cccgL1FM.s:101    .text.PM_SWalarmsSet:0000005b .LVL15
C:\Users\Andrea\AppData\Local\Temp\cccgL1FM.s:77     .text.PM_SWalarmsSet:00000039 .LVL13
C:\Users\Andrea\AppData\Local\Temp\cccgL1FM.s:47     .text.PM_SWalarmsSet:0000000e .LVL8
C:\Users\Andrea\AppData\Local\Temp\cccgL1FM.s:62     .text.PM_SWalarmsSet:0000001f .LVL10
C:\Users\Andrea\AppData\Local\Temp\cccgL1FM.s:82     .text.PM_SWalarmsSet:00000042 .LVL14
C:\Users\Andrea\AppData\Local\Temp\cccgL1FM.s:120    .text.PM_SWalarmsCheck:00000002 .LCFI2
C:\Users\Andrea\AppData\Local\Temp\cccgL1FM.s:118    .text.PM_SWalarmsCheck:00000000 .LVL16
C:\Users\Andrea\AppData\Local\Temp\cccgL1FM.s:127    .text.PM_SWalarmsCheck:0000000b .LVL17
C:\Users\Andrea\AppData\Local\Temp\cccgL1FM.s:161    .text.PM_SWalarmsCheck:0000003e .LVL20
C:\Users\Andrea\AppData\Local\Temp\cccgL1FM.s:182    .text.PM_SWalarmsCheck:00000065 .LVL21
C:\Users\Andrea\AppData\Local\Temp\cccgL1FM.s:197    .text.PM_SWalarms_IsAlarmExpired:00000002 .LCFI3
C:\Users\Andrea\AppData\Local\Temp\cccgL1FM.s:195    .text.PM_SWalarms_IsAlarmExpired:00000000 .LVL22
C:\Users\Andrea\AppData\Local\Temp\cccgL1FM.s:204    .text.PM_SWalarms_IsAlarmExpired:0000000b .LVL23
C:\Users\Andrea\AppData\Local\Temp\cccgL1FM.s:211    .text.PM_SWalarms_IsAlarmExpired:00000012 .LVL25
C:\Users\Andrea\AppData\Local\Temp\cccgL1FM.s:322    .debug_info:00000000 .Ldebug_info0

UNDEFINED SYMBOLS
_OCHWCNTR_GetTickResolution
_OCHWCNTR_GetTimerModulus
_LIB_Error_Fatal_Handler
_OCHWCNTR_GetTicksSync
