   1                             		.file	"ramtest_march_c.c"
   2                             		.section P,"ax"
   3                             	.Ltext0:
   4                             		.section	.text.RamTest_March_C,"ax",@progbits
   5                             		.global	_RamTest_March_C
   7                             	_RamTest_March_C:
   8                             	.LFB1:
   9                             		.file 1 "C:/Workspace/FW_Inertia/branch_indesit/HAL/RN_RX200/IEC60335_B_libs/src/RAM/ramtest_march
   1:C:/Workspace/FW_Inertia/branch_indesit/HAL/RN_RX200/IEC60335_B_libs/src/RAM\ramtest_march_c.c **** /*  DISCLAIMER:                                                               */
   2:C:/Workspace/FW_Inertia/branch_indesit/HAL/RN_RX200/IEC60335_B_libs/src/RAM\ramtest_march_c.c **** /*  We (Renesas Electronics Europe Limited) do not warrant that the Software   */
   3:C:/Workspace/FW_Inertia/branch_indesit/HAL/RN_RX200/IEC60335_B_libs/src/RAM\ramtest_march_c.c **** /*  is free from claims by a third party of copyright, patent, trademark,     */
   4:C:/Workspace/FW_Inertia/branch_indesit/HAL/RN_RX200/IEC60335_B_libs/src/RAM\ramtest_march_c.c **** /*  trade secret or any other intellectual property infringement.             */
   5:C:/Workspace/FW_Inertia/branch_indesit/HAL/RN_RX200/IEC60335_B_libs/src/RAM\ramtest_march_c.c **** /*                                                                            */
   6:C:/Workspace/FW_Inertia/branch_indesit/HAL/RN_RX200/IEC60335_B_libs/src/RAM\ramtest_march_c.c **** /*  Under no circumstances are we liable for any of the following:            */
   7:C:/Workspace/FW_Inertia/branch_indesit/HAL/RN_RX200/IEC60335_B_libs/src/RAM\ramtest_march_c.c **** /*                                                                            */
   8:C:/Workspace/FW_Inertia/branch_indesit/HAL/RN_RX200/IEC60335_B_libs/src/RAM\ramtest_march_c.c **** /*  1. third-party claims against you for losses or damages;                  */
   9:C:/Workspace/FW_Inertia/branch_indesit/HAL/RN_RX200/IEC60335_B_libs/src/RAM\ramtest_march_c.c **** /*  2. loss of, or damage to, your records or data; or                        */
  10:C:/Workspace/FW_Inertia/branch_indesit/HAL/RN_RX200/IEC60335_B_libs/src/RAM\ramtest_march_c.c **** /*  3. economic consequential damages (including lost profits or savings)     */
  11:C:/Workspace/FW_Inertia/branch_indesit/HAL/RN_RX200/IEC60335_B_libs/src/RAM\ramtest_march_c.c **** /*     or incidental damages, even if we are informed of their possibility.   */
  12:C:/Workspace/FW_Inertia/branch_indesit/HAL/RN_RX200/IEC60335_B_libs/src/RAM\ramtest_march_c.c **** /*                                                                            */
  13:C:/Workspace/FW_Inertia/branch_indesit/HAL/RN_RX200/IEC60335_B_libs/src/RAM\ramtest_march_c.c **** /*  We do not warrant uninterrupted or error free operation of the Software.  */
  14:C:/Workspace/FW_Inertia/branch_indesit/HAL/RN_RX200/IEC60335_B_libs/src/RAM\ramtest_march_c.c **** /*  We have no obligation to provide service, defect, correction, or any      */
  15:C:/Workspace/FW_Inertia/branch_indesit/HAL/RN_RX200/IEC60335_B_libs/src/RAM\ramtest_march_c.c **** /*  maintenance for the Software. We have no obligation to supply any         */
  16:C:/Workspace/FW_Inertia/branch_indesit/HAL/RN_RX200/IEC60335_B_libs/src/RAM\ramtest_march_c.c **** /*  Software updates or enhancements to you even if such are or later become  */
  17:C:/Workspace/FW_Inertia/branch_indesit/HAL/RN_RX200/IEC60335_B_libs/src/RAM\ramtest_march_c.c **** /*  available.                                                                */
  18:C:/Workspace/FW_Inertia/branch_indesit/HAL/RN_RX200/IEC60335_B_libs/src/RAM\ramtest_march_c.c **** /*                                                                            */
  19:C:/Workspace/FW_Inertia/branch_indesit/HAL/RN_RX200/IEC60335_B_libs/src/RAM\ramtest_march_c.c **** /*  IF YOU DOWNLOAD OR USE THIS SOFTWARE YOU AGREE TO THESE TERMS.            */
  20:C:/Workspace/FW_Inertia/branch_indesit/HAL/RN_RX200/IEC60335_B_libs/src/RAM\ramtest_march_c.c **** /*                                                                            */
  21:C:/Workspace/FW_Inertia/branch_indesit/HAL/RN_RX200/IEC60335_B_libs/src/RAM\ramtest_march_c.c **** /*  THERE ARE NO WARRANTIES, EXPRESS OR IMPLIED, INCLUDING THE IMPLIED        */
  22:C:/Workspace/FW_Inertia/branch_indesit/HAL/RN_RX200/IEC60335_B_libs/src/RAM\ramtest_march_c.c **** /*  WARRANTIES OF MERCHANTABILITY AND FITNESS FOR A PARTICULAR PURPOSE.       */
  23:C:/Workspace/FW_Inertia/branch_indesit/HAL/RN_RX200/IEC60335_B_libs/src/RAM\ramtest_march_c.c **** 
  24:C:/Workspace/FW_Inertia/branch_indesit/HAL/RN_RX200/IEC60335_B_libs/src/RAM\ramtest_march_c.c **** 
  25:C:/Workspace/FW_Inertia/branch_indesit/HAL/RN_RX200/IEC60335_B_libs/src/RAM\ramtest_march_c.c **** /***********************************************************************************
  26:C:/Workspace/FW_Inertia/branch_indesit/HAL/RN_RX200/IEC60335_B_libs/src/RAM\ramtest_march_c.c **** FILE NAME  		ramtest_march_c.c
  27:C:/Workspace/FW_Inertia/branch_indesit/HAL/RN_RX200/IEC60335_B_libs/src/RAM\ramtest_march_c.c **** DESCRIPTION		RAM memory test using March C (Goor 1991) algorithm.
  28:C:/Workspace/FW_Inertia/branch_indesit/HAL/RN_RX200/IEC60335_B_libs/src/RAM\ramtest_march_c.c **** 
  29:C:/Workspace/FW_Inertia/branch_indesit/HAL/RN_RX200/IEC60335_B_libs/src/RAM\ramtest_march_c.c **** The 6 steps of the algorithm:-				
  30:C:/Workspace/FW_Inertia/branch_indesit/HAL/RN_RX200/IEC60335_B_libs/src/RAM\ramtest_march_c.c **** STEP1 - Write all zeros to array
  31:C:/Workspace/FW_Inertia/branch_indesit/HAL/RN_RX200/IEC60335_B_libs/src/RAM\ramtest_march_c.c **** STEP2 - Starting at lowest address, read zeros, write ones, increment up array.
  32:C:/Workspace/FW_Inertia/branch_indesit/HAL/RN_RX200/IEC60335_B_libs/src/RAM\ramtest_march_c.c **** STEP3 - Starting at lowest address, read ones, write zeros, increment up array.
  33:C:/Workspace/FW_Inertia/branch_indesit/HAL/RN_RX200/IEC60335_B_libs/src/RAM\ramtest_march_c.c **** STEP4 - Starting at highest address, read zeros, write ones, decrement down array.
  34:C:/Workspace/FW_Inertia/branch_indesit/HAL/RN_RX200/IEC60335_B_libs/src/RAM\ramtest_march_c.c **** STEP5 - Starting at highest address, read ones, write zeros, decrement down array.
  35:C:/Workspace/FW_Inertia/branch_indesit/HAL/RN_RX200/IEC60335_B_libs/src/RAM\ramtest_march_c.c **** STEP6 - Read all zeros from array.
  36:C:/Workspace/FW_Inertia/branch_indesit/HAL/RN_RX200/IEC60335_B_libs/src/RAM\ramtest_march_c.c **** ***********************************************************************************/
  37:C:/Workspace/FW_Inertia/branch_indesit/HAL/RN_RX200/IEC60335_B_libs/src/RAM\ramtest_march_c.c **** 
  38:C:/Workspace/FW_Inertia/branch_indesit/HAL/RN_RX200/IEC60335_B_libs/src/RAM\ramtest_march_c.c **** /**********************************************************************************
  39:C:/Workspace/FW_Inertia/branch_indesit/HAL/RN_RX200/IEC60335_B_libs/src/RAM\ramtest_march_c.c **** Revision History
  40:C:/Workspace/FW_Inertia/branch_indesit/HAL/RN_RX200/IEC60335_B_libs/src/RAM\ramtest_march_c.c **** DD-MMM-YYYY OSO-UID Description
  41:C:/Workspace/FW_Inertia/branch_indesit/HAL/RN_RX200/IEC60335_B_libs/src/RAM\ramtest_march_c.c **** 24-Feb-2009 RTE-PJI First Release
  42:C:/Workspace/FW_Inertia/branch_indesit/HAL/RN_RX200/IEC60335_B_libs/src/RAM\ramtest_march_c.c **** 28-May-2009 VDE (Version 1.0)
  43:C:/Workspace/FW_Inertia/branch_indesit/HAL/RN_RX200/IEC60335_B_libs/src/RAM\ramtest_march_c.c **** ***********************************************************************************/
  44:C:/Workspace/FW_Inertia/branch_indesit/HAL/RN_RX200/IEC60335_B_libs/src/RAM\ramtest_march_c.c **** 
  45:C:/Workspace/FW_Inertia/branch_indesit/HAL/RN_RX200/IEC60335_B_libs/src/RAM\ramtest_march_c.c **** /***********************************************************************************
  46:C:/Workspace/FW_Inertia/branch_indesit/HAL/RN_RX200/IEC60335_B_libs/src/RAM\ramtest_march_c.c **** Includes
  47:C:/Workspace/FW_Inertia/branch_indesit/HAL/RN_RX200/IEC60335_B_libs/src/RAM\ramtest_march_c.c **** ***********************************************************************************/
  48:C:/Workspace/FW_Inertia/branch_indesit/HAL/RN_RX200/IEC60335_B_libs/src/RAM\ramtest_march_c.c **** #include <stddef.h> /*Provides NULL declaration*/
  49:C:/Workspace/FW_Inertia/branch_indesit/HAL/RN_RX200/IEC60335_B_libs/src/RAM\ramtest_march_c.c **** #include "misratypes.h"
  50:C:/Workspace/FW_Inertia/branch_indesit/HAL/RN_RX200/IEC60335_B_libs/src/RAM\ramtest_march_c.c **** #include "ramtest_march_c.h"
  51:C:/Workspace/FW_Inertia/branch_indesit/HAL/RN_RX200/IEC60335_B_libs/src/RAM\ramtest_march_c.c **** 
  52:C:/Workspace/FW_Inertia/branch_indesit/HAL/RN_RX200/IEC60335_B_libs/src/RAM\ramtest_march_c.c **** /**********************************************************************************
  53:C:/Workspace/FW_Inertia/branch_indesit/HAL/RN_RX200/IEC60335_B_libs/src/RAM\ramtest_march_c.c ****  #defines
  54:C:/Workspace/FW_Inertia/branch_indesit/HAL/RN_RX200/IEC60335_B_libs/src/RAM\ramtest_march_c.c **** ***********************************************************************************/
  55:C:/Workspace/FW_Inertia/branch_indesit/HAL/RN_RX200/IEC60335_B_libs/src/RAM\ramtest_march_c.c **** /*The selected RAM access size changes the followign #defines.*/
  56:C:/Workspace/FW_Inertia/branch_indesit/HAL/RN_RX200/IEC60335_B_libs/src/RAM\ramtest_march_c.c **** #if (RAMTEST_MARCH_C_ACCESS_SIZE == RAMTEST_MARCH_C_ACCESS_SIZE_8BIT)
  57:C:/Workspace/FW_Inertia/branch_indesit/HAL/RN_RX200/IEC60335_B_libs/src/RAM\ramtest_march_c.c **** 	/*8 bit access */
  58:C:/Workspace/FW_Inertia/branch_indesit/HAL/RN_RX200/IEC60335_B_libs/src/RAM\ramtest_march_c.c **** 	#define BITS_PER_WORD 8U	
  59:C:/Workspace/FW_Inertia/branch_indesit/HAL/RN_RX200/IEC60335_B_libs/src/RAM\ramtest_march_c.c **** 	
  60:C:/Workspace/FW_Inertia/branch_indesit/HAL/RN_RX200/IEC60335_B_libs/src/RAM\ramtest_march_c.c **** 	/*Number of bytes in WORD*/
  61:C:/Workspace/FW_Inertia/branch_indesit/HAL/RN_RX200/IEC60335_B_libs/src/RAM\ramtest_march_c.c **** 	#define BYTES_PER_WORD 1U
  62:C:/Workspace/FW_Inertia/branch_indesit/HAL/RN_RX200/IEC60335_B_libs/src/RAM\ramtest_march_c.c **** 	
  63:C:/Workspace/FW_Inertia/branch_indesit/HAL/RN_RX200/IEC60335_B_libs/src/RAM\ramtest_march_c.c **** 	/*Used to check an address is 8 bit alligned */
  64:C:/Workspace/FW_Inertia/branch_indesit/HAL/RN_RX200/IEC60335_B_libs/src/RAM\ramtest_march_c.c **** 	#define ALIGNMENT_BITS 0x00000000UL
  65:C:/Workspace/FW_Inertia/branch_indesit/HAL/RN_RX200/IEC60335_B_libs/src/RAM\ramtest_march_c.c **** 	
  66:C:/Workspace/FW_Inertia/branch_indesit/HAL/RN_RX200/IEC60335_B_libs/src/RAM\ramtest_march_c.c **** 	/*Set the variable type used for RAM access*/
  67:C:/Workspace/FW_Inertia/branch_indesit/HAL/RN_RX200/IEC60335_B_libs/src/RAM\ramtest_march_c.c **** 	typedef uint8_t    TYPE_ACCESS_t;
  68:C:/Workspace/FW_Inertia/branch_indesit/HAL/RN_RX200/IEC60335_B_libs/src/RAM\ramtest_march_c.c **** 			
  69:C:/Workspace/FW_Inertia/branch_indesit/HAL/RN_RX200/IEC60335_B_libs/src/RAM\ramtest_march_c.c **** #elif (RAMTEST_MARCH_C_ACCESS_SIZE == RAMTEST_MARCH_C_ACCESS_SIZE_16BIT)
  70:C:/Workspace/FW_Inertia/branch_indesit/HAL/RN_RX200/IEC60335_B_libs/src/RAM\ramtest_march_c.c **** 	/*16 bit access */
  71:C:/Workspace/FW_Inertia/branch_indesit/HAL/RN_RX200/IEC60335_B_libs/src/RAM\ramtest_march_c.c **** 	
  72:C:/Workspace/FW_Inertia/branch_indesit/HAL/RN_RX200/IEC60335_B_libs/src/RAM\ramtest_march_c.c **** 	#define BITS_PER_WORD 16U
  73:C:/Workspace/FW_Inertia/branch_indesit/HAL/RN_RX200/IEC60335_B_libs/src/RAM\ramtest_march_c.c **** 	
  74:C:/Workspace/FW_Inertia/branch_indesit/HAL/RN_RX200/IEC60335_B_libs/src/RAM\ramtest_march_c.c **** 	/*Number of bytes in WORD*/
  75:C:/Workspace/FW_Inertia/branch_indesit/HAL/RN_RX200/IEC60335_B_libs/src/RAM\ramtest_march_c.c **** 	#define BYTES_PER_WORD 2U
  76:C:/Workspace/FW_Inertia/branch_indesit/HAL/RN_RX200/IEC60335_B_libs/src/RAM\ramtest_march_c.c **** 	
  77:C:/Workspace/FW_Inertia/branch_indesit/HAL/RN_RX200/IEC60335_B_libs/src/RAM\ramtest_march_c.c **** 	/*Used to check an address is 16 bit alligned */
  78:C:/Workspace/FW_Inertia/branch_indesit/HAL/RN_RX200/IEC60335_B_libs/src/RAM\ramtest_march_c.c **** 	#define ALIGNMENT_BITS 0x00000001UL
  79:C:/Workspace/FW_Inertia/branch_indesit/HAL/RN_RX200/IEC60335_B_libs/src/RAM\ramtest_march_c.c **** 	
  80:C:/Workspace/FW_Inertia/branch_indesit/HAL/RN_RX200/IEC60335_B_libs/src/RAM\ramtest_march_c.c **** 	/*Set the variable type used for RAM access*/
  81:C:/Workspace/FW_Inertia/branch_indesit/HAL/RN_RX200/IEC60335_B_libs/src/RAM\ramtest_march_c.c **** 	typedef uint16_t    TYPE_ACCESS_t;
  82:C:/Workspace/FW_Inertia/branch_indesit/HAL/RN_RX200/IEC60335_B_libs/src/RAM\ramtest_march_c.c **** 
  83:C:/Workspace/FW_Inertia/branch_indesit/HAL/RN_RX200/IEC60335_B_libs/src/RAM\ramtest_march_c.c **** #elif (RAMTEST_MARCH_C_ACCESS_SIZE == RAMTEST_MARCH_C_ACCESS_SIZE_32BIT)
  84:C:/Workspace/FW_Inertia/branch_indesit/HAL/RN_RX200/IEC60335_B_libs/src/RAM\ramtest_march_c.c **** 	/*32 bit access */
  85:C:/Workspace/FW_Inertia/branch_indesit/HAL/RN_RX200/IEC60335_B_libs/src/RAM\ramtest_march_c.c **** 	
  86:C:/Workspace/FW_Inertia/branch_indesit/HAL/RN_RX200/IEC60335_B_libs/src/RAM\ramtest_march_c.c **** 	#define BITS_PER_WORD 32U
  87:C:/Workspace/FW_Inertia/branch_indesit/HAL/RN_RX200/IEC60335_B_libs/src/RAM\ramtest_march_c.c **** 	
  88:C:/Workspace/FW_Inertia/branch_indesit/HAL/RN_RX200/IEC60335_B_libs/src/RAM\ramtest_march_c.c **** 	/*Number of bytes in WORD*/
  89:C:/Workspace/FW_Inertia/branch_indesit/HAL/RN_RX200/IEC60335_B_libs/src/RAM\ramtest_march_c.c **** 	#define BYTES_PER_WORD 4U
  90:C:/Workspace/FW_Inertia/branch_indesit/HAL/RN_RX200/IEC60335_B_libs/src/RAM\ramtest_march_c.c **** 	
  91:C:/Workspace/FW_Inertia/branch_indesit/HAL/RN_RX200/IEC60335_B_libs/src/RAM\ramtest_march_c.c **** 	/*Used to check an address is 32 bit alligned */
  92:C:/Workspace/FW_Inertia/branch_indesit/HAL/RN_RX200/IEC60335_B_libs/src/RAM\ramtest_march_c.c **** 	#define ALIGNMENT_BITS 0x00000003UL
  93:C:/Workspace/FW_Inertia/branch_indesit/HAL/RN_RX200/IEC60335_B_libs/src/RAM\ramtest_march_c.c **** 	
  94:C:/Workspace/FW_Inertia/branch_indesit/HAL/RN_RX200/IEC60335_B_libs/src/RAM\ramtest_march_c.c **** 	/*Set the variable type used for RAM access*/
  95:C:/Workspace/FW_Inertia/branch_indesit/HAL/RN_RX200/IEC60335_B_libs/src/RAM\ramtest_march_c.c **** 	typedef uint32_t    TYPE_ACCESS_t;
  96:C:/Workspace/FW_Inertia/branch_indesit/HAL/RN_RX200/IEC60335_B_libs/src/RAM\ramtest_march_c.c **** #endif
  97:C:/Workspace/FW_Inertia/branch_indesit/HAL/RN_RX200/IEC60335_B_libs/src/RAM\ramtest_march_c.c **** 
  98:C:/Workspace/FW_Inertia/branch_indesit/HAL/RN_RX200/IEC60335_B_libs/src/RAM\ramtest_march_c.c **** /*Sets the variable type used to hold the number of WORDS in the test are,
  99:C:/Workspace/FW_Inertia/branch_indesit/HAL/RN_RX200/IEC60335_B_libs/src/RAM\ramtest_march_c.c **** see header file for explanation.*/
 100:C:/Workspace/FW_Inertia/branch_indesit/HAL/RN_RX200/IEC60335_B_libs/src/RAM\ramtest_march_c.c **** #if (RAMTEST_MARCH_C_MAX_WORDS == RAMTEST_MARCH_C_MAX_WORDS_8BIT)
 101:C:/Workspace/FW_Inertia/branch_indesit/HAL/RN_RX200/IEC60335_B_libs/src/RAM\ramtest_march_c.c **** 	typedef uint8_t    TYPE_WORDS_t;
 102:C:/Workspace/FW_Inertia/branch_indesit/HAL/RN_RX200/IEC60335_B_libs/src/RAM\ramtest_march_c.c **** #elif (RAMTEST_MARCH_C_MAX_WORDS == RAMTEST_MARCH_C_MAX_WORDS_16BIT)
 103:C:/Workspace/FW_Inertia/branch_indesit/HAL/RN_RX200/IEC60335_B_libs/src/RAM\ramtest_march_c.c **** 	typedef uint16_t   TYPE_WORDS_t;
 104:C:/Workspace/FW_Inertia/branch_indesit/HAL/RN_RX200/IEC60335_B_libs/src/RAM\ramtest_march_c.c **** #elif (RAMTEST_MARCH_C_MAX_WORDS == RAMTEST_MARCH_C_MAX_WORDS_32BIT)
 105:C:/Workspace/FW_Inertia/branch_indesit/HAL/RN_RX200/IEC60335_B_libs/src/RAM\ramtest_march_c.c **** 	typedef uint32_t   TYPE_WORDS_t;
 106:C:/Workspace/FW_Inertia/branch_indesit/HAL/RN_RX200/IEC60335_B_libs/src/RAM\ramtest_march_c.c **** #endif
 107:C:/Workspace/FW_Inertia/branch_indesit/HAL/RN_RX200/IEC60335_B_libs/src/RAM\ramtest_march_c.c **** 
 108:C:/Workspace/FW_Inertia/branch_indesit/HAL/RN_RX200/IEC60335_B_libs/src/RAM\ramtest_march_c.c **** 
 109:C:/Workspace/FW_Inertia/branch_indesit/HAL/RN_RX200/IEC60335_B_libs/src/RAM\ramtest_march_c.c **** /***********************************************************************************
 110:C:/Workspace/FW_Inertia/branch_indesit/HAL/RN_RX200/IEC60335_B_libs/src/RAM\ramtest_march_c.c **** Function Prototypes
 111:C:/Workspace/FW_Inertia/branch_indesit/HAL/RN_RX200/IEC60335_B_libs/src/RAM\ramtest_march_c.c **** ***********************************************************************************/					
 112:C:/Workspace/FW_Inertia/branch_indesit/HAL/RN_RX200/IEC60335_B_libs/src/RAM\ramtest_march_c.c **** static bool_t Start_March_C(volatile TYPE_ACCESS_t* pui_RAM, 
 113:C:/Workspace/FW_Inertia/branch_indesit/HAL/RN_RX200/IEC60335_B_libs/src/RAM\ramtest_march_c.c **** 									const TYPE_WORDS_t ui_NumBlocks);
 114:C:/Workspace/FW_Inertia/branch_indesit/HAL/RN_RX200/IEC60335_B_libs/src/RAM\ramtest_march_c.c **** 
 115:C:/Workspace/FW_Inertia/branch_indesit/HAL/RN_RX200/IEC60335_B_libs/src/RAM\ramtest_march_c.c **** static bool_t March_C_increment(volatile TYPE_ACCESS_t* pui_RAM,
 116:C:/Workspace/FW_Inertia/branch_indesit/HAL/RN_RX200/IEC60335_B_libs/src/RAM\ramtest_march_c.c **** 										const TYPE_WORDS_t ui_NumBlocks,
 117:C:/Workspace/FW_Inertia/branch_indesit/HAL/RN_RX200/IEC60335_B_libs/src/RAM\ramtest_march_c.c **** 										const uint8_t ui8_ValueRead,
 118:C:/Workspace/FW_Inertia/branch_indesit/HAL/RN_RX200/IEC60335_B_libs/src/RAM\ramtest_march_c.c **** 					 					const uint8_t ui8_ValueWrite);
 119:C:/Workspace/FW_Inertia/branch_indesit/HAL/RN_RX200/IEC60335_B_libs/src/RAM\ramtest_march_c.c **** 					
 120:C:/Workspace/FW_Inertia/branch_indesit/HAL/RN_RX200/IEC60335_B_libs/src/RAM\ramtest_march_c.c **** static bool_t March_C_decrement(volatile TYPE_ACCESS_t* pui_RAM,
 121:C:/Workspace/FW_Inertia/branch_indesit/HAL/RN_RX200/IEC60335_B_libs/src/RAM\ramtest_march_c.c **** 						 				const TYPE_WORDS_t ui_NumBlocks,
 122:C:/Workspace/FW_Inertia/branch_indesit/HAL/RN_RX200/IEC60335_B_libs/src/RAM\ramtest_march_c.c **** 										const uint8_t ui8_ValueRead,
 123:C:/Workspace/FW_Inertia/branch_indesit/HAL/RN_RX200/IEC60335_B_libs/src/RAM\ramtest_march_c.c **** 										const uint8_t ui8_ValueWrite);
 124:C:/Workspace/FW_Inertia/branch_indesit/HAL/RN_RX200/IEC60335_B_libs/src/RAM\ramtest_march_c.c **** 										
 125:C:/Workspace/FW_Inertia/branch_indesit/HAL/RN_RX200/IEC60335_B_libs/src/RAM\ramtest_march_c.c **** static void MemoryCopy(const volatile TYPE_ACCESS_t* const pui_Source,
 126:C:/Workspace/FW_Inertia/branch_indesit/HAL/RN_RX200/IEC60335_B_libs/src/RAM\ramtest_march_c.c **** 						volatile TYPE_ACCESS_t* const pui_Dest,
 127:C:/Workspace/FW_Inertia/branch_indesit/HAL/RN_RX200/IEC60335_B_libs/src/RAM\ramtest_march_c.c **** 						const TYPE_WORDS_t ui_NumBlocks);
 128:C:/Workspace/FW_Inertia/branch_indesit/HAL/RN_RX200/IEC60335_B_libs/src/RAM\ramtest_march_c.c **** 
 129:C:/Workspace/FW_Inertia/branch_indesit/HAL/RN_RX200/IEC60335_B_libs/src/RAM\ramtest_march_c.c **** /***********************************************************************************
 130:C:/Workspace/FW_Inertia/branch_indesit/HAL/RN_RX200/IEC60335_B_libs/src/RAM\ramtest_march_c.c **** User Program Code
 131:C:/Workspace/FW_Inertia/branch_indesit/HAL/RN_RX200/IEC60335_B_libs/src/RAM\ramtest_march_c.c **** ***********************************************************************************/
 132:C:/Workspace/FW_Inertia/branch_indesit/HAL/RN_RX200/IEC60335_B_libs/src/RAM\ramtest_march_c.c **** 
 133:C:/Workspace/FW_Inertia/branch_indesit/HAL/RN_RX200/IEC60335_B_libs/src/RAM\ramtest_march_c.c **** /***********************************************************************************
 134:C:/Workspace/FW_Inertia/branch_indesit/HAL/RN_RX200/IEC60335_B_libs/src/RAM\ramtest_march_c.c **** Function Name : RamTest_March_C_Extra
 135:C:/Workspace/FW_Inertia/branch_indesit/HAL/RN_RX200/IEC60335_B_libs/src/RAM\ramtest_march_c.c **** Description   :	RAM memory test using March C (Goor 1991) algorithm.
 136:C:/Workspace/FW_Inertia/branch_indesit/HAL/RN_RX200/IEC60335_B_libs/src/RAM\ramtest_march_c.c **** 				The test is non-destructive. This is achieved by copying the
 137:C:/Workspace/FW_Inertia/branch_indesit/HAL/RN_RX200/IEC60335_B_libs/src/RAM\ramtest_march_c.c **** 				contents of the test are to a supplied buffer (pui_RAMSafe)
 138:C:/Workspace/FW_Inertia/branch_indesit/HAL/RN_RX200/IEC60335_B_libs/src/RAM\ramtest_march_c.c **** 				before the test and then restoring the contents after the test.
 139:C:/Workspace/FW_Inertia/branch_indesit/HAL/RN_RX200/IEC60335_B_libs/src/RAM\ramtest_march_c.c **** 				Before using the buffer (pui_RAMSafe) a destructive memory test
 140:C:/Workspace/FW_Inertia/branch_indesit/HAL/RN_RX200/IEC60335_B_libs/src/RAM\ramtest_march_c.c **** 				is performed on it. If it fails the main test will not be performed
 141:C:/Workspace/FW_Inertia/branch_indesit/HAL/RN_RX200/IEC60335_B_libs/src/RAM\ramtest_march_c.c **** 				and the function will return Test Failed.
 142:C:/Workspace/FW_Inertia/branch_indesit/HAL/RN_RX200/IEC60335_B_libs/src/RAM\ramtest_march_c.c **** 				
 143:C:/Workspace/FW_Inertia/branch_indesit/HAL/RN_RX200/IEC60335_B_libs/src/RAM\ramtest_march_c.c **** Parameters    : ui32_StartAddr - Start address (Aligned with chosen access width).
 144:C:/Workspace/FW_Inertia/branch_indesit/HAL/RN_RX200/IEC60335_B_libs/src/RAM\ramtest_march_c.c **** 				ui32_EndAddr   - End address (Aligned with chosen access width).
 145:C:/Workspace/FW_Inertia/branch_indesit/HAL/RN_RX200/IEC60335_B_libs/src/RAM\ramtest_march_c.c **** 				pui_RAMSafe    - Set to the start of a buffer that is the same size
 146:C:/Workspace/FW_Inertia/branch_indesit/HAL/RN_RX200/IEC60335_B_libs/src/RAM\ramtest_march_c.c **** 				 				 as the test RAM area. (Aligned with chosen access width)
 147:C:/Workspace/FW_Inertia/branch_indesit/HAL/RN_RX200/IEC60335_B_libs/src/RAM\ramtest_march_c.c **** 				
 148:C:/Workspace/FW_Inertia/branch_indesit/HAL/RN_RX200/IEC60335_B_libs/src/RAM\ramtest_march_c.c **** 				Note: StartAddr must be less than or equall to the end address.
 149:C:/Workspace/FW_Inertia/branch_indesit/HAL/RN_RX200/IEC60335_B_libs/src/RAM\ramtest_march_c.c **** 				
 150:C:/Workspace/FW_Inertia/branch_indesit/HAL/RN_RX200/IEC60335_B_libs/src/RAM\ramtest_march_c.c **** Return Value  : TRUE = TEST Passed. FALSE = TEST or parameter check Failed.
 151:C:/Workspace/FW_Inertia/branch_indesit/HAL/RN_RX200/IEC60335_B_libs/src/RAM\ramtest_march_c.c **** ***********************************************************************************/
 152:C:/Workspace/FW_Inertia/branch_indesit/HAL/RN_RX200/IEC60335_B_libs/src/RAM\ramtest_march_c.c **** bool_t RamTest_March_C_Extra(const uint32_t ui32_StartAddr,
 153:C:/Workspace/FW_Inertia/branch_indesit/HAL/RN_RX200/IEC60335_B_libs/src/RAM\ramtest_march_c.c **** 							 	const uint32_t ui32_EndAddr,
 154:C:/Workspace/FW_Inertia/branch_indesit/HAL/RN_RX200/IEC60335_B_libs/src/RAM\ramtest_march_c.c **** 								void* const p_RAMSafe)
 155:C:/Workspace/FW_Inertia/branch_indesit/HAL/RN_RX200/IEC60335_B_libs/src/RAM\ramtest_march_c.c **** {
 156:C:/Workspace/FW_Inertia/branch_indesit/HAL/RN_RX200/IEC60335_B_libs/src/RAM\ramtest_march_c.c **** 	bool_t bResult;
 157:C:/Workspace/FW_Inertia/branch_indesit/HAL/RN_RX200/IEC60335_B_libs/src/RAM\ramtest_march_c.c **** 	uint32_t ui32_NumBlocks;
 158:C:/Workspace/FW_Inertia/branch_indesit/HAL/RN_RX200/IEC60335_B_libs/src/RAM\ramtest_march_c.c **** 	
 159:C:/Workspace/FW_Inertia/branch_indesit/HAL/RN_RX200/IEC60335_B_libs/src/RAM\ramtest_march_c.c **** 	/*Convert to the selected access width*/
 160:C:/Workspace/FW_Inertia/branch_indesit/HAL/RN_RX200/IEC60335_B_libs/src/RAM\ramtest_march_c.c **** 	TYPE_ACCESS_t* pui_RAMSafe = (TYPE_ACCESS_t*)p_RAMSafe;
 161:C:/Workspace/FW_Inertia/branch_indesit/HAL/RN_RX200/IEC60335_B_libs/src/RAM\ramtest_march_c.c **** 	/*Perform quick check that p_RAMSafe is not NULL as this is not allowed
 162:C:/Workspace/FW_Inertia/branch_indesit/HAL/RN_RX200/IEC60335_B_libs/src/RAM\ramtest_march_c.c **** 	for this '_Extra' function but is for the non '_Extra' function.*/
 163:C:/Workspace/FW_Inertia/branch_indesit/HAL/RN_RX200/IEC60335_B_libs/src/RAM\ramtest_march_c.c **** 	if(NULL == pui_RAMSafe)
 164:C:/Workspace/FW_Inertia/branch_indesit/HAL/RN_RX200/IEC60335_B_libs/src/RAM\ramtest_march_c.c **** 	{
 165:C:/Workspace/FW_Inertia/branch_indesit/HAL/RN_RX200/IEC60335_B_libs/src/RAM\ramtest_march_c.c **** 		bResult = FALSE;
 166:C:/Workspace/FW_Inertia/branch_indesit/HAL/RN_RX200/IEC60335_B_libs/src/RAM\ramtest_march_c.c **** 	}
 167:C:/Workspace/FW_Inertia/branch_indesit/HAL/RN_RX200/IEC60335_B_libs/src/RAM\ramtest_march_c.c **** 	else
 168:C:/Workspace/FW_Inertia/branch_indesit/HAL/RN_RX200/IEC60335_B_libs/src/RAM\ramtest_march_c.c **** 	{
 169:C:/Workspace/FW_Inertia/branch_indesit/HAL/RN_RX200/IEC60335_B_libs/src/RAM\ramtest_march_c.c **** 		/*Calculate the number of words this covers*/
 170:C:/Workspace/FW_Inertia/branch_indesit/HAL/RN_RX200/IEC60335_B_libs/src/RAM\ramtest_march_c.c **** 		ui32_NumBlocks = 1 + ((ui32_EndAddr - ui32_StartAddr) / BYTES_PER_WORD);
 171:C:/Workspace/FW_Inertia/branch_indesit/HAL/RN_RX200/IEC60335_B_libs/src/RAM\ramtest_march_c.c **** 	
 172:C:/Workspace/FW_Inertia/branch_indesit/HAL/RN_RX200/IEC60335_B_libs/src/RAM\ramtest_march_c.c **** 		/*First test the 'Safe' buffer. This is a destructive test.*/
 173:C:/Workspace/FW_Inertia/branch_indesit/HAL/RN_RX200/IEC60335_B_libs/src/RAM\ramtest_march_c.c **** 		/*NOTE: This causes MISRA message 0306 -
 174:C:/Workspace/FW_Inertia/branch_indesit/HAL/RN_RX200/IEC60335_B_libs/src/RAM\ramtest_march_c.c **** 		"The size of integer required to hold the result of a pointer cast is implementation-defined."
 175:C:/Workspace/FW_Inertia/branch_indesit/HAL/RN_RX200/IEC60335_B_libs/src/RAM\ramtest_march_c.c **** 		This is recognised as unavoidable for certain embedded applications.*/
 176:C:/Workspace/FW_Inertia/branch_indesit/HAL/RN_RX200/IEC60335_B_libs/src/RAM\ramtest_march_c.c **** 		bResult = RamTest_March_C((uint32_t)&pui_RAMSafe[0],
 177:C:/Workspace/FW_Inertia/branch_indesit/HAL/RN_RX200/IEC60335_B_libs/src/RAM\ramtest_march_c.c **** 										 (uint32_t)&pui_RAMSafe[ui32_NumBlocks-1], NULL);
 178:C:/Workspace/FW_Inertia/branch_indesit/HAL/RN_RX200/IEC60335_B_libs/src/RAM\ramtest_march_c.c **** 		if(TRUE == bResult)
 179:C:/Workspace/FW_Inertia/branch_indesit/HAL/RN_RX200/IEC60335_B_libs/src/RAM\ramtest_march_c.c **** 		{
 180:C:/Workspace/FW_Inertia/branch_indesit/HAL/RN_RX200/IEC60335_B_libs/src/RAM\ramtest_march_c.c **** 			/*Perform the main test.*/	
 181:C:/Workspace/FW_Inertia/branch_indesit/HAL/RN_RX200/IEC60335_B_libs/src/RAM\ramtest_march_c.c **** 			bResult = RamTest_March_C(ui32_StartAddr, ui32_EndAddr, pui_RAMSafe);
 182:C:/Workspace/FW_Inertia/branch_indesit/HAL/RN_RX200/IEC60335_B_libs/src/RAM\ramtest_march_c.c **** 		}
 183:C:/Workspace/FW_Inertia/branch_indesit/HAL/RN_RX200/IEC60335_B_libs/src/RAM\ramtest_march_c.c **** 	}
 184:C:/Workspace/FW_Inertia/branch_indesit/HAL/RN_RX200/IEC60335_B_libs/src/RAM\ramtest_march_c.c **** 	
 185:C:/Workspace/FW_Inertia/branch_indesit/HAL/RN_RX200/IEC60335_B_libs/src/RAM\ramtest_march_c.c **** 	return bResult;
 186:C:/Workspace/FW_Inertia/branch_indesit/HAL/RN_RX200/IEC60335_B_libs/src/RAM\ramtest_march_c.c **** }
 187:C:/Workspace/FW_Inertia/branch_indesit/HAL/RN_RX200/IEC60335_B_libs/src/RAM\ramtest_march_c.c **** 								
 188:C:/Workspace/FW_Inertia/branch_indesit/HAL/RN_RX200/IEC60335_B_libs/src/RAM\ramtest_march_c.c **** /***********************************************************************************
 189:C:/Workspace/FW_Inertia/branch_indesit/HAL/RN_RX200/IEC60335_B_libs/src/RAM\ramtest_march_c.c **** Function Name : RamTest_March_C
 190:C:/Workspace/FW_Inertia/branch_indesit/HAL/RN_RX200/IEC60335_B_libs/src/RAM\ramtest_march_c.c **** Description   :	RAM memory test using March C (Goor 1991) algorithm.
 191:C:/Workspace/FW_Inertia/branch_indesit/HAL/RN_RX200/IEC60335_B_libs/src/RAM\ramtest_march_c.c **** Parameters    : ui32_StartAddr - Start address (Aligned with chosen access width).
 192:C:/Workspace/FW_Inertia/branch_indesit/HAL/RN_RX200/IEC60335_B_libs/src/RAM\ramtest_march_c.c **** 				ui32_EndAddr   - end address (Aligned with chosen access width)
 193:C:/Workspace/FW_Inertia/branch_indesit/HAL/RN_RX200/IEC60335_B_libs/src/RAM\ramtest_march_c.c **** 				pui_RAMSafe    - For a destructive memory test set to NULL.
 194:C:/Workspace/FW_Inertia/branch_indesit/HAL/RN_RX200/IEC60335_B_libs/src/RAM\ramtest_march_c.c **** 								For a non-destructive memory test,
 195:C:/Workspace/FW_Inertia/branch_indesit/HAL/RN_RX200/IEC60335_B_libs/src/RAM\ramtest_march_c.c **** 								set to the start of a buffer
 196:C:/Workspace/FW_Inertia/branch_indesit/HAL/RN_RX200/IEC60335_B_libs/src/RAM\ramtest_march_c.c **** 								that is large enough to copy the contents
 197:C:/Workspace/FW_Inertia/branch_indesit/HAL/RN_RX200/IEC60335_B_libs/src/RAM\ramtest_march_c.c **** 								of the test RAM area into it.
 198:C:/Workspace/FW_Inertia/branch_indesit/HAL/RN_RX200/IEC60335_B_libs/src/RAM\ramtest_march_c.c **** 								(Aligned with chosen access width)
 199:C:/Workspace/FW_Inertia/branch_indesit/HAL/RN_RX200/IEC60335_B_libs/src/RAM\ramtest_march_c.c **** 				
 200:C:/Workspace/FW_Inertia/branch_indesit/HAL/RN_RX200/IEC60335_B_libs/src/RAM\ramtest_march_c.c **** 				Note: StartAddr must be less than or equall to the end address.
 201:C:/Workspace/FW_Inertia/branch_indesit/HAL/RN_RX200/IEC60335_B_libs/src/RAM\ramtest_march_c.c **** 				
 202:C:/Workspace/FW_Inertia/branch_indesit/HAL/RN_RX200/IEC60335_B_libs/src/RAM\ramtest_march_c.c **** Return Value  : TRUE = TEST Passed. FALSE = TEST or parameter check Failed.
 203:C:/Workspace/FW_Inertia/branch_indesit/HAL/RN_RX200/IEC60335_B_libs/src/RAM\ramtest_march_c.c **** ***********************************************************************************/
 204:C:/Workspace/FW_Inertia/branch_indesit/HAL/RN_RX200/IEC60335_B_libs/src/RAM\ramtest_march_c.c **** bool_t RamTest_March_C(const uint32_t ui32_StartAddr,
 205:C:/Workspace/FW_Inertia/branch_indesit/HAL/RN_RX200/IEC60335_B_libs/src/RAM\ramtest_march_c.c **** 							 	const uint32_t ui32_EndAddr,
 206:C:/Workspace/FW_Inertia/branch_indesit/HAL/RN_RX200/IEC60335_B_libs/src/RAM\ramtest_march_c.c **** 								void* const p_RAMSafe)
 207:C:/Workspace/FW_Inertia/branch_indesit/HAL/RN_RX200/IEC60335_B_libs/src/RAM\ramtest_march_c.c **** {	
  10                             		.loc 1 207 0
 208:C:/Workspace/FW_Inertia/branch_indesit/HAL/RN_RX200/IEC60335_B_libs/src/RAM\ramtest_march_c.c **** 	bool_t b_Result = TRUE;
 209:C:/Workspace/FW_Inertia/branch_indesit/HAL/RN_RX200/IEC60335_B_libs/src/RAM\ramtest_march_c.c **** 	uint32_t ui32_NumBlocks = 0;
 210:C:/Workspace/FW_Inertia/branch_indesit/HAL/RN_RX200/IEC60335_B_libs/src/RAM\ramtest_march_c.c **** 	volatile TYPE_ACCESS_t* pui_RAM;
 211:C:/Workspace/FW_Inertia/branch_indesit/HAL/RN_RX200/IEC60335_B_libs/src/RAM\ramtest_march_c.c **** 	
 212:C:/Workspace/FW_Inertia/branch_indesit/HAL/RN_RX200/IEC60335_B_libs/src/RAM\ramtest_march_c.c **** 	/*Convert to the selected access width*/
 213:C:/Workspace/FW_Inertia/branch_indesit/HAL/RN_RX200/IEC60335_B_libs/src/RAM\ramtest_march_c.c **** 	TYPE_ACCESS_t* pui_RAMSafe = (TYPE_ACCESS_t*)p_RAMSafe;
 214:C:/Workspace/FW_Inertia/branch_indesit/HAL/RN_RX200/IEC60335_B_libs/src/RAM\ramtest_march_c.c **** 	/*Check parameters*/
 215:C:/Workspace/FW_Inertia/branch_indesit/HAL/RN_RX200/IEC60335_B_libs/src/RAM\ramtest_march_c.c **** 	{
 216:C:/Workspace/FW_Inertia/branch_indesit/HAL/RN_RX200/IEC60335_B_libs/src/RAM\ramtest_march_c.c **** 		/*Check start address is alligned with chosen access width.*/
 217:C:/Workspace/FW_Inertia/branch_indesit/HAL/RN_RX200/IEC60335_B_libs/src/RAM\ramtest_march_c.c **** 		if((ui32_StartAddr & ALIGNMENT_BITS) != 0)
 218:C:/Workspace/FW_Inertia/branch_indesit/HAL/RN_RX200/IEC60335_B_libs/src/RAM\ramtest_march_c.c **** 		{
 219:C:/Workspace/FW_Inertia/branch_indesit/HAL/RN_RX200/IEC60335_B_libs/src/RAM\ramtest_march_c.c **** 			b_Result = FALSE;
 220:C:/Workspace/FW_Inertia/branch_indesit/HAL/RN_RX200/IEC60335_B_libs/src/RAM\ramtest_march_c.c **** 		}
 221:C:/Workspace/FW_Inertia/branch_indesit/HAL/RN_RX200/IEC60335_B_libs/src/RAM\ramtest_march_c.c **** 		/*Check end address is alligned with chosen access width*/
 222:C:/Workspace/FW_Inertia/branch_indesit/HAL/RN_RX200/IEC60335_B_libs/src/RAM\ramtest_march_c.c **** 		else if((ui32_EndAddr & ALIGNMENT_BITS) != 0)
 223:C:/Workspace/FW_Inertia/branch_indesit/HAL/RN_RX200/IEC60335_B_libs/src/RAM\ramtest_march_c.c **** 		{
 224:C:/Workspace/FW_Inertia/branch_indesit/HAL/RN_RX200/IEC60335_B_libs/src/RAM\ramtest_march_c.c **** 			b_Result = FALSE;
 225:C:/Workspace/FW_Inertia/branch_indesit/HAL/RN_RX200/IEC60335_B_libs/src/RAM\ramtest_march_c.c **** 		}
 226:C:/Workspace/FW_Inertia/branch_indesit/HAL/RN_RX200/IEC60335_B_libs/src/RAM\ramtest_march_c.c **** 		/*Check end address is greater or equall to start address*/
 227:C:/Workspace/FW_Inertia/branch_indesit/HAL/RN_RX200/IEC60335_B_libs/src/RAM\ramtest_march_c.c **** 		else if(ui32_StartAddr > ui32_EndAddr)
  11                             		.loc 1 227 0
  12 0000 47 21                   		cmp	r2, r1
  13 0002 25 05 38 73 01          		bgtu	.L31
 228:C:/Workspace/FW_Inertia/branch_indesit/HAL/RN_RX200/IEC60335_B_libs/src/RAM\ramtest_march_c.c **** 		{
 229:C:/Workspace/FW_Inertia/branch_indesit/HAL/RN_RX200/IEC60335_B_libs/src/RAM\ramtest_march_c.c **** 			b_Result = FALSE;	
 230:C:/Workspace/FW_Inertia/branch_indesit/HAL/RN_RX200/IEC60335_B_libs/src/RAM\ramtest_march_c.c **** 		}
 231:C:/Workspace/FW_Inertia/branch_indesit/HAL/RN_RX200/IEC60335_B_libs/src/RAM\ramtest_march_c.c **** 		/*Check buffer is alligned with chosen access width (if it is being used)*/
 232:C:/Workspace/FW_Inertia/branch_indesit/HAL/RN_RX200/IEC60335_B_libs/src/RAM\ramtest_march_c.c **** 		/*NOTE: This causes MISRA message 0306 -
 233:C:/Workspace/FW_Inertia/branch_indesit/HAL/RN_RX200/IEC60335_B_libs/src/RAM\ramtest_march_c.c **** 		"The size of integer required to hold the result of a pointer cast is implementation-defined."
 234:C:/Workspace/FW_Inertia/branch_indesit/HAL/RN_RX200/IEC60335_B_libs/src/RAM\ramtest_march_c.c **** 		This is recognised as unavoidable for certain embedded applications.*/
 235:C:/Workspace/FW_Inertia/branch_indesit/HAL/RN_RX200/IEC60335_B_libs/src/RAM\ramtest_march_c.c **** 		else if( (pui_RAMSafe != NULL) &&
 236:C:/Workspace/FW_Inertia/branch_indesit/HAL/RN_RX200/IEC60335_B_libs/src/RAM\ramtest_march_c.c **** 				 (((uint32_t)pui_RAMSafe & ALIGNMENT_BITS) != 0) )
 237:C:/Workspace/FW_Inertia/branch_indesit/HAL/RN_RX200/IEC60335_B_libs/src/RAM\ramtest_march_c.c **** 		{
 238:C:/Workspace/FW_Inertia/branch_indesit/HAL/RN_RX200/IEC60335_B_libs/src/RAM\ramtest_march_c.c **** 			b_Result = FALSE;	
 239:C:/Workspace/FW_Inertia/branch_indesit/HAL/RN_RX200/IEC60335_B_libs/src/RAM\ramtest_march_c.c **** 		}
 240:C:/Workspace/FW_Inertia/branch_indesit/HAL/RN_RX200/IEC60335_B_libs/src/RAM\ramtest_march_c.c **** 		else
 241:C:/Workspace/FW_Inertia/branch_indesit/HAL/RN_RX200/IEC60335_B_libs/src/RAM\ramtest_march_c.c **** 		{
 242:C:/Workspace/FW_Inertia/branch_indesit/HAL/RN_RX200/IEC60335_B_libs/src/RAM\ramtest_march_c.c **** 			/*Calculate number of words this covers*/
 243:C:/Workspace/FW_Inertia/branch_indesit/HAL/RN_RX200/IEC60335_B_libs/src/RAM\ramtest_march_c.c **** 			ui32_NumBlocks = 1 + ((ui32_EndAddr - ui32_StartAddr) / BYTES_PER_WORD);
  14                             		.loc 1 243 0
  15 0007 43 12                   		sub	r1, r2
  16 0009 62 12                   		add	#1, r2
 244:C:/Workspace/FW_Inertia/branch_indesit/HAL/RN_RX200/IEC60335_B_libs/src/RAM\ramtest_march_c.c **** 		
 245:C:/Workspace/FW_Inertia/branch_indesit/HAL/RN_RX200/IEC60335_B_libs/src/RAM\ramtest_march_c.c **** 			/*Check that the number of words required fits into any user defined
 246:C:/Workspace/FW_Inertia/branch_indesit/HAL/RN_RX200/IEC60335_B_libs/src/RAM\ramtest_march_c.c **** 			limits that may have been set.*/
 247:C:/Workspace/FW_Inertia/branch_indesit/HAL/RN_RX200/IEC60335_B_libs/src/RAM\ramtest_march_c.c **** 			#if (RAMTEST_MARCH_C_MAX_WORDS == RAMTEST_MARCH_C_MAX_WORDS_8BIT)
 248:C:/Workspace/FW_Inertia/branch_indesit/HAL/RN_RX200/IEC60335_B_libs/src/RAM\ramtest_march_c.c **** 				if(ui32_NumBlocks > 0xFFuL)
  17                             		.loc 1 248 0
  18 000b 75 52 FF                		cmp	#0xff, r2
  19 000e 25 05 38 67 01          		bgtu	.L31
 207:C:/Workspace/FW_Inertia/branch_indesit/HAL/RN_RX200/IEC60335_B_libs/src/RAM\ramtest_march_c.c **** {	
  20                             		.loc 1 207 0
  21 0013 6E 7D                   		pushm	r7-r13
  22                             	.LCFI0:
  23 0015 38 67 01                		bra	.L72
  24                             	.L29:
 249:C:/Workspace/FW_Inertia/branch_indesit/HAL/RN_RX200/IEC60335_B_libs/src/RAM\ramtest_march_c.c **** 				{
 250:C:/Workspace/FW_Inertia/branch_indesit/HAL/RN_RX200/IEC60335_B_libs/src/RAM\ramtest_march_c.c **** 					b_Result = FALSE;
 251:C:/Workspace/FW_Inertia/branch_indesit/HAL/RN_RX200/IEC60335_B_libs/src/RAM\ramtest_march_c.c **** 				}
 252:C:/Workspace/FW_Inertia/branch_indesit/HAL/RN_RX200/IEC60335_B_libs/src/RAM\ramtest_march_c.c **** 			#elif (RAMTEST_MARCH_C_MAX_WORDS == RAMTEST_MARCH_C_MAX_WORDS_16BIT)
 253:C:/Workspace/FW_Inertia/branch_indesit/HAL/RN_RX200/IEC60335_B_libs/src/RAM\ramtest_march_c.c **** 				if(ui32_NumBlocks > 0xFFFFuL)
 254:C:/Workspace/FW_Inertia/branch_indesit/HAL/RN_RX200/IEC60335_B_libs/src/RAM\ramtest_march_c.c **** 				{
 255:C:/Workspace/FW_Inertia/branch_indesit/HAL/RN_RX200/IEC60335_B_libs/src/RAM\ramtest_march_c.c **** 					b_Result = FALSE;
 256:C:/Workspace/FW_Inertia/branch_indesit/HAL/RN_RX200/IEC60335_B_libs/src/RAM\ramtest_march_c.c **** 				}
 257:C:/Workspace/FW_Inertia/branch_indesit/HAL/RN_RX200/IEC60335_B_libs/src/RAM\ramtest_march_c.c **** 			#endif
 258:C:/Workspace/FW_Inertia/branch_indesit/HAL/RN_RX200/IEC60335_B_libs/src/RAM\ramtest_march_c.c **** 			/*Parameters Ok*/
 259:C:/Workspace/FW_Inertia/branch_indesit/HAL/RN_RX200/IEC60335_B_libs/src/RAM\ramtest_march_c.c **** 		}
 260:C:/Workspace/FW_Inertia/branch_indesit/HAL/RN_RX200/IEC60335_B_libs/src/RAM\ramtest_march_c.c **** 	}
 261:C:/Workspace/FW_Inertia/branch_indesit/HAL/RN_RX200/IEC60335_B_libs/src/RAM\ramtest_march_c.c **** 	
 262:C:/Workspace/FW_Inertia/branch_indesit/HAL/RN_RX200/IEC60335_B_libs/src/RAM\ramtest_march_c.c **** 	/*Only perform the test if the parameter checking was OK */	
 263:C:/Workspace/FW_Inertia/branch_indesit/HAL/RN_RX200/IEC60335_B_libs/src/RAM\ramtest_march_c.c **** 	if(TRUE == b_Result)
 264:C:/Workspace/FW_Inertia/branch_indesit/HAL/RN_RX200/IEC60335_B_libs/src/RAM\ramtest_march_c.c **** 	{
 265:C:/Workspace/FW_Inertia/branch_indesit/HAL/RN_RX200/IEC60335_B_libs/src/RAM\ramtest_march_c.c **** 		/*Point to start of RAM to test*/
 266:C:/Workspace/FW_Inertia/branch_indesit/HAL/RN_RX200/IEC60335_B_libs/src/RAM\ramtest_march_c.c **** 		/*NOTE: This causes MISRA message 0303 -
 267:C:/Workspace/FW_Inertia/branch_indesit/HAL/RN_RX200/IEC60335_B_libs/src/RAM\ramtest_march_c.c **** 		"Cast between a pointer to volatile object and an integral type"
 268:C:/Workspace/FW_Inertia/branch_indesit/HAL/RN_RX200/IEC60335_B_libs/src/RAM\ramtest_march_c.c **** 		This is recognised as unavoidable for certain embedded applications.*/
 269:C:/Workspace/FW_Inertia/branch_indesit/HAL/RN_RX200/IEC60335_B_libs/src/RAM\ramtest_march_c.c **** 		pui_RAM = (volatile TYPE_ACCESS_t*)ui32_StartAddr;
 270:C:/Workspace/FW_Inertia/branch_indesit/HAL/RN_RX200/IEC60335_B_libs/src/RAM\ramtest_march_c.c **** 		
 271:C:/Workspace/FW_Inertia/branch_indesit/HAL/RN_RX200/IEC60335_B_libs/src/RAM\ramtest_march_c.c **** 		/*Do we need to keep the current RAM contents?*/
 272:C:/Workspace/FW_Inertia/branch_indesit/HAL/RN_RX200/IEC60335_B_libs/src/RAM\ramtest_march_c.c **** 		if(pui_RAMSafe != NULL)
 273:C:/Workspace/FW_Inertia/branch_indesit/HAL/RN_RX200/IEC60335_B_libs/src/RAM\ramtest_march_c.c **** 		{
 274:C:/Workspace/FW_Inertia/branch_indesit/HAL/RN_RX200/IEC60335_B_libs/src/RAM\ramtest_march_c.c **** 			/*Copy Test area contents to safe RAM*/
 275:C:/Workspace/FW_Inertia/branch_indesit/HAL/RN_RX200/IEC60335_B_libs/src/RAM\ramtest_march_c.c **** 			/*NOTE: This causes MISRA message 0303 -
 276:C:/Workspace/FW_Inertia/branch_indesit/HAL/RN_RX200/IEC60335_B_libs/src/RAM\ramtest_march_c.c **** 			"Cast between a pointer to volatile object and an integral type"
 277:C:/Workspace/FW_Inertia/branch_indesit/HAL/RN_RX200/IEC60335_B_libs/src/RAM\ramtest_march_c.c **** 			This is recognised as unavoidable for certain embedded applications.*/
 278:C:/Workspace/FW_Inertia/branch_indesit/HAL/RN_RX200/IEC60335_B_libs/src/RAM\ramtest_march_c.c **** 			MemoryCopy((TYPE_ACCESS_t*)ui32_StartAddr, 
  25                             		.loc 1 278 0
  26 0018 EF 1E                   		mov.L	r1, r14
  27                             	.LBB16:
  28                             	.LBB17:
 279:C:/Workspace/FW_Inertia/branch_indesit/HAL/RN_RX200/IEC60335_B_libs/src/RAM\ramtest_march_c.c **** 						(TYPE_ACCESS_t*)pui_RAMSafe,
 280:C:/Workspace/FW_Inertia/branch_indesit/HAL/RN_RX200/IEC60335_B_libs/src/RAM\ramtest_march_c.c **** 						 (TYPE_WORDS_t)ui32_NumBlocks);
 281:C:/Workspace/FW_Inertia/branch_indesit/HAL/RN_RX200/IEC60335_B_libs/src/RAM\ramtest_march_c.c **** 		}
 282:C:/Workspace/FW_Inertia/branch_indesit/HAL/RN_RX200/IEC60335_B_libs/src/RAM\ramtest_march_c.c **** 		
 283:C:/Workspace/FW_Inertia/branch_indesit/HAL/RN_RX200/IEC60335_B_libs/src/RAM\ramtest_march_c.c **** 		/*Perform the actual test*/
 284:C:/Workspace/FW_Inertia/branch_indesit/HAL/RN_RX200/IEC60335_B_libs/src/RAM\ramtest_march_c.c **** 		b_Result = Start_March_C(pui_RAM, (TYPE_WORDS_t)ui32_NumBlocks);
 285:C:/Workspace/FW_Inertia/branch_indesit/HAL/RN_RX200/IEC60335_B_libs/src/RAM\ramtest_march_c.c **** 			
 286:C:/Workspace/FW_Inertia/branch_indesit/HAL/RN_RX200/IEC60335_B_libs/src/RAM\ramtest_march_c.c **** 		/*Do we need to restore the original RAM contents?*/
 287:C:/Workspace/FW_Inertia/branch_indesit/HAL/RN_RX200/IEC60335_B_libs/src/RAM\ramtest_march_c.c **** 		if(pui_RAMSafe != NULL)
 288:C:/Workspace/FW_Inertia/branch_indesit/HAL/RN_RX200/IEC60335_B_libs/src/RAM\ramtest_march_c.c **** 		{
 289:C:/Workspace/FW_Inertia/branch_indesit/HAL/RN_RX200/IEC60335_B_libs/src/RAM\ramtest_march_c.c **** 			/*Copy Test area contents from safe RAM*/
 290:C:/Workspace/FW_Inertia/branch_indesit/HAL/RN_RX200/IEC60335_B_libs/src/RAM\ramtest_march_c.c **** 			/*NOTE: This causes MISRA message 0303 -
 291:C:/Workspace/FW_Inertia/branch_indesit/HAL/RN_RX200/IEC60335_B_libs/src/RAM\ramtest_march_c.c **** 			"Cast between a pointer to volatile object and an integral type"
 292:C:/Workspace/FW_Inertia/branch_indesit/HAL/RN_RX200/IEC60335_B_libs/src/RAM\ramtest_march_c.c **** 			This is recognised as unavoidable for certain embedded applications.*/
 293:C:/Workspace/FW_Inertia/branch_indesit/HAL/RN_RX200/IEC60335_B_libs/src/RAM\ramtest_march_c.c **** 			MemoryCopy((TYPE_ACCESS_t*)pui_RAMSafe,
 294:C:/Workspace/FW_Inertia/branch_indesit/HAL/RN_RX200/IEC60335_B_libs/src/RAM\ramtest_march_c.c **** 			 			(TYPE_ACCESS_t*)ui32_StartAddr,
 295:C:/Workspace/FW_Inertia/branch_indesit/HAL/RN_RX200/IEC60335_B_libs/src/RAM\ramtest_march_c.c **** 						 (TYPE_WORDS_t)ui32_NumBlocks);
 296:C:/Workspace/FW_Inertia/branch_indesit/HAL/RN_RX200/IEC60335_B_libs/src/RAM\ramtest_march_c.c **** 		}
 297:C:/Workspace/FW_Inertia/branch_indesit/HAL/RN_RX200/IEC60335_B_libs/src/RAM\ramtest_march_c.c **** 	}
 298:C:/Workspace/FW_Inertia/branch_indesit/HAL/RN_RX200/IEC60335_B_libs/src/RAM\ramtest_march_c.c **** 	
 299:C:/Workspace/FW_Inertia/branch_indesit/HAL/RN_RX200/IEC60335_B_libs/src/RAM\ramtest_march_c.c **** 	return b_Result;
 300:C:/Workspace/FW_Inertia/branch_indesit/HAL/RN_RX200/IEC60335_B_libs/src/RAM\ramtest_march_c.c **** }
 301:C:/Workspace/FW_Inertia/branch_indesit/HAL/RN_RX200/IEC60335_B_libs/src/RAM\ramtest_march_c.c **** 
 302:C:/Workspace/FW_Inertia/branch_indesit/HAL/RN_RX200/IEC60335_B_libs/src/RAM\ramtest_march_c.c **** /***********************************************************************************
 303:C:/Workspace/FW_Inertia/branch_indesit/HAL/RN_RX200/IEC60335_B_libs/src/RAM\ramtest_march_c.c **** Function Name : Start_March_C
 304:C:/Workspace/FW_Inertia/branch_indesit/HAL/RN_RX200/IEC60335_B_libs/src/RAM\ramtest_march_c.c **** Description   :	Perform the actual March C test.
 305:C:/Workspace/FW_Inertia/branch_indesit/HAL/RN_RX200/IEC60335_B_libs/src/RAM\ramtest_march_c.c **** 				The memory contents of the test area will be lost.
 306:C:/Workspace/FW_Inertia/branch_indesit/HAL/RN_RX200/IEC60335_B_libs/src/RAM\ramtest_march_c.c **** 				 
 307:C:/Workspace/FW_Inertia/branch_indesit/HAL/RN_RX200/IEC60335_B_libs/src/RAM\ramtest_march_c.c **** Parameters    : pui_RAM - pointer to start of RAM to test.
 308:C:/Workspace/FW_Inertia/branch_indesit/HAL/RN_RX200/IEC60335_B_libs/src/RAM\ramtest_march_c.c **** 				ui_NumBlocks - number of words to test
 309:C:/Workspace/FW_Inertia/branch_indesit/HAL/RN_RX200/IEC60335_B_libs/src/RAM\ramtest_march_c.c **** 				
 310:C:/Workspace/FW_Inertia/branch_indesit/HAL/RN_RX200/IEC60335_B_libs/src/RAM\ramtest_march_c.c **** Return Value  : TRUE = TEST Passed. FALSE = TEST Failed.
 311:C:/Workspace/FW_Inertia/branch_indesit/HAL/RN_RX200/IEC60335_B_libs/src/RAM\ramtest_march_c.c **** ***********************************************************************************/
 312:C:/Workspace/FW_Inertia/branch_indesit/HAL/RN_RX200/IEC60335_B_libs/src/RAM\ramtest_march_c.c **** static bool_t Start_March_C(volatile TYPE_ACCESS_t* pui_RAM, 
 313:C:/Workspace/FW_Inertia/branch_indesit/HAL/RN_RX200/IEC60335_B_libs/src/RAM\ramtest_march_c.c **** 									const TYPE_WORDS_t ui_NumBlocks)
 314:C:/Workspace/FW_Inertia/branch_indesit/HAL/RN_RX200/IEC60335_B_libs/src/RAM\ramtest_march_c.c **** {
 315:C:/Workspace/FW_Inertia/branch_indesit/HAL/RN_RX200/IEC60335_B_libs/src/RAM\ramtest_march_c.c **** 	bool_t b_Result = TRUE;
 316:C:/Workspace/FW_Inertia/branch_indesit/HAL/RN_RX200/IEC60335_B_libs/src/RAM\ramtest_march_c.c **** 	TYPE_WORDS_t ui_BlockIndex;
 317:C:/Workspace/FW_Inertia/branch_indesit/HAL/RN_RX200/IEC60335_B_libs/src/RAM\ramtest_march_c.c **** 
 318:C:/Workspace/FW_Inertia/branch_indesit/HAL/RN_RX200/IEC60335_B_libs/src/RAM\ramtest_march_c.c **** 	/* 1) Write all zeros */
 319:C:/Workspace/FW_Inertia/branch_indesit/HAL/RN_RX200/IEC60335_B_libs/src/RAM\ramtest_march_c.c **** 	for(ui_BlockIndex = 0; ui_BlockIndex < ui_NumBlocks; ui_BlockIndex++)
 320:C:/Workspace/FW_Inertia/branch_indesit/HAL/RN_RX200/IEC60335_B_libs/src/RAM\ramtest_march_c.c **** 	{
 321:C:/Workspace/FW_Inertia/branch_indesit/HAL/RN_RX200/IEC60335_B_libs/src/RAM\ramtest_march_c.c **** 		pui_RAM[ui_BlockIndex] = 0;
 322:C:/Workspace/FW_Inertia/branch_indesit/HAL/RN_RX200/IEC60335_B_libs/src/RAM\ramtest_march_c.c **** 	}
 323:C:/Workspace/FW_Inertia/branch_indesit/HAL/RN_RX200/IEC60335_B_libs/src/RAM\ramtest_march_c.c **** 	
 324:C:/Workspace/FW_Inertia/branch_indesit/HAL/RN_RX200/IEC60335_B_libs/src/RAM\ramtest_march_c.c **** 	/*March C.
 325:C:/Workspace/FW_Inertia/branch_indesit/HAL/RN_RX200/IEC60335_B_libs/src/RAM\ramtest_march_c.c **** 	2) Starting at lowest address and incrementing up,
 326:C:/Workspace/FW_Inertia/branch_indesit/HAL/RN_RX200/IEC60335_B_libs/src/RAM\ramtest_march_c.c **** 	check read 0 then write 1 */
 327:C:/Workspace/FW_Inertia/branch_indesit/HAL/RN_RX200/IEC60335_B_libs/src/RAM\ramtest_march_c.c **** 	if(FALSE == March_C_increment(pui_RAM, ui_NumBlocks, 0, 1))
 328:C:/Workspace/FW_Inertia/branch_indesit/HAL/RN_RX200/IEC60335_B_libs/src/RAM\ramtest_march_c.c **** 	{
 329:C:/Workspace/FW_Inertia/branch_indesit/HAL/RN_RX200/IEC60335_B_libs/src/RAM\ramtest_march_c.c **** 		b_Result = FALSE;
 330:C:/Workspace/FW_Inertia/branch_indesit/HAL/RN_RX200/IEC60335_B_libs/src/RAM\ramtest_march_c.c **** 	}
 331:C:/Workspace/FW_Inertia/branch_indesit/HAL/RN_RX200/IEC60335_B_libs/src/RAM\ramtest_march_c.c **** 		
 332:C:/Workspace/FW_Inertia/branch_indesit/HAL/RN_RX200/IEC60335_B_libs/src/RAM\ramtest_march_c.c **** 	/*March C.
 333:C:/Workspace/FW_Inertia/branch_indesit/HAL/RN_RX200/IEC60335_B_libs/src/RAM\ramtest_march_c.c **** 	3) Starting at lowest address and incrementing up,
 334:C:/Workspace/FW_Inertia/branch_indesit/HAL/RN_RX200/IEC60335_B_libs/src/RAM\ramtest_march_c.c **** 	check read 1 then write 0 */
 335:C:/Workspace/FW_Inertia/branch_indesit/HAL/RN_RX200/IEC60335_B_libs/src/RAM\ramtest_march_c.c **** 	else if(FALSE == March_C_increment(pui_RAM, ui_NumBlocks, 1, 0))
 336:C:/Workspace/FW_Inertia/branch_indesit/HAL/RN_RX200/IEC60335_B_libs/src/RAM\ramtest_march_c.c **** 	{
 337:C:/Workspace/FW_Inertia/branch_indesit/HAL/RN_RX200/IEC60335_B_libs/src/RAM\ramtest_march_c.c **** 		b_Result = FALSE;
 338:C:/Workspace/FW_Inertia/branch_indesit/HAL/RN_RX200/IEC60335_B_libs/src/RAM\ramtest_march_c.c **** 	}
 339:C:/Workspace/FW_Inertia/branch_indesit/HAL/RN_RX200/IEC60335_B_libs/src/RAM\ramtest_march_c.c **** 	
 340:C:/Workspace/FW_Inertia/branch_indesit/HAL/RN_RX200/IEC60335_B_libs/src/RAM\ramtest_march_c.c **** 	/*March C.
 341:C:/Workspace/FW_Inertia/branch_indesit/HAL/RN_RX200/IEC60335_B_libs/src/RAM\ramtest_march_c.c **** 	4) Starting at highest address and decrementing down,
 342:C:/Workspace/FW_Inertia/branch_indesit/HAL/RN_RX200/IEC60335_B_libs/src/RAM\ramtest_march_c.c **** 	check read 0 then write 1 */
 343:C:/Workspace/FW_Inertia/branch_indesit/HAL/RN_RX200/IEC60335_B_libs/src/RAM\ramtest_march_c.c **** 	else if(FALSE == March_C_decrement(pui_RAM, ui_NumBlocks, 0, 1))
 344:C:/Workspace/FW_Inertia/branch_indesit/HAL/RN_RX200/IEC60335_B_libs/src/RAM\ramtest_march_c.c **** 	{
 345:C:/Workspace/FW_Inertia/branch_indesit/HAL/RN_RX200/IEC60335_B_libs/src/RAM\ramtest_march_c.c **** 		b_Result = FALSE;
 346:C:/Workspace/FW_Inertia/branch_indesit/HAL/RN_RX200/IEC60335_B_libs/src/RAM\ramtest_march_c.c **** 	}
 347:C:/Workspace/FW_Inertia/branch_indesit/HAL/RN_RX200/IEC60335_B_libs/src/RAM\ramtest_march_c.c **** 	
 348:C:/Workspace/FW_Inertia/branch_indesit/HAL/RN_RX200/IEC60335_B_libs/src/RAM\ramtest_march_c.c **** 	/*March C.
 349:C:/Workspace/FW_Inertia/branch_indesit/HAL/RN_RX200/IEC60335_B_libs/src/RAM\ramtest_march_c.c **** 	5) Starting at highest address and decrementing down,
 350:C:/Workspace/FW_Inertia/branch_indesit/HAL/RN_RX200/IEC60335_B_libs/src/RAM\ramtest_march_c.c **** 	check read 1 then write 0 */
 351:C:/Workspace/FW_Inertia/branch_indesit/HAL/RN_RX200/IEC60335_B_libs/src/RAM\ramtest_march_c.c **** 	else if(FALSE == March_C_decrement(pui_RAM, ui_NumBlocks, 1, 0))
 352:C:/Workspace/FW_Inertia/branch_indesit/HAL/RN_RX200/IEC60335_B_libs/src/RAM\ramtest_march_c.c **** 	{
 353:C:/Workspace/FW_Inertia/branch_indesit/HAL/RN_RX200/IEC60335_B_libs/src/RAM\ramtest_march_c.c **** 		b_Result = FALSE;
 354:C:/Workspace/FW_Inertia/branch_indesit/HAL/RN_RX200/IEC60335_B_libs/src/RAM\ramtest_march_c.c **** 	}
 355:C:/Workspace/FW_Inertia/branch_indesit/HAL/RN_RX200/IEC60335_B_libs/src/RAM\ramtest_march_c.c **** 	else
 356:C:/Workspace/FW_Inertia/branch_indesit/HAL/RN_RX200/IEC60335_B_libs/src/RAM\ramtest_march_c.c **** 	{
 357:C:/Workspace/FW_Inertia/branch_indesit/HAL/RN_RX200/IEC60335_B_libs/src/RAM\ramtest_march_c.c **** 		/*March C.
 358:C:/Workspace/FW_Inertia/branch_indesit/HAL/RN_RX200/IEC60335_B_libs/src/RAM\ramtest_march_c.c **** 		6) Check read all zeros */
 359:C:/Workspace/FW_Inertia/branch_indesit/HAL/RN_RX200/IEC60335_B_libs/src/RAM\ramtest_march_c.c **** 		for(ui_BlockIndex = 0; ui_BlockIndex < ui_NumBlocks; ui_BlockIndex++)
 360:C:/Workspace/FW_Inertia/branch_indesit/HAL/RN_RX200/IEC60335_B_libs/src/RAM\ramtest_march_c.c **** 		{
 361:C:/Workspace/FW_Inertia/branch_indesit/HAL/RN_RX200/IEC60335_B_libs/src/RAM\ramtest_march_c.c **** 			if(pui_RAM[ui_BlockIndex] != 0)
 362:C:/Workspace/FW_Inertia/branch_indesit/HAL/RN_RX200/IEC60335_B_libs/src/RAM\ramtest_march_c.c **** 			{
 363:C:/Workspace/FW_Inertia/branch_indesit/HAL/RN_RX200/IEC60335_B_libs/src/RAM\ramtest_march_c.c **** 				b_Result = FALSE;
 364:C:/Workspace/FW_Inertia/branch_indesit/HAL/RN_RX200/IEC60335_B_libs/src/RAM\ramtest_march_c.c **** 				break;
 365:C:/Workspace/FW_Inertia/branch_indesit/HAL/RN_RX200/IEC60335_B_libs/src/RAM\ramtest_march_c.c **** 			}
 366:C:/Workspace/FW_Inertia/branch_indesit/HAL/RN_RX200/IEC60335_B_libs/src/RAM\ramtest_march_c.c **** 		}
 367:C:/Workspace/FW_Inertia/branch_indesit/HAL/RN_RX200/IEC60335_B_libs/src/RAM\ramtest_march_c.c **** 	}
 368:C:/Workspace/FW_Inertia/branch_indesit/HAL/RN_RX200/IEC60335_B_libs/src/RAM\ramtest_march_c.c **** 	
 369:C:/Workspace/FW_Inertia/branch_indesit/HAL/RN_RX200/IEC60335_B_libs/src/RAM\ramtest_march_c.c **** 	return b_Result;
 370:C:/Workspace/FW_Inertia/branch_indesit/HAL/RN_RX200/IEC60335_B_libs/src/RAM\ramtest_march_c.c **** }
 371:C:/Workspace/FW_Inertia/branch_indesit/HAL/RN_RX200/IEC60335_B_libs/src/RAM\ramtest_march_c.c **** 
 372:C:/Workspace/FW_Inertia/branch_indesit/HAL/RN_RX200/IEC60335_B_libs/src/RAM\ramtest_march_c.c **** 
 373:C:/Workspace/FW_Inertia/branch_indesit/HAL/RN_RX200/IEC60335_B_libs/src/RAM\ramtest_march_c.c **** /***********************************************************************************
 374:C:/Workspace/FW_Inertia/branch_indesit/HAL/RN_RX200/IEC60335_B_libs/src/RAM\ramtest_march_c.c **** Function Name : March_C_increment
 375:C:/Workspace/FW_Inertia/branch_indesit/HAL/RN_RX200/IEC60335_B_libs/src/RAM\ramtest_march_c.c **** Description   :	Starting at lowest address and incrementing up, a Bit at a time,
 376:C:/Workspace/FW_Inertia/branch_indesit/HAL/RN_RX200/IEC60335_B_libs/src/RAM\ramtest_march_c.c **** 				check Bit Value equalls ValueRead,
 377:C:/Workspace/FW_Inertia/branch_indesit/HAL/RN_RX200/IEC60335_B_libs/src/RAM\ramtest_march_c.c **** 				then write ValueWrite to it.
 378:C:/Workspace/FW_Inertia/branch_indesit/HAL/RN_RX200/IEC60335_B_libs/src/RAM\ramtest_march_c.c **** 				 
 379:C:/Workspace/FW_Inertia/branch_indesit/HAL/RN_RX200/IEC60335_B_libs/src/RAM\ramtest_march_c.c **** Parameters    : pui_RAM - pointer to start of RAM to test.
 380:C:/Workspace/FW_Inertia/branch_indesit/HAL/RN_RX200/IEC60335_B_libs/src/RAM\ramtest_march_c.c **** 				ui_NumBlocks - number of words to test.
 381:C:/Workspace/FW_Inertia/branch_indesit/HAL/RN_RX200/IEC60335_B_libs/src/RAM\ramtest_march_c.c **** 				ui_ValueRead - expected Value to read.
 382:C:/Workspace/FW_Inertia/branch_indesit/HAL/RN_RX200/IEC60335_B_libs/src/RAM\ramtest_march_c.c **** 				ui_ValueWrite - value to write.
 383:C:/Workspace/FW_Inertia/branch_indesit/HAL/RN_RX200/IEC60335_B_libs/src/RAM\ramtest_march_c.c **** 				
 384:C:/Workspace/FW_Inertia/branch_indesit/HAL/RN_RX200/IEC60335_B_libs/src/RAM\ramtest_march_c.c **** Return Value  : TRUE = TEST Passed. FALSE = TEST Failed.
 385:C:/Workspace/FW_Inertia/branch_indesit/HAL/RN_RX200/IEC60335_B_libs/src/RAM\ramtest_march_c.c **** ***********************************************************************************/
 386:C:/Workspace/FW_Inertia/branch_indesit/HAL/RN_RX200/IEC60335_B_libs/src/RAM\ramtest_march_c.c **** static bool_t March_C_increment(volatile TYPE_ACCESS_t* pui_RAM, 
 387:C:/Workspace/FW_Inertia/branch_indesit/HAL/RN_RX200/IEC60335_B_libs/src/RAM\ramtest_march_c.c **** 										const TYPE_WORDS_t ui_NumBlocks,
 388:C:/Workspace/FW_Inertia/branch_indesit/HAL/RN_RX200/IEC60335_B_libs/src/RAM\ramtest_march_c.c **** 										const uint8_t ui8_ValueRead,
 389:C:/Workspace/FW_Inertia/branch_indesit/HAL/RN_RX200/IEC60335_B_libs/src/RAM\ramtest_march_c.c **** 										const uint8_t ui8_ValueWrite)
 390:C:/Workspace/FW_Inertia/branch_indesit/HAL/RN_RX200/IEC60335_B_libs/src/RAM\ramtest_march_c.c **** {	
 391:C:/Workspace/FW_Inertia/branch_indesit/HAL/RN_RX200/IEC60335_B_libs/src/RAM\ramtest_march_c.c **** 	bool_t b_Result = TRUE;
 392:C:/Workspace/FW_Inertia/branch_indesit/HAL/RN_RX200/IEC60335_B_libs/src/RAM\ramtest_march_c.c **** 	TYPE_ACCESS_t ui_Value;
 393:C:/Workspace/FW_Inertia/branch_indesit/HAL/RN_RX200/IEC60335_B_libs/src/RAM\ramtest_march_c.c **** 	TYPE_WORDS_t ui_BlockIndex;
 394:C:/Workspace/FW_Inertia/branch_indesit/HAL/RN_RX200/IEC60335_B_libs/src/RAM\ramtest_march_c.c **** 	uint8_t ui8_Bit;
 395:C:/Workspace/FW_Inertia/branch_indesit/HAL/RN_RX200/IEC60335_B_libs/src/RAM\ramtest_march_c.c **** 	TYPE_ACCESS_t ui_Bit_Mask;
 396:C:/Workspace/FW_Inertia/branch_indesit/HAL/RN_RX200/IEC60335_B_libs/src/RAM\ramtest_march_c.c **** 	
 397:C:/Workspace/FW_Inertia/branch_indesit/HAL/RN_RX200/IEC60335_B_libs/src/RAM\ramtest_march_c.c **** 	/*For each word*/	
 398:C:/Workspace/FW_Inertia/branch_indesit/HAL/RN_RX200/IEC60335_B_libs/src/RAM\ramtest_march_c.c **** 	for(ui_BlockIndex = 0; ui_BlockIndex < ui_NumBlocks; ui_BlockIndex++)
 399:C:/Workspace/FW_Inertia/branch_indesit/HAL/RN_RX200/IEC60335_B_libs/src/RAM\ramtest_march_c.c **** 	{
 400:C:/Workspace/FW_Inertia/branch_indesit/HAL/RN_RX200/IEC60335_B_libs/src/RAM\ramtest_march_c.c **** 		/*Start mask at Bit 0 */
 401:C:/Workspace/FW_Inertia/branch_indesit/HAL/RN_RX200/IEC60335_B_libs/src/RAM\ramtest_march_c.c **** 		ui_Bit_Mask = (TYPE_ACCESS_t)0x1UL;
 402:C:/Workspace/FW_Inertia/branch_indesit/HAL/RN_RX200/IEC60335_B_libs/src/RAM\ramtest_march_c.c **** 		
 403:C:/Workspace/FW_Inertia/branch_indesit/HAL/RN_RX200/IEC60335_B_libs/src/RAM\ramtest_march_c.c **** 		/*For each Bit within this block*/
 404:C:/Workspace/FW_Inertia/branch_indesit/HAL/RN_RX200/IEC60335_B_libs/src/RAM\ramtest_march_c.c **** 		for(ui8_Bit = 0; ui8_Bit < BITS_PER_WORD; ui8_Bit++)
 405:C:/Workspace/FW_Inertia/branch_indesit/HAL/RN_RX200/IEC60335_B_libs/src/RAM\ramtest_march_c.c **** 		{
 406:C:/Workspace/FW_Inertia/branch_indesit/HAL/RN_RX200/IEC60335_B_libs/src/RAM\ramtest_march_c.c **** 			/*** Read RAM ***/
 407:C:/Workspace/FW_Inertia/branch_indesit/HAL/RN_RX200/IEC60335_B_libs/src/RAM\ramtest_march_c.c **** 			ui_Value = pui_RAM[ui_BlockIndex];
 408:C:/Workspace/FW_Inertia/branch_indesit/HAL/RN_RX200/IEC60335_B_libs/src/RAM\ramtest_march_c.c **** 			
 409:C:/Workspace/FW_Inertia/branch_indesit/HAL/RN_RX200/IEC60335_B_libs/src/RAM\ramtest_march_c.c **** 			/*Check Bit is valueRead*/
 410:C:/Workspace/FW_Inertia/branch_indesit/HAL/RN_RX200/IEC60335_B_libs/src/RAM\ramtest_march_c.c **** 			if(ui8_ValueRead == 0)
 411:C:/Workspace/FW_Inertia/branch_indesit/HAL/RN_RX200/IEC60335_B_libs/src/RAM\ramtest_march_c.c **** 			{
 412:C:/Workspace/FW_Inertia/branch_indesit/HAL/RN_RX200/IEC60335_B_libs/src/RAM\ramtest_march_c.c **** 				if((ui_Value & ui_Bit_Mask) != 0)
 413:C:/Workspace/FW_Inertia/branch_indesit/HAL/RN_RX200/IEC60335_B_libs/src/RAM\ramtest_march_c.c **** 				{
 414:C:/Workspace/FW_Inertia/branch_indesit/HAL/RN_RX200/IEC60335_B_libs/src/RAM\ramtest_march_c.c **** 					/*Bit Value is not 0 as expected*/
 415:C:/Workspace/FW_Inertia/branch_indesit/HAL/RN_RX200/IEC60335_B_libs/src/RAM\ramtest_march_c.c **** 					b_Result = FALSE;
 416:C:/Workspace/FW_Inertia/branch_indesit/HAL/RN_RX200/IEC60335_B_libs/src/RAM\ramtest_march_c.c **** 				}
 417:C:/Workspace/FW_Inertia/branch_indesit/HAL/RN_RX200/IEC60335_B_libs/src/RAM\ramtest_march_c.c **** 			}
 418:C:/Workspace/FW_Inertia/branch_indesit/HAL/RN_RX200/IEC60335_B_libs/src/RAM\ramtest_march_c.c **** 			else
 419:C:/Workspace/FW_Inertia/branch_indesit/HAL/RN_RX200/IEC60335_B_libs/src/RAM\ramtest_march_c.c **** 			{
 420:C:/Workspace/FW_Inertia/branch_indesit/HAL/RN_RX200/IEC60335_B_libs/src/RAM\ramtest_march_c.c **** 				if((ui_Value & ui_Bit_Mask) == 0)
 421:C:/Workspace/FW_Inertia/branch_indesit/HAL/RN_RX200/IEC60335_B_libs/src/RAM\ramtest_march_c.c **** 				{
 422:C:/Workspace/FW_Inertia/branch_indesit/HAL/RN_RX200/IEC60335_B_libs/src/RAM\ramtest_march_c.c **** 					/*Bit Value is not 1 as expected*/
 423:C:/Workspace/FW_Inertia/branch_indesit/HAL/RN_RX200/IEC60335_B_libs/src/RAM\ramtest_march_c.c **** 					b_Result = FALSE;
 424:C:/Workspace/FW_Inertia/branch_indesit/HAL/RN_RX200/IEC60335_B_libs/src/RAM\ramtest_march_c.c **** 				}
 425:C:/Workspace/FW_Inertia/branch_indesit/HAL/RN_RX200/IEC60335_B_libs/src/RAM\ramtest_march_c.c **** 			}
 426:C:/Workspace/FW_Inertia/branch_indesit/HAL/RN_RX200/IEC60335_B_libs/src/RAM\ramtest_march_c.c **** 			
 427:C:/Workspace/FW_Inertia/branch_indesit/HAL/RN_RX200/IEC60335_B_libs/src/RAM\ramtest_march_c.c **** 			/*** Write RAM ***/
 428:C:/Workspace/FW_Inertia/branch_indesit/HAL/RN_RX200/IEC60335_B_libs/src/RAM\ramtest_march_c.c **** 			/*Set Bit to valueWrite*/
 429:C:/Workspace/FW_Inertia/branch_indesit/HAL/RN_RX200/IEC60335_B_libs/src/RAM\ramtest_march_c.c **** 			if(ui8_ValueWrite == 0)
 430:C:/Workspace/FW_Inertia/branch_indesit/HAL/RN_RX200/IEC60335_B_libs/src/RAM\ramtest_march_c.c **** 			{
 431:C:/Workspace/FW_Inertia/branch_indesit/HAL/RN_RX200/IEC60335_B_libs/src/RAM\ramtest_march_c.c **** 				/*Clear Bit*/
 432:C:/Workspace/FW_Inertia/branch_indesit/HAL/RN_RX200/IEC60335_B_libs/src/RAM\ramtest_march_c.c **** 				/*NOTE: This causes MISRA message 0290 -
 433:C:/Workspace/FW_Inertia/branch_indesit/HAL/RN_RX200/IEC60335_B_libs/src/RAM\ramtest_march_c.c **** 				An expression of signed integer type type is being converted to an unsigned type.
 434:C:/Workspace/FW_Inertia/branch_indesit/HAL/RN_RX200/IEC60335_B_libs/src/RAM\ramtest_march_c.c **** 				This has been examined and is the desired behaviour.*/
 435:C:/Workspace/FW_Inertia/branch_indesit/HAL/RN_RX200/IEC60335_B_libs/src/RAM\ramtest_march_c.c **** 				ui_Value &= (TYPE_ACCESS_t)~ui_Bit_Mask;
 436:C:/Workspace/FW_Inertia/branch_indesit/HAL/RN_RX200/IEC60335_B_libs/src/RAM\ramtest_march_c.c **** 			}
 437:C:/Workspace/FW_Inertia/branch_indesit/HAL/RN_RX200/IEC60335_B_libs/src/RAM\ramtest_march_c.c **** 			else
 438:C:/Workspace/FW_Inertia/branch_indesit/HAL/RN_RX200/IEC60335_B_libs/src/RAM\ramtest_march_c.c **** 			{
 439:C:/Workspace/FW_Inertia/branch_indesit/HAL/RN_RX200/IEC60335_B_libs/src/RAM\ramtest_march_c.c **** 				/*Set Bit*/
 440:C:/Workspace/FW_Inertia/branch_indesit/HAL/RN_RX200/IEC60335_B_libs/src/RAM\ramtest_march_c.c **** 				ui_Value |= ui_Bit_Mask;
 441:C:/Workspace/FW_Inertia/branch_indesit/HAL/RN_RX200/IEC60335_B_libs/src/RAM\ramtest_march_c.c **** 			}
 442:C:/Workspace/FW_Inertia/branch_indesit/HAL/RN_RX200/IEC60335_B_libs/src/RAM\ramtest_march_c.c **** 			/*Write the Value to the RAM*/
 443:C:/Workspace/FW_Inertia/branch_indesit/HAL/RN_RX200/IEC60335_B_libs/src/RAM\ramtest_march_c.c **** 			pui_RAM[ui_BlockIndex] = ui_Value;
 444:C:/Workspace/FW_Inertia/branch_indesit/HAL/RN_RX200/IEC60335_B_libs/src/RAM\ramtest_march_c.c **** 			
 445:C:/Workspace/FW_Inertia/branch_indesit/HAL/RN_RX200/IEC60335_B_libs/src/RAM\ramtest_march_c.c **** 	
 446:C:/Workspace/FW_Inertia/branch_indesit/HAL/RN_RX200/IEC60335_B_libs/src/RAM\ramtest_march_c.c **** 			/*Make ui8_Bit mask for next iteration*/
 447:C:/Workspace/FW_Inertia/branch_indesit/HAL/RN_RX200/IEC60335_B_libs/src/RAM\ramtest_march_c.c **** 			ui_Bit_Mask <<= 1;
 448:C:/Workspace/FW_Inertia/branch_indesit/HAL/RN_RX200/IEC60335_B_libs/src/RAM\ramtest_march_c.c **** 		}
 449:C:/Workspace/FW_Inertia/branch_indesit/HAL/RN_RX200/IEC60335_B_libs/src/RAM\ramtest_march_c.c **** 		
 450:C:/Workspace/FW_Inertia/branch_indesit/HAL/RN_RX200/IEC60335_B_libs/src/RAM\ramtest_march_c.c **** 		/*If test has already failed then don't continue*/
 451:C:/Workspace/FW_Inertia/branch_indesit/HAL/RN_RX200/IEC60335_B_libs/src/RAM\ramtest_march_c.c **** 		if(FALSE == b_Result)
 452:C:/Workspace/FW_Inertia/branch_indesit/HAL/RN_RX200/IEC60335_B_libs/src/RAM\ramtest_march_c.c **** 		{
 453:C:/Workspace/FW_Inertia/branch_indesit/HAL/RN_RX200/IEC60335_B_libs/src/RAM\ramtest_march_c.c **** 			break;
 454:C:/Workspace/FW_Inertia/branch_indesit/HAL/RN_RX200/IEC60335_B_libs/src/RAM\ramtest_march_c.c **** 		}		
 455:C:/Workspace/FW_Inertia/branch_indesit/HAL/RN_RX200/IEC60335_B_libs/src/RAM\ramtest_march_c.c **** 	}
 456:C:/Workspace/FW_Inertia/branch_indesit/HAL/RN_RX200/IEC60335_B_libs/src/RAM\ramtest_march_c.c **** 	
 457:C:/Workspace/FW_Inertia/branch_indesit/HAL/RN_RX200/IEC60335_B_libs/src/RAM\ramtest_march_c.c **** 	return b_Result;
 458:C:/Workspace/FW_Inertia/branch_indesit/HAL/RN_RX200/IEC60335_B_libs/src/RAM\ramtest_march_c.c **** }
 459:C:/Workspace/FW_Inertia/branch_indesit/HAL/RN_RX200/IEC60335_B_libs/src/RAM\ramtest_march_c.c **** 
 460:C:/Workspace/FW_Inertia/branch_indesit/HAL/RN_RX200/IEC60335_B_libs/src/RAM\ramtest_march_c.c **** /***********************************************************************************
 461:C:/Workspace/FW_Inertia/branch_indesit/HAL/RN_RX200/IEC60335_B_libs/src/RAM\ramtest_march_c.c **** Function Name : March_C_decrement
 462:C:/Workspace/FW_Inertia/branch_indesit/HAL/RN_RX200/IEC60335_B_libs/src/RAM\ramtest_march_c.c **** Description   :	Starting at highest address and decrementing down, a Bit at a time,
 463:C:/Workspace/FW_Inertia/branch_indesit/HAL/RN_RX200/IEC60335_B_libs/src/RAM\ramtest_march_c.c **** 				check Bit Value equalls ValueRead
 464:C:/Workspace/FW_Inertia/branch_indesit/HAL/RN_RX200/IEC60335_B_libs/src/RAM\ramtest_march_c.c **** 				then write ValueWrite to it.
 465:C:/Workspace/FW_Inertia/branch_indesit/HAL/RN_RX200/IEC60335_B_libs/src/RAM\ramtest_march_c.c **** 				 
 466:C:/Workspace/FW_Inertia/branch_indesit/HAL/RN_RX200/IEC60335_B_libs/src/RAM\ramtest_march_c.c **** Parameters    : pui_RAM - pointer to start(lowest address) of RAM to test.
 467:C:/Workspace/FW_Inertia/branch_indesit/HAL/RN_RX200/IEC60335_B_libs/src/RAM\ramtest_march_c.c **** 				ui_NumBlocks - number of words to test
 468:C:/Workspace/FW_Inertia/branch_indesit/HAL/RN_RX200/IEC60335_B_libs/src/RAM\ramtest_march_c.c **** 				ui8_ValueRead - expected Value to read (0 or 1).
 469:C:/Workspace/FW_Inertia/branch_indesit/HAL/RN_RX200/IEC60335_B_libs/src/RAM\ramtest_march_c.c **** 				ui8_ValueWrite - value to write (0 or 1).
 470:C:/Workspace/FW_Inertia/branch_indesit/HAL/RN_RX200/IEC60335_B_libs/src/RAM\ramtest_march_c.c **** 				
 471:C:/Workspace/FW_Inertia/branch_indesit/HAL/RN_RX200/IEC60335_B_libs/src/RAM\ramtest_march_c.c **** Return Value  : TRUE = TEST Passed. FALSE = TEST Failed.
 472:C:/Workspace/FW_Inertia/branch_indesit/HAL/RN_RX200/IEC60335_B_libs/src/RAM\ramtest_march_c.c **** ***********************************************************************************/
 473:C:/Workspace/FW_Inertia/branch_indesit/HAL/RN_RX200/IEC60335_B_libs/src/RAM\ramtest_march_c.c **** static bool_t March_C_decrement(volatile TYPE_ACCESS_t* pui_RAM,
 474:C:/Workspace/FW_Inertia/branch_indesit/HAL/RN_RX200/IEC60335_B_libs/src/RAM\ramtest_march_c.c **** 										const TYPE_WORDS_t ui_NumBlocks,
 475:C:/Workspace/FW_Inertia/branch_indesit/HAL/RN_RX200/IEC60335_B_libs/src/RAM\ramtest_march_c.c **** 										const uint8_t ui8_ValueRead,
 476:C:/Workspace/FW_Inertia/branch_indesit/HAL/RN_RX200/IEC60335_B_libs/src/RAM\ramtest_march_c.c **** 										const uint8_t ui8_ValueWrite)
 477:C:/Workspace/FW_Inertia/branch_indesit/HAL/RN_RX200/IEC60335_B_libs/src/RAM\ramtest_march_c.c **** {
 478:C:/Workspace/FW_Inertia/branch_indesit/HAL/RN_RX200/IEC60335_B_libs/src/RAM\ramtest_march_c.c **** 	
 479:C:/Workspace/FW_Inertia/branch_indesit/HAL/RN_RX200/IEC60335_B_libs/src/RAM\ramtest_march_c.c **** 	bool_t b_Result = TRUE;
 480:C:/Workspace/FW_Inertia/branch_indesit/HAL/RN_RX200/IEC60335_B_libs/src/RAM\ramtest_march_c.c **** 	TYPE_ACCESS_t ui_Value;
 481:C:/Workspace/FW_Inertia/branch_indesit/HAL/RN_RX200/IEC60335_B_libs/src/RAM\ramtest_march_c.c **** 	TYPE_WORDS_t ui_BlockIndex;	
 482:C:/Workspace/FW_Inertia/branch_indesit/HAL/RN_RX200/IEC60335_B_libs/src/RAM\ramtest_march_c.c **** 	TYPE_ACCESS_t ui_Bit_Mask;	
 483:C:/Workspace/FW_Inertia/branch_indesit/HAL/RN_RX200/IEC60335_B_libs/src/RAM\ramtest_march_c.c **** 	TYPE_WORDS_t ui_BlockLoop;
 484:C:/Workspace/FW_Inertia/branch_indesit/HAL/RN_RX200/IEC60335_B_libs/src/RAM\ramtest_march_c.c **** 	uint8_t ui8_Bit_loop;
 485:C:/Workspace/FW_Inertia/branch_indesit/HAL/RN_RX200/IEC60335_B_libs/src/RAM\ramtest_march_c.c **** 	
 486:C:/Workspace/FW_Inertia/branch_indesit/HAL/RN_RX200/IEC60335_B_libs/src/RAM\ramtest_march_c.c **** 	/*For each word*/	
 487:C:/Workspace/FW_Inertia/branch_indesit/HAL/RN_RX200/IEC60335_B_libs/src/RAM\ramtest_march_c.c **** 	for(ui_BlockLoop = ui_NumBlocks; ui_BlockLoop != 0; ui_BlockLoop--)
 488:C:/Workspace/FW_Inertia/branch_indesit/HAL/RN_RX200/IEC60335_B_libs/src/RAM\ramtest_march_c.c **** 	{
 489:C:/Workspace/FW_Inertia/branch_indesit/HAL/RN_RX200/IEC60335_B_libs/src/RAM\ramtest_march_c.c **** 		ui_BlockIndex = ui_BlockLoop-1;
 490:C:/Workspace/FW_Inertia/branch_indesit/HAL/RN_RX200/IEC60335_B_libs/src/RAM\ramtest_march_c.c **** 		
 491:C:/Workspace/FW_Inertia/branch_indesit/HAL/RN_RX200/IEC60335_B_libs/src/RAM\ramtest_march_c.c **** 		/*Start mask at most significant Bit in block*/
 492:C:/Workspace/FW_Inertia/branch_indesit/HAL/RN_RX200/IEC60335_B_libs/src/RAM\ramtest_march_c.c **** 		ui_Bit_Mask = (TYPE_ACCESS_t)(1UL << (BITS_PER_WORD-1));
 493:C:/Workspace/FW_Inertia/branch_indesit/HAL/RN_RX200/IEC60335_B_libs/src/RAM\ramtest_march_c.c **** 		 
 494:C:/Workspace/FW_Inertia/branch_indesit/HAL/RN_RX200/IEC60335_B_libs/src/RAM\ramtest_march_c.c **** 		/*For each Bit within this block*/
 495:C:/Workspace/FW_Inertia/branch_indesit/HAL/RN_RX200/IEC60335_B_libs/src/RAM\ramtest_march_c.c **** 		for(ui8_Bit_loop = BITS_PER_WORD; ui8_Bit_loop != 0; ui8_Bit_loop--)
 496:C:/Workspace/FW_Inertia/branch_indesit/HAL/RN_RX200/IEC60335_B_libs/src/RAM\ramtest_march_c.c **** 		{	
 497:C:/Workspace/FW_Inertia/branch_indesit/HAL/RN_RX200/IEC60335_B_libs/src/RAM\ramtest_march_c.c **** 			/*** Read RAM ***/
 498:C:/Workspace/FW_Inertia/branch_indesit/HAL/RN_RX200/IEC60335_B_libs/src/RAM\ramtest_march_c.c **** 			ui_Value = pui_RAM[ui_BlockIndex];
 499:C:/Workspace/FW_Inertia/branch_indesit/HAL/RN_RX200/IEC60335_B_libs/src/RAM\ramtest_march_c.c **** 			
 500:C:/Workspace/FW_Inertia/branch_indesit/HAL/RN_RX200/IEC60335_B_libs/src/RAM\ramtest_march_c.c **** 			/*Check Bit is valueRead*/
 501:C:/Workspace/FW_Inertia/branch_indesit/HAL/RN_RX200/IEC60335_B_libs/src/RAM\ramtest_march_c.c **** 			if(ui8_ValueRead == 0)
 502:C:/Workspace/FW_Inertia/branch_indesit/HAL/RN_RX200/IEC60335_B_libs/src/RAM\ramtest_march_c.c **** 			{
 503:C:/Workspace/FW_Inertia/branch_indesit/HAL/RN_RX200/IEC60335_B_libs/src/RAM\ramtest_march_c.c **** 				if((ui_Value & ui_Bit_Mask) != 0)
 504:C:/Workspace/FW_Inertia/branch_indesit/HAL/RN_RX200/IEC60335_B_libs/src/RAM\ramtest_march_c.c **** 				{
 505:C:/Workspace/FW_Inertia/branch_indesit/HAL/RN_RX200/IEC60335_B_libs/src/RAM\ramtest_march_c.c **** 					/*Bit Value is not 0 as expected*/
 506:C:/Workspace/FW_Inertia/branch_indesit/HAL/RN_RX200/IEC60335_B_libs/src/RAM\ramtest_march_c.c **** 					b_Result = FALSE;
 507:C:/Workspace/FW_Inertia/branch_indesit/HAL/RN_RX200/IEC60335_B_libs/src/RAM\ramtest_march_c.c **** 				}
 508:C:/Workspace/FW_Inertia/branch_indesit/HAL/RN_RX200/IEC60335_B_libs/src/RAM\ramtest_march_c.c **** 			}
 509:C:/Workspace/FW_Inertia/branch_indesit/HAL/RN_RX200/IEC60335_B_libs/src/RAM\ramtest_march_c.c **** 			else
 510:C:/Workspace/FW_Inertia/branch_indesit/HAL/RN_RX200/IEC60335_B_libs/src/RAM\ramtest_march_c.c **** 			{
 511:C:/Workspace/FW_Inertia/branch_indesit/HAL/RN_RX200/IEC60335_B_libs/src/RAM\ramtest_march_c.c **** 				if((ui_Value & ui_Bit_Mask) == 0)
 512:C:/Workspace/FW_Inertia/branch_indesit/HAL/RN_RX200/IEC60335_B_libs/src/RAM\ramtest_march_c.c **** 				{
 513:C:/Workspace/FW_Inertia/branch_indesit/HAL/RN_RX200/IEC60335_B_libs/src/RAM\ramtest_march_c.c **** 					/*Bit Value is not 1 as expected*/
 514:C:/Workspace/FW_Inertia/branch_indesit/HAL/RN_RX200/IEC60335_B_libs/src/RAM\ramtest_march_c.c **** 					b_Result = FALSE;
 515:C:/Workspace/FW_Inertia/branch_indesit/HAL/RN_RX200/IEC60335_B_libs/src/RAM\ramtest_march_c.c **** 				}
 516:C:/Workspace/FW_Inertia/branch_indesit/HAL/RN_RX200/IEC60335_B_libs/src/RAM\ramtest_march_c.c **** 			}
 517:C:/Workspace/FW_Inertia/branch_indesit/HAL/RN_RX200/IEC60335_B_libs/src/RAM\ramtest_march_c.c **** 			
 518:C:/Workspace/FW_Inertia/branch_indesit/HAL/RN_RX200/IEC60335_B_libs/src/RAM\ramtest_march_c.c **** 			/*** Write RAM ***/
 519:C:/Workspace/FW_Inertia/branch_indesit/HAL/RN_RX200/IEC60335_B_libs/src/RAM\ramtest_march_c.c **** 			/*Set Bit to valueWrite*/
 520:C:/Workspace/FW_Inertia/branch_indesit/HAL/RN_RX200/IEC60335_B_libs/src/RAM\ramtest_march_c.c **** 			if(ui8_ValueWrite == 0)
 521:C:/Workspace/FW_Inertia/branch_indesit/HAL/RN_RX200/IEC60335_B_libs/src/RAM\ramtest_march_c.c **** 			{
 522:C:/Workspace/FW_Inertia/branch_indesit/HAL/RN_RX200/IEC60335_B_libs/src/RAM\ramtest_march_c.c **** 				/*Clear Bit*/
 523:C:/Workspace/FW_Inertia/branch_indesit/HAL/RN_RX200/IEC60335_B_libs/src/RAM\ramtest_march_c.c **** 				/*NOTE: This causes MISRA message 0290 -
 524:C:/Workspace/FW_Inertia/branch_indesit/HAL/RN_RX200/IEC60335_B_libs/src/RAM\ramtest_march_c.c **** 				An expression of signed integer type type is being converted to an unsigned type.
 525:C:/Workspace/FW_Inertia/branch_indesit/HAL/RN_RX200/IEC60335_B_libs/src/RAM\ramtest_march_c.c **** 				This has been examined and is the desired behaviour.*/
 526:C:/Workspace/FW_Inertia/branch_indesit/HAL/RN_RX200/IEC60335_B_libs/src/RAM\ramtest_march_c.c **** 				ui_Value &= (TYPE_ACCESS_t)~ui_Bit_Mask;
 527:C:/Workspace/FW_Inertia/branch_indesit/HAL/RN_RX200/IEC60335_B_libs/src/RAM\ramtest_march_c.c **** 			}
 528:C:/Workspace/FW_Inertia/branch_indesit/HAL/RN_RX200/IEC60335_B_libs/src/RAM\ramtest_march_c.c **** 			else
 529:C:/Workspace/FW_Inertia/branch_indesit/HAL/RN_RX200/IEC60335_B_libs/src/RAM\ramtest_march_c.c **** 			{
 530:C:/Workspace/FW_Inertia/branch_indesit/HAL/RN_RX200/IEC60335_B_libs/src/RAM\ramtest_march_c.c **** 				/*Set Bit*/
 531:C:/Workspace/FW_Inertia/branch_indesit/HAL/RN_RX200/IEC60335_B_libs/src/RAM\ramtest_march_c.c **** 				ui_Value |= ui_Bit_Mask;
 532:C:/Workspace/FW_Inertia/branch_indesit/HAL/RN_RX200/IEC60335_B_libs/src/RAM\ramtest_march_c.c **** 			}
 533:C:/Workspace/FW_Inertia/branch_indesit/HAL/RN_RX200/IEC60335_B_libs/src/RAM\ramtest_march_c.c **** 			/*Write the Value to the RAM*/
 534:C:/Workspace/FW_Inertia/branch_indesit/HAL/RN_RX200/IEC60335_B_libs/src/RAM\ramtest_march_c.c **** 			pui_RAM[ui_BlockIndex] = ui_Value;
 535:C:/Workspace/FW_Inertia/branch_indesit/HAL/RN_RX200/IEC60335_B_libs/src/RAM\ramtest_march_c.c **** 			
 536:C:/Workspace/FW_Inertia/branch_indesit/HAL/RN_RX200/IEC60335_B_libs/src/RAM\ramtest_march_c.c **** 			/*Make Bit mask for next iteration*/
 537:C:/Workspace/FW_Inertia/branch_indesit/HAL/RN_RX200/IEC60335_B_libs/src/RAM\ramtest_march_c.c **** 			ui_Bit_Mask = (TYPE_ACCESS_t)(ui_Bit_Mask/2);
 538:C:/Workspace/FW_Inertia/branch_indesit/HAL/RN_RX200/IEC60335_B_libs/src/RAM\ramtest_march_c.c **** 		}
 539:C:/Workspace/FW_Inertia/branch_indesit/HAL/RN_RX200/IEC60335_B_libs/src/RAM\ramtest_march_c.c **** 		
 540:C:/Workspace/FW_Inertia/branch_indesit/HAL/RN_RX200/IEC60335_B_libs/src/RAM\ramtest_march_c.c **** 		/*If test has already failed then don't continue*/
 541:C:/Workspace/FW_Inertia/branch_indesit/HAL/RN_RX200/IEC60335_B_libs/src/RAM\ramtest_march_c.c **** 		if(FALSE == b_Result)
 542:C:/Workspace/FW_Inertia/branch_indesit/HAL/RN_RX200/IEC60335_B_libs/src/RAM\ramtest_march_c.c **** 		{
 543:C:/Workspace/FW_Inertia/branch_indesit/HAL/RN_RX200/IEC60335_B_libs/src/RAM\ramtest_march_c.c **** 			break;
 544:C:/Workspace/FW_Inertia/branch_indesit/HAL/RN_RX200/IEC60335_B_libs/src/RAM\ramtest_march_c.c **** 		}		
 545:C:/Workspace/FW_Inertia/branch_indesit/HAL/RN_RX200/IEC60335_B_libs/src/RAM\ramtest_march_c.c **** 	}
 546:C:/Workspace/FW_Inertia/branch_indesit/HAL/RN_RX200/IEC60335_B_libs/src/RAM\ramtest_march_c.c **** 	
 547:C:/Workspace/FW_Inertia/branch_indesit/HAL/RN_RX200/IEC60335_B_libs/src/RAM\ramtest_march_c.c **** 	return b_Result;
 548:C:/Workspace/FW_Inertia/branch_indesit/HAL/RN_RX200/IEC60335_B_libs/src/RAM\ramtest_march_c.c **** }
 549:C:/Workspace/FW_Inertia/branch_indesit/HAL/RN_RX200/IEC60335_B_libs/src/RAM\ramtest_march_c.c **** 
 550:C:/Workspace/FW_Inertia/branch_indesit/HAL/RN_RX200/IEC60335_B_libs/src/RAM\ramtest_march_c.c **** 
 551:C:/Workspace/FW_Inertia/branch_indesit/HAL/RN_RX200/IEC60335_B_libs/src/RAM\ramtest_march_c.c **** /***********************************************************************************
 552:C:/Workspace/FW_Inertia/branch_indesit/HAL/RN_RX200/IEC60335_B_libs/src/RAM\ramtest_march_c.c **** Function Name : MemoryCopy
 553:C:/Workspace/FW_Inertia/branch_indesit/HAL/RN_RX200/IEC60335_B_libs/src/RAM\ramtest_march_c.c **** Description   :	Copy memory contents from a specified source to a
 554:C:/Workspace/FW_Inertia/branch_indesit/HAL/RN_RX200/IEC60335_B_libs/src/RAM\ramtest_march_c.c **** 				specified destination.
 555:C:/Workspace/FW_Inertia/branch_indesit/HAL/RN_RX200/IEC60335_B_libs/src/RAM\ramtest_march_c.c **** 				 
 556:C:/Workspace/FW_Inertia/branch_indesit/HAL/RN_RX200/IEC60335_B_libs/src/RAM\ramtest_march_c.c **** Parameters    : pui_Source - pointer to start of source.
 557:C:/Workspace/FW_Inertia/branch_indesit/HAL/RN_RX200/IEC60335_B_libs/src/RAM\ramtest_march_c.c **** 				pui_Dest - pointer to start of destination.
 558:C:/Workspace/FW_Inertia/branch_indesit/HAL/RN_RX200/IEC60335_B_libs/src/RAM\ramtest_march_c.c **** 				ui_NumBlocks - Number of words to copy.
 559:C:/Workspace/FW_Inertia/branch_indesit/HAL/RN_RX200/IEC60335_B_libs/src/RAM\ramtest_march_c.c **** 				
 560:C:/Workspace/FW_Inertia/branch_indesit/HAL/RN_RX200/IEC60335_B_libs/src/RAM\ramtest_march_c.c **** Return Value  : void
 561:C:/Workspace/FW_Inertia/branch_indesit/HAL/RN_RX200/IEC60335_B_libs/src/RAM\ramtest_march_c.c **** ***********************************************************************************/
 562:C:/Workspace/FW_Inertia/branch_indesit/HAL/RN_RX200/IEC60335_B_libs/src/RAM\ramtest_march_c.c **** static void MemoryCopy(const volatile TYPE_ACCESS_t* const pui_Source,
 563:C:/Workspace/FW_Inertia/branch_indesit/HAL/RN_RX200/IEC60335_B_libs/src/RAM\ramtest_march_c.c **** 						volatile TYPE_ACCESS_t* const pui_Dest,
 564:C:/Workspace/FW_Inertia/branch_indesit/HAL/RN_RX200/IEC60335_B_libs/src/RAM\ramtest_march_c.c **** 						const TYPE_WORDS_t ui_NumBlocks)
 565:C:/Workspace/FW_Inertia/branch_indesit/HAL/RN_RX200/IEC60335_B_libs/src/RAM\ramtest_march_c.c **** {
 566:C:/Workspace/FW_Inertia/branch_indesit/HAL/RN_RX200/IEC60335_B_libs/src/RAM\ramtest_march_c.c **** 	TYPE_WORDS_t ui_BlockIndex;
 567:C:/Workspace/FW_Inertia/branch_indesit/HAL/RN_RX200/IEC60335_B_libs/src/RAM\ramtest_march_c.c **** 	
 568:C:/Workspace/FW_Inertia/branch_indesit/HAL/RN_RX200/IEC60335_B_libs/src/RAM\ramtest_march_c.c **** 	for(ui_BlockIndex = 0; ui_BlockIndex < ui_NumBlocks; ui_BlockIndex++)
  29                             		.loc 1 568 0
  30 001a 5B 2A                   		movu.B	r2, r10
  31                             	.LBE17:
  32                             	.LBE16:
 204:C:/Workspace/FW_Inertia/branch_indesit/HAL/RN_RX200/IEC60335_B_libs/src/RAM\ramtest_march_c.c **** bool_t RamTest_March_C(const uint32_t ui32_StartAddr,
  33                             		.loc 1 204 0
  34 001c FF 0B 13                		sub	r1, r3, r11
  35 001f 09                      		bra	.L4
  36                             	.L5:
  37 0020 FF 27 EB                		add	r14, r11, r7
  38                             	.LBB19:
  39                             	.LBB18:
 569:C:/Workspace/FW_Inertia/branch_indesit/HAL/RN_RX200/IEC60335_B_libs/src/RAM\ramtest_march_c.c **** 	{
 570:C:/Workspace/FW_Inertia/branch_indesit/HAL/RN_RX200/IEC60335_B_libs/src/RAM\ramtest_march_c.c **** 		pui_Dest[ui_BlockIndex] = pui_Source[ui_BlockIndex];
  40                             		.loc 1 570 0
  41 0023 FD 28 EC                		mov.B	[r14+], r12
  42 0026 C3 7C                   		mov.B	r12, [r7]
  43                             		.balign 2,3,2
  44                             	.L4:
 568:C:/Workspace/FW_Inertia/branch_indesit/HAL/RN_RX200/IEC60335_B_libs/src/RAM\ramtest_march_c.c **** 	for(ui_BlockIndex = 0; ui_BlockIndex < ui_NumBlocks; ui_BlockIndex++)
  45                             		.loc 1 568 0
  46 0028 FF 07 1E                		sub	r1, r14, r7
  47 002b 5B 77                   		movu.B	r7, r7
  48 002d 47 7A                   		cmp	r7, r10
  49 002f 24 F1                   		bgtu	.L5
  50 0031 03                      		.balign 2,3,1
  51                             	.L30:
  52                             	.LBE18:
  53                             	.LBE19:
 284:C:/Workspace/FW_Inertia/branch_indesit/HAL/RN_RX200/IEC60335_B_libs/src/RAM\ramtest_march_c.c **** 		b_Result = Start_March_C(pui_RAM, (TYPE_WORDS_t)ui32_NumBlocks);
  54                             		.loc 1 284 0
  55 0032 EF 1E                   		mov.L	r1, r14
  56                             	.LBB20:
  57                             	.LBB21:
 204:C:/Workspace/FW_Inertia/branch_indesit/HAL/RN_RX200/IEC60335_B_libs/src/RAM\ramtest_march_c.c **** bool_t RamTest_March_C(const uint32_t ui32_StartAddr,
  58                             		.loc 1 204 0
  59 0034 CF 17                   		mov.B	r1, r7
 319:C:/Workspace/FW_Inertia/branch_indesit/HAL/RN_RX200/IEC60335_B_libs/src/RAM\ramtest_march_c.c **** 	for(ui_BlockIndex = 0; ui_BlockIndex < ui_NumBlocks; ui_BlockIndex++)
  60                             		.loc 1 319 0
  61 0036 5B 2B                   		movu.B	r2, r11
  62 0038 0E                      		bra	.L6
  63                             	.L7:
 321:C:/Workspace/FW_Inertia/branch_indesit/HAL/RN_RX200/IEC60335_B_libs/src/RAM\ramtest_march_c.c **** 		pui_RAM[ui_BlockIndex] = 0;
  64                             		.loc 1 321 0
  65 0039 66 0A                   		mov	#0, r10
  66 003b FD 20 EA                		mov.B	r10, [r14+]
  67                             		.balign 2,3,2
  68                             	.L6:
 319:C:/Workspace/FW_Inertia/branch_indesit/HAL/RN_RX200/IEC60335_B_libs/src/RAM\ramtest_march_c.c **** 	for(ui_BlockIndex = 0; ui_BlockIndex < ui_NumBlocks; ui_BlockIndex++)
  69                             		.loc 1 319 0
  70 003e FF 0A 1E                		sub	r1, r14, r10
  71 0041 5B AA                   		movu.B	r10, r10
  72 0043 47 AB                   		cmp	r10, r11
  73 0045 24 F4                   		bgtu	.L7
  74 0047 66 05                   		mov	#0, r5
  75 0049 66 14                   		mov.L	#1, r4
  76                             	.LBB22:
  77                             	.LBB23:
 398:C:/Workspace/FW_Inertia/branch_indesit/HAL/RN_RX200/IEC60335_B_libs/src/RAM\ramtest_march_c.c **** 	for(ui_BlockIndex = 0; ui_BlockIndex < ui_NumBlocks; ui_BlockIndex++)
  78                             		.loc 1 398 0
  79 004b 5B 2C                   		movu.B	r2, r12
  80 004d 2E 2F                   		bra	.L8
  81                             	.L33:
  82 004f 66 8F                   		mov	#8, r15
  83 0051 66 1E                   		mov	#1, r14
 407:C:/Workspace/FW_Inertia/branch_indesit/HAL/RN_RX200/IEC60335_B_libs/src/RAM\ramtest_march_c.c **** 			ui_Value = pui_RAM[ui_BlockIndex];
  84                             		.loc 1 407 0
  85 0053 4B 1A                   		add	r1, r10
  86 0055 03                      		.balign 2,3,5
  87                             	.L10:
  88 0056 CC AB                   		mov.B	[r10], r11
 412:C:/Workspace/FW_Inertia/branch_indesit/HAL/RN_RX200/IEC60335_B_libs/src/RAM\ramtest_march_c.c **** 				if((ui_Value & ui_Bit_Mask) != 0)
  89                             		.loc 1 412 0
  90 0058 FF 4D BE                		and	r11, r14, r13
  91 005b 76 2D FF 00             		and #0xff, r13
  92 005f 13                      		beq	.L9
 415:C:/Workspace/FW_Inertia/branch_indesit/HAL/RN_RX200/IEC60335_B_libs/src/RAM\ramtest_march_c.c **** 					b_Result = FALSE;
  93                             		.loc 1 415 0
  94 0060 66 04                   		mov.L	#0, r4
  95                             		.balign 2,3,1
  96                             	.L9:
 440:C:/Workspace/FW_Inertia/branch_indesit/HAL/RN_RX200/IEC60335_B_libs/src/RAM\ramtest_march_c.c **** 				ui_Value |= ui_Bit_Mask;
  97                             		.loc 1 440 0
  98 0062 57 EB                   		or	r14, r11
 443:C:/Workspace/FW_Inertia/branch_indesit/HAL/RN_RX200/IEC60335_B_libs/src/RAM\ramtest_march_c.c **** 			pui_RAM[ui_BlockIndex] = ui_Value;
  99                             		.loc 1 443 0
 100 0064 C3 AB                   		mov.B	r11, [r10]
 447:C:/Workspace/FW_Inertia/branch_indesit/HAL/RN_RX200/IEC60335_B_libs/src/RAM\ramtest_march_c.c **** 			ui_Bit_Mask <<= 1;
 101                             		.loc 1 447 0
 102 0066 4B EE                   		add	r14, r14
 103 0068 60 1F                   		sub	#1, r15
 404:C:/Workspace/FW_Inertia/branch_indesit/HAL/RN_RX200/IEC60335_B_libs/src/RAM\ramtest_march_c.c **** 		for(ui8_Bit = 0; ui8_Bit < BITS_PER_WORD; ui8_Bit++)
 104                             		.loc 1 404 0
 105 006a 5B FB                   		movu.B	r15, r11
 106 006c 61 0B                   		cmp	#0, r11
 107 006e 21 E8                   		bne	.L10
 451:C:/Workspace/FW_Inertia/branch_indesit/HAL/RN_RX200/IEC60335_B_libs/src/RAM\ramtest_march_c.c **** 		if(FALSE == b_Result)
 108                             		.loc 1 451 0
 109 0070 61 04                   		cmp	#0, r4
 110 0072 1F                      		bne	.L11
 111 0073 03                      		.balign 2,3,1
 112                             	.L13:
 113                             	.LBE23:
 114                             	.LBE22:
 329:C:/Workspace/FW_Inertia/branch_indesit/HAL/RN_RX200/IEC60335_B_libs/src/RAM\ramtest_march_c.c **** 		b_Result = FALSE;
 115                             		.loc 1 329 0
 116 0074 66 0E                   		mov.L	#0, r14
 117 0076 38 E2 00                		bra	.L12
 118                             	.L11:
 119                             	.LBB25:
 120                             	.LBB24:
 398:C:/Workspace/FW_Inertia/branch_indesit/HAL/RN_RX200/IEC60335_B_libs/src/RAM\ramtest_march_c.c **** 	for(ui_BlockIndex = 0; ui_BlockIndex < ui_NumBlocks; ui_BlockIndex++)
 121                             		.loc 1 398 0
 122 0079 62 15                   		add	#1, r5
 123 007b 03                      		.balign 2,3,1
 124                             	.L8:
 125 007c 5B 5A                   		movu.B	r5, r10
 126 007e 47 CA                   		cmp	r12, r10
 127 0080 23 CF                   		bltu	.L33
 128                             	.LBE24:
 129                             	.LBE25:
 327:C:/Workspace/FW_Inertia/branch_indesit/HAL/RN_RX200/IEC60335_B_libs/src/RAM\ramtest_march_c.c **** 	if(FALSE == March_C_increment(pui_RAM, ui_NumBlocks, 0, 1))
 130                             		.loc 1 327 0
 131 0082 61 04                   		cmp	#0, r4
 132 0084 20 F0                   		beq	.L13
 133 0086 66 05                   		mov	#0, r5
 134 0088 66 14                   		mov.L	#1, r4
 135                             	.LBB26:
 136                             	.LBB27:
 398:C:/Workspace/FW_Inertia/branch_indesit/HAL/RN_RX200/IEC60335_B_libs/src/RAM\ramtest_march_c.c **** 	for(ui_BlockIndex = 0; ui_BlockIndex < ui_NumBlocks; ui_BlockIndex++)
 137                             		.loc 1 398 0
 138 008a 5B 2D                   		movu.B	r2, r13
 139 008c 2E 2C                   		bra	.L14
 140                             	.L35:
 141 008e 66 8F                   		mov	#8, r15
 142 0090 66 1E                   		mov	#1, r14
 407:C:/Workspace/FW_Inertia/branch_indesit/HAL/RN_RX200/IEC60335_B_libs/src/RAM\ramtest_march_c.c **** 			ui_Value = pui_RAM[ui_BlockIndex];
 143                             		.loc 1 407 0
 144 0092 4B 1A                   		add	r1, r10
 145                             		.balign 2,3,5
 146                             	.L16:
 147 0094 CC AB                   		mov.B	[r10], r11
 420:C:/Workspace/FW_Inertia/branch_indesit/HAL/RN_RX200/IEC60335_B_libs/src/RAM\ramtest_march_c.c **** 				if((ui_Value & ui_Bit_Mask) == 0)
 148                             		.loc 1 420 0
 149 0096 FF 4C BE                		and	r11, r14, r12
 150 0099 5B CC                   		movu.B	r12, r12
 151 009b 61 0C                   		cmp	#0, r12
 152 009d 1B                      		bne	.L15
 423:C:/Workspace/FW_Inertia/branch_indesit/HAL/RN_RX200/IEC60335_B_libs/src/RAM\ramtest_march_c.c **** 					b_Result = FALSE;
 153                             		.loc 1 423 0
 154 009e EF C4                   		mov.L	r12, r4
 155                             		.balign 2,3,2
 156                             	.L15:
 435:C:/Workspace/FW_Inertia/branch_indesit/HAL/RN_RX200/IEC60335_B_libs/src/RAM\ramtest_march_c.c **** 				ui_Value &= (TYPE_ACCESS_t)~ui_Bit_Mask;
 157                             		.loc 1 435 0
 158 00a0 FC 3B EC                		not	r14, r12
 159 00a3 53 CB                   		and	r12, r11
 443:C:/Workspace/FW_Inertia/branch_indesit/HAL/RN_RX200/IEC60335_B_libs/src/RAM\ramtest_march_c.c **** 			pui_RAM[ui_BlockIndex] = ui_Value;
 160                             		.loc 1 443 0
 161 00a5 C3 AB                   		mov.B	r11, [r10]
 447:C:/Workspace/FW_Inertia/branch_indesit/HAL/RN_RX200/IEC60335_B_libs/src/RAM\ramtest_march_c.c **** 			ui_Bit_Mask <<= 1;
 162                             		.loc 1 447 0
 163 00a7 4B EE                   		add	r14, r14
 164 00a9 60 1F                   		sub	#1, r15
 404:C:/Workspace/FW_Inertia/branch_indesit/HAL/RN_RX200/IEC60335_B_libs/src/RAM\ramtest_march_c.c **** 		for(ui8_Bit = 0; ui8_Bit < BITS_PER_WORD; ui8_Bit++)
 165                             		.loc 1 404 0
 166 00ab 5B FB                   		movu.B	r15, r11
 167 00ad 61 0B                   		cmp	#0, r11
 168 00af 21 E5                   		bne	.L16
 451:C:/Workspace/FW_Inertia/branch_indesit/HAL/RN_RX200/IEC60335_B_libs/src/RAM\ramtest_march_c.c **** 		if(FALSE == b_Result)
 169                             		.loc 1 451 0
 170 00b1 61 04                   		cmp	#0, r4
 171 00b3 20 C1                   		beq	.L13
 398:C:/Workspace/FW_Inertia/branch_indesit/HAL/RN_RX200/IEC60335_B_libs/src/RAM\ramtest_march_c.c **** 	for(ui_BlockIndex = 0; ui_BlockIndex < ui_NumBlocks; ui_BlockIndex++)
 172                             		.loc 1 398 0
 173 00b5 62 15                   		add	#1, r5
 174 00b7 03                      		.balign 2,3,1
 175                             	.L14:
 176 00b8 5B 5A                   		movu.B	r5, r10
 177 00ba 47 DA                   		cmp	r13, r10
 178 00bc 23 D2                   		bltu	.L35
 179                             	.LBE27:
 180                             	.LBE26:
 335:C:/Workspace/FW_Inertia/branch_indesit/HAL/RN_RX200/IEC60335_B_libs/src/RAM\ramtest_march_c.c **** 	else if(FALSE == March_C_increment(pui_RAM, ui_NumBlocks, 1, 0))
 181                             		.loc 1 335 0
 182 00be 61 04                   		cmp	#0, r4
 183 00c0 20 B4                   		beq	.L13
 184 00c2 CF 2E                   		mov.B	r2, r14
 185 00c4 66 15                   		mov.L	#1, r5
 186 00c6 2E 2E                   		bra	.L17
 187                             	.L20:
 188                             	.LBB28:
 189                             	.LBB29:
 489:C:/Workspace/FW_Inertia/branch_indesit/HAL/RN_RX200/IEC60335_B_libs/src/RAM\ramtest_march_c.c **** 		ui_BlockIndex = ui_BlockLoop-1;
 190                             		.loc 1 489 0
 191 00c8 60 1E                   		sub	#1, r14
 192 00ca 66 8F                   		mov	#8, r15
 492:C:/Workspace/FW_Inertia/branch_indesit/HAL/RN_RX200/IEC60335_B_libs/src/RAM\ramtest_march_c.c **** 		ui_Bit_Mask = (TYPE_ACCESS_t)(1UL << (BITS_PER_WORD-1));
 193                             		.loc 1 492 0
 194 00cc FB 46 80                		mov	#0xffffff80, r4
 498:C:/Workspace/FW_Inertia/branch_indesit/HAL/RN_RX200/IEC60335_B_libs/src/RAM\ramtest_march_c.c **** 			ui_Value = pui_RAM[ui_BlockIndex];
 195                             		.loc 1 498 0
 196 00cf 5B EA                   		movu.B	r14, r10
 197 00d1 4B 1A                   		add	r1, r10
 198 00d3 03                      		.balign 2,3,5
 199                             	.L19:
 200 00d4 CC AB                   		mov.B	[r10], r11
 503:C:/Workspace/FW_Inertia/branch_indesit/HAL/RN_RX200/IEC60335_B_libs/src/RAM\ramtest_march_c.c **** 				if((ui_Value & ui_Bit_Mask) != 0)
 201                             		.loc 1 503 0
 202 00d6 FF 4C B4                		and	r11, r4, r12
 203 00d9 76 2C FF 00             		and #0xff, r12
 204 00dd 13                      		beq	.L18
 506:C:/Workspace/FW_Inertia/branch_indesit/HAL/RN_RX200/IEC60335_B_libs/src/RAM\ramtest_march_c.c **** 					b_Result = FALSE;
 205                             		.loc 1 506 0
 206 00de 66 05                   		mov.L	#0, r5
 207                             		.balign 2,3,1
 208                             	.L18:
 531:C:/Workspace/FW_Inertia/branch_indesit/HAL/RN_RX200/IEC60335_B_libs/src/RAM\ramtest_march_c.c **** 				ui_Value |= ui_Bit_Mask;
 209                             		.loc 1 531 0
 210 00e0 57 4B                   		or	r4, r11
 534:C:/Workspace/FW_Inertia/branch_indesit/HAL/RN_RX200/IEC60335_B_libs/src/RAM\ramtest_march_c.c **** 			pui_RAM[ui_BlockIndex] = ui_Value;
 211                             		.loc 1 534 0
 212 00e2 C3 AB                   		mov.B	r11, [r10]
 537:C:/Workspace/FW_Inertia/branch_indesit/HAL/RN_RX200/IEC60335_B_libs/src/RAM\ramtest_march_c.c **** 			ui_Bit_Mask = (TYPE_ACCESS_t)(ui_Bit_Mask/2);
 213                             		.loc 1 537 0
 214 00e4 5B 44                   		movu.B	r4, r4
 215 00e6 68 14                   		shlr	#1, r4
 216 00e8 60 1F                   		sub	#1, r15
 495:C:/Workspace/FW_Inertia/branch_indesit/HAL/RN_RX200/IEC60335_B_libs/src/RAM\ramtest_march_c.c **** 		for(ui8_Bit_loop = BITS_PER_WORD; ui8_Bit_loop != 0; ui8_Bit_loop--)
 217                             		.loc 1 495 0
 218 00ea 5B FB                   		movu.B	r15, r11
 219 00ec 61 0B                   		cmp	#0, r11
 220 00ee 21 E6                   		bne	.L19
 541:C:/Workspace/FW_Inertia/branch_indesit/HAL/RN_RX200/IEC60335_B_libs/src/RAM\ramtest_march_c.c **** 		if(FALSE == b_Result)
 221                             		.loc 1 541 0
 222 00f0 61 05                   		cmp	#0, r5
 223 00f2 20 82                   		beq	.L13
 224                             		.balign 2,3,1
 225                             	.L17:
 487:C:/Workspace/FW_Inertia/branch_indesit/HAL/RN_RX200/IEC60335_B_libs/src/RAM\ramtest_march_c.c **** 	for(ui_BlockLoop = ui_NumBlocks; ui_BlockLoop != 0; ui_BlockLoop--)
 226                             		.loc 1 487 0
 227 00f4 5B EA                   		movu.B	r14, r10
 228 00f6 61 0A                   		cmp	#0, r10
 229 00f8 21 D0                   		bne	.L20
 230                             	.LBE29:
 231                             	.LBE28:
 343:C:/Workspace/FW_Inertia/branch_indesit/HAL/RN_RX200/IEC60335_B_libs/src/RAM\ramtest_march_c.c **** 	else if(FALSE == March_C_decrement(pui_RAM, ui_NumBlocks, 0, 1))
 232                             		.loc 1 343 0
 233 00fa 61 05                   		cmp	#0, r5
 234 00fc 3A 78 FF                		beq	.L13
 235 00ff CF 2E                   		mov.B	r2, r14
 236 0101 66 15                   		mov.L	#1, r5
 237 0103 2E 31                   		bra	.L21
 238                             	.L24:
 239                             	.LBB30:
 240                             	.LBB31:
 489:C:/Workspace/FW_Inertia/branch_indesit/HAL/RN_RX200/IEC60335_B_libs/src/RAM\ramtest_march_c.c **** 		ui_BlockIndex = ui_BlockLoop-1;
 241                             		.loc 1 489 0
 242 0105 60 1E                   		sub	#1, r14
 243 0107 66 8F                   		mov	#8, r15
 492:C:/Workspace/FW_Inertia/branch_indesit/HAL/RN_RX200/IEC60335_B_libs/src/RAM\ramtest_march_c.c **** 		ui_Bit_Mask = (TYPE_ACCESS_t)(1UL << (BITS_PER_WORD-1));
 244                             		.loc 1 492 0
 245 0109 FB 46 80                		mov	#0xffffff80, r4
 498:C:/Workspace/FW_Inertia/branch_indesit/HAL/RN_RX200/IEC60335_B_libs/src/RAM\ramtest_march_c.c **** 			ui_Value = pui_RAM[ui_BlockIndex];
 246                             		.loc 1 498 0
 247 010c 5B EA                   		movu.B	r14, r10
 248 010e 4B 1A                   		add	r1, r10
 249                             		.balign 2,3,5
 250                             	.L23:
 251 0110 CC AB                   		mov.B	[r10], r11
 511:C:/Workspace/FW_Inertia/branch_indesit/HAL/RN_RX200/IEC60335_B_libs/src/RAM\ramtest_march_c.c **** 				if((ui_Value & ui_Bit_Mask) == 0)
 252                             		.loc 1 511 0
 253 0112 FF 4C B4                		and	r11, r4, r12
 254 0115 5B CC                   		movu.B	r12, r12
 255 0117 61 0C                   		cmp	#0, r12
 256 0119 1B                      		bne	.L22
 514:C:/Workspace/FW_Inertia/branch_indesit/HAL/RN_RX200/IEC60335_B_libs/src/RAM\ramtest_march_c.c **** 					b_Result = FALSE;
 257                             		.loc 1 514 0
 258 011a EF C5                   		mov.L	r12, r5
 259                             		.balign 2,3,2
 260                             	.L22:
 526:C:/Workspace/FW_Inertia/branch_indesit/HAL/RN_RX200/IEC60335_B_libs/src/RAM\ramtest_march_c.c **** 				ui_Value &= (TYPE_ACCESS_t)~ui_Bit_Mask;
 261                             		.loc 1 526 0
 262 011c FC 3B 4C                		not	r4, r12
 263 011f 53 CB                   		and	r12, r11
 534:C:/Workspace/FW_Inertia/branch_indesit/HAL/RN_RX200/IEC60335_B_libs/src/RAM\ramtest_march_c.c **** 			pui_RAM[ui_BlockIndex] = ui_Value;
 264                             		.loc 1 534 0
 265 0121 C3 AB                   		mov.B	r11, [r10]
 537:C:/Workspace/FW_Inertia/branch_indesit/HAL/RN_RX200/IEC60335_B_libs/src/RAM\ramtest_march_c.c **** 			ui_Bit_Mask = (TYPE_ACCESS_t)(ui_Bit_Mask/2);
 266                             		.loc 1 537 0
 267 0123 5B 44                   		movu.B	r4, r4
 268 0125 68 14                   		shlr	#1, r4
 269 0127 60 1F                   		sub	#1, r15
 495:C:/Workspace/FW_Inertia/branch_indesit/HAL/RN_RX200/IEC60335_B_libs/src/RAM\ramtest_march_c.c **** 		for(ui8_Bit_loop = BITS_PER_WORD; ui8_Bit_loop != 0; ui8_Bit_loop--)
 270                             		.loc 1 495 0
 271 0129 5B FB                   		movu.B	r15, r11
 272 012b 61 0B                   		cmp	#0, r11
 273 012d 21 E3                   		bne	.L23
 541:C:/Workspace/FW_Inertia/branch_indesit/HAL/RN_RX200/IEC60335_B_libs/src/RAM\ramtest_march_c.c **** 		if(FALSE == b_Result)
 274                             		.loc 1 541 0
 275 012f 61 05                   		cmp	#0, r5
 276 0131 3A 43 FF                		beq	.L13
 277                             		.balign 2,3,1
 278                             	.L21:
 487:C:/Workspace/FW_Inertia/branch_indesit/HAL/RN_RX200/IEC60335_B_libs/src/RAM\ramtest_march_c.c **** 	for(ui_BlockLoop = ui_NumBlocks; ui_BlockLoop != 0; ui_BlockLoop--)
 279                             		.loc 1 487 0
 280 0134 5B EA                   		movu.B	r14, r10
 281 0136 61 0A                   		cmp	#0, r10
 282 0138 21 CD                   		bne	.L24
 283                             	.LBE31:
 284                             	.LBE30:
 351:C:/Workspace/FW_Inertia/branch_indesit/HAL/RN_RX200/IEC60335_B_libs/src/RAM\ramtest_march_c.c **** 	else if(FALSE == March_C_decrement(pui_RAM, ui_NumBlocks, 1, 0))
 285                             		.loc 1 351 0
 286 013a 61 05                   		cmp	#0, r5
 287 013c 3A 38 FF                		beq	.L13
 288 013f EF 1E                   		mov.L	r1, r14
 359:C:/Workspace/FW_Inertia/branch_indesit/HAL/RN_RX200/IEC60335_B_libs/src/RAM\ramtest_march_c.c **** 		for(ui_BlockIndex = 0; ui_BlockIndex < ui_NumBlocks; ui_BlockIndex++)
 289                             		.loc 1 359 0
 290 0141 5B 2B                   		movu.B	r2, r11
 291 0143 09                      		bra	.L25
 292                             	.L26:
 361:C:/Workspace/FW_Inertia/branch_indesit/HAL/RN_RX200/IEC60335_B_libs/src/RAM\ramtest_march_c.c **** 			if(pui_RAM[ui_BlockIndex] != 0)
 293                             		.loc 1 361 0
 294 0144 FD 38 EA                		movu.B	[r14+], r10
 295 0147 61 0A                   		cmp	#0, r10
 296 0149 3B 2B FF                		bne	.L13
 297                             		.balign 2,3,2
 298                             	.L25:
 359:C:/Workspace/FW_Inertia/branch_indesit/HAL/RN_RX200/IEC60335_B_libs/src/RAM\ramtest_march_c.c **** 		for(ui_BlockIndex = 0; ui_BlockIndex < ui_NumBlocks; ui_BlockIndex++)
 299                             		.loc 1 359 0
 300 014c FF 0A 7E                		sub	r7, r14, r10
 301 014f 5B AA                   		movu.B	r10, r10
 302 0151 47 AB                   		cmp	r10, r11
 303 0153 24 F1                   		bgtu	.L26
 315:C:/Workspace/FW_Inertia/branch_indesit/HAL/RN_RX200/IEC60335_B_libs/src/RAM\ramtest_march_c.c **** 	bool_t b_Result = TRUE;
 304                             		.loc 1 315 0
 305 0155 66 1E                   		mov.L	#1, r14
 306 0157 03                      		.balign 2,3,1
 307                             	.L12:
 308                             	.LBE21:
 309                             	.LBE20:
 287:C:/Workspace/FW_Inertia/branch_indesit/HAL/RN_RX200/IEC60335_B_libs/src/RAM\ramtest_march_c.c **** 		if(pui_RAMSafe != NULL)
 310                             		.loc 1 287 0
 311 0158 61 03                   		cmp	#0, r3
 312 015a 20 2A                   		beq	.L47
 313 015c EF 34                   		mov.L	r3, r4
 314                             	.LBB32:
 315                             	.LBB33:
 568:C:/Workspace/FW_Inertia/branch_indesit/HAL/RN_RX200/IEC60335_B_libs/src/RAM\ramtest_march_c.c **** 	for(ui_BlockIndex = 0; ui_BlockIndex < ui_NumBlocks; ui_BlockIndex++)
 316                             		.loc 1 568 0
 317 015e 5B 22                   		movu.B	r2, r2
 318                             	.LBE33:
 319                             	.LBE32:
 204:C:/Workspace/FW_Inertia/branch_indesit/HAL/RN_RX200/IEC60335_B_libs/src/RAM\ramtest_march_c.c **** bool_t RamTest_March_C(const uint32_t ui32_StartAddr,
 320                             		.loc 1 204 0
 321 0160 43 31                   		sub	r3, r1
 322 0162 0A                      		bra	.L27
 323                             	.L28:
 324 0163 FF 27 41                		add	r4, r1, r7
 325                             	.LBB35:
 326                             	.LBB34:
 327                             		.loc 1 570 0
 328 0166 FD 28 4A                		mov.B	[r4+], r10
 329 0169 C3 7A                   		mov.B	r10, [r7]
 330 016b 03                      		.balign 2,3,2
 331                             	.L27:
 568:C:/Workspace/FW_Inertia/branch_indesit/HAL/RN_RX200/IEC60335_B_libs/src/RAM\ramtest_march_c.c **** 	for(ui_BlockIndex = 0; ui_BlockIndex < ui_NumBlocks; ui_BlockIndex++)
 332                             		.loc 1 568 0
 333 016c FF 07 34                		sub	r3, r4, r7
 334 016f 5B 77                   		movu.B	r7, r7
 335 0171 47 72                   		cmp	r7, r2
 336 0173 24 F0                   		bgtu	.L28
 337 0175 2E 0F                   		bra	.L47
 338                             	.L31:
 339                             	.LCFI1:
 340                             	.LBE34:
 341                             	.LBE35:
 227:C:/Workspace/FW_Inertia/branch_indesit/HAL/RN_RX200/IEC60335_B_libs/src/RAM\ramtest_march_c.c **** 		else if(ui32_StartAddr > ui32_EndAddr)
 342                             		.loc 1 227 0
 343 0177 66 0E                   		mov.L	#0, r14
 300:C:/Workspace/FW_Inertia/branch_indesit/HAL/RN_RX200/IEC60335_B_libs/src/RAM\ramtest_march_c.c **** }
 344                             		.loc 1 300 0
 345 0179 EF E1                   		mov.L	r14, r1
 346 017b 02                      		rts
 347                             	.L72:
 348                             	.LCFI2:
 272:C:/Workspace/FW_Inertia/branch_indesit/HAL/RN_RX200/IEC60335_B_libs/src/RAM\ramtest_march_c.c **** 		if(pui_RAMSafe != NULL)
 349                             		.loc 1 272 0
 350 017c 61 03                   		cmp	#0, r3
 351 017e 3B 9A FE                		bne	.L29
 352 0181 38 B1 FE                		bra	.L30
 353                             	.L47:
 300:C:/Workspace/FW_Inertia/branch_indesit/HAL/RN_RX200/IEC60335_B_libs/src/RAM\ramtest_march_c.c **** }
 354                             		.loc 1 300 0
 355 0184 EF E1                   		mov.L	r14, r1
 356 0186 3F 7D 07                		rtsd	#28, r7-r13
 357                             	.LFE1:
 359 0189 03                      		.section	.text.RamTest_March_C_Extra,"ax",@progbits
 360                             		.global	_RamTest_March_C_Extra
 362                             	_RamTest_March_C_Extra:
 363                             	.LFB0:
 155:C:/Workspace/FW_Inertia/branch_indesit/HAL/RN_RX200/IEC60335_B_libs/src/RAM\ramtest_march_c.c **** {
 364                             		.loc 1 155 0
 365 0000 6E 7B                   		pushm	r7-r11
 366                             	.LCFI3:
 163:C:/Workspace/FW_Inertia/branch_indesit/HAL/RN_RX200/IEC60335_B_libs/src/RAM\ramtest_march_c.c **** 	if(NULL == pui_RAMSafe)
 367                             		.loc 1 163 0
 368 0002 71 37 00                		add	#0, r3, r7
 369 0005 20 22                   		beq	.L77
 370 0007 EF 1B                   		mov.L	r1, r11
 371 0009 EF 2A                   		mov.L	r2, r10
 170:C:/Workspace/FW_Inertia/branch_indesit/HAL/RN_RX200/IEC60335_B_libs/src/RAM\ramtest_march_c.c **** 		ui32_NumBlocks = 1 + ((ui32_EndAddr - ui32_StartAddr) / BYTES_PER_WORD);
 372                             		.loc 1 170 0
 373 000b 43 12                   		sub	r1, r2
 176:C:/Workspace/FW_Inertia/branch_indesit/HAL/RN_RX200/IEC60335_B_libs/src/RAM\ramtest_march_c.c **** 		bResult = RamTest_March_C((uint32_t)&pui_RAMSafe[0],
 374                             		.loc 1 176 0
 375 000d EF 71                   		mov.L	r7, r1
 376 000f 4B 72                   		add	r7, r2
 377 0011 66 03                   		mov.L	#0, r3
 378 0013 05 00 00 00             		bsr	_RamTest_March_C
 178:C:/Workspace/FW_Inertia/branch_indesit/HAL/RN_RX200/IEC60335_B_libs/src/RAM\ramtest_march_c.c **** 		if(TRUE == bResult)
 379                             		.loc 1 178 0
 380 0017 61 11                   		cmp	#1, r1
 381 0019 21 11                   		bne	.L76
 181:C:/Workspace/FW_Inertia/branch_indesit/HAL/RN_RX200/IEC60335_B_libs/src/RAM\ramtest_march_c.c **** 			bResult = RamTest_March_C(ui32_StartAddr, ui32_EndAddr, pui_RAMSafe);
 382                             		.loc 1 181 0
 383 001b EF B1                   		mov.L	r11, r1
 384 001d EF A2                   		mov.L	r10, r2
 385 001f EF 73                   		mov.L	r7, r3
 186:C:/Workspace/FW_Inertia/branch_indesit/HAL/RN_RX200/IEC60335_B_libs/src/RAM\ramtest_march_c.c **** }
 386                             		.loc 1 186 0
 387 0021 6F 7B                   		popm	r7-r11
 181:C:/Workspace/FW_Inertia/branch_indesit/HAL/RN_RX200/IEC60335_B_libs/src/RAM\ramtest_march_c.c **** 			bResult = RamTest_March_C(ui32_StartAddr, ui32_EndAddr, pui_RAMSafe);
 388                             		.loc 1 181 0
 389 0023 04 00 00 00             		bra	_RamTest_March_C
 390                             	.L77:
 165:C:/Workspace/FW_Inertia/branch_indesit/HAL/RN_RX200/IEC60335_B_libs/src/RAM\ramtest_march_c.c **** 		bResult = FALSE;
 391                             		.loc 1 165 0
 392 0027 EF 71                   		mov.L	r7, r1
 393 0029 03                      		.balign 2,3,2
 394                             	.L76:
 186:C:/Workspace/FW_Inertia/branch_indesit/HAL/RN_RX200/IEC60335_B_libs/src/RAM\ramtest_march_c.c **** }
 395                             		.loc 1 186 0
 396 002a 3F 7B 05                		rtsd	#20, r7-r11
 397                             	.LFE0:
 494                             	.Letext0:
 495                             		.file 2 "C:\\Workspace\\FW_Inertia\\branch_indesit\\HAL\\RN_RX200\\IEC60335_B_libs\\src\\Common/mi
DEFINED SYMBOLS
                            *ABS*:00000000 ramtest_march_c.c
C:\Users\Andrea\AppData\Local\Temp\ccDvqWif.s:7      .text.RamTest_March_C:00000000 _RamTest_March_C
C:\Users\Andrea\AppData\Local\Temp\ccDvqWif.s:12     .text.RamTest_March_C:00000000 L0
C:\Users\Andrea\AppData\Local\Temp\ccDvqWif.s:362    .text.RamTest_March_C_Extra:00000000 _RamTest_March_C_Extra
C:\Users\Andrea\AppData\Local\Temp\ccDvqWif.s:365    .text.RamTest_March_C_Extra:00000000 L0
C:\Users\Andrea\AppData\Local\Temp\ccDvqWif.s:400    .debug_frame:00000000 .Lframe0
C:\Users\Andrea\AppData\Local\Temp\ccDvqWif.s:8      .text.RamTest_March_C:00000000 .LFB1
C:\Users\Andrea\AppData\Local\Temp\ccDvqWif.s:363    .text.RamTest_March_C_Extra:00000000 .LFB0
C:\Users\Andrea\AppData\Local\Temp\ccDvqWif.s:1076   .debug_abbrev:00000000 .Ldebug_abbrev0
C:\Users\Andrea\AppData\Local\Temp\ccDvqWif.s:1549   .debug_str:000000bc .LASF37
C:\Users\Andrea\AppData\Local\Temp\ccDvqWif.s:1583   .debug_str:000001a2 .LASF38
C:\Users\Andrea\AppData\Local\Temp\ccDvqWif.s:1473   .debug_ranges:00000000 .Ldebug_ranges0
C:\Users\Andrea\AppData\Local\Temp\ccDvqWif.s:1517   .debug_line:00000000 .Ldebug_line0
C:\Users\Andrea\AppData\Local\Temp\ccDvqWif.s:1565   .debug_str:00000140 .LASF0
C:\Users\Andrea\AppData\Local\Temp\ccDvqWif.s:1567   .debug_str:0000014d .LASF1
C:\Users\Andrea\AppData\Local\Temp\ccDvqWif.s:1569   .debug_str:00000152 .LASF4
C:\Users\Andrea\AppData\Local\Temp\ccDvqWif.s:1537   .debug_str:0000005a .LASF2
C:\Users\Andrea\AppData\Local\Temp\ccDvqWif.s:1545   .debug_str:0000009e .LASF3
C:\Users\Andrea\AppData\Local\Temp\ccDvqWif.s:1591   .debug_str:00000220 .LASF5
C:\Users\Andrea\AppData\Local\Temp\ccDvqWif.s:1543   .debug_str:0000008c .LASF6
C:\Users\Andrea\AppData\Local\Temp\ccDvqWif.s:1601   .debug_str:0000025c .LASF7
C:\Users\Andrea\AppData\Local\Temp\ccDvqWif.s:1587   .debug_str:0000020d .LASF8
C:\Users\Andrea\AppData\Local\Temp\ccDvqWif.s:1593   .debug_str:00000229 .LASF9
C:\Users\Andrea\AppData\Local\Temp\ccDvqWif.s:1535   .debug_str:00000054 .LASF10
C:\Users\Andrea\AppData\Local\Temp\ccDvqWif.s:1555   .debug_str:000000fe .LASF11
C:\Users\Andrea\AppData\Local\Temp\ccDvqWif.s:1529   .debug_str:0000003c .LASF12
C:\Users\Andrea\AppData\Local\Temp\ccDvqWif.s:1573   .debug_str:00000167 .LASF13
C:\Users\Andrea\AppData\Local\Temp\ccDvqWif.s:1571   .debug_str:0000015a .LASF14
C:\Users\Andrea\AppData\Local\Temp\ccDvqWif.s:1547   .debug_str:000000b1 .LASF39
C:\Users\Andrea\AppData\Local\Temp\ccDvqWif.s:1559   .debug_str:00000113 .LASF15
C:\Users\Andrea\AppData\Local\Temp\ccDvqWif.s:1519   .debug_str:00000000 .LASF16
C:\Users\Andrea\AppData\Local\Temp\ccDvqWif.s:1585   .debug_str:00000200 .LASF17
C:\Users\Andrea\AppData\Local\Temp\ccDvqWif.s:1553   .debug_str:000000f0 .LASF19
C:\Users\Andrea\AppData\Local\Temp\ccDvqWif.s:1551   .debug_str:000000e2 .LASF21
C:\Users\Andrea\AppData\Local\Temp\ccDvqWif.s:1521   .debug_str:00000009 .LASF18
C:\Users\Andrea\AppData\Local\Temp\ccDvqWif.s:1589   .debug_str:00000217 .LASF20
C:\Users\Andrea\AppData\Local\Temp\ccDvqWif.s:1541   .debug_str:0000007a .LASF22
C:\Users\Andrea\AppData\Local\Temp\ccDvqWif.s:1557   .debug_str:00000105 .LASF23
C:\Users\Andrea\AppData\Local\Temp\ccDvqWif.s:1581   .debug_str:00000193 .LASF24
C:\Users\Andrea\AppData\Local\Temp\ccDvqWif.s:1531   .debug_str:00000043 .LASF25
C:\Users\Andrea\AppData\Local\Temp\ccDvqWif.s:1577   .debug_str:00000181 .LASF26
C:\Users\Andrea\AppData\Local\Temp\ccDvqWif.s:1563   .debug_str:00000134 .LASF27
C:\Users\Andrea\AppData\Local\Temp\ccDvqWif.s:1539   .debug_str:00000068 .LASF28
C:\Users\Andrea\AppData\Local\Temp\ccDvqWif.s:1595   .debug_str:00000232 .LASF29
C:\Users\Andrea\AppData\Local\Temp\ccDvqWif.s:1527   .debug_str:0000002f .LASF30
C:\Users\Andrea\AppData\Local\Temp\ccDvqWif.s:1599   .debug_str:0000024c .LASF40
C:\Users\Andrea\AppData\Local\Temp\ccDvqWif.s:357    .text.RamTest_March_C:00000189 .LFE1
C:\Users\Andrea\AppData\Local\Temp\ccDvqWif.s:1422   .debug_loc:00000000 .LLST0
C:\Users\Andrea\AppData\Local\Temp\ccDvqWif.s:1525   .debug_str:00000020 .LASF31
C:\Users\Andrea\AppData\Local\Temp\ccDvqWif.s:1597   .debug_str:0000023f .LASF32
C:\Users\Andrea\AppData\Local\Temp\ccDvqWif.s:1579   .debug_str:00000189 .LASF33
C:\Users\Andrea\AppData\Local\Temp\ccDvqWif.s:1523   .debug_str:00000011 .LASF34
C:\Users\Andrea\AppData\Local\Temp\ccDvqWif.s:1575   .debug_str:00000175 .LASF35
C:\Users\Andrea\AppData\Local\Temp\ccDvqWif.s:27     .text.RamTest_March_C:0000001a .LBB16
C:\Users\Andrea\AppData\Local\Temp\ccDvqWif.s:56     .text.RamTest_March_C:00000034 .LBB20
C:\Users\Andrea\AppData\Local\Temp\ccDvqWif.s:309    .text.RamTest_March_C:00000158 .LBE20
C:\Users\Andrea\AppData\Local\Temp\ccDvqWif.s:57     .text.RamTest_March_C:00000034 .LBB21
C:\Users\Andrea\AppData\Local\Temp\ccDvqWif.s:308    .text.RamTest_March_C:00000158 .LBE21
C:\Users\Andrea\AppData\Local\Temp\ccDvqWif.s:76     .text.RamTest_March_C:0000004b .LBB22
C:\Users\Andrea\AppData\Local\Temp\ccDvqWif.s:135    .text.RamTest_March_C:0000008a .LBB26
C:\Users\Andrea\AppData\Local\Temp\ccDvqWif.s:180    .text.RamTest_March_C:000000be .LBE26
C:\Users\Andrea\AppData\Local\Temp\ccDvqWif.s:136    .text.RamTest_March_C:0000008a .LBB27
C:\Users\Andrea\AppData\Local\Temp\ccDvqWif.s:179    .text.RamTest_March_C:000000be .LBE27
C:\Users\Andrea\AppData\Local\Temp\ccDvqWif.s:188    .text.RamTest_March_C:000000c8 .LBB28
C:\Users\Andrea\AppData\Local\Temp\ccDvqWif.s:231    .text.RamTest_March_C:000000fa .LBE28
C:\Users\Andrea\AppData\Local\Temp\ccDvqWif.s:189    .text.RamTest_March_C:000000c8 .LBB29
C:\Users\Andrea\AppData\Local\Temp\ccDvqWif.s:230    .text.RamTest_March_C:000000fa .LBE29
C:\Users\Andrea\AppData\Local\Temp\ccDvqWif.s:239    .text.RamTest_March_C:00000105 .LBB30
C:\Users\Andrea\AppData\Local\Temp\ccDvqWif.s:284    .text.RamTest_March_C:0000013a .LBE30
C:\Users\Andrea\AppData\Local\Temp\ccDvqWif.s:240    .text.RamTest_March_C:00000105 .LBB31
C:\Users\Andrea\AppData\Local\Temp\ccDvqWif.s:283    .text.RamTest_March_C:0000013a .LBE31
C:\Users\Andrea\AppData\Local\Temp\ccDvqWif.s:314    .text.RamTest_March_C:0000015e .LBB32
C:\Users\Andrea\AppData\Local\Temp\ccDvqWif.s:1561   .debug_str:0000011e .LASF41
C:\Users\Andrea\AppData\Local\Temp\ccDvqWif.s:397    .text.RamTest_March_C_Extra:0000002d .LFE0
C:\Users\Andrea\AppData\Local\Temp\ccDvqWif.s:1445   .debug_loc:00000038 .LLST1
C:\Users\Andrea\AppData\Local\Temp\ccDvqWif.s:1533   .debug_str:0000004c .LASF36
C:\Users\Andrea\AppData\Local\Temp\ccDvqWif.s:22     .text.RamTest_March_C:00000015 .LCFI0
C:\Users\Andrea\AppData\Local\Temp\ccDvqWif.s:339    .text.RamTest_March_C:00000177 .LCFI1
C:\Users\Andrea\AppData\Local\Temp\ccDvqWif.s:348    .text.RamTest_March_C:0000017c .LCFI2
C:\Users\Andrea\AppData\Local\Temp\ccDvqWif.s:366    .text.RamTest_March_C_Extra:00000002 .LCFI3
C:\Users\Andrea\AppData\Local\Temp\ccDvqWif.s:497    .debug_info:00000000 .Ldebug_info0
C:\Users\Andrea\AppData\Local\Temp\ccDvqWif.s:32     .text.RamTest_March_C:0000001c .LBE16
C:\Users\Andrea\AppData\Local\Temp\ccDvqWif.s:38     .text.RamTest_March_C:00000023 .LBB19
C:\Users\Andrea\AppData\Local\Temp\ccDvqWif.s:53     .text.RamTest_March_C:00000032 .LBE19
C:\Users\Andrea\AppData\Local\Temp\ccDvqWif.s:28     .text.RamTest_March_C:0000001a .LBB17
C:\Users\Andrea\AppData\Local\Temp\ccDvqWif.s:31     .text.RamTest_March_C:0000001c .LBE17
C:\Users\Andrea\AppData\Local\Temp\ccDvqWif.s:39     .text.RamTest_March_C:00000023 .LBB18
C:\Users\Andrea\AppData\Local\Temp\ccDvqWif.s:52     .text.RamTest_March_C:00000032 .LBE18
C:\Users\Andrea\AppData\Local\Temp\ccDvqWif.s:114    .text.RamTest_March_C:00000074 .LBE22
C:\Users\Andrea\AppData\Local\Temp\ccDvqWif.s:119    .text.RamTest_March_C:00000079 .LBB25
C:\Users\Andrea\AppData\Local\Temp\ccDvqWif.s:129    .text.RamTest_March_C:00000082 .LBE25
C:\Users\Andrea\AppData\Local\Temp\ccDvqWif.s:77     .text.RamTest_March_C:0000004b .LBB23
C:\Users\Andrea\AppData\Local\Temp\ccDvqWif.s:113    .text.RamTest_March_C:00000074 .LBE23
C:\Users\Andrea\AppData\Local\Temp\ccDvqWif.s:120    .text.RamTest_March_C:00000079 .LBB24
C:\Users\Andrea\AppData\Local\Temp\ccDvqWif.s:128    .text.RamTest_March_C:00000082 .LBE24
C:\Users\Andrea\AppData\Local\Temp\ccDvqWif.s:319    .text.RamTest_March_C:00000160 .LBE32
C:\Users\Andrea\AppData\Local\Temp\ccDvqWif.s:325    .text.RamTest_March_C:00000166 .LBB35
C:\Users\Andrea\AppData\Local\Temp\ccDvqWif.s:341    .text.RamTest_March_C:00000177 .LBE35
C:\Users\Andrea\AppData\Local\Temp\ccDvqWif.s:315    .text.RamTest_March_C:0000015e .LBB33
C:\Users\Andrea\AppData\Local\Temp\ccDvqWif.s:318    .text.RamTest_March_C:00000160 .LBE33
C:\Users\Andrea\AppData\Local\Temp\ccDvqWif.s:326    .text.RamTest_March_C:00000166 .LBB34
C:\Users\Andrea\AppData\Local\Temp\ccDvqWif.s:340    .text.RamTest_March_C:00000177 .LBE34

NO UNDEFINED SYMBOLS
