   1                             		.file	"ramtest_march_x_wom.c"
   2                             		.section P,"ax"
   3                             	.Ltext0:
   4                             		.section	.text.RamTest_March_X_WOM,"ax",@progbits
   5                             		.global	_RamTest_March_X_WOM
   7                             	_RamTest_March_X_WOM:
   8                             	.LFB1:
   9                             		.file 1 "C:/Workspace/FW_Inertia/branch_indesit/HAL/RN_RX200/IEC60335_B_libs/src/RAM/ramtest_march
   1:C:/Workspace/FW_Inertia/branch_indesit/HAL/RN_RX200/IEC60335_B_libs/src/RAM\ramtest_march_x_wom.c **** /***********************************************************************************
   2:C:/Workspace/FW_Inertia/branch_indesit/HAL/RN_RX200/IEC60335_B_libs/src/RAM\ramtest_march_x_wom.c ****  DISCLAIMER	: We (Renesas Electronics Europe Limited) do NOT warrant that the Software
   3:C:/Workspace/FW_Inertia/branch_indesit/HAL/RN_RX200/IEC60335_B_libs/src/RAM\ramtest_march_x_wom.c **** 			  is free from claims by a third party of copyright, patent, trademark,
   4:C:/Workspace/FW_Inertia/branch_indesit/HAL/RN_RX200/IEC60335_B_libs/src/RAM\ramtest_march_x_wom.c **** 			  trade secret or any other intellectual property infringement.
   5:C:/Workspace/FW_Inertia/branch_indesit/HAL/RN_RX200/IEC60335_B_libs/src/RAM\ramtest_march_x_wom.c **** 
   6:C:/Workspace/FW_Inertia/branch_indesit/HAL/RN_RX200/IEC60335_B_libs/src/RAM\ramtest_march_x_wom.c **** 			  Under no circumstances are we liable for any of the following:
   7:C:/Workspace/FW_Inertia/branch_indesit/HAL/RN_RX200/IEC60335_B_libs/src/RAM\ramtest_march_x_wom.c **** 
   8:C:/Workspace/FW_Inertia/branch_indesit/HAL/RN_RX200/IEC60335_B_libs/src/RAM\ramtest_march_x_wom.c **** 			  1. third-party claims against you for losses or damages;
   9:C:/Workspace/FW_Inertia/branch_indesit/HAL/RN_RX200/IEC60335_B_libs/src/RAM\ramtest_march_x_wom.c **** 			  2. loss of, or damage to, your records or data; or
  10:C:/Workspace/FW_Inertia/branch_indesit/HAL/RN_RX200/IEC60335_B_libs/src/RAM\ramtest_march_x_wom.c **** 			  3. economic consequential damages (including lost profits or savings)
  11:C:/Workspace/FW_Inertia/branch_indesit/HAL/RN_RX200/IEC60335_B_libs/src/RAM\ramtest_march_x_wom.c **** 			  	 or incidental damages, even if we are informed of their possibility.
  12:C:/Workspace/FW_Inertia/branch_indesit/HAL/RN_RX200/IEC60335_B_libs/src/RAM\ramtest_march_x_wom.c **** 
  13:C:/Workspace/FW_Inertia/branch_indesit/HAL/RN_RX200/IEC60335_B_libs/src/RAM\ramtest_march_x_wom.c **** 			  We do not warrant uninterrupted or error free operation of the Software.
  14:C:/Workspace/FW_Inertia/branch_indesit/HAL/RN_RX200/IEC60335_B_libs/src/RAM\ramtest_march_x_wom.c **** 			  We have no obligation to provide service, defect, correction, or any
  15:C:/Workspace/FW_Inertia/branch_indesit/HAL/RN_RX200/IEC60335_B_libs/src/RAM\ramtest_march_x_wom.c **** 			  maintenance for the Software. We have no obligation to supply any
  16:C:/Workspace/FW_Inertia/branch_indesit/HAL/RN_RX200/IEC60335_B_libs/src/RAM\ramtest_march_x_wom.c **** 			  Software updates or enhancements to you even if such are or later become
  17:C:/Workspace/FW_Inertia/branch_indesit/HAL/RN_RX200/IEC60335_B_libs/src/RAM\ramtest_march_x_wom.c **** 			  available.
  18:C:/Workspace/FW_Inertia/branch_indesit/HAL/RN_RX200/IEC60335_B_libs/src/RAM\ramtest_march_x_wom.c **** 
  19:C:/Workspace/FW_Inertia/branch_indesit/HAL/RN_RX200/IEC60335_B_libs/src/RAM\ramtest_march_x_wom.c **** 			  IF YOU DOWNLOAD OR USE THIS SOFTWARE YOU AGREE TO THESE TERMS.
  20:C:/Workspace/FW_Inertia/branch_indesit/HAL/RN_RX200/IEC60335_B_libs/src/RAM\ramtest_march_x_wom.c **** 
  21:C:/Workspace/FW_Inertia/branch_indesit/HAL/RN_RX200/IEC60335_B_libs/src/RAM\ramtest_march_x_wom.c **** 			  THERE ARE NO WARRANTIES, EXPRESS OR IMPLIED, INCLUDING THE IMPLIED
  22:C:/Workspace/FW_Inertia/branch_indesit/HAL/RN_RX200/IEC60335_B_libs/src/RAM\ramtest_march_x_wom.c **** 			  WARRANTIES OF MERCHANTABILITY AND FITNESS FOR A PARTICULAR PURPOSE.
  23:C:/Workspace/FW_Inertia/branch_indesit/HAL/RN_RX200/IEC60335_B_libs/src/RAM\ramtest_march_x_wom.c **** 
  24:C:/Workspace/FW_Inertia/branch_indesit/HAL/RN_RX200/IEC60335_B_libs/src/RAM\ramtest_march_x_wom.c **** FILE NAME  	: 	ramtest_march_x_wom.c
  25:C:/Workspace/FW_Inertia/branch_indesit/HAL/RN_RX200/IEC60335_B_libs/src/RAM\ramtest_march_x_wom.c **** 
  26:C:/Workspace/FW_Inertia/branch_indesit/HAL/RN_RX200/IEC60335_B_libs/src/RAM\ramtest_march_x_wom.c **** DESCRIPTION	: 	RAM memory test based on March X algorithm.
  27:C:/Workspace/FW_Inertia/branch_indesit/HAL/RN_RX200/IEC60335_B_libs/src/RAM\ramtest_march_x_wom.c **** 				The standard March X algorithm has been converted for 
  28:C:/Workspace/FW_Inertia/branch_indesit/HAL/RN_RX200/IEC60335_B_libs/src/RAM\ramtest_march_x_wom.c **** 				Word Oriented Memories to decrease the run time.
  29:C:/Workspace/FW_Inertia/branch_indesit/HAL/RN_RX200/IEC60335_B_libs/src/RAM\ramtest_march_x_wom.c **** 				An extra 2 March elements have been added for detection
  30:C:/Workspace/FW_Inertia/branch_indesit/HAL/RN_RX200/IEC60335_B_libs/src/RAM\ramtest_march_x_wom.c **** 				of intra word faults.
  31:C:/Workspace/FW_Inertia/branch_indesit/HAL/RN_RX200/IEC60335_B_libs/src/RAM\ramtest_march_x_wom.c **** 				The memory access width is defined in the header,
  32:C:/Workspace/FW_Inertia/branch_indesit/HAL/RN_RX200/IEC60335_B_libs/src/RAM\ramtest_march_x_wom.c **** 				see RAMTEST_MARCH_X_WOM_ACCESS_SIZE.
  33:C:/Workspace/FW_Inertia/branch_indesit/HAL/RN_RX200/IEC60335_B_libs/src/RAM\ramtest_march_x_wom.c **** 				The maximum ram test area is defined in the header,
  34:C:/Workspace/FW_Inertia/branch_indesit/HAL/RN_RX200/IEC60335_B_libs/src/RAM\ramtest_march_x_wom.c **** 				see RAMTEST_MARCH_X_WOM_MAX_WORDS.
  35:C:/Workspace/FW_Inertia/branch_indesit/HAL/RN_RX200/IEC60335_B_libs/src/RAM\ramtest_march_x_wom.c **** 
  36:C:/Workspace/FW_Inertia/branch_indesit/HAL/RN_RX200/IEC60335_B_libs/src/RAM\ramtest_march_x_wom.c **** 				The 6 steps of the algorithm:-
  37:C:/Workspace/FW_Inertia/branch_indesit/HAL/RN_RX200/IEC60335_B_libs/src/RAM\ramtest_march_x_wom.c **** 				(Note: The data values written depend on the defined access width,
  38:C:/Workspace/FW_Inertia/branch_indesit/HAL/RN_RX200/IEC60335_B_libs/src/RAM\ramtest_march_x_wom.c **** 				below is an example if using 16 bits.)				
  39:C:/Workspace/FW_Inertia/branch_indesit/HAL/RN_RX200/IEC60335_B_libs/src/RAM\ramtest_march_x_wom.c **** 				STEP1 - Write all zeros to RAM.
  40:C:/Workspace/FW_Inertia/branch_indesit/HAL/RN_RX200/IEC60335_B_libs/src/RAM\ramtest_march_x_wom.c **** 				STEP2 - Starting at lowest address,
  41:C:/Workspace/FW_Inertia/branch_indesit/HAL/RN_RX200/IEC60335_B_libs/src/RAM\ramtest_march_x_wom.c **** 						 check read zeros, write ones(0xFFFF).
  42:C:/Workspace/FW_Inertia/branch_indesit/HAL/RN_RX200/IEC60335_B_libs/src/RAM\ramtest_march_x_wom.c **** 				STEP3 - Starting at highest address,
  43:C:/Workspace/FW_Inertia/branch_indesit/HAL/RN_RX200/IEC60335_B_libs/src/RAM\ramtest_march_x_wom.c **** 						 read ones(0xFFFF), write zeros(0x0000).
  44:C:/Workspace/FW_Inertia/branch_indesit/HAL/RN_RX200/IEC60335_B_libs/src/RAM\ramtest_march_x_wom.c **** 				STEP4 - Starting at lowest address,
  45:C:/Workspace/FW_Inertia/branch_indesit/HAL/RN_RX200/IEC60335_B_libs/src/RAM\ramtest_march_x_wom.c **** 						 check read zeros, write 0xAAAA.
  46:C:/Workspace/FW_Inertia/branch_indesit/HAL/RN_RX200/IEC60335_B_libs/src/RAM\ramtest_march_x_wom.c **** 				STEP5 - Starting at highest address,
  47:C:/Workspace/FW_Inertia/branch_indesit/HAL/RN_RX200/IEC60335_B_libs/src/RAM\ramtest_march_x_wom.c **** 						 read 0xAAAA, write 0x5555.
  48:C:/Workspace/FW_Inertia/branch_indesit/HAL/RN_RX200/IEC60335_B_libs/src/RAM\ramtest_march_x_wom.c **** 				STEP6 - Check read all 0x5555 from RAM.
  49:C:/Workspace/FW_Inertia/branch_indesit/HAL/RN_RX200/IEC60335_B_libs/src/RAM\ramtest_march_x_wom.c **** ***********************************************************************************/
  50:C:/Workspace/FW_Inertia/branch_indesit/HAL/RN_RX200/IEC60335_B_libs/src/RAM\ramtest_march_x_wom.c **** 
  51:C:/Workspace/FW_Inertia/branch_indesit/HAL/RN_RX200/IEC60335_B_libs/src/RAM\ramtest_march_x_wom.c **** /**********************************************************************************
  52:C:/Workspace/FW_Inertia/branch_indesit/HAL/RN_RX200/IEC60335_B_libs/src/RAM\ramtest_march_x_wom.c **** Revision History
  53:C:/Workspace/FW_Inertia/branch_indesit/HAL/RN_RX200/IEC60335_B_libs/src/RAM\ramtest_march_x_wom.c **** DD-MMM-YYYY OSO-UID Description
  54:C:/Workspace/FW_Inertia/branch_indesit/HAL/RN_RX200/IEC60335_B_libs/src/RAM\ramtest_march_x_wom.c **** 24-Feb-2009 RTE-PJI First Release
  55:C:/Workspace/FW_Inertia/branch_indesit/HAL/RN_RX200/IEC60335_B_libs/src/RAM\ramtest_march_x_wom.c **** 28-May-2009 VDE (Version 1.0)
  56:C:/Workspace/FW_Inertia/branch_indesit/HAL/RN_RX200/IEC60335_B_libs/src/RAM\ramtest_march_x_wom.c **** ***********************************************************************************/
  57:C:/Workspace/FW_Inertia/branch_indesit/HAL/RN_RX200/IEC60335_B_libs/src/RAM\ramtest_march_x_wom.c **** 
  58:C:/Workspace/FW_Inertia/branch_indesit/HAL/RN_RX200/IEC60335_B_libs/src/RAM\ramtest_march_x_wom.c **** /***********************************************************************************
  59:C:/Workspace/FW_Inertia/branch_indesit/HAL/RN_RX200/IEC60335_B_libs/src/RAM\ramtest_march_x_wom.c **** Includes
  60:C:/Workspace/FW_Inertia/branch_indesit/HAL/RN_RX200/IEC60335_B_libs/src/RAM\ramtest_march_x_wom.c **** ***********************************************************************************/
  61:C:/Workspace/FW_Inertia/branch_indesit/HAL/RN_RX200/IEC60335_B_libs/src/RAM\ramtest_march_x_wom.c **** #include <stddef.h> /*Provides NULL declaration*/
  62:C:/Workspace/FW_Inertia/branch_indesit/HAL/RN_RX200/IEC60335_B_libs/src/RAM\ramtest_march_x_wom.c **** #include "misratypes.h"
  63:C:/Workspace/FW_Inertia/branch_indesit/HAL/RN_RX200/IEC60335_B_libs/src/RAM\ramtest_march_x_wom.c **** #include "ramtest_march_x_wom.h"
  64:C:/Workspace/FW_Inertia/branch_indesit/HAL/RN_RX200/IEC60335_B_libs/src/RAM\ramtest_march_x_wom.c **** 
  65:C:/Workspace/FW_Inertia/branch_indesit/HAL/RN_RX200/IEC60335_B_libs/src/RAM\ramtest_march_x_wom.c **** /**********************************************************************************
  66:C:/Workspace/FW_Inertia/branch_indesit/HAL/RN_RX200/IEC60335_B_libs/src/RAM\ramtest_march_x_wom.c ****  #defines
  67:C:/Workspace/FW_Inertia/branch_indesit/HAL/RN_RX200/IEC60335_B_libs/src/RAM\ramtest_march_x_wom.c **** ***********************************************************************************/
  68:C:/Workspace/FW_Inertia/branch_indesit/HAL/RN_RX200/IEC60335_B_libs/src/RAM\ramtest_march_x_wom.c **** 
  69:C:/Workspace/FW_Inertia/branch_indesit/HAL/RN_RX200/IEC60335_B_libs/src/RAM\ramtest_march_x_wom.c **** /*The selected RAM access size changes the followign #defines.*/
  70:C:/Workspace/FW_Inertia/branch_indesit/HAL/RN_RX200/IEC60335_B_libs/src/RAM\ramtest_march_x_wom.c **** #if (RAMTEST_MARCH_X_WOM_ACCESS_SIZE == RAMTEST_MARCH_X_WOM_ACCESS_SIZE_8BIT)
  71:C:/Workspace/FW_Inertia/branch_indesit/HAL/RN_RX200/IEC60335_B_libs/src/RAM\ramtest_march_x_wom.c **** 	/*8 bit access */
  72:C:/Workspace/FW_Inertia/branch_indesit/HAL/RN_RX200/IEC60335_B_libs/src/RAM\ramtest_march_x_wom.c **** 
  73:C:/Workspace/FW_Inertia/branch_indesit/HAL/RN_RX200/IEC60335_B_libs/src/RAM\ramtest_march_x_wom.c **** 	/*Data Patterns used*/
  74:C:/Workspace/FW_Inertia/branch_indesit/HAL/RN_RX200/IEC60335_B_libs/src/RAM\ramtest_march_x_wom.c **** 	#define DATA_PATTERN_0s 0x00U
  75:C:/Workspace/FW_Inertia/branch_indesit/HAL/RN_RX200/IEC60335_B_libs/src/RAM\ramtest_march_x_wom.c **** 	#define DATA_PATTERN_Fs 0xFFU
  76:C:/Workspace/FW_Inertia/branch_indesit/HAL/RN_RX200/IEC60335_B_libs/src/RAM\ramtest_march_x_wom.c **** 	#define DATA_PATTERN_As 0xAAU
  77:C:/Workspace/FW_Inertia/branch_indesit/HAL/RN_RX200/IEC60335_B_libs/src/RAM\ramtest_march_x_wom.c **** 	#define DATA_PATTERN_5s 0x55U
  78:C:/Workspace/FW_Inertia/branch_indesit/HAL/RN_RX200/IEC60335_B_libs/src/RAM\ramtest_march_x_wom.c **** 	
  79:C:/Workspace/FW_Inertia/branch_indesit/HAL/RN_RX200/IEC60335_B_libs/src/RAM\ramtest_march_x_wom.c **** 	/*Number of bytes in WORD*/
  80:C:/Workspace/FW_Inertia/branch_indesit/HAL/RN_RX200/IEC60335_B_libs/src/RAM\ramtest_march_x_wom.c **** 	#define BYTES_PER_WORD 1U
  81:C:/Workspace/FW_Inertia/branch_indesit/HAL/RN_RX200/IEC60335_B_libs/src/RAM\ramtest_march_x_wom.c **** 	
  82:C:/Workspace/FW_Inertia/branch_indesit/HAL/RN_RX200/IEC60335_B_libs/src/RAM\ramtest_march_x_wom.c **** 	/*Used to check an address is 8 bit alligned */
  83:C:/Workspace/FW_Inertia/branch_indesit/HAL/RN_RX200/IEC60335_B_libs/src/RAM\ramtest_march_x_wom.c **** 	#define ALIGNMENT_BITS 0x00000000UL
  84:C:/Workspace/FW_Inertia/branch_indesit/HAL/RN_RX200/IEC60335_B_libs/src/RAM\ramtest_march_x_wom.c **** 	
  85:C:/Workspace/FW_Inertia/branch_indesit/HAL/RN_RX200/IEC60335_B_libs/src/RAM\ramtest_march_x_wom.c **** 	/*Set the variable type used for RAM access*/
  86:C:/Workspace/FW_Inertia/branch_indesit/HAL/RN_RX200/IEC60335_B_libs/src/RAM\ramtest_march_x_wom.c **** 	typedef uint8_t    TYPE_ACCESS_t;
  87:C:/Workspace/FW_Inertia/branch_indesit/HAL/RN_RX200/IEC60335_B_libs/src/RAM\ramtest_march_x_wom.c **** 			
  88:C:/Workspace/FW_Inertia/branch_indesit/HAL/RN_RX200/IEC60335_B_libs/src/RAM\ramtest_march_x_wom.c **** #elif (RAMTEST_MARCH_X_WOM_ACCESS_SIZE == RAMTEST_MARCH_X_WOM_ACCESS_SIZE_16BIT)
  89:C:/Workspace/FW_Inertia/branch_indesit/HAL/RN_RX200/IEC60335_B_libs/src/RAM\ramtest_march_x_wom.c **** 	/*16 bit access */
  90:C:/Workspace/FW_Inertia/branch_indesit/HAL/RN_RX200/IEC60335_B_libs/src/RAM\ramtest_march_x_wom.c **** 	
  91:C:/Workspace/FW_Inertia/branch_indesit/HAL/RN_RX200/IEC60335_B_libs/src/RAM\ramtest_march_x_wom.c **** 	/*Data Patterns used*/
  92:C:/Workspace/FW_Inertia/branch_indesit/HAL/RN_RX200/IEC60335_B_libs/src/RAM\ramtest_march_x_wom.c **** 	#define DATA_PATTERN_0s 0x0000U
  93:C:/Workspace/FW_Inertia/branch_indesit/HAL/RN_RX200/IEC60335_B_libs/src/RAM\ramtest_march_x_wom.c **** 	#define DATA_PATTERN_Fs 0xFFFFU
  94:C:/Workspace/FW_Inertia/branch_indesit/HAL/RN_RX200/IEC60335_B_libs/src/RAM\ramtest_march_x_wom.c **** 	#define DATA_PATTERN_As 0xAAAAU
  95:C:/Workspace/FW_Inertia/branch_indesit/HAL/RN_RX200/IEC60335_B_libs/src/RAM\ramtest_march_x_wom.c **** 	#define DATA_PATTERN_5s 0x5555U
  96:C:/Workspace/FW_Inertia/branch_indesit/HAL/RN_RX200/IEC60335_B_libs/src/RAM\ramtest_march_x_wom.c **** 	
  97:C:/Workspace/FW_Inertia/branch_indesit/HAL/RN_RX200/IEC60335_B_libs/src/RAM\ramtest_march_x_wom.c **** 	/*Number of bytes in WORD*/
  98:C:/Workspace/FW_Inertia/branch_indesit/HAL/RN_RX200/IEC60335_B_libs/src/RAM\ramtest_march_x_wom.c **** 	#define BYTES_PER_WORD 2U
  99:C:/Workspace/FW_Inertia/branch_indesit/HAL/RN_RX200/IEC60335_B_libs/src/RAM\ramtest_march_x_wom.c **** 	
 100:C:/Workspace/FW_Inertia/branch_indesit/HAL/RN_RX200/IEC60335_B_libs/src/RAM\ramtest_march_x_wom.c **** 	/*Used to check an address is 16 bit alligned */
 101:C:/Workspace/FW_Inertia/branch_indesit/HAL/RN_RX200/IEC60335_B_libs/src/RAM\ramtest_march_x_wom.c **** 	#define ALIGNMENT_BITS 0x00000001UL
 102:C:/Workspace/FW_Inertia/branch_indesit/HAL/RN_RX200/IEC60335_B_libs/src/RAM\ramtest_march_x_wom.c **** 	
 103:C:/Workspace/FW_Inertia/branch_indesit/HAL/RN_RX200/IEC60335_B_libs/src/RAM\ramtest_march_x_wom.c **** 	/*Set the variable type used for RAM access*/
 104:C:/Workspace/FW_Inertia/branch_indesit/HAL/RN_RX200/IEC60335_B_libs/src/RAM\ramtest_march_x_wom.c **** 	typedef uint16_t    TYPE_ACCESS_t;
 105:C:/Workspace/FW_Inertia/branch_indesit/HAL/RN_RX200/IEC60335_B_libs/src/RAM\ramtest_march_x_wom.c **** 
 106:C:/Workspace/FW_Inertia/branch_indesit/HAL/RN_RX200/IEC60335_B_libs/src/RAM\ramtest_march_x_wom.c **** #elif (RAMTEST_MARCH_X_WOM_ACCESS_SIZE == RAMTEST_MARCH_X_WOM_ACCESS_SIZE_32BIT)
 107:C:/Workspace/FW_Inertia/branch_indesit/HAL/RN_RX200/IEC60335_B_libs/src/RAM\ramtest_march_x_wom.c **** 	/*32 bit access */
 108:C:/Workspace/FW_Inertia/branch_indesit/HAL/RN_RX200/IEC60335_B_libs/src/RAM\ramtest_march_x_wom.c **** 	
 109:C:/Workspace/FW_Inertia/branch_indesit/HAL/RN_RX200/IEC60335_B_libs/src/RAM\ramtest_march_x_wom.c **** 	/*Data Patterns used*/
 110:C:/Workspace/FW_Inertia/branch_indesit/HAL/RN_RX200/IEC60335_B_libs/src/RAM\ramtest_march_x_wom.c **** 	#define DATA_PATTERN_0s 0x00000000UL
 111:C:/Workspace/FW_Inertia/branch_indesit/HAL/RN_RX200/IEC60335_B_libs/src/RAM\ramtest_march_x_wom.c **** 	#define DATA_PATTERN_Fs 0xFFFFFFFFUL
 112:C:/Workspace/FW_Inertia/branch_indesit/HAL/RN_RX200/IEC60335_B_libs/src/RAM\ramtest_march_x_wom.c **** 	#define DATA_PATTERN_As 0xAAAAAAAAUL
 113:C:/Workspace/FW_Inertia/branch_indesit/HAL/RN_RX200/IEC60335_B_libs/src/RAM\ramtest_march_x_wom.c **** 	#define DATA_PATTERN_5s 0x55555555UL
 114:C:/Workspace/FW_Inertia/branch_indesit/HAL/RN_RX200/IEC60335_B_libs/src/RAM\ramtest_march_x_wom.c **** 	
 115:C:/Workspace/FW_Inertia/branch_indesit/HAL/RN_RX200/IEC60335_B_libs/src/RAM\ramtest_march_x_wom.c **** 	/*Number of bytes in WORD*/
 116:C:/Workspace/FW_Inertia/branch_indesit/HAL/RN_RX200/IEC60335_B_libs/src/RAM\ramtest_march_x_wom.c **** 	#define BYTES_PER_WORD 4U
 117:C:/Workspace/FW_Inertia/branch_indesit/HAL/RN_RX200/IEC60335_B_libs/src/RAM\ramtest_march_x_wom.c **** 	
 118:C:/Workspace/FW_Inertia/branch_indesit/HAL/RN_RX200/IEC60335_B_libs/src/RAM\ramtest_march_x_wom.c **** 	/*Used to check an address is 32 bit alligned */
 119:C:/Workspace/FW_Inertia/branch_indesit/HAL/RN_RX200/IEC60335_B_libs/src/RAM\ramtest_march_x_wom.c **** 	#define ALIGNMENT_BITS 0x00000003UL
 120:C:/Workspace/FW_Inertia/branch_indesit/HAL/RN_RX200/IEC60335_B_libs/src/RAM\ramtest_march_x_wom.c **** 	
 121:C:/Workspace/FW_Inertia/branch_indesit/HAL/RN_RX200/IEC60335_B_libs/src/RAM\ramtest_march_x_wom.c **** 	/*Set the variable type used for RAM access*/
 122:C:/Workspace/FW_Inertia/branch_indesit/HAL/RN_RX200/IEC60335_B_libs/src/RAM\ramtest_march_x_wom.c **** 	typedef uint32_t    TYPE_ACCESS_t;
 123:C:/Workspace/FW_Inertia/branch_indesit/HAL/RN_RX200/IEC60335_B_libs/src/RAM\ramtest_march_x_wom.c **** #endif
 124:C:/Workspace/FW_Inertia/branch_indesit/HAL/RN_RX200/IEC60335_B_libs/src/RAM\ramtest_march_x_wom.c **** 
 125:C:/Workspace/FW_Inertia/branch_indesit/HAL/RN_RX200/IEC60335_B_libs/src/RAM\ramtest_march_x_wom.c **** /*Sets the variable type used to hold the number of WORDS in the test are,
 126:C:/Workspace/FW_Inertia/branch_indesit/HAL/RN_RX200/IEC60335_B_libs/src/RAM\ramtest_march_x_wom.c **** see header file for explanation.*/
 127:C:/Workspace/FW_Inertia/branch_indesit/HAL/RN_RX200/IEC60335_B_libs/src/RAM\ramtest_march_x_wom.c **** #if (RAMTEST_MARCH_X_WOM_MAX_WORDS == RAMTEST_MARCH_X_WOM_MAX_WORDS_8BIT)
 128:C:/Workspace/FW_Inertia/branch_indesit/HAL/RN_RX200/IEC60335_B_libs/src/RAM\ramtest_march_x_wom.c **** 	typedef uint8_t    TYPE_WORDS_t;
 129:C:/Workspace/FW_Inertia/branch_indesit/HAL/RN_RX200/IEC60335_B_libs/src/RAM\ramtest_march_x_wom.c **** #elif (RAMTEST_MARCH_X_WOM_MAX_WORDS == RAMTEST_MARCH_X_WOM_MAX_WORDS_16BIT)
 130:C:/Workspace/FW_Inertia/branch_indesit/HAL/RN_RX200/IEC60335_B_libs/src/RAM\ramtest_march_x_wom.c **** 	typedef uint16_t   TYPE_WORDS_t;
 131:C:/Workspace/FW_Inertia/branch_indesit/HAL/RN_RX200/IEC60335_B_libs/src/RAM\ramtest_march_x_wom.c **** #elif (RAMTEST_MARCH_X_WOM_MAX_WORDS == RAMTEST_MARCH_X_WOM_MAX_WORDS_32BIT)
 132:C:/Workspace/FW_Inertia/branch_indesit/HAL/RN_RX200/IEC60335_B_libs/src/RAM\ramtest_march_x_wom.c **** 	typedef uint32_t   TYPE_WORDS_t;
 133:C:/Workspace/FW_Inertia/branch_indesit/HAL/RN_RX200/IEC60335_B_libs/src/RAM\ramtest_march_x_wom.c **** #endif
 134:C:/Workspace/FW_Inertia/branch_indesit/HAL/RN_RX200/IEC60335_B_libs/src/RAM\ramtest_march_x_wom.c **** 
 135:C:/Workspace/FW_Inertia/branch_indesit/HAL/RN_RX200/IEC60335_B_libs/src/RAM\ramtest_march_x_wom.c **** /***********************************************************************************
 136:C:/Workspace/FW_Inertia/branch_indesit/HAL/RN_RX200/IEC60335_B_libs/src/RAM\ramtest_march_x_wom.c **** Function Prototypes
 137:C:/Workspace/FW_Inertia/branch_indesit/HAL/RN_RX200/IEC60335_B_libs/src/RAM\ramtest_march_x_wom.c **** ***********************************************************************************/					
 138:C:/Workspace/FW_Inertia/branch_indesit/HAL/RN_RX200/IEC60335_B_libs/src/RAM\ramtest_march_x_wom.c **** static bool_t Start_March_X_WOM(volatile TYPE_ACCESS_t* pui_RAM, 
 139:C:/Workspace/FW_Inertia/branch_indesit/HAL/RN_RX200/IEC60335_B_libs/src/RAM\ramtest_march_x_wom.c **** 									const TYPE_WORDS_t ui_NumBlocks);
 140:C:/Workspace/FW_Inertia/branch_indesit/HAL/RN_RX200/IEC60335_B_libs/src/RAM\ramtest_march_x_wom.c **** 
 141:C:/Workspace/FW_Inertia/branch_indesit/HAL/RN_RX200/IEC60335_B_libs/src/RAM\ramtest_march_x_wom.c **** static bool_t March_X_WOM_increment(volatile TYPE_ACCESS_t* pui_RAM,
 142:C:/Workspace/FW_Inertia/branch_indesit/HAL/RN_RX200/IEC60335_B_libs/src/RAM\ramtest_march_x_wom.c **** 										const TYPE_WORDS_t ui_NumBlocks,
 143:C:/Workspace/FW_Inertia/branch_indesit/HAL/RN_RX200/IEC60335_B_libs/src/RAM\ramtest_march_x_wom.c **** 										const TYPE_ACCESS_t ui_ValueRead,
 144:C:/Workspace/FW_Inertia/branch_indesit/HAL/RN_RX200/IEC60335_B_libs/src/RAM\ramtest_march_x_wom.c **** 					 					const TYPE_ACCESS_t ui_ValueWrite);
 145:C:/Workspace/FW_Inertia/branch_indesit/HAL/RN_RX200/IEC60335_B_libs/src/RAM\ramtest_march_x_wom.c **** 					
 146:C:/Workspace/FW_Inertia/branch_indesit/HAL/RN_RX200/IEC60335_B_libs/src/RAM\ramtest_march_x_wom.c **** static bool_t March_X_WOM_decrement(volatile TYPE_ACCESS_t* pui_RAM,
 147:C:/Workspace/FW_Inertia/branch_indesit/HAL/RN_RX200/IEC60335_B_libs/src/RAM\ramtest_march_x_wom.c **** 						 				const TYPE_WORDS_t ui_NumBlocks,
 148:C:/Workspace/FW_Inertia/branch_indesit/HAL/RN_RX200/IEC60335_B_libs/src/RAM\ramtest_march_x_wom.c **** 										const TYPE_ACCESS_t ui_ValueRead,
 149:C:/Workspace/FW_Inertia/branch_indesit/HAL/RN_RX200/IEC60335_B_libs/src/RAM\ramtest_march_x_wom.c **** 										const TYPE_ACCESS_t ui_ValueWrite);
 150:C:/Workspace/FW_Inertia/branch_indesit/HAL/RN_RX200/IEC60335_B_libs/src/RAM\ramtest_march_x_wom.c **** 										
 151:C:/Workspace/FW_Inertia/branch_indesit/HAL/RN_RX200/IEC60335_B_libs/src/RAM\ramtest_march_x_wom.c **** static void MemoryCopy(const volatile TYPE_ACCESS_t* const pui_Source,
 152:C:/Workspace/FW_Inertia/branch_indesit/HAL/RN_RX200/IEC60335_B_libs/src/RAM\ramtest_march_x_wom.c **** 						volatile TYPE_ACCESS_t* const pui_Dest,
 153:C:/Workspace/FW_Inertia/branch_indesit/HAL/RN_RX200/IEC60335_B_libs/src/RAM\ramtest_march_x_wom.c **** 						const TYPE_WORDS_t ui_NumBlocks);
 154:C:/Workspace/FW_Inertia/branch_indesit/HAL/RN_RX200/IEC60335_B_libs/src/RAM\ramtest_march_x_wom.c **** 
 155:C:/Workspace/FW_Inertia/branch_indesit/HAL/RN_RX200/IEC60335_B_libs/src/RAM\ramtest_march_x_wom.c **** 
 156:C:/Workspace/FW_Inertia/branch_indesit/HAL/RN_RX200/IEC60335_B_libs/src/RAM\ramtest_march_x_wom.c **** /***********************************************************************************
 157:C:/Workspace/FW_Inertia/branch_indesit/HAL/RN_RX200/IEC60335_B_libs/src/RAM\ramtest_march_x_wom.c **** User Program Code
 158:C:/Workspace/FW_Inertia/branch_indesit/HAL/RN_RX200/IEC60335_B_libs/src/RAM\ramtest_march_x_wom.c **** ***********************************************************************************/
 159:C:/Workspace/FW_Inertia/branch_indesit/HAL/RN_RX200/IEC60335_B_libs/src/RAM\ramtest_march_x_wom.c **** 
 160:C:/Workspace/FW_Inertia/branch_indesit/HAL/RN_RX200/IEC60335_B_libs/src/RAM\ramtest_march_x_wom.c **** /***********************************************************************************
 161:C:/Workspace/FW_Inertia/branch_indesit/HAL/RN_RX200/IEC60335_B_libs/src/RAM\ramtest_march_x_wom.c **** Function Name : RamTest_March_X_WOM_Extra
 162:C:/Workspace/FW_Inertia/branch_indesit/HAL/RN_RX200/IEC60335_B_libs/src/RAM\ramtest_march_x_wom.c **** Description   :	RAM memory test using March X algorithm for WOM.
 163:C:/Workspace/FW_Inertia/branch_indesit/HAL/RN_RX200/IEC60335_B_libs/src/RAM\ramtest_march_x_wom.c **** 				The test is non-destructive. This is achieved by copying the
 164:C:/Workspace/FW_Inertia/branch_indesit/HAL/RN_RX200/IEC60335_B_libs/src/RAM\ramtest_march_x_wom.c **** 				contents of the test are to a supplied buffer (pui_RAMSafe)
 165:C:/Workspace/FW_Inertia/branch_indesit/HAL/RN_RX200/IEC60335_B_libs/src/RAM\ramtest_march_x_wom.c **** 				before the test and then restoring the contents after the test.
 166:C:/Workspace/FW_Inertia/branch_indesit/HAL/RN_RX200/IEC60335_B_libs/src/RAM\ramtest_march_x_wom.c **** 				Before using the buffer (pui_RAMSafe) a destructive memory test
 167:C:/Workspace/FW_Inertia/branch_indesit/HAL/RN_RX200/IEC60335_B_libs/src/RAM\ramtest_march_x_wom.c **** 				is performed on it. If it fails the main test will not be performed
 168:C:/Workspace/FW_Inertia/branch_indesit/HAL/RN_RX200/IEC60335_B_libs/src/RAM\ramtest_march_x_wom.c **** 				and the function will return Test Failed.
 169:C:/Workspace/FW_Inertia/branch_indesit/HAL/RN_RX200/IEC60335_B_libs/src/RAM\ramtest_march_x_wom.c **** 				
 170:C:/Workspace/FW_Inertia/branch_indesit/HAL/RN_RX200/IEC60335_B_libs/src/RAM\ramtest_march_x_wom.c **** Parameters    : ui32_StartAddr - Start address (Aligned with chosen access width).
 171:C:/Workspace/FW_Inertia/branch_indesit/HAL/RN_RX200/IEC60335_B_libs/src/RAM\ramtest_march_x_wom.c **** 				ui32_EndAddr   - End address (Aligned with chosen access width).
 172:C:/Workspace/FW_Inertia/branch_indesit/HAL/RN_RX200/IEC60335_B_libs/src/RAM\ramtest_march_x_wom.c **** 				pui_RAMSafe    - Set to the start of a buffer that is the same size
 173:C:/Workspace/FW_Inertia/branch_indesit/HAL/RN_RX200/IEC60335_B_libs/src/RAM\ramtest_march_x_wom.c **** 				 				 as the test RAM area. (Aligned with chosen access width)
 174:C:/Workspace/FW_Inertia/branch_indesit/HAL/RN_RX200/IEC60335_B_libs/src/RAM\ramtest_march_x_wom.c **** 				
 175:C:/Workspace/FW_Inertia/branch_indesit/HAL/RN_RX200/IEC60335_B_libs/src/RAM\ramtest_march_x_wom.c **** 				Note: StartAddr must be less than or equall to the end address.
 176:C:/Workspace/FW_Inertia/branch_indesit/HAL/RN_RX200/IEC60335_B_libs/src/RAM\ramtest_march_x_wom.c **** 				
 177:C:/Workspace/FW_Inertia/branch_indesit/HAL/RN_RX200/IEC60335_B_libs/src/RAM\ramtest_march_x_wom.c **** Return Value  : TRUE = TEST Passed. FALSE = TEST or parameter check Failed.
 178:C:/Workspace/FW_Inertia/branch_indesit/HAL/RN_RX200/IEC60335_B_libs/src/RAM\ramtest_march_x_wom.c **** ***********************************************************************************/
 179:C:/Workspace/FW_Inertia/branch_indesit/HAL/RN_RX200/IEC60335_B_libs/src/RAM\ramtest_march_x_wom.c **** bool_t RamTest_March_X_WOM_Extra(const uint32_t ui32_StartAddr,
 180:C:/Workspace/FW_Inertia/branch_indesit/HAL/RN_RX200/IEC60335_B_libs/src/RAM\ramtest_march_x_wom.c **** 							 	const uint32_t ui32_EndAddr,
 181:C:/Workspace/FW_Inertia/branch_indesit/HAL/RN_RX200/IEC60335_B_libs/src/RAM\ramtest_march_x_wom.c **** 								void* const p_RAMSafe)
 182:C:/Workspace/FW_Inertia/branch_indesit/HAL/RN_RX200/IEC60335_B_libs/src/RAM\ramtest_march_x_wom.c **** {
 183:C:/Workspace/FW_Inertia/branch_indesit/HAL/RN_RX200/IEC60335_B_libs/src/RAM\ramtest_march_x_wom.c **** 	bool_t b_Result;
 184:C:/Workspace/FW_Inertia/branch_indesit/HAL/RN_RX200/IEC60335_B_libs/src/RAM\ramtest_march_x_wom.c **** 	uint32_t ui32_NumBlocks;
 185:C:/Workspace/FW_Inertia/branch_indesit/HAL/RN_RX200/IEC60335_B_libs/src/RAM\ramtest_march_x_wom.c **** 	
 186:C:/Workspace/FW_Inertia/branch_indesit/HAL/RN_RX200/IEC60335_B_libs/src/RAM\ramtest_march_x_wom.c **** 	/*Convert to the selected access width*/
 187:C:/Workspace/FW_Inertia/branch_indesit/HAL/RN_RX200/IEC60335_B_libs/src/RAM\ramtest_march_x_wom.c **** 	TYPE_ACCESS_t* pui_RAMSafe = (TYPE_ACCESS_t*)p_RAMSafe;
 188:C:/Workspace/FW_Inertia/branch_indesit/HAL/RN_RX200/IEC60335_B_libs/src/RAM\ramtest_march_x_wom.c **** 	
 189:C:/Workspace/FW_Inertia/branch_indesit/HAL/RN_RX200/IEC60335_B_libs/src/RAM\ramtest_march_x_wom.c **** 	/*Perform quick check that pui_RAMSafe is not NULL as this is not allowed
 190:C:/Workspace/FW_Inertia/branch_indesit/HAL/RN_RX200/IEC60335_B_libs/src/RAM\ramtest_march_x_wom.c **** 	for this '_Extra' function but is for the non '_Extra' function.*/
 191:C:/Workspace/FW_Inertia/branch_indesit/HAL/RN_RX200/IEC60335_B_libs/src/RAM\ramtest_march_x_wom.c **** 	if(NULL == pui_RAMSafe)
 192:C:/Workspace/FW_Inertia/branch_indesit/HAL/RN_RX200/IEC60335_B_libs/src/RAM\ramtest_march_x_wom.c **** 	{
 193:C:/Workspace/FW_Inertia/branch_indesit/HAL/RN_RX200/IEC60335_B_libs/src/RAM\ramtest_march_x_wom.c **** 		b_Result = FALSE;
 194:C:/Workspace/FW_Inertia/branch_indesit/HAL/RN_RX200/IEC60335_B_libs/src/RAM\ramtest_march_x_wom.c **** 	}
 195:C:/Workspace/FW_Inertia/branch_indesit/HAL/RN_RX200/IEC60335_B_libs/src/RAM\ramtest_march_x_wom.c **** 	else
 196:C:/Workspace/FW_Inertia/branch_indesit/HAL/RN_RX200/IEC60335_B_libs/src/RAM\ramtest_march_x_wom.c **** 	{
 197:C:/Workspace/FW_Inertia/branch_indesit/HAL/RN_RX200/IEC60335_B_libs/src/RAM\ramtest_march_x_wom.c **** 		/*Calculate the number of words this covers*/
 198:C:/Workspace/FW_Inertia/branch_indesit/HAL/RN_RX200/IEC60335_B_libs/src/RAM\ramtest_march_x_wom.c **** 		ui32_NumBlocks = 1 + ((ui32_EndAddr - ui32_StartAddr) / BYTES_PER_WORD);
 199:C:/Workspace/FW_Inertia/branch_indesit/HAL/RN_RX200/IEC60335_B_libs/src/RAM\ramtest_march_x_wom.c **** 		
 200:C:/Workspace/FW_Inertia/branch_indesit/HAL/RN_RX200/IEC60335_B_libs/src/RAM\ramtest_march_x_wom.c **** 		/*First test the 'Safe' buffer. This is a destructive test.*/
 201:C:/Workspace/FW_Inertia/branch_indesit/HAL/RN_RX200/IEC60335_B_libs/src/RAM\ramtest_march_x_wom.c **** 		/*NOTE: This causes MISRA message 0306 -
 202:C:/Workspace/FW_Inertia/branch_indesit/HAL/RN_RX200/IEC60335_B_libs/src/RAM\ramtest_march_x_wom.c **** 		"The size of integer required to hold the result of a pointer cast is implementation-defined."
 203:C:/Workspace/FW_Inertia/branch_indesit/HAL/RN_RX200/IEC60335_B_libs/src/RAM\ramtest_march_x_wom.c **** 		This is recognised as unavoidable for certain embedded applications.*/
 204:C:/Workspace/FW_Inertia/branch_indesit/HAL/RN_RX200/IEC60335_B_libs/src/RAM\ramtest_march_x_wom.c **** 		b_Result = RamTest_March_X_WOM((uint32_t)&pui_RAMSafe[0],
 205:C:/Workspace/FW_Inertia/branch_indesit/HAL/RN_RX200/IEC60335_B_libs/src/RAM\ramtest_march_x_wom.c **** 										 (uint32_t)&pui_RAMSafe[ui32_NumBlocks-1], NULL);
 206:C:/Workspace/FW_Inertia/branch_indesit/HAL/RN_RX200/IEC60335_B_libs/src/RAM\ramtest_march_x_wom.c **** 
 207:C:/Workspace/FW_Inertia/branch_indesit/HAL/RN_RX200/IEC60335_B_libs/src/RAM\ramtest_march_x_wom.c **** 		if(TRUE == b_Result)
 208:C:/Workspace/FW_Inertia/branch_indesit/HAL/RN_RX200/IEC60335_B_libs/src/RAM\ramtest_march_x_wom.c **** 		{
 209:C:/Workspace/FW_Inertia/branch_indesit/HAL/RN_RX200/IEC60335_B_libs/src/RAM\ramtest_march_x_wom.c **** 			/*Perform the main test.*/	
 210:C:/Workspace/FW_Inertia/branch_indesit/HAL/RN_RX200/IEC60335_B_libs/src/RAM\ramtest_march_x_wom.c **** 			b_Result = RamTest_March_X_WOM(ui32_StartAddr, ui32_EndAddr, pui_RAMSafe);
 211:C:/Workspace/FW_Inertia/branch_indesit/HAL/RN_RX200/IEC60335_B_libs/src/RAM\ramtest_march_x_wom.c **** 		}
 212:C:/Workspace/FW_Inertia/branch_indesit/HAL/RN_RX200/IEC60335_B_libs/src/RAM\ramtest_march_x_wom.c **** 	}
 213:C:/Workspace/FW_Inertia/branch_indesit/HAL/RN_RX200/IEC60335_B_libs/src/RAM\ramtest_march_x_wom.c **** 	
 214:C:/Workspace/FW_Inertia/branch_indesit/HAL/RN_RX200/IEC60335_B_libs/src/RAM\ramtest_march_x_wom.c **** 	return b_Result;
 215:C:/Workspace/FW_Inertia/branch_indesit/HAL/RN_RX200/IEC60335_B_libs/src/RAM\ramtest_march_x_wom.c **** }
 216:C:/Workspace/FW_Inertia/branch_indesit/HAL/RN_RX200/IEC60335_B_libs/src/RAM\ramtest_march_x_wom.c **** 								
 217:C:/Workspace/FW_Inertia/branch_indesit/HAL/RN_RX200/IEC60335_B_libs/src/RAM\ramtest_march_x_wom.c **** /***********************************************************************************
 218:C:/Workspace/FW_Inertia/branch_indesit/HAL/RN_RX200/IEC60335_B_libs/src/RAM\ramtest_march_x_wom.c **** Function Name : RamTest_March_X_WOM
 219:C:/Workspace/FW_Inertia/branch_indesit/HAL/RN_RX200/IEC60335_B_libs/src/RAM\ramtest_march_x_wom.c **** Description   :	RAM memory test using March X algorithm for WOM.
 220:C:/Workspace/FW_Inertia/branch_indesit/HAL/RN_RX200/IEC60335_B_libs/src/RAM\ramtest_march_x_wom.c **** Parameters    : ui32_StartAddr - Start address (Aligned with chosen access width).
 221:C:/Workspace/FW_Inertia/branch_indesit/HAL/RN_RX200/IEC60335_B_libs/src/RAM\ramtest_march_x_wom.c **** 				ui32_EndAddr   - end address (Aligned with chosen access width)
 222:C:/Workspace/FW_Inertia/branch_indesit/HAL/RN_RX200/IEC60335_B_libs/src/RAM\ramtest_march_x_wom.c **** 				pui_RAMSafe    - For a destructive memory test set to NULL.
 223:C:/Workspace/FW_Inertia/branch_indesit/HAL/RN_RX200/IEC60335_B_libs/src/RAM\ramtest_march_x_wom.c **** 								For a non-destructive memory test,
 224:C:/Workspace/FW_Inertia/branch_indesit/HAL/RN_RX200/IEC60335_B_libs/src/RAM\ramtest_march_x_wom.c **** 								set to the start of a buffer
 225:C:/Workspace/FW_Inertia/branch_indesit/HAL/RN_RX200/IEC60335_B_libs/src/RAM\ramtest_march_x_wom.c **** 								that is large enough to copy the contents
 226:C:/Workspace/FW_Inertia/branch_indesit/HAL/RN_RX200/IEC60335_B_libs/src/RAM\ramtest_march_x_wom.c **** 								of the test RAM area into it.
 227:C:/Workspace/FW_Inertia/branch_indesit/HAL/RN_RX200/IEC60335_B_libs/src/RAM\ramtest_march_x_wom.c **** 								(Aligned with chosen access width)
 228:C:/Workspace/FW_Inertia/branch_indesit/HAL/RN_RX200/IEC60335_B_libs/src/RAM\ramtest_march_x_wom.c **** 				
 229:C:/Workspace/FW_Inertia/branch_indesit/HAL/RN_RX200/IEC60335_B_libs/src/RAM\ramtest_march_x_wom.c **** 				Note: StartAddr must be less than or equall to the end address.
 230:C:/Workspace/FW_Inertia/branch_indesit/HAL/RN_RX200/IEC60335_B_libs/src/RAM\ramtest_march_x_wom.c **** 				
 231:C:/Workspace/FW_Inertia/branch_indesit/HAL/RN_RX200/IEC60335_B_libs/src/RAM\ramtest_march_x_wom.c **** Return Value  : TRUE = TEST Passed. FALSE = TEST or parameter check Failed.
 232:C:/Workspace/FW_Inertia/branch_indesit/HAL/RN_RX200/IEC60335_B_libs/src/RAM\ramtest_march_x_wom.c **** ***********************************************************************************/
 233:C:/Workspace/FW_Inertia/branch_indesit/HAL/RN_RX200/IEC60335_B_libs/src/RAM\ramtest_march_x_wom.c **** bool_t RamTest_March_X_WOM(const uint32_t ui32_StartAddr,
 234:C:/Workspace/FW_Inertia/branch_indesit/HAL/RN_RX200/IEC60335_B_libs/src/RAM\ramtest_march_x_wom.c **** 							 	const uint32_t ui32_EndAddr,
 235:C:/Workspace/FW_Inertia/branch_indesit/HAL/RN_RX200/IEC60335_B_libs/src/RAM\ramtest_march_x_wom.c **** 								void* const p_RAMSafe)
 236:C:/Workspace/FW_Inertia/branch_indesit/HAL/RN_RX200/IEC60335_B_libs/src/RAM\ramtest_march_x_wom.c **** {	
  10                             		.loc 1 236 0
  11                             	.LVL0:
  12 0000 EF 1E                   		mov.L	r1, r14
  13                             	.LVL1:
 237:C:/Workspace/FW_Inertia/branch_indesit/HAL/RN_RX200/IEC60335_B_libs/src/RAM\ramtest_march_x_wom.c **** 	bool_t b_Result = TRUE;
 238:C:/Workspace/FW_Inertia/branch_indesit/HAL/RN_RX200/IEC60335_B_libs/src/RAM\ramtest_march_x_wom.c **** 	uint32_t ui32_NumBlocks = 0;
 239:C:/Workspace/FW_Inertia/branch_indesit/HAL/RN_RX200/IEC60335_B_libs/src/RAM\ramtest_march_x_wom.c **** 	volatile TYPE_ACCESS_t* pui_RAM;
 240:C:/Workspace/FW_Inertia/branch_indesit/HAL/RN_RX200/IEC60335_B_libs/src/RAM\ramtest_march_x_wom.c **** 	
 241:C:/Workspace/FW_Inertia/branch_indesit/HAL/RN_RX200/IEC60335_B_libs/src/RAM\ramtest_march_x_wom.c **** 	/*Convert to the selected access width*/
 242:C:/Workspace/FW_Inertia/branch_indesit/HAL/RN_RX200/IEC60335_B_libs/src/RAM\ramtest_march_x_wom.c **** 	TYPE_ACCESS_t* pui_RAMSafe = (TYPE_ACCESS_t*)p_RAMSafe;
 243:C:/Workspace/FW_Inertia/branch_indesit/HAL/RN_RX200/IEC60335_B_libs/src/RAM\ramtest_march_x_wom.c **** 	
 244:C:/Workspace/FW_Inertia/branch_indesit/HAL/RN_RX200/IEC60335_B_libs/src/RAM\ramtest_march_x_wom.c **** 	/*Check parameters*/
 245:C:/Workspace/FW_Inertia/branch_indesit/HAL/RN_RX200/IEC60335_B_libs/src/RAM\ramtest_march_x_wom.c **** 	{
 246:C:/Workspace/FW_Inertia/branch_indesit/HAL/RN_RX200/IEC60335_B_libs/src/RAM\ramtest_march_x_wom.c **** 		/*Check start address is alligned with chosen access width.*/
 247:C:/Workspace/FW_Inertia/branch_indesit/HAL/RN_RX200/IEC60335_B_libs/src/RAM\ramtest_march_x_wom.c **** 		if((ui32_StartAddr & ALIGNMENT_BITS) != 0)
 248:C:/Workspace/FW_Inertia/branch_indesit/HAL/RN_RX200/IEC60335_B_libs/src/RAM\ramtest_march_x_wom.c **** 		{
 249:C:/Workspace/FW_Inertia/branch_indesit/HAL/RN_RX200/IEC60335_B_libs/src/RAM\ramtest_march_x_wom.c **** 			b_Result = FALSE;
 250:C:/Workspace/FW_Inertia/branch_indesit/HAL/RN_RX200/IEC60335_B_libs/src/RAM\ramtest_march_x_wom.c **** 		}
 251:C:/Workspace/FW_Inertia/branch_indesit/HAL/RN_RX200/IEC60335_B_libs/src/RAM\ramtest_march_x_wom.c **** 		/*Check end address is alligned with chosen access width*/
 252:C:/Workspace/FW_Inertia/branch_indesit/HAL/RN_RX200/IEC60335_B_libs/src/RAM\ramtest_march_x_wom.c **** 		else if((ui32_EndAddr & ALIGNMENT_BITS) != 0)
 253:C:/Workspace/FW_Inertia/branch_indesit/HAL/RN_RX200/IEC60335_B_libs/src/RAM\ramtest_march_x_wom.c **** 		{
 254:C:/Workspace/FW_Inertia/branch_indesit/HAL/RN_RX200/IEC60335_B_libs/src/RAM\ramtest_march_x_wom.c **** 			b_Result = FALSE;
 255:C:/Workspace/FW_Inertia/branch_indesit/HAL/RN_RX200/IEC60335_B_libs/src/RAM\ramtest_march_x_wom.c **** 		}
 256:C:/Workspace/FW_Inertia/branch_indesit/HAL/RN_RX200/IEC60335_B_libs/src/RAM\ramtest_march_x_wom.c **** 		/*Check end address is greater or equall to start address*/
 257:C:/Workspace/FW_Inertia/branch_indesit/HAL/RN_RX200/IEC60335_B_libs/src/RAM\ramtest_march_x_wom.c **** 		else if(ui32_StartAddr > ui32_EndAddr)
  14                             		.loc 1 257 0
  15 0002 47 21                   		cmp	r2, r1
  16 0004 25 05 38 EF 00          		bgtu	.L27
 258:C:/Workspace/FW_Inertia/branch_indesit/HAL/RN_RX200/IEC60335_B_libs/src/RAM\ramtest_march_x_wom.c **** 		{
 259:C:/Workspace/FW_Inertia/branch_indesit/HAL/RN_RX200/IEC60335_B_libs/src/RAM\ramtest_march_x_wom.c **** 			b_Result = FALSE;	
 260:C:/Workspace/FW_Inertia/branch_indesit/HAL/RN_RX200/IEC60335_B_libs/src/RAM\ramtest_march_x_wom.c **** 		}
 261:C:/Workspace/FW_Inertia/branch_indesit/HAL/RN_RX200/IEC60335_B_libs/src/RAM\ramtest_march_x_wom.c **** 		/*Check buffer is alligned with chosen access width (if it is being used)*/
 262:C:/Workspace/FW_Inertia/branch_indesit/HAL/RN_RX200/IEC60335_B_libs/src/RAM\ramtest_march_x_wom.c **** 		/*NOTE: This causes MISRA message 0306 -
 263:C:/Workspace/FW_Inertia/branch_indesit/HAL/RN_RX200/IEC60335_B_libs/src/RAM\ramtest_march_x_wom.c **** 		"The size of integer required to hold the result of a pointer cast is implementation-defined."
 264:C:/Workspace/FW_Inertia/branch_indesit/HAL/RN_RX200/IEC60335_B_libs/src/RAM\ramtest_march_x_wom.c **** 		This is recognised as unavoidable for certain embedded applications.*/
 265:C:/Workspace/FW_Inertia/branch_indesit/HAL/RN_RX200/IEC60335_B_libs/src/RAM\ramtest_march_x_wom.c **** 		else if( (pui_RAMSafe != NULL) &&
 266:C:/Workspace/FW_Inertia/branch_indesit/HAL/RN_RX200/IEC60335_B_libs/src/RAM\ramtest_march_x_wom.c **** 				 (((uint32_t)pui_RAMSafe & ALIGNMENT_BITS) != 0) )
 267:C:/Workspace/FW_Inertia/branch_indesit/HAL/RN_RX200/IEC60335_B_libs/src/RAM\ramtest_march_x_wom.c **** 		{
 268:C:/Workspace/FW_Inertia/branch_indesit/HAL/RN_RX200/IEC60335_B_libs/src/RAM\ramtest_march_x_wom.c **** 			b_Result = FALSE;	
 269:C:/Workspace/FW_Inertia/branch_indesit/HAL/RN_RX200/IEC60335_B_libs/src/RAM\ramtest_march_x_wom.c **** 		}	
 270:C:/Workspace/FW_Inertia/branch_indesit/HAL/RN_RX200/IEC60335_B_libs/src/RAM\ramtest_march_x_wom.c **** 		else
 271:C:/Workspace/FW_Inertia/branch_indesit/HAL/RN_RX200/IEC60335_B_libs/src/RAM\ramtest_march_x_wom.c **** 		{
 272:C:/Workspace/FW_Inertia/branch_indesit/HAL/RN_RX200/IEC60335_B_libs/src/RAM\ramtest_march_x_wom.c **** 			/*Calculate number of words this covers*/
 273:C:/Workspace/FW_Inertia/branch_indesit/HAL/RN_RX200/IEC60335_B_libs/src/RAM\ramtest_march_x_wom.c **** 			ui32_NumBlocks = 1 + ((ui32_EndAddr - ui32_StartAddr) / BYTES_PER_WORD);
  17                             		.loc 1 273 0
  18 0009 43 12                   		sub	r1, r2
  19                             	.LVL2:
  20 000b 62 12                   		add	#1, r2
  21                             	.LVL3:
 274:C:/Workspace/FW_Inertia/branch_indesit/HAL/RN_RX200/IEC60335_B_libs/src/RAM\ramtest_march_x_wom.c **** 		
 275:C:/Workspace/FW_Inertia/branch_indesit/HAL/RN_RX200/IEC60335_B_libs/src/RAM\ramtest_march_x_wom.c **** 			/*Check that the number of words required fits into any user defined
 276:C:/Workspace/FW_Inertia/branch_indesit/HAL/RN_RX200/IEC60335_B_libs/src/RAM\ramtest_march_x_wom.c **** 			limits that may have been set.*/
 277:C:/Workspace/FW_Inertia/branch_indesit/HAL/RN_RX200/IEC60335_B_libs/src/RAM\ramtest_march_x_wom.c **** 			#if (RAMTEST_MARCH_X_WOM_MAX_WORDS == RAMTEST_MARCH_X_WOM_MAX_WORDS_8BIT)
 278:C:/Workspace/FW_Inertia/branch_indesit/HAL/RN_RX200/IEC60335_B_libs/src/RAM\ramtest_march_x_wom.c **** 				if(ui32_NumBlocks > 0xFFuL)
 279:C:/Workspace/FW_Inertia/branch_indesit/HAL/RN_RX200/IEC60335_B_libs/src/RAM\ramtest_march_x_wom.c **** 				{
 280:C:/Workspace/FW_Inertia/branch_indesit/HAL/RN_RX200/IEC60335_B_libs/src/RAM\ramtest_march_x_wom.c **** 					b_Result = FALSE;
 281:C:/Workspace/FW_Inertia/branch_indesit/HAL/RN_RX200/IEC60335_B_libs/src/RAM\ramtest_march_x_wom.c **** 				}
 282:C:/Workspace/FW_Inertia/branch_indesit/HAL/RN_RX200/IEC60335_B_libs/src/RAM\ramtest_march_x_wom.c **** 			#elif (RAMTEST_MARCH_X_WOM_MAX_WORDS == RAMTEST_MARCH_X_WOM_MAX_WORDS_16BIT)
 283:C:/Workspace/FW_Inertia/branch_indesit/HAL/RN_RX200/IEC60335_B_libs/src/RAM\ramtest_march_x_wom.c **** 				if(ui32_NumBlocks > 0xFFFFuL)
 284:C:/Workspace/FW_Inertia/branch_indesit/HAL/RN_RX200/IEC60335_B_libs/src/RAM\ramtest_march_x_wom.c **** 				{
 285:C:/Workspace/FW_Inertia/branch_indesit/HAL/RN_RX200/IEC60335_B_libs/src/RAM\ramtest_march_x_wom.c **** 					b_Result = FALSE;
 286:C:/Workspace/FW_Inertia/branch_indesit/HAL/RN_RX200/IEC60335_B_libs/src/RAM\ramtest_march_x_wom.c **** 				}
 287:C:/Workspace/FW_Inertia/branch_indesit/HAL/RN_RX200/IEC60335_B_libs/src/RAM\ramtest_march_x_wom.c **** 			#endif
 288:C:/Workspace/FW_Inertia/branch_indesit/HAL/RN_RX200/IEC60335_B_libs/src/RAM\ramtest_march_x_wom.c **** 			/*Parameters Ok*/
 289:C:/Workspace/FW_Inertia/branch_indesit/HAL/RN_RX200/IEC60335_B_libs/src/RAM\ramtest_march_x_wom.c **** 		}
 290:C:/Workspace/FW_Inertia/branch_indesit/HAL/RN_RX200/IEC60335_B_libs/src/RAM\ramtest_march_x_wom.c **** 	}
 291:C:/Workspace/FW_Inertia/branch_indesit/HAL/RN_RX200/IEC60335_B_libs/src/RAM\ramtest_march_x_wom.c **** 	
 292:C:/Workspace/FW_Inertia/branch_indesit/HAL/RN_RX200/IEC60335_B_libs/src/RAM\ramtest_march_x_wom.c **** 	/*Only perform the test if the parameter checking was OK */	
 293:C:/Workspace/FW_Inertia/branch_indesit/HAL/RN_RX200/IEC60335_B_libs/src/RAM\ramtest_march_x_wom.c **** 	if(TRUE == b_Result)
 294:C:/Workspace/FW_Inertia/branch_indesit/HAL/RN_RX200/IEC60335_B_libs/src/RAM\ramtest_march_x_wom.c **** 	{
 295:C:/Workspace/FW_Inertia/branch_indesit/HAL/RN_RX200/IEC60335_B_libs/src/RAM\ramtest_march_x_wom.c **** 		/*Point to start of RAM to test*/
 296:C:/Workspace/FW_Inertia/branch_indesit/HAL/RN_RX200/IEC60335_B_libs/src/RAM\ramtest_march_x_wom.c **** 		/*NOTE: This causes MISRA message 0303 -
 297:C:/Workspace/FW_Inertia/branch_indesit/HAL/RN_RX200/IEC60335_B_libs/src/RAM\ramtest_march_x_wom.c **** 		"Cast between a pointer to volatile object and an integral type"
 298:C:/Workspace/FW_Inertia/branch_indesit/HAL/RN_RX200/IEC60335_B_libs/src/RAM\ramtest_march_x_wom.c **** 		This is recognised as unavoidable for certain embedded applications.*/
 299:C:/Workspace/FW_Inertia/branch_indesit/HAL/RN_RX200/IEC60335_B_libs/src/RAM\ramtest_march_x_wom.c **** 		pui_RAM = (volatile TYPE_ACCESS_t*)ui32_StartAddr;
 300:C:/Workspace/FW_Inertia/branch_indesit/HAL/RN_RX200/IEC60335_B_libs/src/RAM\ramtest_march_x_wom.c **** 		
 301:C:/Workspace/FW_Inertia/branch_indesit/HAL/RN_RX200/IEC60335_B_libs/src/RAM\ramtest_march_x_wom.c **** 		/*Do we need to keep the current RAM contents?*/
 302:C:/Workspace/FW_Inertia/branch_indesit/HAL/RN_RX200/IEC60335_B_libs/src/RAM\ramtest_march_x_wom.c **** 		if(pui_RAMSafe != NULL)
  22                             		.loc 1 302 0
  23 000d 61 03                   		cmp	#0, r3
  24 000f 21 14                   		bne	.L28
  25                             	.LVL4:
  26 0011 03                      		.balign 2,3,1
  27                             	.L6:
 303:C:/Workspace/FW_Inertia/branch_indesit/HAL/RN_RX200/IEC60335_B_libs/src/RAM\ramtest_march_x_wom.c **** 		{
 304:C:/Workspace/FW_Inertia/branch_indesit/HAL/RN_RX200/IEC60335_B_libs/src/RAM\ramtest_march_x_wom.c **** 			/*Copy Test area contents to safe RAM*/
 305:C:/Workspace/FW_Inertia/branch_indesit/HAL/RN_RX200/IEC60335_B_libs/src/RAM\ramtest_march_x_wom.c **** 			/*NOTE: This causes MISRA message 0303 -
 306:C:/Workspace/FW_Inertia/branch_indesit/HAL/RN_RX200/IEC60335_B_libs/src/RAM\ramtest_march_x_wom.c **** 			"Cast between a pointer to volatile object and an integral type"
 307:C:/Workspace/FW_Inertia/branch_indesit/HAL/RN_RX200/IEC60335_B_libs/src/RAM\ramtest_march_x_wom.c **** 			This is recognised as unavoidable for certain embedded applications.*/
 308:C:/Workspace/FW_Inertia/branch_indesit/HAL/RN_RX200/IEC60335_B_libs/src/RAM\ramtest_march_x_wom.c **** 			MemoryCopy((const TYPE_ACCESS_t*)ui32_StartAddr, 
 309:C:/Workspace/FW_Inertia/branch_indesit/HAL/RN_RX200/IEC60335_B_libs/src/RAM\ramtest_march_x_wom.c **** 						(volatile TYPE_ACCESS_t*)pui_RAMSafe,
 310:C:/Workspace/FW_Inertia/branch_indesit/HAL/RN_RX200/IEC60335_B_libs/src/RAM\ramtest_march_x_wom.c **** 						 (TYPE_WORDS_t)ui32_NumBlocks);
 311:C:/Workspace/FW_Inertia/branch_indesit/HAL/RN_RX200/IEC60335_B_libs/src/RAM\ramtest_march_x_wom.c **** 		}
 312:C:/Workspace/FW_Inertia/branch_indesit/HAL/RN_RX200/IEC60335_B_libs/src/RAM\ramtest_march_x_wom.c **** 	
 313:C:/Workspace/FW_Inertia/branch_indesit/HAL/RN_RX200/IEC60335_B_libs/src/RAM\ramtest_march_x_wom.c **** 		/*Perform the actual test*/
 314:C:/Workspace/FW_Inertia/branch_indesit/HAL/RN_RX200/IEC60335_B_libs/src/RAM\ramtest_march_x_wom.c **** 		b_Result = Start_March_X_WOM(pui_RAM, (TYPE_WORDS_t)ui32_NumBlocks);
 315:C:/Workspace/FW_Inertia/branch_indesit/HAL/RN_RX200/IEC60335_B_libs/src/RAM\ramtest_march_x_wom.c **** 		
 316:C:/Workspace/FW_Inertia/branch_indesit/HAL/RN_RX200/IEC60335_B_libs/src/RAM\ramtest_march_x_wom.c **** 		/*Do we need to restore the original RAM contents?*/
 317:C:/Workspace/FW_Inertia/branch_indesit/HAL/RN_RX200/IEC60335_B_libs/src/RAM\ramtest_march_x_wom.c **** 		if(pui_RAMSafe != NULL)
 318:C:/Workspace/FW_Inertia/branch_indesit/HAL/RN_RX200/IEC60335_B_libs/src/RAM\ramtest_march_x_wom.c **** 		{
 319:C:/Workspace/FW_Inertia/branch_indesit/HAL/RN_RX200/IEC60335_B_libs/src/RAM\ramtest_march_x_wom.c **** 			/*Copy Test area contents to safe RAM*/
 320:C:/Workspace/FW_Inertia/branch_indesit/HAL/RN_RX200/IEC60335_B_libs/src/RAM\ramtest_march_x_wom.c **** 			/*NOTE: This causes MISRA message 0303 -
 321:C:/Workspace/FW_Inertia/branch_indesit/HAL/RN_RX200/IEC60335_B_libs/src/RAM\ramtest_march_x_wom.c **** 			"Cast between a pointer to volatile object and an integral type"
 322:C:/Workspace/FW_Inertia/branch_indesit/HAL/RN_RX200/IEC60335_B_libs/src/RAM\ramtest_march_x_wom.c **** 			This is recognised as unavoidable for certain embedded applications.*/
 323:C:/Workspace/FW_Inertia/branch_indesit/HAL/RN_RX200/IEC60335_B_libs/src/RAM\ramtest_march_x_wom.c **** 			MemoryCopy((const volatile TYPE_ACCESS_t*)pui_RAMSafe,
 324:C:/Workspace/FW_Inertia/branch_indesit/HAL/RN_RX200/IEC60335_B_libs/src/RAM\ramtest_march_x_wom.c **** 			 			(volatile TYPE_ACCESS_t*)ui32_StartAddr,
 325:C:/Workspace/FW_Inertia/branch_indesit/HAL/RN_RX200/IEC60335_B_libs/src/RAM\ramtest_march_x_wom.c **** 						 (TYPE_WORDS_t)ui32_NumBlocks);
 326:C:/Workspace/FW_Inertia/branch_indesit/HAL/RN_RX200/IEC60335_B_libs/src/RAM\ramtest_march_x_wom.c **** 		}
 327:C:/Workspace/FW_Inertia/branch_indesit/HAL/RN_RX200/IEC60335_B_libs/src/RAM\ramtest_march_x_wom.c **** 	}
 328:C:/Workspace/FW_Inertia/branch_indesit/HAL/RN_RX200/IEC60335_B_libs/src/RAM\ramtest_march_x_wom.c **** 	
 329:C:/Workspace/FW_Inertia/branch_indesit/HAL/RN_RX200/IEC60335_B_libs/src/RAM\ramtest_march_x_wom.c **** 	return b_Result;
 330:C:/Workspace/FW_Inertia/branch_indesit/HAL/RN_RX200/IEC60335_B_libs/src/RAM\ramtest_march_x_wom.c **** }
 331:C:/Workspace/FW_Inertia/branch_indesit/HAL/RN_RX200/IEC60335_B_libs/src/RAM\ramtest_march_x_wom.c **** 
 332:C:/Workspace/FW_Inertia/branch_indesit/HAL/RN_RX200/IEC60335_B_libs/src/RAM\ramtest_march_x_wom.c **** /***********************************************************************************
 333:C:/Workspace/FW_Inertia/branch_indesit/HAL/RN_RX200/IEC60335_B_libs/src/RAM\ramtest_march_x_wom.c **** Function Name : Start_March_X_WOM
 334:C:/Workspace/FW_Inertia/branch_indesit/HAL/RN_RX200/IEC60335_B_libs/src/RAM\ramtest_march_x_wom.c **** Description   :	Perform the actual March X WOM test.
 335:C:/Workspace/FW_Inertia/branch_indesit/HAL/RN_RX200/IEC60335_B_libs/src/RAM\ramtest_march_x_wom.c **** 				The memory contents of the test area will be lost.
 336:C:/Workspace/FW_Inertia/branch_indesit/HAL/RN_RX200/IEC60335_B_libs/src/RAM\ramtest_march_x_wom.c **** 				 
 337:C:/Workspace/FW_Inertia/branch_indesit/HAL/RN_RX200/IEC60335_B_libs/src/RAM\ramtest_march_x_wom.c **** Parameters    : pui_RAM - pointer to start of RAM to test.
 338:C:/Workspace/FW_Inertia/branch_indesit/HAL/RN_RX200/IEC60335_B_libs/src/RAM\ramtest_march_x_wom.c **** 				ui_NumBlocks - number of words to test
 339:C:/Workspace/FW_Inertia/branch_indesit/HAL/RN_RX200/IEC60335_B_libs/src/RAM\ramtest_march_x_wom.c **** 				
 340:C:/Workspace/FW_Inertia/branch_indesit/HAL/RN_RX200/IEC60335_B_libs/src/RAM\ramtest_march_x_wom.c **** Return Value  : TRUE = TEST Passed. FALSE = TEST Failed.
 341:C:/Workspace/FW_Inertia/branch_indesit/HAL/RN_RX200/IEC60335_B_libs/src/RAM\ramtest_march_x_wom.c **** ***********************************************************************************/
 342:C:/Workspace/FW_Inertia/branch_indesit/HAL/RN_RX200/IEC60335_B_libs/src/RAM\ramtest_march_x_wom.c **** static bool_t Start_March_X_WOM(volatile TYPE_ACCESS_t* pui_RAM, 
 343:C:/Workspace/FW_Inertia/branch_indesit/HAL/RN_RX200/IEC60335_B_libs/src/RAM\ramtest_march_x_wom.c **** 									const TYPE_WORDS_t ui_NumBlocks)
 344:C:/Workspace/FW_Inertia/branch_indesit/HAL/RN_RX200/IEC60335_B_libs/src/RAM\ramtest_march_x_wom.c **** {
 345:C:/Workspace/FW_Inertia/branch_indesit/HAL/RN_RX200/IEC60335_B_libs/src/RAM\ramtest_march_x_wom.c **** 	bool_t b_Result = TRUE;
 346:C:/Workspace/FW_Inertia/branch_indesit/HAL/RN_RX200/IEC60335_B_libs/src/RAM\ramtest_march_x_wom.c **** 	TYPE_WORDS_t ui_BlockIndex;
 347:C:/Workspace/FW_Inertia/branch_indesit/HAL/RN_RX200/IEC60335_B_libs/src/RAM\ramtest_march_x_wom.c **** 
 348:C:/Workspace/FW_Inertia/branch_indesit/HAL/RN_RX200/IEC60335_B_libs/src/RAM\ramtest_march_x_wom.c **** 	/* 1) Write all zeros */
 349:C:/Workspace/FW_Inertia/branch_indesit/HAL/RN_RX200/IEC60335_B_libs/src/RAM\ramtest_march_x_wom.c **** 	for(ui_BlockIndex = 0; ui_BlockIndex < ui_NumBlocks; ui_BlockIndex++)
 350:C:/Workspace/FW_Inertia/branch_indesit/HAL/RN_RX200/IEC60335_B_libs/src/RAM\ramtest_march_x_wom.c **** 	{
 351:C:/Workspace/FW_Inertia/branch_indesit/HAL/RN_RX200/IEC60335_B_libs/src/RAM\ramtest_march_x_wom.c **** 		pui_RAM[ui_BlockIndex] = DATA_PATTERN_0s;
 352:C:/Workspace/FW_Inertia/branch_indesit/HAL/RN_RX200/IEC60335_B_libs/src/RAM\ramtest_march_x_wom.c **** 	}
 353:C:/Workspace/FW_Inertia/branch_indesit/HAL/RN_RX200/IEC60335_B_libs/src/RAM\ramtest_march_x_wom.c **** 	/* 2) Starting at lowest address and incrementing up,
 354:C:/Workspace/FW_Inertia/branch_indesit/HAL/RN_RX200/IEC60335_B_libs/src/RAM\ramtest_march_x_wom.c **** 	check read h'0000 then write h'FFFF */
 355:C:/Workspace/FW_Inertia/branch_indesit/HAL/RN_RX200/IEC60335_B_libs/src/RAM\ramtest_march_x_wom.c **** 	if(FALSE == March_X_WOM_increment(pui_RAM, ui_NumBlocks,
 356:C:/Workspace/FW_Inertia/branch_indesit/HAL/RN_RX200/IEC60335_B_libs/src/RAM\ramtest_march_x_wom.c **** 											 DATA_PATTERN_0s, DATA_PATTERN_Fs))
 357:C:/Workspace/FW_Inertia/branch_indesit/HAL/RN_RX200/IEC60335_B_libs/src/RAM\ramtest_march_x_wom.c **** 	{
 358:C:/Workspace/FW_Inertia/branch_indesit/HAL/RN_RX200/IEC60335_B_libs/src/RAM\ramtest_march_x_wom.c **** 		b_Result = FALSE;
 359:C:/Workspace/FW_Inertia/branch_indesit/HAL/RN_RX200/IEC60335_B_libs/src/RAM\ramtest_march_x_wom.c **** 	}
 360:C:/Workspace/FW_Inertia/branch_indesit/HAL/RN_RX200/IEC60335_B_libs/src/RAM\ramtest_march_x_wom.c **** 	/* 3) Starting at highest address and decrementing down,
 361:C:/Workspace/FW_Inertia/branch_indesit/HAL/RN_RX200/IEC60335_B_libs/src/RAM\ramtest_march_x_wom.c **** 	check read h'FFFF then write h'0000 */
 362:C:/Workspace/FW_Inertia/branch_indesit/HAL/RN_RX200/IEC60335_B_libs/src/RAM\ramtest_march_x_wom.c **** 	else if(FALSE == March_X_WOM_decrement(pui_RAM, ui_NumBlocks,
 363:C:/Workspace/FW_Inertia/branch_indesit/HAL/RN_RX200/IEC60335_B_libs/src/RAM\ramtest_march_x_wom.c **** 												 DATA_PATTERN_Fs, DATA_PATTERN_0s))
 364:C:/Workspace/FW_Inertia/branch_indesit/HAL/RN_RX200/IEC60335_B_libs/src/RAM\ramtest_march_x_wom.c **** 	{
 365:C:/Workspace/FW_Inertia/branch_indesit/HAL/RN_RX200/IEC60335_B_libs/src/RAM\ramtest_march_x_wom.c **** 		b_Result = FALSE;
 366:C:/Workspace/FW_Inertia/branch_indesit/HAL/RN_RX200/IEC60335_B_libs/src/RAM\ramtest_march_x_wom.c **** 	}
 367:C:/Workspace/FW_Inertia/branch_indesit/HAL/RN_RX200/IEC60335_B_libs/src/RAM\ramtest_march_x_wom.c **** 	/* 4) Starting at lowest address and incrementing up,
 368:C:/Workspace/FW_Inertia/branch_indesit/HAL/RN_RX200/IEC60335_B_libs/src/RAM\ramtest_march_x_wom.c **** 	check read h'0000 then write h'AAAA*/
 369:C:/Workspace/FW_Inertia/branch_indesit/HAL/RN_RX200/IEC60335_B_libs/src/RAM\ramtest_march_x_wom.c **** 	else if(FALSE == March_X_WOM_increment(pui_RAM, ui_NumBlocks,
 370:C:/Workspace/FW_Inertia/branch_indesit/HAL/RN_RX200/IEC60335_B_libs/src/RAM\ramtest_march_x_wom.c **** 												  DATA_PATTERN_0s, DATA_PATTERN_As))
 371:C:/Workspace/FW_Inertia/branch_indesit/HAL/RN_RX200/IEC60335_B_libs/src/RAM\ramtest_march_x_wom.c **** 	{
 372:C:/Workspace/FW_Inertia/branch_indesit/HAL/RN_RX200/IEC60335_B_libs/src/RAM\ramtest_march_x_wom.c **** 		b_Result = FALSE;
 373:C:/Workspace/FW_Inertia/branch_indesit/HAL/RN_RX200/IEC60335_B_libs/src/RAM\ramtest_march_x_wom.c **** 	}
 374:C:/Workspace/FW_Inertia/branch_indesit/HAL/RN_RX200/IEC60335_B_libs/src/RAM\ramtest_march_x_wom.c **** 	/* 5) Starting at highest address and decrementing down,
 375:C:/Workspace/FW_Inertia/branch_indesit/HAL/RN_RX200/IEC60335_B_libs/src/RAM\ramtest_march_x_wom.c **** 	check read h'AAAA then write h'5555*/
 376:C:/Workspace/FW_Inertia/branch_indesit/HAL/RN_RX200/IEC60335_B_libs/src/RAM\ramtest_march_x_wom.c **** 	else if(FALSE == March_X_WOM_decrement(pui_RAM, ui_NumBlocks,
 377:C:/Workspace/FW_Inertia/branch_indesit/HAL/RN_RX200/IEC60335_B_libs/src/RAM\ramtest_march_x_wom.c **** 												 DATA_PATTERN_As, DATA_PATTERN_5s))
 378:C:/Workspace/FW_Inertia/branch_indesit/HAL/RN_RX200/IEC60335_B_libs/src/RAM\ramtest_march_x_wom.c **** 	{
 379:C:/Workspace/FW_Inertia/branch_indesit/HAL/RN_RX200/IEC60335_B_libs/src/RAM\ramtest_march_x_wom.c **** 		b_Result = FALSE;
 380:C:/Workspace/FW_Inertia/branch_indesit/HAL/RN_RX200/IEC60335_B_libs/src/RAM\ramtest_march_x_wom.c **** 	}
 381:C:/Workspace/FW_Inertia/branch_indesit/HAL/RN_RX200/IEC60335_B_libs/src/RAM\ramtest_march_x_wom.c **** 	else
 382:C:/Workspace/FW_Inertia/branch_indesit/HAL/RN_RX200/IEC60335_B_libs/src/RAM\ramtest_march_x_wom.c **** 	{
 383:C:/Workspace/FW_Inertia/branch_indesit/HAL/RN_RX200/IEC60335_B_libs/src/RAM\ramtest_march_x_wom.c **** 		/*6) Check read all h'5555*/
 384:C:/Workspace/FW_Inertia/branch_indesit/HAL/RN_RX200/IEC60335_B_libs/src/RAM\ramtest_march_x_wom.c **** 		for(ui_BlockIndex = 0; ui_BlockIndex < ui_NumBlocks; ui_BlockIndex++)
 385:C:/Workspace/FW_Inertia/branch_indesit/HAL/RN_RX200/IEC60335_B_libs/src/RAM\ramtest_march_x_wom.c **** 		{
 386:C:/Workspace/FW_Inertia/branch_indesit/HAL/RN_RX200/IEC60335_B_libs/src/RAM\ramtest_march_x_wom.c **** 			if(pui_RAM[ui_BlockIndex] != DATA_PATTERN_5s)
 387:C:/Workspace/FW_Inertia/branch_indesit/HAL/RN_RX200/IEC60335_B_libs/src/RAM\ramtest_march_x_wom.c **** 			{
 388:C:/Workspace/FW_Inertia/branch_indesit/HAL/RN_RX200/IEC60335_B_libs/src/RAM\ramtest_march_x_wom.c **** 				b_Result = FALSE;
 389:C:/Workspace/FW_Inertia/branch_indesit/HAL/RN_RX200/IEC60335_B_libs/src/RAM\ramtest_march_x_wom.c **** 				break;
 390:C:/Workspace/FW_Inertia/branch_indesit/HAL/RN_RX200/IEC60335_B_libs/src/RAM\ramtest_march_x_wom.c **** 			}
 391:C:/Workspace/FW_Inertia/branch_indesit/HAL/RN_RX200/IEC60335_B_libs/src/RAM\ramtest_march_x_wom.c **** 		}
 392:C:/Workspace/FW_Inertia/branch_indesit/HAL/RN_RX200/IEC60335_B_libs/src/RAM\ramtest_march_x_wom.c **** 	}
 393:C:/Workspace/FW_Inertia/branch_indesit/HAL/RN_RX200/IEC60335_B_libs/src/RAM\ramtest_march_x_wom.c **** 	
 394:C:/Workspace/FW_Inertia/branch_indesit/HAL/RN_RX200/IEC60335_B_libs/src/RAM\ramtest_march_x_wom.c **** 	return b_Result;
 395:C:/Workspace/FW_Inertia/branch_indesit/HAL/RN_RX200/IEC60335_B_libs/src/RAM\ramtest_march_x_wom.c **** }
 396:C:/Workspace/FW_Inertia/branch_indesit/HAL/RN_RX200/IEC60335_B_libs/src/RAM\ramtest_march_x_wom.c **** 
 397:C:/Workspace/FW_Inertia/branch_indesit/HAL/RN_RX200/IEC60335_B_libs/src/RAM\ramtest_march_x_wom.c **** /***********************************************************************************
 398:C:/Workspace/FW_Inertia/branch_indesit/HAL/RN_RX200/IEC60335_B_libs/src/RAM\ramtest_march_x_wom.c **** Function Name : March_X_WOM_increment
 399:C:/Workspace/FW_Inertia/branch_indesit/HAL/RN_RX200/IEC60335_B_libs/src/RAM\ramtest_march_x_wom.c **** Description   :	Starting at lowest address and incrementing up, a word at a time,
 400:C:/Workspace/FW_Inertia/branch_indesit/HAL/RN_RX200/IEC60335_B_libs/src/RAM\ramtest_march_x_wom.c **** 				check Value equalls ValueRead,
 401:C:/Workspace/FW_Inertia/branch_indesit/HAL/RN_RX200/IEC60335_B_libs/src/RAM\ramtest_march_x_wom.c **** 				then write ValueWrite to it.
 402:C:/Workspace/FW_Inertia/branch_indesit/HAL/RN_RX200/IEC60335_B_libs/src/RAM\ramtest_march_x_wom.c **** 				 
 403:C:/Workspace/FW_Inertia/branch_indesit/HAL/RN_RX200/IEC60335_B_libs/src/RAM\ramtest_march_x_wom.c **** Parameters    : pui_RAM - pointer to start of RAM to test.
 404:C:/Workspace/FW_Inertia/branch_indesit/HAL/RN_RX200/IEC60335_B_libs/src/RAM\ramtest_march_x_wom.c **** 				ui_NumBlocks - number of words to test.
 405:C:/Workspace/FW_Inertia/branch_indesit/HAL/RN_RX200/IEC60335_B_libs/src/RAM\ramtest_march_x_wom.c **** 				ui_ValueRead - expected Value to read.
 406:C:/Workspace/FW_Inertia/branch_indesit/HAL/RN_RX200/IEC60335_B_libs/src/RAM\ramtest_march_x_wom.c **** 				ui_ValueWrite - value to write.
 407:C:/Workspace/FW_Inertia/branch_indesit/HAL/RN_RX200/IEC60335_B_libs/src/RAM\ramtest_march_x_wom.c **** 				
 408:C:/Workspace/FW_Inertia/branch_indesit/HAL/RN_RX200/IEC60335_B_libs/src/RAM\ramtest_march_x_wom.c **** Return Value  : TRUE = TEST Passed. FALSE = TEST Failed.
 409:C:/Workspace/FW_Inertia/branch_indesit/HAL/RN_RX200/IEC60335_B_libs/src/RAM\ramtest_march_x_wom.c **** ***********************************************************************************/
 410:C:/Workspace/FW_Inertia/branch_indesit/HAL/RN_RX200/IEC60335_B_libs/src/RAM\ramtest_march_x_wom.c **** static bool_t March_X_WOM_increment(volatile TYPE_ACCESS_t* pui_RAM, 
 411:C:/Workspace/FW_Inertia/branch_indesit/HAL/RN_RX200/IEC60335_B_libs/src/RAM\ramtest_march_x_wom.c **** 										const TYPE_WORDS_t ui_NumBlocks,
 412:C:/Workspace/FW_Inertia/branch_indesit/HAL/RN_RX200/IEC60335_B_libs/src/RAM\ramtest_march_x_wom.c **** 										const TYPE_ACCESS_t ui_ValueRead,
 413:C:/Workspace/FW_Inertia/branch_indesit/HAL/RN_RX200/IEC60335_B_libs/src/RAM\ramtest_march_x_wom.c **** 										const TYPE_ACCESS_t ui_ValueWrite)
 414:C:/Workspace/FW_Inertia/branch_indesit/HAL/RN_RX200/IEC60335_B_libs/src/RAM\ramtest_march_x_wom.c **** {	
 415:C:/Workspace/FW_Inertia/branch_indesit/HAL/RN_RX200/IEC60335_B_libs/src/RAM\ramtest_march_x_wom.c **** 	bool_t b_Result = TRUE;
 416:C:/Workspace/FW_Inertia/branch_indesit/HAL/RN_RX200/IEC60335_B_libs/src/RAM\ramtest_march_x_wom.c **** 	TYPE_ACCESS_t ui_Value;
 417:C:/Workspace/FW_Inertia/branch_indesit/HAL/RN_RX200/IEC60335_B_libs/src/RAM\ramtest_march_x_wom.c **** 	TYPE_WORDS_t ui_BlockIndex;
 418:C:/Workspace/FW_Inertia/branch_indesit/HAL/RN_RX200/IEC60335_B_libs/src/RAM\ramtest_march_x_wom.c **** 	
 419:C:/Workspace/FW_Inertia/branch_indesit/HAL/RN_RX200/IEC60335_B_libs/src/RAM\ramtest_march_x_wom.c **** 	/*For each word*/	
 420:C:/Workspace/FW_Inertia/branch_indesit/HAL/RN_RX200/IEC60335_B_libs/src/RAM\ramtest_march_x_wom.c **** 	for(ui_BlockIndex = 0; ui_BlockIndex < ui_NumBlocks; ui_BlockIndex++)
 421:C:/Workspace/FW_Inertia/branch_indesit/HAL/RN_RX200/IEC60335_B_libs/src/RAM\ramtest_march_x_wom.c **** 	{
 422:C:/Workspace/FW_Inertia/branch_indesit/HAL/RN_RX200/IEC60335_B_libs/src/RAM\ramtest_march_x_wom.c **** 		/*** Read RAM ***/
 423:C:/Workspace/FW_Inertia/branch_indesit/HAL/RN_RX200/IEC60335_B_libs/src/RAM\ramtest_march_x_wom.c **** 		ui_Value = pui_RAM[ui_BlockIndex];
 424:C:/Workspace/FW_Inertia/branch_indesit/HAL/RN_RX200/IEC60335_B_libs/src/RAM\ramtest_march_x_wom.c **** 		
 425:C:/Workspace/FW_Inertia/branch_indesit/HAL/RN_RX200/IEC60335_B_libs/src/RAM\ramtest_march_x_wom.c **** 		/*Check value is valueRead*/
 426:C:/Workspace/FW_Inertia/branch_indesit/HAL/RN_RX200/IEC60335_B_libs/src/RAM\ramtest_march_x_wom.c **** 		if(ui_ValueRead != ui_Value)
 427:C:/Workspace/FW_Inertia/branch_indesit/HAL/RN_RX200/IEC60335_B_libs/src/RAM\ramtest_march_x_wom.c **** 		{
 428:C:/Workspace/FW_Inertia/branch_indesit/HAL/RN_RX200/IEC60335_B_libs/src/RAM\ramtest_march_x_wom.c **** 			/*Value is not as expected*/
 429:C:/Workspace/FW_Inertia/branch_indesit/HAL/RN_RX200/IEC60335_B_libs/src/RAM\ramtest_march_x_wom.c **** 			b_Result = FALSE;
 430:C:/Workspace/FW_Inertia/branch_indesit/HAL/RN_RX200/IEC60335_B_libs/src/RAM\ramtest_march_x_wom.c **** 		}
 431:C:/Workspace/FW_Inertia/branch_indesit/HAL/RN_RX200/IEC60335_B_libs/src/RAM\ramtest_march_x_wom.c **** 		
 432:C:/Workspace/FW_Inertia/branch_indesit/HAL/RN_RX200/IEC60335_B_libs/src/RAM\ramtest_march_x_wom.c **** 		/*** Write RAM ****/
 433:C:/Workspace/FW_Inertia/branch_indesit/HAL/RN_RX200/IEC60335_B_libs/src/RAM\ramtest_march_x_wom.c **** 		pui_RAM[ui_BlockIndex] = ui_ValueWrite;
 434:C:/Workspace/FW_Inertia/branch_indesit/HAL/RN_RX200/IEC60335_B_libs/src/RAM\ramtest_march_x_wom.c **** 		
 435:C:/Workspace/FW_Inertia/branch_indesit/HAL/RN_RX200/IEC60335_B_libs/src/RAM\ramtest_march_x_wom.c **** 		/*If test has already failed then don't continue*/
 436:C:/Workspace/FW_Inertia/branch_indesit/HAL/RN_RX200/IEC60335_B_libs/src/RAM\ramtest_march_x_wom.c **** 		if(FALSE == b_Result)
 437:C:/Workspace/FW_Inertia/branch_indesit/HAL/RN_RX200/IEC60335_B_libs/src/RAM\ramtest_march_x_wom.c **** 		{
 438:C:/Workspace/FW_Inertia/branch_indesit/HAL/RN_RX200/IEC60335_B_libs/src/RAM\ramtest_march_x_wom.c **** 			break;
 439:C:/Workspace/FW_Inertia/branch_indesit/HAL/RN_RX200/IEC60335_B_libs/src/RAM\ramtest_march_x_wom.c **** 		}		
 440:C:/Workspace/FW_Inertia/branch_indesit/HAL/RN_RX200/IEC60335_B_libs/src/RAM\ramtest_march_x_wom.c **** 	}
 441:C:/Workspace/FW_Inertia/branch_indesit/HAL/RN_RX200/IEC60335_B_libs/src/RAM\ramtest_march_x_wom.c **** 	
 442:C:/Workspace/FW_Inertia/branch_indesit/HAL/RN_RX200/IEC60335_B_libs/src/RAM\ramtest_march_x_wom.c **** 	return b_Result;
 443:C:/Workspace/FW_Inertia/branch_indesit/HAL/RN_RX200/IEC60335_B_libs/src/RAM\ramtest_march_x_wom.c **** }
 444:C:/Workspace/FW_Inertia/branch_indesit/HAL/RN_RX200/IEC60335_B_libs/src/RAM\ramtest_march_x_wom.c **** 
 445:C:/Workspace/FW_Inertia/branch_indesit/HAL/RN_RX200/IEC60335_B_libs/src/RAM\ramtest_march_x_wom.c **** /***********************************************************************************
 446:C:/Workspace/FW_Inertia/branch_indesit/HAL/RN_RX200/IEC60335_B_libs/src/RAM\ramtest_march_x_wom.c **** Function Name : March_X_WOM_decrement
 447:C:/Workspace/FW_Inertia/branch_indesit/HAL/RN_RX200/IEC60335_B_libs/src/RAM\ramtest_march_x_wom.c **** Description   :	Starting at highest address and decrementing down, a word at a time,
 448:C:/Workspace/FW_Inertia/branch_indesit/HAL/RN_RX200/IEC60335_B_libs/src/RAM\ramtest_march_x_wom.c **** 				check Value equalls ValueRead
 449:C:/Workspace/FW_Inertia/branch_indesit/HAL/RN_RX200/IEC60335_B_libs/src/RAM\ramtest_march_x_wom.c **** 				then write ValueWrite to it.
 450:C:/Workspace/FW_Inertia/branch_indesit/HAL/RN_RX200/IEC60335_B_libs/src/RAM\ramtest_march_x_wom.c **** 				 
 451:C:/Workspace/FW_Inertia/branch_indesit/HAL/RN_RX200/IEC60335_B_libs/src/RAM\ramtest_march_x_wom.c **** Parameters    : pui_RAM - pointer to start(lowest address) of RAM to test.
 452:C:/Workspace/FW_Inertia/branch_indesit/HAL/RN_RX200/IEC60335_B_libs/src/RAM\ramtest_march_x_wom.c **** 				ui_NumBlocks - number of words to test
 453:C:/Workspace/FW_Inertia/branch_indesit/HAL/RN_RX200/IEC60335_B_libs/src/RAM\ramtest_march_x_wom.c **** 				ui_ValueRead - expected Value to read.
 454:C:/Workspace/FW_Inertia/branch_indesit/HAL/RN_RX200/IEC60335_B_libs/src/RAM\ramtest_march_x_wom.c **** 				ui_ValueWrite - value to write.
 455:C:/Workspace/FW_Inertia/branch_indesit/HAL/RN_RX200/IEC60335_B_libs/src/RAM\ramtest_march_x_wom.c **** 				
 456:C:/Workspace/FW_Inertia/branch_indesit/HAL/RN_RX200/IEC60335_B_libs/src/RAM\ramtest_march_x_wom.c **** Return Value  : TRUE = TEST Passed. FALSE = TEST Failed.
 457:C:/Workspace/FW_Inertia/branch_indesit/HAL/RN_RX200/IEC60335_B_libs/src/RAM\ramtest_march_x_wom.c **** ***********************************************************************************/
 458:C:/Workspace/FW_Inertia/branch_indesit/HAL/RN_RX200/IEC60335_B_libs/src/RAM\ramtest_march_x_wom.c **** static bool_t March_X_WOM_decrement(volatile TYPE_ACCESS_t* pui_RAM,
 459:C:/Workspace/FW_Inertia/branch_indesit/HAL/RN_RX200/IEC60335_B_libs/src/RAM\ramtest_march_x_wom.c **** 										const TYPE_WORDS_t ui_NumBlocks,
 460:C:/Workspace/FW_Inertia/branch_indesit/HAL/RN_RX200/IEC60335_B_libs/src/RAM\ramtest_march_x_wom.c **** 										const TYPE_ACCESS_t ui_ValueRead,
 461:C:/Workspace/FW_Inertia/branch_indesit/HAL/RN_RX200/IEC60335_B_libs/src/RAM\ramtest_march_x_wom.c **** 										const TYPE_ACCESS_t ui_ValueWrite)
 462:C:/Workspace/FW_Inertia/branch_indesit/HAL/RN_RX200/IEC60335_B_libs/src/RAM\ramtest_march_x_wom.c **** {
 463:C:/Workspace/FW_Inertia/branch_indesit/HAL/RN_RX200/IEC60335_B_libs/src/RAM\ramtest_march_x_wom.c **** 	bool_t b_Result = TRUE;
 464:C:/Workspace/FW_Inertia/branch_indesit/HAL/RN_RX200/IEC60335_B_libs/src/RAM\ramtest_march_x_wom.c **** 	TYPE_ACCESS_t ui_Value;
 465:C:/Workspace/FW_Inertia/branch_indesit/HAL/RN_RX200/IEC60335_B_libs/src/RAM\ramtest_march_x_wom.c **** 	TYPE_WORDS_t ui_BlockIndex;	
 466:C:/Workspace/FW_Inertia/branch_indesit/HAL/RN_RX200/IEC60335_B_libs/src/RAM\ramtest_march_x_wom.c **** 	TYPE_WORDS_t ui_BlockLoop;
 467:C:/Workspace/FW_Inertia/branch_indesit/HAL/RN_RX200/IEC60335_B_libs/src/RAM\ramtest_march_x_wom.c **** 	
 468:C:/Workspace/FW_Inertia/branch_indesit/HAL/RN_RX200/IEC60335_B_libs/src/RAM\ramtest_march_x_wom.c **** 	/*For each word*/	
 469:C:/Workspace/FW_Inertia/branch_indesit/HAL/RN_RX200/IEC60335_B_libs/src/RAM\ramtest_march_x_wom.c **** 	for(ui_BlockLoop = ui_NumBlocks; ui_BlockLoop != 0; ui_BlockLoop--)
 470:C:/Workspace/FW_Inertia/branch_indesit/HAL/RN_RX200/IEC60335_B_libs/src/RAM\ramtest_march_x_wom.c **** 	{
 471:C:/Workspace/FW_Inertia/branch_indesit/HAL/RN_RX200/IEC60335_B_libs/src/RAM\ramtest_march_x_wom.c **** 		ui_BlockIndex = ui_BlockLoop-1;
 472:C:/Workspace/FW_Inertia/branch_indesit/HAL/RN_RX200/IEC60335_B_libs/src/RAM\ramtest_march_x_wom.c **** 		
 473:C:/Workspace/FW_Inertia/branch_indesit/HAL/RN_RX200/IEC60335_B_libs/src/RAM\ramtest_march_x_wom.c **** 		/*** Read RAM ***/
 474:C:/Workspace/FW_Inertia/branch_indesit/HAL/RN_RX200/IEC60335_B_libs/src/RAM\ramtest_march_x_wom.c **** 		ui_Value = pui_RAM[ui_BlockIndex];
 475:C:/Workspace/FW_Inertia/branch_indesit/HAL/RN_RX200/IEC60335_B_libs/src/RAM\ramtest_march_x_wom.c **** 		
 476:C:/Workspace/FW_Inertia/branch_indesit/HAL/RN_RX200/IEC60335_B_libs/src/RAM\ramtest_march_x_wom.c **** 		/*Check value is valueRead*/
 477:C:/Workspace/FW_Inertia/branch_indesit/HAL/RN_RX200/IEC60335_B_libs/src/RAM\ramtest_march_x_wom.c **** 		if(ui_ValueRead != ui_Value)
 478:C:/Workspace/FW_Inertia/branch_indesit/HAL/RN_RX200/IEC60335_B_libs/src/RAM\ramtest_march_x_wom.c **** 		{
 479:C:/Workspace/FW_Inertia/branch_indesit/HAL/RN_RX200/IEC60335_B_libs/src/RAM\ramtest_march_x_wom.c **** 			/*Value is not as expected*/
 480:C:/Workspace/FW_Inertia/branch_indesit/HAL/RN_RX200/IEC60335_B_libs/src/RAM\ramtest_march_x_wom.c **** 			b_Result = FALSE;
 481:C:/Workspace/FW_Inertia/branch_indesit/HAL/RN_RX200/IEC60335_B_libs/src/RAM\ramtest_march_x_wom.c **** 		}
 482:C:/Workspace/FW_Inertia/branch_indesit/HAL/RN_RX200/IEC60335_B_libs/src/RAM\ramtest_march_x_wom.c **** 		
 483:C:/Workspace/FW_Inertia/branch_indesit/HAL/RN_RX200/IEC60335_B_libs/src/RAM\ramtest_march_x_wom.c **** 		/*** Write RAM ****/
 484:C:/Workspace/FW_Inertia/branch_indesit/HAL/RN_RX200/IEC60335_B_libs/src/RAM\ramtest_march_x_wom.c **** 		pui_RAM[ui_BlockIndex] = ui_ValueWrite;
 485:C:/Workspace/FW_Inertia/branch_indesit/HAL/RN_RX200/IEC60335_B_libs/src/RAM\ramtest_march_x_wom.c **** 		
 486:C:/Workspace/FW_Inertia/branch_indesit/HAL/RN_RX200/IEC60335_B_libs/src/RAM\ramtest_march_x_wom.c **** 		/*If test has already failed then don't continue*/
 487:C:/Workspace/FW_Inertia/branch_indesit/HAL/RN_RX200/IEC60335_B_libs/src/RAM\ramtest_march_x_wom.c **** 		if(FALSE == b_Result)
 488:C:/Workspace/FW_Inertia/branch_indesit/HAL/RN_RX200/IEC60335_B_libs/src/RAM\ramtest_march_x_wom.c **** 		{
 489:C:/Workspace/FW_Inertia/branch_indesit/HAL/RN_RX200/IEC60335_B_libs/src/RAM\ramtest_march_x_wom.c **** 			break;
 490:C:/Workspace/FW_Inertia/branch_indesit/HAL/RN_RX200/IEC60335_B_libs/src/RAM\ramtest_march_x_wom.c **** 		}		
 491:C:/Workspace/FW_Inertia/branch_indesit/HAL/RN_RX200/IEC60335_B_libs/src/RAM\ramtest_march_x_wom.c **** 	}
 492:C:/Workspace/FW_Inertia/branch_indesit/HAL/RN_RX200/IEC60335_B_libs/src/RAM\ramtest_march_x_wom.c **** 	
 493:C:/Workspace/FW_Inertia/branch_indesit/HAL/RN_RX200/IEC60335_B_libs/src/RAM\ramtest_march_x_wom.c **** 	return b_Result;
 494:C:/Workspace/FW_Inertia/branch_indesit/HAL/RN_RX200/IEC60335_B_libs/src/RAM\ramtest_march_x_wom.c **** }
 495:C:/Workspace/FW_Inertia/branch_indesit/HAL/RN_RX200/IEC60335_B_libs/src/RAM\ramtest_march_x_wom.c **** 
 496:C:/Workspace/FW_Inertia/branch_indesit/HAL/RN_RX200/IEC60335_B_libs/src/RAM\ramtest_march_x_wom.c **** /***********************************************************************************
 497:C:/Workspace/FW_Inertia/branch_indesit/HAL/RN_RX200/IEC60335_B_libs/src/RAM\ramtest_march_x_wom.c **** Function Name : MemoryCopy
 498:C:/Workspace/FW_Inertia/branch_indesit/HAL/RN_RX200/IEC60335_B_libs/src/RAM\ramtest_march_x_wom.c **** Description   :	Copy memory contents from a specified source to a
 499:C:/Workspace/FW_Inertia/branch_indesit/HAL/RN_RX200/IEC60335_B_libs/src/RAM\ramtest_march_x_wom.c **** 				specified destination.
 500:C:/Workspace/FW_Inertia/branch_indesit/HAL/RN_RX200/IEC60335_B_libs/src/RAM\ramtest_march_x_wom.c **** 				 
 501:C:/Workspace/FW_Inertia/branch_indesit/HAL/RN_RX200/IEC60335_B_libs/src/RAM\ramtest_march_x_wom.c **** Parameters    : pui_Source - pointer to start of source.
 502:C:/Workspace/FW_Inertia/branch_indesit/HAL/RN_RX200/IEC60335_B_libs/src/RAM\ramtest_march_x_wom.c **** 				pui_Dest - pointer to start of destination.
 503:C:/Workspace/FW_Inertia/branch_indesit/HAL/RN_RX200/IEC60335_B_libs/src/RAM\ramtest_march_x_wom.c **** 				ui_NumBlocks - Number of words to copy.
 504:C:/Workspace/FW_Inertia/branch_indesit/HAL/RN_RX200/IEC60335_B_libs/src/RAM\ramtest_march_x_wom.c **** 				
 505:C:/Workspace/FW_Inertia/branch_indesit/HAL/RN_RX200/IEC60335_B_libs/src/RAM\ramtest_march_x_wom.c **** Return Value  : void
 506:C:/Workspace/FW_Inertia/branch_indesit/HAL/RN_RX200/IEC60335_B_libs/src/RAM\ramtest_march_x_wom.c **** ***********************************************************************************/
 507:C:/Workspace/FW_Inertia/branch_indesit/HAL/RN_RX200/IEC60335_B_libs/src/RAM\ramtest_march_x_wom.c **** static void MemoryCopy(const volatile TYPE_ACCESS_t* const pui_Source,
 508:C:/Workspace/FW_Inertia/branch_indesit/HAL/RN_RX200/IEC60335_B_libs/src/RAM\ramtest_march_x_wom.c **** 						volatile TYPE_ACCESS_t* const pui_Dest,
 509:C:/Workspace/FW_Inertia/branch_indesit/HAL/RN_RX200/IEC60335_B_libs/src/RAM\ramtest_march_x_wom.c **** 						const TYPE_WORDS_t ui_NumBlocks)
 510:C:/Workspace/FW_Inertia/branch_indesit/HAL/RN_RX200/IEC60335_B_libs/src/RAM\ramtest_march_x_wom.c **** {
 511:C:/Workspace/FW_Inertia/branch_indesit/HAL/RN_RX200/IEC60335_B_libs/src/RAM\ramtest_march_x_wom.c **** 	TYPE_WORDS_t ui_BlockIndex;
 512:C:/Workspace/FW_Inertia/branch_indesit/HAL/RN_RX200/IEC60335_B_libs/src/RAM\ramtest_march_x_wom.c **** 	
 513:C:/Workspace/FW_Inertia/branch_indesit/HAL/RN_RX200/IEC60335_B_libs/src/RAM\ramtest_march_x_wom.c **** 	for(ui_BlockIndex = 0; ui_BlockIndex < ui_NumBlocks; ui_BlockIndex++)
  28                             		.loc 1 513 0
  29 0012 66 04                   		mov.L	#0, r4
  30 0014 2E 20                   		bra	.L4
  31                             	.LVL5:
  32                             	.L5:
 233:C:/Workspace/FW_Inertia/branch_indesit/HAL/RN_RX200/IEC60335_B_libs/src/RAM\ramtest_march_x_wom.c **** bool_t RamTest_March_X_WOM(const uint32_t ui32_StartAddr,
  33                             		.loc 1 233 0
  34 0016 FF 21 43                		add	r4, r3, r1
  35 0019 FF 25 E4                		add	r14, r4, r5
  36                             	.LBB16:
  37                             	.LBB17:
 514:C:/Workspace/FW_Inertia/branch_indesit/HAL/RN_RX200/IEC60335_B_libs/src/RAM\ramtest_march_x_wom.c **** 	{
 515:C:/Workspace/FW_Inertia/branch_indesit/HAL/RN_RX200/IEC60335_B_libs/src/RAM\ramtest_march_x_wom.c **** 		pui_Dest[ui_BlockIndex] = pui_Source[ui_BlockIndex];
  38                             		.loc 1 515 0
  39 001c CC 55                   		mov.B	[r5], r5
  40 001e C3 15                   		mov.B	r5, [r1]
 513:C:/Workspace/FW_Inertia/branch_indesit/HAL/RN_RX200/IEC60335_B_libs/src/RAM\ramtest_march_x_wom.c **** 	for(ui_BlockIndex = 0; ui_BlockIndex < ui_NumBlocks; ui_BlockIndex++)
  41                             		.loc 1 513 0
  42 0020 62 14                   		add	#1, r4
  43                             	.LVL6:
  44 0022 0C                      		bra	.L3
  45                             	.LVL7:
  46                             	.L28:
  47                             	.LBE17:
  48                             	.LBE16:
  49 0023 66 04                   		mov.L	#0, r4
  50                             	.LVL8:
  51 0025 03                      		.balign 2,3,1
  52                             	.L3:
  53                             	.LBB19:
  54                             	.LBB18:
  55 0026 47 24                   		cmp	r2, r4
  56 0028 23 EE                   		bltu	.L5
  57 002a 2E E8                   		bra	.L6
  58                             	.LVL9:
  59                             	.L7:
 233:C:/Workspace/FW_Inertia/branch_indesit/HAL/RN_RX200/IEC60335_B_libs/src/RAM\ramtest_march_x_wom.c **** bool_t RamTest_March_X_WOM(const uint32_t ui32_StartAddr,
  60                             		.loc 1 233 0
  61 002c FF 21 E4                		add	r14, r4, r1
  62                             	.LBE18:
  63                             	.LBE19:
  64                             	.LBB20:
  65                             	.LBB21:
 351:C:/Workspace/FW_Inertia/branch_indesit/HAL/RN_RX200/IEC60335_B_libs/src/RAM\ramtest_march_x_wom.c **** 		pui_RAM[ui_BlockIndex] = DATA_PATTERN_0s;
  66                             		.loc 1 351 0
  67 002f 3C 10 00                		mov.B	#0, [r1]
 349:C:/Workspace/FW_Inertia/branch_indesit/HAL/RN_RX200/IEC60335_B_libs/src/RAM\ramtest_march_x_wom.c **** 	for(ui_BlockIndex = 0; ui_BlockIndex < ui_NumBlocks; ui_BlockIndex++)
  68                             		.loc 1 349 0
  69 0032 62 14                   		add	#1, r4
  70                             	.LVL10:
  71                             		.balign 2,3,1
  72                             	.L4:
  73 0034 47 24                   		cmp	r2, r4
  74 0036 23 F6                   		bltu	.L7
  75 0038 66 04                   		mov.L	#0, r4
  76                             	.LVL11:
  77 003a 66 11                   		mov.L	#1, r1
  78 003c 2E 1A                   		bra	.L8
  79                             	.LVL12:
  80                             	.L12:
 233:C:/Workspace/FW_Inertia/branch_indesit/HAL/RN_RX200/IEC60335_B_libs/src/RAM\ramtest_march_x_wom.c **** bool_t RamTest_March_X_WOM(const uint32_t ui32_StartAddr,
  81                             		.loc 1 233 0
  82 003e FF 25 E4                		add	r14, r4, r5
  83                             	.LBB22:
  84                             	.LBB23:
 426:C:/Workspace/FW_Inertia/branch_indesit/HAL/RN_RX200/IEC60335_B_libs/src/RAM\ramtest_march_x_wom.c **** 		if(ui_ValueRead != ui_Value)
  85                             		.loc 1 426 0
  86 0041 58 5F                   		movu.B	[r5], r15
  87 0043 61 0F                   		cmp	#0, r15
  88 0045 13                      		beq	.L9
 429:C:/Workspace/FW_Inertia/branch_indesit/HAL/RN_RX200/IEC60335_B_libs/src/RAM\ramtest_march_x_wom.c **** 			b_Result = FALSE;
  89                             		.loc 1 429 0
  90 0046 66 01                   		mov.L	#0, r1
  91                             	.LVL13:
  92                             		.balign 2,3,4
  93                             	.L9:
 433:C:/Workspace/FW_Inertia/branch_indesit/HAL/RN_RX200/IEC60335_B_libs/src/RAM\ramtest_march_x_wom.c **** 		pui_RAM[ui_BlockIndex] = ui_ValueWrite;
  94                             		.loc 1 433 0
  95 0048 F8 54 FF                		mov.B	#-1, [r5]
 436:C:/Workspace/FW_Inertia/branch_indesit/HAL/RN_RX200/IEC60335_B_libs/src/RAM\ramtest_march_x_wom.c **** 		if(FALSE == b_Result)
  96                             		.loc 1 436 0
  97 004b 61 01                   		cmp	#0, r1
  98 004d 1E                      		bne	.L10
  99                             	.LVL14:
 100                             		.balign 2,3,1
 101                             	.L13:
 102                             	.LBE23:
 103                             	.LBE22:
 358:C:/Workspace/FW_Inertia/branch_indesit/HAL/RN_RX200/IEC60335_B_libs/src/RAM\ramtest_march_x_wom.c **** 		b_Result = FALSE;
 104                             		.loc 1 358 0
 105 004e 66 01                   		mov.L	#0, r1
 106 0050 38 8C 00                		bra	.L11
 107                             	.LVL15:
 108                             	.L10:
 109                             	.LBB25:
 110                             	.LBB24:
 420:C:/Workspace/FW_Inertia/branch_indesit/HAL/RN_RX200/IEC60335_B_libs/src/RAM\ramtest_march_x_wom.c **** 	for(ui_BlockIndex = 0; ui_BlockIndex < ui_NumBlocks; ui_BlockIndex++)
 111                             		.loc 1 420 0
 112 0053 62 14                   		add	#1, r4
 113                             	.LVL16:
 114 0055 03                      		.balign 2,3,1
 115                             	.L8:
 116 0056 47 24                   		cmp	r2, r4
 117 0058 23 E6                   		bltu	.L12
 118                             	.LBE24:
 119                             	.LBE25:
 355:C:/Workspace/FW_Inertia/branch_indesit/HAL/RN_RX200/IEC60335_B_libs/src/RAM\ramtest_march_x_wom.c **** 	if(FALSE == March_X_WOM_increment(pui_RAM, ui_NumBlocks,
 120                             		.loc 1 355 0
 121 005a 61 01                   		cmp	#0, r1
 122 005c 20 F2                   		beq	.L13
 123 005e EF 24                   		mov.L	r2, r4
 124                             	.LVL17:
 125 0060 66 11                   		mov.L	#1, r1
 126                             	.LVL18:
 127 0062 2E 18                   		bra	.L14
 128                             	.LVL19:
 129                             	.L16:
 130                             	.LBB26:
 131                             	.LBB27:
 471:C:/Workspace/FW_Inertia/branch_indesit/HAL/RN_RX200/IEC60335_B_libs/src/RAM\ramtest_march_x_wom.c **** 		ui_BlockIndex = ui_BlockLoop-1;
 132                             		.loc 1 471 0
 133 0064 60 14                   		sub	#1, r4
 134                             	.LVL20:
 233:C:/Workspace/FW_Inertia/branch_indesit/HAL/RN_RX200/IEC60335_B_libs/src/RAM\ramtest_march_x_wom.c **** bool_t RamTest_March_X_WOM(const uint32_t ui32_StartAddr,
 135                             		.loc 1 233 0
 136 0066 FF 25 E4                		add	r14, r4, r5
 477:C:/Workspace/FW_Inertia/branch_indesit/HAL/RN_RX200/IEC60335_B_libs/src/RAM\ramtest_march_x_wom.c **** 		if(ui_ValueRead != ui_Value)
 137                             		.loc 1 477 0
 138 0069 58 5F                   		movu.B	[r5], r15
 139 006b 75 5F FF                		cmp	#0xff, r15
 140 006e 14                      		beq	.L15
 480:C:/Workspace/FW_Inertia/branch_indesit/HAL/RN_RX200/IEC60335_B_libs/src/RAM\ramtest_march_x_wom.c **** 			b_Result = FALSE;
 141                             		.loc 1 480 0
 142 006f 66 01                   		mov.L	#0, r1
 143                             	.LVL21:
 144 0071 03                      		.balign 2,3,4
 145                             	.L15:
 484:C:/Workspace/FW_Inertia/branch_indesit/HAL/RN_RX200/IEC60335_B_libs/src/RAM\ramtest_march_x_wom.c **** 		pui_RAM[ui_BlockIndex] = ui_ValueWrite;
 146                             		.loc 1 484 0
 147 0072 3C 50 00                		mov.B	#0, [r5]
 487:C:/Workspace/FW_Inertia/branch_indesit/HAL/RN_RX200/IEC60335_B_libs/src/RAM\ramtest_march_x_wom.c **** 		if(FALSE == b_Result)
 148                             		.loc 1 487 0
 149 0075 61 01                   		cmp	#0, r1
 150 0077 20 D7                   		beq	.L13
 151                             	.LVL22:
 152 0079 03                      		.balign 2,3,1
 153                             	.L14:
 469:C:/Workspace/FW_Inertia/branch_indesit/HAL/RN_RX200/IEC60335_B_libs/src/RAM\ramtest_march_x_wom.c **** 	for(ui_BlockLoop = ui_NumBlocks; ui_BlockLoop != 0; ui_BlockLoop--)
 154                             		.loc 1 469 0
 155 007a 61 04                   		cmp	#0, r4
 156 007c 21 E8                   		bne	.L16
 157                             	.LBE27:
 158                             	.LBE26:
 362:C:/Workspace/FW_Inertia/branch_indesit/HAL/RN_RX200/IEC60335_B_libs/src/RAM\ramtest_march_x_wom.c **** 	else if(FALSE == March_X_WOM_decrement(pui_RAM, ui_NumBlocks,
 159                             		.loc 1 362 0
 160 007e 61 01                   		cmp	#0, r1
 161 0080 20 CE                   		beq	.L13
 162 0082 66 11                   		mov.L	#1, r1
 163                             	.LVL23:
 164 0084 2E 16                   		bra	.L17
 165                             	.LVL24:
 166                             	.L19:
 233:C:/Workspace/FW_Inertia/branch_indesit/HAL/RN_RX200/IEC60335_B_libs/src/RAM\ramtest_march_x_wom.c **** bool_t RamTest_March_X_WOM(const uint32_t ui32_StartAddr,
 167                             		.loc 1 233 0
 168 0086 FF 25 E4                		add	r14, r4, r5
 169                             	.LBB28:
 170                             	.LBB29:
 426:C:/Workspace/FW_Inertia/branch_indesit/HAL/RN_RX200/IEC60335_B_libs/src/RAM\ramtest_march_x_wom.c **** 		if(ui_ValueRead != ui_Value)
 171                             		.loc 1 426 0
 172 0089 58 5F                   		movu.B	[r5], r15
 173 008b 61 0F                   		cmp	#0, r15
 174 008d 13                      		beq	.L18
 429:C:/Workspace/FW_Inertia/branch_indesit/HAL/RN_RX200/IEC60335_B_libs/src/RAM\ramtest_march_x_wom.c **** 			b_Result = FALSE;
 175                             		.loc 1 429 0
 176 008e 66 01                   		mov.L	#0, r1
 177                             	.LVL25:
 178                             		.balign 2,3,4
 179                             	.L18:
 433:C:/Workspace/FW_Inertia/branch_indesit/HAL/RN_RX200/IEC60335_B_libs/src/RAM\ramtest_march_x_wom.c **** 		pui_RAM[ui_BlockIndex] = ui_ValueWrite;
 180                             		.loc 1 433 0
 181 0090 F8 54 AA                		mov.B	#0xffffffaa, [r5]
 436:C:/Workspace/FW_Inertia/branch_indesit/HAL/RN_RX200/IEC60335_B_libs/src/RAM\ramtest_march_x_wom.c **** 		if(FALSE == b_Result)
 182                             		.loc 1 436 0
 183 0093 61 01                   		cmp	#0, r1
 184 0095 20 B9                   		beq	.L13
 420:C:/Workspace/FW_Inertia/branch_indesit/HAL/RN_RX200/IEC60335_B_libs/src/RAM\ramtest_march_x_wom.c **** 	for(ui_BlockIndex = 0; ui_BlockIndex < ui_NumBlocks; ui_BlockIndex++)
 185                             		.loc 1 420 0
 186 0097 62 14                   		add	#1, r4
 187                             	.LVL26:
 188 0099 03                      		.balign 2,3,1
 189                             	.L17:
 190 009a 47 24                   		cmp	r2, r4
 191 009c 23 EA                   		bltu	.L19
 192                             	.LBE29:
 193                             	.LBE28:
 369:C:/Workspace/FW_Inertia/branch_indesit/HAL/RN_RX200/IEC60335_B_libs/src/RAM\ramtest_march_x_wom.c **** 	else if(FALSE == March_X_WOM_increment(pui_RAM, ui_NumBlocks,
 194                             		.loc 1 369 0
 195 009e 61 01                   		cmp	#0, r1
 196 00a0 20 AE                   		beq	.L13
 197 00a2 EF 24                   		mov.L	r2, r4
 198                             	.LVL27:
 199 00a4 66 11                   		mov.L	#1, r1
 200                             	.LVL28:
 201 00a6 2E 18                   		bra	.L20
 202                             	.LVL29:
 203                             	.L22:
 204                             	.LBB30:
 205                             	.LBB31:
 471:C:/Workspace/FW_Inertia/branch_indesit/HAL/RN_RX200/IEC60335_B_libs/src/RAM\ramtest_march_x_wom.c **** 		ui_BlockIndex = ui_BlockLoop-1;
 206                             		.loc 1 471 0
 207 00a8 60 14                   		sub	#1, r4
 208                             	.LVL30:
 233:C:/Workspace/FW_Inertia/branch_indesit/HAL/RN_RX200/IEC60335_B_libs/src/RAM\ramtest_march_x_wom.c **** bool_t RamTest_March_X_WOM(const uint32_t ui32_StartAddr,
 209                             		.loc 1 233 0
 210 00aa FF 25 E4                		add	r14, r4, r5
 477:C:/Workspace/FW_Inertia/branch_indesit/HAL/RN_RX200/IEC60335_B_libs/src/RAM\ramtest_march_x_wom.c **** 		if(ui_ValueRead != ui_Value)
 211                             		.loc 1 477 0
 212 00ad 58 5F                   		movu.B	[r5], r15
 213 00af 75 5F AA                		cmp	#0xaa, r15
 214 00b2 14                      		beq	.L21
 480:C:/Workspace/FW_Inertia/branch_indesit/HAL/RN_RX200/IEC60335_B_libs/src/RAM\ramtest_march_x_wom.c **** 			b_Result = FALSE;
 215                             		.loc 1 480 0
 216 00b3 66 01                   		mov.L	#0, r1
 217                             	.LVL31:
 218 00b5 03                      		.balign 2,3,4
 219                             	.L21:
 484:C:/Workspace/FW_Inertia/branch_indesit/HAL/RN_RX200/IEC60335_B_libs/src/RAM\ramtest_march_x_wom.c **** 		pui_RAM[ui_BlockIndex] = ui_ValueWrite;
 220                             		.loc 1 484 0
 221 00b6 3C 50 55                		mov.B	#0x55, [r5]
 487:C:/Workspace/FW_Inertia/branch_indesit/HAL/RN_RX200/IEC60335_B_libs/src/RAM\ramtest_march_x_wom.c **** 		if(FALSE == b_Result)
 222                             		.loc 1 487 0
 223 00b9 61 01                   		cmp	#0, r1
 224 00bb 20 93                   		beq	.L13
 225                             	.LVL32:
 226 00bd 03                      		.balign 2,3,1
 227                             	.L20:
 469:C:/Workspace/FW_Inertia/branch_indesit/HAL/RN_RX200/IEC60335_B_libs/src/RAM\ramtest_march_x_wom.c **** 	for(ui_BlockLoop = ui_NumBlocks; ui_BlockLoop != 0; ui_BlockLoop--)
 228                             		.loc 1 469 0
 229 00be 61 04                   		cmp	#0, r4
 230 00c0 21 E8                   		bne	.L22
 231                             	.LBE31:
 232                             	.LBE30:
 376:C:/Workspace/FW_Inertia/branch_indesit/HAL/RN_RX200/IEC60335_B_libs/src/RAM\ramtest_march_x_wom.c **** 	else if(FALSE == March_X_WOM_decrement(pui_RAM, ui_NumBlocks,
 233                             		.loc 1 376 0
 234 00c2 61 01                   		cmp	#0, r1
 235 00c4 20 8A                   		beq	.L13
 236 00c6 2E 10                   		bra	.L23
 237                             	.LVL33:
 238                             	.L24:
 233:C:/Workspace/FW_Inertia/branch_indesit/HAL/RN_RX200/IEC60335_B_libs/src/RAM\ramtest_march_x_wom.c **** bool_t RamTest_March_X_WOM(const uint32_t ui32_StartAddr,
 239                             		.loc 1 233 0
 240 00c8 FF 21 E4                		add	r14, r4, r1
 386:C:/Workspace/FW_Inertia/branch_indesit/HAL/RN_RX200/IEC60335_B_libs/src/RAM\ramtest_march_x_wom.c **** 			if(pui_RAM[ui_BlockIndex] != DATA_PATTERN_5s)
 241                             		.loc 1 386 0
 242 00cb 58 11                   		movu.B	[r1], r1
 243 00cd 75 51 55                		cmp	#0x55, r1
 244 00d0 3B 7E FF                		bne	.L13
 384:C:/Workspace/FW_Inertia/branch_indesit/HAL/RN_RX200/IEC60335_B_libs/src/RAM\ramtest_march_x_wom.c **** 		for(ui_BlockIndex = 0; ui_BlockIndex < ui_NumBlocks; ui_BlockIndex++)
 245                             		.loc 1 384 0
 246 00d3 62 14                   		add	#1, r4
 247                             	.LVL34:
 248 00d5 03                      		.balign 2,3,1
 249                             	.L23:
 250 00d6 47 24                   		cmp	r2, r4
 251 00d8 23 F0                   		bltu	.L24
 345:C:/Workspace/FW_Inertia/branch_indesit/HAL/RN_RX200/IEC60335_B_libs/src/RAM\ramtest_march_x_wom.c **** 	bool_t b_Result = TRUE;
 252                             		.loc 1 345 0
 253 00da 66 11                   		mov.L	#1, r1
 254                             	.LVL35:
 255                             		.balign 2,3,1
 256                             	.L11:
 257                             	.LBE21:
 258                             	.LBE20:
 317:C:/Workspace/FW_Inertia/branch_indesit/HAL/RN_RX200/IEC60335_B_libs/src/RAM\ramtest_march_x_wom.c **** 		if(pui_RAMSafe != NULL)
 259                             		.loc 1 317 0
 260 00dc 61 03                   		cmp	#0, r3
 261 00de 21 10                   		bne	.L33
 262 00e0 02                      		rts
 263                             	.LVL36:
 264                             	.L26:
 233:C:/Workspace/FW_Inertia/branch_indesit/HAL/RN_RX200/IEC60335_B_libs/src/RAM\ramtest_march_x_wom.c **** bool_t RamTest_March_X_WOM(const uint32_t ui32_StartAddr,
 265                             		.loc 1 233 0
 266 00e1 FF 25 E4                		add	r14, r4, r5
 267 00e4 FF 2F 43                		add	r4, r3, r15
 268                             	.LBB32:
 269                             	.LBB33:
 270                             		.loc 1 515 0
 271 00e7 CC FF                   		mov.B	[r15], r15
 272 00e9 C3 5F                   		mov.B	r15, [r5]
 513:C:/Workspace/FW_Inertia/branch_indesit/HAL/RN_RX200/IEC60335_B_libs/src/RAM\ramtest_march_x_wom.c **** 	for(ui_BlockIndex = 0; ui_BlockIndex < ui_NumBlocks; ui_BlockIndex++)
 273                             		.loc 1 513 0
 274 00eb 62 14                   		add	#1, r4
 275                             	.LVL37:
 276 00ed 0B                      		bra	.L25
 277                             	.LVL38:
 278                             	.L33:
 279                             	.LBE33:
 280                             	.LBE32:
 317:C:/Workspace/FW_Inertia/branch_indesit/HAL/RN_RX200/IEC60335_B_libs/src/RAM\ramtest_march_x_wom.c **** 		if(pui_RAMSafe != NULL)
 281                             		.loc 1 317 0
 282 00ee 66 04                   		mov.L	#0, r4
 283                             		.balign 2,3,1
 284                             	.L25:
 285                             	.LVL39:
 286                             	.LBB35:
 287                             	.LBB34:
 513:C:/Workspace/FW_Inertia/branch_indesit/HAL/RN_RX200/IEC60335_B_libs/src/RAM\ramtest_march_x_wom.c **** 	for(ui_BlockIndex = 0; ui_BlockIndex < ui_NumBlocks; ui_BlockIndex++)
 288                             		.loc 1 513 0
 289 00f0 47 24                   		cmp	r2, r4
 290 00f2 23 EF                   		bltu	.L26
 291 00f4 02                      		rts
 292                             	.LVL40:
 293                             	.L27:
 294                             	.LBE34:
 295                             	.LBE35:
 257:C:/Workspace/FW_Inertia/branch_indesit/HAL/RN_RX200/IEC60335_B_libs/src/RAM\ramtest_march_x_wom.c **** 		else if(ui32_StartAddr > ui32_EndAddr)
 296                             		.loc 1 257 0
 297 00f5 66 01                   		mov.L	#0, r1
 298                             	.LVL41:
 330:C:/Workspace/FW_Inertia/branch_indesit/HAL/RN_RX200/IEC60335_B_libs/src/RAM\ramtest_march_x_wom.c **** }
 299                             		.loc 1 330 0
 300 00f7 02                      		rts
 301                             	.LFE1:
 303                             		.section	.text.RamTest_March_X_WOM_Extra,"ax",@progbits
 304                             		.global	_RamTest_March_X_WOM_Extra
 306                             	_RamTest_March_X_WOM_Extra:
 307                             	.LFB0:
 182:C:/Workspace/FW_Inertia/branch_indesit/HAL/RN_RX200/IEC60335_B_libs/src/RAM\ramtest_march_x_wom.c **** {
 308                             		.loc 1 182 0
 309 0000 6E 7B                   		pushm	r7-r11
 310                             	.LCFI0:
 191:C:/Workspace/FW_Inertia/branch_indesit/HAL/RN_RX200/IEC60335_B_libs/src/RAM\ramtest_march_x_wom.c **** 	if(NULL == pui_RAMSafe)
 311                             		.loc 1 191 0
 312 0002 71 37 00                		add	#0, r3, r7
 313 0005 20 22                   		beq	.L57
 314 0007 EF 1B                   		mov.L	r1, r11
 315 0009 EF 2A                   		mov.L	r2, r10
 198:C:/Workspace/FW_Inertia/branch_indesit/HAL/RN_RX200/IEC60335_B_libs/src/RAM\ramtest_march_x_wom.c **** 		ui32_NumBlocks = 1 + ((ui32_EndAddr - ui32_StartAddr) / BYTES_PER_WORD);
 316                             		.loc 1 198 0
 317 000b 43 12                   		sub	r1, r2
 204:C:/Workspace/FW_Inertia/branch_indesit/HAL/RN_RX200/IEC60335_B_libs/src/RAM\ramtest_march_x_wom.c **** 		b_Result = RamTest_March_X_WOM((uint32_t)&pui_RAMSafe[0],
 318                             		.loc 1 204 0
 319 000d EF 71                   		mov.L	r7, r1
 320 000f 4B 72                   		add	r7, r2
 321 0011 66 03                   		mov.L	#0, r3
 322 0013 05 00 00 00             		bsr	_RamTest_March_X_WOM
 207:C:/Workspace/FW_Inertia/branch_indesit/HAL/RN_RX200/IEC60335_B_libs/src/RAM\ramtest_march_x_wom.c **** 		if(TRUE == b_Result)
 323                             		.loc 1 207 0
 324 0017 61 11                   		cmp	#1, r1
 325 0019 21 11                   		bne	.L56
 210:C:/Workspace/FW_Inertia/branch_indesit/HAL/RN_RX200/IEC60335_B_libs/src/RAM\ramtest_march_x_wom.c **** 			b_Result = RamTest_March_X_WOM(ui32_StartAddr, ui32_EndAddr, pui_RAMSafe);
 326                             		.loc 1 210 0
 327 001b EF B1                   		mov.L	r11, r1
 328 001d EF A2                   		mov.L	r10, r2
 329 001f EF 73                   		mov.L	r7, r3
 215:C:/Workspace/FW_Inertia/branch_indesit/HAL/RN_RX200/IEC60335_B_libs/src/RAM\ramtest_march_x_wom.c **** }
 330                             		.loc 1 215 0
 331 0021 6F 7B                   		popm	r7-r11
 210:C:/Workspace/FW_Inertia/branch_indesit/HAL/RN_RX200/IEC60335_B_libs/src/RAM\ramtest_march_x_wom.c **** 			b_Result = RamTest_March_X_WOM(ui32_StartAddr, ui32_EndAddr, pui_RAMSafe);
 332                             		.loc 1 210 0
 333 0023 04 00 00 00             		bra	_RamTest_March_X_WOM
 334                             	.L57:
 193:C:/Workspace/FW_Inertia/branch_indesit/HAL/RN_RX200/IEC60335_B_libs/src/RAM\ramtest_march_x_wom.c **** 		b_Result = FALSE;
 335                             		.loc 1 193 0
 336 0027 EF 71                   		mov.L	r7, r1
 337 0029 03                      		.balign 2,3,2
 338                             	.L56:
 215:C:/Workspace/FW_Inertia/branch_indesit/HAL/RN_RX200/IEC60335_B_libs/src/RAM\ramtest_march_x_wom.c **** }
 339                             		.loc 1 215 0
 340 002a 3F 7B 05                		rtsd	#20, r7-r11
 341                             	.LFE0:
 391                             	.Letext0:
 392                             		.file 2 "C:\\Workspace\\FW_Inertia\\branch_indesit\\HAL\\RN_RX200\\IEC60335_B_libs\\src\\Common/mi
DEFINED SYMBOLS
                            *ABS*:00000000 ramtest_march_x_wom.c
C:\Users\Andrea\AppData\Local\Temp\ccbr05E0.s:7      .text.RamTest_March_X_WOM:00000000 _RamTest_March_X_WOM
C:\Users\Andrea\AppData\Local\Temp\ccbr05E0.s:12     .text.RamTest_March_X_WOM:00000000 L0
C:\Users\Andrea\AppData\Local\Temp\ccbr05E0.s:306    .text.RamTest_March_X_WOM_Extra:00000000 _RamTest_March_X_WOM_Extra
C:\Users\Andrea\AppData\Local\Temp\ccbr05E0.s:309    .text.RamTest_March_X_WOM_Extra:00000000 L0
C:\Users\Andrea\AppData\Local\Temp\ccbr05E0.s:344    .debug_frame:00000000 .Lframe0
C:\Users\Andrea\AppData\Local\Temp\ccbr05E0.s:8      .text.RamTest_March_X_WOM:00000000 .LFB1
C:\Users\Andrea\AppData\Local\Temp\ccbr05E0.s:307    .text.RamTest_March_X_WOM_Extra:00000000 .LFB0
C:\Users\Andrea\AppData\Local\Temp\ccbr05E0.s:948    .debug_abbrev:00000000 .Ldebug_abbrev0
C:\Users\Andrea\AppData\Local\Temp\ccbr05E0.s:1666   .debug_str:0000011b .LASF33
C:\Users\Andrea\AppData\Local\Temp\ccbr05E0.s:1638   .debug_str:00000009 .LASF34
C:\Users\Andrea\AppData\Local\Temp\ccbr05E0.s:1590   .debug_ranges:00000000 .Ldebug_ranges0
C:\Users\Andrea\AppData\Local\Temp\ccbr05E0.s:1634   .debug_line:00000000 .Ldebug_line0
C:\Users\Andrea\AppData\Local\Temp\ccbr05E0.s:1674   .debug_str:00000161 .LASF0
C:\Users\Andrea\AppData\Local\Temp\ccbr05E0.s:1678   .debug_str:00000184 .LASF1
C:\Users\Andrea\AppData\Local\Temp\ccbr05E0.s:1680   .debug_str:00000189 .LASF4
C:\Users\Andrea\AppData\Local\Temp\ccbr05E0.s:1656   .debug_str:000000c7 .LASF2
C:\Users\Andrea\AppData\Local\Temp\ccbr05E0.s:1662   .debug_str:000000fd .LASF3
C:\Users\Andrea\AppData\Local\Temp\ccbr05E0.s:1698   .debug_str:000001fc .LASF5
C:\Users\Andrea\AppData\Local\Temp\ccbr05E0.s:1660   .debug_str:000000eb .LASF6
C:\Users\Andrea\AppData\Local\Temp\ccbr05E0.s:1706   .debug_str:00000228 .LASF7
C:\Users\Andrea\AppData\Local\Temp\ccbr05E0.s:1694   .debug_str:000001e9 .LASF8
C:\Users\Andrea\AppData\Local\Temp\ccbr05E0.s:1700   .debug_str:00000205 .LASF9
C:\Users\Andrea\AppData\Local\Temp\ccbr05E0.s:1654   .debug_str:000000c1 .LASF10
C:\Users\Andrea\AppData\Local\Temp\ccbr05E0.s:1670   .debug_str:0000014f .LASF11
C:\Users\Andrea\AppData\Local\Temp\ccbr05E0.s:1648   .debug_str:0000009f .LASF12
C:\Users\Andrea\AppData\Local\Temp\ccbr05E0.s:1684   .debug_str:0000019e .LASF13
C:\Users\Andrea\AppData\Local\Temp\ccbr05E0.s:1682   .debug_str:00000191 .LASF14
C:\Users\Andrea\AppData\Local\Temp\ccbr05E0.s:1676   .debug_str:0000016e .LASF24
C:\Users\Andrea\AppData\Local\Temp\ccbr05E0.s:1640   .debug_str:0000006b .LASF15
C:\Users\Andrea\AppData\Local\Temp\ccbr05E0.s:1692   .debug_str:000001dc .LASF16
C:\Users\Andrea\AppData\Local\Temp\ccbr05E0.s:1708   .debug_str:00000234 .LASF17
C:\Users\Andrea\AppData\Local\Temp\ccbr05E0.s:1668   .debug_str:00000141 .LASF18
C:\Users\Andrea\AppData\Local\Temp\ccbr05E0.s:1696   .debug_str:000001f3 .LASF19
C:\Users\Andrea\AppData\Local\Temp\ccbr05E0.s:1652   .debug_str:000000b8 .LASF20
C:\Users\Andrea\AppData\Local\Temp\ccbr05E0.s:1646   .debug_str:00000091 .LASF21
C:\Users\Andrea\AppData\Local\Temp\ccbr05E0.s:1664   .debug_str:00000110 .LASF35
C:\Users\Andrea\AppData\Local\Temp\ccbr05E0.s:1672   .debug_str:00000156 .LASF22
C:\Users\Andrea\AppData\Local\Temp\ccbr05E0.s:1636   .debug_str:00000000 .LASF23
C:\Users\Andrea\AppData\Local\Temp\ccbr05E0.s:1650   .debug_str:000000a6 .LASF25
C:\Users\Andrea\AppData\Local\Temp\ccbr05E0.s:1658   .debug_str:000000d5 .LASF26
C:\Users\Andrea\AppData\Local\Temp\ccbr05E0.s:1702   .debug_str:0000020e .LASF27
C:\Users\Andrea\AppData\Local\Temp\ccbr05E0.s:1710   .debug_str:00000241 .LASF36
C:\Users\Andrea\AppData\Local\Temp\ccbr05E0.s:301    .text.RamTest_March_X_WOM:000000f8 .LFE1
C:\Users\Andrea\AppData\Local\Temp\ccbr05E0.s:1644   .debug_str:00000082 .LASF28
C:\Users\Andrea\AppData\Local\Temp\ccbr05E0.s:1326   .debug_loc:00000000 .LLST0
C:\Users\Andrea\AppData\Local\Temp\ccbr05E0.s:1704   .debug_str:0000021b .LASF29
C:\Users\Andrea\AppData\Local\Temp\ccbr05E0.s:1353   .debug_loc:0000004a .LLST1
C:\Users\Andrea\AppData\Local\Temp\ccbr05E0.s:1688   .debug_str:000001b8 .LASF30
C:\Users\Andrea\AppData\Local\Temp\ccbr05E0.s:1371   .debug_loc:00000076 .LLST2
C:\Users\Andrea\AppData\Local\Temp\ccbr05E0.s:1642   .debug_str:00000073 .LASF31
C:\Users\Andrea\AppData\Local\Temp\ccbr05E0.s:1388   .debug_loc:000000a1 .LLST3
C:\Users\Andrea\AppData\Local\Temp\ccbr05E0.s:1405   .debug_loc:000000cc .LLST4
C:\Users\Andrea\AppData\Local\Temp\ccbr05E0.s:1686   .debug_str:000001ac .LASF32
C:\Users\Andrea\AppData\Local\Temp\ccbr05E0.s:36     .text.RamTest_March_X_WOM:0000001c .LBB16
C:\Users\Andrea\AppData\Local\Temp\ccbr05E0.s:1424   .debug_loc:00000100 .LLST5
C:\Users\Andrea\AppData\Local\Temp\ccbr05E0.s:64     .text.RamTest_March_X_WOM:0000002f .LBB20
C:\Users\Andrea\AppData\Local\Temp\ccbr05E0.s:258    .text.RamTest_March_X_WOM:000000dc .LBE20
C:\Users\Andrea\AppData\Local\Temp\ccbr05E0.s:65     .text.RamTest_March_X_WOM:0000002f .LBB21
C:\Users\Andrea\AppData\Local\Temp\ccbr05E0.s:257    .text.RamTest_March_X_WOM:000000dc .LBE21
C:\Users\Andrea\AppData\Local\Temp\ccbr05E0.s:1435   .debug_loc:0000011e .LLST6
C:\Users\Andrea\AppData\Local\Temp\ccbr05E0.s:1442   .debug_loc:00000131 .LLST7
C:\Users\Andrea\AppData\Local\Temp\ccbr05E0.s:83     .text.RamTest_March_X_WOM:00000041 .LBB22
C:\Users\Andrea\AppData\Local\Temp\ccbr05E0.s:1453   .debug_loc:0000014f .LLST8
C:\Users\Andrea\AppData\Local\Temp\ccbr05E0.s:1464   .debug_loc:0000016d .LLST9
C:\Users\Andrea\AppData\Local\Temp\ccbr05E0.s:130    .text.RamTest_March_X_WOM:00000064 .LBB26
C:\Users\Andrea\AppData\Local\Temp\ccbr05E0.s:158    .text.RamTest_March_X_WOM:0000007e .LBE26
C:\Users\Andrea\AppData\Local\Temp\ccbr05E0.s:131    .text.RamTest_March_X_WOM:00000064 .LBB27
C:\Users\Andrea\AppData\Local\Temp\ccbr05E0.s:157    .text.RamTest_March_X_WOM:0000007e .LBE27
C:\Users\Andrea\AppData\Local\Temp\ccbr05E0.s:1475   .debug_loc:0000018b .LLST10
C:\Users\Andrea\AppData\Local\Temp\ccbr05E0.s:1482   .debug_loc:0000019e .LLST11
C:\Users\Andrea\AppData\Local\Temp\ccbr05E0.s:1489   .debug_loc:000001b1 .LLST12
C:\Users\Andrea\AppData\Local\Temp\ccbr05E0.s:169    .text.RamTest_March_X_WOM:00000089 .LBB28
C:\Users\Andrea\AppData\Local\Temp\ccbr05E0.s:193    .text.RamTest_March_X_WOM:0000009e .LBE28
C:\Users\Andrea\AppData\Local\Temp\ccbr05E0.s:170    .text.RamTest_March_X_WOM:00000089 .LBB29
C:\Users\Andrea\AppData\Local\Temp\ccbr05E0.s:192    .text.RamTest_March_X_WOM:0000009e .LBE29
C:\Users\Andrea\AppData\Local\Temp\ccbr05E0.s:1506   .debug_loc:000001dc .LLST13
C:\Users\Andrea\AppData\Local\Temp\ccbr05E0.s:1513   .debug_loc:000001ef .LLST14
C:\Users\Andrea\AppData\Local\Temp\ccbr05E0.s:204    .text.RamTest_March_X_WOM:000000a8 .LBB30
C:\Users\Andrea\AppData\Local\Temp\ccbr05E0.s:232    .text.RamTest_March_X_WOM:000000c2 .LBE30
C:\Users\Andrea\AppData\Local\Temp\ccbr05E0.s:205    .text.RamTest_March_X_WOM:000000a8 .LBB31
C:\Users\Andrea\AppData\Local\Temp\ccbr05E0.s:231    .text.RamTest_March_X_WOM:000000c2 .LBE31
C:\Users\Andrea\AppData\Local\Temp\ccbr05E0.s:1520   .debug_loc:00000202 .LLST15
C:\Users\Andrea\AppData\Local\Temp\ccbr05E0.s:1527   .debug_loc:00000215 .LLST16
C:\Users\Andrea\AppData\Local\Temp\ccbr05E0.s:1534   .debug_loc:00000228 .LLST17
C:\Users\Andrea\AppData\Local\Temp\ccbr05E0.s:268    .text.RamTest_March_X_WOM:000000e7 .LBB32
C:\Users\Andrea\AppData\Local\Temp\ccbr05E0.s:1551   .debug_loc:00000253 .LLST18
C:\Users\Andrea\AppData\Local\Temp\ccbr05E0.s:1690   .debug_str:000001c2 .LASF37
C:\Users\Andrea\AppData\Local\Temp\ccbr05E0.s:341    .text.RamTest_March_X_WOM_Extra:0000002d .LFE0
C:\Users\Andrea\AppData\Local\Temp\ccbr05E0.s:1562   .debug_loc:00000271 .LLST19
C:\Users\Andrea\AppData\Local\Temp\ccbr05E0.s:11     .text.RamTest_March_X_WOM:00000000 .LVL0
C:\Users\Andrea\AppData\Local\Temp\ccbr05E0.s:25     .text.RamTest_March_X_WOM:00000011 .LVL4
C:\Users\Andrea\AppData\Local\Temp\ccbr05E0.s:45     .text.RamTest_March_X_WOM:00000023 .LVL7
C:\Users\Andrea\AppData\Local\Temp\ccbr05E0.s:50     .text.RamTest_March_X_WOM:00000025 .LVL8
C:\Users\Andrea\AppData\Local\Temp\ccbr05E0.s:292    .text.RamTest_March_X_WOM:000000f5 .LVL40
C:\Users\Andrea\AppData\Local\Temp\ccbr05E0.s:298    .text.RamTest_March_X_WOM:000000f7 .LVL41
C:\Users\Andrea\AppData\Local\Temp\ccbr05E0.s:19     .text.RamTest_March_X_WOM:0000000b .LVL2
C:\Users\Andrea\AppData\Local\Temp\ccbr05E0.s:13     .text.RamTest_March_X_WOM:00000002 .LVL1
C:\Users\Andrea\AppData\Local\Temp\ccbr05E0.s:254    .text.RamTest_March_X_WOM:000000dc .LVL35
C:\Users\Andrea\AppData\Local\Temp\ccbr05E0.s:21     .text.RamTest_March_X_WOM:0000000d .LVL3
C:\Users\Andrea\AppData\Local\Temp\ccbr05E0.s:31     .text.RamTest_March_X_WOM:00000016 .LVL5
C:\Users\Andrea\AppData\Local\Temp\ccbr05E0.s:58     .text.RamTest_March_X_WOM:0000002c .LVL9
C:\Users\Andrea\AppData\Local\Temp\ccbr05E0.s:76     .text.RamTest_March_X_WOM:0000003a .LVL11
C:\Users\Andrea\AppData\Local\Temp\ccbr05E0.s:237    .text.RamTest_March_X_WOM:000000c8 .LVL33
C:\Users\Andrea\AppData\Local\Temp\ccbr05E0.s:79     .text.RamTest_March_X_WOM:0000003e .LVL12
C:\Users\Andrea\AppData\Local\Temp\ccbr05E0.s:99     .text.RamTest_March_X_WOM:0000004e .LVL14
C:\Users\Andrea\AppData\Local\Temp\ccbr05E0.s:107    .text.RamTest_March_X_WOM:00000053 .LVL15
C:\Users\Andrea\AppData\Local\Temp\ccbr05E0.s:126    .text.RamTest_March_X_WOM:00000062 .LVL18
C:\Users\Andrea\AppData\Local\Temp\ccbr05E0.s:124    .text.RamTest_March_X_WOM:00000060 .LVL17
C:\Users\Andrea\AppData\Local\Temp\ccbr05E0.s:128    .text.RamTest_March_X_WOM:00000064 .LVL19
C:\Users\Andrea\AppData\Local\Temp\ccbr05E0.s:163    .text.RamTest_March_X_WOM:00000084 .LVL23
C:\Users\Andrea\AppData\Local\Temp\ccbr05E0.s:134    .text.RamTest_March_X_WOM:00000066 .LVL20
C:\Users\Andrea\AppData\Local\Temp\ccbr05E0.s:151    .text.RamTest_March_X_WOM:00000079 .LVL22
C:\Users\Andrea\AppData\Local\Temp\ccbr05E0.s:165    .text.RamTest_March_X_WOM:00000086 .LVL24
C:\Users\Andrea\AppData\Local\Temp\ccbr05E0.s:200    .text.RamTest_March_X_WOM:000000a6 .LVL28
C:\Users\Andrea\AppData\Local\Temp\ccbr05E0.s:198    .text.RamTest_March_X_WOM:000000a4 .LVL27
C:\Users\Andrea\AppData\Local\Temp\ccbr05E0.s:202    .text.RamTest_March_X_WOM:000000a8 .LVL29
C:\Users\Andrea\AppData\Local\Temp\ccbr05E0.s:208    .text.RamTest_March_X_WOM:000000aa .LVL30
C:\Users\Andrea\AppData\Local\Temp\ccbr05E0.s:225    .text.RamTest_March_X_WOM:000000bd .LVL32
C:\Users\Andrea\AppData\Local\Temp\ccbr05E0.s:263    .text.RamTest_March_X_WOM:000000e1 .LVL36
C:\Users\Andrea\AppData\Local\Temp\ccbr05E0.s:277    .text.RamTest_March_X_WOM:000000ee .LVL38
C:\Users\Andrea\AppData\Local\Temp\ccbr05E0.s:285    .text.RamTest_March_X_WOM:000000f0 .LVL39
C:\Users\Andrea\AppData\Local\Temp\ccbr05E0.s:310    .text.RamTest_March_X_WOM_Extra:00000002 .LCFI0
C:\Users\Andrea\AppData\Local\Temp\ccbr05E0.s:394    .debug_info:00000000 .Ldebug_info0
C:\Users\Andrea\AppData\Local\Temp\ccbr05E0.s:48     .text.RamTest_March_X_WOM:00000023 .LBE16
C:\Users\Andrea\AppData\Local\Temp\ccbr05E0.s:53     .text.RamTest_March_X_WOM:00000026 .LBB19
C:\Users\Andrea\AppData\Local\Temp\ccbr05E0.s:63     .text.RamTest_March_X_WOM:0000002f .LBE19
C:\Users\Andrea\AppData\Local\Temp\ccbr05E0.s:37     .text.RamTest_March_X_WOM:0000001c .LBB17
C:\Users\Andrea\AppData\Local\Temp\ccbr05E0.s:47     .text.RamTest_March_X_WOM:00000023 .LBE17
C:\Users\Andrea\AppData\Local\Temp\ccbr05E0.s:54     .text.RamTest_March_X_WOM:00000026 .LBB18
C:\Users\Andrea\AppData\Local\Temp\ccbr05E0.s:62     .text.RamTest_March_X_WOM:0000002f .LBE18
C:\Users\Andrea\AppData\Local\Temp\ccbr05E0.s:103    .text.RamTest_March_X_WOM:0000004e .LBE22
C:\Users\Andrea\AppData\Local\Temp\ccbr05E0.s:109    .text.RamTest_March_X_WOM:00000053 .LBB25
C:\Users\Andrea\AppData\Local\Temp\ccbr05E0.s:119    .text.RamTest_March_X_WOM:0000005a .LBE25
C:\Users\Andrea\AppData\Local\Temp\ccbr05E0.s:84     .text.RamTest_March_X_WOM:00000041 .LBB23
C:\Users\Andrea\AppData\Local\Temp\ccbr05E0.s:102    .text.RamTest_March_X_WOM:0000004e .LBE23
C:\Users\Andrea\AppData\Local\Temp\ccbr05E0.s:110    .text.RamTest_March_X_WOM:00000053 .LBB24
C:\Users\Andrea\AppData\Local\Temp\ccbr05E0.s:118    .text.RamTest_March_X_WOM:0000005a .LBE24
C:\Users\Andrea\AppData\Local\Temp\ccbr05E0.s:280    .text.RamTest_March_X_WOM:000000ee .LBE32
C:\Users\Andrea\AppData\Local\Temp\ccbr05E0.s:286    .text.RamTest_March_X_WOM:000000f0 .LBB35
C:\Users\Andrea\AppData\Local\Temp\ccbr05E0.s:295    .text.RamTest_March_X_WOM:000000f5 .LBE35
C:\Users\Andrea\AppData\Local\Temp\ccbr05E0.s:269    .text.RamTest_March_X_WOM:000000e7 .LBB33
C:\Users\Andrea\AppData\Local\Temp\ccbr05E0.s:279    .text.RamTest_March_X_WOM:000000ee .LBE33
C:\Users\Andrea\AppData\Local\Temp\ccbr05E0.s:287    .text.RamTest_March_X_WOM:000000f0 .LBB34
C:\Users\Andrea\AppData\Local\Temp\ccbr05E0.s:294    .text.RamTest_March_X_WOM:000000f5 .LBE34

NO UNDEFINED SYMBOLS
